
udp:     file format elf32-i386


Disassembly of section .init:

000010f4 <__entry>:
    10f4:	66 8c d0             	mov    %ss,%ax
    10f7:	8e d8                	mov    %eax,%ds
    10f9:	8e c0                	mov    %eax,%es
    10fb:	8e e0                	mov    %eax,%fs
    10fd:	b8 01 00 00 00       	mov    $0x1,%eax
    1102:	0f a2                	cpuid  
    1104:	0f ba e2 0b          	bt     $0xb,%edx
    1108:	73 0c                	jae    1116 <__entry+0x22>
    110a:	8d 05 60 62 00 00    	lea    0x6260,%eax
    1110:	c7 00 b0 48 00 00    	movl   $0x48b0,(%eax)
    1116:	6a 00                	push   $0x0
    1118:	6a 00                	push   $0x0
    111a:	89 e5                	mov    %esp,%ebp
    111c:	57                   	push   %edi
    111d:	e8 2e 35 00 00       	call   4650 <__main@plt>

Disassembly of section .text:

00001130 <udp_assocs_init>:
    1130:	55                   	push   %ebp
    1131:	89 e5                	mov    %esp,%ebp
    1133:	83 ec 14             	sub    $0x14,%esp
    1136:	68 68 62 00 00       	push   $0x6268
    113b:	e8 d0 1b 00 00       	call   2d10 <amap_create>
    1140:	83 c4 10             	add    $0x10,%esp
    1143:	85 c0                	test   %eax,%eax
    1145:	74 05                	je     114c <udp_assocs_init+0x1c>
    1147:	83 f8 fe             	cmp    $0xfffffffe,%eax
    114a:	75 02                	jne    114e <udp_assocs_init+0x1e>
    114c:	c9                   	leave  
    114d:	c3                   	ret    
    114e:	50                   	push   %eax
    114f:	6a 42                	push   $0x42
    1151:	68 76 3a 00 00       	push   $0x3a76
    1156:	68 7e 3a 00 00       	push   $0x3a7e
    115b:	e8 10 36 00 00       	call   4770 <assert_abort@plt>

00001160 <udp_assoc_new>:
    1160:	55                   	push   %ebp
    1161:	89 e5                	mov    %esp,%ebp
    1163:	57                   	push   %edi
    1164:	56                   	push   %esi
    1165:	53                   	push   %ebx
    1166:	83 ec 14             	sub    $0x14,%esp
    1169:	8b 75 08             	mov    0x8(%ebp),%esi
    116c:	6a 70                	push   $0x70
    116e:	6a 01                	push   $0x1
    1170:	e8 0b 36 00 00       	call   4780 <calloc@plt>
    1175:	83 c4 10             	add    $0x10,%esp
    1178:	89 c3                	mov    %eax,%ebx
    117a:	85 c0                	test   %eax,%eax
    117c:	74 44                	je     11c2 <udp_assoc_new+0x62>
    117e:	83 ec 0c             	sub    $0xc,%esp
    1181:	8d 40 44             	lea    0x44(%eax),%eax
    1184:	50                   	push   %eax
    1185:	e8 56 36 00 00       	call   47e0 <fibril_mutex_initialize@plt>
    118a:	8d 43 58             	lea    0x58(%ebx),%eax
    118d:	c7 43 54 01 00 00 00 	movl   $0x1,0x54(%ebx)
    1194:	89 43 58             	mov    %eax,0x58(%ebx)
    1197:	89 43 5c             	mov    %eax,0x5c(%ebx)
    119a:	8d 43 60             	lea    0x60(%ebx),%eax
    119d:	89 04 24             	mov    %eax,(%esp)
    11a0:	e8 eb 35 00 00       	call   4790 <fibril_condvar_initialize@plt>
    11a5:	83 c4 10             	add    $0x10,%esp
    11a8:	85 f6                	test   %esi,%esi
    11aa:	74 0a                	je     11b6 <udp_assoc_new+0x56>
    11ac:	8d 7b 0c             	lea    0xc(%ebx),%edi
    11af:	b9 0d 00 00 00       	mov    $0xd,%ecx
    11b4:	f3 a5                	rep movsl %ds:(%esi),%es:(%edi)
    11b6:	8b 45 0c             	mov    0xc(%ebp),%eax
    11b9:	89 43 68             	mov    %eax,0x68(%ebx)
    11bc:	8b 45 10             	mov    0x10(%ebp),%eax
    11bf:	89 43 6c             	mov    %eax,0x6c(%ebx)
    11c2:	8d 65 f4             	lea    -0xc(%ebp),%esp
    11c5:	89 d8                	mov    %ebx,%eax
    11c7:	5b                   	pop    %ebx
    11c8:	5e                   	pop    %esi
    11c9:	5f                   	pop    %edi
    11ca:	5d                   	pop    %ebp
    11cb:	c3                   	ret    
    11cc:	8d 74 26 00          	lea    0x0(%esi,%eiz,1),%esi

000011d0 <udp_assoc_addref>:
    11d0:	55                   	push   %ebp
    11d1:	89 e5                	mov    %esp,%ebp
    11d3:	53                   	push   %ebx
    11d4:	83 ec 10             	sub    $0x10,%esp
    11d7:	8b 5d 08             	mov    0x8(%ebp),%ebx
    11da:	53                   	push   %ebx
    11db:	8b 03                	mov    (%ebx),%eax
    11dd:	50                   	push   %eax
    11de:	68 8b 3a 00 00       	push   $0x3a8b
    11e3:	6a 04                	push   $0x4
    11e5:	6a ff                	push   $0xffffffff
    11e7:	e8 44 35 00 00       	call   4730 <log_msg@plt>
    11ec:	f0 ff 43 54          	lock incl 0x54(%ebx)
    11f0:	83 c4 20             	add    $0x20,%esp
    11f3:	8b 5d fc             	mov    -0x4(%ebp),%ebx
    11f6:	c9                   	leave  
    11f7:	c3                   	ret    
    11f8:	90                   	nop
    11f9:	8d b4 26 00 00 00 00 	lea    0x0(%esi,%eiz,1),%esi

00001200 <udp_assoc_delref>:
    1200:	55                   	push   %ebp
    1201:	89 e5                	mov    %esp,%ebp
    1203:	57                   	push   %edi
    1204:	56                   	push   %esi
    1205:	53                   	push   %ebx
    1206:	83 ec 18             	sub    $0x18,%esp
    1209:	8b 75 08             	mov    0x8(%ebp),%esi
    120c:	56                   	push   %esi
    120d:	8b 0e                	mov    (%esi),%ecx
    120f:	51                   	push   %ecx
    1210:	68 a4 3a 00 00       	push   $0x3aa4
    1215:	6a 04                	push   $0x4
    1217:	6a ff                	push   $0xffffffff
    1219:	e8 12 35 00 00       	call   4730 <log_msg@plt>
    121e:	83 c8 ff             	or     $0xffffffff,%eax
    1221:	f0 0f c1 46 54       	lock xadd %eax,0x54(%esi)
    1226:	83 c4 20             	add    $0x20,%esp
    1229:	48                   	dec    %eax
    122a:	74 0c                	je     1238 <udp_assoc_delref+0x38>
    122c:	8d 65 f4             	lea    -0xc(%ebp),%esp
    122f:	5b                   	pop    %ebx
    1230:	5e                   	pop    %esi
    1231:	5f                   	pop    %edi
    1232:	5d                   	pop    %ebp
    1233:	c3                   	ret    
    1234:	8d 74 26 00          	lea    0x0(%esi,%eiz,1),%esi
    1238:	83 ec 0c             	sub    $0xc,%esp
    123b:	8d 7e 58             	lea    0x58(%esi),%edi
    123e:	56                   	push   %esi
    123f:	8b 16                	mov    (%esi),%edx
    1241:	52                   	push   %edx
    1242:	68 bd 3a 00 00       	push   $0x3abd
    1247:	6a 04                	push   $0x4
    1249:	6a ff                	push   $0xffffffff
    124b:	e8 e0 34 00 00       	call   4730 <log_msg@plt>
    1250:	8b 5e 5c             	mov    0x5c(%esi),%ebx
    1253:	83 c4 20             	add    $0x20,%esp
    1256:	39 df                	cmp    %ebx,%edi
    1258:	74 45                	je     129f <udp_assoc_delref+0x9f>
    125a:	8d b6 00 00 00 00    	lea    0x0(%esi),%esi
    1260:	8b 13                	mov    (%ebx),%edx
    1262:	85 d2                	test   %edx,%edx
    1264:	74 0e                	je     1274 <udp_assoc_delref+0x74>
    1266:	8b 43 04             	mov    0x4(%ebx),%eax
    1269:	85 c0                	test   %eax,%eax
    126b:	74 07                	je     1274 <udp_assoc_delref+0x74>
    126d:	89 10                	mov    %edx,(%eax)
    126f:	8b 13                	mov    (%ebx),%edx
    1271:	89 42 04             	mov    %eax,0x4(%edx)
    1274:	83 ec 0c             	sub    $0xc,%esp
    1277:	8b 43 3c             	mov    0x3c(%ebx),%eax
    127a:	c7 03 00 00 00 00    	movl   $0x0,(%ebx)
    1280:	c7 43 04 00 00 00 00 	movl   $0x0,0x4(%ebx)
    1287:	50                   	push   %eax
    1288:	e8 f3 07 00 00       	call   1a80 <udp_msg_delete>
    128d:	89 1c 24             	mov    %ebx,(%esp)
    1290:	e8 6b 36 00 00       	call   4900 <free@plt>
    1295:	8b 5e 5c             	mov    0x5c(%esi),%ebx
    1298:	83 c4 10             	add    $0x10,%esp
    129b:	39 df                	cmp    %ebx,%edi
    129d:	75 c1                	jne    1260 <udp_assoc_delref+0x60>
    129f:	89 75 08             	mov    %esi,0x8(%ebp)
    12a2:	8d 65 f4             	lea    -0xc(%ebp),%esp
    12a5:	5b                   	pop    %ebx
    12a6:	5e                   	pop    %esi
    12a7:	5f                   	pop    %edi
    12a8:	5d                   	pop    %ebp
    12a9:	e9 52 36 00 00       	jmp    4900 <free@plt>
    12ae:	66 90                	xchg   %ax,%ax

000012b0 <udp_assoc_delete>:
    12b0:	55                   	push   %ebp
    12b1:	89 e5                	mov    %esp,%ebp
    12b3:	57                   	push   %edi
    12b4:	56                   	push   %esi
    12b5:	53                   	push   %ebx
    12b6:	83 ec 18             	sub    $0x18,%esp
    12b9:	8b 75 08             	mov    0x8(%ebp),%esi
    12bc:	56                   	push   %esi
    12bd:	8b 3e                	mov    (%esi),%edi
    12bf:	57                   	push   %edi
    12c0:	68 d4 3a 00 00       	push   $0x3ad4
    12c5:	6a 04                	push   $0x4
    12c7:	6a ff                	push   $0xffffffff
    12c9:	e8 62 34 00 00       	call   4730 <log_msg@plt>
    12ce:	83 c4 20             	add    $0x20,%esp
    12d1:	80 7e 41 00          	cmpb   $0x0,0x41(%esi)
    12d5:	0f 85 b4 00 00 00    	jne    138f <udp_assoc_delete+0xdf>
    12db:	83 ec 0c             	sub    $0xc,%esp
    12de:	8b 0e                	mov    (%esi),%ecx
    12e0:	56                   	push   %esi
    12e1:	51                   	push   %ecx
    12e2:	68 a4 3a 00 00       	push   $0x3aa4
    12e7:	6a 04                	push   $0x4
    12e9:	6a ff                	push   $0xffffffff
    12eb:	e8 40 34 00 00       	call   4730 <log_msg@plt>
    12f0:	83 c8 ff             	or     $0xffffffff,%eax
    12f3:	f0 0f c1 46 54       	lock xadd %eax,0x54(%esi)
    12f8:	83 c4 20             	add    $0x20,%esp
    12fb:	48                   	dec    %eax
    12fc:	74 12                	je     1310 <udp_assoc_delete+0x60>
    12fe:	c6 46 41 01          	movb   $0x1,0x41(%esi)
    1302:	8d 65 f4             	lea    -0xc(%ebp),%esp
    1305:	5b                   	pop    %ebx
    1306:	5e                   	pop    %esi
    1307:	5f                   	pop    %edi
    1308:	5d                   	pop    %ebp
    1309:	c3                   	ret    
    130a:	8d b6 00 00 00 00    	lea    0x0(%esi),%esi
    1310:	83 ec 0c             	sub    $0xc,%esp
    1313:	8b 16                	mov    (%esi),%edx
    1315:	8d 7e 58             	lea    0x58(%esi),%edi
    1318:	56                   	push   %esi
    1319:	52                   	push   %edx
    131a:	68 bd 3a 00 00       	push   $0x3abd
    131f:	6a 04                	push   $0x4
    1321:	6a ff                	push   $0xffffffff
    1323:	e8 08 34 00 00       	call   4730 <log_msg@plt>
    1328:	8b 5e 5c             	mov    0x5c(%esi),%ebx
    132b:	83 c4 20             	add    $0x20,%esp
    132e:	39 df                	cmp    %ebx,%edi
    1330:	74 45                	je     1377 <udp_assoc_delete+0xc7>
    1332:	8d b6 00 00 00 00    	lea    0x0(%esi),%esi
    1338:	8b 13                	mov    (%ebx),%edx
    133a:	85 d2                	test   %edx,%edx
    133c:	74 0e                	je     134c <udp_assoc_delete+0x9c>
    133e:	8b 43 04             	mov    0x4(%ebx),%eax
    1341:	85 c0                	test   %eax,%eax
    1343:	74 07                	je     134c <udp_assoc_delete+0x9c>
    1345:	89 10                	mov    %edx,(%eax)
    1347:	8b 13                	mov    (%ebx),%edx
    1349:	89 42 04             	mov    %eax,0x4(%edx)
    134c:	83 ec 0c             	sub    $0xc,%esp
    134f:	8b 43 3c             	mov    0x3c(%ebx),%eax
    1352:	c7 03 00 00 00 00    	movl   $0x0,(%ebx)
    1358:	c7 43 04 00 00 00 00 	movl   $0x0,0x4(%ebx)
    135f:	50                   	push   %eax
    1360:	e8 1b 07 00 00       	call   1a80 <udp_msg_delete>
    1365:	89 1c 24             	mov    %ebx,(%esp)
    1368:	e8 93 35 00 00       	call   4900 <free@plt>
    136d:	8b 5e 5c             	mov    0x5c(%esi),%ebx
    1370:	83 c4 10             	add    $0x10,%esp
    1373:	39 df                	cmp    %ebx,%edi
    1375:	75 c1                	jne    1338 <udp_assoc_delete+0x88>
    1377:	83 ec 0c             	sub    $0xc,%esp
    137a:	56                   	push   %esi
    137b:	e8 80 35 00 00       	call   4900 <free@plt>
    1380:	c6 46 41 01          	movb   $0x1,0x41(%esi)
    1384:	83 c4 10             	add    $0x10,%esp
    1387:	8d 65 f4             	lea    -0xc(%ebp),%esp
    138a:	5b                   	pop    %ebx
    138b:	5e                   	pop    %esi
    138c:	5f                   	pop    %edi
    138d:	5d                   	pop    %ebp
    138e:	c3                   	ret    
    138f:	53                   	push   %ebx
    1390:	68 ae 00 00 00       	push   $0xae
    1395:	68 76 3a 00 00       	push   $0x3a76
    139a:	68 ed 3a 00 00       	push   $0x3aed
    139f:	e8 cc 33 00 00       	call   4770 <assert_abort@plt>
    13a4:	8d b6 00 00 00 00    	lea    0x0(%esi),%esi
    13aa:	8d bf 00 00 00 00    	lea    0x0(%edi),%edi

000013b0 <udp_assoc_add>:
    13b0:	55                   	push   %ebp
    13b1:	89 e5                	mov    %esp,%ebp
    13b3:	57                   	push   %edi
    13b4:	56                   	push   %esi
    13b5:	53                   	push   %ebx
    13b6:	83 ec 68             	sub    $0x68,%esp
    13b9:	8b 5d 08             	mov    0x8(%ebp),%ebx
    13bc:	53                   	push   %ebx
    13bd:	8b 33                	mov    (%ebx),%esi
    13bf:	56                   	push   %esi
    13c0:	68 8b 3a 00 00       	push   $0x3a8b
    13c5:	6a 04                	push   $0x4
    13c7:	6a ff                	push   $0xffffffff
    13c9:	e8 62 33 00 00       	call   4730 <log_msg@plt>
    13ce:	f0 ff 43 54          	lock incl 0x54(%ebx)
    13d2:	83 c4 14             	add    $0x14,%esp
    13d5:	8d 75 b4             	lea    -0x4c(%ebp),%esi
    13d8:	68 7c 61 00 00       	push   $0x617c
    13dd:	e8 2e 35 00 00       	call   4910 <fibril_mutex_lock@plt>
    13e2:	8d 53 0c             	lea    0xc(%ebx),%edx
    13e5:	8b 3d 68 62 00 00    	mov    0x6268,%edi
    13eb:	89 34 24             	mov    %esi,(%esp)
    13ee:	89 55 a4             	mov    %edx,-0x5c(%ebp)
    13f1:	6a 01                	push   $0x1
    13f3:	53                   	push   %ebx
    13f4:	52                   	push   %edx
    13f5:	57                   	push   %edi
    13f6:	e8 e5 19 00 00       	call   2de0 <amap_insert>
    13fb:	83 c4 20             	add    $0x20,%esp
    13fe:	8b 55 a4             	mov    -0x5c(%ebp),%edx
    1401:	85 c0                	test   %eax,%eax
    1403:	89 45 a4             	mov    %eax,-0x5c(%ebp)
    1406:	75 40                	jne    1448 <udp_assoc_add+0x98>
    1408:	89 d7                	mov    %edx,%edi
    140a:	b9 0d 00 00 00       	mov    $0xd,%ecx
    140f:	8b 15 8c 61 00 00    	mov    0x618c,%edx
    1415:	f3 a5                	rep movsl %ds:(%esi),%es:(%edi)
    1417:	8d 4b 04             	lea    0x4(%ebx),%ecx
    141a:	c7 43 08 8c 61 00 00 	movl   $0x618c,0x8(%ebx)
    1421:	89 53 04             	mov    %edx,0x4(%ebx)
    1424:	89 0d 8c 61 00 00    	mov    %ecx,0x618c
    142a:	89 4a 04             	mov    %ecx,0x4(%edx)
    142d:	83 ec 0c             	sub    $0xc,%esp
    1430:	68 7c 61 00 00       	push   $0x617c
    1435:	e8 96 33 00 00       	call   47d0 <fibril_mutex_unlock@plt>
    143a:	8b 45 a4             	mov    -0x5c(%ebp),%eax
    143d:	83 c4 10             	add    $0x10,%esp
    1440:	8d 65 f4             	lea    -0xc(%ebp),%esp
    1443:	5b                   	pop    %ebx
    1444:	5e                   	pop    %esi
    1445:	5f                   	pop    %edi
    1446:	5d                   	pop    %ebp
    1447:	c3                   	ret    
    1448:	83 ec 0c             	sub    $0xc,%esp
    144b:	8b 0b                	mov    (%ebx),%ecx
    144d:	53                   	push   %ebx
    144e:	51                   	push   %ecx
    144f:	68 a4 3a 00 00       	push   $0x3aa4
    1454:	6a 04                	push   $0x4
    1456:	6a ff                	push   $0xffffffff
    1458:	e8 d3 32 00 00       	call   4730 <log_msg@plt>
    145d:	83 c9 ff             	or     $0xffffffff,%ecx
    1460:	f0 0f c1 4b 54       	lock xadd %ecx,0x54(%ebx)
    1465:	83 c4 20             	add    $0x20,%esp
    1468:	8b 45 a4             	mov    -0x5c(%ebp),%eax
    146b:	49                   	dec    %ecx
    146c:	74 0a                	je     1478 <udp_assoc_add+0xc8>
    146e:	89 45 a4             	mov    %eax,-0x5c(%ebp)
    1471:	eb ba                	jmp    142d <udp_assoc_add+0x7d>
    1473:	90                   	nop
    1474:	8d 74 26 00          	lea    0x0(%esi,%eiz,1),%esi
    1478:	83 ec 0c             	sub    $0xc,%esp
    147b:	8b 13                	mov    (%ebx),%edx
    147d:	53                   	push   %ebx
    147e:	52                   	push   %edx
    147f:	68 bd 3a 00 00       	push   $0x3abd
    1484:	6a 04                	push   $0x4
    1486:	6a ff                	push   $0xffffffff
    1488:	e8 a3 32 00 00       	call   4730 <log_msg@plt>
    148d:	8d 43 58             	lea    0x58(%ebx),%eax
    1490:	8b 73 5c             	mov    0x5c(%ebx),%esi
    1493:	89 45 a0             	mov    %eax,-0x60(%ebp)
    1496:	83 c4 20             	add    $0x20,%esp
    1499:	39 c6                	cmp    %eax,%esi
    149b:	8b 45 a4             	mov    -0x5c(%ebp),%eax
    149e:	74 46                	je     14e6 <udp_assoc_add+0x136>
    14a0:	8b 3e                	mov    (%esi),%edi
    14a2:	85 ff                	test   %edi,%edi
    14a4:	74 0e                	je     14b4 <udp_assoc_add+0x104>
    14a6:	8b 4e 04             	mov    0x4(%esi),%ecx
    14a9:	85 c9                	test   %ecx,%ecx
    14ab:	74 07                	je     14b4 <udp_assoc_add+0x104>
    14ad:	89 39                	mov    %edi,(%ecx)
    14af:	8b 3e                	mov    (%esi),%edi
    14b1:	89 4f 04             	mov    %ecx,0x4(%edi)
    14b4:	83 ec 0c             	sub    $0xc,%esp
    14b7:	89 45 a4             	mov    %eax,-0x5c(%ebp)
    14ba:	8b 46 3c             	mov    0x3c(%esi),%eax
    14bd:	c7 06 00 00 00 00    	movl   $0x0,(%esi)
    14c3:	c7 46 04 00 00 00 00 	movl   $0x0,0x4(%esi)
    14ca:	50                   	push   %eax
    14cb:	e8 b0 05 00 00       	call   1a80 <udp_msg_delete>
    14d0:	89 34 24             	mov    %esi,(%esp)
    14d3:	e8 28 34 00 00       	call   4900 <free@plt>
    14d8:	8b 73 5c             	mov    0x5c(%ebx),%esi
    14db:	83 c4 10             	add    $0x10,%esp
    14de:	8b 45 a4             	mov    -0x5c(%ebp),%eax
    14e1:	3b 75 a0             	cmp    -0x60(%ebp),%esi
    14e4:	75 ba                	jne    14a0 <udp_assoc_add+0xf0>
    14e6:	83 ec 0c             	sub    $0xc,%esp
    14e9:	89 45 a4             	mov    %eax,-0x5c(%ebp)
    14ec:	53                   	push   %ebx
    14ed:	e8 0e 34 00 00       	call   4900 <free@plt>
    14f2:	83 c4 10             	add    $0x10,%esp
    14f5:	8b 45 a4             	mov    -0x5c(%ebp),%eax
    14f8:	e9 71 ff ff ff       	jmp    146e <udp_assoc_add+0xbe>
    14fd:	8d 76 00             	lea    0x0(%esi),%esi

00001500 <udp_assoc_remove>:
    1500:	55                   	push   %ebp
    1501:	89 e5                	mov    %esp,%ebp
    1503:	57                   	push   %edi
    1504:	56                   	push   %esi
    1505:	53                   	push   %ebx
    1506:	83 ec 18             	sub    $0x18,%esp
    1509:	8b 75 08             	mov    0x8(%ebp),%esi
    150c:	68 7c 61 00 00       	push   $0x617c
    1511:	e8 fa 33 00 00       	call   4910 <fibril_mutex_lock@plt>
    1516:	8d 46 0c             	lea    0xc(%esi),%eax
    1519:	5b                   	pop    %ebx
    151a:	5f                   	pop    %edi
    151b:	50                   	push   %eax
    151c:	a1 68 62 00 00       	mov    0x6268,%eax
    1521:	50                   	push   %eax
    1522:	e8 69 1d 00 00       	call   3290 <amap_remove>
    1527:	8b 56 04             	mov    0x4(%esi),%edx
    152a:	83 c4 10             	add    $0x10,%esp
    152d:	85 d2                	test   %edx,%edx
    152f:	74 0f                	je     1540 <udp_assoc_remove+0x40>
    1531:	8b 46 08             	mov    0x8(%esi),%eax
    1534:	85 c0                	test   %eax,%eax
    1536:	74 08                	je     1540 <udp_assoc_remove+0x40>
    1538:	89 10                	mov    %edx,(%eax)
    153a:	8b 56 04             	mov    0x4(%esi),%edx
    153d:	89 42 04             	mov    %eax,0x4(%edx)
    1540:	83 ec 0c             	sub    $0xc,%esp
    1543:	c7 46 04 00 00 00 00 	movl   $0x0,0x4(%esi)
    154a:	c7 46 08 00 00 00 00 	movl   $0x0,0x8(%esi)
    1551:	68 7c 61 00 00       	push   $0x617c
    1556:	e8 75 32 00 00       	call   47d0 <fibril_mutex_unlock@plt>
    155b:	89 34 24             	mov    %esi,(%esp)
    155e:	8b 0e                	mov    (%esi),%ecx
    1560:	51                   	push   %ecx
    1561:	68 a4 3a 00 00       	push   $0x3aa4
    1566:	6a 04                	push   $0x4
    1568:	6a ff                	push   $0xffffffff
    156a:	e8 c1 31 00 00       	call   4730 <log_msg@plt>
    156f:	83 c8 ff             	or     $0xffffffff,%eax
    1572:	f0 0f c1 46 54       	lock xadd %eax,0x54(%esi)
    1577:	83 c4 20             	add    $0x20,%esp
    157a:	48                   	dec    %eax
    157b:	74 0b                	je     1588 <udp_assoc_remove+0x88>
    157d:	8d 65 f4             	lea    -0xc(%ebp),%esp
    1580:	5b                   	pop    %ebx
    1581:	5e                   	pop    %esi
    1582:	5f                   	pop    %edi
    1583:	5d                   	pop    %ebp
    1584:	c3                   	ret    
    1585:	8d 76 00             	lea    0x0(%esi),%esi
    1588:	83 ec 0c             	sub    $0xc,%esp
    158b:	8d 7e 58             	lea    0x58(%esi),%edi
    158e:	56                   	push   %esi
    158f:	8b 16                	mov    (%esi),%edx
    1591:	52                   	push   %edx
    1592:	68 bd 3a 00 00       	push   $0x3abd
    1597:	6a 04                	push   $0x4
    1599:	6a ff                	push   $0xffffffff
    159b:	e8 90 31 00 00       	call   4730 <log_msg@plt>
    15a0:	8b 5e 5c             	mov    0x5c(%esi),%ebx
    15a3:	83 c4 20             	add    $0x20,%esp
    15a6:	39 df                	cmp    %ebx,%edi
    15a8:	74 45                	je     15ef <udp_assoc_remove+0xef>
    15aa:	8d b6 00 00 00 00    	lea    0x0(%esi),%esi
    15b0:	8b 13                	mov    (%ebx),%edx
    15b2:	85 d2                	test   %edx,%edx
    15b4:	74 0e                	je     15c4 <udp_assoc_remove+0xc4>
    15b6:	8b 43 04             	mov    0x4(%ebx),%eax
    15b9:	85 c0                	test   %eax,%eax
    15bb:	74 07                	je     15c4 <udp_assoc_remove+0xc4>
    15bd:	89 10                	mov    %edx,(%eax)
    15bf:	8b 13                	mov    (%ebx),%edx
    15c1:	89 42 04             	mov    %eax,0x4(%edx)
    15c4:	83 ec 0c             	sub    $0xc,%esp
    15c7:	8b 43 3c             	mov    0x3c(%ebx),%eax
    15ca:	c7 03 00 00 00 00    	movl   $0x0,(%ebx)
    15d0:	c7 43 04 00 00 00 00 	movl   $0x0,0x4(%ebx)
    15d7:	50                   	push   %eax
    15d8:	e8 a3 04 00 00       	call   1a80 <udp_msg_delete>
    15dd:	89 1c 24             	mov    %ebx,(%esp)
    15e0:	e8 1b 33 00 00       	call   4900 <free@plt>
    15e5:	8b 5e 5c             	mov    0x5c(%esi),%ebx
    15e8:	83 c4 10             	add    $0x10,%esp
    15eb:	39 fb                	cmp    %edi,%ebx
    15ed:	75 c1                	jne    15b0 <udp_assoc_remove+0xb0>
    15ef:	89 75 08             	mov    %esi,0x8(%ebp)
    15f2:	8d 65 f4             	lea    -0xc(%ebp),%esp
    15f5:	5b                   	pop    %ebx
    15f6:	5e                   	pop    %esi
    15f7:	5f                   	pop    %edi
    15f8:	5d                   	pop    %ebp
    15f9:	e9 02 33 00 00       	jmp    4900 <free@plt>
    15fe:	66 90                	xchg   %ax,%ax

00001600 <udp_assoc_set_iplink>:
    1600:	55                   	push   %ebp
    1601:	89 e5                	mov    %esp,%ebp
    1603:	57                   	push   %edi
    1604:	56                   	push   %esi
    1605:	53                   	push   %ebx
    1606:	83 ec 18             	sub    $0x18,%esp
    1609:	8b 5d 08             	mov    0x8(%ebp),%ebx
    160c:	8b 7d 0c             	mov    0xc(%ebp),%edi
    160f:	57                   	push   %edi
    1610:	53                   	push   %ebx
    1611:	68 05 3b 00 00       	push   $0x3b05
    1616:	6a 04                	push   $0x4
    1618:	6a ff                	push   $0xffffffff
    161a:	e8 11 31 00 00       	call   4730 <log_msg@plt>
    161f:	83 c4 14             	add    $0x14,%esp
    1622:	8d 73 44             	lea    0x44(%ebx),%esi
    1625:	56                   	push   %esi
    1626:	e8 e5 32 00 00       	call   4910 <fibril_mutex_lock@plt>
    162b:	89 7b 0c             	mov    %edi,0xc(%ebx)
    162e:	83 c4 10             	add    $0x10,%esp
    1631:	89 75 08             	mov    %esi,0x8(%ebp)
    1634:	8d 65 f4             	lea    -0xc(%ebp),%esp
    1637:	5b                   	pop    %ebx
    1638:	5e                   	pop    %esi
    1639:	5f                   	pop    %edi
    163a:	5d                   	pop    %ebp
    163b:	e9 90 31 00 00       	jmp    47d0 <fibril_mutex_unlock@plt>

00001640 <udp_assoc_send>:
    1640:	55                   	push   %ebp
    1641:	89 e5                	mov    %esp,%ebp
    1643:	57                   	push   %edi
    1644:	56                   	push   %esi
    1645:	53                   	push   %ebx
    1646:	83 ec 64             	sub    $0x64,%esp
    1649:	8d 7d b4             	lea    -0x4c(%ebp),%edi
    164c:	8b 45 10             	mov    0x10(%ebp),%eax
    164f:	8b 75 08             	mov    0x8(%ebp),%esi
    1652:	50                   	push   %eax
    1653:	8b 45 0c             	mov    0xc(%ebp),%eax
    1656:	50                   	push   %eax
    1657:	56                   	push   %esi
    1658:	83 c6 0c             	add    $0xc,%esi
    165b:	68 23 3b 00 00       	push   $0x3b23
    1660:	6a 04                	push   $0x4
    1662:	6a ff                	push   $0xffffffff
    1664:	e8 c7 30 00 00       	call   4730 <log_msg@plt>
    1669:	b9 0d 00 00 00       	mov    $0xd,%ecx
    166e:	8b 55 0c             	mov    0xc(%ebp),%edx
    1671:	83 c4 20             	add    $0x20,%esp
    1674:	f3 a5                	rep movsl %ds:(%esi),%es:(%edi)
    1676:	8d 5d d0             	lea    -0x30(%ebp),%ebx
    1679:	85 d2                	test   %edx,%edx
    167b:	74 0c                	je     1689 <udp_assoc_send+0x49>
    167d:	b9 06 00 00 00       	mov    $0x6,%ecx
    1682:	89 df                	mov    %ebx,%edi
    1684:	8b 75 0c             	mov    0xc(%ebp),%esi
    1687:	f3 a5                	rep movsl %ds:(%esi),%es:(%edi)
    1689:	50                   	push   %eax
    168a:	68 14 3c 00 00       	push   $0x3c14
    168f:	6a 04                	push   $0x4
    1691:	6a ff                	push   $0xffffffff
    1693:	e8 98 30 00 00       	call   4730 <log_msg@plt>
    1698:	89 1c 24             	mov    %ebx,(%esp)
    169b:	e8 20 32 00 00       	call   48c0 <inet_addr_is_any@plt>
    16a0:	83 c4 10             	add    $0x10,%esp
    16a3:	85 c0                	test   %eax,%eax
    16a5:	0f 85 9d 00 00 00    	jne    1748 <udp_assoc_send+0x108>
    16ab:	66 83 7d e4 00       	cmpw   $0x0,-0x1c(%ebp)
    16b0:	0f 84 92 00 00 00    	je     1748 <udp_assoc_send+0x108>
    16b6:	50                   	push   %eax
    16b7:	68 34 3c 00 00       	push   $0x3c34
    16bc:	6a 04                	push   $0x4
    16be:	6a ff                	push   $0xffffffff
    16c0:	e8 6b 30 00 00       	call   4730 <log_msg@plt>
    16c5:	8b 45 b8             	mov    -0x48(%ebp),%eax
    16c8:	83 c4 10             	add    $0x10,%esp
    16cb:	39 45 d0             	cmp    %eax,-0x30(%ebp)
    16ce:	75 78                	jne    1748 <udp_assoc_send+0x108>
    16d0:	50                   	push   %eax
    16d1:	68 3e 3b 00 00       	push   $0x3b3e
    16d6:	6a 04                	push   $0x4
    16d8:	6a ff                	push   $0xffffffff
    16da:	e8 51 30 00 00       	call   4730 <log_msg@plt>
    16df:	83 c4 0c             	add    $0xc,%esp
    16e2:	8d 45 b0             	lea    -0x50(%ebp),%eax
    16e5:	50                   	push   %eax
    16e6:	8b 45 10             	mov    0x10(%ebp),%eax
    16e9:	50                   	push   %eax
    16ea:	8d 45 b4             	lea    -0x4c(%ebp),%eax
    16ed:	50                   	push   %eax
    16ee:	e8 fd 04 00 00       	call   1bf0 <udp_pdu_encode>
    16f3:	83 c4 10             	add    $0x10,%esp
    16f6:	85 c0                	test   %eax,%eax
    16f8:	75 5e                	jne    1758 <udp_assoc_send+0x118>
    16fa:	52                   	push   %edx
    16fb:	68 5a 3b 00 00       	push   $0x3b5a
    1700:	6a 04                	push   $0x4
    1702:	6a ff                	push   $0xffffffff
    1704:	e8 27 30 00 00       	call   4730 <log_msg@plt>
    1709:	8b 5d b0             	mov    -0x50(%ebp),%ebx
    170c:	59                   	pop    %ecx
    170d:	53                   	push   %ebx
    170e:	e8 cd 13 00 00       	call   2ae0 <udp_transmit_pdu>
    1713:	8b 7d b0             	mov    -0x50(%ebp),%edi
    1716:	5e                   	pop    %esi
    1717:	89 45 a4             	mov    %eax,-0x5c(%ebp)
    171a:	57                   	push   %edi
    171b:	e8 b0 03 00 00       	call   1ad0 <udp_pdu_delete>
    1720:	8b 45 a4             	mov    -0x5c(%ebp),%eax
    1723:	83 c4 10             	add    $0x10,%esp
    1726:	85 c0                	test   %eax,%eax
    1728:	75 36                	jne    1760 <udp_assoc_send+0x120>
    172a:	50                   	push   %eax
    172b:	68 74 3b 00 00       	push   $0x3b74
    1730:	6a 04                	push   $0x4
    1732:	6a ff                	push   $0xffffffff
    1734:	e8 f7 2f 00 00       	call   4730 <log_msg@plt>
    1739:	83 c4 10             	add    $0x10,%esp
    173c:	8b 45 a4             	mov    -0x5c(%ebp),%eax
    173f:	8d 65 f4             	lea    -0xc(%ebp),%esp
    1742:	5b                   	pop    %ebx
    1743:	5e                   	pop    %esi
    1744:	5f                   	pop    %edi
    1745:	5d                   	pop    %ebp
    1746:	c3                   	ret    
    1747:	90                   	nop
    1748:	8d 65 f4             	lea    -0xc(%ebp),%esp
    174b:	b8 f2 ff ff ff       	mov    $0xfffffff2,%eax
    1750:	5b                   	pop    %ebx
    1751:	5e                   	pop    %esi
    1752:	5f                   	pop    %edi
    1753:	5d                   	pop    %ebp
    1754:	c3                   	ret    
    1755:	8d 76 00             	lea    0x0(%esi),%esi
    1758:	b8 fe ff ff ff       	mov    $0xfffffffe,%eax
    175d:	eb e0                	jmp    173f <udp_assoc_send+0xff>
    175f:	90                   	nop
    1760:	b8 f6 fe ff ff       	mov    $0xfffffef6,%eax
    1765:	eb d8                	jmp    173f <udp_assoc_send+0xff>
    1767:	89 f6                	mov    %esi,%esi
    1769:	8d bc 27 00 00 00 00 	lea    0x0(%edi,%eiz,1),%edi

00001770 <udp_assoc_recv>:
    1770:	55                   	push   %ebp
    1771:	89 e5                	mov    %esp,%ebp
    1773:	57                   	push   %edi
    1774:	56                   	push   %esi
    1775:	53                   	push   %ebx
    1776:	83 ec 20             	sub    $0x20,%esp
    1779:	8b 5d 08             	mov    0x8(%ebp),%ebx
    177c:	68 8d 3b 00 00       	push   $0x3b8d
    1781:	6a 04                	push   $0x4
    1783:	8d 73 44             	lea    0x44(%ebx),%esi
    1786:	6a ff                	push   $0xffffffff
    1788:	e8 a3 2f 00 00       	call   4730 <log_msg@plt>
    178d:	89 34 24             	mov    %esi,(%esp)
    1790:	e8 7b 31 00 00       	call   4910 <fibril_mutex_lock@plt>
    1795:	8d 43 58             	lea    0x58(%ebx),%eax
    1798:	8b 7b 5c             	mov    0x5c(%ebx),%edi
    179b:	83 c4 10             	add    $0x10,%esp
    179e:	89 45 e0             	mov    %eax,-0x20(%ebp)
    17a1:	39 c7                	cmp    %eax,%edi
    17a3:	75 40                	jne    17e5 <udp_assoc_recv+0x75>
    17a5:	80 7b 40 00          	cmpb   $0x0,0x40(%ebx)
    17a9:	0f 85 b9 00 00 00    	jne    1868 <udp_assoc_recv+0xf8>
    17af:	8d 43 60             	lea    0x60(%ebx),%eax
    17b2:	89 45 e4             	mov    %eax,-0x1c(%ebp)
    17b5:	eb 0b                	jmp    17c2 <udp_assoc_recv+0x52>
    17b7:	90                   	nop
    17b8:	80 7b 40 00          	cmpb   $0x0,0x40(%ebx)
    17bc:	0f 85 a6 00 00 00    	jne    1868 <udp_assoc_recv+0xf8>
    17c2:	51                   	push   %ecx
    17c3:	68 9e 3b 00 00       	push   $0x3b9e
    17c8:	6a 04                	push   $0x4
    17ca:	6a ff                	push   $0xffffffff
    17cc:	e8 5f 2f 00 00       	call   4730 <log_msg@plt>
    17d1:	8b 4d e4             	mov    -0x1c(%ebp),%ecx
    17d4:	58                   	pop    %eax
    17d5:	5a                   	pop    %edx
    17d6:	56                   	push   %esi
    17d7:	51                   	push   %ecx
    17d8:	e8 33 2f 00 00       	call   4710 <fibril_condvar_wait@plt>
    17dd:	83 c4 10             	add    $0x10,%esp
    17e0:	39 7b 5c             	cmp    %edi,0x5c(%ebx)
    17e3:	74 d3                	je     17b8 <udp_assoc_recv+0x48>
    17e5:	80 7b 40 00          	cmpb   $0x0,0x40(%ebx)
    17e9:	75 7d                	jne    1868 <udp_assoc_recv+0xf8>
    17eb:	52                   	push   %edx
    17ec:	68 54 3c 00 00       	push   $0x3c54
    17f1:	6a 04                	push   $0x4
    17f3:	6a ff                	push   $0xffffffff
    17f5:	e8 36 2f 00 00       	call   4730 <log_msg@plt>
    17fa:	8b 5b 5c             	mov    0x5c(%ebx),%ebx
    17fd:	83 c4 10             	add    $0x10,%esp
    1800:	3b 5d e0             	cmp    -0x20(%ebp),%ebx
    1803:	74 5b                	je     1860 <udp_assoc_recv+0xf0>
    1805:	8b 13                	mov    (%ebx),%edx
    1807:	85 d2                	test   %edx,%edx
    1809:	74 0e                	je     1819 <udp_assoc_recv+0xa9>
    180b:	8b 43 04             	mov    0x4(%ebx),%eax
    180e:	85 c0                	test   %eax,%eax
    1810:	74 07                	je     1819 <udp_assoc_recv+0xa9>
    1812:	89 10                	mov    %edx,(%eax)
    1814:	8b 13                	mov    (%ebx),%edx
    1816:	89 42 04             	mov    %eax,0x4(%edx)
    1819:	83 ec 0c             	sub    $0xc,%esp
    181c:	c7 03 00 00 00 00    	movl   $0x0,(%ebx)
    1822:	c7 43 04 00 00 00 00 	movl   $0x0,0x4(%ebx)
    1829:	56                   	push   %esi
    182a:	e8 a1 2f 00 00       	call   47d0 <fibril_mutex_unlock@plt>
    182f:	8b 45 0c             	mov    0xc(%ebp),%eax
    1832:	8b 53 3c             	mov    0x3c(%ebx),%edx
    1835:	8b 7d 10             	mov    0x10(%ebp),%edi
    1838:	8d 73 24             	lea    0x24(%ebx),%esi
    183b:	b9 06 00 00 00       	mov    $0x6,%ecx
    1840:	89 10                	mov    %edx,(%eax)
    1842:	f3 a5                	rep movsl %ds:(%esi),%es:(%edi)
    1844:	89 1c 24             	mov    %ebx,(%esp)
    1847:	e8 b4 30 00 00       	call   4900 <free@plt>
    184c:	83 c4 10             	add    $0x10,%esp
    184f:	8d 65 f4             	lea    -0xc(%ebp),%esp
    1852:	31 c0                	xor    %eax,%eax
    1854:	5b                   	pop    %ebx
    1855:	5e                   	pop    %esi
    1856:	5f                   	pop    %edi
    1857:	5d                   	pop    %ebp
    1858:	c3                   	ret    
    1859:	8d b4 26 00 00 00 00 	lea    0x0(%esi,%eiz,1),%esi
    1860:	a1 00 00 00 00       	mov    0x0,%eax
    1865:	0f 0b                	ud2    
    1867:	90                   	nop
    1868:	50                   	push   %eax
    1869:	68 78 3c 00 00       	push   $0x3c78
    186e:	6a 04                	push   $0x4
    1870:	6a ff                	push   $0xffffffff
    1872:	e8 b9 2e 00 00       	call   4730 <log_msg@plt>
    1877:	89 34 24             	mov    %esi,(%esp)
    187a:	e8 51 2f 00 00       	call   47d0 <fibril_mutex_unlock@plt>
    187f:	83 c4 10             	add    $0x10,%esp
    1882:	8d 65 f4             	lea    -0xc(%ebp),%esp
    1885:	b8 f4 fe ff ff       	mov    $0xfffffef4,%eax
    188a:	5b                   	pop    %ebx
    188b:	5e                   	pop    %esi
    188c:	5f                   	pop    %edi
    188d:	5d                   	pop    %ebp
    188e:	c3                   	ret    
    188f:	90                   	nop

00001890 <udp_assoc_received>:
    1890:	55                   	push   %ebp
    1891:	89 e5                	mov    %esp,%ebp
    1893:	57                   	push   %edi
    1894:	56                   	push   %esi
    1895:	53                   	push   %ebx
    1896:	83 ec 28             	sub    $0x28,%esp
    1899:	8b 5d 08             	mov    0x8(%ebp),%ebx
    189c:	8b 7d 0c             	mov    0xc(%ebp),%edi
    189f:	57                   	push   %edi
    18a0:	53                   	push   %ebx
    18a1:	68 b9 3b 00 00       	push   $0x3bb9
    18a6:	6a 04                	push   $0x4
    18a8:	6a ff                	push   $0xffffffff
    18aa:	e8 81 2e 00 00       	call   4730 <log_msg@plt>
    18af:	83 c4 20             	add    $0x20,%esp
    18b2:	53                   	push   %ebx
    18b3:	68 d4 3b 00 00       	push   $0x3bd4
    18b8:	6a 04                	push   $0x4
    18ba:	6a ff                	push   $0xffffffff
    18bc:	e8 6f 2e 00 00       	call   4730 <log_msg@plt>
    18c1:	c7 04 24 7c 61 00 00 	movl   $0x617c,(%esp)
    18c8:	e8 43 30 00 00       	call   4910 <fibril_mutex_lock@plt>
    18cd:	83 c4 0c             	add    $0xc,%esp
    18d0:	8d 45 e4             	lea    -0x1c(%ebp),%eax
    18d3:	50                   	push   %eax
    18d4:	a1 68 62 00 00       	mov    0x6268,%eax
    18d9:	53                   	push   %ebx
    18da:	50                   	push   %eax
    18db:	e8 d0 1c 00 00       	call   35b0 <amap_find_match>
    18e0:	83 c4 10             	add    $0x10,%esp
    18e3:	85 c0                	test   %eax,%eax
    18e5:	74 39                	je     1920 <udp_assoc_received+0x90>
    18e7:	40                   	inc    %eax
    18e8:	0f 85 15 01 00 00    	jne    1a03 <udp_assoc_received+0x173>
    18ee:	83 ec 0c             	sub    $0xc,%esp
    18f1:	68 7c 61 00 00       	push   $0x617c
    18f6:	e8 d5 2e 00 00       	call   47d0 <fibril_mutex_unlock@plt>
    18fb:	83 c4 0c             	add    $0xc,%esp
    18fe:	68 a4 3c 00 00       	push   $0x3ca4
    1903:	6a 04                	push   $0x4
    1905:	6a ff                	push   $0xffffffff
    1907:	e8 24 2e 00 00       	call   4730 <log_msg@plt>
    190c:	89 3c 24             	mov    %edi,(%esp)
    190f:	e8 6c 01 00 00       	call   1a80 <udp_msg_delete>
    1914:	83 c4 10             	add    $0x10,%esp
    1917:	8d 65 f4             	lea    -0xc(%ebp),%esp
    191a:	5b                   	pop    %ebx
    191b:	5e                   	pop    %esi
    191c:	5f                   	pop    %edi
    191d:	5d                   	pop    %ebp
    191e:	c3                   	ret    
    191f:	90                   	nop
    1920:	8b 75 e4             	mov    -0x1c(%ebp),%esi
    1923:	83 ec 0c             	sub    $0xc,%esp
    1926:	8b 0e                	mov    (%esi),%ecx
    1928:	56                   	push   %esi
    1929:	51                   	push   %ecx
    192a:	68 8b 3a 00 00       	push   $0x3a8b
    192f:	6a 04                	push   $0x4
    1931:	6a ff                	push   $0xffffffff
    1933:	e8 f8 2d 00 00       	call   4730 <log_msg@plt>
    1938:	f0 ff 46 54          	lock incl 0x54(%esi)
    193c:	83 c4 14             	add    $0x14,%esp
    193f:	68 7c 61 00 00       	push   $0x617c
    1944:	e8 87 2e 00 00       	call   47d0 <fibril_mutex_unlock@plt>
    1949:	83 c4 0c             	add    $0xc,%esp
    194c:	68 f8 3b 00 00       	push   $0x3bf8
    1951:	6a 04                	push   $0x4
    1953:	6a ff                	push   $0xffffffff
    1955:	e8 d6 2d 00 00       	call   4730 <log_msg@plt>
    195a:	83 c4 0c             	add    $0xc,%esp
    195d:	8b 46 68             	mov    0x68(%esi),%eax
    1960:	57                   	push   %edi
    1961:	53                   	push   %ebx
    1962:	8b 5e 6c             	mov    0x6c(%esi),%ebx
    1965:	53                   	push   %ebx
    1966:	ff 10                	call   *(%eax)
    1968:	8b 3e                	mov    (%esi),%edi
    196a:	89 34 24             	mov    %esi,(%esp)
    196d:	57                   	push   %edi
    196e:	68 a4 3a 00 00       	push   $0x3aa4
    1973:	6a 04                	push   $0x4
    1975:	6a ff                	push   $0xffffffff
    1977:	e8 b4 2d 00 00       	call   4730 <log_msg@plt>
    197c:	83 c8 ff             	or     $0xffffffff,%eax
    197f:	f0 0f c1 46 54       	lock xadd %eax,0x54(%esi)
    1984:	83 c4 20             	add    $0x20,%esp
    1987:	48                   	dec    %eax
    1988:	75 8d                	jne    1917 <udp_assoc_received+0x87>
    198a:	83 ec 0c             	sub    $0xc,%esp
    198d:	8b 16                	mov    (%esi),%edx
    198f:	8d 7e 58             	lea    0x58(%esi),%edi
    1992:	56                   	push   %esi
    1993:	52                   	push   %edx
    1994:	68 bd 3a 00 00       	push   $0x3abd
    1999:	6a 04                	push   $0x4
    199b:	6a ff                	push   $0xffffffff
    199d:	e8 8e 2d 00 00       	call   4730 <log_msg@plt>
    19a2:	8b 5e 5c             	mov    0x5c(%esi),%ebx
    19a5:	83 c4 20             	add    $0x20,%esp
    19a8:	39 df                	cmp    %ebx,%edi
    19aa:	74 43                	je     19ef <udp_assoc_received+0x15f>
    19ac:	8d 74 26 00          	lea    0x0(%esi,%eiz,1),%esi
    19b0:	8b 13                	mov    (%ebx),%edx
    19b2:	85 d2                	test   %edx,%edx
    19b4:	74 0e                	je     19c4 <udp_assoc_received+0x134>
    19b6:	8b 43 04             	mov    0x4(%ebx),%eax
    19b9:	85 c0                	test   %eax,%eax
    19bb:	74 07                	je     19c4 <udp_assoc_received+0x134>
    19bd:	89 10                	mov    %edx,(%eax)
    19bf:	8b 13                	mov    (%ebx),%edx
    19c1:	89 42 04             	mov    %eax,0x4(%edx)
    19c4:	83 ec 0c             	sub    $0xc,%esp
    19c7:	8b 43 3c             	mov    0x3c(%ebx),%eax
    19ca:	c7 03 00 00 00 00    	movl   $0x0,(%ebx)
    19d0:	c7 43 04 00 00 00 00 	movl   $0x0,0x4(%ebx)
    19d7:	50                   	push   %eax
    19d8:	e8 a3 00 00 00       	call   1a80 <udp_msg_delete>
    19dd:	89 1c 24             	mov    %ebx,(%esp)
    19e0:	e8 1b 2f 00 00       	call   4900 <free@plt>
    19e5:	8b 5e 5c             	mov    0x5c(%esi),%ebx
    19e8:	83 c4 10             	add    $0x10,%esp
    19eb:	39 fb                	cmp    %edi,%ebx
    19ed:	75 c1                	jne    19b0 <udp_assoc_received+0x120>
    19ef:	83 ec 0c             	sub    $0xc,%esp
    19f2:	56                   	push   %esi
    19f3:	e8 08 2f 00 00       	call   4900 <free@plt>
    19f8:	83 c4 10             	add    $0x10,%esp
    19fb:	8d 65 f4             	lea    -0xc(%ebp),%esp
    19fe:	5b                   	pop    %ebx
    19ff:	5e                   	pop    %esi
    1a00:	5f                   	pop    %edi
    1a01:	5d                   	pop    %ebp
    1a02:	c3                   	ret    
    1a03:	50                   	push   %eax
    1a04:	68 9d 01 00 00       	push   $0x19d
    1a09:	68 76 3a 00 00       	push   $0x3a76
    1a0e:	68 eb 3b 00 00       	push   $0x3beb
    1a13:	e8 58 2d 00 00       	call   4770 <assert_abort@plt>
    1a18:	90                   	nop
    1a19:	8d b4 26 00 00 00 00 	lea    0x0(%esi,%eiz,1),%esi

00001a20 <udp_assoc_reset>:
    1a20:	55                   	push   %ebp
    1a21:	89 e5                	mov    %esp,%ebp
    1a23:	56                   	push   %esi
    1a24:	53                   	push   %ebx
    1a25:	8b 5d 08             	mov    0x8(%ebp),%ebx
    1a28:	83 ec 0c             	sub    $0xc,%esp
    1a2b:	8d 73 44             	lea    0x44(%ebx),%esi
    1a2e:	83 c3 60             	add    $0x60,%ebx
    1a31:	56                   	push   %esi
    1a32:	e8 d9 2e 00 00       	call   4910 <fibril_mutex_lock@plt>
    1a37:	c6 43 e0 01          	movb   $0x1,-0x20(%ebx)
    1a3b:	89 1c 24             	mov    %ebx,(%esp)
    1a3e:	e8 6d 2d 00 00       	call   47b0 <fibril_condvar_broadcast@plt>
    1a43:	89 75 08             	mov    %esi,0x8(%ebp)
    1a46:	83 c4 10             	add    $0x10,%esp
    1a49:	8d 65 f8             	lea    -0x8(%ebp),%esp
    1a4c:	5b                   	pop    %ebx
    1a4d:	5e                   	pop    %esi
    1a4e:	5d                   	pop    %ebp
    1a4f:	e9 7c 2d 00 00       	jmp    47d0 <fibril_mutex_unlock@plt>
    1a54:	66 90                	xchg   %ax,%ax
    1a56:	66 90                	xchg   %ax,%ax
    1a58:	66 90                	xchg   %ax,%ax
    1a5a:	66 90                	xchg   %ax,%ax
    1a5c:	66 90                	xchg   %ax,%ax
    1a5e:	66 90                	xchg   %ax,%ax

00001a60 <udp_msg_new>:
    1a60:	55                   	push   %ebp
    1a61:	89 e5                	mov    %esp,%ebp
    1a63:	83 ec 10             	sub    $0x10,%esp
    1a66:	6a 08                	push   $0x8
    1a68:	6a 01                	push   $0x1
    1a6a:	e8 11 2d 00 00       	call   4780 <calloc@plt>
    1a6f:	c9                   	leave  
    1a70:	c3                   	ret    
    1a71:	eb 0d                	jmp    1a80 <udp_msg_delete>
    1a73:	90                   	nop
    1a74:	90                   	nop
    1a75:	90                   	nop
    1a76:	90                   	nop
    1a77:	90                   	nop
    1a78:	90                   	nop
    1a79:	90                   	nop
    1a7a:	90                   	nop
    1a7b:	90                   	nop
    1a7c:	90                   	nop
    1a7d:	90                   	nop
    1a7e:	90                   	nop
    1a7f:	90                   	nop

00001a80 <udp_msg_delete>:
    1a80:	55                   	push   %ebp
    1a81:	89 e5                	mov    %esp,%ebp
    1a83:	53                   	push   %ebx
    1a84:	83 ec 10             	sub    $0x10,%esp
    1a87:	8b 5d 08             	mov    0x8(%ebp),%ebx
    1a8a:	8b 03                	mov    (%ebx),%eax
    1a8c:	50                   	push   %eax
    1a8d:	e8 6e 2e 00 00       	call   4900 <free@plt>
    1a92:	89 5d 08             	mov    %ebx,0x8(%ebp)
    1a95:	83 c4 10             	add    $0x10,%esp
    1a98:	8b 5d fc             	mov    -0x4(%ebp),%ebx
    1a9b:	c9                   	leave  
    1a9c:	e9 5f 2e 00 00       	jmp    4900 <free@plt>
    1aa1:	66 90                	xchg   %ax,%ax
    1aa3:	66 90                	xchg   %ax,%ax
    1aa5:	66 90                	xchg   %ax,%ax
    1aa7:	66 90                	xchg   %ax,%ax
    1aa9:	66 90                	xchg   %ax,%ax
    1aab:	66 90                	xchg   %ax,%ax
    1aad:	66 90                	xchg   %ax,%ax
    1aaf:	90                   	nop

00001ab0 <udp_pdu_new>:
    1ab0:	55                   	push   %ebp
    1ab1:	89 e5                	mov    %esp,%ebp
    1ab3:	83 ec 10             	sub    $0x10,%esp
    1ab6:	6a 34                	push   $0x34
    1ab8:	6a 01                	push   $0x1
    1aba:	e8 c1 2c 00 00       	call   4780 <calloc@plt>
    1abf:	c9                   	leave  
    1ac0:	c3                   	ret    
    1ac1:	eb 0d                	jmp    1ad0 <udp_pdu_delete>
    1ac3:	90                   	nop
    1ac4:	90                   	nop
    1ac5:	90                   	nop
    1ac6:	90                   	nop
    1ac7:	90                   	nop
    1ac8:	90                   	nop
    1ac9:	90                   	nop
    1aca:	90                   	nop
    1acb:	90                   	nop
    1acc:	90                   	nop
    1acd:	90                   	nop
    1ace:	90                   	nop
    1acf:	90                   	nop

00001ad0 <udp_pdu_delete>:
    1ad0:	55                   	push   %ebp
    1ad1:	89 e5                	mov    %esp,%ebp
    1ad3:	53                   	push   %ebx
    1ad4:	83 ec 10             	sub    $0x10,%esp
    1ad7:	8b 5d 08             	mov    0x8(%ebp),%ebx
    1ada:	8b 43 2c             	mov    0x2c(%ebx),%eax
    1add:	50                   	push   %eax
    1ade:	e8 1d 2e 00 00       	call   4900 <free@plt>
    1ae3:	89 5d 08             	mov    %ebx,0x8(%ebp)
    1ae6:	83 c4 10             	add    $0x10,%esp
    1ae9:	8b 5d fc             	mov    -0x4(%ebp),%ebx
    1aec:	c9                   	leave  
    1aed:	e9 0e 2e 00 00       	jmp    4900 <free@plt>
    1af2:	8d b4 26 00 00 00 00 	lea    0x0(%esi,%eiz,1),%esi
    1af9:	8d bc 27 00 00 00 00 	lea    0x0(%edi,%eiz,1),%edi

00001b00 <udp_pdu_decode>:
    1b00:	55                   	push   %ebp
    1b01:	89 e5                	mov    %esp,%ebp
    1b03:	57                   	push   %edi
    1b04:	56                   	push   %esi
    1b05:	53                   	push   %ebx
    1b06:	83 ec 0c             	sub    $0xc,%esp
    1b09:	8b 45 08             	mov    0x8(%ebp),%eax
    1b0c:	8b 55 0c             	mov    0xc(%ebp),%edx
    1b0f:	8b 48 30             	mov    0x30(%eax),%ecx
    1b12:	83 f9 07             	cmp    $0x7,%ecx
    1b15:	0f 86 b5 00 00 00    	jbe    1bd0 <udp_pdu_decode+0xd0>
    1b1b:	8b 70 2c             	mov    0x2c(%eax),%esi
    1b1e:	8b 38                	mov    (%eax),%edi
    1b20:	89 3a                	mov    %edi,(%edx)
    1b22:	66 8b 3e             	mov    (%esi),%di
    1b25:	8d 5e 08             	lea    0x8(%esi),%ebx
    1b28:	66 c1 c7 08          	rol    $0x8,%di
    1b2c:	66 89 7a 30          	mov    %di,0x30(%edx)
    1b30:	8b 78 04             	mov    0x4(%eax),%edi
    1b33:	89 7a 1c             	mov    %edi,0x1c(%edx)
    1b36:	8b 78 08             	mov    0x8(%eax),%edi
    1b39:	89 7a 20             	mov    %edi,0x20(%edx)
    1b3c:	8b 78 0c             	mov    0xc(%eax),%edi
    1b3f:	89 7a 24             	mov    %edi,0x24(%edx)
    1b42:	8b 78 10             	mov    0x10(%eax),%edi
    1b45:	89 7a 28             	mov    %edi,0x28(%edx)
    1b48:	8b 78 14             	mov    0x14(%eax),%edi
    1b4b:	89 7a 2c             	mov    %edi,0x2c(%edx)
    1b4e:	66 8b 7e 02          	mov    0x2(%esi),%di
    1b52:	66 c1 c7 08          	rol    $0x8,%di
    1b56:	66 89 7a 18          	mov    %di,0x18(%edx)
    1b5a:	8b 78 18             	mov    0x18(%eax),%edi
    1b5d:	89 7a 04             	mov    %edi,0x4(%edx)
    1b60:	8b 78 1c             	mov    0x1c(%eax),%edi
    1b63:	89 7a 08             	mov    %edi,0x8(%edx)
    1b66:	8b 78 20             	mov    0x20(%eax),%edi
    1b69:	89 7a 0c             	mov    %edi,0xc(%edx)
    1b6c:	8b 78 24             	mov    0x24(%eax),%edi
    1b6f:	8b 40 28             	mov    0x28(%eax),%eax
    1b72:	89 7a 10             	mov    %edi,0x10(%edx)
    1b75:	89 42 14             	mov    %eax,0x14(%edx)
    1b78:	66 8b 46 04          	mov    0x4(%esi),%ax
    1b7c:	66 c1 c0 08          	rol    $0x8,%ax
    1b80:	66 83 f8 07          	cmp    $0x7,%ax
    1b84:	76 4a                	jbe    1bd0 <udp_pdu_decode+0xd0>
    1b86:	31 f6                	xor    %esi,%esi
    1b88:	66 89 c6             	mov    %ax,%si
    1b8b:	39 f1                	cmp    %esi,%ecx
    1b8d:	72 41                	jb     1bd0 <udp_pdu_decode+0xd0>
    1b8f:	e8 cc fe ff ff       	call   1a60 <udp_msg_new>
    1b94:	89 c7                	mov    %eax,%edi
    1b96:	85 c0                	test   %eax,%eax
    1b98:	74 46                	je     1be0 <udp_pdu_decode+0xe0>
    1b9a:	83 ec 0c             	sub    $0xc,%esp
    1b9d:	8d 46 f8             	lea    -0x8(%esi),%eax
    1ba0:	89 47 04             	mov    %eax,0x4(%edi)
    1ba3:	50                   	push   %eax
    1ba4:	e8 37 2b 00 00       	call   46e0 <malloc@plt>
    1ba9:	83 c4 10             	add    $0x10,%esp
    1bac:	89 07                	mov    %eax,(%edi)
    1bae:	85 c0                	test   %eax,%eax
    1bb0:	74 2e                	je     1be0 <udp_pdu_decode+0xe0>
    1bb2:	52                   	push   %edx
    1bb3:	8b 4f 04             	mov    0x4(%edi),%ecx
    1bb6:	51                   	push   %ecx
    1bb7:	53                   	push   %ebx
    1bb8:	50                   	push   %eax
    1bb9:	e8 12 2b 00 00       	call   46d0 <memcpy@plt>
    1bbe:	8b 45 10             	mov    0x10(%ebp),%eax
    1bc1:	83 c4 10             	add    $0x10,%esp
    1bc4:	89 38                	mov    %edi,(%eax)
    1bc6:	31 c0                	xor    %eax,%eax
    1bc8:	8d 65 f4             	lea    -0xc(%ebp),%esp
    1bcb:	5b                   	pop    %ebx
    1bcc:	5e                   	pop    %esi
    1bcd:	5f                   	pop    %edi
    1bce:	5d                   	pop    %ebp
    1bcf:	c3                   	ret    
    1bd0:	8d 65 f4             	lea    -0xc(%ebp),%esp
    1bd3:	b8 f2 ff ff ff       	mov    $0xfffffff2,%eax
    1bd8:	5b                   	pop    %ebx
    1bd9:	5e                   	pop    %esi
    1bda:	5f                   	pop    %edi
    1bdb:	5d                   	pop    %ebp
    1bdc:	c3                   	ret    
    1bdd:	8d 76 00             	lea    0x0(%esi),%esi
    1be0:	b8 fe ff ff ff       	mov    $0xfffffffe,%eax
    1be5:	eb e1                	jmp    1bc8 <udp_pdu_decode+0xc8>
    1be7:	89 f6                	mov    %esi,%esi
    1be9:	8d bc 27 00 00 00 00 	lea    0x0(%edi,%eiz,1),%edi

00001bf0 <udp_pdu_encode>:
    1bf0:	55                   	push   %ebp
    1bf1:	89 e5                	mov    %esp,%ebp
    1bf3:	57                   	push   %edi
    1bf4:	56                   	push   %esi
    1bf5:	53                   	push   %ebx
    1bf6:	81 ec 84 00 00 00    	sub    $0x84,%esp
    1bfc:	8b 5d 08             	mov    0x8(%ebp),%ebx
    1bff:	8b 7d 0c             	mov    0xc(%ebp),%edi
    1c02:	6a 34                	push   $0x34
    1c04:	6a 01                	push   $0x1
    1c06:	e8 75 2b 00 00       	call   4780 <calloc@plt>
    1c0b:	83 c4 10             	add    $0x10,%esp
    1c0e:	85 c0                	test   %eax,%eax
    1c10:	0f 84 c5 02 00 00    	je     1edb <udp_pdu_encode+0x2eb>
    1c16:	89 c6                	mov    %eax,%esi
    1c18:	8b 03                	mov    (%ebx),%eax
    1c1a:	89 06                	mov    %eax,(%esi)
    1c1c:	8b 43 04             	mov    0x4(%ebx),%eax
    1c1f:	89 46 04             	mov    %eax,0x4(%esi)
    1c22:	8b 43 08             	mov    0x8(%ebx),%eax
    1c25:	89 46 08             	mov    %eax,0x8(%esi)
    1c28:	8b 43 0c             	mov    0xc(%ebx),%eax
    1c2b:	89 46 0c             	mov    %eax,0xc(%esi)
    1c2e:	8b 43 10             	mov    0x10(%ebx),%eax
    1c31:	89 46 10             	mov    %eax,0x10(%esi)
    1c34:	8b 43 14             	mov    0x14(%ebx),%eax
    1c37:	89 46 14             	mov    %eax,0x14(%esi)
    1c3a:	8b 43 1c             	mov    0x1c(%ebx),%eax
    1c3d:	89 46 18             	mov    %eax,0x18(%esi)
    1c40:	8b 43 20             	mov    0x20(%ebx),%eax
    1c43:	89 46 1c             	mov    %eax,0x1c(%esi)
    1c46:	8b 43 24             	mov    0x24(%ebx),%eax
    1c49:	89 46 20             	mov    %eax,0x20(%esi)
    1c4c:	8b 43 28             	mov    0x28(%ebx),%eax
    1c4f:	89 46 24             	mov    %eax,0x24(%esi)
    1c52:	8b 43 2c             	mov    0x2c(%ebx),%eax
    1c55:	89 46 28             	mov    %eax,0x28(%esi)
    1c58:	8b 47 04             	mov    0x4(%edi),%eax
    1c5b:	83 c0 08             	add    $0x8,%eax
    1c5e:	89 46 30             	mov    %eax,0x30(%esi)
    1c61:	52                   	push   %edx
    1c62:	52                   	push   %edx
    1c63:	50                   	push   %eax
    1c64:	6a 01                	push   $0x1
    1c66:	e8 15 2b 00 00       	call   4780 <calloc@plt>
    1c6b:	83 c4 10             	add    $0x10,%esp
    1c6e:	89 46 2c             	mov    %eax,0x2c(%esi)
    1c71:	85 c0                	test   %eax,%eax
    1c73:	0f 84 6c 02 00 00    	je     1ee5 <udp_pdu_encode+0x2f5>
    1c79:	8b 53 18             	mov    0x18(%ebx),%edx
    1c7c:	66 c7 40 06 00 00    	movw   $0x0,0x6(%eax)
    1c82:	66 c1 c2 08          	rol    $0x8,%dx
    1c86:	66 89 10             	mov    %dx,(%eax)
    1c89:	8b 53 30             	mov    0x30(%ebx),%edx
    1c8c:	66 c1 c2 08          	rol    $0x8,%dx
    1c90:	66 89 50 02          	mov    %dx,0x2(%eax)
    1c94:	8b 56 30             	mov    0x30(%esi),%edx
    1c97:	66 c1 c2 08          	rol    $0x8,%dx
    1c9b:	66 89 50 04          	mov    %dx,0x4(%eax)
    1c9f:	53                   	push   %ebx
    1ca0:	8b 57 04             	mov    0x4(%edi),%edx
    1ca3:	8b 0f                	mov    (%edi),%ecx
    1ca5:	83 c0 08             	add    $0x8,%eax
    1ca8:	52                   	push   %edx
    1ca9:	51                   	push   %ecx
    1caa:	50                   	push   %eax
    1cab:	e8 20 2a 00 00       	call   46d0 <memcpy@plt>
    1cb0:	83 c4 0c             	add    $0xc,%esp
    1cb3:	8d 55 a0             	lea    -0x60(%ebp),%edx
    1cb6:	8d 45 8c             	lea    -0x74(%ebp),%eax
    1cb9:	52                   	push   %edx
    1cba:	50                   	push   %eax
    1cbb:	8d 46 04             	lea    0x4(%esi),%eax
    1cbe:	89 55 84             	mov    %edx,-0x7c(%ebp)
    1cc1:	50                   	push   %eax
    1cc2:	e8 29 2b 00 00       	call   47f0 <inet_addr_get@plt>
    1cc7:	83 c4 0c             	add    $0xc,%esp
    1cca:	89 c3                	mov    %eax,%ebx
    1ccc:	8d 7d b0             	lea    -0x50(%ebp),%edi
    1ccf:	8d 45 90             	lea    -0x70(%ebp),%eax
    1cd2:	57                   	push   %edi
    1cd3:	50                   	push   %eax
    1cd4:	8d 46 18             	lea    0x18(%esi),%eax
    1cd7:	50                   	push   %eax
    1cd8:	e8 13 2b 00 00       	call   47f0 <inet_addr_get@plt>
    1cdd:	83 c4 10             	add    $0x10,%esp
    1ce0:	8b 55 84             	mov    -0x7c(%ebp),%edx
    1ce3:	39 c3                	cmp    %eax,%ebx
    1ce5:	0f 85 19 02 00 00    	jne    1f04 <udp_pdu_encode+0x314>
    1ceb:	83 fb 01             	cmp    $0x1,%ebx
    1cee:	0f 84 2c 01 00 00    	je     1e20 <udp_pdu_encode+0x230>
    1cf4:	83 fb 02             	cmp    $0x2,%ebx
    1cf7:	0f 85 0b 01 00 00    	jne    1e08 <udp_pdu_encode+0x218>
    1cfd:	8d 5d c0             	lea    -0x40(%ebp),%ebx
    1d00:	51                   	push   %ecx
    1d01:	51                   	push   %ecx
    1d02:	53                   	push   %ebx
    1d03:	52                   	push   %edx
    1d04:	e8 e7 29 00 00       	call   46f0 <host2addr128_t_be@plt>
    1d09:	58                   	pop    %eax
    1d0a:	8d 45 d0             	lea    -0x30(%ebp),%eax
    1d0d:	5a                   	pop    %edx
    1d0e:	50                   	push   %eax
    1d0f:	57                   	push   %edi
    1d10:	e8 db 29 00 00       	call   46f0 <host2addr128_t_be@plt>
    1d15:	8b 46 30             	mov    0x30(%esi),%eax
    1d18:	83 c4 0c             	add    $0xc,%esp
    1d1b:	0f c8                	bswap  %eax
    1d1d:	89 45 e0             	mov    %eax,-0x20(%ebp)
    1d20:	8d 45 e4             	lea    -0x1c(%ebp),%eax
    1d23:	6a 03                	push   $0x3
    1d25:	6a 00                	push   $0x0
    1d27:	50                   	push   %eax
    1d28:	e8 d3 2a 00 00       	call   4800 <memset@plt>
    1d2d:	89 d9                	mov    %ebx,%ecx
    1d2f:	c6 45 e7 11          	movb   $0x11,-0x19(%ebp)
    1d33:	8d 5d e8             	lea    -0x18(%ebp),%ebx
    1d36:	83 c4 10             	add    $0x10,%esp
    1d39:	31 d2                	xor    %edx,%edx
    1d3b:	90                   	nop
    1d3c:	8d 74 26 00          	lea    0x0(%esi,%eiz,1),%esi
    1d40:	31 c0                	xor    %eax,%eax
    1d42:	83 c1 02             	add    $0x2,%ecx
    1d45:	8a 41 fe             	mov    -0x2(%ecx),%al
    1d48:	c1 e0 08             	shl    $0x8,%eax
    1d4b:	89 c7                	mov    %eax,%edi
    1d4d:	31 c0                	xor    %eax,%eax
    1d4f:	8a 41 ff             	mov    -0x1(%ecx),%al
    1d52:	09 c7                	or     %eax,%edi
    1d54:	31 c0                	xor    %eax,%eax
    1d56:	66 89 f8             	mov    %di,%ax
    1d59:	89 d7                	mov    %edx,%edi
    1d5b:	31 d2                	xor    %edx,%edx
    1d5d:	66 89 fa             	mov    %di,%dx
    1d60:	01 d0                	add    %edx,%eax
    1d62:	89 c2                	mov    %eax,%edx
    1d64:	c1 ea 10             	shr    $0x10,%edx
    1d67:	01 d0                	add    %edx,%eax
    1d69:	39 cb                	cmp    %ecx,%ebx
    1d6b:	89 c2                	mov    %eax,%edx
    1d6d:	75 d1                	jne    1d40 <udp_pdu_encode+0x150>
    1d6f:	8b 7e 30             	mov    0x30(%esi),%edi
    1d72:	83 f0 ff             	xor    $0xffffffff,%eax
    1d75:	89 7d 84             	mov    %edi,-0x7c(%ebp)
    1d78:	89 fa                	mov    %edi,%edx
    1d7a:	83 f0 ff             	xor    $0xffffffff,%eax
    1d7d:	8b 7e 2c             	mov    0x2c(%esi),%edi
    1d80:	d1 ea                	shr    %edx
    1d82:	89 7d 80             	mov    %edi,-0x80(%ebp)
    1d85:	89 c1                	mov    %eax,%ecx
    1d87:	74 32                	je     1dbb <udp_pdu_encode+0x1cb>
    1d89:	89 fb                	mov    %edi,%ebx
    1d8b:	8d 3c 57             	lea    (%edi,%edx,2),%edi
    1d8e:	66 90                	xchg   %ax,%ax
    1d90:	31 d2                	xor    %edx,%edx
    1d92:	83 c3 02             	add    $0x2,%ebx
    1d95:	8a 53 fe             	mov    -0x2(%ebx),%dl
    1d98:	89 d0                	mov    %edx,%eax
    1d9a:	31 d2                	xor    %edx,%edx
    1d9c:	c1 e0 08             	shl    $0x8,%eax
    1d9f:	8a 53 ff             	mov    -0x1(%ebx),%dl
    1da2:	09 d0                	or     %edx,%eax
    1da4:	31 d2                	xor    %edx,%edx
    1da6:	66 89 c2             	mov    %ax,%dx
    1da9:	31 c0                	xor    %eax,%eax
    1dab:	66 89 c8             	mov    %cx,%ax
    1dae:	01 d0                	add    %edx,%eax
    1db0:	89 c1                	mov    %eax,%ecx
    1db2:	c1 e9 10             	shr    $0x10,%ecx
    1db5:	01 c1                	add    %eax,%ecx
    1db7:	39 df                	cmp    %ebx,%edi
    1db9:	75 d5                	jne    1d90 <udp_pdu_encode+0x1a0>
    1dbb:	8b 45 84             	mov    -0x7c(%ebp),%eax
    1dbe:	a8 01                	test   $0x1,%al
    1dc0:	74 27                	je     1de9 <udp_pdu_encode+0x1f9>
    1dc2:	89 c2                	mov    %eax,%edx
    1dc4:	8b 7d 80             	mov    -0x80(%ebp),%edi
    1dc7:	83 e2 fe             	and    $0xfffffffe,%edx
    1dca:	8a 04 17             	mov    (%edi,%edx,1),%al
    1dcd:	31 d2                	xor    %edx,%edx
    1dcf:	25 ff 00 00 00       	and    $0xff,%eax
    1dd4:	c1 e0 08             	shl    $0x8,%eax
    1dd7:	66 89 c2             	mov    %ax,%dx
    1dda:	31 c0                	xor    %eax,%eax
    1ddc:	66 89 c8             	mov    %cx,%ax
    1ddf:	01 d0                	add    %edx,%eax
    1de1:	89 c2                	mov    %eax,%edx
    1de3:	c1 ea 10             	shr    $0x10,%edx
    1de6:	8d 0c 10             	lea    (%eax,%edx,1),%ecx
    1de9:	89 c8                	mov    %ecx,%eax
    1deb:	8b 7d 80             	mov    -0x80(%ebp),%edi
    1dee:	83 f0 ff             	xor    $0xffffffff,%eax
    1df1:	66 c1 c0 08          	rol    $0x8,%ax
    1df5:	66 89 47 06          	mov    %ax,0x6(%edi)
    1df9:	8b 45 10             	mov    0x10(%ebp),%eax
    1dfc:	89 30                	mov    %esi,(%eax)
    1dfe:	31 c0                	xor    %eax,%eax
    1e00:	8d 65 f4             	lea    -0xc(%ebp),%esp
    1e03:	5b                   	pop    %ebx
    1e04:	5e                   	pop    %esi
    1e05:	5f                   	pop    %edi
    1e06:	5d                   	pop    %ebp
    1e07:	c3                   	ret    
    1e08:	50                   	push   %eax
    1e09:	6a 73                	push   $0x73
    1e0b:	68 cb 3c 00 00       	push   $0x3ccb
    1e10:	68 ff 3a 00 00       	push   $0x3aff
    1e15:	e8 56 29 00 00       	call   4770 <assert_abort@plt>
    1e1a:	8d b6 00 00 00 00    	lea    0x0(%esi),%esi
    1e20:	8b 55 8c             	mov    -0x74(%ebp),%edx
    1e23:	8b 7e 30             	mov    0x30(%esi),%edi
    1e26:	0f ca                	bswap  %edx
    1e28:	89 7d 84             	mov    %edi,-0x7c(%ebp)
    1e2b:	89 f9                	mov    %edi,%ecx
    1e2d:	89 d7                	mov    %edx,%edi
    1e2f:	89 d3                	mov    %edx,%ebx
    1e31:	c1 ef 08             	shr    $0x8,%edi
    1e34:	89 55 94             	mov    %edx,-0x6c(%ebp)
    1e37:	c1 eb 18             	shr    $0x18,%ebx
    1e3a:	81 e7 00 ff 00 00    	and    $0xff00,%edi
    1e40:	09 df                	or     %ebx,%edi
    1e42:	31 db                	xor    %ebx,%ebx
    1e44:	66 89 fb             	mov    %di,%bx
    1e47:	89 d7                	mov    %edx,%edi
    1e49:	66 c1 c7 08          	rol    $0x8,%di
    1e4d:	31 d2                	xor    %edx,%edx
    1e4f:	8b 45 90             	mov    -0x70(%ebp),%eax
    1e52:	66 89 fa             	mov    %di,%dx
    1e55:	31 ff                	xor    %edi,%edi
    1e57:	01 d3                	add    %edx,%ebx
    1e59:	89 da                	mov    %ebx,%edx
    1e5b:	0f c8                	bswap  %eax
    1e5d:	c1 ea 10             	shr    $0x10,%edx
    1e60:	89 45 98             	mov    %eax,-0x68(%ebp)
    1e63:	01 d3                	add    %edx,%ebx
    1e65:	89 c2                	mov    %eax,%edx
    1e67:	66 c1 c2 08          	rol    $0x8,%dx
    1e6b:	66 89 df             	mov    %bx,%di
    1e6e:	89 d3                	mov    %edx,%ebx
    1e70:	31 d2                	xor    %edx,%edx
    1e72:	66 89 da             	mov    %bx,%dx
    1e75:	01 fa                	add    %edi,%edx
    1e77:	31 ff                	xor    %edi,%edi
    1e79:	89 d3                	mov    %edx,%ebx
    1e7b:	c1 eb 10             	shr    $0x10,%ebx
    1e7e:	01 da                	add    %ebx,%edx
    1e80:	89 c3                	mov    %eax,%ebx
    1e82:	c1 eb 08             	shr    $0x8,%ebx
    1e85:	66 89 d7             	mov    %dx,%di
    1e88:	c1 e8 18             	shr    $0x18,%eax
    1e8b:	81 e3 00 ff 00 00    	and    $0xff00,%ebx
    1e91:	09 c3                	or     %eax,%ebx
    1e93:	31 c0                	xor    %eax,%eax
    1e95:	66 89 d8             	mov    %bx,%ax
    1e98:	01 f8                	add    %edi,%eax
    1e9a:	31 ff                	xor    %edi,%edi
    1e9c:	89 c2                	mov    %eax,%edx
    1e9e:	c1 ea 10             	shr    $0x10,%edx
    1ea1:	01 d0                	add    %edx,%eax
    1ea3:	66 89 c7             	mov    %ax,%di
    1ea6:	66 c1 c1 08          	rol    $0x8,%cx
    1eaa:	8d 47 11             	lea    0x11(%edi),%eax
    1ead:	66 89 4d 9e          	mov    %cx,-0x62(%ebp)
    1eb1:	89 c2                	mov    %eax,%edx
    1eb3:	31 ff                	xor    %edi,%edi
    1eb5:	c1 ea 10             	shr    $0x10,%edx
    1eb8:	01 c2                	add    %eax,%edx
    1eba:	31 c0                	xor    %eax,%eax
    1ebc:	66 c1 c1 08          	rol    $0x8,%cx
    1ec0:	66 89 c8             	mov    %cx,%ax
    1ec3:	66 89 d7             	mov    %dx,%di
    1ec6:	8d 14 07             	lea    (%edi,%eax,1),%edx
    1ec9:	89 d0                	mov    %edx,%eax
    1ecb:	c1 e8 10             	shr    $0x10,%eax
    1ece:	01 d0                	add    %edx,%eax
    1ed0:	8b 55 84             	mov    -0x7c(%ebp),%edx
    1ed3:	83 f0 ff             	xor    $0xffffffff,%eax
    1ed6:	e9 9f fe ff ff       	jmp    1d7a <udp_pdu_encode+0x18a>
    1edb:	b8 fe ff ff ff       	mov    $0xfffffffe,%eax
    1ee0:	e9 1b ff ff ff       	jmp    1e00 <udp_pdu_encode+0x210>
    1ee5:	83 ec 0c             	sub    $0xc,%esp
    1ee8:	6a 00                	push   $0x0
    1eea:	e8 11 2a 00 00       	call   4900 <free@plt>
    1eef:	89 34 24             	mov    %esi,(%esp)
    1ef2:	e8 09 2a 00 00       	call   4900 <free@plt>
    1ef7:	83 c4 10             	add    $0x10,%esp
    1efa:	b8 fe ff ff ff       	mov    $0xfffffffe,%eax
    1eff:	e9 fc fe ff ff       	jmp    1e00 <udp_pdu_encode+0x210>
    1f04:	51                   	push   %ecx
    1f05:	6a 61                	push   $0x61
    1f07:	68 cb 3c 00 00       	push   $0x3ccb
    1f0c:	68 d1 3c 00 00       	push   $0x3cd1
    1f11:	e8 5a 28 00 00       	call   4770 <assert_abort@plt>
    1f16:	66 90                	xchg   %ax,%ax
    1f18:	66 90                	xchg   %ax,%ax
    1f1a:	66 90                	xchg   %ax,%ax
    1f1c:	66 90                	xchg   %ax,%ax
    1f1e:	66 90                	xchg   %ax,%ax

00001f20 <udp_cassoc_recv_msg>:
    1f20:	55                   	push   %ebp
    1f21:	89 e5                	mov    %esp,%ebp
    1f23:	57                   	push   %edi
    1f24:	56                   	push   %esi
    1f25:	53                   	push   %ebx
    1f26:	83 ec 24             	sub    $0x24,%esp
    1f29:	8b 55 10             	mov    0x10(%ebp),%edx
    1f2c:	8b 5d 08             	mov    0x8(%ebp),%ebx
    1f2f:	8b 75 0c             	mov    0xc(%ebp),%esi
    1f32:	52                   	push   %edx
    1f33:	56                   	push   %esi
    1f34:	53                   	push   %ebx
    1f35:	68 e8 3c 00 00       	push   $0x3ce8
    1f3a:	6a 04                	push   $0x4
    1f3c:	6a ff                	push   $0xffffffff
    1f3e:	89 55 e4             	mov    %edx,-0x1c(%ebp)
    1f41:	e8 ea 27 00 00       	call   4730 <log_msg@plt>
    1f46:	83 c4 18             	add    $0x18,%esp
    1f49:	6a 44                	push   $0x44
    1f4b:	6a 01                	push   $0x1
    1f4d:	e8 2e 28 00 00       	call   4780 <calloc@plt>
    1f52:	83 c4 10             	add    $0x10,%esp
    1f55:	8b 55 e4             	mov    -0x1c(%ebp),%edx
    1f58:	85 c0                	test   %eax,%eax
    1f5a:	74 7c                	je     1fd8 <udp_cassoc_recv_msg+0xb8>
    1f5c:	8d 78 08             	lea    0x8(%eax),%edi
    1f5f:	b9 0d 00 00 00       	mov    $0xd,%ecx
    1f64:	c7 00 00 00 00 00    	movl   $0x0,(%eax)
    1f6a:	f3 a5                	rep movsl %ds:(%esi),%es:(%edi)
    1f6c:	89 58 40             	mov    %ebx,0x40(%eax)
    1f6f:	8b 5b 08             	mov    0x8(%ebx),%ebx
    1f72:	89 50 3c             	mov    %edx,0x3c(%eax)
    1f75:	8d 53 0c             	lea    0xc(%ebx),%edx
    1f78:	89 50 04             	mov    %edx,0x4(%eax)
    1f7b:	8b 53 0c             	mov    0xc(%ebx),%edx
    1f7e:	89 10                	mov    %edx,(%eax)
    1f80:	8b 53 0c             	mov    0xc(%ebx),%edx
    1f83:	89 42 04             	mov    %eax,0x4(%edx)
    1f86:	89 43 0c             	mov    %eax,0xc(%ebx)
    1f89:	50                   	push   %eax
    1f8a:	68 a2 3d 00 00       	push   $0x3da2
    1f8f:	6a 04                	push   $0x4
    1f91:	6a ff                	push   $0xffffffff
    1f93:	e8 98 27 00 00       	call   4730 <log_msg@plt>
    1f98:	8b 0b                	mov    (%ebx),%ecx
    1f9a:	5a                   	pop    %edx
    1f9b:	51                   	push   %ecx
    1f9c:	e8 cf 28 00 00       	call   4870 <async_exchange_begin@plt>
    1fa1:	83 c4 0c             	add    $0xc,%esp
    1fa4:	89 c3                	mov    %eax,%ebx
    1fa6:	6a 00                	push   $0x0
    1fa8:	6a 00                	push   $0x0
    1faa:	6a 00                	push   $0x0
    1fac:	6a 00                	push   $0x0
    1fae:	6a 00                	push   $0x0
    1fb0:	68 00 04 00 00       	push   $0x400
    1fb5:	50                   	push   %eax
    1fb6:	e8 65 27 00 00       	call   4720 <async_send_fast@plt>
    1fbb:	83 c4 14             	add    $0x14,%esp
    1fbe:	89 c6                	mov    %eax,%esi
    1fc0:	53                   	push   %ebx
    1fc1:	e8 9a 27 00 00       	call   4760 <async_exchange_end@plt>
    1fc6:	89 75 08             	mov    %esi,0x8(%ebp)
    1fc9:	83 c4 10             	add    $0x10,%esp
    1fcc:	8d 65 f4             	lea    -0xc(%ebp),%esp
    1fcf:	5b                   	pop    %ebx
    1fd0:	5e                   	pop    %esi
    1fd1:	5f                   	pop    %edi
    1fd2:	5d                   	pop    %ebp
    1fd3:	e9 b8 28 00 00       	jmp    4890 <async_forget@plt>
    1fd8:	8b 5b 08             	mov    0x8(%ebx),%ebx
    1fdb:	eb ac                	jmp    1f89 <udp_cassoc_recv_msg+0x69>
    1fdd:	8d 76 00             	lea    0x0(%esi),%esi

00001fe0 <udp_client_conn>:
    1fe0:	55                   	push   %ebp
    1fe1:	89 e5                	mov    %esp,%ebp
    1fe3:	57                   	push   %edi
    1fe4:	56                   	push   %esi
    1fe5:	53                   	push   %ebx
    1fe6:	81 ec a4 00 00 00    	sub    $0xa4,%esp
    1fec:	8d 75 80             	lea    -0x80(%ebp),%esi
    1fef:	8b 4d 08             	mov    0x8(%ebp),%ecx
    1ff2:	6a 00                	push   $0x0
    1ff4:	51                   	push   %ecx
    1ff5:	e8 06 27 00 00       	call   4700 <async_answer_0@plt>
    1ffa:	83 c4 0c             	add    $0xc,%esp
    1ffd:	68 b0 3d 00 00       	push   $0x3db0
    2002:	6a 04                	push   $0x4
    2004:	6a ff                	push   $0xffffffff
    2006:	e8 25 27 00 00       	call   4730 <log_msg@plt>
    200b:	8d 45 88             	lea    -0x78(%ebp),%eax
    200e:	c7 85 7c ff ff ff 00 	movl   $0x0,-0x84(%ebp)
    2015:	00 00 00 
    2018:	89 75 80             	mov    %esi,-0x80(%ebp)
    201b:	89 75 84             	mov    %esi,-0x7c(%ebp)
    201e:	89 45 88             	mov    %eax,-0x78(%ebp)
    2021:	89 45 8c             	mov    %eax,-0x74(%ebp)
    2024:	83 c4 10             	add    $0x10,%esp
    2027:	90                   	nop
    2028:	50                   	push   %eax
    2029:	68 c2 3d 00 00       	push   $0x3dc2
    202e:	6a 04                	push   $0x4
    2030:	6a ff                	push   $0xffffffff
    2032:	e8 f9 26 00 00       	call   4730 <log_msg@plt>
    2037:	58                   	pop    %eax
    2038:	8d 45 90             	lea    -0x70(%ebp),%eax
    203b:	5a                   	pop    %edx
    203c:	6a 00                	push   $0x0
    203e:	50                   	push   %eax
    203f:	e8 fc 27 00 00       	call   4840 <async_get_call_timeout@plt>
    2044:	8b 5d 90             	mov    -0x70(%ebp),%ebx
    2047:	53                   	push   %ebx
    2048:	68 dc 3d 00 00       	push   $0x3ddc
    204d:	6a 04                	push   $0x4
    204f:	6a ff                	push   $0xffffffff
    2051:	89 85 64 ff ff ff    	mov    %eax,-0x9c(%ebp)
    2057:	e8 d4 26 00 00       	call   4730 <log_msg@plt>
    205c:	83 c4 20             	add    $0x20,%esp
    205f:	85 db                	test   %ebx,%ebx
    2061:	0f 84 61 03 00 00    	je     23c8 <udp_client_conn+0x3e8>
    2067:	81 eb 00 04 00 00    	sub    $0x400,%ebx
    206d:	83 fb 06             	cmp    $0x6,%ebx
    2070:	0f 87 3a 03 00 00    	ja     23b0 <udp_client_conn+0x3d0>
    2076:	ff 24 9d 24 3f 00 00 	jmp    *0x3f24(,%ebx,4)
    207d:	8d 76 00             	lea    0x0(%esi),%esi
    2080:	50                   	push   %eax
    2081:	68 5a 3e 00 00       	push   $0x3e5a
    2086:	6a 04                	push   $0x4
    2088:	6a ff                	push   $0xffffffff
    208a:	e8 a1 26 00 00       	call   4730 <log_msg@plt>
    208f:	8b 45 84             	mov    -0x7c(%ebp),%eax
    2092:	83 c4 10             	add    $0x10,%esp
    2095:	8b 55 94             	mov    -0x6c(%ebp),%edx
    2098:	8d 58 f4             	lea    -0xc(%eax),%ebx
    209b:	39 f0                	cmp    %esi,%eax
    209d:	74 24                	je     20c3 <udp_client_conn+0xe3>
    209f:	39 53 04             	cmp    %edx,0x4(%ebx)
    20a2:	75 15                	jne    20b9 <udp_client_conn+0xd9>
    20a4:	e9 1f 04 00 00       	jmp    24c8 <udp_client_conn+0x4e8>
    20a9:	8d b4 26 00 00 00 00 	lea    0x0(%esi,%eiz,1),%esi
    20b0:	3b 53 04             	cmp    0x4(%ebx),%edx
    20b3:	0f 84 0f 04 00 00    	je     24c8 <udp_client_conn+0x4e8>
    20b9:	8b 40 04             	mov    0x4(%eax),%eax
    20bc:	39 f0                	cmp    %esi,%eax
    20be:	8d 58 f4             	lea    -0xc(%eax),%ebx
    20c1:	75 ed                	jne    20b0 <udp_client_conn+0xd0>
    20c3:	83 c8 ff             	or     $0xffffffff,%eax
    20c6:	8b 9d 64 ff ff ff    	mov    -0x9c(%ebp),%ebx
    20cc:	51                   	push   %ecx
    20cd:	51                   	push   %ecx
    20ce:	50                   	push   %eax
    20cf:	53                   	push   %ebx
    20d0:	e8 2b 26 00 00       	call   4700 <async_answer_0@plt>
    20d5:	83 c4 10             	add    $0x10,%esp
    20d8:	e9 4b ff ff ff       	jmp    2028 <udp_client_conn+0x48>
    20dd:	8d 76 00             	lea    0x0(%esi),%esi
    20e0:	50                   	push   %eax
    20e1:	68 2d 3e 00 00       	push   $0x3e2d
    20e6:	6a 04                	push   $0x4
    20e8:	6a ff                	push   $0xffffffff
    20ea:	e8 41 26 00 00       	call   4730 <log_msg@plt>
    20ef:	58                   	pop    %eax
    20f0:	8d 85 74 ff ff ff    	lea    -0x8c(%ebp),%eax
    20f6:	5a                   	pop    %edx
    20f7:	50                   	push   %eax
    20f8:	8d 85 70 ff ff ff    	lea    -0x90(%ebp),%eax
    20fe:	50                   	push   %eax
    20ff:	e8 dc 27 00 00       	call   48e0 <async_data_write_receive@plt>
    2104:	83 c4 10             	add    $0x10,%esp
    2107:	84 c0                	test   %al,%al
    2109:	0f 84 a9 03 00 00    	je     24b8 <udp_client_conn+0x4d8>
    210f:	83 bd 74 ff ff ff 34 	cmpl   $0x34,-0x8c(%ebp)
    2116:	0f 84 cc 04 00 00    	je     25e8 <udp_client_conn+0x608>
    211c:	50                   	push   %eax
    211d:	50                   	push   %eax
    211e:	8b 85 70 ff ff ff    	mov    -0x90(%ebp),%eax
    2124:	6a f2                	push   $0xfffffff2
    2126:	50                   	push   %eax
    2127:	e8 d4 25 00 00       	call   4700 <async_answer_0@plt>
    212c:	8b 8d 64 ff ff ff    	mov    -0x9c(%ebp),%ecx
    2132:	58                   	pop    %eax
    2133:	5a                   	pop    %edx
    2134:	6a f2                	push   $0xfffffff2
    2136:	51                   	push   %ecx
    2137:	e8 c4 25 00 00       	call   4700 <async_answer_0@plt>
    213c:	83 c4 10             	add    $0x10,%esp
    213f:	e9 e4 fe ff ff       	jmp    2028 <udp_client_conn+0x48>
    2144:	8d 74 26 00          	lea    0x0(%esi,%eiz,1),%esi
    2148:	53                   	push   %ebx
    2149:	68 9f 3e 00 00       	push   $0x3e9f
    214e:	6a 04                	push   $0x4
    2150:	6a ff                	push   $0xffffffff
    2152:	e8 d9 25 00 00       	call   4730 <log_msg@plt>
    2157:	8b 5d 8c             	mov    -0x74(%ebp),%ebx
    215a:	83 c4 10             	add    $0x10,%esp
    215d:	8b 7d 94             	mov    -0x6c(%ebp),%edi
    2160:	85 db                	test   %ebx,%ebx
    2162:	0f 84 08 03 00 00    	je     2470 <udp_client_conn+0x490>
    2168:	8d 45 88             	lea    -0x78(%ebp),%eax
    216b:	39 c3                	cmp    %eax,%ebx
    216d:	0f 84 fd 02 00 00    	je     2470 <udp_client_conn+0x490>
    2173:	50                   	push   %eax
    2174:	50                   	push   %eax
    2175:	8d 45 b4             	lea    -0x4c(%ebp),%eax
    2178:	50                   	push   %eax
    2179:	8d 85 74 ff ff ff    	lea    -0x8c(%ebp),%eax
    217f:	50                   	push   %eax
    2180:	e8 8b 26 00 00       	call   4810 <async_data_read_receive@plt>
    2185:	83 c4 10             	add    $0x10,%esp
    2188:	84 c0                	test   %al,%al
    218a:	0f 84 90 02 00 00    	je     2420 <udp_client_conn+0x440>
    2190:	8b 53 3c             	mov    0x3c(%ebx),%edx
    2193:	50                   	push   %eax
    2194:	8b 4d b4             	mov    -0x4c(%ebp),%ecx
    2197:	8b 42 04             	mov    0x4(%edx),%eax
    219a:	29 f8                	sub    %edi,%eax
    219c:	39 c8                	cmp    %ecx,%eax
    219e:	0f 8c b4 02 00 00    	jl     2458 <udp_client_conn+0x478>
    21a4:	50                   	push   %eax
    21a5:	8b 02                	mov    (%edx),%eax
    21a7:	01 c7                	add    %eax,%edi
    21a9:	8b 85 74 ff ff ff    	mov    -0x8c(%ebp),%eax
    21af:	57                   	push   %edi
    21b0:	50                   	push   %eax
    21b1:	e8 fa 24 00 00       	call   46b0 <async_data_read_finalize@plt>
    21b6:	83 c4 10             	add    $0x10,%esp
    21b9:	85 c0                	test   %eax,%eax
    21bb:	0f 85 05 ff ff ff    	jne    20c6 <udp_client_conn+0xe6>
    21c1:	8b 85 64 ff ff ff    	mov    -0x9c(%ebp),%eax
    21c7:	57                   	push   %edi
    21c8:	57                   	push   %edi
    21c9:	6a 00                	push   $0x0
    21cb:	50                   	push   %eax
    21cc:	e8 2f 25 00 00       	call   4700 <async_answer_0@plt>
    21d1:	83 c4 0c             	add    $0xc,%esp
    21d4:	68 b3 3e 00 00       	push   $0x3eb3
    21d9:	6a 04                	push   $0x4
    21db:	6a ff                	push   $0xffffffff
    21dd:	e8 4e 25 00 00       	call   4730 <log_msg@plt>
    21e2:	83 c4 10             	add    $0x10,%esp
    21e5:	e9 3e fe ff ff       	jmp    2028 <udp_client_conn+0x48>
    21ea:	8d b6 00 00 00 00    	lea    0x0(%esi),%esi
    21f0:	50                   	push   %eax
    21f1:	68 8b 3e 00 00       	push   $0x3e8b
    21f6:	6a 04                	push   $0x4
    21f8:	6a ff                	push   $0xffffffff
    21fa:	e8 31 25 00 00       	call   4730 <log_msg@plt>
    21ff:	8b 5d 8c             	mov    -0x74(%ebp),%ebx
    2202:	83 c4 10             	add    $0x10,%esp
    2205:	85 db                	test   %ebx,%ebx
    2207:	0f 84 63 02 00 00    	je     2470 <udp_client_conn+0x490>
    220d:	8d 45 88             	lea    -0x78(%ebp),%eax
    2210:	39 c3                	cmp    %eax,%ebx
    2212:	0f 84 58 02 00 00    	je     2470 <udp_client_conn+0x490>
    2218:	50                   	push   %eax
    2219:	50                   	push   %eax
    221a:	8d 45 b4             	lea    -0x4c(%ebp),%eax
    221d:	50                   	push   %eax
    221e:	8d 85 74 ff ff ff    	lea    -0x8c(%ebp),%eax
    2224:	50                   	push   %eax
    2225:	e8 e6 25 00 00       	call   4810 <async_data_read_receive@plt>
    222a:	83 c4 10             	add    $0x10,%esp
    222d:	84 c0                	test   %al,%al
    222f:	0f 84 eb 01 00 00    	je     2420 <udp_client_conn+0x440>
    2235:	50                   	push   %eax
    2236:	8b 45 b4             	mov    -0x4c(%ebp),%eax
    2239:	83 f8 18             	cmp    $0x18,%eax
    223c:	0f 82 06 02 00 00    	jb     2448 <udp_client_conn+0x468>
    2242:	50                   	push   %eax
    2243:	8d 43 24             	lea    0x24(%ebx),%eax
    2246:	50                   	push   %eax
    2247:	8b 85 74 ff ff ff    	mov    -0x8c(%ebp),%eax
    224d:	50                   	push   %eax
    224e:	e8 5d 24 00 00       	call   46b0 <async_data_read_finalize@plt>
    2253:	83 c4 10             	add    $0x10,%esp
    2256:	85 c0                	test   %eax,%eax
    2258:	0f 85 68 fe ff ff    	jne    20c6 <udp_client_conn+0xe6>
    225e:	8b 43 40             	mov    0x40(%ebx),%eax
    2261:	83 ec 0c             	sub    $0xc,%esp
    2264:	8b 78 04             	mov    0x4(%eax),%edi
    2267:	8b 43 3c             	mov    0x3c(%ebx),%eax
    226a:	8b 40 04             	mov    0x4(%eax),%eax
    226d:	50                   	push   %eax
    226e:	57                   	push   %edi
    226f:	68 0c 3d 00 00       	push   $0x3d0c
    2274:	6a 04                	push   $0x4
    2276:	6a ff                	push   $0xffffffff
    2278:	89 45 b4             	mov    %eax,-0x4c(%ebp)
    227b:	e8 b0 24 00 00       	call   4730 <log_msg@plt>
    2280:	83 c4 20             	add    $0x20,%esp
    2283:	8b 45 b4             	mov    -0x4c(%ebp),%eax
    2286:	50                   	push   %eax
    2287:	8b 85 64 ff ff ff    	mov    -0x9c(%ebp),%eax
    228d:	57                   	push   %edi
    228e:	6a 00                	push   $0x0
    2290:	50                   	push   %eax
    2291:	e8 2a 25 00 00       	call   47c0 <async_answer_2@plt>
    2296:	83 c4 10             	add    $0x10,%esp
    2299:	e9 8a fd ff ff       	jmp    2028 <udp_client_conn+0x48>
    229e:	66 90                	xchg   %ax,%ax
    22a0:	8d bd 70 ff ff ff    	lea    -0x90(%ebp),%edi
    22a6:	8d 9d 6c ff ff ff    	lea    -0x94(%ebp),%ebx
    22ac:	50                   	push   %eax
    22ad:	68 72 3e 00 00       	push   $0x3e72
    22b2:	6a 04                	push   $0x4
    22b4:	6a ff                	push   $0xffffffff
    22b6:	e8 75 24 00 00       	call   4730 <log_msg@plt>
    22bb:	58                   	pop    %eax
    22bc:	5a                   	pop    %edx
    22bd:	57                   	push   %edi
    22be:	53                   	push   %ebx
    22bf:	e8 1c 26 00 00       	call   48e0 <async_data_write_receive@plt>
    22c4:	83 c4 10             	add    $0x10,%esp
    22c7:	84 c0                	test   %al,%al
    22c9:	0f 84 91 01 00 00    	je     2460 <udp_client_conn+0x480>
    22cf:	83 bd 70 ff ff ff 18 	cmpl   $0x18,-0x90(%ebp)
    22d6:	0f 84 5c 02 00 00    	je     2538 <udp_client_conn+0x558>
    22dc:	8b bd 6c ff ff ff    	mov    -0x94(%ebp),%edi
    22e2:	53                   	push   %ebx
    22e3:	53                   	push   %ebx
    22e4:	6a f2                	push   $0xfffffff2
    22e6:	57                   	push   %edi
    22e7:	e9 3b fe ff ff       	jmp    2127 <udp_client_conn+0x147>
    22ec:	8d 74 26 00          	lea    0x0(%esi,%eiz,1),%esi
    22f0:	53                   	push   %ebx
    22f1:	68 cb 3e 00 00       	push   $0x3ecb
    22f6:	6a 04                	push   $0x4
    22f8:	6a ff                	push   $0xffffffff
    22fa:	e8 31 24 00 00       	call   4730 <log_msg@plt>
    22ff:	8b 5d 8c             	mov    -0x74(%ebp),%ebx
    2302:	83 c4 10             	add    $0x10,%esp
    2305:	85 db                	test   %ebx,%ebx
    2307:	0f 84 28 04 00 00    	je     2735 <udp_client_conn+0x755>
    230d:	8d 45 88             	lea    -0x78(%ebp),%eax
    2310:	39 c3                	cmp    %eax,%ebx
    2312:	0f 84 1d 04 00 00    	je     2735 <udp_client_conn+0x755>
    2318:	8b 13                	mov    (%ebx),%edx
    231a:	85 d2                	test   %edx,%edx
    231c:	74 0e                	je     232c <udp_client_conn+0x34c>
    231e:	8b 43 04             	mov    0x4(%ebx),%eax
    2321:	85 c0                	test   %eax,%eax
    2323:	74 07                	je     232c <udp_client_conn+0x34c>
    2325:	89 10                	mov    %edx,(%eax)
    2327:	8b 13                	mov    (%ebx),%edx
    2329:	89 42 04             	mov    %eax,0x4(%edx)
    232c:	83 ec 0c             	sub    $0xc,%esp
    232f:	8b 43 3c             	mov    0x3c(%ebx),%eax
    2332:	c7 03 00 00 00 00    	movl   $0x0,(%ebx)
    2338:	c7 43 04 00 00 00 00 	movl   $0x0,0x4(%ebx)
    233f:	50                   	push   %eax
    2340:	e8 3b f7 ff ff       	call   1a80 <udp_msg_delete>
    2345:	89 1c 24             	mov    %ebx,(%esp)
    2348:	e8 b3 25 00 00       	call   4900 <free@plt>
    234d:	8b 8d 64 ff ff ff    	mov    -0x9c(%ebp),%ecx
    2353:	58                   	pop    %eax
    2354:	5a                   	pop    %edx
    2355:	6a 00                	push   $0x0
    2357:	51                   	push   %ecx
    2358:	e8 a3 23 00 00       	call   4700 <async_answer_0@plt>
    235d:	83 c4 10             	add    $0x10,%esp
    2360:	e9 c3 fc ff ff       	jmp    2028 <udp_client_conn+0x48>
    2365:	8d 76 00             	lea    0x0(%esi),%esi
    2368:	50                   	push   %eax
    2369:	68 13 3e 00 00       	push   $0x3e13
    236e:	6a 04                	push   $0x4
    2370:	6a ff                	push   $0xffffffff
    2372:	e8 b9 23 00 00       	call   4730 <log_msg@plt>
    2377:	c7 04 24 01 00 00 00 	movl   $0x1,(%esp)
    237e:	e8 6d 25 00 00       	call   48f0 <async_callback_receive@plt>
    2383:	83 c4 10             	add    $0x10,%esp
    2386:	85 c0                	test   %eax,%eax
    2388:	0f 84 bb 03 00 00    	je     2749 <udp_client_conn+0x769>
    238e:	8b 9d 64 ff ff ff    	mov    -0x9c(%ebp),%ebx
    2394:	51                   	push   %ecx
    2395:	51                   	push   %ecx
    2396:	6a 00                	push   $0x0
    2398:	53                   	push   %ebx
    2399:	89 85 7c ff ff ff    	mov    %eax,-0x84(%ebp)
    239f:	e8 5c 23 00 00       	call   4700 <async_answer_0@plt>
    23a4:	83 c4 10             	add    $0x10,%esp
    23a7:	e9 7c fc ff ff       	jmp    2028 <udp_client_conn+0x48>
    23ac:	8d 74 26 00          	lea    0x0(%esi,%eiz,1),%esi
    23b0:	8b 85 64 ff ff ff    	mov    -0x9c(%ebp),%eax
    23b6:	57                   	push   %edi
    23b7:	57                   	push   %edi
    23b8:	6a f5                	push   $0xfffffff5
    23ba:	50                   	push   %eax
    23bb:	e8 40 23 00 00       	call   4700 <async_answer_0@plt>
    23c0:	83 c4 10             	add    $0x10,%esp
    23c3:	e9 60 fc ff ff       	jmp    2028 <udp_client_conn+0x48>
    23c8:	8b bd 64 ff ff ff    	mov    -0x9c(%ebp),%edi
    23ce:	50                   	push   %eax
    23cf:	50                   	push   %eax
    23d0:	6a 00                	push   $0x0
    23d2:	57                   	push   %edi
    23d3:	e8 28 23 00 00       	call   4700 <async_answer_0@plt>
    23d8:	83 c4 0c             	add    $0xc,%esp
    23db:	68 f7 3d 00 00       	push   $0x3df7
    23e0:	6a 04                	push   $0x4
    23e2:	6a ff                	push   $0xffffffff
    23e4:	e8 47 23 00 00       	call   4730 <log_msg@plt>
    23e9:	89 34 24             	mov    %esi,(%esp)
    23ec:	e8 5f 24 00 00       	call   4850 <list_count@plt>
    23f1:	83 c4 10             	add    $0x10,%esp
    23f4:	85 c0                	test   %eax,%eax
    23f6:	0f 85 24 01 00 00    	jne    2520 <udp_client_conn+0x540>
    23fc:	8b 85 7c ff ff ff    	mov    -0x84(%ebp),%eax
    2402:	85 c0                	test   %eax,%eax
    2404:	74 0c                	je     2412 <udp_client_conn+0x432>
    2406:	83 ec 0c             	sub    $0xc,%esp
    2409:	50                   	push   %eax
    240a:	e8 71 22 00 00       	call   4680 <async_hangup@plt>
    240f:	83 c4 10             	add    $0x10,%esp
    2412:	8d 65 f4             	lea    -0xc(%ebp),%esp
    2415:	5b                   	pop    %ebx
    2416:	5e                   	pop    %esi
    2417:	5f                   	pop    %edi
    2418:	5d                   	pop    %ebp
    2419:	c3                   	ret    
    241a:	8d b6 00 00 00 00    	lea    0x0(%esi),%esi
    2420:	8b 8d 74 ff ff ff    	mov    -0x8c(%ebp),%ecx
    2426:	52                   	push   %edx
    2427:	52                   	push   %edx
    2428:	6a fc                	push   $0xfffffffc
    242a:	51                   	push   %ecx
    242b:	e8 d0 22 00 00       	call   4700 <async_answer_0@plt>
    2430:	8b 8d 64 ff ff ff    	mov    -0x9c(%ebp),%ecx
    2436:	58                   	pop    %eax
    2437:	5a                   	pop    %edx
    2438:	6a fc                	push   $0xfffffffc
    243a:	51                   	push   %ecx
    243b:	e8 c0 22 00 00       	call   4700 <async_answer_0@plt>
    2440:	83 c4 10             	add    $0x10,%esp
    2443:	e9 e0 fb ff ff       	jmp    2028 <udp_client_conn+0x48>
    2448:	b8 18 00 00 00       	mov    $0x18,%eax
    244d:	e9 f0 fd ff ff       	jmp    2242 <udp_client_conn+0x262>
    2452:	8d b6 00 00 00 00    	lea    0x0(%esi),%esi
    2458:	89 c8                	mov    %ecx,%eax
    245a:	e9 45 fd ff ff       	jmp    21a4 <udp_client_conn+0x1c4>
    245f:	90                   	nop
    2460:	8b bd 6c ff ff ff    	mov    -0x94(%ebp),%edi
    2466:	53                   	push   %ebx
    2467:	53                   	push   %ebx
    2468:	6a fc                	push   $0xfffffffc
    246a:	57                   	push   %edi
    246b:	eb be                	jmp    242b <udp_client_conn+0x44b>
    246d:	8d 76 00             	lea    0x0(%esi),%esi
    2470:	50                   	push   %eax
    2471:	50                   	push   %eax
    2472:	8d 45 b4             	lea    -0x4c(%ebp),%eax
    2475:	50                   	push   %eax
    2476:	8d 85 74 ff ff ff    	lea    -0x8c(%ebp),%eax
    247c:	50                   	push   %eax
    247d:	e8 8e 23 00 00       	call   4810 <async_data_read_receive@plt>
    2482:	83 c4 10             	add    $0x10,%esp
    2485:	84 c0                	test   %al,%al
    2487:	74 97                	je     2420 <udp_client_conn+0x440>
    2489:	50                   	push   %eax
    248a:	50                   	push   %eax
    248b:	8b 85 74 ff ff ff    	mov    -0x8c(%ebp),%eax
    2491:	6a ff                	push   $0xffffffff
    2493:	50                   	push   %eax
    2494:	e8 67 22 00 00       	call   4700 <async_answer_0@plt>
    2499:	8b 8d 64 ff ff ff    	mov    -0x9c(%ebp),%ecx
    249f:	58                   	pop    %eax
    24a0:	5a                   	pop    %edx
    24a1:	6a ff                	push   $0xffffffff
    24a3:	51                   	push   %ecx
    24a4:	e8 57 22 00 00       	call   4700 <async_answer_0@plt>
    24a9:	83 c4 10             	add    $0x10,%esp
    24ac:	e9 77 fb ff ff       	jmp    2028 <udp_client_conn+0x48>
    24b1:	8d b4 26 00 00 00 00 	lea    0x0(%esi,%eiz,1),%esi
    24b8:	50                   	push   %eax
    24b9:	50                   	push   %eax
    24ba:	8b 85 70 ff ff ff    	mov    -0x90(%ebp),%eax
    24c0:	6a fc                	push   $0xfffffffc
    24c2:	50                   	push   %eax
    24c3:	e9 63 ff ff ff       	jmp    242b <udp_client_conn+0x44b>
    24c8:	83 ec 0c             	sub    $0xc,%esp
    24cb:	8b 0b                	mov    (%ebx),%ecx
    24cd:	51                   	push   %ecx
    24ce:	e8 2d f0 ff ff       	call   1500 <udp_assoc_remove>
    24d3:	8b 03                	mov    (%ebx),%eax
    24d5:	5f                   	pop    %edi
    24d6:	50                   	push   %eax
    24d7:	e8 44 f5 ff ff       	call   1a20 <udp_assoc_reset>
    24dc:	58                   	pop    %eax
    24dd:	8b 03                	mov    (%ebx),%eax
    24df:	50                   	push   %eax
    24e0:	e8 cb ed ff ff       	call   12b0 <udp_assoc_delete>
    24e5:	8b 53 0c             	mov    0xc(%ebx),%edx
    24e8:	83 c4 10             	add    $0x10,%esp
    24eb:	85 d2                	test   %edx,%edx
    24ed:	74 0f                	je     24fe <udp_client_conn+0x51e>
    24ef:	8b 43 10             	mov    0x10(%ebx),%eax
    24f2:	85 c0                	test   %eax,%eax
    24f4:	74 08                	je     24fe <udp_client_conn+0x51e>
    24f6:	89 10                	mov    %edx,(%eax)
    24f8:	8b 53 0c             	mov    0xc(%ebx),%edx
    24fb:	89 42 04             	mov    %eax,0x4(%edx)
    24fe:	83 ec 0c             	sub    $0xc,%esp
    2501:	c7 43 0c 00 00 00 00 	movl   $0x0,0xc(%ebx)
    2508:	c7 43 10 00 00 00 00 	movl   $0x0,0x10(%ebx)
    250f:	53                   	push   %ebx
    2510:	e8 eb 23 00 00       	call   4900 <free@plt>
    2515:	83 c4 10             	add    $0x10,%esp
    2518:	31 c0                	xor    %eax,%eax
    251a:	e9 a7 fb ff ff       	jmp    20c6 <udp_client_conn+0xe6>
    251f:	90                   	nop
    2520:	50                   	push   %eax
    2521:	68 38 3d 00 00       	push   $0x3d38
    2526:	6a 02                	push   $0x2
    2528:	6a ff                	push   $0xffffffff
    252a:	e8 01 22 00 00       	call   4730 <log_msg@plt>
    252f:	83 c4 10             	add    $0x10,%esp
    2532:	e9 c5 fe ff ff       	jmp    23fc <udp_client_conn+0x41c>
    2537:	90                   	nop
    2538:	50                   	push   %eax
    2539:	8d 45 b4             	lea    -0x4c(%ebp),%eax
    253c:	6a 18                	push   $0x18
    253e:	50                   	push   %eax
    253f:	8b 85 6c ff ff ff    	mov    -0x94(%ebp),%eax
    2545:	50                   	push   %eax
    2546:	e8 35 23 00 00       	call   4880 <async_data_write_finalize@plt>
    254b:	83 c4 10             	add    $0x10,%esp
    254e:	89 c2                	mov    %eax,%edx
    2550:	85 c0                	test   %eax,%eax
    2552:	0f 85 ab 01 00 00    	jne    2703 <udp_client_conn+0x723>
    2558:	50                   	push   %eax
    2559:	50                   	push   %eax
    255a:	57                   	push   %edi
    255b:	53                   	push   %ebx
    255c:	e8 7f 23 00 00       	call   48e0 <async_data_write_receive@plt>
    2561:	83 c4 10             	add    $0x10,%esp
    2564:	84 c0                	test   %al,%al
    2566:	0f 84 f4 fe ff ff    	je     2460 <udp_client_conn+0x480>
    256c:	8b 85 70 ff ff ff    	mov    -0x90(%ebp),%eax
    2572:	3d 00 00 01 00       	cmp    $0x10000,%eax
    2577:	0f 87 5f fd ff ff    	ja     22dc <udp_client_conn+0x2fc>
    257d:	83 ec 0c             	sub    $0xc,%esp
    2580:	50                   	push   %eax
    2581:	e8 5a 21 00 00       	call   46e0 <malloc@plt>
    2586:	83 c4 10             	add    $0x10,%esp
    2589:	89 c3                	mov    %eax,%ebx
    258b:	85 c0                	test   %eax,%eax
    258d:	0f 84 b3 02 00 00    	je     2846 <udp_client_conn+0x866>
    2593:	8b bd 70 ff ff ff    	mov    -0x90(%ebp),%edi
    2599:	8b 85 6c ff ff ff    	mov    -0x94(%ebp),%eax
    259f:	51                   	push   %ecx
    25a0:	57                   	push   %edi
    25a1:	53                   	push   %ebx
    25a2:	50                   	push   %eax
    25a3:	e8 d8 22 00 00       	call   4880 <async_data_write_finalize@plt>
    25a8:	83 c4 10             	add    $0x10,%esp
    25ab:	89 c7                	mov    %eax,%edi
    25ad:	85 c0                	test   %eax,%eax
    25af:	0f 84 c8 01 00 00    	je     277d <udp_client_conn+0x79d>
    25b5:	51                   	push   %ecx
    25b6:	51                   	push   %ecx
    25b7:	50                   	push   %eax
    25b8:	8b 85 6c ff ff ff    	mov    -0x94(%ebp),%eax
    25be:	50                   	push   %eax
    25bf:	e8 3c 21 00 00       	call   4700 <async_answer_0@plt>
    25c4:	58                   	pop    %eax
    25c5:	5a                   	pop    %edx
    25c6:	57                   	push   %edi
    25c7:	8b 85 64 ff ff ff    	mov    -0x9c(%ebp),%eax
    25cd:	50                   	push   %eax
    25ce:	e8 2d 21 00 00       	call   4700 <async_answer_0@plt>
    25d3:	89 1c 24             	mov    %ebx,(%esp)
    25d6:	e8 25 23 00 00       	call   4900 <free@plt>
    25db:	83 c4 10             	add    $0x10,%esp
    25de:	e9 45 fa ff ff       	jmp    2028 <udp_client_conn+0x48>
    25e3:	90                   	nop
    25e4:	8d 74 26 00          	lea    0x0(%esi,%eiz,1),%esi
    25e8:	8d 45 b4             	lea    -0x4c(%ebp),%eax
    25eb:	8b bd 70 ff ff ff    	mov    -0x90(%ebp),%edi
    25f1:	53                   	push   %ebx
    25f2:	6a 34                	push   $0x34
    25f4:	50                   	push   %eax
    25f5:	57                   	push   %edi
    25f6:	e8 85 22 00 00       	call   4880 <async_data_write_finalize@plt>
    25fb:	83 c4 10             	add    $0x10,%esp
    25fe:	89 c3                	mov    %eax,%ebx
    2600:	85 c0                	test   %eax,%eax
    2602:	0f 85 d5 00 00 00    	jne    26dd <udp_client_conn+0x6fd>
    2608:	53                   	push   %ebx
    2609:	68 44 3e 00 00       	push   $0x3e44
    260e:	6a 04                	push   $0x4
    2610:	6a ff                	push   $0xffffffff
    2612:	e8 19 21 00 00       	call   4730 <log_msg@plt>
    2617:	83 c4 0c             	add    $0xc,%esp
    261a:	8d 45 b4             	lea    -0x4c(%ebp),%eax
    261d:	6a 00                	push   $0x0
    261f:	6a 00                	push   $0x0
    2621:	50                   	push   %eax
    2622:	e8 39 eb ff ff       	call   1160 <udp_assoc_new>
    2627:	83 c4 10             	add    $0x10,%esp
    262a:	89 85 60 ff ff ff    	mov    %eax,-0xa0(%ebp)
    2630:	85 c0                	test   %eax,%eax
    2632:	0f 84 36 02 00 00    	je     286e <udp_client_conn+0x88e>
    2638:	8b 45 b4             	mov    -0x4c(%ebp),%eax
    263b:	85 c0                	test   %eax,%eax
    263d:	0f 85 92 01 00 00    	jne    27d5 <udp_client_conn+0x7f5>
    2643:	50                   	push   %eax
    2644:	50                   	push   %eax
    2645:	6a 14                	push   $0x14
    2647:	6a 01                	push   $0x1
    2649:	e8 32 21 00 00       	call   4780 <calloc@plt>
    264e:	83 c4 10             	add    $0x10,%esp
    2651:	89 c3                	mov    %eax,%ebx
    2653:	85 c0                	test   %eax,%eax
    2655:	0f 84 06 01 00 00    	je     2761 <udp_client_conn+0x781>
    265b:	8b 55 84             	mov    -0x7c(%ebp),%edx
    265e:	31 c0                	xor    %eax,%eax
    2660:	39 f2                	cmp    %esi,%edx
    2662:	8d 4a f4             	lea    -0xc(%edx),%ecx
    2665:	74 17                	je     267e <udp_client_conn+0x69e>
    2667:	90                   	nop
    2668:	8b 49 04             	mov    0x4(%ecx),%ecx
    266b:	39 c1                	cmp    %eax,%ecx
    266d:	8d 79 01             	lea    0x1(%ecx),%edi
    2670:	72 02                	jb     2674 <udp_client_conn+0x694>
    2672:	89 f8                	mov    %edi,%eax
    2674:	8b 52 04             	mov    0x4(%edx),%edx
    2677:	39 f2                	cmp    %esi,%edx
    2679:	8d 4a f4             	lea    -0xc(%edx),%ecx
    267c:	75 ea                	jne    2668 <udp_client_conn+0x688>
    267e:	89 43 04             	mov    %eax,0x4(%ebx)
    2681:	8b bd 60 ff ff ff    	mov    -0xa0(%ebp),%edi
    2687:	8b 55 80             	mov    -0x80(%ebp),%edx
    268a:	8d 85 7c ff ff ff    	lea    -0x84(%ebp),%eax
    2690:	89 43 08             	mov    %eax,0x8(%ebx)
    2693:	83 ec 0c             	sub    $0xc,%esp
    2696:	8d 43 0c             	lea    0xc(%ebx),%eax
    2699:	89 3b                	mov    %edi,(%ebx)
    269b:	89 73 10             	mov    %esi,0x10(%ebx)
    269e:	89 53 0c             	mov    %edx,0xc(%ebx)
    26a1:	89 42 04             	mov    %eax,0x4(%edx)
    26a4:	c7 47 68 94 61 00 00 	movl   $0x6194,0x68(%edi)
    26ab:	89 5f 6c             	mov    %ebx,0x6c(%edi)
    26ae:	89 45 80             	mov    %eax,-0x80(%ebp)
    26b1:	57                   	push   %edi
    26b2:	e8 f9 ec ff ff       	call   13b0 <udp_assoc_add>
    26b7:	83 c4 10             	add    $0x10,%esp
    26ba:	85 c0                	test   %eax,%eax
    26bc:	0f 85 36 01 00 00    	jne    27f8 <udp_client_conn+0x818>
    26c2:	50                   	push   %eax
    26c3:	8b 95 64 ff ff ff    	mov    -0x9c(%ebp),%edx
    26c9:	8b 43 04             	mov    0x4(%ebx),%eax
    26cc:	50                   	push   %eax
    26cd:	6a 00                	push   $0x0
    26cf:	52                   	push   %edx
    26d0:	e8 8b 21 00 00       	call   4860 <async_answer_1@plt>
    26d5:	83 c4 10             	add    $0x10,%esp
    26d8:	e9 4b f9 ff ff       	jmp    2028 <udp_client_conn+0x48>
    26dd:	57                   	push   %edi
    26de:	57                   	push   %edi
    26df:	50                   	push   %eax
    26e0:	8b 85 70 ff ff ff    	mov    -0x90(%ebp),%eax
    26e6:	50                   	push   %eax
    26e7:	e8 14 20 00 00       	call   4700 <async_answer_0@plt>
    26ec:	8b 8d 64 ff ff ff    	mov    -0x9c(%ebp),%ecx
    26f2:	58                   	pop    %eax
    26f3:	5a                   	pop    %edx
    26f4:	53                   	push   %ebx
    26f5:	51                   	push   %ecx
    26f6:	e8 05 20 00 00       	call   4700 <async_answer_0@plt>
    26fb:	83 c4 10             	add    $0x10,%esp
    26fe:	e9 25 f9 ff ff       	jmp    2028 <udp_client_conn+0x48>
    2703:	50                   	push   %eax
    2704:	50                   	push   %eax
    2705:	8b 85 6c ff ff ff    	mov    -0x94(%ebp),%eax
    270b:	52                   	push   %edx
    270c:	89 95 60 ff ff ff    	mov    %edx,-0xa0(%ebp)
    2712:	50                   	push   %eax
    2713:	e8 e8 1f 00 00       	call   4700 <async_answer_0@plt>
    2718:	58                   	pop    %eax
    2719:	8b 8d 64 ff ff ff    	mov    -0x9c(%ebp),%ecx
    271f:	5a                   	pop    %edx
    2720:	8b 95 60 ff ff ff    	mov    -0xa0(%ebp),%edx
    2726:	52                   	push   %edx
    2727:	51                   	push   %ecx
    2728:	e8 d3 1f 00 00       	call   4700 <async_answer_0@plt>
    272d:	83 c4 10             	add    $0x10,%esp
    2730:	e9 f3 f8 ff ff       	jmp    2028 <udp_client_conn+0x48>
    2735:	53                   	push   %ebx
    2736:	68 80 3d 00 00       	push   $0x3d80
    273b:	6a 04                	push   $0x4
    273d:	6a ff                	push   $0xffffffff
    273f:	e8 ec 1f 00 00       	call   4730 <log_msg@plt>
    2744:	e9 50 fd ff ff       	jmp    2499 <udp_client_conn+0x4b9>
    2749:	8b 85 64 ff ff ff    	mov    -0x9c(%ebp),%eax
    274f:	57                   	push   %edi
    2750:	57                   	push   %edi
    2751:	6a fe                	push   $0xfffffffe
    2753:	50                   	push   %eax
    2754:	e8 a7 1f 00 00       	call   4700 <async_answer_0@plt>
    2759:	83 c4 10             	add    $0x10,%esp
    275c:	e9 c7 f8 ff ff       	jmp    2028 <udp_client_conn+0x48>
    2761:	83 ec 0c             	sub    $0xc,%esp
    2764:	8b bd 60 ff ff ff    	mov    -0xa0(%ebp),%edi
    276a:	57                   	push   %edi
    276b:	e8 40 eb ff ff       	call   12b0 <udp_assoc_delete>
    2770:	83 c4 10             	add    $0x10,%esp
    2773:	b8 fe ff ff ff       	mov    $0xfffffffe,%eax
    2778:	e9 49 f9 ff ff       	jmp    20c6 <udp_client_conn+0xe6>
    277d:	8b 45 84             	mov    -0x7c(%ebp),%eax
    2780:	8b 4d 94             	mov    -0x6c(%ebp),%ecx
    2783:	39 f0                	cmp    %esi,%eax
    2785:	8d 50 f4             	lea    -0xc(%eax),%edx
    2788:	75 10                	jne    279a <udp_client_conn+0x7ba>
    278a:	eb 60                	jmp    27ec <udp_client_conn+0x80c>
    278c:	8d 74 26 00          	lea    0x0(%esi,%eiz,1),%esi
    2790:	8b 40 04             	mov    0x4(%eax),%eax
    2793:	39 f0                	cmp    %esi,%eax
    2795:	8d 50 f4             	lea    -0xc(%eax),%edx
    2798:	74 52                	je     27ec <udp_client_conn+0x80c>
    279a:	3b 4a 04             	cmp    0x4(%edx),%ecx
    279d:	75 f1                	jne    2790 <udp_client_conn+0x7b0>
    279f:	8b 85 70 ff ff ff    	mov    -0x90(%ebp),%eax
    27a5:	89 9d 74 ff ff ff    	mov    %ebx,-0x8c(%ebp)
    27ab:	89 85 78 ff ff ff    	mov    %eax,-0x88(%ebp)
    27b1:	50                   	push   %eax
    27b2:	8d 85 74 ff ff ff    	lea    -0x8c(%ebp),%eax
    27b8:	8b 12                	mov    (%edx),%edx
    27ba:	50                   	push   %eax
    27bb:	8d 45 b4             	lea    -0x4c(%ebp),%eax
    27be:	50                   	push   %eax
    27bf:	52                   	push   %edx
    27c0:	e8 7b ee ff ff       	call   1640 <udp_assoc_send>
    27c5:	83 c4 10             	add    $0x10,%esp
    27c8:	85 c0                	test   %eax,%eax
    27ca:	75 23                	jne    27ef <udp_client_conn+0x80f>
    27cc:	50                   	push   %eax
    27cd:	50                   	push   %eax
    27ce:	6a 00                	push   $0x0
    27d0:	e9 f2 fd ff ff       	jmp    25c7 <udp_client_conn+0x5e7>
    27d5:	8b 8d 60 ff ff ff    	mov    -0xa0(%ebp),%ecx
    27db:	52                   	push   %edx
    27dc:	52                   	push   %edx
    27dd:	50                   	push   %eax
    27de:	51                   	push   %ecx
    27df:	e8 1c ee ff ff       	call   1600 <udp_assoc_set_iplink>
    27e4:	83 c4 10             	add    $0x10,%esp
    27e7:	e9 57 fe ff ff       	jmp    2643 <udp_client_conn+0x663>
    27ec:	83 c8 ff             	or     $0xffffffff,%eax
    27ef:	52                   	push   %edx
    27f0:	52                   	push   %edx
    27f1:	50                   	push   %eax
    27f2:	e9 d0 fd ff ff       	jmp    25c7 <udp_client_conn+0x5e7>
    27f7:	90                   	nop
    27f8:	8b 53 0c             	mov    0xc(%ebx),%edx
    27fb:	85 d2                	test   %edx,%edx
    27fd:	74 0f                	je     280e <udp_client_conn+0x82e>
    27ff:	8b 4b 10             	mov    0x10(%ebx),%ecx
    2802:	85 c9                	test   %ecx,%ecx
    2804:	74 08                	je     280e <udp_client_conn+0x82e>
    2806:	89 11                	mov    %edx,(%ecx)
    2808:	8b 53 0c             	mov    0xc(%ebx),%edx
    280b:	89 4a 04             	mov    %ecx,0x4(%edx)
    280e:	83 ec 0c             	sub    $0xc,%esp
    2811:	c7 43 0c 00 00 00 00 	movl   $0x0,0xc(%ebx)
    2818:	c7 43 10 00 00 00 00 	movl   $0x0,0x10(%ebx)
    281f:	89 85 5c ff ff ff    	mov    %eax,-0xa4(%ebp)
    2825:	53                   	push   %ebx
    2826:	e8 d5 20 00 00       	call   4900 <free@plt>
    282b:	8b 9d 60 ff ff ff    	mov    -0xa0(%ebp),%ebx
    2831:	59                   	pop    %ecx
    2832:	53                   	push   %ebx
    2833:	e8 78 ea ff ff       	call   12b0 <udp_assoc_delete>
    2838:	8b 85 5c ff ff ff    	mov    -0xa4(%ebp),%eax
    283e:	83 c4 10             	add    $0x10,%esp
    2841:	e9 80 f8 ff ff       	jmp    20c6 <udp_client_conn+0xe6>
    2846:	50                   	push   %eax
    2847:	50                   	push   %eax
    2848:	8b 85 6c ff ff ff    	mov    -0x94(%ebp),%eax
    284e:	6a fe                	push   $0xfffffffe
    2850:	50                   	push   %eax
    2851:	e8 aa 1e 00 00       	call   4700 <async_answer_0@plt>
    2856:	8b 8d 64 ff ff ff    	mov    -0x9c(%ebp),%ecx
    285c:	58                   	pop    %eax
    285d:	5a                   	pop    %edx
    285e:	6a fe                	push   $0xfffffffe
    2860:	51                   	push   %ecx
    2861:	e8 9a 1e 00 00       	call   4700 <async_answer_0@plt>
    2866:	83 c4 10             	add    $0x10,%esp
    2869:	e9 25 fd ff ff       	jmp    2593 <udp_client_conn+0x5b3>
    286e:	b8 f6 fe ff ff       	mov    $0xfffffef6,%eax
    2873:	e9 4e f8 ff ff       	jmp    20c6 <udp_client_conn+0xe6>
    2878:	90                   	nop
    2879:	8d b4 26 00 00 00 00 	lea    0x0(%esi,%eiz,1),%esi

00002880 <udp_service_init>:
    2880:	55                   	push   %ebp
    2881:	89 e5                	mov    %esp,%ebp
    2883:	83 ec 20             	sub    $0x20,%esp
    2886:	6a 00                	push   $0x0
    2888:	68 e0 1f 00 00       	push   $0x1fe0
    288d:	e8 3e 20 00 00       	call   48d0 <async_set_fallback_port_handler@plt>
    2892:	c7 04 24 01 3f 00 00 	movl   $0x3f01,(%esp)
    2899:	e8 82 1f 00 00       	call   4820 <loc_server_register@plt>
    289e:	83 c4 10             	add    $0x10,%esp
    28a1:	85 c0                	test   %eax,%eax
    28a3:	75 3b                	jne    28e0 <udp_service_init+0x60>
    28a5:	8d 45 f4             	lea    -0xc(%ebp),%eax
    28a8:	52                   	push   %edx
    28a9:	52                   	push   %edx
    28aa:	50                   	push   %eax
    28ab:	68 fd 3e 00 00       	push   $0x3efd
    28b0:	e8 eb 1d 00 00       	call   46a0 <loc_service_register@plt>
    28b5:	83 c4 10             	add    $0x10,%esp
    28b8:	85 c0                	test   %eax,%eax
    28ba:	75 04                	jne    28c0 <udp_service_init+0x40>
    28bc:	c9                   	leave  
    28bd:	c3                   	ret    
    28be:	66 90                	xchg   %ax,%ax
    28c0:	50                   	push   %eax
    28c1:	68 05 3f 00 00       	push   $0x3f05
    28c6:	6a 01                	push   $0x1
    28c8:	6a ff                	push   $0xffffffff
    28ca:	e8 61 1e 00 00       	call   4730 <log_msg@plt>
    28cf:	83 c4 10             	add    $0x10,%esp
    28d2:	b8 f6 fe ff ff       	mov    $0xfffffef6,%eax
    28d7:	c9                   	leave  
    28d8:	c3                   	ret    
    28d9:	8d b4 26 00 00 00 00 	lea    0x0(%esi,%eiz,1),%esi
    28e0:	51                   	push   %ecx
    28e1:	68 e2 3e 00 00       	push   $0x3ee2
    28e6:	eb de                	jmp    28c6 <udp_service_init+0x46>
    28e8:	66 90                	xchg   %ax,%ax
    28ea:	66 90                	xchg   %ax,%ax
    28ec:	66 90                	xchg   %ax,%ax
    28ee:	66 90                	xchg   %ax,%ax

000028f0 <main>:
    28f0:	8d 4c 24 04          	lea    0x4(%esp),%ecx
    28f4:	83 e4 f0             	and    $0xfffffff0,%esp
    28f7:	ff 71 fc             	pushl  -0x4(%ecx)
    28fa:	55                   	push   %ebp
    28fb:	89 e5                	mov    %esp,%ebp
    28fd:	53                   	push   %ebx
    28fe:	51                   	push   %ecx
    28ff:	83 ec 0c             	sub    $0xc,%esp
    2902:	68 40 3f 00 00       	push   $0x3f40
    2907:	e8 64 1d 00 00       	call   4670 <printf@plt>
    290c:	c7 04 24 01 3f 00 00 	movl   $0x3f01,(%esp)
    2913:	e8 78 1d 00 00       	call   4690 <log_init@plt>
    2918:	83 c4 10             	add    $0x10,%esp
    291b:	85 c0                	test   %eax,%eax
    291d:	75 7e                	jne    299d <main+0xad>
    291f:	50                   	push   %eax
    2920:	68 f9 3f 00 00       	push   $0x3ff9
    2925:	6a 04                	push   $0x4
    2927:	6a ff                	push   $0xffffffff
    2929:	e8 02 1e 00 00       	call   4730 <log_msg@plt>
    292e:	e8 fd e7 ff ff       	call   1130 <udp_assocs_init>
    2933:	83 c4 10             	add    $0x10,%esp
    2936:	85 c0                	test   %eax,%eax
    2938:	0f 85 93 00 00 00    	jne    29d1 <main+0xe1>
    293e:	e8 3d 02 00 00       	call   2b80 <udp_inet_init>
    2943:	85 c0                	test   %eax,%eax
    2945:	0f 85 9f 00 00 00    	jne    29ea <main+0xfa>
    294b:	e8 30 ff ff ff       	call   2880 <udp_service_init>
    2950:	89 c3                	mov    %eax,%ebx
    2952:	85 c0                	test   %eax,%eax
    2954:	0f 85 98 00 00 00    	jne    29f2 <main+0x102>
    295a:	83 ec 0c             	sub    $0xc,%esp
    295d:	68 04 40 00 00       	push   $0x4004
    2962:	e8 09 1d 00 00       	call   4670 <printf@plt>
    2967:	c7 04 24 00 00 00 00 	movl   $0x0,(%esp)
    296e:	e8 ed 1c 00 00       	call   4660 <task_retval@plt>
    2973:	83 c8 ff             	or     $0xffffffff,%eax
    2976:	f0 0f c1 05 64 62 00 	lock xadd %eax,0x6264
    297d:	00 
    297e:	83 c4 10             	add    $0x10,%esp
    2981:	48                   	dec    %eax
    2982:	78 30                	js     29b4 <main+0xc4>
    2984:	83 ec 0c             	sub    $0xc,%esp
    2987:	6a 03                	push   $0x3
    2989:	e8 12 1f 00 00       	call   48a0 <fibril_switch@plt>
    298e:	83 c4 10             	add    $0x10,%esp
    2991:	8d 65 f8             	lea    -0x8(%ebp),%esp
    2994:	89 d8                	mov    %ebx,%eax
    2996:	59                   	pop    %ecx
    2997:	5b                   	pop    %ebx
    2998:	5d                   	pop    %ebp
    2999:	8d 61 fc             	lea    -0x4(%ecx),%esp
    299c:	c3                   	ret    
    299d:	83 ec 0c             	sub    $0xc,%esp
    29a0:	bb 01 00 00 00       	mov    $0x1,%ebx
    29a5:	68 6c 3f 00 00       	push   $0x3f6c
    29aa:	e8 c1 1c 00 00       	call   4670 <printf@plt>
    29af:	83 c4 10             	add    $0x10,%esp
    29b2:	eb dd                	jmp    2991 <main+0xa1>
    29b4:	50                   	push   %eax
    29b5:	6a 0b                	push   $0xb
    29b7:	6a 00                	push   $0x0
    29b9:	6a 00                	push   $0x0
    29bb:	6a 00                	push   $0x0
    29bd:	6a 00                	push   $0x0
    29bf:	6a 00                	push   $0x0
    29c1:	68 64 62 00 00       	push   $0x6264
    29c6:	ff 15 60 62 00 00    	call   *0x6260
    29cc:	83 c4 20             	add    $0x20,%esp
    29cf:	eb b3                	jmp    2984 <main+0x94>
    29d1:	53                   	push   %ebx
    29d2:	68 8c 3f 00 00       	push   $0x3f8c
    29d7:	6a 01                	push   $0x1
    29d9:	6a ff                	push   $0xffffffff
    29db:	bb 01 00 00 00       	mov    $0x1,%ebx
    29e0:	e8 4b 1d 00 00       	call   4730 <log_msg@plt>
    29e5:	83 c4 10             	add    $0x10,%esp
    29e8:	eb a7                	jmp    2991 <main+0xa1>
    29ea:	51                   	push   %ecx
    29eb:	68 b0 3f 00 00       	push   $0x3fb0
    29f0:	eb e5                	jmp    29d7 <main+0xe7>
    29f2:	52                   	push   %edx
    29f3:	68 d8 3f 00 00       	push   $0x3fd8
    29f8:	eb dd                	jmp    29d7 <main+0xe7>
    29fa:	66 90                	xchg   %ax,%ax
    29fc:	66 90                	xchg   %ax,%ax
    29fe:	66 90                	xchg   %ax,%ax

00002a00 <udp_inet_ev_recv>:
    2a00:	55                   	push   %ebp
    2a01:	89 e5                	mov    %esp,%ebp
    2a03:	56                   	push   %esi
    2a04:	53                   	push   %ebx
    2a05:	83 ec 44             	sub    $0x44,%esp
    2a08:	8b 75 08             	mov    0x8(%ebp),%esi
    2a0b:	68 21 40 00 00       	push   $0x4021
    2a10:	6a 04                	push   $0x4
    2a12:	6a ff                	push   $0xffffffff
    2a14:	e8 17 1d 00 00       	call   4730 <log_msg@plt>
    2a19:	e8 92 f0 ff ff       	call   1ab0 <udp_pdu_new>
    2a1e:	83 c4 0c             	add    $0xc,%esp
    2a21:	89 c3                	mov    %eax,%ebx
    2a23:	8b 06                	mov    (%esi),%eax
    2a25:	89 03                	mov    %eax,(%ebx)
    2a27:	8b 46 30             	mov    0x30(%esi),%eax
    2a2a:	89 43 2c             	mov    %eax,0x2c(%ebx)
    2a2d:	8b 46 34             	mov    0x34(%esi),%eax
    2a30:	89 43 30             	mov    %eax,0x30(%ebx)
    2a33:	8b 46 04             	mov    0x4(%esi),%eax
    2a36:	89 43 04             	mov    %eax,0x4(%ebx)
    2a39:	8b 46 08             	mov    0x8(%esi),%eax
    2a3c:	89 43 08             	mov    %eax,0x8(%ebx)
    2a3f:	8b 46 0c             	mov    0xc(%esi),%eax
    2a42:	89 43 0c             	mov    %eax,0xc(%ebx)
    2a45:	8b 46 10             	mov    0x10(%esi),%eax
    2a48:	89 43 10             	mov    %eax,0x10(%ebx)
    2a4b:	8b 46 14             	mov    0x14(%esi),%eax
    2a4e:	89 43 14             	mov    %eax,0x14(%ebx)
    2a51:	8b 46 18             	mov    0x18(%esi),%eax
    2a54:	89 43 18             	mov    %eax,0x18(%ebx)
    2a57:	8b 46 1c             	mov    0x1c(%esi),%eax
    2a5a:	89 43 1c             	mov    %eax,0x1c(%ebx)
    2a5d:	8b 46 20             	mov    0x20(%esi),%eax
    2a60:	89 43 20             	mov    %eax,0x20(%ebx)
    2a63:	8b 46 24             	mov    0x24(%esi),%eax
    2a66:	89 43 24             	mov    %eax,0x24(%ebx)
    2a69:	8b 46 28             	mov    0x28(%esi),%eax
    2a6c:	89 43 28             	mov    %eax,0x28(%ebx)
    2a6f:	68 34 40 00 00       	push   $0x4034
    2a74:	6a 04                	push   $0x4
    2a76:	6a ff                	push   $0xffffffff
    2a78:	e8 b3 1c 00 00       	call   4730 <log_msg@plt>
    2a7d:	83 c4 0c             	add    $0xc,%esp
    2a80:	8d 45 c0             	lea    -0x40(%ebp),%eax
    2a83:	8d 75 c4             	lea    -0x3c(%ebp),%esi
    2a86:	50                   	push   %eax
    2a87:	56                   	push   %esi
    2a88:	53                   	push   %ebx
    2a89:	e8 72 f0 ff ff       	call   1b00 <udp_pdu_decode>
    2a8e:	83 c4 10             	add    $0x10,%esp
    2a91:	85 c0                	test   %eax,%eax
    2a93:	75 2b                	jne    2ac0 <udp_inet_ev_recv+0xc0>
    2a95:	8b 55 c0             	mov    -0x40(%ebp),%edx
    2a98:	50                   	push   %eax
    2a99:	50                   	push   %eax
    2a9a:	52                   	push   %edx
    2a9b:	56                   	push   %esi
    2a9c:	e8 ef ed ff ff       	call   1890 <udp_assoc_received>
    2aa1:	83 c4 10             	add    $0x10,%esp
    2aa4:	83 ec 0c             	sub    $0xc,%esp
    2aa7:	c7 43 2c 00 00 00 00 	movl   $0x0,0x2c(%ebx)
    2aae:	53                   	push   %ebx
    2aaf:	e8 1c f0 ff ff       	call   1ad0 <udp_pdu_delete>
    2ab4:	8d 65 f8             	lea    -0x8(%ebp),%esp
    2ab7:	31 c0                	xor    %eax,%eax
    2ab9:	5b                   	pop    %ebx
    2aba:	5e                   	pop    %esi
    2abb:	5d                   	pop    %ebp
    2abc:	c3                   	ret    
    2abd:	8d 76 00             	lea    0x0(%esi),%esi
    2ac0:	51                   	push   %ecx
    2ac1:	68 84 40 00 00       	push   $0x4084
    2ac6:	6a 02                	push   $0x2
    2ac8:	6a ff                	push   $0xffffffff
    2aca:	e8 61 1c 00 00       	call   4730 <log_msg@plt>
    2acf:	83 c4 10             	add    $0x10,%esp
    2ad2:	eb d0                	jmp    2aa4 <udp_inet_ev_recv+0xa4>
    2ad4:	8d b6 00 00 00 00    	lea    0x0(%esi),%esi
    2ada:	8d bf 00 00 00 00    	lea    0x0(%edi),%edi

00002ae0 <udp_transmit_pdu>:
    2ae0:	55                   	push   %ebp
    2ae1:	89 e5                	mov    %esp,%ebp
    2ae3:	53                   	push   %ebx
    2ae4:	83 ec 58             	sub    $0x58,%esp
    2ae7:	8b 5d 08             	mov    0x8(%ebp),%ebx
    2aea:	68 47 40 00 00       	push   $0x4047
    2aef:	6a 04                	push   $0x4
    2af1:	6a ff                	push   $0xffffffff
    2af3:	e8 38 1c 00 00       	call   4730 <log_msg@plt>
    2af8:	8b 03                	mov    (%ebx),%eax
    2afa:	83 c4 0c             	add    $0xc,%esp
    2afd:	89 45 c0             	mov    %eax,-0x40(%ebp)
    2b00:	8b 43 04             	mov    0x4(%ebx),%eax
    2b03:	89 45 c4             	mov    %eax,-0x3c(%ebp)
    2b06:	8b 43 08             	mov    0x8(%ebx),%eax
    2b09:	89 45 c8             	mov    %eax,-0x38(%ebp)
    2b0c:	8b 43 0c             	mov    0xc(%ebx),%eax
    2b0f:	89 45 cc             	mov    %eax,-0x34(%ebp)
    2b12:	8b 43 10             	mov    0x10(%ebx),%eax
    2b15:	89 45 d0             	mov    %eax,-0x30(%ebp)
    2b18:	8b 43 14             	mov    0x14(%ebx),%eax
    2b1b:	89 45 d4             	mov    %eax,-0x2c(%ebp)
    2b1e:	8b 43 18             	mov    0x18(%ebx),%eax
    2b21:	89 45 d8             	mov    %eax,-0x28(%ebp)
    2b24:	8b 43 1c             	mov    0x1c(%ebx),%eax
    2b27:	89 45 dc             	mov    %eax,-0x24(%ebp)
    2b2a:	8b 43 20             	mov    0x20(%ebx),%eax
    2b2d:	89 45 e0             	mov    %eax,-0x20(%ebp)
    2b30:	8b 43 24             	mov    0x24(%ebx),%eax
    2b33:	89 45 e4             	mov    %eax,-0x1c(%ebp)
    2b36:	8b 43 28             	mov    0x28(%ebx),%eax
    2b39:	89 45 e8             	mov    %eax,-0x18(%ebp)
    2b3c:	8b 43 2c             	mov    0x2c(%ebx),%eax
    2b3f:	89 45 f0             	mov    %eax,-0x10(%ebp)
    2b42:	8b 43 30             	mov    0x30(%ebx),%eax
    2b45:	89 45 f4             	mov    %eax,-0xc(%ebp)
    2b48:	8d 45 c0             	lea    -0x40(%ebp),%eax
    2b4b:	6a 00                	push   $0x0
    2b4d:	c6 45 ec 00          	movb   $0x0,-0x14(%ebp)
    2b51:	68 ff 00 00 00       	push   $0xff
    2b56:	50                   	push   %eax
    2b57:	e8 f4 1b 00 00       	call   4750 <inet_send@plt>
    2b5c:	83 c4 10             	add    $0x10,%esp
    2b5f:	85 c0                	test   %eax,%eax
    2b61:	74 18                	je     2b7b <udp_transmit_pdu+0x9b>
    2b63:	89 45 b4             	mov    %eax,-0x4c(%ebp)
    2b66:	50                   	push   %eax
    2b67:	68 5a 40 00 00       	push   $0x405a
    2b6c:	6a 01                	push   $0x1
    2b6e:	6a ff                	push   $0xffffffff
    2b70:	e8 bb 1b 00 00       	call   4730 <log_msg@plt>
    2b75:	83 c4 10             	add    $0x10,%esp
    2b78:	8b 45 b4             	mov    -0x4c(%ebp),%eax
    2b7b:	8b 5d fc             	mov    -0x4(%ebp),%ebx
    2b7e:	c9                   	leave  
    2b7f:	c3                   	ret    

00002b80 <udp_inet_init>:
    2b80:	55                   	push   %ebp
    2b81:	89 e5                	mov    %esp,%ebp
    2b83:	83 ec 0c             	sub    $0xc,%esp
    2b86:	68 72 40 00 00       	push   $0x4072
    2b8b:	6a 04                	push   $0x4
    2b8d:	6a ff                	push   $0xffffffff
    2b8f:	e8 9c 1b 00 00       	call   4730 <log_msg@plt>
    2b94:	5a                   	pop    %edx
    2b95:	59                   	pop    %ecx
    2b96:	68 98 61 00 00       	push   $0x6198
    2b9b:	6a 11                	push   $0x11
    2b9d:	e8 9e 1b 00 00       	call   4740 <inet_init@plt>
    2ba2:	83 c4 10             	add    $0x10,%esp
    2ba5:	85 c0                	test   %eax,%eax
    2ba7:	75 07                	jne    2bb0 <udp_inet_init+0x30>
    2ba9:	c9                   	leave  
    2baa:	c3                   	ret    
    2bab:	90                   	nop
    2bac:	8d 74 26 00          	lea    0x0(%esi,%eiz,1),%esi
    2bb0:	50                   	push   %eax
    2bb1:	68 b0 3f 00 00       	push   $0x3fb0
    2bb6:	6a 01                	push   $0x1
    2bb8:	6a ff                	push   $0xffffffff
    2bba:	e8 71 1b 00 00       	call   4730 <log_msg@plt>
    2bbf:	83 c4 10             	add    $0x10,%esp
    2bc2:	83 c8 ff             	or     $0xffffffff,%eax
    2bc5:	c9                   	leave  
    2bc6:	c3                   	ret    
    2bc7:	66 90                	xchg   %ax,%ax
    2bc9:	66 90                	xchg   %ax,%ax
    2bcb:	66 90                	xchg   %ax,%ax
    2bcd:	66 90                	xchg   %ax,%ax
    2bcf:	90                   	nop

00002bd0 <amap_repla_find>:
    2bd0:	55                   	push   %ebp
    2bd1:	89 e5                	mov    %esp,%ebp
    2bd3:	57                   	push   %edi
    2bd4:	56                   	push   %esi
    2bd5:	53                   	push   %ebx
    2bd6:	83 ec 34             	sub    $0x34,%esp
    2bd9:	89 c6                	mov    %eax,%esi
    2bdb:	89 45 d0             	mov    %eax,-0x30(%ebp)
    2bde:	8d 45 e0             	lea    -0x20(%ebp),%eax
    2be1:	50                   	push   %eax
    2be2:	89 cb                	mov    %ecx,%ebx
    2be4:	52                   	push   %edx
    2be5:	89 d7                	mov    %edx,%edi
    2be7:	89 4d cc             	mov    %ecx,-0x34(%ebp)
    2bea:	89 55 d4             	mov    %edx,-0x2c(%ebp)
    2bed:	e8 ae 1b 00 00       	call   47a0 <inet_addr_format@plt>
    2bf2:	58                   	pop    %eax
    2bf3:	8d 45 e4             	lea    -0x1c(%ebp),%eax
    2bf6:	5a                   	pop    %edx
    2bf7:	50                   	push   %eax
    2bf8:	53                   	push   %ebx
    2bf9:	e8 a2 1b 00 00       	call   47a0 <inet_addr_format@plt>
    2bfe:	8b 45 e4             	mov    -0x1c(%ebp),%eax
    2c01:	59                   	pop    %ecx
    2c02:	5b                   	pop    %ebx
    2c03:	50                   	push   %eax
    2c04:	31 c0                	xor    %eax,%eax
    2c06:	66 8b 47 14          	mov    0x14(%edi),%ax
    2c0a:	50                   	push   %eax
    2c0b:	8b 45 e0             	mov    -0x20(%ebp),%eax
    2c0e:	50                   	push   %eax
    2c0f:	68 a4 40 00 00       	push   $0x40a4
    2c14:	6a 05                	push   $0x5
    2c16:	6a ff                	push   $0xffffffff
    2c18:	e8 13 1b 00 00       	call   4730 <log_msg@plt>
    2c1d:	83 c4 14             	add    $0x14,%esp
    2c20:	8b 45 e0             	mov    -0x20(%ebp),%eax
    2c23:	50                   	push   %eax
    2c24:	e8 d7 1c 00 00       	call   4900 <free@plt>
    2c29:	58                   	pop    %eax
    2c2a:	8b 45 e4             	mov    -0x1c(%ebp),%eax
    2c2d:	50                   	push   %eax
    2c2e:	e8 cd 1c 00 00       	call   4900 <free@plt>
    2c33:	8b 5e 04             	mov    0x4(%esi),%ebx
    2c36:	83 c4 10             	add    $0x10,%esp
    2c39:	39 f3                	cmp    %esi,%ebx
    2c3b:	75 17                	jne    2c54 <amap_repla_find+0x84>
    2c3d:	e9 ae 00 00 00       	jmp    2cf0 <amap_repla_find+0x120>
    2c42:	8d b6 00 00 00 00    	lea    0x0(%esi),%esi
    2c48:	8b 5b 04             	mov    0x4(%ebx),%ebx
    2c4b:	3b 5d d0             	cmp    -0x30(%ebp),%ebx
    2c4e:	0f 84 9c 00 00 00    	je     2cf0 <amap_repla_find+0x120>
    2c54:	8d 73 08             	lea    0x8(%ebx),%esi
    2c57:	8d 45 e0             	lea    -0x20(%ebp),%eax
    2c5a:	51                   	push   %ecx
    2c5b:	8d 7b 20             	lea    0x20(%ebx),%edi
    2c5e:	51                   	push   %ecx
    2c5f:	50                   	push   %eax
    2c60:	56                   	push   %esi
    2c61:	e8 3a 1b 00 00       	call   47a0 <inet_addr_format@plt>
    2c66:	58                   	pop    %eax
    2c67:	8d 45 e4             	lea    -0x1c(%ebp),%eax
    2c6a:	5a                   	pop    %edx
    2c6b:	50                   	push   %eax
    2c6c:	57                   	push   %edi
    2c6d:	e8 2e 1b 00 00       	call   47a0 <inet_addr_format@plt>
    2c72:	59                   	pop    %ecx
    2c73:	58                   	pop    %eax
    2c74:	8b 45 e4             	mov    -0x1c(%ebp),%eax
    2c77:	50                   	push   %eax
    2c78:	31 c0                	xor    %eax,%eax
    2c7a:	66 8b 43 1c          	mov    0x1c(%ebx),%ax
    2c7e:	50                   	push   %eax
    2c7f:	8b 45 e0             	mov    -0x20(%ebp),%eax
    2c82:	50                   	push   %eax
    2c83:	68 cc 40 00 00       	push   $0x40cc
    2c88:	6a 05                	push   $0x5
    2c8a:	6a ff                	push   $0xffffffff
    2c8c:	e8 9f 1a 00 00       	call   4730 <log_msg@plt>
    2c91:	83 c4 14             	add    $0x14,%esp
    2c94:	8b 45 e0             	mov    -0x20(%ebp),%eax
    2c97:	50                   	push   %eax
    2c98:	e8 63 1c 00 00       	call   4900 <free@plt>
    2c9d:	58                   	pop    %eax
    2c9e:	8b 45 e4             	mov    -0x1c(%ebp),%eax
    2ca1:	50                   	push   %eax
    2ca2:	e8 59 1c 00 00       	call   4900 <free@plt>
    2ca7:	8b 45 d4             	mov    -0x2c(%ebp),%eax
    2caa:	5a                   	pop    %edx
    2cab:	59                   	pop    %ecx
    2cac:	50                   	push   %eax
    2cad:	56                   	push   %esi
    2cae:	e8 7d 1b 00 00       	call   4830 <inet_addr_compare@plt>
    2cb3:	83 c4 10             	add    $0x10,%esp
    2cb6:	85 c0                	test   %eax,%eax
    2cb8:	74 8e                	je     2c48 <amap_repla_find+0x78>
    2cba:	8b 45 d4             	mov    -0x2c(%ebp),%eax
    2cbd:	8b 40 14             	mov    0x14(%eax),%eax
    2cc0:	66 39 43 1c          	cmp    %ax,0x1c(%ebx)
    2cc4:	75 82                	jne    2c48 <amap_repla_find+0x78>
    2cc6:	8b 55 cc             	mov    -0x34(%ebp),%edx
    2cc9:	50                   	push   %eax
    2cca:	50                   	push   %eax
    2ccb:	52                   	push   %edx
    2ccc:	57                   	push   %edi
    2ccd:	e8 5e 1b 00 00       	call   4830 <inet_addr_compare@plt>
    2cd2:	83 c4 10             	add    $0x10,%esp
    2cd5:	85 c0                	test   %eax,%eax
    2cd7:	0f 84 6b ff ff ff    	je     2c48 <amap_repla_find+0x78>
    2cdd:	8b 45 08             	mov    0x8(%ebp),%eax
    2ce0:	89 18                	mov    %ebx,(%eax)
    2ce2:	8d 65 f4             	lea    -0xc(%ebp),%esp
    2ce5:	31 c0                	xor    %eax,%eax
    2ce7:	5b                   	pop    %ebx
    2ce8:	5e                   	pop    %esi
    2ce9:	5f                   	pop    %edi
    2cea:	5d                   	pop    %ebp
    2ceb:	c3                   	ret    
    2cec:	8d 74 26 00          	lea    0x0(%esi,%eiz,1),%esi
    2cf0:	8b 45 08             	mov    0x8(%ebp),%eax
    2cf3:	c7 00 00 00 00 00    	movl   $0x0,(%eax)
    2cf9:	8d 65 f4             	lea    -0xc(%ebp),%esp
    2cfc:	83 c8 ff             	or     $0xffffffff,%eax
    2cff:	5b                   	pop    %ebx
    2d00:	5e                   	pop    %esi
    2d01:	5f                   	pop    %edi
    2d02:	5d                   	pop    %ebp
    2d03:	c3                   	ret    
    2d04:	8d b6 00 00 00 00    	lea    0x0(%esi),%esi
    2d0a:	8d bf 00 00 00 00    	lea    0x0(%edi),%edi

00002d10 <amap_create>:
    2d10:	55                   	push   %ebp
    2d11:	89 e5                	mov    %esp,%ebp
    2d13:	53                   	push   %ebx
    2d14:	83 ec 18             	sub    $0x18,%esp
    2d17:	68 2c 42 00 00       	push   $0x422c
    2d1c:	6a 05                	push   $0x5
    2d1e:	6a ff                	push   $0xffffffff
    2d20:	e8 0b 1a 00 00       	call   4730 <log_msg@plt>
    2d25:	5a                   	pop    %edx
    2d26:	59                   	pop    %ecx
    2d27:	6a 1c                	push   $0x1c
    2d29:	6a 01                	push   $0x1
    2d2b:	e8 50 1a 00 00       	call   4780 <calloc@plt>
    2d30:	83 c4 10             	add    $0x10,%esp
    2d33:	85 c0                	test   %eax,%eax
    2d35:	74 59                	je     2d90 <amap_create+0x80>
    2d37:	83 ec 0c             	sub    $0xc,%esp
    2d3a:	89 c3                	mov    %eax,%ebx
    2d3c:	8d 40 18             	lea    0x18(%eax),%eax
    2d3f:	50                   	push   %eax
    2d40:	e8 1b 0a 00 00       	call   3760 <portrng_create>
    2d45:	83 c4 10             	add    $0x10,%esp
    2d48:	85 c0                	test   %eax,%eax
    2d4a:	74 1c                	je     2d68 <amap_create+0x58>
    2d4c:	83 f8 fe             	cmp    $0xfffffffe,%eax
    2d4f:	75 46                	jne    2d97 <amap_create+0x87>
    2d51:	83 ec 0c             	sub    $0xc,%esp
    2d54:	89 45 f4             	mov    %eax,-0xc(%ebp)
    2d57:	53                   	push   %ebx
    2d58:	e8 a3 1b 00 00       	call   4900 <free@plt>
    2d5d:	8b 45 f4             	mov    -0xc(%ebp),%eax
    2d60:	83 c4 10             	add    $0x10,%esp
    2d63:	8b 5d fc             	mov    -0x4(%ebp),%ebx
    2d66:	c9                   	leave  
    2d67:	c3                   	ret    
    2d68:	8d 53 08             	lea    0x8(%ebx),%edx
    2d6b:	89 1b                	mov    %ebx,(%ebx)
    2d6d:	89 53 08             	mov    %edx,0x8(%ebx)
    2d70:	89 53 0c             	mov    %edx,0xc(%ebx)
    2d73:	8d 53 10             	lea    0x10(%ebx),%edx
    2d76:	89 5b 04             	mov    %ebx,0x4(%ebx)
    2d79:	89 53 10             	mov    %edx,0x10(%ebx)
    2d7c:	89 53 14             	mov    %edx,0x14(%ebx)
    2d7f:	8b 55 08             	mov    0x8(%ebp),%edx
    2d82:	89 1a                	mov    %ebx,(%edx)
    2d84:	8b 5d fc             	mov    -0x4(%ebp),%ebx
    2d87:	c9                   	leave  
    2d88:	c3                   	ret    
    2d89:	8d b4 26 00 00 00 00 	lea    0x0(%esi,%eiz,1),%esi
    2d90:	b8 fe ff ff ff       	mov    $0xfffffffe,%eax
    2d95:	eb ed                	jmp    2d84 <amap_create+0x74>
    2d97:	50                   	push   %eax
    2d98:	6a 4f                	push   $0x4f
    2d9a:	68 3a 42 00 00       	push   $0x423a
    2d9f:	68 7e 3a 00 00       	push   $0x3a7e
    2da4:	e8 c7 19 00 00       	call   4770 <assert_abort@plt>
    2da9:	8d b4 26 00 00 00 00 	lea    0x0(%esi,%eiz,1),%esi

00002db0 <amap_destroy>:
    2db0:	55                   	push   %ebp
    2db1:	89 e5                	mov    %esp,%ebp
    2db3:	53                   	push   %ebx
    2db4:	83 ec 08             	sub    $0x8,%esp
    2db7:	8b 5d 08             	mov    0x8(%ebp),%ebx
    2dba:	68 45 42 00 00       	push   $0x4245
    2dbf:	6a 05                	push   $0x5
    2dc1:	6a ff                	push   $0xffffffff
    2dc3:	e8 68 19 00 00       	call   4730 <log_msg@plt>
    2dc8:	89 5d 08             	mov    %ebx,0x8(%ebp)
    2dcb:	83 c4 10             	add    $0x10,%esp
    2dce:	8b 5d fc             	mov    -0x4(%ebp),%ebx
    2dd1:	c9                   	leave  
    2dd2:	e9 29 1b 00 00       	jmp    4900 <free@plt>
    2dd7:	89 f6                	mov    %esi,%esi
    2dd9:	8d bc 27 00 00 00 00 	lea    0x0(%edi,%eiz,1),%edi

00002de0 <amap_insert>:
    2de0:	55                   	push   %ebp
    2de1:	89 e5                	mov    %esp,%ebp
    2de3:	57                   	push   %edi
    2de4:	56                   	push   %esi
    2de5:	53                   	push   %ebx
    2de6:	81 ec 90 00 00 00    	sub    $0x90,%esp
    2dec:	8d 7d 80             	lea    -0x80(%ebp),%edi
    2def:	8b 5d 0c             	mov    0xc(%ebp),%ebx
    2df2:	68 54 42 00 00       	push   $0x4254
    2df7:	89 de                	mov    %ebx,%esi
    2df9:	6a 05                	push   $0x5
    2dfb:	6a ff                	push   $0xffffffff
    2dfd:	e8 2e 19 00 00       	call   4730 <log_msg@plt>
    2e02:	b9 0d 00 00 00       	mov    $0xd,%ecx
    2e07:	f3 a5                	rep movsl %ds:(%esi),%es:(%edi)
    2e09:	8d 73 1c             	lea    0x1c(%ebx),%esi
    2e0c:	89 34 24             	mov    %esi,(%esp)
    2e0f:	e8 ac 1a 00 00       	call   48c0 <inet_addr_is_any@plt>
    2e14:	83 c4 10             	add    $0x10,%esp
    2e17:	85 c0                	test   %eax,%eax
    2e19:	75 17                	jne    2e32 <amap_insert+0x52>
    2e1b:	83 ec 0c             	sub    $0xc,%esp
    2e1e:	83 c3 04             	add    $0x4,%ebx
    2e21:	53                   	push   %ebx
    2e22:	e8 99 1a 00 00       	call   48c0 <inet_addr_is_any@plt>
    2e27:	83 c4 10             	add    $0x10,%esp
    2e2a:	85 c0                	test   %eax,%eax
    2e2c:	0f 85 ce 01 00 00    	jne    3000 <amap_insert+0x220>
    2e32:	53                   	push   %ebx
    2e33:	68 54 41 00 00       	push   $0x4154
    2e38:	6a 05                	push   $0x5
    2e3a:	6a ff                	push   $0xffffffff
    2e3c:	8d 5d 84             	lea    -0x7c(%ebp),%ebx
    2e3f:	e8 ec 18 00 00       	call   4730 <log_msg@plt>
    2e44:	83 c4 10             	add    $0x10,%esp
    2e47:	83 ec 0c             	sub    $0xc,%esp
    2e4a:	8d 45 9c             	lea    -0x64(%ebp),%eax
    2e4d:	50                   	push   %eax
    2e4e:	e8 6d 1a 00 00       	call   48c0 <inet_addr_is_any@plt>
    2e53:	8b 75 b0             	mov    -0x50(%ebp),%esi
    2e56:	85 c0                	test   %eax,%eax
    2e58:	89 1c 24             	mov    %ebx,(%esp)
    2e5b:	0f 94 85 74 ff ff ff 	sete   -0x8c(%ebp)
    2e62:	66 85 f6             	test   %si,%si
    2e65:	89 c7                	mov    %eax,%edi
    2e67:	0f 95 85 73 ff ff ff 	setne  -0x8d(%ebp)
    2e6e:	e8 4d 1a 00 00       	call   48c0 <inet_addr_is_any@plt>
    2e73:	8b 55 80             	mov    -0x80(%ebp),%edx
    2e76:	83 c4 10             	add    $0x10,%esp
    2e79:	85 c0                	test   %eax,%eax
    2e7b:	0f 94 c1             	sete   %cl
    2e7e:	85 d2                	test   %edx,%edx
    2e80:	0f 95 85 72 ff ff ff 	setne  -0x8e(%ebp)
    2e87:	80 bd 74 ff ff ff 00 	cmpb   $0x0,-0x8c(%ebp)
    2e8e:	74 58                	je     2ee8 <amap_insert+0x108>
    2e90:	80 bd 73 ff ff ff 00 	cmpb   $0x0,-0x8d(%ebp)
    2e97:	74 4f                	je     2ee8 <amap_insert+0x108>
    2e99:	85 d2                	test   %edx,%edx
    2e9b:	75 08                	jne    2ea5 <amap_insert+0xc5>
    2e9d:	84 c9                	test   %cl,%cl
    2e9f:	0f 85 ab 01 00 00    	jne    3050 <amap_insert+0x270>
    2ea5:	50                   	push   %eax
    2ea6:	31 c0                	xor    %eax,%eax
    2ea8:	8a 85 72 ff ff ff    	mov    -0x8e(%ebp),%al
    2eae:	50                   	push   %eax
    2eaf:	31 c0                	xor    %eax,%eax
    2eb1:	88 c8                	mov    %cl,%al
    2eb3:	50                   	push   %eax
    2eb4:	31 c0                	xor    %eax,%eax
    2eb6:	8a 85 73 ff ff ff    	mov    -0x8d(%ebp),%al
    2ebc:	50                   	push   %eax
    2ebd:	31 c0                	xor    %eax,%eax
    2ebf:	8a 85 74 ff ff ff    	mov    -0x8c(%ebp),%al
    2ec5:	50                   	push   %eax
    2ec6:	68 9c 41 00 00       	push   $0x419c
    2ecb:	6a 05                	push   $0x5
    2ecd:	6a ff                	push   $0xffffffff
    2ecf:	e8 5c 18 00 00       	call   4730 <log_msg@plt>
    2ed4:	83 c4 20             	add    $0x20,%esp
    2ed7:	b8 f2 ff ff ff       	mov    $0xfffffff2,%eax
    2edc:	e9 16 01 00 00       	jmp    2ff7 <amap_insert+0x217>
    2ee1:	8d b4 26 00 00 00 00 	lea    0x0(%esi,%eiz,1),%esi
    2ee8:	85 ff                	test   %edi,%edi
    2eea:	74 b9                	je     2ea5 <amap_insert+0xc5>
    2eec:	66 85 f6             	test   %si,%si
    2eef:	75 b4                	jne    2ea5 <amap_insert+0xc5>
    2ef1:	85 d2                	test   %edx,%edx
    2ef3:	0f 94 c2             	sete   %dl
    2ef6:	84 c9                	test   %cl,%cl
    2ef8:	0f 84 82 00 00 00    	je     2f80 <amap_insert+0x1a0>
    2efe:	84 d2                	test   %dl,%dl
    2f00:	74 7e                	je     2f80 <amap_insert+0x1a0>
    2f02:	50                   	push   %eax
    2f03:	68 76 42 00 00       	push   $0x4276
    2f08:	6a 05                	push   $0x5
    2f0a:	6a ff                	push   $0xffffffff
    2f0c:	e8 1f 18 00 00       	call   4730 <log_msg@plt>
    2f11:	8b 45 08             	mov    0x8(%ebp),%eax
    2f14:	8b 78 0c             	mov    0xc(%eax),%edi
    2f17:	8d 70 08             	lea    0x8(%eax),%esi
    2f1a:	83 c4 10             	add    $0x10,%esp
    2f1d:	39 f7                	cmp    %esi,%edi
    2f1f:	75 12                	jne    2f33 <amap_insert+0x153>
    2f21:	e9 2a 02 00 00       	jmp    3150 <amap_insert+0x370>
    2f26:	66 90                	xchg   %ax,%ax
    2f28:	8b 7f 04             	mov    0x4(%edi),%edi
    2f2b:	39 f7                	cmp    %esi,%edi
    2f2d:	0f 84 1d 02 00 00    	je     3150 <amap_insert+0x370>
    2f33:	50                   	push   %eax
    2f34:	50                   	push   %eax
    2f35:	8d 47 08             	lea    0x8(%edi),%eax
    2f38:	53                   	push   %ebx
    2f39:	50                   	push   %eax
    2f3a:	e8 f1 18 00 00       	call   4830 <inet_addr_compare@plt>
    2f3f:	83 c4 10             	add    $0x10,%esp
    2f42:	85 c0                	test   %eax,%eax
    2f44:	74 e2                	je     2f28 <amap_insert+0x148>
    2f46:	89 fb                	mov    %edi,%ebx
    2f48:	83 ec 0c             	sub    $0xc,%esp
    2f4b:	8d 45 cc             	lea    -0x34(%ebp),%eax
    2f4e:	8d 7d b4             	lea    -0x4c(%ebp),%edi
    2f51:	b9 0d 00 00 00       	mov    $0xd,%ecx
    2f56:	8d 75 80             	lea    -0x80(%ebp),%esi
    2f59:	8b 55 10             	mov    0x10(%ebp),%edx
    2f5c:	f3 a5                	rep movsl %ds:(%esi),%es:(%edi)
    2f5e:	50                   	push   %eax
    2f5f:	8b 45 14             	mov    0x14(%ebp),%eax
    2f62:	50                   	push   %eax
    2f63:	31 c0                	xor    %eax,%eax
    2f65:	52                   	push   %edx
    2f66:	66 8b 45 98          	mov    -0x68(%ebp),%ax
    2f6a:	8b 4b 1c             	mov    0x1c(%ebx),%ecx
    2f6d:	50                   	push   %eax
    2f6e:	51                   	push   %ecx
    2f6f:	e8 7c 08 00 00       	call   37f0 <portrng_alloc>
    2f74:	8d 75 b4             	lea    -0x4c(%ebp),%esi
    2f77:	83 c4 20             	add    $0x20,%esp
    2f7a:	85 c0                	test   %eax,%eax
    2f7c:	74 6f                	je     2fed <amap_insert+0x20d>
    2f7e:	eb 77                	jmp    2ff7 <amap_insert+0x217>
    2f80:	85 c0                	test   %eax,%eax
    2f82:	0f 95 c0             	setne  %al
    2f85:	80 bd 72 ff ff ff 00 	cmpb   $0x0,-0x8e(%ebp)
    2f8c:	74 08                	je     2f96 <amap_insert+0x1b6>
    2f8e:	84 c0                	test   %al,%al
    2f90:	0f 85 32 01 00 00    	jne    30c8 <amap_insert+0x2e8>
    2f96:	84 d2                	test   %dl,%dl
    2f98:	0f 84 07 ff ff ff    	je     2ea5 <amap_insert+0xc5>
    2f9e:	84 c0                	test   %al,%al
    2fa0:	0f 84 ff fe ff ff    	je     2ea5 <amap_insert+0xc5>
    2fa6:	8d 7d b4             	lea    -0x4c(%ebp),%edi
    2fa9:	52                   	push   %edx
    2faa:	8d 75 80             	lea    -0x80(%ebp),%esi
    2fad:	68 9e 42 00 00       	push   $0x429e
    2fb2:	6a 05                	push   $0x5
    2fb4:	6a ff                	push   $0xffffffff
    2fb6:	e8 75 17 00 00       	call   4730 <log_msg@plt>
    2fbb:	8d 45 cc             	lea    -0x34(%ebp),%eax
    2fbe:	b9 0d 00 00 00       	mov    $0xd,%ecx
    2fc3:	8b 5d 10             	mov    0x10(%ebp),%ebx
    2fc6:	f3 a5                	rep movsl %ds:(%esi),%es:(%edi)
    2fc8:	89 04 24             	mov    %eax,(%esp)
    2fcb:	31 c0                	xor    %eax,%eax
    2fcd:	66 8b 45 98          	mov    -0x68(%ebp),%ax
    2fd1:	8b 4d 14             	mov    0x14(%ebp),%ecx
    2fd4:	51                   	push   %ecx
    2fd5:	53                   	push   %ebx
    2fd6:	50                   	push   %eax
    2fd7:	8b 45 08             	mov    0x8(%ebp),%eax
    2fda:	8d 75 b4             	lea    -0x4c(%ebp),%esi
    2fdd:	8b 78 18             	mov    0x18(%eax),%edi
    2fe0:	57                   	push   %edi
    2fe1:	e8 0a 08 00 00       	call   37f0 <portrng_alloc>
    2fe6:	83 c4 20             	add    $0x20,%esp
    2fe9:	85 c0                	test   %eax,%eax
    2feb:	75 0a                	jne    2ff7 <amap_insert+0x217>
    2fed:	b9 0d 00 00 00       	mov    $0xd,%ecx
    2ff2:	8b 7d 18             	mov    0x18(%ebp),%edi
    2ff5:	f3 a5                	rep movsl %ds:(%esi),%es:(%edi)
    2ff7:	8d 65 f4             	lea    -0xc(%ebp),%esp
    2ffa:	5b                   	pop    %ebx
    2ffb:	5e                   	pop    %esi
    2ffc:	5f                   	pop    %edi
    2ffd:	5d                   	pop    %ebp
    2ffe:	c3                   	ret    
    2fff:	90                   	nop
    3000:	57                   	push   %edi
    3001:	68 00 41 00 00       	push   $0x4100
    3006:	6a 05                	push   $0x5
    3008:	6a ff                	push   $0xffffffff
    300a:	e8 21 17 00 00       	call   4730 <log_msg@plt>
    300f:	83 c4 0c             	add    $0xc,%esp
    3012:	8d 5d 84             	lea    -0x7c(%ebp),%ebx
    3015:	53                   	push   %ebx
    3016:	6a 00                	push   $0x0
    3018:	56                   	push   %esi
    3019:	e8 a2 16 00 00       	call   46c0 <inet_get_srcaddr@plt>
    301e:	83 c4 10             	add    $0x10,%esp
    3021:	85 c0                	test   %eax,%eax
    3023:	0f 84 1e fe ff ff    	je     2e47 <amap_insert+0x67>
    3029:	56                   	push   %esi
    302a:	68 28 41 00 00       	push   $0x4128
    302f:	6a 05                	push   $0x5
    3031:	6a ff                	push   $0xffffffff
    3033:	89 85 74 ff ff ff    	mov    %eax,-0x8c(%ebp)
    3039:	e8 f2 16 00 00       	call   4730 <log_msg@plt>
    303e:	83 c4 10             	add    $0x10,%esp
    3041:	8b 85 74 ff ff ff    	mov    -0x8c(%ebp),%eax
    3047:	eb ae                	jmp    2ff7 <amap_insert+0x217>
    3049:	8d b4 26 00 00 00 00 	lea    0x0(%esi,%eiz,1),%esi
    3050:	51                   	push   %ecx
    3051:	68 62 42 00 00       	push   $0x4262
    3056:	6a 05                	push   $0x5
    3058:	6a ff                	push   $0xffffffff
    305a:	e8 d1 16 00 00       	call   4730 <log_msg@plt>
    305f:	8d 85 7c ff ff ff    	lea    -0x84(%ebp),%eax
    3065:	89 04 24             	mov    %eax,(%esp)
    3068:	89 d9                	mov    %ebx,%ecx
    306a:	8d 55 9c             	lea    -0x64(%ebp),%edx
    306d:	8b 45 08             	mov    0x8(%ebp),%eax
    3070:	e8 5b fb ff ff       	call   2bd0 <amap_repla_find>
    3075:	83 c4 10             	add    $0x10,%esp
    3078:	85 c0                	test   %eax,%eax
    307a:	0f 85 38 01 00 00    	jne    31b8 <amap_insert+0x3d8>
    3080:	8b 9d 7c ff ff ff    	mov    -0x84(%ebp),%ebx
    3086:	83 ec 0c             	sub    $0xc,%esp
    3089:	8d 45 cc             	lea    -0x34(%ebp),%eax
    308c:	8d 7d b4             	lea    -0x4c(%ebp),%edi
    308f:	b9 0d 00 00 00       	mov    $0xd,%ecx
    3094:	8d 75 80             	lea    -0x80(%ebp),%esi
    3097:	f3 a5                	rep movsl %ds:(%esi),%es:(%edi)
    3099:	50                   	push   %eax
    309a:	8b 45 14             	mov    0x14(%ebp),%eax
    309d:	50                   	push   %eax
    309e:	8b 45 10             	mov    0x10(%ebp),%eax
    30a1:	50                   	push   %eax
    30a2:	31 c0                	xor    %eax,%eax
    30a4:	66 8b 45 98          	mov    -0x68(%ebp),%ax
    30a8:	8d 75 b4             	lea    -0x4c(%ebp),%esi
    30ab:	50                   	push   %eax
    30ac:	8b 43 34             	mov    0x34(%ebx),%eax
    30af:	50                   	push   %eax
    30b0:	e8 3b 07 00 00       	call   37f0 <portrng_alloc>
    30b5:	83 c4 20             	add    $0x20,%esp
    30b8:	85 c0                	test   %eax,%eax
    30ba:	0f 84 2d ff ff ff    	je     2fed <amap_insert+0x20d>
    30c0:	e9 32 ff ff ff       	jmp    2ff7 <amap_insert+0x217>
    30c5:	8d 76 00             	lea    0x0(%esi),%esi
    30c8:	50                   	push   %eax
    30c9:	68 8a 42 00 00       	push   $0x428a
    30ce:	6a 05                	push   $0x5
    30d0:	6a ff                	push   $0xffffffff
    30d2:	e8 59 16 00 00       	call   4730 <log_msg@plt>
    30d7:	8b 45 08             	mov    0x8(%ebp),%eax
    30da:	8b 55 08             	mov    0x8(%ebp),%edx
    30dd:	8b 40 14             	mov    0x14(%eax),%eax
    30e0:	83 c4 10             	add    $0x10,%esp
    30e3:	8b 7d 80             	mov    -0x80(%ebp),%edi
    30e6:	8d 72 10             	lea    0x10(%edx),%esi
    30e9:	39 f0                	cmp    %esi,%eax
    30eb:	75 16                	jne    3103 <amap_insert+0x323>
    30ed:	e9 56 01 00 00       	jmp    3248 <amap_insert+0x468>
    30f2:	8d b6 00 00 00 00    	lea    0x0(%esi),%esi
    30f8:	8b 40 04             	mov    0x4(%eax),%eax
    30fb:	39 f0                	cmp    %esi,%eax
    30fd:	0f 84 45 01 00 00    	je     3248 <amap_insert+0x468>
    3103:	3b 78 08             	cmp    0x8(%eax),%edi
    3106:	75 f0                	jne    30f8 <amap_insert+0x318>
    3108:	89 c3                	mov    %eax,%ebx
    310a:	83 ec 0c             	sub    $0xc,%esp
    310d:	8d 45 cc             	lea    -0x34(%ebp),%eax
    3110:	8d 7d b4             	lea    -0x4c(%ebp),%edi
    3113:	b9 0d 00 00 00       	mov    $0xd,%ecx
    3118:	8d 75 80             	lea    -0x80(%ebp),%esi
    311b:	f3 a5                	rep movsl %ds:(%esi),%es:(%edi)
    311d:	50                   	push   %eax
    311e:	8b 45 14             	mov    0x14(%ebp),%eax
    3121:	50                   	push   %eax
    3122:	8b 45 10             	mov    0x10(%ebp),%eax
    3125:	50                   	push   %eax
    3126:	31 c0                	xor    %eax,%eax
    3128:	66 8b 45 98          	mov    -0x68(%ebp),%ax
    312c:	8d 75 b4             	lea    -0x4c(%ebp),%esi
    312f:	50                   	push   %eax
    3130:	8b 43 0c             	mov    0xc(%ebx),%eax
    3133:	50                   	push   %eax
    3134:	e8 b7 06 00 00       	call   37f0 <portrng_alloc>
    3139:	83 c4 20             	add    $0x20,%esp
    313c:	85 c0                	test   %eax,%eax
    313e:	0f 84 a9 fe ff ff    	je     2fed <amap_insert+0x20d>
    3144:	e9 ae fe ff ff       	jmp    2ff7 <amap_insert+0x217>
    3149:	8d b4 26 00 00 00 00 	lea    0x0(%esi,%eiz,1),%esi
    3150:	50                   	push   %eax
    3151:	50                   	push   %eax
    3152:	6a 20                	push   $0x20
    3154:	6a 01                	push   $0x1
    3156:	e8 25 16 00 00       	call   4780 <calloc@plt>
    315b:	83 c4 10             	add    $0x10,%esp
    315e:	89 c3                	mov    %eax,%ebx
    3160:	85 c0                	test   %eax,%eax
    3162:	0f 84 bf 00 00 00    	je     3227 <amap_insert+0x447>
    3168:	83 ec 0c             	sub    $0xc,%esp
    316b:	8d 40 1c             	lea    0x1c(%eax),%eax
    316e:	50                   	push   %eax
    316f:	e8 ec 05 00 00       	call   3760 <portrng_create>
    3174:	83 c4 10             	add    $0x10,%esp
    3177:	85 c0                	test   %eax,%eax
    3179:	0f 85 b2 00 00 00    	jne    3231 <amap_insert+0x451>
    317f:	8b 45 84             	mov    -0x7c(%ebp),%eax
    3182:	89 73 04             	mov    %esi,0x4(%ebx)
    3185:	89 43 08             	mov    %eax,0x8(%ebx)
    3188:	8b 45 88             	mov    -0x78(%ebp),%eax
    318b:	89 43 0c             	mov    %eax,0xc(%ebx)
    318e:	8b 45 8c             	mov    -0x74(%ebp),%eax
    3191:	89 43 10             	mov    %eax,0x10(%ebx)
    3194:	8b 45 90             	mov    -0x70(%ebp),%eax
    3197:	89 43 14             	mov    %eax,0x14(%ebx)
    319a:	8b 45 94             	mov    -0x6c(%ebp),%eax
    319d:	89 43 18             	mov    %eax,0x18(%ebx)
    31a0:	8b 45 08             	mov    0x8(%ebp),%eax
    31a3:	8b 40 08             	mov    0x8(%eax),%eax
    31a6:	89 03                	mov    %eax,(%ebx)
    31a8:	89 58 04             	mov    %ebx,0x4(%eax)
    31ab:	8b 45 08             	mov    0x8(%ebp),%eax
    31ae:	89 58 08             	mov    %ebx,0x8(%eax)
    31b1:	e9 92 fd ff ff       	jmp    2f48 <amap_insert+0x168>
    31b6:	66 90                	xchg   %ax,%ax
    31b8:	52                   	push   %edx
    31b9:	52                   	push   %edx
    31ba:	6a 38                	push   $0x38
    31bc:	6a 01                	push   $0x1
    31be:	e8 bd 15 00 00       	call   4780 <calloc@plt>
    31c3:	83 c4 10             	add    $0x10,%esp
    31c6:	89 c3                	mov    %eax,%ebx
    31c8:	85 c0                	test   %eax,%eax
    31ca:	74 5b                	je     3227 <amap_insert+0x447>
    31cc:	83 ec 0c             	sub    $0xc,%esp
    31cf:	8d 40 34             	lea    0x34(%eax),%eax
    31d2:	50                   	push   %eax
    31d3:	e8 88 05 00 00       	call   3760 <portrng_create>
    31d8:	83 c4 10             	add    $0x10,%esp
    31db:	85 c0                	test   %eax,%eax
    31dd:	75 52                	jne    3231 <amap_insert+0x451>
    31df:	8b 45 84             	mov    -0x7c(%ebp),%eax
    31e2:	8d 7b 08             	lea    0x8(%ebx),%edi
    31e5:	b9 06 00 00 00       	mov    $0x6,%ecx
    31ea:	8d 75 9c             	lea    -0x64(%ebp),%esi
    31ed:	f3 a5                	rep movsl %ds:(%esi),%es:(%edi)
    31ef:	89 43 20             	mov    %eax,0x20(%ebx)
    31f2:	8b 45 88             	mov    -0x78(%ebp),%eax
    31f5:	89 43 24             	mov    %eax,0x24(%ebx)
    31f8:	8b 45 8c             	mov    -0x74(%ebp),%eax
    31fb:	89 43 28             	mov    %eax,0x28(%ebx)
    31fe:	8b 45 90             	mov    -0x70(%ebp),%eax
    3201:	89 43 2c             	mov    %eax,0x2c(%ebx)
    3204:	8b 45 94             	mov    -0x6c(%ebp),%eax
    3207:	89 43 30             	mov    %eax,0x30(%ebx)
    320a:	8b 45 08             	mov    0x8(%ebp),%eax
    320d:	89 43 04             	mov    %eax,0x4(%ebx)
    3210:	89 9d 7c ff ff ff    	mov    %ebx,-0x84(%ebp)
    3216:	8b 00                	mov    (%eax),%eax
    3218:	89 03                	mov    %eax,(%ebx)
    321a:	89 58 04             	mov    %ebx,0x4(%eax)
    321d:	8b 45 08             	mov    0x8(%ebp),%eax
    3220:	89 18                	mov    %ebx,(%eax)
    3222:	e9 5f fe ff ff       	jmp    3086 <amap_insert+0x2a6>
    3227:	b8 fe ff ff ff       	mov    $0xfffffffe,%eax
    322c:	e9 c6 fd ff ff       	jmp    2ff7 <amap_insert+0x217>
    3231:	83 ec 0c             	sub    $0xc,%esp
    3234:	53                   	push   %ebx
    3235:	e8 c6 16 00 00       	call   4900 <free@plt>
    323a:	83 c4 10             	add    $0x10,%esp
    323d:	b8 fe ff ff ff       	mov    $0xfffffffe,%eax
    3242:	e9 b0 fd ff ff       	jmp    2ff7 <amap_insert+0x217>
    3247:	90                   	nop
    3248:	50                   	push   %eax
    3249:	50                   	push   %eax
    324a:	6a 10                	push   $0x10
    324c:	6a 01                	push   $0x1
    324e:	e8 2d 15 00 00       	call   4780 <calloc@plt>
    3253:	83 c4 10             	add    $0x10,%esp
    3256:	89 c3                	mov    %eax,%ebx
    3258:	85 c0                	test   %eax,%eax
    325a:	74 cb                	je     3227 <amap_insert+0x447>
    325c:	83 ec 0c             	sub    $0xc,%esp
    325f:	8d 40 0c             	lea    0xc(%eax),%eax
    3262:	50                   	push   %eax
    3263:	e8 f8 04 00 00       	call   3760 <portrng_create>
    3268:	83 c4 10             	add    $0x10,%esp
    326b:	85 c0                	test   %eax,%eax
    326d:	75 c2                	jne    3231 <amap_insert+0x451>
    326f:	8b 45 08             	mov    0x8(%ebp),%eax
    3272:	89 7b 08             	mov    %edi,0x8(%ebx)
    3275:	89 73 04             	mov    %esi,0x4(%ebx)
    3278:	8b 40 10             	mov    0x10(%eax),%eax
    327b:	89 03                	mov    %eax,(%ebx)
    327d:	89 58 04             	mov    %ebx,0x4(%eax)
    3280:	8b 45 08             	mov    0x8(%ebp),%eax
    3283:	89 58 10             	mov    %ebx,0x10(%eax)
    3286:	e9 7f fe ff ff       	jmp    310a <amap_insert+0x32a>
    328b:	90                   	nop
    328c:	8d 74 26 00          	lea    0x0(%esi,%eiz,1),%esi

00003290 <amap_remove>:
    3290:	55                   	push   %ebp
    3291:	89 e5                	mov    %esp,%ebp
    3293:	57                   	push   %edi
    3294:	56                   	push   %esi
    3295:	53                   	push   %ebx
    3296:	83 ec 30             	sub    $0x30,%esp
    3299:	68 b3 42 00 00       	push   $0x42b3
    329e:	6a 05                	push   $0x5
    32a0:	6a ff                	push   $0xffffffff
    32a2:	e8 89 14 00 00       	call   4730 <log_msg@plt>
    32a7:	8b 45 0c             	mov    0xc(%ebp),%eax
    32aa:	83 c0 1c             	add    $0x1c,%eax
    32ad:	89 04 24             	mov    %eax,(%esp)
    32b0:	89 45 d0             	mov    %eax,-0x30(%ebp)
    32b3:	e8 08 16 00 00       	call   48c0 <inet_addr_is_any@plt>
    32b8:	8b 55 0c             	mov    0xc(%ebp),%edx
    32bb:	8b 7a 30             	mov    0x30(%edx),%edi
    32be:	8d 5a 04             	lea    0x4(%edx),%ebx
    32c1:	85 c0                	test   %eax,%eax
    32c3:	89 1c 24             	mov    %ebx,(%esp)
    32c6:	0f 94 45 d7          	sete   -0x29(%ebp)
    32ca:	66 85 ff             	test   %di,%di
    32cd:	89 c6                	mov    %eax,%esi
    32cf:	0f 95 45 d6          	setne  -0x2a(%ebp)
    32d3:	e8 e8 15 00 00       	call   48c0 <inet_addr_is_any@plt>
    32d8:	8b 4d 0c             	mov    0xc(%ebp),%ecx
    32db:	8b 09                	mov    (%ecx),%ecx
    32dd:	83 c4 10             	add    $0x10,%esp
    32e0:	85 c0                	test   %eax,%eax
    32e2:	0f 94 c2             	sete   %dl
    32e5:	85 c9                	test   %ecx,%ecx
    32e7:	0f 95 45 d5          	setne  -0x2b(%ebp)
    32eb:	80 7d d7 00          	cmpb   $0x0,-0x29(%ebp)
    32ef:	74 4f                	je     3340 <amap_remove+0xb0>
    32f1:	80 7d d6 00          	cmpb   $0x0,-0x2a(%ebp)
    32f5:	74 49                	je     3340 <amap_remove+0xb0>
    32f7:	85 c9                	test   %ecx,%ecx
    32f9:	75 0d                	jne    3308 <amap_remove+0x78>
    32fb:	84 d2                	test   %dl,%dl
    32fd:	0f 85 45 01 00 00    	jne    3448 <amap_remove+0x1b8>
    3303:	90                   	nop
    3304:	8d 74 26 00          	lea    0x0(%esi,%eiz,1),%esi
    3308:	50                   	push   %eax
    3309:	31 c0                	xor    %eax,%eax
    330b:	8a 45 d5             	mov    -0x2b(%ebp),%al
    330e:	50                   	push   %eax
    330f:	31 c0                	xor    %eax,%eax
    3311:	88 d0                	mov    %dl,%al
    3313:	50                   	push   %eax
    3314:	31 c0                	xor    %eax,%eax
    3316:	8a 45 d6             	mov    -0x2a(%ebp),%al
    3319:	50                   	push   %eax
    331a:	31 c0                	xor    %eax,%eax
    331c:	8a 45 d7             	mov    -0x29(%ebp),%al
    331f:	50                   	push   %eax
    3320:	68 e4 41 00 00       	push   $0x41e4
    3325:	6a 05                	push   $0x5
    3327:	6a ff                	push   $0xffffffff
    3329:	e8 02 14 00 00       	call   4730 <log_msg@plt>
    332e:	83 c4 20             	add    $0x20,%esp
    3331:	8d 65 f4             	lea    -0xc(%ebp),%esp
    3334:	5b                   	pop    %ebx
    3335:	5e                   	pop    %esi
    3336:	5f                   	pop    %edi
    3337:	5d                   	pop    %ebp
    3338:	c3                   	ret    
    3339:	8d b4 26 00 00 00 00 	lea    0x0(%esi,%eiz,1),%esi
    3340:	85 f6                	test   %esi,%esi
    3342:	74 c4                	je     3308 <amap_remove+0x78>
    3344:	66 85 ff             	test   %di,%di
    3347:	75 bf                	jne    3308 <amap_remove+0x78>
    3349:	85 c9                	test   %ecx,%ecx
    334b:	0f 94 45 d0          	sete   -0x30(%ebp)
    334f:	84 d2                	test   %dl,%dl
    3351:	0f 84 a9 00 00 00    	je     3400 <amap_remove+0x170>
    3357:	80 7d d0 00          	cmpb   $0x0,-0x30(%ebp)
    335b:	0f 84 9f 00 00 00    	je     3400 <amap_remove+0x170>
    3361:	8b 45 08             	mov    0x8(%ebp),%eax
    3364:	8b 78 0c             	mov    0xc(%eax),%edi
    3367:	8d 70 08             	lea    0x8(%eax),%esi
    336a:	39 f7                	cmp    %esi,%edi
    336c:	75 15                	jne    3383 <amap_remove+0xf3>
    336e:	e9 f5 01 00 00       	jmp    3568 <amap_remove+0x2d8>
    3373:	90                   	nop
    3374:	8d 74 26 00          	lea    0x0(%esi,%eiz,1),%esi
    3378:	8b 7f 04             	mov    0x4(%edi),%edi
    337b:	39 f7                	cmp    %esi,%edi
    337d:	0f 84 e5 01 00 00    	je     3568 <amap_remove+0x2d8>
    3383:	50                   	push   %eax
    3384:	50                   	push   %eax
    3385:	8d 47 08             	lea    0x8(%edi),%eax
    3388:	53                   	push   %ebx
    3389:	50                   	push   %eax
    338a:	e8 a1 14 00 00       	call   4830 <inet_addr_compare@plt>
    338f:	83 c4 10             	add    $0x10,%esp
    3392:	85 c0                	test   %eax,%eax
    3394:	74 e2                	je     3378 <amap_remove+0xe8>
    3396:	8b 75 0c             	mov    0xc(%ebp),%esi
    3399:	50                   	push   %eax
    339a:	50                   	push   %eax
    339b:	31 c0                	xor    %eax,%eax
    339d:	66 8b 46 18          	mov    0x18(%esi),%ax
    33a1:	8b 57 1c             	mov    0x1c(%edi),%edx
    33a4:	50                   	push   %eax
    33a5:	52                   	push   %edx
    33a6:	e8 15 06 00 00       	call   39c0 <portrng_free_port>
    33ab:	8b 5f 1c             	mov    0x1c(%edi),%ebx
    33ae:	59                   	pop    %ecx
    33af:	53                   	push   %ebx
    33b0:	e8 9b 06 00 00       	call   3a50 <portrng_empty>
    33b5:	83 c4 10             	add    $0x10,%esp
    33b8:	84 c0                	test   %al,%al
    33ba:	0f 84 71 ff ff ff    	je     3331 <amap_remove+0xa1>
    33c0:	8b 17                	mov    (%edi),%edx
    33c2:	85 d2                	test   %edx,%edx
    33c4:	74 0e                	je     33d4 <amap_remove+0x144>
    33c6:	8b 47 04             	mov    0x4(%edi),%eax
    33c9:	85 c0                	test   %eax,%eax
    33cb:	74 07                	je     33d4 <amap_remove+0x144>
    33cd:	89 10                	mov    %edx,(%eax)
    33cf:	8b 17                	mov    (%edi),%edx
    33d1:	89 42 04             	mov    %eax,0x4(%edx)
    33d4:	83 ec 0c             	sub    $0xc,%esp
    33d7:	8b 47 1c             	mov    0x1c(%edi),%eax
    33da:	c7 07 00 00 00 00    	movl   $0x0,(%edi)
    33e0:	c7 47 04 00 00 00 00 	movl   $0x0,0x4(%edi)
    33e7:	50                   	push   %eax
    33e8:	e8 c3 03 00 00       	call   37b0 <portrng_destroy>
    33ed:	89 3c 24             	mov    %edi,(%esp)
    33f0:	e8 0b 15 00 00       	call   4900 <free@plt>
    33f5:	83 c4 10             	add    $0x10,%esp
    33f8:	e9 34 ff ff ff       	jmp    3331 <amap_remove+0xa1>
    33fd:	8d 76 00             	lea    0x0(%esi),%esi
    3400:	85 c0                	test   %eax,%eax
    3402:	0f 95 c0             	setne  %al
    3405:	80 7d d5 00          	cmpb   $0x0,-0x2b(%ebp)
    3409:	74 08                	je     3413 <amap_remove+0x183>
    340b:	84 c0                	test   %al,%al
    340d:	0f 85 c5 00 00 00    	jne    34d8 <amap_remove+0x248>
    3413:	80 7d d0 00          	cmpb   $0x0,-0x30(%ebp)
    3417:	0f 84 eb fe ff ff    	je     3308 <amap_remove+0x78>
    341d:	84 c0                	test   %al,%al
    341f:	0f 84 e3 fe ff ff    	je     3308 <amap_remove+0x78>
    3425:	8b 75 0c             	mov    0xc(%ebp),%esi
    3428:	31 c0                	xor    %eax,%eax
    342a:	52                   	push   %edx
    342b:	52                   	push   %edx
    342c:	66 8b 46 18          	mov    0x18(%esi),%ax
    3430:	50                   	push   %eax
    3431:	8b 45 08             	mov    0x8(%ebp),%eax
    3434:	8b 48 18             	mov    0x18(%eax),%ecx
    3437:	51                   	push   %ecx
    3438:	e8 83 05 00 00       	call   39c0 <portrng_free_port>
    343d:	83 c4 10             	add    $0x10,%esp
    3440:	8d 65 f4             	lea    -0xc(%ebp),%esp
    3443:	5b                   	pop    %ebx
    3444:	5e                   	pop    %esi
    3445:	5f                   	pop    %edi
    3446:	5d                   	pop    %ebp
    3447:	c3                   	ret    
    3448:	83 ec 0c             	sub    $0xc,%esp
    344b:	8d 45 e4             	lea    -0x1c(%ebp),%eax
    344e:	89 d9                	mov    %ebx,%ecx
    3450:	8b 55 d0             	mov    -0x30(%ebp),%edx
    3453:	50                   	push   %eax
    3454:	8b 45 08             	mov    0x8(%ebp),%eax
    3457:	e8 74 f7 ff ff       	call   2bd0 <amap_repla_find>
    345c:	83 c4 10             	add    $0x10,%esp
    345f:	85 c0                	test   %eax,%eax
    3461:	0f 85 19 01 00 00    	jne    3580 <amap_remove+0x2f0>
    3467:	8b 75 0c             	mov    0xc(%ebp),%esi
    346a:	50                   	push   %eax
    346b:	50                   	push   %eax
    346c:	31 c0                	xor    %eax,%eax
    346e:	66 8b 46 18          	mov    0x18(%esi),%ax
    3472:	50                   	push   %eax
    3473:	8b 45 e4             	mov    -0x1c(%ebp),%eax
    3476:	8b 40 34             	mov    0x34(%eax),%eax
    3479:	50                   	push   %eax
    347a:	e8 41 05 00 00       	call   39c0 <portrng_free_port>
    347f:	58                   	pop    %eax
    3480:	8b 45 e4             	mov    -0x1c(%ebp),%eax
    3483:	8b 40 34             	mov    0x34(%eax),%eax
    3486:	50                   	push   %eax
    3487:	e8 c4 05 00 00       	call   3a50 <portrng_empty>
    348c:	83 c4 10             	add    $0x10,%esp
    348f:	84 c0                	test   %al,%al
    3491:	0f 84 9a fe ff ff    	je     3331 <amap_remove+0xa1>
    3497:	8b 5d e4             	mov    -0x1c(%ebp),%ebx
    349a:	8b 13                	mov    (%ebx),%edx
    349c:	85 d2                	test   %edx,%edx
    349e:	74 0e                	je     34ae <amap_remove+0x21e>
    34a0:	8b 43 04             	mov    0x4(%ebx),%eax
    34a3:	85 c0                	test   %eax,%eax
    34a5:	74 07                	je     34ae <amap_remove+0x21e>
    34a7:	89 10                	mov    %edx,(%eax)
    34a9:	8b 13                	mov    (%ebx),%edx
    34ab:	89 42 04             	mov    %eax,0x4(%edx)
    34ae:	83 ec 0c             	sub    $0xc,%esp
    34b1:	8b 43 34             	mov    0x34(%ebx),%eax
    34b4:	c7 03 00 00 00 00    	movl   $0x0,(%ebx)
    34ba:	c7 43 04 00 00 00 00 	movl   $0x0,0x4(%ebx)
    34c1:	50                   	push   %eax
    34c2:	e8 e9 02 00 00       	call   37b0 <portrng_destroy>
    34c7:	89 1c 24             	mov    %ebx,(%esp)
    34ca:	e8 31 14 00 00       	call   4900 <free@plt>
    34cf:	83 c4 10             	add    $0x10,%esp
    34d2:	e9 5a fe ff ff       	jmp    3331 <amap_remove+0xa1>
    34d7:	90                   	nop
    34d8:	8b 45 08             	mov    0x8(%ebp),%eax
    34db:	83 c0 10             	add    $0x10,%eax
    34de:	8b 58 04             	mov    0x4(%eax),%ebx
    34e1:	39 c3                	cmp    %eax,%ebx
    34e3:	75 16                	jne    34fb <amap_remove+0x26b>
    34e5:	e9 ae 00 00 00       	jmp    3598 <amap_remove+0x308>
    34ea:	8d b6 00 00 00 00    	lea    0x0(%esi),%esi
    34f0:	8b 5b 04             	mov    0x4(%ebx),%ebx
    34f3:	39 c3                	cmp    %eax,%ebx
    34f5:	0f 84 9d 00 00 00    	je     3598 <amap_remove+0x308>
    34fb:	3b 4b 08             	cmp    0x8(%ebx),%ecx
    34fe:	75 f0                	jne    34f0 <amap_remove+0x260>
    3500:	8b 75 0c             	mov    0xc(%ebp),%esi
    3503:	31 c0                	xor    %eax,%eax
    3505:	57                   	push   %edi
    3506:	57                   	push   %edi
    3507:	66 8b 46 18          	mov    0x18(%esi),%ax
    350b:	50                   	push   %eax
    350c:	8b 43 0c             	mov    0xc(%ebx),%eax
    350f:	50                   	push   %eax
    3510:	e8 ab 04 00 00       	call   39c0 <portrng_free_port>
    3515:	58                   	pop    %eax
    3516:	8b 43 0c             	mov    0xc(%ebx),%eax
    3519:	50                   	push   %eax
    351a:	e8 31 05 00 00       	call   3a50 <portrng_empty>
    351f:	83 c4 10             	add    $0x10,%esp
    3522:	84 c0                	test   %al,%al
    3524:	0f 84 07 fe ff ff    	je     3331 <amap_remove+0xa1>
    352a:	8b 13                	mov    (%ebx),%edx
    352c:	85 d2                	test   %edx,%edx
    352e:	74 0e                	je     353e <amap_remove+0x2ae>
    3530:	8b 43 04             	mov    0x4(%ebx),%eax
    3533:	85 c0                	test   %eax,%eax
    3535:	74 07                	je     353e <amap_remove+0x2ae>
    3537:	89 10                	mov    %edx,(%eax)
    3539:	8b 13                	mov    (%ebx),%edx
    353b:	89 42 04             	mov    %eax,0x4(%edx)
    353e:	83 ec 0c             	sub    $0xc,%esp
    3541:	8b 73 0c             	mov    0xc(%ebx),%esi
    3544:	c7 03 00 00 00 00    	movl   $0x0,(%ebx)
    354a:	c7 43 04 00 00 00 00 	movl   $0x0,0x4(%ebx)
    3551:	56                   	push   %esi
    3552:	e8 59 02 00 00       	call   37b0 <portrng_destroy>
    3557:	89 1c 24             	mov    %ebx,(%esp)
    355a:	e8 a1 13 00 00       	call   4900 <free@plt>
    355f:	83 c4 10             	add    $0x10,%esp
    3562:	e9 ca fd ff ff       	jmp    3331 <amap_remove+0xa1>
    3567:	90                   	nop
    3568:	56                   	push   %esi
    3569:	68 de 42 00 00       	push   $0x42de
    356e:	6a 05                	push   $0x5
    3570:	6a ff                	push   $0xffffffff
    3572:	e8 b9 11 00 00       	call   4730 <log_msg@plt>
    3577:	83 c4 10             	add    $0x10,%esp
    357a:	e9 b2 fd ff ff       	jmp    3331 <amap_remove+0xa1>
    357f:	90                   	nop
    3580:	52                   	push   %edx
    3581:	68 c1 42 00 00       	push   $0x42c1
    3586:	6a 05                	push   $0x5
    3588:	6a ff                	push   $0xffffffff
    358a:	e8 a1 11 00 00       	call   4730 <log_msg@plt>
    358f:	83 c4 10             	add    $0x10,%esp
    3592:	e9 9a fd ff ff       	jmp    3331 <amap_remove+0xa1>
    3597:	90                   	nop
    3598:	50                   	push   %eax
    3599:	68 fb 42 00 00       	push   $0x42fb
    359e:	6a 05                	push   $0x5
    35a0:	6a ff                	push   $0xffffffff
    35a2:	e8 89 11 00 00       	call   4730 <log_msg@plt>
    35a7:	83 c4 10             	add    $0x10,%esp
    35aa:	e9 82 fd ff ff       	jmp    3331 <amap_remove+0xa1>
    35af:	90                   	nop

000035b0 <amap_find_match>:
    35b0:	55                   	push   %ebp
    35b1:	89 e5                	mov    %esp,%ebp
    35b3:	57                   	push   %edi
    35b4:	56                   	push   %esi
    35b5:	53                   	push   %ebx
    35b6:	83 ec 2c             	sub    $0x2c,%esp
    35b9:	8b 45 0c             	mov    0xc(%ebp),%eax
    35bc:	8b 18                	mov    (%eax),%ebx
    35be:	53                   	push   %ebx
    35bf:	68 18 43 00 00       	push   $0x4318
    35c4:	6a 05                	push   $0x5
    35c6:	6a ff                	push   $0xffffffff
    35c8:	e8 63 11 00 00       	call   4730 <log_msg@plt>
    35cd:	8b 45 0c             	mov    0xc(%ebp),%eax
    35d0:	8d 70 04             	lea    0x4(%eax),%esi
    35d3:	8d 50 1c             	lea    0x1c(%eax),%edx
    35d6:	8d 45 e4             	lea    -0x1c(%ebp),%eax
    35d9:	89 f1                	mov    %esi,%ecx
    35db:	89 04 24             	mov    %eax,(%esp)
    35de:	8b 45 08             	mov    0x8(%ebp),%eax
    35e1:	e8 ea f5 ff ff       	call   2bd0 <amap_repla_find>
    35e6:	83 c4 10             	add    $0x10,%esp
    35e9:	85 c0                	test   %eax,%eax
    35eb:	75 26                	jne    3613 <amap_find_match+0x63>
    35ed:	8b 4d 0c             	mov    0xc(%ebp),%ecx
    35f0:	50                   	push   %eax
    35f1:	31 c0                	xor    %eax,%eax
    35f3:	8b 55 10             	mov    0x10(%ebp),%edx
    35f6:	66 8b 41 18          	mov    0x18(%ecx),%ax
    35fa:	52                   	push   %edx
    35fb:	50                   	push   %eax
    35fc:	8b 45 e4             	mov    -0x1c(%ebp),%eax
    35ff:	8b 48 34             	mov    0x34(%eax),%ecx
    3602:	51                   	push   %ecx
    3603:	e8 68 03 00 00       	call   3970 <portrng_find_port>
    3608:	83 c4 10             	add    $0x10,%esp
    360b:	85 c0                	test   %eax,%eax
    360d:	0f 84 cc 00 00 00    	je     36df <amap_find_match+0x12f>
    3613:	8b 45 08             	mov    0x8(%ebp),%eax
    3616:	8b 78 0c             	mov    0xc(%eax),%edi
    3619:	8d 58 08             	lea    0x8(%eax),%ebx
    361c:	39 fb                	cmp    %edi,%ebx
    361e:	75 0f                	jne    362f <amap_find_match+0x7f>
    3620:	eb 46                	jmp    3668 <amap_find_match+0xb8>
    3622:	8d b6 00 00 00 00    	lea    0x0(%esi),%esi
    3628:	8b 7f 04             	mov    0x4(%edi),%edi
    362b:	39 fb                	cmp    %edi,%ebx
    362d:	74 39                	je     3668 <amap_find_match+0xb8>
    362f:	50                   	push   %eax
    3630:	50                   	push   %eax
    3631:	8d 47 08             	lea    0x8(%edi),%eax
    3634:	56                   	push   %esi
    3635:	50                   	push   %eax
    3636:	e8 f5 11 00 00       	call   4830 <inet_addr_compare@plt>
    363b:	83 c4 10             	add    $0x10,%esp
    363e:	85 c0                	test   %eax,%eax
    3640:	74 e6                	je     3628 <amap_find_match+0x78>
    3642:	8b 4d 0c             	mov    0xc(%ebp),%ecx
    3645:	50                   	push   %eax
    3646:	8b 45 10             	mov    0x10(%ebp),%eax
    3649:	50                   	push   %eax
    364a:	31 c0                	xor    %eax,%eax
    364c:	66 8b 41 18          	mov    0x18(%ecx),%ax
    3650:	50                   	push   %eax
    3651:	8b 47 1c             	mov    0x1c(%edi),%eax
    3654:	50                   	push   %eax
    3655:	e8 16 03 00 00       	call   3970 <portrng_find_port>
    365a:	83 c4 10             	add    $0x10,%esp
    365d:	85 c0                	test   %eax,%eax
    365f:	0f 84 8e 00 00 00    	je     36f3 <amap_find_match+0x143>
    3665:	8d 76 00             	lea    0x0(%esi),%esi
    3668:	8b 45 0c             	mov    0xc(%ebp),%eax
    366b:	8b 75 08             	mov    0x8(%ebp),%esi
    366e:	8b 08                	mov    (%eax),%ecx
    3670:	8b 45 08             	mov    0x8(%ebp),%eax
    3673:	8d 56 10             	lea    0x10(%esi),%edx
    3676:	8b 40 14             	mov    0x14(%eax),%eax
    3679:	39 d0                	cmp    %edx,%eax
    367b:	75 0a                	jne    3687 <amap_find_match+0xd7>
    367d:	eb 11                	jmp    3690 <amap_find_match+0xe0>
    367f:	90                   	nop
    3680:	8b 40 04             	mov    0x4(%eax),%eax
    3683:	39 d0                	cmp    %edx,%eax
    3685:	74 09                	je     3690 <amap_find_match+0xe0>
    3687:	3b 48 08             	cmp    0x8(%eax),%ecx
    368a:	75 f4                	jne    3680 <amap_find_match+0xd0>
    368c:	85 c9                	test   %ecx,%ecx
    368e:	75 77                	jne    3707 <amap_find_match+0x157>
    3690:	8b 5d 0c             	mov    0xc(%ebp),%ebx
    3693:	31 c0                	xor    %eax,%eax
    3695:	52                   	push   %edx
    3696:	8b 4d 10             	mov    0x10(%ebp),%ecx
    3699:	66 8b 43 18          	mov    0x18(%ebx),%ax
    369d:	51                   	push   %ecx
    369e:	50                   	push   %eax
    369f:	8b 45 08             	mov    0x8(%ebp),%eax
    36a2:	8b 58 18             	mov    0x18(%eax),%ebx
    36a5:	53                   	push   %ebx
    36a6:	e8 c5 02 00 00       	call   3970 <portrng_find_port>
    36ab:	83 c4 10             	add    $0x10,%esp
    36ae:	89 45 d4             	mov    %eax,-0x2c(%ebp)
    36b1:	85 c0                	test   %eax,%eax
    36b3:	0f 85 85 00 00 00    	jne    373e <amap_find_match+0x18e>
    36b9:	8b 45 0c             	mov    0xc(%ebp),%eax
    36bc:	31 d2                	xor    %edx,%edx
    36be:	66 8b 50 18          	mov    0x18(%eax),%dx
    36c2:	52                   	push   %edx
    36c3:	68 7e 43 00 00       	push   $0x437e
    36c8:	6a 05                	push   $0x5
    36ca:	6a ff                	push   $0xffffffff
    36cc:	e8 5f 10 00 00       	call   4730 <log_msg@plt>
    36d1:	83 c4 10             	add    $0x10,%esp
    36d4:	8b 45 d4             	mov    -0x2c(%ebp),%eax
    36d7:	8d 65 f4             	lea    -0xc(%ebp),%esp
    36da:	5b                   	pop    %ebx
    36db:	5e                   	pop    %esi
    36dc:	5f                   	pop    %edi
    36dd:	5d                   	pop    %ebp
    36de:	c3                   	ret    
    36df:	89 45 d4             	mov    %eax,-0x2c(%ebp)
    36e2:	8b 45 0c             	mov    0xc(%ebp),%eax
    36e5:	31 d2                	xor    %edx,%edx
    36e7:	66 8b 50 18          	mov    0x18(%eax),%dx
    36eb:	52                   	push   %edx
    36ec:	68 33 43 00 00       	push   $0x4333
    36f1:	eb d5                	jmp    36c8 <amap_find_match+0x118>
    36f3:	89 45 d4             	mov    %eax,-0x2c(%ebp)
    36f6:	8b 45 0c             	mov    0xc(%ebp),%eax
    36f9:	31 d2                	xor    %edx,%edx
    36fb:	66 8b 50 18          	mov    0x18(%eax),%dx
    36ff:	52                   	push   %edx
    3700:	68 4c 43 00 00       	push   $0x434c
    3705:	eb c1                	jmp    36c8 <amap_find_match+0x118>
    3707:	8b 7d 10             	mov    0x10(%ebp),%edi
    370a:	8b 4d 0c             	mov    0xc(%ebp),%ecx
    370d:	31 d2                	xor    %edx,%edx
    370f:	56                   	push   %esi
    3710:	57                   	push   %edi
    3711:	66 8b 51 18          	mov    0x18(%ecx),%dx
    3715:	8b 40 0c             	mov    0xc(%eax),%eax
    3718:	52                   	push   %edx
    3719:	50                   	push   %eax
    371a:	e8 51 02 00 00       	call   3970 <portrng_find_port>
    371f:	83 c4 10             	add    $0x10,%esp
    3722:	85 c0                	test   %eax,%eax
    3724:	0f 85 66 ff ff ff    	jne    3690 <amap_find_match+0xe0>
    372a:	89 45 d4             	mov    %eax,-0x2c(%ebp)
    372d:	8b 45 0c             	mov    0xc(%ebp),%eax
    3730:	31 d2                	xor    %edx,%edx
    3732:	66 8b 50 18          	mov    0x18(%eax),%dx
    3736:	52                   	push   %edx
    3737:	68 65 43 00 00       	push   $0x4365
    373c:	eb 8a                	jmp    36c8 <amap_find_match+0x118>
    373e:	50                   	push   %eax
    373f:	68 98 43 00 00       	push   $0x4398
    3744:	6a 05                	push   $0x5
    3746:	6a ff                	push   $0xffffffff
    3748:	e8 e3 0f 00 00       	call   4730 <log_msg@plt>
    374d:	83 c4 10             	add    $0x10,%esp
    3750:	83 c8 ff             	or     $0xffffffff,%eax
    3753:	eb 82                	jmp    36d7 <amap_find_match+0x127>
    3755:	66 90                	xchg   %ax,%ax
    3757:	66 90                	xchg   %ax,%ax
    3759:	66 90                	xchg   %ax,%ax
    375b:	66 90                	xchg   %ax,%ax
    375d:	66 90                	xchg   %ax,%ax
    375f:	90                   	nop

00003760 <portrng_create>:
    3760:	55                   	push   %ebp
    3761:	89 e5                	mov    %esp,%ebp
    3763:	83 ec 0c             	sub    $0xc,%esp
    3766:	68 a2 43 00 00       	push   $0x43a2
    376b:	6a 05                	push   $0x5
    376d:	6a ff                	push   $0xffffffff
    376f:	e8 bc 0f 00 00       	call   4730 <log_msg@plt>
    3774:	5a                   	pop    %edx
    3775:	59                   	pop    %ecx
    3776:	6a 08                	push   $0x8
    3778:	6a 01                	push   $0x1
    377a:	e8 01 10 00 00       	call   4780 <calloc@plt>
    377f:	83 c4 10             	add    $0x10,%esp
    3782:	85 c0                	test   %eax,%eax
    3784:	74 22                	je     37a8 <portrng_create+0x48>
    3786:	8b 55 08             	mov    0x8(%ebp),%edx
    3789:	89 00                	mov    %eax,(%eax)
    378b:	89 40 04             	mov    %eax,0x4(%eax)
    378e:	89 02                	mov    %eax,(%edx)
    3790:	50                   	push   %eax
    3791:	68 bb 43 00 00       	push   $0x43bb
    3796:	6a 05                	push   $0x5
    3798:	6a ff                	push   $0xffffffff
    379a:	e8 91 0f 00 00       	call   4730 <log_msg@plt>
    379f:	83 c4 10             	add    $0x10,%esp
    37a2:	31 c0                	xor    %eax,%eax
    37a4:	c9                   	leave  
    37a5:	c3                   	ret    
    37a6:	66 90                	xchg   %ax,%ax
    37a8:	b8 fe ff ff ff       	mov    $0xfffffffe,%eax
    37ad:	c9                   	leave  
    37ae:	c3                   	ret    
    37af:	90                   	nop

000037b0 <portrng_destroy>:
    37b0:	55                   	push   %ebp
    37b1:	89 e5                	mov    %esp,%ebp
    37b3:	53                   	push   %ebx
    37b4:	83 ec 08             	sub    $0x8,%esp
    37b7:	8b 5d 08             	mov    0x8(%ebp),%ebx
    37ba:	68 d2 43 00 00       	push   $0x43d2
    37bf:	6a 05                	push   $0x5
    37c1:	6a ff                	push   $0xffffffff
    37c3:	e8 68 0f 00 00       	call   4730 <log_msg@plt>
    37c8:	83 c4 10             	add    $0x10,%esp
    37cb:	39 5b 04             	cmp    %ebx,0x4(%ebx)
    37ce:	75 0c                	jne    37dc <portrng_destroy+0x2c>
    37d0:	89 5d 08             	mov    %ebx,0x8(%ebp)
    37d3:	8b 5d fc             	mov    -0x4(%ebp),%ebx
    37d6:	c9                   	leave  
    37d7:	e9 24 11 00 00       	jmp    4900 <free@plt>
    37dc:	50                   	push   %eax
    37dd:	6a 4c                	push   $0x4c
    37df:	68 e4 43 00 00       	push   $0x43e4
    37e4:	68 f2 43 00 00       	push   $0x43f2
    37e9:	e8 82 0f 00 00       	call   4770 <assert_abort@plt>
    37ee:	66 90                	xchg   %ax,%ax

000037f0 <portrng_alloc>:
    37f0:	55                   	push   %ebp
    37f1:	89 e5                	mov    %esp,%ebp
    37f3:	57                   	push   %edi
    37f4:	56                   	push   %esi
    37f5:	53                   	push   %ebx
    37f6:	83 ec 10             	sub    $0x10,%esp
    37f9:	8b 75 0c             	mov    0xc(%ebp),%esi
    37fc:	8b 5d 08             	mov    0x8(%ebp),%ebx
    37ff:	68 08 44 00 00       	push   $0x4408
    3804:	6a 05                	push   $0x5
    3806:	6a ff                	push   $0xffffffff
    3808:	e8 23 0f 00 00       	call   4730 <log_msg@plt>
    380d:	83 c4 10             	add    $0x10,%esp
    3810:	66 85 f6             	test   %si,%si
    3813:	0f 84 c6 00 00 00    	je     38df <portrng_alloc+0xef>
    3819:	31 c0                	xor    %eax,%eax
    381b:	89 f7                	mov    %esi,%edi
    381d:	66 89 f0             	mov    %si,%ax
    3820:	50                   	push   %eax
    3821:	68 37 44 00 00       	push   $0x4437
    3826:	6a 05                	push   $0x5
    3828:	6a ff                	push   $0xffffffff
    382a:	e8 01 0f 00 00       	call   4730 <log_msg@plt>
    382f:	83 c4 10             	add    $0x10,%esp
    3832:	f6 45 14 01          	testb  $0x1,0x14(%ebp)
    3836:	75 0b                	jne    3843 <portrng_alloc+0x53>
    3838:	66 81 fe ff 03       	cmp    $0x3ff,%si
    383d:	0f 86 fc 00 00 00    	jbe    393f <portrng_alloc+0x14f>
    3843:	8b 43 04             	mov    0x4(%ebx),%eax
    3846:	39 d8                	cmp    %ebx,%eax
    3848:	74 1b                	je     3865 <portrng_alloc+0x75>
    384a:	66 3b 70 08          	cmp    0x8(%eax),%si
    384e:	75 0e                	jne    385e <portrng_alloc+0x6e>
    3850:	eb 6e                	jmp    38c0 <portrng_alloc+0xd0>
    3852:	8d b6 00 00 00 00    	lea    0x0(%esi),%esi
    3858:	66 3b 78 08          	cmp    0x8(%eax),%di
    385c:	74 62                	je     38c0 <portrng_alloc+0xd0>
    385e:	8b 40 04             	mov    0x4(%eax),%eax
    3861:	39 d8                	cmp    %ebx,%eax
    3863:	75 f3                	jne    3858 <portrng_alloc+0x68>
    3865:	50                   	push   %eax
    3866:	50                   	push   %eax
    3867:	6a 10                	push   $0x10
    3869:	6a 01                	push   $0x1
    386b:	e8 10 0f 00 00       	call   4780 <calloc@plt>
    3870:	83 c4 10             	add    $0x10,%esp
    3873:	85 c0                	test   %eax,%eax
    3875:	0f 84 e0 00 00 00    	je     395b <portrng_alloc+0x16b>
    387b:	8b 55 10             	mov    0x10(%ebp),%edx
    387e:	66 89 78 08          	mov    %di,0x8(%eax)
    3882:	89 50 0c             	mov    %edx,0xc(%eax)
    3885:	8b 13                	mov    (%ebx),%edx
    3887:	89 58 04             	mov    %ebx,0x4(%eax)
    388a:	89 10                	mov    %edx,(%eax)
    388c:	89 42 04             	mov    %eax,0x4(%edx)
    388f:	89 03                	mov    %eax,(%ebx)
    3891:	8b 45 18             	mov    0x18(%ebp),%eax
    3894:	66 89 38             	mov    %di,(%eax)
    3897:	81 e7 ff ff 00 00    	and    $0xffff,%edi
    389d:	57                   	push   %edi
    389e:	68 a0 44 00 00       	push   $0x44a0
    38a3:	6a 05                	push   $0x5
    38a5:	6a ff                	push   $0xffffffff
    38a7:	e8 84 0e 00 00       	call   4730 <log_msg@plt>
    38ac:	83 c4 10             	add    $0x10,%esp
    38af:	8d 65 f4             	lea    -0xc(%ebp),%esp
    38b2:	31 c0                	xor    %eax,%eax
    38b4:	5b                   	pop    %ebx
    38b5:	5e                   	pop    %esi
    38b6:	5f                   	pop    %edi
    38b7:	5d                   	pop    %ebp
    38b8:	c3                   	ret    
    38b9:	8d b4 26 00 00 00 00 	lea    0x0(%esi,%eiz,1),%esi
    38c0:	52                   	push   %edx
    38c1:	68 62 44 00 00       	push   $0x4462
    38c6:	6a 05                	push   $0x5
    38c8:	6a ff                	push   $0xffffffff
    38ca:	e8 61 0e 00 00       	call   4730 <log_msg@plt>
    38cf:	83 c4 10             	add    $0x10,%esp
    38d2:	b8 f7 ff ff ff       	mov    $0xfffffff7,%eax
    38d7:	8d 65 f4             	lea    -0xc(%ebp),%esp
    38da:	5b                   	pop    %ebx
    38db:	5e                   	pop    %esi
    38dc:	5f                   	pop    %edi
    38dd:	5d                   	pop    %ebp
    38de:	c3                   	ret    
    38df:	be 00 c0 00 00       	mov    $0xc000,%esi
    38e4:	56                   	push   %esi
    38e5:	68 20 44 00 00       	push   $0x4420
    38ea:	6a 05                	push   $0x5
    38ec:	6a ff                	push   $0xffffffff
    38ee:	e8 3d 0e 00 00       	call   4730 <log_msg@plt>
    38f3:	8b 43 04             	mov    0x4(%ebx),%eax
    38f6:	83 c4 10             	add    $0x10,%esp
    38f9:	39 c3                	cmp    %eax,%ebx
    38fb:	75 0a                	jne    3907 <portrng_alloc+0x117>
    38fd:	eb 21                	jmp    3920 <portrng_alloc+0x130>
    38ff:	90                   	nop
    3900:	8b 40 04             	mov    0x4(%eax),%eax
    3903:	39 c3                	cmp    %eax,%ebx
    3905:	74 19                	je     3920 <portrng_alloc+0x130>
    3907:	66 83 78 08 00       	cmpw   $0x0,0x8(%eax)
    390c:	75 f2                	jne    3900 <portrng_alloc+0x110>
    390e:	46                   	inc    %esi
    390f:	81 fe 00 00 01 00    	cmp    $0x10000,%esi
    3915:	75 cd                	jne    38e4 <portrng_alloc+0xf4>
    3917:	83 c8 ff             	or     $0xffffffff,%eax
    391a:	eb bb                	jmp    38d7 <portrng_alloc+0xe7>
    391c:	8d 74 26 00          	lea    0x0(%esi,%eiz,1),%esi
    3920:	89 f7                	mov    %esi,%edi
    3922:	81 e6 ff ff 00 00    	and    $0xffff,%esi
    3928:	56                   	push   %esi
    3929:	68 2a 44 00 00       	push   $0x442a
    392e:	6a 05                	push   $0x5
    3930:	6a ff                	push   $0xffffffff
    3932:	e8 f9 0d 00 00       	call   4730 <log_msg@plt>
    3937:	83 c4 10             	add    $0x10,%esp
    393a:	e9 26 ff ff ff       	jmp    3865 <portrng_alloc+0x75>
    393f:	51                   	push   %ecx
    3940:	68 4a 44 00 00       	push   $0x444a
    3945:	6a 05                	push   $0x5
    3947:	6a ff                	push   $0xffffffff
    3949:	e8 e2 0d 00 00       	call   4730 <log_msg@plt>
    394e:	83 c4 10             	add    $0x10,%esp
    3951:	b8 f2 ff ff ff       	mov    $0xfffffff2,%eax
    3956:	e9 7c ff ff ff       	jmp    38d7 <portrng_alloc+0xe7>
    395b:	b8 fe ff ff ff       	mov    $0xfffffffe,%eax
    3960:	e9 72 ff ff ff       	jmp    38d7 <portrng_alloc+0xe7>
    3965:	8d 74 26 00          	lea    0x0(%esi,%eiz,1),%esi
    3969:	8d bc 27 00 00 00 00 	lea    0x0(%edi,%eiz,1),%edi

00003970 <portrng_find_port>:
    3970:	55                   	push   %ebp
    3971:	89 e5                	mov    %esp,%ebp
    3973:	53                   	push   %ebx
    3974:	8b 55 08             	mov    0x8(%ebp),%edx
    3977:	8b 5d 0c             	mov    0xc(%ebp),%ebx
    397a:	8b 42 04             	mov    0x4(%edx),%eax
    397d:	39 d0                	cmp    %edx,%eax
    397f:	74 1c                	je     399d <portrng_find_port+0x2d>
    3981:	66 3b 58 08          	cmp    0x8(%eax),%bx
    3985:	89 d9                	mov    %ebx,%ecx
    3987:	75 0d                	jne    3996 <portrng_find_port+0x26>
    3989:	eb 1d                	jmp    39a8 <portrng_find_port+0x38>
    398b:	90                   	nop
    398c:	8d 74 26 00          	lea    0x0(%esi,%eiz,1),%esi
    3990:	66 39 48 08          	cmp    %cx,0x8(%eax)
    3994:	74 12                	je     39a8 <portrng_find_port+0x38>
    3996:	8b 40 04             	mov    0x4(%eax),%eax
    3999:	39 d0                	cmp    %edx,%eax
    399b:	75 f3                	jne    3990 <portrng_find_port+0x20>
    399d:	83 c8 ff             	or     $0xffffffff,%eax
    39a0:	5b                   	pop    %ebx
    39a1:	5d                   	pop    %ebp
    39a2:	c3                   	ret    
    39a3:	90                   	nop
    39a4:	8d 74 26 00          	lea    0x0(%esi,%eiz,1),%esi
    39a8:	8b 50 0c             	mov    0xc(%eax),%edx
    39ab:	8b 45 10             	mov    0x10(%ebp),%eax
    39ae:	89 10                	mov    %edx,(%eax)
    39b0:	31 c0                	xor    %eax,%eax
    39b2:	5b                   	pop    %ebx
    39b3:	5d                   	pop    %ebp
    39b4:	c3                   	ret    
    39b5:	8d 74 26 00          	lea    0x0(%esi,%eiz,1),%esi
    39b9:	8d bc 27 00 00 00 00 	lea    0x0(%edi,%eiz,1),%edi

000039c0 <portrng_free_port>:
    39c0:	55                   	push   %ebp
    39c1:	89 e5                	mov    %esp,%ebp
    39c3:	57                   	push   %edi
    39c4:	56                   	push   %esi
    39c5:	53                   	push   %ebx
    39c6:	83 ec 10             	sub    $0x10,%esp
    39c9:	8b 5d 08             	mov    0x8(%ebp),%ebx
    39cc:	8b 7d 0c             	mov    0xc(%ebp),%edi
    39cf:	68 74 44 00 00       	push   $0x4474
    39d4:	6a 05                	push   $0x5
    39d6:	6a ff                	push   $0xffffffff
    39d8:	e8 53 0d 00 00       	call   4730 <log_msg@plt>
    39dd:	8b 43 04             	mov    0x4(%ebx),%eax
    39e0:	83 c4 10             	add    $0x10,%esp
    39e3:	39 d8                	cmp    %ebx,%eax
    39e5:	74 1e                	je     3a05 <portrng_free_port+0x45>
    39e7:	66 3b 78 08          	cmp    0x8(%eax),%di
    39eb:	89 fe                	mov    %edi,%esi
    39ed:	75 0f                	jne    39fe <portrng_free_port+0x3e>
    39ef:	eb 2f                	jmp    3a20 <portrng_free_port+0x60>
    39f1:	8d b4 26 00 00 00 00 	lea    0x0(%esi,%eiz,1),%esi
    39f8:	66 39 70 08          	cmp    %si,0x8(%eax)
    39fc:	74 22                	je     3a20 <portrng_free_port+0x60>
    39fe:	8b 40 04             	mov    0x4(%eax),%eax
    3a01:	39 d8                	cmp    %ebx,%eax
    3a03:	75 f3                	jne    39f8 <portrng_free_port+0x38>
    3a05:	50                   	push   %eax
    3a06:	68 c1 00 00 00       	push   $0xc1
    3a0b:	68 e4 43 00 00       	push   $0x43e4
    3a10:	68 ff 3a 00 00       	push   $0x3aff
    3a15:	e8 56 0d 00 00       	call   4770 <assert_abort@plt>
    3a1a:	8d b6 00 00 00 00    	lea    0x0(%esi),%esi
    3a20:	8b 08                	mov    (%eax),%ecx
    3a22:	85 c9                	test   %ecx,%ecx
    3a24:	74 0e                	je     3a34 <portrng_free_port+0x74>
    3a26:	8b 50 04             	mov    0x4(%eax),%edx
    3a29:	85 d2                	test   %edx,%edx
    3a2b:	74 07                	je     3a34 <portrng_free_port+0x74>
    3a2d:	89 0a                	mov    %ecx,(%edx)
    3a2f:	8b 08                	mov    (%eax),%ecx
    3a31:	89 51 04             	mov    %edx,0x4(%ecx)
    3a34:	c7 00 00 00 00 00    	movl   $0x0,(%eax)
    3a3a:	c7 40 04 00 00 00 00 	movl   $0x0,0x4(%eax)
    3a41:	89 45 08             	mov    %eax,0x8(%ebp)
    3a44:	8d 65 f4             	lea    -0xc(%ebp),%esp
    3a47:	5b                   	pop    %ebx
    3a48:	5e                   	pop    %esi
    3a49:	5f                   	pop    %edi
    3a4a:	5d                   	pop    %ebp
    3a4b:	e9 b0 0e 00 00       	jmp    4900 <free@plt>

00003a50 <portrng_empty>:
    3a50:	55                   	push   %ebp
    3a51:	89 e5                	mov    %esp,%ebp
    3a53:	53                   	push   %ebx
    3a54:	83 ec 08             	sub    $0x8,%esp
    3a57:	8b 5d 08             	mov    0x8(%ebp),%ebx
    3a5a:	68 90 44 00 00       	push   $0x4490
    3a5f:	6a 05                	push   $0x5
    3a61:	6a ff                	push   $0xffffffff
    3a63:	e8 c8 0c 00 00       	call   4730 <log_msg@plt>
    3a68:	83 c4 10             	add    $0x10,%esp
    3a6b:	39 5b 04             	cmp    %ebx,0x4(%ebx)
    3a6e:	8b 5d fc             	mov    -0x4(%ebp),%ebx
    3a71:	c9                   	leave  
    3a72:	0f 94 c0             	sete   %al
    3a75:	c3                   	ret    
    3a76:	61                   	popa   
    3a77:	73 73                	jae    3aec <portrng_empty+0x9c>
    3a79:	6f                   	outsl  %ds:(%esi),(%dx)
    3a7a:	63 2e                	arpl   %bp,(%esi)
    3a7c:	63 00                	arpl   %ax,(%eax)
    3a7e:	72 63                	jb     3ae3 <portrng_empty+0x93>
    3a80:	20 3d 3d 20 45 4e    	and    %bh,0x4e45203d
    3a86:	4f                   	dec    %edi
    3a87:	4d                   	dec    %ebp
    3a88:	45                   	inc    %ebp
    3a89:	4d                   	dec    %ebp
    3a8a:	00 25 73 3a 20 75    	add    %ah,0x75203a73
    3a90:	70 64                	jo     3af6 <portrng_empty+0xa6>
    3a92:	5f                   	pop    %edi
    3a93:	61                   	popa   
    3a94:	73 73                	jae    3b09 <portrng_empty+0xb9>
    3a96:	6f                   	outsl  %ds:(%esi),(%dx)
    3a97:	63 5f 61             	arpl   %bx,0x61(%edi)
    3a9a:	64 64 72 65          	fs fs jb 3b03 <portrng_empty+0xb3>
    3a9e:	66 28 25 70 29 00 25 	data16 sub %ah,0x25002970
    3aa5:	73 3a                	jae    3ae1 <portrng_empty+0x91>
    3aa7:	20 75 64             	and    %dh,0x64(%ebp)
    3aaa:	70 5f                	jo     3b0b <portrng_empty+0xbb>
    3aac:	61                   	popa   
    3aad:	73 73                	jae    3b22 <portrng_empty+0xd2>
    3aaf:	6f                   	outsl  %ds:(%esi),(%dx)
    3ab0:	63 5f 64             	arpl   %bx,0x64(%edi)
    3ab3:	65 6c                	gs insb (%dx),%es:(%edi)
    3ab5:	72 65                	jb     3b1c <portrng_empty+0xcc>
    3ab7:	66 28 25 70 29 00 25 	data16 sub %ah,0x25002970
    3abe:	73 3a                	jae    3afa <portrng_empty+0xaa>
    3ac0:	20 75 64             	and    %dh,0x64(%ebp)
    3ac3:	70 5f                	jo     3b24 <portrng_empty+0xd4>
    3ac5:	61                   	popa   
    3ac6:	73 73                	jae    3b3b <portrng_empty+0xeb>
    3ac8:	6f                   	outsl  %ds:(%esi),(%dx)
    3ac9:	63 5f 66             	arpl   %bx,0x66(%edi)
    3acc:	72 65                	jb     3b33 <portrng_empty+0xe3>
    3ace:	65 28 25 70 29 00 25 	sub    %ah,%gs:0x25002970
    3ad5:	73 3a                	jae    3b11 <portrng_empty+0xc1>
    3ad7:	20 75 64             	and    %dh,0x64(%ebp)
    3ada:	70 5f                	jo     3b3b <portrng_empty+0xeb>
    3adc:	61                   	popa   
    3add:	73 73                	jae    3b52 <portrng_empty+0x102>
    3adf:	6f                   	outsl  %ds:(%esi),(%dx)
    3ae0:	63 5f 64             	arpl   %bx,0x64(%edi)
    3ae3:	65 6c                	gs insb (%dx),%es:(%edi)
    3ae5:	65 74 65             	gs je  3b4d <portrng_empty+0xfd>
    3ae8:	28 25 70 29 00 61    	sub    %ah,0x61002970
    3aee:	73 73                	jae    3b63 <portrng_empty+0x113>
    3af0:	6f                   	outsl  %ds:(%esi),(%dx)
    3af1:	63 2d 3e 64 65 6c    	arpl   %bp,0x6c65643e
    3af7:	65 74 65             	gs je  3b5f <portrng_empty+0x10f>
    3afa:	64 20 3d 3d 20 66 61 	and    %bh,%fs:0x6166203d
    3b01:	6c                   	insb   (%dx),%es:(%edi)
    3b02:	73 65                	jae    3b69 <portrng_empty+0x119>
    3b04:	00 75 64             	add    %dh,0x64(%ebp)
    3b07:	70 5f                	jo     3b68 <portrng_empty+0x118>
    3b09:	61                   	popa   
    3b0a:	73 73                	jae    3b7f <portrng_empty+0x12f>
    3b0c:	6f                   	outsl  %ds:(%esi),(%dx)
    3b0d:	63 5f 73             	arpl   %bx,0x73(%edi)
    3b10:	65 74 5f             	gs je  3b72 <portrng_empty+0x122>
    3b13:	69 70 6c 69 6e 6b 28 	imul   $0x286b6e69,0x6c(%eax),%esi
    3b1a:	25 70 2c 20 25       	and    $0x25202c70,%eax
    3b1f:	7a 75                	jp     3b96 <portrng_empty+0x146>
    3b21:	29 00                	sub    %eax,(%eax)
    3b23:	75 64                	jne    3b89 <portrng_empty+0x139>
    3b25:	70 5f                	jo     3b86 <portrng_empty+0x136>
    3b27:	61                   	popa   
    3b28:	73 73                	jae    3b9d <portrng_empty+0x14d>
    3b2a:	6f                   	outsl  %ds:(%esi),(%dx)
    3b2b:	63 5f 73             	arpl   %bx,0x73(%edi)
    3b2e:	65 6e                	outsb  %gs:(%esi),(%dx)
    3b30:	64 28 25 70 2c 20 25 	sub    %ah,%fs:0x25202c70
    3b37:	70 2c                	jo     3b65 <portrng_empty+0x115>
    3b39:	20 25 70 29 00 75    	and    %ah,0x75002970
    3b3f:	64 70 5f             	fs jo  3ba1 <portrng_empty+0x151>
    3b42:	61                   	popa   
    3b43:	73 73                	jae    3bb8 <portrng_empty+0x168>
    3b45:	6f                   	outsl  %ds:(%esi),(%dx)
    3b46:	63 5f 73             	arpl   %bx,0x73(%edi)
    3b49:	65 6e                	outsb  %gs:(%esi),(%dx)
    3b4b:	64 20 2d 20 65 6e 63 	and    %ch,%fs:0x636e6520
    3b52:	6f                   	outsl  %ds:(%esi),(%dx)
    3b53:	64 65 20 70 64       	fs and %dh,%gs:0x64(%eax)
    3b58:	75 00                	jne    3b5a <portrng_empty+0x10a>
    3b5a:	75 64                	jne    3bc0 <portrng_empty+0x170>
    3b5c:	70 5f                	jo     3bbd <portrng_empty+0x16d>
    3b5e:	61                   	popa   
    3b5f:	73 73                	jae    3bd4 <portrng_empty+0x184>
    3b61:	6f                   	outsl  %ds:(%esi),(%dx)
    3b62:	63 5f 73             	arpl   %bx,0x73(%edi)
    3b65:	65 6e                	outsb  %gs:(%esi),(%dx)
    3b67:	64 20 2d 20 74 72 61 	and    %ch,%fs:0x61727420
    3b6e:	6e                   	outsb  %ds:(%esi),(%dx)
    3b6f:	73 6d                	jae    3bde <portrng_empty+0x18e>
    3b71:	69 74 00 75 64 70 5f 	imul   $0x615f7064,0x75(%eax,%eax,1),%esi
    3b78:	61 
    3b79:	73 73                	jae    3bee <portrng_empty+0x19e>
    3b7b:	6f                   	outsl  %ds:(%esi),(%dx)
    3b7c:	63 5f 73             	arpl   %bx,0x73(%edi)
    3b7f:	65 6e                	outsb  %gs:(%esi),(%dx)
    3b81:	64 20 2d 20 73 75 63 	and    %ch,%fs:0x63757320
    3b88:	63 65 73             	arpl   %sp,0x73(%ebp)
    3b8b:	73 00                	jae    3b8d <portrng_empty+0x13d>
    3b8d:	75 64                	jne    3bf3 <portrng_empty+0x1a3>
    3b8f:	70 5f                	jo     3bf0 <portrng_empty+0x1a0>
    3b91:	61                   	popa   
    3b92:	73 73                	jae    3c07 <portrng_empty+0x1b7>
    3b94:	6f                   	outsl  %ds:(%esi),(%dx)
    3b95:	63 5f 72             	arpl   %bx,0x72(%edi)
    3b98:	65 63 76 28          	arpl   %si,%gs:0x28(%esi)
    3b9c:	29 00                	sub    %eax,(%eax)
    3b9e:	75 64                	jne    3c04 <portrng_empty+0x1b4>
    3ba0:	70 5f                	jo     3c01 <portrng_empty+0x1b1>
    3ba2:	61                   	popa   
    3ba3:	73 73                	jae    3c18 <portrng_empty+0x1c8>
    3ba5:	6f                   	outsl  %ds:(%esi),(%dx)
    3ba6:	63 5f 72             	arpl   %bx,0x72(%edi)
    3ba9:	65 63 76 28          	arpl   %si,%gs:0x28(%esi)
    3bad:	29 20                	sub    %esp,(%eax)
    3baf:	2d 20 77 61 69       	sub    $0x69617720,%eax
    3bb4:	74 69                	je     3c1f <portrng_empty+0x1cf>
    3bb6:	6e                   	outsb  %ds:(%esi),(%dx)
    3bb7:	67 00 75 64          	add    %dh,0x64(%di)
    3bbb:	70 5f                	jo     3c1c <portrng_empty+0x1cc>
    3bbd:	61                   	popa   
    3bbe:	73 73                	jae    3c33 <portrng_empty+0x1e3>
    3bc0:	6f                   	outsl  %ds:(%esi),(%dx)
    3bc1:	63 5f 72             	arpl   %bx,0x72(%edi)
    3bc4:	65 63 65 69          	arpl   %sp,%gs:0x69(%ebp)
    3bc8:	76 65                	jbe    3c2f <portrng_empty+0x1df>
    3bca:	64 28 25 70 2c 20 25 	sub    %ah,%fs:0x25202c70
    3bd1:	70 29                	jo     3bfc <portrng_empty+0x1ac>
    3bd3:	00 75 64             	add    %dh,0x64(%ebp)
    3bd6:	70 5f                	jo     3c37 <portrng_empty+0x1e7>
    3bd8:	61                   	popa   
    3bd9:	73 73                	jae    3c4e <portrng_empty+0x1fe>
    3bdb:	6f                   	outsl  %ds:(%esi),(%dx)
    3bdc:	63 5f 66             	arpl   %bx,0x66(%edi)
    3bdf:	69 6e 64 5f 72 65 66 	imul   $0x6665725f,0x64(%esi),%ebp
    3be6:	28 25 70 29 00 72    	sub    %ah,0x72002970
    3bec:	63 20                	arpl   %sp,(%eax)
    3bee:	3d 3d 20 45 4e       	cmp    $0x4e45203d,%eax
    3bf3:	4f                   	dec    %edi
    3bf4:	45                   	inc    %ebp
    3bf5:	4e                   	dec    %esi
    3bf6:	54                   	push   %esp
    3bf7:	00 63 61             	add    %ah,0x61(%ebx)
    3bfa:	6c                   	insb   (%dx),%es:(%edi)
    3bfb:	6c                   	insb   (%dx),%es:(%edi)
    3bfc:	20 61 73             	and    %ah,0x73(%ecx)
    3bff:	73 6f                	jae    3c70 <portrng_empty+0x220>
    3c01:	63 2d 3e 63 62 2d    	arpl   %bp,0x2d62633e
    3c07:	3e 72 65             	jb,pt  3c6f <portrng_empty+0x21f>
    3c0a:	63 76 5f             	arpl   %si,0x5f(%esi)
    3c0d:	6d                   	insl   (%dx),%es:(%edi)
    3c0e:	73 67                	jae    3c77 <portrng_empty+0x227>
    3c10:	00 66 90             	add    %ah,-0x70(%esi)
    3c13:	90                   	nop
    3c14:	75 64                	jne    3c7a <portrng_empty+0x22a>
    3c16:	70 5f                	jo     3c77 <portrng_empty+0x227>
    3c18:	61                   	popa   
    3c19:	73 73                	jae    3c8e <portrng_empty+0x23e>
    3c1b:	6f                   	outsl  %ds:(%esi),(%dx)
    3c1c:	63 5f 73             	arpl   %bx,0x73(%edi)
    3c1f:	65 6e                	outsb  %gs:(%esi),(%dx)
    3c21:	64 20 2d 20 63 68 65 	and    %ch,%fs:0x65686320
    3c28:	63 6b 20             	arpl   %bp,0x20(%ebx)
    3c2b:	61                   	popa   
    3c2c:	64 64 72 20          	fs fs jb 3c50 <portrng_empty+0x200>
    3c30:	61                   	popa   
    3c31:	6e                   	outsb  %ds:(%esi),(%dx)
    3c32:	79 00                	jns    3c34 <portrng_empty+0x1e4>
    3c34:	75 64                	jne    3c9a <portrng_empty+0x24a>
    3c36:	70 5f                	jo     3c97 <portrng_empty+0x247>
    3c38:	61                   	popa   
    3c39:	73 73                	jae    3cae <portrng_empty+0x25e>
    3c3b:	6f                   	outsl  %ds:(%esi),(%dx)
    3c3c:	63 5f 73             	arpl   %bx,0x73(%edi)
    3c3f:	65 6e                	outsb  %gs:(%esi),(%dx)
    3c41:	64 20 2d 20 63 68 65 	and    %ch,%fs:0x65686320
    3c48:	63 6b 20             	arpl   %bp,0x20(%ebx)
    3c4b:	76 65                	jbe    3cb2 <portrng_empty+0x262>
    3c4d:	72 73                	jb     3cc2 <portrng_empty+0x272>
    3c4f:	69 6f 6e 00 00 75 64 	imul   $0x64750000,0x6e(%edi),%ebp
    3c56:	70 5f                	jo     3cb7 <portrng_empty+0x267>
    3c58:	61                   	popa   
    3c59:	73 73                	jae    3cce <portrng_empty+0x27e>
    3c5b:	6f                   	outsl  %ds:(%esi),(%dx)
    3c5c:	63 5f 72             	arpl   %bx,0x72(%edi)
    3c5f:	65 63 76 28          	arpl   %si,%gs:0x28(%esi)
    3c63:	29 20                	sub    %esp,(%eax)
    3c65:	2d 20 67 6f 74       	sub    $0x746f6720,%eax
    3c6a:	20 61 20             	and    %ah,0x20(%ecx)
    3c6d:	6d                   	insl   (%dx),%es:(%edi)
    3c6e:	65 73 73             	gs jae 3ce4 <portrng_empty+0x294>
    3c71:	61                   	popa   
    3c72:	67 65 00 00          	add    %al,%gs:(%bx,%si)
    3c76:	00 00                	add    %al,(%eax)
    3c78:	75 64                	jne    3cde <portrng_empty+0x28e>
    3c7a:	70 5f                	jo     3cdb <portrng_empty+0x28b>
    3c7c:	61                   	popa   
    3c7d:	73 73                	jae    3cf2 <portrng_empty+0x2a2>
    3c7f:	6f                   	outsl  %ds:(%esi),(%dx)
    3c80:	63 5f 72             	arpl   %bx,0x72(%edi)
    3c83:	65 63 76 28          	arpl   %si,%gs:0x28(%esi)
    3c87:	29 20                	sub    %esp,(%eax)
    3c89:	2d 20 61 73 73       	sub    $0x73736120,%eax
    3c8e:	6f                   	outsl  %ds:(%esi),(%dx)
    3c8f:	63 69 61             	arpl   %bp,0x61(%ecx)
    3c92:	74 69                	je     3cfd <portrng_empty+0x2ad>
    3c94:	6f                   	outsl  %ds:(%esi),(%dx)
    3c95:	6e                   	outsb  %ds:(%esi),(%dx)
    3c96:	20 77 61             	and    %dh,0x61(%edi)
    3c99:	73 20                	jae    3cbb <portrng_empty+0x26b>
    3c9b:	72 65                	jb     3d02 <portrng_empty+0x2b2>
    3c9d:	73 65                	jae    3d04 <portrng_empty+0x2b4>
    3c9f:	74 00                	je     3ca1 <portrng_empty+0x251>
    3ca1:	00 00                	add    %al,(%eax)
    3ca3:	00 4e 6f             	add    %cl,0x6f(%esi)
    3ca6:	20 61 73             	and    %ah,0x73(%ecx)
    3ca9:	73 6f                	jae    3d1a <portrng_empty+0x2ca>
    3cab:	63 69 61             	arpl   %bp,0x61(%ecx)
    3cae:	74 69                	je     3d19 <portrng_empty+0x2c9>
    3cb0:	6f                   	outsl  %ds:(%esi),(%dx)
    3cb1:	6e                   	outsb  %ds:(%esi),(%dx)
    3cb2:	20 66 6f             	and    %ah,0x6f(%esi)
    3cb5:	75 6e                	jne    3d25 <portrng_empty+0x2d5>
    3cb7:	64 2e 20 4d 65       	fs and %cl,%cs:0x65(%ebp)
    3cbc:	73 73                	jae    3d31 <portrng_empty+0x2e1>
    3cbe:	61                   	popa   
    3cbf:	67 65 20 64 72       	and    %ah,%gs:0x72(%si)
    3cc4:	6f                   	outsl  %ds:(%esi),(%dx)
    3cc5:	70 70                	jo     3d37 <portrng_empty+0x2e7>
    3cc7:	65 64 2e 00 70 64    	gs fs add %dh,%cs:0x64(%eax)
    3ccd:	75 2e                	jne    3cfd <portrng_empty+0x2ad>
    3ccf:	63 00                	arpl   %ax,(%eax)
    3cd1:	73 72                	jae    3d45 <portrng_empty+0x2f5>
    3cd3:	63 5f 76             	arpl   %bx,0x76(%edi)
    3cd6:	65 72 20             	gs jb  3cf9 <portrng_empty+0x2a9>
    3cd9:	3d 3d 20 64 65       	cmp    $0x6564203d,%eax
    3cde:	73 74                	jae    3d54 <portrng_empty+0x304>
    3ce0:	5f                   	pop    %edi
    3ce1:	76 65                	jbe    3d48 <portrng_empty+0x2f8>
    3ce3:	72 00                	jb     3ce5 <portrng_empty+0x295>
    3ce5:	66 90                	xchg   %ax,%ax
    3ce7:	90                   	nop
    3ce8:	75 64                	jne    3d4e <portrng_empty+0x2fe>
    3cea:	70 5f                	jo     3d4b <portrng_empty+0x2fb>
    3cec:	63 61 73             	arpl   %sp,0x73(%ecx)
    3cef:	73 6f                	jae    3d60 <portrng_empty+0x310>
    3cf1:	63 5f 71             	arpl   %bx,0x71(%edi)
    3cf4:	75 65                	jne    3d5b <portrng_empty+0x30b>
    3cf6:	75 65                	jne    3d5d <portrng_empty+0x30d>
    3cf8:	5f                   	pop    %edi
    3cf9:	6d                   	insl   (%dx),%es:(%edi)
    3cfa:	73 67                	jae    3d63 <portrng_empty+0x313>
    3cfc:	28 25 70 2c 20 25    	sub    %ah,0x25202c70
    3d02:	70 2c                	jo     3d30 <portrng_empty+0x2e0>
    3d04:	20 25 70 29 00 00    	and    %ah,0x2970
    3d0a:	00 00                	add    %al,(%eax)
    3d0c:	75 64                	jne    3d72 <portrng_empty+0x322>
    3d0e:	70 5f                	jo     3d6f <portrng_empty+0x31f>
    3d10:	72 6d                	jb     3d7f <portrng_empty+0x32f>
    3d12:	73 67                	jae    3d7b <portrng_empty+0x32b>
    3d14:	5f                   	pop    %edi
    3d15:	69 6e 66 6f 5f 73 72 	imul   $0x72735f6f,0x66(%esi),%ebp
    3d1c:	76 28                	jbe    3d46 <portrng_empty+0x2f6>
    3d1e:	29 3a                	sub    %edi,(%edx)
    3d20:	20 61 73             	and    %ah,0x73(%ecx)
    3d23:	73 6f                	jae    3d94 <portrng_empty+0x344>
    3d25:	63 5f 69             	arpl   %bx,0x69(%edi)
    3d28:	64 3d 25 7a 75 2c    	fs cmp $0x2c757a25,%eax
    3d2e:	20 73 69             	and    %dh,0x69(%ebx)
    3d31:	7a 65                	jp     3d98 <portrng_empty+0x348>
    3d33:	3d 25 7a 75 00       	cmp    $0x757a25,%eax
    3d38:	75 64                	jne    3d9e <portrng_empty+0x34e>
    3d3a:	70 5f                	jo     3d9b <portrng_empty+0x34b>
    3d3c:	63 6c 69 65          	arpl   %bp,0x65(%ecx,%ebp,2)
    3d40:	6e                   	outsb  %ds:(%esi),(%dx)
    3d41:	74 5f                	je     3da2 <portrng_empty+0x352>
    3d43:	63 6f 6e             	arpl   %bp,0x6e(%edi)
    3d46:	6e                   	outsb  %ds:(%esi),(%dx)
    3d47:	3a 20                	cmp    (%eax),%ah
    3d49:	43                   	inc    %ebx
    3d4a:	6c                   	insb   (%dx),%es:(%edi)
    3d4b:	69 65 6e 74 20 77 69 	imul   $0x69772074,0x6e(%ebp),%esp
    3d52:	74 68                	je     3dbc <portrng_empty+0x36c>
    3d54:	20 25 6c 75 20 61    	and    %ah,0x6120756c
    3d5a:	63 74 69 76          	arpl   %si,0x76(%ecx,%ebp,2)
    3d5e:	65 20 61 73          	and    %ah,%gs:0x73(%ecx)
    3d62:	73 6f                	jae    3dd3 <portrng_empty+0x383>
    3d64:	63 69 61             	arpl   %bp,0x61(%ecx)
    3d67:	74 69                	je     3dd2 <portrng_empty+0x382>
    3d69:	6f                   	outsl  %ds:(%esi),(%dx)
    3d6a:	6e                   	outsb  %ds:(%esi),(%dx)
    3d6b:	73 20                	jae    3d8d <portrng_empty+0x33d>
    3d6d:	63 6c 6f 73          	arpl   %bp,0x73(%edi,%ebp,2)
    3d71:	65 64 20 73 65       	gs and %dh,%fs:0x65(%ebx)
    3d76:	73 73                	jae    3deb <portrng_empty+0x39b>
    3d78:	69 6f 6e 2e 00 00 00 	imul   $0x2e,0x6e(%edi),%ebp
    3d7f:	00 75 73             	add    %dh,0x73(%ebp)
    3d82:	67 5f                	addr16 pop %edi
    3d84:	72 6d                	jb     3df3 <portrng_empty+0x3a3>
    3d86:	73 67                	jae    3def <portrng_empty+0x39f>
    3d88:	5f                   	pop    %edi
    3d89:	64 69 73 63 61 72 64 	imul   $0x5f647261,%fs:0x63(%ebx),%esi
    3d90:	5f 
    3d91:	73 72                	jae    3e05 <portrng_empty+0x3b5>
    3d93:	76 3a                	jbe    3dcf <portrng_empty+0x37f>
    3d95:	20 65 6e             	and    %ah,0x6e(%ebp)
    3d98:	65 78 74             	gs js  3e0f <portrng_empty+0x3bf>
    3d9b:	3d 3d 4e 55 4c       	cmp    $0x4c554e3d,%eax
    3da0:	4c                   	dec    %esp
    3da1:	00 75 64             	add    %dh,0x64(%ebp)
    3da4:	70 5f                	jo     3e05 <portrng_empty+0x3b5>
    3da6:	65 76 5f             	gs jbe 3e08 <portrng_empty+0x3b8>
    3da9:	64 61                	fs popa 
    3dab:	74 61                	je     3e0e <portrng_empty+0x3be>
    3dad:	28 29                	sub    %ch,(%ecx)
    3daf:	00 75 64             	add    %dh,0x64(%ebp)
    3db2:	70 5f                	jo     3e13 <portrng_empty+0x3c3>
    3db4:	63 6c 69 65          	arpl   %bp,0x65(%ecx,%ebp,2)
    3db8:	6e                   	outsb  %ds:(%esi),(%dx)
    3db9:	74 5f                	je     3e1a <portrng_empty+0x3ca>
    3dbb:	63 6f 6e             	arpl   %bp,0x6e(%edi)
    3dbe:	6e                   	outsb  %ds:(%esi),(%dx)
    3dbf:	28 29                	sub    %ch,(%ecx)
    3dc1:	00 75 64             	add    %dh,0x64(%ebp)
    3dc4:	70 5f                	jo     3e25 <portrng_empty+0x3d5>
    3dc6:	63 6c 69 65          	arpl   %bp,0x65(%ecx,%ebp,2)
    3dca:	6e                   	outsb  %ds:(%esi),(%dx)
    3dcb:	74 5f                	je     3e2c <portrng_empty+0x3dc>
    3dcd:	63 6f 6e             	arpl   %bp,0x6e(%edi)
    3dd0:	6e                   	outsb  %ds:(%esi),(%dx)
    3dd1:	3a 20                	cmp    (%eax),%ah
    3dd3:	77 61                	ja     3e36 <portrng_empty+0x3e6>
    3dd5:	69 74 20 72 65 71 00 	imul   $0x75007165,0x72(%eax,%eiz,1),%esi
    3ddc:	75 
    3ddd:	64 70 5f             	fs jo  3e3f <portrng_empty+0x3ef>
    3de0:	63 6c 69 65          	arpl   %bp,0x65(%ecx,%ebp,2)
    3de4:	6e                   	outsb  %ds:(%esi),(%dx)
    3de5:	74 5f                	je     3e46 <portrng_empty+0x3f6>
    3de7:	63 6f 6e             	arpl   %bp,0x6e(%edi)
    3dea:	6e                   	outsb  %ds:(%esi),(%dx)
    3deb:	3a 20                	cmp    (%eax),%ah
    3ded:	6d                   	insl   (%dx),%es:(%edi)
    3dee:	65 74 68             	gs je  3e59 <portrng_empty+0x409>
    3df1:	6f                   	outsl  %ds:(%esi),(%dx)
    3df2:	64 3d 25 64 00 75    	fs cmp $0x75006425,%eax
    3df8:	64 70 5f             	fs jo  3e5a <portrng_empty+0x40a>
    3dfb:	63 6c 69 65          	arpl   %bp,0x65(%ecx,%ebp,2)
    3dff:	6e                   	outsb  %ds:(%esi),(%dx)
    3e00:	74 5f                	je     3e61 <portrng_empty+0x411>
    3e02:	63 6f 6e             	arpl   %bp,0x6e(%edi)
    3e05:	6e                   	outsb  %ds:(%esi),(%dx)
    3e06:	3a 20                	cmp    (%eax),%ah
    3e08:	74 65                	je     3e6f <portrng_empty+0x41f>
    3e0a:	72 6d                	jb     3e79 <portrng_empty+0x429>
    3e0c:	69 6e 61 74 65 64 00 	imul   $0x646574,0x61(%esi),%ebp
    3e13:	75 64                	jne    3e79 <portrng_empty+0x429>
    3e15:	70 5f                	jo     3e76 <portrng_empty+0x426>
    3e17:	63 61 6c             	arpl   %sp,0x6c(%ecx)
    3e1a:	6c                   	insb   (%dx),%es:(%edi)
    3e1b:	62 61 63             	bound  %esp,0x63(%ecx)
    3e1e:	6b 5f 63 72          	imul   $0x72,0x63(%edi),%ebx
    3e22:	65 61                	gs popa 
    3e24:	74 65                	je     3e8b <portrng_empty+0x43b>
    3e26:	5f                   	pop    %edi
    3e27:	73 72                	jae    3e9b <portrng_empty+0x44b>
    3e29:	76 28                	jbe    3e53 <portrng_empty+0x403>
    3e2b:	29 00                	sub    %eax,(%eax)
    3e2d:	75 64                	jne    3e93 <portrng_empty+0x443>
    3e2f:	70 5f                	jo     3e90 <portrng_empty+0x440>
    3e31:	61                   	popa   
    3e32:	73 73                	jae    3ea7 <portrng_empty+0x457>
    3e34:	6f                   	outsl  %ds:(%esi),(%dx)
    3e35:	63 5f 63             	arpl   %bx,0x63(%edi)
    3e38:	72 65                	jb     3e9f <portrng_empty+0x44f>
    3e3a:	61                   	popa   
    3e3b:	74 65                	je     3ea2 <portrng_empty+0x452>
    3e3d:	5f                   	pop    %edi
    3e3e:	73 72                	jae    3eb2 <portrng_empty+0x462>
    3e40:	76 28                	jbe    3e6a <portrng_empty+0x41a>
    3e42:	29 00                	sub    %eax,(%eax)
    3e44:	75 64                	jne    3eaa <portrng_empty+0x45a>
    3e46:	70 5f                	jo     3ea7 <portrng_empty+0x457>
    3e48:	61                   	popa   
    3e49:	73 73                	jae    3ebe <portrng_empty+0x46e>
    3e4b:	6f                   	outsl  %ds:(%esi),(%dx)
    3e4c:	63 5f 63             	arpl   %bx,0x63(%edi)
    3e4f:	72 65                	jb     3eb6 <portrng_empty+0x466>
    3e51:	61                   	popa   
    3e52:	74 65                	je     3eb9 <portrng_empty+0x469>
    3e54:	5f                   	pop    %edi
    3e55:	69 6d 70 6c 00 75 64 	imul   $0x6475006c,0x70(%ebp),%ebp
    3e5c:	70 5f                	jo     3ebd <portrng_empty+0x46d>
    3e5e:	61                   	popa   
    3e5f:	73 73                	jae    3ed4 <portrng_empty+0x484>
    3e61:	6f                   	outsl  %ds:(%esi),(%dx)
    3e62:	63 5f 64             	arpl   %bx,0x64(%edi)
    3e65:	65 73 74             	gs jae 3edc <portrng_empty+0x48c>
    3e68:	72 6f                	jb     3ed9 <portrng_empty+0x489>
    3e6a:	79 5f                	jns    3ecb <portrng_empty+0x47b>
    3e6c:	73 72                	jae    3ee0 <portrng_empty+0x490>
    3e6e:	76 28                	jbe    3e98 <portrng_empty+0x448>
    3e70:	29 00                	sub    %eax,(%eax)
    3e72:	75 64                	jne    3ed8 <portrng_empty+0x488>
    3e74:	70 5f                	jo     3ed5 <portrng_empty+0x485>
    3e76:	61                   	popa   
    3e77:	73 73                	jae    3eec <portrng_empty+0x49c>
    3e79:	6f                   	outsl  %ds:(%esi),(%dx)
    3e7a:	63 5f 73             	arpl   %bx,0x73(%edi)
    3e7d:	65 6e                	outsb  %gs:(%esi),(%dx)
    3e7f:	64 5f                	fs pop %edi
    3e81:	6d                   	insl   (%dx),%es:(%edi)
    3e82:	73 67                	jae    3eeb <portrng_empty+0x49b>
    3e84:	5f                   	pop    %edi
    3e85:	73 72                	jae    3ef9 <portrng_empty+0x4a9>
    3e87:	76 28                	jbe    3eb1 <portrng_empty+0x461>
    3e89:	29 00                	sub    %eax,(%eax)
    3e8b:	75 64                	jne    3ef1 <portrng_empty+0x4a1>
    3e8d:	70 5f                	jo     3eee <portrng_empty+0x49e>
    3e8f:	72 6d                	jb     3efe <portrng_empty+0x4ae>
    3e91:	73 67                	jae    3efa <portrng_empty+0x4aa>
    3e93:	5f                   	pop    %edi
    3e94:	69 6e 66 6f 5f 73 72 	imul   $0x72735f6f,0x66(%esi),%ebp
    3e9b:	76 28                	jbe    3ec5 <portrng_empty+0x475>
    3e9d:	29 00                	sub    %eax,(%eax)
    3e9f:	75 64                	jne    3f05 <portrng_empty+0x4b5>
    3ea1:	70 5f                	jo     3f02 <portrng_empty+0x4b2>
    3ea3:	72 6d                	jb     3f12 <portrng_empty+0x4c2>
    3ea5:	73 67                	jae    3f0e <portrng_empty+0x4be>
    3ea7:	5f                   	pop    %edi
    3ea8:	72 65                	jb     3f0f <portrng_empty+0x4bf>
    3eaa:	61                   	popa   
    3eab:	64 5f                	fs pop %edi
    3ead:	73 72                	jae    3f21 <portrng_empty+0x4d1>
    3eaf:	76 28                	jbe    3ed9 <portrng_empty+0x489>
    3eb1:	29 00                	sub    %eax,(%eax)
    3eb3:	75 64                	jne    3f19 <portrng_empty+0x4c9>
    3eb5:	70 5f                	jo     3f16 <portrng_empty+0x4c6>
    3eb7:	72 6d                	jb     3f26 <portrng_empty+0x4d6>
    3eb9:	73 67                	jae    3f22 <portrng_empty+0x4d2>
    3ebb:	5f                   	pop    %edi
    3ebc:	72 65                	jb     3f23 <portrng_empty+0x4d3>
    3ebe:	61                   	popa   
    3ebf:	64 5f                	fs pop %edi
    3ec1:	73 72                	jae    3f35 <portrng_empty+0x4e5>
    3ec3:	76 28                	jbe    3eed <portrng_empty+0x49d>
    3ec5:	29 3a                	sub    %edi,(%edx)
    3ec7:	20 4f 4b             	and    %cl,0x4b(%edi)
    3eca:	00 75 64             	add    %dh,0x64(%ebp)
    3ecd:	70 5f                	jo     3f2e <portrng_empty+0x4de>
    3ecf:	72 6d                	jb     3f3e <portrng_empty+0x4ee>
    3ed1:	73 67                	jae    3f3a <portrng_empty+0x4ea>
    3ed3:	5f                   	pop    %edi
    3ed4:	64 69 73 63 61 72 64 	imul   $0x5f647261,%fs:0x63(%ebx),%esi
    3edb:	5f 
    3edc:	73 72                	jae    3f50 <portrng_empty+0x500>
    3ede:	76 28                	jbe    3f08 <portrng_empty+0x4b8>
    3ee0:	29 00                	sub    %eax,(%eax)
    3ee2:	46                   	inc    %esi
    3ee3:	61                   	popa   
    3ee4:	69 6c 65 64 20 72 65 	imul   $0x67657220,0x64(%ebp,%eiz,2),%ebp
    3eeb:	67 
    3eec:	69 73 74 65 72 69 6e 	imul   $0x6e697265,0x74(%ebx),%esi
    3ef3:	67 20 73 65          	and    %dh,0x65(%bp,%di)
    3ef7:	72 76                	jb     3f6f <portrng_empty+0x51f>
    3ef9:	65 72 2e             	gs jb  3f2a <portrng_empty+0x4da>
    3efc:	00 6e 65             	add    %ch,0x65(%esi)
    3eff:	74 2f                	je     3f30 <portrng_empty+0x4e0>
    3f01:	75 64                	jne    3f67 <portrng_empty+0x517>
    3f03:	70 00                	jo     3f05 <portrng_empty+0x4b5>
    3f05:	46                   	inc    %esi
    3f06:	61                   	popa   
    3f07:	69 6c 65 64 20 72 65 	imul   $0x67657220,0x64(%ebp,%eiz,2),%ebp
    3f0e:	67 
    3f0f:	69 73 74 65 72 69 6e 	imul   $0x6e697265,0x74(%ebx),%esi
    3f16:	67 20 73 65          	and    %dh,0x65(%bp,%di)
    3f1a:	72 76                	jb     3f92 <portrng_empty+0x542>
    3f1c:	69 63 65 2e 00 66 90 	imul   $0x9066002e,0x65(%ebx),%esp
    3f23:	90                   	nop
    3f24:	68 23 00 00 e0       	push   $0xe0000023
    3f29:	20 00                	and    %al,(%eax)
    3f2b:	00 80 20 00 00 a0    	add    %al,-0x5fffffe0(%eax)
    3f31:	22 00                	and    (%eax),%al
    3f33:	00 f0                	add    %dh,%al
    3f35:	21 00                	and    %eax,(%eax)
    3f37:	00 48 21             	add    %cl,0x21(%eax)
    3f3a:	00 00                	add    %al,(%eax)
    3f3c:	f0 22 00             	lock and (%eax),%al
    3f3f:	00 75 64             	add    %dh,0x64(%ebp)
    3f42:	70 3a                	jo     3f7e <portrng_empty+0x52e>
    3f44:	20 55 44             	and    %dl,0x44(%ebp)
    3f47:	50                   	push   %eax
    3f48:	20 28                	and    %ch,(%eax)
    3f4a:	55                   	push   %ebp
    3f4b:	73 65                	jae    3fb2 <portrng_empty+0x562>
    3f4d:	72 20                	jb     3f6f <portrng_empty+0x51f>
    3f4f:	44                   	inc    %esp
    3f50:	61                   	popa   
    3f51:	74 61                	je     3fb4 <portrng_empty+0x564>
    3f53:	67 72 61             	addr16 jb 3fb7 <portrng_empty+0x567>
    3f56:	6d                   	insl   (%dx),%es:(%edi)
    3f57:	20 50 72             	and    %dl,0x72(%eax)
    3f5a:	6f                   	outsl  %ds:(%esi),(%dx)
    3f5b:	74 6f                	je     3fcc <portrng_empty+0x57c>
    3f5d:	63 6f 6c             	arpl   %bp,0x6c(%edi)
    3f60:	29 20                	sub    %esp,(%eax)
    3f62:	73 65                	jae    3fc9 <portrng_empty+0x579>
    3f64:	72 76                	jb     3fdc <portrng_empty+0x58c>
    3f66:	69 63 65 0a 00 00 75 	imul   $0x7500000a,0x65(%ebx),%esp
    3f6d:	64 70 3a             	fs jo  3faa <portrng_empty+0x55a>
    3f70:	20 46 61             	and    %al,0x61(%esi)
    3f73:	69 6c 65 64 20 74 6f 	imul   $0x206f7420,0x64(%ebp,%eiz,2),%ebp
    3f7a:	20 
    3f7b:	69 6e 69 74 69 61 6c 	imul   $0x6c616974,0x69(%esi),%ebp
    3f82:	69 7a 65 20 6c 6f 67 	imul   $0x676f6c20,0x65(%edx),%edi
    3f89:	2e 0a 00             	or     %cs:(%eax),%al
    3f8c:	46                   	inc    %esi
    3f8d:	61                   	popa   
    3f8e:	69 6c 65 64 20 69 6e 	imul   $0x696e6920,0x64(%ebp,%eiz,2),%ebp
    3f95:	69 
    3f96:	74 69                	je     4001 <portrng_empty+0x5b1>
    3f98:	61                   	popa   
    3f99:	6c                   	insb   (%dx),%es:(%edi)
    3f9a:	69 7a 69 6e 67 20 61 	imul   $0x6120676e,0x69(%edx),%edi
    3fa1:	73 73                	jae    4016 <portrng_empty+0x5c6>
    3fa3:	6f                   	outsl  %ds:(%esi),(%dx)
    3fa4:	63 69 61             	arpl   %bp,0x61(%ecx)
    3fa7:	74 69                	je     4012 <portrng_empty+0x5c2>
    3fa9:	6f                   	outsl  %ds:(%esi),(%dx)
    3faa:	6e                   	outsb  %ds:(%esi),(%dx)
    3fab:	73 2e                	jae    3fdb <portrng_empty+0x58b>
    3fad:	00 00                	add    %al,(%eax)
    3faf:	00 46 61             	add    %al,0x61(%esi)
    3fb2:	69 6c 65 64 20 63 6f 	imul   $0x6e6f6320,0x64(%ebp,%eiz,2),%ebp
    3fb9:	6e 
    3fba:	6e                   	outsb  %ds:(%esi),(%dx)
    3fbb:	65 63 74 69 6e       	arpl   %si,%gs:0x6e(%ecx,%ebp,2)
    3fc0:	67 20 74 6f          	and    %dh,0x6f(%si)
    3fc4:	20 69 6e             	and    %ch,0x6e(%ecx)
    3fc7:	74 65                	je     402e <portrng_empty+0x5de>
    3fc9:	72 6e                	jb     4039 <portrng_empty+0x5e9>
    3fcb:	65 74 20             	gs je  3fee <portrng_empty+0x59e>
    3fce:	73 65                	jae    4035 <portrng_empty+0x5e5>
    3fd0:	72 76                	jb     4048 <portrng_empty+0x5f8>
    3fd2:	69 63 65 2e 00 00 46 	imul   $0x4600002e,0x65(%ebx),%esp
    3fd9:	61                   	popa   
    3fda:	69 6c 65 64 20 69 6e 	imul   $0x696e6920,0x64(%ebp,%eiz,2),%ebp
    3fe1:	69 
    3fe2:	74 69                	je     404d <portrng_empty+0x5fd>
    3fe4:	61                   	popa   
    3fe5:	6c                   	insb   (%dx),%es:(%edi)
    3fe6:	69 7a 69 6e 67 20 55 	imul   $0x5520676e,0x69(%edx),%edi
    3fed:	44                   	inc    %esp
    3fee:	50                   	push   %eax
    3fef:	20 73 65             	and    %dh,0x65(%ebx)
    3ff2:	72 76                	jb     406a <portrng_empty+0x61a>
    3ff4:	69 63 65 2e 00 75 64 	imul   $0x6475002e,0x65(%ebx),%esp
    3ffb:	70 5f                	jo     405c <portrng_empty+0x60c>
    3ffd:	69 6e 69 74 28 29 00 	imul   $0x292874,0x69(%esi),%ebp
    4004:	75 64                	jne    406a <portrng_empty+0x61a>
    4006:	70 3a                	jo     4042 <portrng_empty+0x5f2>
    4008:	20 41 63             	and    %al,0x63(%ecx)
    400b:	63 65 70             	arpl   %sp,0x70(%ebp)
    400e:	74 69                	je     4079 <portrng_empty+0x629>
    4010:	6e                   	outsb  %ds:(%esi),(%dx)
    4011:	67 20 63 6f          	and    %ah,0x6f(%bp,%di)
    4015:	6e                   	outsb  %ds:(%esi),(%dx)
    4016:	6e                   	outsb  %ds:(%esi),(%dx)
    4017:	65 63 74 69 6f       	arpl   %si,%gs:0x6f(%ecx,%ebp,2)
    401c:	6e                   	outsb  %ds:(%esi),(%dx)
    401d:	73 2e                	jae    404d <portrng_empty+0x5fd>
    401f:	0a 00                	or     (%eax),%al
    4021:	75 64                	jne    4087 <portrng_empty+0x637>
    4023:	70 5f                	jo     4084 <portrng_empty+0x634>
    4025:	69 6e 65 74 5f 65 76 	imul   $0x76655f74,0x65(%esi),%ebp
    402c:	5f                   	pop    %edi
    402d:	72 65                	jb     4094 <portrng_empty+0x644>
    402f:	63 76 28             	arpl   %si,0x28(%esi)
    4032:	29 00                	sub    %eax,(%eax)
    4034:	75 64                	jne    409a <portrng_empty+0x64a>
    4036:	70 5f                	jo     4097 <portrng_empty+0x647>
    4038:	72 65                	jb     409f <portrng_empty+0x64f>
    403a:	63 65 69             	arpl   %sp,0x69(%ebp)
    403d:	76 65                	jbe    40a4 <portrng_empty+0x654>
    403f:	64 5f                	fs pop %edi
    4041:	70 64                	jo     40a7 <portrng_empty+0x657>
    4043:	75 28                	jne    406d <portrng_empty+0x61d>
    4045:	29 00                	sub    %eax,(%eax)
    4047:	75 64                	jne    40ad <portrng_empty+0x65d>
    4049:	70 5f                	jo     40aa <portrng_empty+0x65a>
    404b:	74 72                	je     40bf <portrng_empty+0x66f>
    404d:	61                   	popa   
    404e:	6e                   	outsb  %ds:(%esi),(%dx)
    404f:	73 6d                	jae    40be <portrng_empty+0x66e>
    4051:	69 74 5f 70 64 75 28 	imul   $0x29287564,0x70(%edi,%ebx,2),%esi
    4058:	29 
    4059:	00 46 61             	add    %al,0x61(%esi)
    405c:	69 6c 65 64 20 74 6f 	imul   $0x206f7420,0x64(%ebp,%eiz,2),%ebp
    4063:	20 
    4064:	74 72                	je     40d8 <portrng_empty+0x688>
    4066:	61                   	popa   
    4067:	6e                   	outsb  %ds:(%esi),(%dx)
    4068:	73 6d                	jae    40d7 <portrng_empty+0x687>
    406a:	69 74 20 50 44 55 2e 	imul   $0x2e5544,0x50(%eax,%eiz,1),%esi
    4071:	00 
    4072:	75 64                	jne    40d8 <portrng_empty+0x688>
    4074:	70 5f                	jo     40d5 <portrng_empty+0x685>
    4076:	69 6e 65 74 5f 69 6e 	imul   $0x6e695f74,0x65(%esi),%ebp
    407d:	69 74 28 29 00 66 90 	imul   $0x4e906600,0x29(%eax,%ebp,1),%esi
    4084:	4e 
    4085:	6f                   	outsl  %ds:(%esi),(%dx)
    4086:	74 20                	je     40a8 <portrng_empty+0x658>
    4088:	65 6e                	outsb  %gs:(%esi),(%dx)
    408a:	6f                   	outsl  %ds:(%esi),(%dx)
    408b:	75 67                	jne    40f4 <portrng_empty+0x6a4>
    408d:	68 20 6d 65 6d       	push   $0x6d656d20
    4092:	6f                   	outsl  %ds:(%esi),(%dx)
    4093:	72 79                	jb     410e <portrng_empty+0x6be>
    4095:	2e 20 50 44          	and    %dl,%cs:0x44(%eax)
    4099:	55                   	push   %ebp
    409a:	20 64 72 6f          	and    %ah,0x6f(%edx,%esi,2)
    409e:	70 70                	jo     4110 <portrng_empty+0x6c0>
    40a0:	65 64 2e 00 61 6d    	gs fs add %ah,%cs:0x6d(%ecx)
    40a6:	61                   	popa   
    40a7:	70 5f                	jo     4108 <portrng_empty+0x6b8>
    40a9:	72 65                	jb     4110 <portrng_empty+0x6c0>
    40ab:	70 6c                	jo     4119 <portrng_empty+0x6c9>
    40ad:	61                   	popa   
    40ae:	5f                   	pop    %edi
    40af:	66 69 6e 64 28 29    	imul   $0x2928,0x64(%esi),%bp
    40b5:	3a 20                	cmp    (%eax),%ah
    40b7:	72 65                	jb     411e <portrng_empty+0x6ce>
    40b9:	70 3d                	jo     40f8 <portrng_empty+0x6a8>
    40bb:	28 25 73 2c 25 68    	sub    %ah,0x68252c73
    40c1:	75 29                	jne    40ec <portrng_empty+0x69c>
    40c3:	20 6c 61 3d          	and    %ch,0x3d(%ecx,%eiz,2)
    40c7:	25 73 00 00 00       	and    $0x73,%eax
    40cc:	61                   	popa   
    40cd:	6d                   	insl   (%dx),%es:(%edi)
    40ce:	61                   	popa   
    40cf:	70 5f                	jo     4130 <portrng_empty+0x6e0>
    40d1:	72 65                	jb     4138 <portrng_empty+0x6e8>
    40d3:	70 6c                	jo     4141 <portrng_empty+0x6f1>
    40d5:	61                   	popa   
    40d6:	5f                   	pop    %edi
    40d7:	66 69 6e 64 28 29    	imul   $0x2928,0x64(%esi),%bp
    40dd:	3a 20                	cmp    (%eax),%ah
    40df:	63 6f 6d             	arpl   %bp,0x6d(%edi)
    40e2:	70 61                	jo     4145 <portrng_empty+0x6f5>
    40e4:	72 65                	jb     414b <portrng_empty+0x6fb>
    40e6:	20 74 6f 20          	and    %dh,0x20(%edi,%ebp,2)
    40ea:	72 65                	jb     4151 <portrng_empty+0x701>
    40ec:	70 3d                	jo     412b <portrng_empty+0x6db>
    40ee:	28 25 73 2c 20 25    	sub    %ah,0x25202c73
    40f4:	68 75 29 20 6c       	push   $0x6c202975
    40f9:	61                   	popa   
    40fa:	3d 25 73 00 00       	cmp    $0x7325,%eax
    40ff:	00 61 6d             	add    %ah,0x6d(%ecx)
    4102:	61                   	popa   
    4103:	70 5f                	jo     4164 <portrng_empty+0x714>
    4105:	69 6e 73 65 72 74 3a 	imul   $0x3a747265,0x73(%esi),%ebp
    410c:	20 64 65 74          	and    %ah,0x74(%ebp,%eiz,2)
    4110:	65 72 6d             	gs jb  4180 <portrng_empty+0x730>
    4113:	69 6e 65 20 6c 6f 63 	imul   $0x636f6c20,0x65(%esi),%ebp
    411a:	61                   	popa   
    411b:	6c                   	insb   (%dx),%es:(%edi)
    411c:	20 61 64             	and    %ah,0x64(%ecx)
    411f:	64 72 65             	fs jb  4187 <portrng_empty+0x737>
    4122:	73 73                	jae    4197 <portrng_empty+0x747>
    4124:	00 00                	add    %al,(%eax)
    4126:	00 00                	add    %al,(%eax)
    4128:	61                   	popa   
    4129:	6d                   	insl   (%dx),%es:(%edi)
    412a:	61                   	popa   
    412b:	70 5f                	jo     418c <portrng_empty+0x73c>
    412d:	69 6e 73 65 72 74 3a 	imul   $0x3a747265,0x73(%esi),%ebp
    4134:	20 63 61             	and    %ah,0x61(%ebx)
    4137:	6e                   	outsb  %ds:(%esi),(%dx)
    4138:	6e                   	outsb  %ds:(%esi),(%dx)
    4139:	6f                   	outsl  %ds:(%esi),(%dx)
    413a:	74 20                	je     415c <portrng_empty+0x70c>
    413c:	64 65 74 65          	fs gs je 41a5 <portrng_empty+0x755>
    4140:	72 6d                	jb     41af <portrng_empty+0x75f>
    4142:	69 6e 65 20 6c 6f 63 	imul   $0x636f6c20,0x65(%esi),%ebp
    4149:	61                   	popa   
    414a:	6c                   	insb   (%dx),%es:(%edi)
    414b:	20 61 64             	and    %ah,0x64(%ecx)
    414e:	64 72 65             	fs jb  41b6 <portrng_empty+0x766>
    4151:	73 73                	jae    41c6 <portrng_empty+0x776>
    4153:	00 61 6d             	add    %ah,0x6d(%ecx)
    4156:	61                   	popa   
    4157:	70 5f                	jo     41b8 <portrng_empty+0x768>
    4159:	69 6e 73 65 72 74 3a 	imul   $0x3a747265,0x73(%esi),%ebp
    4160:	20 6c 6f 63          	and    %ch,0x63(%edi,%ebp,2)
    4164:	61                   	popa   
    4165:	6c                   	insb   (%dx),%es:(%edi)
    4166:	20 61 64             	and    %ah,0x64(%ecx)
    4169:	64 72 65             	fs jb  41d1 <portrng_empty+0x781>
    416c:	73 73                	jae    41e1 <portrng_empty+0x791>
    416e:	20 73 70             	and    %dh,0x70(%ebx)
    4171:	65 63 69 66          	arpl   %bp,%gs:0x66(%ecx)
    4175:	69 65 64 20 6f 72 20 	imul   $0x20726f20,0x64(%ebp),%esp
    417c:	72 65                	jb     41e3 <portrng_empty+0x793>
    417e:	6d                   	insl   (%dx),%es:(%edi)
    417f:	6f                   	outsl  %ds:(%esi),(%dx)
    4180:	74 65                	je     41e7 <portrng_empty+0x797>
    4182:	20 61 64             	and    %ah,0x64(%ecx)
    4185:	64 72 65             	fs jb  41ed <portrng_empty+0x79d>
    4188:	73 73                	jae    41fd <portrng_empty+0x7ad>
    418a:	20 6e 6f             	and    %ch,0x6f(%esi)
    418d:	74 20                	je     41af <portrng_empty+0x75f>
    418f:	73 70                	jae    4201 <portrng_empty+0x7b1>
    4191:	65 63 69 66          	arpl   %bp,%gs:0x66(%ecx)
    4195:	69 65 64 00 00 00 00 	imul   $0x0,0x64(%ebp),%esp
    419c:	61                   	popa   
    419d:	6d                   	insl   (%dx),%es:(%edi)
    419e:	61                   	popa   
    419f:	70 5f                	jo     4200 <portrng_empty+0x7b0>
    41a1:	69 6e 73 65 72 74 3a 	imul   $0x3a747265,0x73(%esi),%ebp
    41a8:	20 69 6e             	and    %ch,0x6e(%ecx)
    41ab:	76 61                	jbe    420e <portrng_empty+0x7be>
    41ad:	6c                   	insb   (%dx),%es:(%edi)
    41ae:	69 64 20 63 6f 6d 62 	imul   $0x69626d6f,0x63(%eax,%eiz,1),%esp
    41b5:	69 
    41b6:	6e                   	outsb  %ds:(%esi),(%dx)
    41b7:	61                   	popa   
    41b8:	74 69                	je     4223 <portrng_empty+0x7d3>
    41ba:	6f                   	outsl  %ds:(%esi),(%dx)
    41bb:	6e                   	outsb  %ds:(%esi),(%dx)
    41bc:	20 6f 66             	and    %ch,0x66(%edi)
    41bf:	20 72 61             	and    %dh,0x61(%edx)
    41c2:	64 64 72 3d          	fs fs jb 4203 <portrng_empty+0x7b3>
    41c6:	25 64 20 72 70       	and    $0x70722064,%eax
    41cb:	6f                   	outsl  %ds:(%esi),(%dx)
    41cc:	72 74                	jb     4242 <portrng_empty+0x7f2>
    41ce:	3d 25 64 20 6c       	cmp    $0x6c206425,%eax
    41d3:	61                   	popa   
    41d4:	64 64 72 3d          	fs fs jb 4215 <portrng_empty+0x7c5>
    41d8:	25 64 20 6c 6c       	and    $0x6c6c2064,%eax
    41dd:	69 6e 6b 3d 25 64 00 	imul   $0x64253d,0x6b(%esi),%ebp
    41e4:	61                   	popa   
    41e5:	6d                   	insl   (%dx),%es:(%edi)
    41e6:	61                   	popa   
    41e7:	70 5f                	jo     4248 <portrng_empty+0x7f8>
    41e9:	72 65                	jb     4250 <portrng_empty+0x800>
    41eb:	6d                   	insl   (%dx),%es:(%edi)
    41ec:	6f                   	outsl  %ds:(%esi),(%dx)
    41ed:	76 65                	jbe    4254 <portrng_empty+0x804>
    41ef:	3a 20                	cmp    (%eax),%ah
    41f1:	69 6e 76 61 6c 69 64 	imul   $0x64696c61,0x76(%esi),%ebp
    41f8:	20 63 6f             	and    %ah,0x6f(%ebx)
    41fb:	6d                   	insl   (%dx),%es:(%edi)
    41fc:	62 69 6e             	bound  %ebp,0x6e(%ecx)
    41ff:	61                   	popa   
    4200:	74 69                	je     426b <portrng_empty+0x81b>
    4202:	6f                   	outsl  %ds:(%esi),(%dx)
    4203:	6e                   	outsb  %ds:(%esi),(%dx)
    4204:	20 6f 66             	and    %ch,0x66(%edi)
    4207:	20 72 61             	and    %dh,0x61(%edx)
    420a:	64 64 72 3d          	fs fs jb 424b <portrng_empty+0x7fb>
    420e:	25 64 20 72 70       	and    $0x70722064,%eax
    4213:	6f                   	outsl  %ds:(%esi),(%dx)
    4214:	72 74                	jb     428a <portrng_empty+0x83a>
    4216:	3d 25 64 20 6c       	cmp    $0x6c206425,%eax
    421b:	61                   	popa   
    421c:	64 64 72 3d          	fs fs jb 425d <portrng_empty+0x80d>
    4220:	25 64 20 6c 6c       	and    $0x6c6c2064,%eax
    4225:	69 6e 6b 3d 25 64 00 	imul   $0x64253d,0x6b(%esi),%ebp
    422c:	61                   	popa   
    422d:	6d                   	insl   (%dx),%es:(%edi)
    422e:	61                   	popa   
    422f:	70 5f                	jo     4290 <portrng_empty+0x840>
    4231:	63 72 65             	arpl   %si,0x65(%edx)
    4234:	61                   	popa   
    4235:	74 65                	je     429c <portrng_empty+0x84c>
    4237:	28 29                	sub    %ch,(%ecx)
    4239:	00 73 72             	add    %dh,0x72(%ebx)
    423c:	63 2f                	arpl   %bp,(%edi)
    423e:	61                   	popa   
    423f:	6d                   	insl   (%dx),%es:(%edi)
    4240:	61                   	popa   
    4241:	70 2e                	jo     4271 <portrng_empty+0x821>
    4243:	63 00                	arpl   %ax,(%eax)
    4245:	61                   	popa   
    4246:	6d                   	insl   (%dx),%es:(%edi)
    4247:	61                   	popa   
    4248:	70 5f                	jo     42a9 <portrng_empty+0x859>
    424a:	64 65 73 74          	fs gs jae 42c2 <portrng_empty+0x872>
    424e:	72 6f                	jb     42bf <portrng_empty+0x86f>
    4250:	79 28                	jns    427a <portrng_empty+0x82a>
    4252:	29 00                	sub    %eax,(%eax)
    4254:	61                   	popa   
    4255:	6d                   	insl   (%dx),%es:(%edi)
    4256:	61                   	popa   
    4257:	70 5f                	jo     42b8 <portrng_empty+0x868>
    4259:	69 6e 73 65 72 74 28 	imul   $0x28747265,0x73(%esi),%ebp
    4260:	29 00                	sub    %eax,(%eax)
    4262:	61                   	popa   
    4263:	6d                   	insl   (%dx),%es:(%edi)
    4264:	61                   	popa   
    4265:	70 5f                	jo     42c6 <portrng_empty+0x876>
    4267:	69 6e 73 65 72 74 5f 	imul   $0x5f747265,0x73(%esi),%ebp
    426e:	72 65                	jb     42d5 <portrng_empty+0x885>
    4270:	70 6c                	jo     42de <portrng_empty+0x88e>
    4272:	61                   	popa   
    4273:	28 29                	sub    %ch,(%ecx)
    4275:	00 61 6d             	add    %ah,0x6d(%ecx)
    4278:	61                   	popa   
    4279:	70 5f                	jo     42da <portrng_empty+0x88a>
    427b:	69 6e 73 65 72 74 5f 	imul   $0x5f747265,0x73(%esi),%ebp
    4282:	6c                   	insb   (%dx),%es:(%edi)
    4283:	61                   	popa   
    4284:	64 64 72 28          	fs fs jb 42b0 <portrng_empty+0x860>
    4288:	29 00                	sub    %eax,(%eax)
    428a:	61                   	popa   
    428b:	6d                   	insl   (%dx),%es:(%edi)
    428c:	61                   	popa   
    428d:	70 5f                	jo     42ee <portrng_empty+0x89e>
    428f:	69 6e 73 65 72 74 5f 	imul   $0x5f747265,0x73(%esi),%ebp
    4296:	6c                   	insb   (%dx),%es:(%edi)
    4297:	6c                   	insb   (%dx),%es:(%edi)
    4298:	69 6e 6b 28 29 00 61 	imul   $0x61002928,0x6b(%esi),%ebp
    429f:	6d                   	insl   (%dx),%es:(%edi)
    42a0:	61                   	popa   
    42a1:	70 5f                	jo     4302 <portrng_empty+0x8b2>
    42a3:	69 6e 73 65 72 74 5f 	imul   $0x5f747265,0x73(%esi),%ebp
    42aa:	75 6e                	jne    431a <portrng_empty+0x8ca>
    42ac:	73 70                	jae    431e <portrng_empty+0x8ce>
    42ae:	65 63 28             	arpl   %bp,%gs:(%eax)
    42b1:	29 00                	sub    %eax,(%eax)
    42b3:	61                   	popa   
    42b4:	6d                   	insl   (%dx),%es:(%edi)
    42b5:	61                   	popa   
    42b6:	70 5f                	jo     4317 <portrng_empty+0x8c7>
    42b8:	72 65                	jb     431f <portrng_empty+0x8cf>
    42ba:	6d                   	insl   (%dx),%es:(%edi)
    42bb:	6f                   	outsl  %ds:(%esi),(%dx)
    42bc:	76 65                	jbe    4323 <portrng_empty+0x8d3>
    42be:	28 29                	sub    %ch,(%ecx)
    42c0:	00 61 6d             	add    %ah,0x6d(%ecx)
    42c3:	61                   	popa   
    42c4:	70 5f                	jo     4325 <portrng_empty+0x8d5>
    42c6:	72 65                	jb     432d <portrng_empty+0x8dd>
    42c8:	6d                   	insl   (%dx),%es:(%edi)
    42c9:	6f                   	outsl  %ds:(%esi),(%dx)
    42ca:	76 65                	jbe    4331 <portrng_empty+0x8e1>
    42cc:	5f                   	pop    %edi
    42cd:	72 65                	jb     4334 <portrng_empty+0x8e4>
    42cf:	70 6c                	jo     433d <portrng_empty+0x8ed>
    42d1:	61                   	popa   
    42d2:	3a 20                	cmp    (%eax),%ah
    42d4:	6e                   	outsb  %ds:(%esi),(%dx)
    42d5:	6f                   	outsl  %ds:(%esi),(%dx)
    42d6:	74 20                	je     42f8 <portrng_empty+0x8a8>
    42d8:	66 6f                	outsw  %ds:(%esi),(%dx)
    42da:	75 6e                	jne    434a <portrng_empty+0x8fa>
    42dc:	64 00 61 6d          	add    %ah,%fs:0x6d(%ecx)
    42e0:	61                   	popa   
    42e1:	70 5f                	jo     4342 <portrng_empty+0x8f2>
    42e3:	72 65                	jb     434a <portrng_empty+0x8fa>
    42e5:	6d                   	insl   (%dx),%es:(%edi)
    42e6:	6f                   	outsl  %ds:(%esi),(%dx)
    42e7:	76 65                	jbe    434e <portrng_empty+0x8fe>
    42e9:	5f                   	pop    %edi
    42ea:	6c                   	insb   (%dx),%es:(%edi)
    42eb:	61                   	popa   
    42ec:	64 64 72 3a          	fs fs jb 432a <portrng_empty+0x8da>
    42f0:	20 6e 6f             	and    %ch,0x6f(%esi)
    42f3:	74 20                	je     4315 <portrng_empty+0x8c5>
    42f5:	66 6f                	outsw  %ds:(%esi),(%dx)
    42f7:	75 6e                	jne    4367 <portrng_empty+0x917>
    42f9:	64 00 61 6d          	add    %ah,%fs:0x6d(%ecx)
    42fd:	61                   	popa   
    42fe:	70 5f                	jo     435f <portrng_empty+0x90f>
    4300:	72 65                	jb     4367 <portrng_empty+0x917>
    4302:	6d                   	insl   (%dx),%es:(%edi)
    4303:	6f                   	outsl  %ds:(%esi),(%dx)
    4304:	76 65                	jbe    436b <portrng_empty+0x91b>
    4306:	5f                   	pop    %edi
    4307:	6c                   	insb   (%dx),%es:(%edi)
    4308:	6c                   	insb   (%dx),%es:(%edi)
    4309:	69 6e 6b 3a 20 6e 6f 	imul   $0x6f6e203a,0x6b(%esi),%ebp
    4310:	74 20                	je     4332 <portrng_empty+0x8e2>
    4312:	66 6f                	outsw  %ds:(%esi),(%dx)
    4314:	75 6e                	jne    4384 <portrng_empty+0x934>
    4316:	64 00 61 6d          	add    %ah,%fs:0x6d(%ecx)
    431a:	61                   	popa   
    431b:	70 5f                	jo     437c <portrng_empty+0x92c>
    431d:	66 69 6e 64 5f 6d    	imul   $0x6d5f,0x64(%esi),%bp
    4323:	61                   	popa   
    4324:	74 63                	je     4389 <portrng_empty+0x939>
    4326:	68 28 6c 6c 69       	push   $0x696c6c28
    432b:	6e                   	outsb  %ds:(%esi),(%dx)
    432c:	6b 3d 25 7a 75 29 00 	imul   $0x0,0x29757a25,%edi
    4333:	4d                   	dec    %ebp
    4334:	61                   	popa   
    4335:	74 63                	je     439a <portrng_empty+0x94a>
    4337:	68 65 64 20 72       	push   $0x72206465
    433c:	65 70 6c             	gs jo  43ab <portrng_empty+0x95b>
    433f:	61                   	popa   
    4340:	20 2f                	and    %ch,(%edi)
    4342:	20 70 6f             	and    %dh,0x6f(%eax)
    4345:	72 74                	jb     43bb <portrng_empty+0x96b>
    4347:	20 25 68 75 00 4d    	and    %ah,0x4d007568
    434d:	61                   	popa   
    434e:	74 63                	je     43b3 <portrng_empty+0x963>
    4350:	68 65 64 20 6c       	push   $0x6c206465
    4355:	61                   	popa   
    4356:	64 64 72 20          	fs fs jb 437a <portrng_empty+0x92a>
    435a:	2f                   	das    
    435b:	20 70 6f             	and    %dh,0x6f(%eax)
    435e:	72 74                	jb     43d4 <portrng_empty+0x984>
    4360:	20 25 68 75 00 4d    	and    %ah,0x4d007568
    4366:	61                   	popa   
    4367:	74 63                	je     43cc <portrng_empty+0x97c>
    4369:	68 65 64 20 6c       	push   $0x6c206465
    436e:	6c                   	insb   (%dx),%es:(%edi)
    436f:	69 6e 6b 20 2f 20 70 	imul   $0x70202f20,0x6b(%esi),%ebp
    4376:	6f                   	outsl  %ds:(%esi),(%dx)
    4377:	72 74                	jb     43ed <portrng_empty+0x99d>
    4379:	20 25 68 75 00 4d    	and    %ah,0x4d007568
    437f:	61                   	popa   
    4380:	74 63                	je     43e5 <portrng_empty+0x995>
    4382:	68 65 64 20 75       	push   $0x75206465
    4387:	6e                   	outsb  %ds:(%esi),(%dx)
    4388:	73 70                	jae    43fa <portrng_empty+0x9aa>
    438a:	65 63 20             	arpl   %sp,%gs:(%eax)
    438d:	2f                   	das    
    438e:	20 70 6f             	and    %dh,0x6f(%eax)
    4391:	72 74                	jb     4407 <portrng_empty+0x9b7>
    4393:	20 25 68 75 00 4e    	and    %ah,0x4e007568
    4399:	6f                   	outsl  %ds:(%esi),(%dx)
    439a:	20 6d 61             	and    %ch,0x61(%ebp)
    439d:	74 63                	je     4402 <portrng_empty+0x9b2>
    439f:	68 2e 00 70 6f       	push   $0x6f70002e
    43a4:	72 74                	jb     441a <portrng_empty+0x9ca>
    43a6:	72 6e                	jb     4416 <portrng_empty+0x9c6>
    43a8:	67 5f                	addr16 pop %edi
    43aa:	63 72 65             	arpl   %si,0x65(%edx)
    43ad:	61                   	popa   
    43ae:	74 65                	je     4415 <portrng_empty+0x9c5>
    43b0:	28 29                	sub    %ch,(%ecx)
    43b2:	20 2d 20 62 65 67    	and    %ch,0x67656220
    43b8:	69 6e 00 70 6f 72 74 	imul   $0x74726f70,0x0(%esi),%ebp
    43bf:	72 6e                	jb     442f <portrng_empty+0x9df>
    43c1:	67 5f                	addr16 pop %edi
    43c3:	63 72 65             	arpl   %si,0x65(%edx)
    43c6:	61                   	popa   
    43c7:	74 65                	je     442e <portrng_empty+0x9de>
    43c9:	28 29                	sub    %ch,(%ecx)
    43cb:	20 2d 20 65 6e 64    	and    %ch,0x646e6520
    43d1:	00 70 6f             	add    %dh,0x6f(%eax)
    43d4:	72 74                	jb     444a <portrng_empty+0x9fa>
    43d6:	72 6e                	jb     4446 <portrng_empty+0x9f6>
    43d8:	67 5f                	addr16 pop %edi
    43da:	64 65 73 74          	fs gs jae 4452 <portrng_empty+0xa02>
    43de:	72 6f                	jb     444f <portrng_empty+0x9ff>
