
uhci:     file format elf32-i386


Disassembly of section .init:

000010f4 <__entry>:
    10f4:	66 8c d0             	mov    %ss,%ax
    10f7:	8e d8                	mov    %eax,%ds
    10f9:	8e c0                	mov    %eax,%es
    10fb:	8e e0                	mov    %eax,%fs
    10fd:	b8 01 00 00 00       	mov    $0x1,%eax
    1102:	0f a2                	cpuid  
    1104:	0f ba e2 0b          	bt     $0xb,%edx
    1108:	73 0c                	jae    1116 <__entry+0x22>
    110a:	8d 05 e8 85 01 00    	lea    0x185e8,%eax
    1110:	c7 00 20 60 01 00    	movl   $0x16020,(%eax)
    1116:	6a 00                	push   $0x0
    1118:	6a 00                	push   $0x0
    111a:	89 e5                	mov    %esp,%ebp
    111c:	57                   	push   %edi
    111d:	e8 fe 48 01 00       	call   15a20 <__main@plt>

Disassembly of section .text:

00001140 <hc_init_hw>:
    1140:	55                   	push   %ebp
    1141:	89 e5                	mov    %esp,%ebp
    1143:	56                   	push   %esi
    1144:	53                   	push   %ebx
    1145:	83 ec 10             	sub    $0x10,%esp
    1148:	85 c0                	test   %eax,%eax
    114a:	0f 84 e5 00 00 00    	je     1235 <hc_init_hw+0xf5>
    1150:	8b 58 70             	mov    0x70(%eax),%ebx
    1153:	89 c6                	mov    %eax,%esi
    1155:	50                   	push   %eax
    1156:	50                   	push   %eax
    1157:	6a 04                	push   $0x4
    1159:	53                   	push   %ebx
    115a:	e8 51 4b 01 00       	call   15cb0 <pio_write_16@plt>
    115f:	c7 04 24 50 c3 00 00 	movl   $0xc350,(%esp)
    1166:	e8 45 4d 01 00       	call   15eb0 <async_usleep@plt>
    116b:	58                   	pop    %eax
    116c:	5a                   	pop    %edx
    116d:	6a 00                	push   $0x0
    116f:	53                   	push   %ebx
    1170:	e8 3b 4b 01 00       	call   15cb0 <pio_write_16@plt>
    1175:	59                   	pop    %ecx
    1176:	58                   	pop    %eax
    1177:	6a 02                	push   $0x2
    1179:	53                   	push   %ebx
    117a:	e8 31 4b 01 00       	call   15cb0 <pio_write_16@plt>
    117f:	83 c4 10             	add    $0x10,%esp
    1182:	8d b6 00 00 00 00    	lea    0x0(%esi),%esi
    1188:	83 ec 0c             	sub    $0xc,%esp
    118b:	6a 0a                	push   $0xa
    118d:	e8 1e 4d 01 00       	call   15eb0 <async_usleep@plt>
    1192:	89 1c 24             	mov    %ebx,(%esp)
    1195:	e8 66 4c 01 00       	call   15e00 <pio_read_16@plt>
    119a:	83 c4 10             	add    $0x10,%esp
    119d:	a8 02                	test   $0x2,%al
    119f:	75 e7                	jne    1188 <hc_init_hw+0x48>
    11a1:	50                   	push   %eax
    11a2:	50                   	push   %eax
    11a3:	8d 43 0c             	lea    0xc(%ebx),%eax
    11a6:	6a 40                	push   $0x40
    11a8:	50                   	push   %eax
    11a9:	e8 52 4b 01 00       	call   15d00 <pio_write_8@plt>
    11ae:	58                   	pop    %eax
    11af:	8d 45 f4             	lea    -0xc(%ebp),%eax
    11b2:	5a                   	pop    %edx
    11b3:	50                   	push   %eax
    11b4:	8b 4e 74             	mov    0x74(%esi),%ecx
    11b7:	51                   	push   %ecx
    11b8:	e8 13 4c 01 00       	call   15dd0 <as_get_physical_mapping@plt>
    11bd:	83 c4 10             	add    $0x10,%esp
    11c0:	31 d2                	xor    %edx,%edx
    11c2:	85 c0                	test   %eax,%eax
    11c4:	75 03                	jne    11c9 <hc_init_hw+0x89>
    11c6:	8b 55 f4             	mov    -0xc(%ebp),%edx
    11c9:	8d 43 08             	lea    0x8(%ebx),%eax
    11cc:	51                   	push   %ecx
    11cd:	51                   	push   %ecx
    11ce:	52                   	push   %edx
    11cf:	50                   	push   %eax
    11d0:	e8 db 4b 01 00       	call   15db0 <pio_write_32@plt>
    11d5:	83 c4 10             	add    $0x10,%esp
    11d8:	80 be 18 01 00 00 00 	cmpb   $0x0,0x118(%esi)
    11df:	75 3f                	jne    1220 <hc_init_hw+0xe0>
    11e1:	83 ec 0c             	sub    $0xc,%esp
    11e4:	53                   	push   %ebx
    11e5:	e8 16 4c 01 00       	call   15e00 <pio_read_16@plt>
    11ea:	83 c4 10             	add    $0x10,%esp
    11ed:	66 85 c0             	test   %ax,%ax
    11f0:	74 17                	je     1209 <hc_init_hw+0xc9>
    11f2:	25 ff ff 00 00       	and    $0xffff,%eax
    11f7:	50                   	push   %eax
    11f8:	68 67 1d 01 00       	push   $0x11d67
    11fd:	6a 02                	push   $0x2
    11ff:	6a ff                	push   $0xffffffff
    1201:	e8 1a 4a 01 00       	call   15c20 <log_msg@plt>
    1206:	83 c4 10             	add    $0x10,%esp
    1209:	50                   	push   %eax
    120a:	50                   	push   %eax
    120b:	68 c1 00 00 00       	push   $0xc1
    1210:	53                   	push   %ebx
    1211:	e8 9a 4a 01 00       	call   15cb0 <pio_write_16@plt>
    1216:	83 c4 10             	add    $0x10,%esp
    1219:	8d 65 f8             	lea    -0x8(%ebp),%esp
    121c:	5b                   	pop    %ebx
    121d:	5e                   	pop    %esi
    121e:	5d                   	pop    %ebp
    121f:	c3                   	ret    
    1220:	52                   	push   %edx
    1221:	52                   	push   %edx
    1222:	8b 46 70             	mov    0x70(%esi),%eax
    1225:	6a 0d                	push   $0xd
    1227:	83 c0 04             	add    $0x4,%eax
    122a:	50                   	push   %eax
    122b:	e8 80 4a 01 00       	call   15cb0 <pio_write_16@plt>
    1230:	83 c4 10             	add    $0x10,%esp
    1233:	eb ac                	jmp    11e1 <hc_init_hw+0xa1>
    1235:	50                   	push   %eax
    1236:	68 11 01 00 00       	push   $0x111
    123b:	68 12 56 01 00       	push   $0x15612
    1240:	68 5e 1d 01 00       	push   $0x11d5e
    1245:	e8 36 4a 01 00       	call   15c80 <assert_abort@plt>
    124a:	8d b6 00 00 00 00    	lea    0x0(%esi),%esi

00001250 <uhci_hc_gen_irq_code>:
    1250:	55                   	push   %ebp
    1251:	89 e5                	mov    %esp,%ebp
    1253:	57                   	push   %edi
    1254:	56                   	push   %esi
    1255:	53                   	push   %ebx
    1256:	83 ec 1c             	sub    $0x1c,%esp
    1259:	8b 7d 08             	mov    0x8(%ebp),%edi
    125c:	8b 5d 0c             	mov    0xc(%ebp),%ebx
    125f:	85 ff                	test   %edi,%edi
    1261:	0f 84 18 01 00 00    	je     137f <uhci_hc_gen_irq_code+0x12f>
    1267:	85 db                	test   %ebx,%ebx
    1269:	0f 84 fe 00 00 00    	je     136d <uhci_hc_gen_irq_code+0x11d>
    126f:	83 3b 01             	cmpl   $0x1,(%ebx)
    1272:	0f 85 c0 00 00 00    	jne    1338 <uhci_hc_gen_irq_code+0xe8>
    1278:	83 7b 18 01          	cmpl   $0x1,0x18(%ebx)
    127c:	0f 85 b6 00 00 00    	jne    1338 <uhci_hc_gen_irq_code+0xe8>
    1282:	8b 43 1c             	mov    0x1c(%ebx),%eax
    1285:	8b 30                	mov    (%eax),%esi
    1287:	8b 40 10             	mov    0x10(%eax),%eax
    128a:	89 45 e4             	mov    %eax,-0x1c(%ebp)
    128d:	83 f8 0f             	cmp    $0xf,%eax
    1290:	0f 86 b2 00 00 00    	jbe    1348 <uhci_hc_gen_irq_code+0xf8>
    1296:	83 ec 0c             	sub    $0xc,%esp
    1299:	6a 08                	push   $0x8
    129b:	e8 e0 48 01 00       	call   15b80 <malloc@plt>
    12a0:	83 c4 10             	add    $0x10,%esp
    12a3:	89 47 04             	mov    %eax,0x4(%edi)
    12a6:	85 c0                	test   %eax,%eax
    12a8:	0f 84 a2 00 00 00    	je     1350 <uhci_hc_gen_irq_code+0x100>
    12ae:	83 ec 0c             	sub    $0xc,%esp
    12b1:	6a 64                	push   $0x64
    12b3:	e8 c8 48 01 00       	call   15b80 <malloc@plt>
    12b8:	83 c4 10             	add    $0x10,%esp
    12bb:	89 47 0c             	mov    %eax,0xc(%edi)
    12be:	85 c0                	test   %eax,%eax
    12c0:	0f 84 91 00 00 00    	je     1357 <uhci_hc_gen_irq_code+0x107>
    12c6:	c7 07 01 00 00 00    	movl   $0x1,(%edi)
    12cc:	c7 47 08 05 00 00 00 	movl   $0x5,0x8(%edi)
    12d3:	50                   	push   %eax
    12d4:	6a 08                	push   $0x8
    12d6:	68 04 20 01 00       	push   $0x12004
    12db:	8b 57 04             	mov    0x4(%edi),%edx
    12de:	52                   	push   %edx
    12df:	e8 7c 48 01 00       	call   15b60 <memcpy@plt>
    12e4:	83 c4 0c             	add    $0xc,%esp
    12e7:	8b 47 04             	mov    0x4(%edi),%eax
    12ea:	89 30                	mov    %esi,(%eax)
    12ec:	6a 64                	push   $0x64
    12ee:	68 a0 1f 01 00       	push   $0x11fa0
    12f3:	8b 4f 0c             	mov    0xc(%edi),%ecx
    12f6:	51                   	push   %ecx
    12f7:	e8 64 48 01 00       	call   15b60 <memcpy@plt>
    12fc:	8b 47 0c             	mov    0xc(%edi),%eax
    12ff:	8d 56 02             	lea    0x2(%esi),%edx
    1302:	89 50 04             	mov    %edx,0x4(%eax)
    1305:	89 50 40             	mov    %edx,0x40(%eax)
    1308:	5f                   	pop    %edi
    1309:	58                   	pop    %eax
    130a:	8b 43 04             	mov    0x4(%ebx),%eax
    130d:	8b 00                	mov    (%eax),%eax
    130f:	50                   	push   %eax
    1310:	8b 45 e4             	mov    -0x1c(%ebp),%eax
    1313:	50                   	push   %eax
    1314:	56                   	push   %esi
    1315:	68 1c 1e 01 00       	push   $0x11e1c
    131a:	6a 04                	push   $0x4
    131c:	6a ff                	push   $0xffffffff
    131e:	e8 fd 48 01 00       	call   15c20 <log_msg@plt>
    1323:	8b 43 04             	mov    0x4(%ebx),%eax
    1326:	83 c4 20             	add    $0x20,%esp
    1329:	8b 00                	mov    (%eax),%eax
    132b:	8d 65 f4             	lea    -0xc(%ebp),%esp
    132e:	5b                   	pop    %ebx
    132f:	5e                   	pop    %esi
    1330:	5f                   	pop    %edi
    1331:	5d                   	pop    %ebp
    1332:	c3                   	ret    
    1333:	90                   	nop
    1334:	8d 74 26 00          	lea    0x0(%esi,%eiz,1),%esi
    1338:	8d 65 f4             	lea    -0xc(%ebp),%esp
    133b:	b8 f2 ff ff ff       	mov    $0xfffffff2,%eax
    1340:	5b                   	pop    %ebx
    1341:	5e                   	pop    %esi
    1342:	5f                   	pop    %edi
    1343:	5d                   	pop    %ebp
    1344:	c3                   	ret    
    1345:	8d 76 00             	lea    0x0(%esi),%esi
    1348:	b8 f0 ff ff ff       	mov    $0xfffffff0,%eax
    134d:	eb dc                	jmp    132b <uhci_hc_gen_irq_code+0xdb>
    134f:	90                   	nop
    1350:	b8 fe ff ff ff       	mov    $0xfffffffe,%eax
    1355:	eb d4                	jmp    132b <uhci_hc_gen_irq_code+0xdb>
    1357:	83 ec 0c             	sub    $0xc,%esp
    135a:	8b 47 04             	mov    0x4(%edi),%eax
    135d:	50                   	push   %eax
    135e:	e8 ed 4c 01 00       	call   16050 <free@plt>
    1363:	83 c4 10             	add    $0x10,%esp
    1366:	b8 fe ff ff ff       	mov    $0xfffffffe,%eax
    136b:	eb be                	jmp    132b <uhci_hc_gen_irq_code+0xdb>
    136d:	50                   	push   %eax
    136e:	6a 6f                	push   $0x6f
    1370:	68 12 56 01 00       	push   $0x15612
    1375:	68 89 1d 01 00       	push   $0x11d89
    137a:	e8 01 49 01 00       	call   15c80 <assert_abort@plt>
    137f:	50                   	push   %eax
    1380:	6a 6e                	push   $0x6e
    1382:	68 12 56 01 00       	push   $0x15612
    1387:	68 84 1d 01 00       	push   $0x11d84
    138c:	e8 ef 48 01 00       	call   15c80 <assert_abort@plt>
    1391:	eb 0d                	jmp    13a0 <uhci_hc_interrupt>
    1393:	90                   	nop
    1394:	90                   	nop
    1395:	90                   	nop
    1396:	90                   	nop
    1397:	90                   	nop
    1398:	90                   	nop
    1399:	90                   	nop
    139a:	90                   	nop
    139b:	90                   	nop
    139c:	90                   	nop
    139d:	90                   	nop
    139e:	90                   	nop
    139f:	90                   	nop

000013a0 <uhci_hc_interrupt>:
    13a0:	55                   	push   %ebp
    13a1:	89 e5                	mov    %esp,%ebp
    13a3:	57                   	push   %edi
    13a4:	56                   	push   %esi
    13a5:	53                   	push   %ebx
    13a6:	83 ec 1c             	sub    $0x1c,%esp
    13a9:	8b 45 08             	mov    0x8(%ebp),%eax
    13ac:	85 c0                	test   %eax,%eax
    13ae:	0f 84 7b 01 00 00    	je     152f <uhci_hc_interrupt+0x18f>
    13b4:	8b b0 38 08 00 00    	mov    0x838(%eax),%esi
    13ba:	85 f6                	test   %esi,%esi
    13bc:	0f 84 82 01 00 00    	je     1544 <uhci_hc_interrupt+0x1a4>
    13c2:	f6 45 0c 03          	testb  $0x3,0xc(%ebp)
    13c6:	0f 85 9c 00 00 00    	jne    1468 <uhci_hc_interrupt+0xc8>
    13cc:	f6 45 0c 04          	testb  $0x4,0xc(%ebp)
    13d0:	0f 85 2c 01 00 00    	jne    1502 <uhci_hc_interrupt+0x162>
    13d6:	f6 45 0c 18          	testb  $0x18,0xc(%ebp)
    13da:	75 0c                	jne    13e8 <uhci_hc_interrupt+0x48>
    13dc:	8d 65 f4             	lea    -0xc(%ebp),%esp
    13df:	5b                   	pop    %ebx
    13e0:	5e                   	pop    %esi
    13e1:	5f                   	pop    %edi
    13e2:	5d                   	pop    %ebp
    13e3:	c3                   	ret    
    13e4:	8d 74 26 00          	lea    0x0(%esi,%eiz,1),%esi
    13e8:	52                   	push   %edx
    13e9:	68 a7 1d 01 00       	push   $0x11da7
    13ee:	6a 01                	push   $0x1
    13f0:	6a ff                	push   $0xffffffff
    13f2:	e8 29 48 01 00       	call   15c20 <log_msg@plt>
    13f7:	8b 8e 1c 01 00 00    	mov    0x11c(%esi),%ecx
    13fd:	41                   	inc    %ecx
    13fe:	8d 46 78             	lea    0x78(%esi),%eax
    1401:	89 8e 1c 01 00 00    	mov    %ecx,0x11c(%esi)
    1407:	89 04 24             	mov    %eax,(%esp)
    140a:	e8 f1 0f 00 00       	call   2400 <transfer_list_abort_all>
    140f:	8d 86 98 00 00 00    	lea    0x98(%esi),%eax
    1415:	89 04 24             	mov    %eax,(%esp)
    1418:	e8 e3 0f 00 00       	call   2400 <transfer_list_abort_all>
    141d:	8d 86 d8 00 00 00    	lea    0xd8(%esi),%eax
    1423:	89 04 24             	mov    %eax,(%esp)
    1426:	e8 d5 0f 00 00       	call   2400 <transfer_list_abort_all>
    142b:	8d 86 b8 00 00 00    	lea    0xb8(%esi),%eax
    1431:	89 04 24             	mov    %eax,(%esp)
    1434:	e8 c7 0f 00 00       	call   2400 <transfer_list_abort_all>
    1439:	83 c4 10             	add    $0x10,%esp
    143c:	83 be 1c 01 00 00 04 	cmpl   $0x4,0x11c(%esi)
    1443:	0f 86 d7 00 00 00    	jbe    1520 <uhci_hc_interrupt+0x180>
    1449:	50                   	push   %eax
    144a:	68 40 1e 01 00       	push   $0x11e40
    144f:	6a 00                	push   $0x0
    1451:	6a ff                	push   $0xffffffff
    1453:	e8 c8 47 01 00       	call   15c20 <log_msg@plt>
    1458:	83 c4 10             	add    $0x10,%esp
    145b:	8d 65 f4             	lea    -0xc(%ebp),%esp
    145e:	5b                   	pop    %ebx
    145f:	5e                   	pop    %esi
    1460:	5f                   	pop    %edi
    1461:	5d                   	pop    %ebp
    1462:	c3                   	ret    
    1463:	90                   	nop
    1464:	8d 74 26 00          	lea    0x0(%esi,%eiz,1),%esi
    1468:	8d 5d e0             	lea    -0x20(%ebp),%ebx
    146b:	8d 46 78             	lea    0x78(%esi),%eax
    146e:	89 5d e0             	mov    %ebx,-0x20(%ebp)
    1471:	57                   	push   %edi
    1472:	89 5d e4             	mov    %ebx,-0x1c(%ebp)
    1475:	57                   	push   %edi
    1476:	53                   	push   %ebx
    1477:	50                   	push   %eax
    1478:	e8 c3 0c 00 00       	call   2140 <transfer_list_remove_finished>
    147d:	58                   	pop    %eax
    147e:	8d 86 98 00 00 00    	lea    0x98(%esi),%eax
    1484:	5a                   	pop    %edx
    1485:	53                   	push   %ebx
    1486:	50                   	push   %eax
    1487:	e8 b4 0c 00 00       	call   2140 <transfer_list_remove_finished>
    148c:	8d 86 d8 00 00 00    	lea    0xd8(%esi),%eax
    1492:	59                   	pop    %ecx
    1493:	5f                   	pop    %edi
    1494:	53                   	push   %ebx
    1495:	50                   	push   %eax
    1496:	e8 a5 0c 00 00       	call   2140 <transfer_list_remove_finished>
    149b:	58                   	pop    %eax
    149c:	8d 86 b8 00 00 00    	lea    0xb8(%esi),%eax
    14a2:	5a                   	pop    %edx
    14a3:	53                   	push   %ebx
    14a4:	50                   	push   %eax
    14a5:	e8 96 0c 00 00       	call   2140 <transfer_list_remove_finished>
    14aa:	8b 45 e4             	mov    -0x1c(%ebp),%eax
    14ad:	8b 78 04             	mov    0x4(%eax),%edi
    14b0:	83 c4 10             	add    $0x10,%esp
    14b3:	89 fa                	mov    %edi,%edx
    14b5:	39 d8                	cmp    %ebx,%eax
    14b7:	75 09                	jne    14c2 <uhci_hc_interrupt+0x122>
    14b9:	e9 0e ff ff ff       	jmp    13cc <uhci_hc_interrupt+0x2c>
    14be:	66 90                	xchg   %ax,%ax
    14c0:	89 d7                	mov    %edx,%edi
    14c2:	8b 08                	mov    (%eax),%ecx
    14c4:	85 c9                	test   %ecx,%ecx
    14c6:	74 0b                	je     14d3 <uhci_hc_interrupt+0x133>
    14c8:	85 d2                	test   %edx,%edx
    14ca:	74 07                	je     14d3 <uhci_hc_interrupt+0x133>
    14cc:	89 0a                	mov    %ecx,(%edx)
    14ce:	8b 08                	mov    (%eax),%ecx
    14d0:	89 51 04             	mov    %edx,0x4(%ecx)
    14d3:	83 ec 0c             	sub    $0xc,%esp
    14d6:	c7 00 00 00 00 00    	movl   $0x0,(%eax)
    14dc:	c7 40 04 00 00 00 00 	movl   $0x0,0x4(%eax)
    14e3:	83 e8 14             	sub    $0x14,%eax
    14e6:	50                   	push   %eax
    14e7:	e8 d4 16 00 00       	call   2bc0 <uhci_transfer_batch_finish_dispose>
    14ec:	83 c4 10             	add    $0x10,%esp
    14ef:	8b 57 04             	mov    0x4(%edi),%edx
    14f2:	89 f8                	mov    %edi,%eax
    14f4:	39 df                	cmp    %ebx,%edi
    14f6:	75 c8                	jne    14c0 <uhci_hc_interrupt+0x120>
    14f8:	f6 45 0c 04          	testb  $0x4,0xc(%ebp)
    14fc:	0f 84 d4 fe ff ff    	je     13d6 <uhci_hc_interrupt+0x36>
    1502:	53                   	push   %ebx
    1503:	68 94 1d 01 00       	push   $0x11d94
    1508:	6a 01                	push   $0x1
    150a:	6a ff                	push   $0xffffffff
    150c:	e8 0f 47 01 00       	call   15c20 <log_msg@plt>
    1511:	83 c4 10             	add    $0x10,%esp
    1514:	e9 bd fe ff ff       	jmp    13d6 <uhci_hc_interrupt+0x36>
    1519:	8d b4 26 00 00 00 00 	lea    0x0(%esi,%eiz,1),%esi
    1520:	89 f0                	mov    %esi,%eax
    1522:	e8 19 fc ff ff       	call   1140 <hc_init_hw>
    1527:	8d 65 f4             	lea    -0xc(%ebp),%esp
    152a:	5b                   	pop    %ebx
    152b:	5e                   	pop    %esi
    152c:	5f                   	pop    %edi
    152d:	5d                   	pop    %ebp
    152e:	c3                   	ret    
    152f:	53                   	push   %ebx
    1530:	68 9f 00 00 00       	push   $0x9f
    1535:	68 12 56 01 00       	push   $0x15612
    153a:	68 90 1d 01 00       	push   $0x11d90
    153f:	e8 3c 47 01 00       	call   15c80 <assert_abort@plt>
    1544:	51                   	push   %ecx
    1545:	68 a1 00 00 00       	push   $0xa1
    154a:	68 12 56 01 00       	push   $0x15612
    154f:	68 5e 1d 01 00       	push   $0x11d5e
    1554:	e8 27 47 01 00       	call   15c80 <assert_abort@plt>
    1559:	8d b4 26 00 00 00 00 	lea    0x0(%esi,%eiz,1),%esi

00001560 <hc_init>:
    1560:	55                   	push   %ebp
    1561:	89 e5                	mov    %esp,%ebp
    1563:	57                   	push   %edi
    1564:	56                   	push   %esi
    1565:	53                   	push   %ebx
    1566:	83 ec 2c             	sub    $0x2c,%esp
    1569:	8b 5d 08             	mov    0x8(%ebp),%ebx
    156c:	8b 75 0c             	mov    0xc(%ebp),%esi
    156f:	8b 55 10             	mov    0x10(%ebp),%edx
    1572:	85 db                	test   %ebx,%ebx
    1574:	0f 84 a4 03 00 00    	je     191e <hc_init+0x3be>
    157a:	85 f6                	test   %esi,%esi
    157c:	0f 84 b1 03 00 00    	je     1933 <hc_init+0x3d3>
    1582:	83 7e 18 01          	cmpl   $0x1,0x18(%esi)
    1586:	0f 85 fd 02 00 00    	jne    1889 <hc_init+0x329>
    158c:	8b 46 1c             	mov    0x1c(%esi),%eax
    158f:	83 78 10 0f          	cmpl   $0xf,0x10(%eax)
    1593:	0f 86 f0 02 00 00    	jbe    1889 <hc_init+0x329>
    1599:	88 93 18 01 00 00    	mov    %dl,0x118(%ebx)
    159f:	c7 83 1c 01 00 00 00 	movl   $0x0,0x11c(%ebx)
    15a6:	00 00 00 
    15a9:	52                   	push   %edx
    15aa:	52                   	push   %edx
    15ab:	8d 53 70             	lea    0x70(%ebx),%edx
    15ae:	52                   	push   %edx
    15af:	50                   	push   %eax
    15b0:	e8 bb 45 01 00       	call   15b70 <pio_enable_range@plt>
    15b5:	83 c4 10             	add    $0x10,%esp
    15b8:	85 c0                	test   %eax,%eax
    15ba:	0f 85 be 01 00 00    	jne    177e <hc_init+0x21e>
    15c0:	8b 46 1c             	mov    0x1c(%esi),%eax
    15c3:	52                   	push   %edx
    15c4:	52                   	push   %edx
    15c5:	8b 48 10             	mov    0x10(%eax),%ecx
    15c8:	8b 70 04             	mov    0x4(%eax),%esi
    15cb:	51                   	push   %ecx
    15cc:	56                   	push   %esi
    15cd:	8b 38                	mov    (%eax),%edi
    15cf:	57                   	push   %edi
    15d0:	68 90 1e 01 00       	push   $0x11e90
    15d5:	6a 04                	push   $0x4
    15d7:	6a ff                	push   $0xffffffff
    15d9:	e8 42 46 01 00       	call   15c20 <log_msg@plt>
    15de:	83 c4 18             	add    $0x18,%esp
    15e1:	8d 45 e4             	lea    -0x1c(%ebp),%eax
    15e4:	c7 45 e4 ff ff ff ff 	movl   $0xffffffff,-0x1c(%ebp)
    15eb:	50                   	push   %eax
    15ec:	8d 45 e0             	lea    -0x20(%ebp),%eax
    15ef:	50                   	push   %eax
    15f0:	6a 00                	push   $0x0
    15f2:	6a 03                	push   $0x3
    15f4:	6a 00                	push   $0x0
    15f6:	68 00 10 00 00       	push   $0x1000
    15fb:	e8 70 48 01 00       	call   15e70 <dmamem_map_anonymous@plt>
    1600:	83 c4 20             	add    $0x20,%esp
    1603:	85 c0                	test   %eax,%eax
    1605:	0f 85 31 02 00 00    	jne    183c <hc_init+0x2dc>
    160b:	50                   	push   %eax
    160c:	8b 45 e4             	mov    -0x1c(%ebp),%eax
    160f:	68 00 10 00 00       	push   $0x1000
    1614:	6a 05                	push   $0x5
    1616:	50                   	push   %eax
    1617:	e8 24 48 01 00       	call   15e40 <memset@plt>
    161c:	8b 45 e4             	mov    -0x1c(%ebp),%eax
    161f:	83 c4 10             	add    $0x10,%esp
    1622:	89 43 74             	mov    %eax,0x74(%ebx)
    1625:	85 c0                	test   %eax,%eax
    1627:	0f 84 e4 01 00 00    	je     1811 <hc_init+0x2b1>
    162d:	8d b3 b8 00 00 00    	lea    0xb8(%ebx),%esi
    1633:	50                   	push   %eax
    1634:	68 c0 1e 01 00       	push   $0x11ec0
    1639:	6a 04                	push   $0x4
    163b:	6a ff                	push   $0xffffffff
    163d:	e8 de 45 01 00       	call   15c20 <log_msg@plt>
    1642:	5f                   	pop    %edi
    1643:	58                   	pop    %eax
    1644:	68 c0 1d 01 00       	push   $0x11dc0
    1649:	56                   	push   %esi
    164a:	e8 61 07 00 00       	call   1db0 <transfer_list_init>
    164f:	83 c4 10             	add    $0x10,%esp
    1652:	85 c0                	test   %eax,%eax
    1654:	0f 85 eb 01 00 00    	jne    1845 <hc_init+0x2e5>
    165a:	8d bb d8 00 00 00    	lea    0xd8(%ebx),%edi
    1660:	51                   	push   %ecx
    1661:	51                   	push   %ecx
    1662:	68 ca 1d 01 00       	push   $0x11dca
    1667:	57                   	push   %edi
    1668:	e8 43 07 00 00       	call   1db0 <transfer_list_init>
    166d:	83 c4 10             	add    $0x10,%esp
    1670:	85 c0                	test   %eax,%eax
    1672:	0f 85 31 01 00 00    	jne    17a9 <hc_init+0x249>
    1678:	8d 83 98 00 00 00    	lea    0x98(%ebx),%eax
    167e:	52                   	push   %edx
    167f:	89 45 d4             	mov    %eax,-0x2c(%ebp)
    1682:	52                   	push   %edx
    1683:	68 d7 1d 01 00       	push   $0x11dd7
    1688:	50                   	push   %eax
    1689:	e8 22 07 00 00       	call   1db0 <transfer_list_init>
    168e:	83 c4 10             	add    $0x10,%esp
    1691:	85 c0                	test   %eax,%eax
    1693:	0f 85 ff 01 00 00    	jne    1898 <hc_init+0x338>
    1699:	8d 43 78             	lea    0x78(%ebx),%eax
    169c:	52                   	push   %edx
    169d:	89 45 d0             	mov    %eax,-0x30(%ebp)
    16a0:	52                   	push   %edx
    16a1:	68 e3 1d 01 00       	push   $0x11de3
    16a6:	50                   	push   %eax
    16a7:	e8 04 07 00 00       	call   1db0 <transfer_list_init>
    16ac:	83 c4 10             	add    $0x10,%esp
    16af:	85 c0                	test   %eax,%eax
    16b1:	0f 85 1b 02 00 00    	jne    18d2 <hc_init+0x372>
    16b7:	89 45 cc             	mov    %eax,-0x34(%ebp)
    16ba:	50                   	push   %eax
    16bb:	50                   	push   %eax
    16bc:	56                   	push   %esi
    16bd:	57                   	push   %edi
    16be:	e8 3d 08 00 00       	call   1f00 <transfer_list_set_next>
    16c3:	8b 4d d4             	mov    -0x2c(%ebp),%ecx
    16c6:	58                   	pop    %eax
    16c7:	5a                   	pop    %edx
    16c8:	57                   	push   %edi
    16c9:	51                   	push   %ecx
    16ca:	e8 31 08 00 00       	call   1f00 <transfer_list_set_next>
    16cf:	58                   	pop    %eax
    16d0:	8b 4d d4             	mov    -0x2c(%ebp),%ecx
    16d3:	8b 45 d0             	mov    -0x30(%ebp),%eax
    16d6:	5a                   	pop    %edx
    16d7:	51                   	push   %ecx
    16d8:	50                   	push   %eax
    16d9:	e8 22 08 00 00       	call   1f00 <transfer_list_set_next>
    16de:	8b 45 d0             	mov    -0x30(%ebp),%eax
    16e1:	83 c4 0c             	add    $0xc,%esp
    16e4:	89 83 14 01 00 00    	mov    %eax,0x114(%ebx)
    16ea:	89 83 04 01 00 00    	mov    %eax,0x104(%ebx)
    16f0:	8b 45 d4             	mov    -0x2c(%ebp),%eax
    16f3:	89 83 f8 00 00 00    	mov    %eax,0xf8(%ebx)
    16f9:	89 bb 08 01 00 00    	mov    %edi,0x108(%ebx)
    16ff:	89 b3 10 01 00 00    	mov    %esi,0x110(%ebx)
    1705:	68 ed 1d 01 00       	push   $0x11ded
    170a:	6a 04                	push   $0x4
    170c:	6a ff                	push   $0xffffffff
    170e:	e8 0d 45 01 00       	call   15c20 <log_msg@plt>
    1713:	58                   	pop    %eax
    1714:	8b 8b 88 00 00 00    	mov    0x88(%ebx),%ecx
    171a:	8d 45 e4             	lea    -0x1c(%ebp),%eax
    171d:	5a                   	pop    %edx
    171e:	50                   	push   %eax
    171f:	51                   	push   %ecx
    1720:	e8 ab 46 01 00       	call   15dd0 <as_get_physical_mapping@plt>
    1725:	83 c4 10             	add    $0x10,%esp
    1728:	b9 02 00 00 00       	mov    $0x2,%ecx
    172d:	85 c0                	test   %eax,%eax
    172f:	8b 55 cc             	mov    -0x34(%ebp),%edx
    1732:	75 09                	jne    173d <hc_init+0x1dd>
    1734:	8b 4d e4             	mov    -0x1c(%ebp),%ecx
    1737:	83 e1 f0             	and    $0xfffffff0,%ecx
    173a:	83 c9 02             	or     $0x2,%ecx
    173d:	8b 43 74             	mov    0x74(%ebx),%eax
    1740:	8d b0 00 10 00 00    	lea    0x1000(%eax),%esi
    1746:	66 90                	xchg   %ax,%ax
    1748:	89 08                	mov    %ecx,(%eax)
    174a:	83 c0 04             	add    $0x4,%eax
    174d:	39 c6                	cmp    %eax,%esi
    174f:	75 f7                	jne    1748 <hc_init+0x1e8>
    1751:	89 d8                	mov    %ebx,%eax
    1753:	89 55 d4             	mov    %edx,-0x2c(%ebp)
    1756:	e8 e5 f9 ff ff       	call   1140 <hc_init_hw>
    175b:	56                   	push   %esi
    175c:	8b 43 70             	mov    0x70(%ebx),%eax
    175f:	68 0a 1e 01 00       	push   $0x11e0a
    1764:	83 c0 10             	add    $0x10,%eax
    1767:	50                   	push   %eax
    1768:	53                   	push   %ebx
    1769:	e8 c2 23 00 00       	call   3b30 <uhci_rh_init>
    176e:	8b 55 d4             	mov    -0x2c(%ebp),%edx
    1771:	83 c4 10             	add    $0x10,%esp
    1774:	8d 65 f4             	lea    -0xc(%ebp),%esp
    1777:	89 d0                	mov    %edx,%eax
    1779:	5b                   	pop    %ebx
    177a:	5e                   	pop    %esi
    177b:	5f                   	pop    %edi
    177c:	5d                   	pop    %ebp
    177d:	c3                   	ret    
    177e:	83 ec 0c             	sub    $0xc,%esp
    1781:	89 45 d4             	mov    %eax,-0x2c(%ebp)
    1784:	50                   	push   %eax
    1785:	e8 b6 47 01 00       	call   15f40 <str_error@plt>
    178a:	50                   	push   %eax
    178b:	68 64 1e 01 00       	push   $0x11e64
    1790:	6a 01                	push   $0x1
    1792:	6a ff                	push   $0xffffffff
    1794:	e8 87 44 01 00       	call   15c20 <log_msg@plt>
    1799:	8b 55 d4             	mov    -0x2c(%ebp),%edx
    179c:	83 c4 20             	add    $0x20,%esp
    179f:	8d 65 f4             	lea    -0xc(%ebp),%esp
    17a2:	89 d0                	mov    %edx,%eax
    17a4:	5b                   	pop    %ebx
    17a5:	5e                   	pop    %esi
    17a6:	5f                   	pop    %edi
    17a7:	5d                   	pop    %ebp
    17a8:	c3                   	ret    
    17a9:	83 ec 0c             	sub    $0xc,%esp
    17ac:	50                   	push   %eax
    17ad:	e8 8e 47 01 00       	call   15f40 <str_error@plt>
    17b2:	89 04 24             	mov    %eax,(%esp)
    17b5:	68 ca 1d 01 00       	push   $0x11dca
    17ba:	68 e0 1e 01 00       	push   $0x11ee0
    17bf:	6a 01                	push   $0x1
    17c1:	6a ff                	push   $0xffffffff
    17c3:	e8 58 44 01 00       	call   15c20 <log_msg@plt>
    17c8:	83 c4 14             	add    $0x14,%esp
    17cb:	56                   	push   %esi
    17cc:	e8 ff 06 00 00       	call   1ed0 <transfer_list_fini>
    17d1:	89 3c 24             	mov    %edi,(%esp)
    17d4:	e8 f7 06 00 00       	call   1ed0 <transfer_list_fini>
    17d9:	8d 83 98 00 00 00    	lea    0x98(%ebx),%eax
    17df:	89 04 24             	mov    %eax,(%esp)
    17e2:	e8 e9 06 00 00       	call   1ed0 <transfer_list_fini>
    17e7:	8d 43 78             	lea    0x78(%ebx),%eax
    17ea:	89 04 24             	mov    %eax,(%esp)
    17ed:	e8 de 06 00 00       	call   1ed0 <transfer_list_fini>
    17f2:	83 c4 10             	add    $0x10,%esp
    17f5:	50                   	push   %eax
    17f6:	68 34 1f 01 00       	push   $0x11f34
    17fb:	6a 01                	push   $0x1
    17fd:	6a ff                	push   $0xffffffff
    17ff:	e8 1c 44 01 00       	call   15c20 <log_msg@plt>
    1804:	8b 4b 74             	mov    0x74(%ebx),%ecx
    1807:	5a                   	pop    %edx
    1808:	51                   	push   %ecx
    1809:	e8 c2 44 01 00       	call   15cd0 <dmamem_unmap_anonymous@plt>
    180e:	83 c4 10             	add    $0x10,%esp
    1811:	83 ec 0c             	sub    $0xc,%esp
    1814:	6a fe                	push   $0xfffffffe
    1816:	e8 25 47 01 00       	call   15f40 <str_error@plt>
    181b:	50                   	push   %eax
    181c:	68 08 1f 01 00       	push   $0x11f08
    1821:	6a 01                	push   $0x1
    1823:	6a ff                	push   $0xffffffff
    1825:	e8 f6 43 01 00       	call   15c20 <log_msg@plt>
    182a:	83 c4 20             	add    $0x20,%esp
    182d:	8d 65 f4             	lea    -0xc(%ebp),%esp
    1830:	ba fe ff ff ff       	mov    $0xfffffffe,%edx
    1835:	89 d0                	mov    %edx,%eax
    1837:	5b                   	pop    %ebx
    1838:	5e                   	pop    %esi
    1839:	5f                   	pop    %edi
    183a:	5d                   	pop    %ebp
    183b:	c3                   	ret    
    183c:	c7 43 74 00 00 00 00 	movl   $0x0,0x74(%ebx)
    1843:	eb cc                	jmp    1811 <hc_init+0x2b1>
    1845:	83 ec 0c             	sub    $0xc,%esp
    1848:	50                   	push   %eax
    1849:	e8 f2 46 01 00       	call   15f40 <str_error@plt>
    184e:	89 04 24             	mov    %eax,(%esp)
    1851:	68 c0 1d 01 00       	push   $0x11dc0
    1856:	68 e0 1e 01 00       	push   $0x11ee0
    185b:	6a 01                	push   $0x1
    185d:	6a ff                	push   $0xffffffff
    185f:	e8 bc 43 01 00       	call   15c20 <log_msg@plt>
    1864:	83 c4 14             	add    $0x14,%esp
    1867:	56                   	push   %esi
    1868:	e8 63 06 00 00       	call   1ed0 <transfer_list_fini>
    186d:	8d 83 d8 00 00 00    	lea    0xd8(%ebx),%eax
    1873:	89 04 24             	mov    %eax,(%esp)
    1876:	e8 55 06 00 00       	call   1ed0 <transfer_list_fini>
    187b:	8d 83 98 00 00 00    	lea    0x98(%ebx),%eax
    1881:	89 04 24             	mov    %eax,(%esp)
    1884:	e9 59 ff ff ff       	jmp    17e2 <hc_init+0x282>
    1889:	8d 65 f4             	lea    -0xc(%ebp),%esp
    188c:	ba f2 ff ff ff       	mov    $0xfffffff2,%edx
    1891:	89 d0                	mov    %edx,%eax
    1893:	5b                   	pop    %ebx
    1894:	5e                   	pop    %esi
    1895:	5f                   	pop    %edi
    1896:	5d                   	pop    %ebp
    1897:	c3                   	ret    
    1898:	83 ec 0c             	sub    $0xc,%esp
    189b:	50                   	push   %eax
    189c:	e8 9f 46 01 00       	call   15f40 <str_error@plt>
    18a1:	89 04 24             	mov    %eax,(%esp)
    18a4:	68 d7 1d 01 00       	push   $0x11dd7
    18a9:	68 e0 1e 01 00       	push   $0x11ee0
    18ae:	6a 01                	push   $0x1
    18b0:	6a ff                	push   $0xffffffff
    18b2:	e8 69 43 01 00       	call   15c20 <log_msg@plt>
    18b7:	83 c4 14             	add    $0x14,%esp
    18ba:	56                   	push   %esi
    18bb:	e8 10 06 00 00       	call   1ed0 <transfer_list_fini>
    18c0:	89 3c 24             	mov    %edi,(%esp)
    18c3:	e8 08 06 00 00       	call   1ed0 <transfer_list_fini>
    18c8:	8b 75 d4             	mov    -0x2c(%ebp),%esi
    18cb:	59                   	pop    %ecx
    18cc:	56                   	push   %esi
    18cd:	e9 10 ff ff ff       	jmp    17e2 <hc_init+0x282>
    18d2:	83 ec 0c             	sub    $0xc,%esp
    18d5:	50                   	push   %eax
    18d6:	e8 65 46 01 00       	call   15f40 <str_error@plt>
    18db:	89 04 24             	mov    %eax,(%esp)
    18de:	68 e3 1d 01 00       	push   $0x11de3
    18e3:	68 e0 1e 01 00       	push   $0x11ee0
    18e8:	6a 01                	push   $0x1
    18ea:	6a ff                	push   $0xffffffff
    18ec:	e8 2f 43 01 00       	call   15c20 <log_msg@plt>
    18f1:	83 c4 14             	add    $0x14,%esp
    18f4:	56                   	push   %esi
    18f5:	e8 d6 05 00 00       	call   1ed0 <transfer_list_fini>
    18fa:	89 3c 24             	mov    %edi,(%esp)
    18fd:	e8 ce 05 00 00       	call   1ed0 <transfer_list_fini>
    1902:	8b 7d d4             	mov    -0x2c(%ebp),%edi
    1905:	5e                   	pop    %esi
    1906:	57                   	push   %edi
    1907:	e8 c4 05 00 00       	call   1ed0 <transfer_list_fini>
    190c:	58                   	pop    %eax
    190d:	8b 45 d0             	mov    -0x30(%ebp),%eax
    1910:	50                   	push   %eax
    1911:	e8 ba 05 00 00       	call   1ed0 <transfer_list_fini>
    1916:	83 c4 10             	add    $0x10,%esp
    1919:	e9 d7 fe ff ff       	jmp    17f5 <hc_init+0x295>
    191e:	53                   	push   %ebx
    191f:	68 da 00 00 00       	push   $0xda
    1924:	68 12 56 01 00       	push   $0x15612
    1929:	68 5e 1d 01 00       	push   $0x11d5e
    192e:	e8 4d 43 01 00       	call   15c80 <assert_abort@plt>
    1933:	51                   	push   %ecx
    1934:	68 db 00 00 00       	push   $0xdb
    1939:	68 12 56 01 00       	push   $0x15612
    193e:	68 89 1d 01 00       	push   $0x11d89
    1943:	e8 38 43 01 00       	call   15c80 <assert_abort@plt>
    1948:	90                   	nop
    1949:	8d b4 26 00 00 00 00 	lea    0x0(%esi,%eiz,1),%esi

00001950 <hc_fini>:
    1950:	55                   	push   %ebp
    1951:	89 e5                	mov    %esp,%ebp
    1953:	83 ec 08             	sub    $0x8,%esp
    1956:	8b 4d 08             	mov    0x8(%ebp),%ecx
    1959:	85 c9                	test   %ecx,%ecx
    195b:	74 02                	je     195f <hc_fini+0xf>
    195d:	c9                   	leave  
    195e:	c3                   	ret    
    195f:	50                   	push   %eax
    1960:	68 06 01 00 00       	push   $0x106
    1965:	68 12 56 01 00       	push   $0x15612
    196a:	68 5e 1d 01 00       	push   $0x11d5e
    196f:	e8 0c 43 01 00       	call   15c80 <assert_abort@plt>
    1974:	8d b6 00 00 00 00    	lea    0x0(%esi),%esi
    197a:	8d bf 00 00 00 00    	lea    0x0(%edi),%edi

00001980 <uhci_hc_status>:
    1980:	55                   	push   %ebp
    1981:	89 e5                	mov    %esp,%ebp
    1983:	57                   	push   %edi
    1984:	56                   	push   %esi
    1985:	53                   	push   %ebx
    1986:	83 ec 0c             	sub    $0xc,%esp
    1989:	8b 45 08             	mov    0x8(%ebp),%eax
    198c:	8b 75 0c             	mov    0xc(%ebp),%esi
    198f:	85 c0                	test   %eax,%eax
    1991:	74 4a                	je     19dd <uhci_hc_status+0x5d>
    1993:	85 f6                	test   %esi,%esi
    1995:	74 70                	je     1a07 <uhci_hc_status+0x87>
    1997:	8b b8 38 08 00 00    	mov    0x838(%eax),%edi
    199d:	85 ff                	test   %edi,%edi
    199f:	74 51                	je     19f2 <uhci_hc_status+0x72>
    19a1:	8b 47 70             	mov    0x70(%edi),%eax
    19a4:	c7 06 00 00 00 00    	movl   $0x0,(%esi)
    19aa:	85 c0                	test   %eax,%eax
    19ac:	74 25                	je     19d3 <uhci_hc_status+0x53>
    19ae:	83 ec 0c             	sub    $0xc,%esp
    19b1:	83 c0 02             	add    $0x2,%eax
    19b4:	31 db                	xor    %ebx,%ebx
    19b6:	50                   	push   %eax
    19b7:	e8 44 44 01 00       	call   15e00 <pio_read_16@plt>
    19bc:	66 89 c3             	mov    %ax,%bx
    19bf:	8b 47 70             	mov    0x70(%edi),%eax
    19c2:	83 c0 02             	add    $0x2,%eax
    19c5:	5a                   	pop    %edx
    19c6:	59                   	pop    %ecx
    19c7:	53                   	push   %ebx
    19c8:	50                   	push   %eax
    19c9:	e8 e2 42 01 00       	call   15cb0 <pio_write_16@plt>
    19ce:	89 1e                	mov    %ebx,(%esi)
    19d0:	83 c4 10             	add    $0x10,%esp
    19d3:	8d 65 f4             	lea    -0xc(%ebp),%esp
    19d6:	31 c0                	xor    %eax,%eax
    19d8:	5b                   	pop    %ebx
    19d9:	5e                   	pop    %esi
    19da:	5f                   	pop    %edi
    19db:	5d                   	pop    %ebp
    19dc:	c3                   	ret    
    19dd:	57                   	push   %edi
    19de:	68 9d 01 00 00       	push   $0x19d
    19e3:	68 12 56 01 00       	push   $0x15612
    19e8:	68 90 1d 01 00       	push   $0x11d90
    19ed:	e8 8e 42 01 00       	call   15c80 <assert_abort@plt>
    19f2:	53                   	push   %ebx
    19f3:	68 a0 01 00 00       	push   $0x1a0
    19f8:	68 12 56 01 00       	push   $0x15612
    19fd:	68 5e 1d 01 00       	push   $0x11d5e
    1a02:	e8 79 42 01 00       	call   15c80 <assert_abort@plt>
    1a07:	56                   	push   %esi
    1a08:	68 9e 01 00 00       	push   $0x19e
    1a0d:	68 12 56 01 00       	push   $0x15612
    1a12:	68 0f 1e 01 00       	push   $0x11e0f
    1a17:	e8 64 42 01 00       	call   15c80 <assert_abort@plt>
    1a1c:	8d 74 26 00          	lea    0x0(%esi,%eiz,1),%esi

00001a20 <uhci_hc_schedule>:
    1a20:	55                   	push   %ebp
    1a21:	89 e5                	mov    %esp,%ebp
    1a23:	57                   	push   %edi
    1a24:	56                   	push   %esi
    1a25:	53                   	push   %ebx
    1a26:	83 ec 0c             	sub    $0xc,%esp
    1a29:	8b 45 08             	mov    0x8(%ebp),%eax
    1a2c:	8b 5d 0c             	mov    0xc(%ebp),%ebx
    1a2f:	85 c0                	test   %eax,%eax
    1a31:	0f 84 b1 00 00 00    	je     1ae8 <uhci_hc_schedule+0xc8>
    1a37:	8b b0 38 08 00 00    	mov    0x838(%eax),%esi
    1a3d:	85 f6                	test   %esi,%esi
    1a3f:	0f 84 8e 00 00 00    	je     1ad3 <uhci_hc_schedule+0xb3>
    1a45:	85 db                	test   %ebx,%ebx
    1a47:	0f 84 b0 00 00 00    	je     1afd <uhci_hc_schedule+0xdd>
    1a4d:	83 ec 0c             	sub    $0xc,%esp
    1a50:	8b 03                	mov    (%ebx),%eax
    1a52:	8b 78 0c             	mov    0xc(%eax),%edi
    1a55:	56                   	push   %esi
    1a56:	e8 95 66 00 00       	call   80f0 <virthub_base_get_address>
    1a5b:	83 c4 10             	add    $0x10,%esp
    1a5e:	66 39 c7             	cmp    %ax,%di
    1a61:	74 45                	je     1aa8 <uhci_hc_schedule+0x88>
    1a63:	83 ec 0c             	sub    $0xc,%esp
    1a66:	53                   	push   %ebx
    1a67:	e8 14 12 00 00       	call   2c80 <uhci_transfer_batch_get>
    1a6c:	83 c4 10             	add    $0x10,%esp
    1a6f:	85 c0                	test   %eax,%eax
    1a71:	74 47                	je     1aba <uhci_hc_schedule+0x9a>
    1a73:	8b 13                	mov    (%ebx),%edx
    1a75:	8b 4a 18             	mov    0x18(%edx),%ecx
    1a78:	8b 52 14             	mov    0x14(%edx),%edx
    1a7b:	8d 54 8a 3c          	lea    0x3c(%edx,%ecx,4),%edx
    1a7f:	8b 54 96 08          	mov    0x8(%esi,%edx,4),%edx
    1a83:	85 d2                	test   %edx,%edx
    1a85:	0f 84 87 00 00 00    	je     1b12 <uhci_hc_schedule+0xf2>
    1a8b:	51                   	push   %ecx
    1a8c:	51                   	push   %ecx
    1a8d:	50                   	push   %eax
    1a8e:	52                   	push   %edx
    1a8f:	e8 fc 04 00 00       	call   1f90 <transfer_list_add_batch>
    1a94:	83 c4 10             	add    $0x10,%esp
    1a97:	31 c0                	xor    %eax,%eax
    1a99:	8d 65 f4             	lea    -0xc(%ebp),%esp
    1a9c:	5b                   	pop    %ebx
    1a9d:	5e                   	pop    %esi
    1a9e:	5f                   	pop    %edi
    1a9f:	5d                   	pop    %ebp
    1aa0:	c3                   	ret    
    1aa1:	8d b4 26 00 00 00 00 	lea    0x0(%esi,%eiz,1),%esi
    1aa8:	89 5d 0c             	mov    %ebx,0xc(%ebp)
    1aab:	89 75 08             	mov    %esi,0x8(%ebp)
    1aae:	8d 65 f4             	lea    -0xc(%ebp),%esp
    1ab1:	5b                   	pop    %ebx
    1ab2:	5e                   	pop    %esi
    1ab3:	5f                   	pop    %edi
    1ab4:	5d                   	pop    %ebp
    1ab5:	e9 c6 20 00 00       	jmp    3b80 <uhci_rh_schedule>
    1aba:	56                   	push   %esi
    1abb:	68 5c 1f 01 00       	push   $0x11f5c
    1ac0:	6a 01                	push   $0x1
    1ac2:	6a ff                	push   $0xffffffff
    1ac4:	e8 57 41 01 00       	call   15c20 <log_msg@plt>
    1ac9:	83 c4 10             	add    $0x10,%esp
    1acc:	b8 fe ff ff ff       	mov    $0xfffffffe,%eax
    1ad1:	eb c6                	jmp    1a99 <uhci_hc_schedule+0x79>
    1ad3:	50                   	push   %eax
    1ad4:	68 b7 01 00 00       	push   $0x1b7
    1ad9:	68 12 56 01 00       	push   $0x15612
    1ade:	68 5e 1d 01 00       	push   $0x11d5e
    1ae3:	e8 98 41 01 00       	call   15c80 <assert_abort@plt>
    1ae8:	50                   	push   %eax
    1ae9:	68 b5 01 00 00       	push   $0x1b5
    1aee:	68 12 56 01 00       	push   $0x15612
    1af3:	68 90 1d 01 00       	push   $0x11d90
    1af8:	e8 83 41 01 00       	call   15c80 <assert_abort@plt>
    1afd:	57                   	push   %edi
    1afe:	68 b8 01 00 00       	push   $0x1b8
    1b03:	68 12 56 01 00       	push   $0x15612
    1b08:	68 75 21 01 00       	push   $0x12175
    1b0d:	e8 6e 41 01 00       	call   15c80 <assert_abort@plt>
    1b12:	53                   	push   %ebx
    1b13:	68 c5 01 00 00       	push   $0x1c5
    1b18:	68 12 56 01 00       	push   $0x15612
    1b1d:	68 16 1e 01 00       	push   $0x11e16
    1b22:	e8 59 41 01 00       	call   15c80 <assert_abort@plt>
    1b27:	66 90                	xchg   %ax,%ax
    1b29:	66 90                	xchg   %ax,%ax
    1b2b:	66 90                	xchg   %ax,%ax
    1b2d:	66 90                	xchg   %ax,%ax
    1b2f:	90                   	nop

00001b30 <uhci_dev_add>:
    1b30:	55                   	push   %ebp
    1b31:	89 e5                	mov    %esp,%ebp
    1b33:	53                   	push   %ebx
    1b34:	83 ec 08             	sub    $0x8,%esp
    1b37:	8b 5d 08             	mov    0x8(%ebp),%ebx
    1b3a:	68 0c 20 01 00       	push   $0x1200c
    1b3f:	6a 05                	push   $0x5
    1b41:	6a ff                	push   $0xffffffff
    1b43:	e8 d8 40 01 00       	call   15c20 <log_msg@plt>
    1b48:	83 c4 10             	add    $0x10,%esp
    1b4b:	85 db                	test   %ebx,%ebx
    1b4d:	74 12                	je     1b61 <uhci_dev_add+0x31>
    1b4f:	50                   	push   %eax
    1b50:	50                   	push   %eax
    1b51:	68 a0 20 01 00       	push   $0x120a0
    1b56:	53                   	push   %ebx
    1b57:	e8 14 40 00 00       	call   5b70 <hcd_ddf_add_hc>
    1b5c:	8b 5d fc             	mov    -0x4(%ebp),%ebx
    1b5f:	c9                   	leave  
    1b60:	c3                   	ret    
    1b61:	52                   	push   %edx
    1b62:	68 81 00 00 00       	push   $0x81
    1b67:	68 23 20 01 00       	push   $0x12023
    1b6c:	68 2a 20 01 00       	push   $0x1202a
    1b71:	e8 0a 41 01 00       	call   15c80 <assert_abort@plt>
    1b76:	8d 76 00             	lea    0x0(%esi),%esi
    1b79:	8d bc 27 00 00 00 00 	lea    0x0(%edi,%eiz,1),%edi

00001b80 <uhci_driver_fini>:
    1b80:	55                   	push   %ebp
    1b81:	89 e5                	mov    %esp,%ebp
    1b83:	56                   	push   %esi
    1b84:	53                   	push   %ebx
    1b85:	8b 5d 08             	mov    0x8(%ebp),%ebx
    1b88:	85 db                	test   %ebx,%ebx
    1b8a:	74 38                	je     1bc4 <uhci_driver_fini+0x44>
    1b8c:	8b b3 38 08 00 00    	mov    0x838(%ebx),%esi
    1b92:	85 f6                	test   %esi,%esi
    1b94:	74 0c                	je     1ba2 <uhci_driver_fini+0x22>
    1b96:	83 ec 0c             	sub    $0xc,%esp
    1b99:	56                   	push   %esi
    1b9a:	e8 b1 fd ff ff       	call   1950 <hc_fini>
    1b9f:	83 c4 10             	add    $0x10,%esp
    1ba2:	81 c3 24 08 00 00    	add    $0x824,%ebx
    1ba8:	50                   	push   %eax
    1ba9:	6a 14                	push   $0x14
    1bab:	6a 00                	push   $0x0
    1bad:	53                   	push   %ebx
    1bae:	e8 8d 42 01 00       	call   15e40 <memset@plt>
    1bb3:	89 75 08             	mov    %esi,0x8(%ebp)
    1bb6:	83 c4 10             	add    $0x10,%esp
    1bb9:	8d 65 f8             	lea    -0x8(%ebp),%esp
    1bbc:	5b                   	pop    %ebx
    1bbd:	5e                   	pop    %esi
    1bbe:	5d                   	pop    %ebp
    1bbf:	e9 8c 44 01 00       	jmp    16050 <free@plt>
    1bc4:	52                   	push   %edx
    1bc5:	6a 5a                	push   $0x5a
    1bc7:	68 23 20 01 00       	push   $0x12023
    1bcc:	68 90 1d 01 00       	push   $0x11d90
    1bd1:	e8 aa 40 01 00       	call   15c80 <assert_abort@plt>
    1bd6:	8d 76 00             	lea    0x0(%esi),%esi
    1bd9:	8d bc 27 00 00 00 00 	lea    0x0(%edi,%eiz,1),%edi

00001be0 <uhci_driver_init>:
    1be0:	55                   	push   %ebp
    1be1:	89 e5                	mov    %esp,%ebp
    1be3:	57                   	push   %edi
    1be4:	56                   	push   %esi
    1be5:	53                   	push   %ebx
    1be6:	83 ec 1c             	sub    $0x1c,%esp
    1be9:	8b 5d 08             	mov    0x8(%ebp),%ebx
    1bec:	8b 7d 10             	mov    0x10(%ebp),%edi
    1bef:	85 db                	test   %ebx,%ebx
    1bf1:	0f 84 c2 00 00 00    	je     1cb9 <uhci_driver_init+0xd9>
    1bf7:	8b b3 38 08 00 00    	mov    0x838(%ebx),%esi
    1bfd:	85 f6                	test   %esi,%esi
    1bff:	0f 85 a2 00 00 00    	jne    1ca7 <uhci_driver_init+0xc7>
    1c05:	83 ec 0c             	sub    $0xc,%esp
    1c08:	68 20 01 00 00       	push   $0x120
    1c0d:	e8 6e 3f 01 00       	call   15b80 <malloc@plt>
    1c12:	83 c4 10             	add    $0x10,%esp
    1c15:	89 c6                	mov    %eax,%esi
    1c17:	85 c0                	test   %eax,%eax
    1c19:	0f 84 81 00 00 00    	je     1ca0 <uhci_driver_init+0xc0>
    1c1f:	81 e7 ff 00 00 00    	and    $0xff,%edi
    1c25:	8b 55 0c             	mov    0xc(%ebp),%edx
    1c28:	50                   	push   %eax
    1c29:	57                   	push   %edi
    1c2a:	52                   	push   %edx
    1c2b:	56                   	push   %esi
    1c2c:	e8 2f f9 ff ff       	call   1560 <hc_init>
    1c31:	83 c4 10             	add    $0x10,%esp
    1c34:	85 c0                	test   %eax,%eax
    1c36:	75 48                	jne    1c80 <uhci_driver_init+0xa0>
    1c38:	a1 a0 20 01 00       	mov    0x120a0,%eax
    1c3d:	89 b3 38 08 00 00    	mov    %esi,0x838(%ebx)
    1c43:	89 83 24 08 00 00    	mov    %eax,0x824(%ebx)
    1c49:	a1 a4 20 01 00       	mov    0x120a4,%eax
    1c4e:	89 83 28 08 00 00    	mov    %eax,0x828(%ebx)
    1c54:	a1 a8 20 01 00       	mov    0x120a8,%eax
    1c59:	89 83 2c 08 00 00    	mov    %eax,0x82c(%ebx)
    1c5f:	a1 ac 20 01 00       	mov    0x120ac,%eax
    1c64:	89 83 30 08 00 00    	mov    %eax,0x830(%ebx)
    1c6a:	a1 b0 20 01 00       	mov    0x120b0,%eax
    1c6f:	89 83 34 08 00 00    	mov    %eax,0x834(%ebx)
    1c75:	31 c0                	xor    %eax,%eax
    1c77:	8d 65 f4             	lea    -0xc(%ebp),%esp
    1c7a:	5b                   	pop    %ebx
    1c7b:	5e                   	pop    %esi
    1c7c:	5f                   	pop    %edi
    1c7d:	5d                   	pop    %ebp
    1c7e:	c3                   	ret    
    1c7f:	90                   	nop
    1c80:	83 ec 0c             	sub    $0xc,%esp
    1c83:	89 45 e4             	mov    %eax,-0x1c(%ebp)
    1c86:	56                   	push   %esi
    1c87:	e8 c4 43 01 00       	call   16050 <free@plt>
    1c8c:	8b 45 e4             	mov    -0x1c(%ebp),%eax
    1c8f:	83 c4 10             	add    $0x10,%esp
    1c92:	8d 65 f4             	lea    -0xc(%ebp),%esp
    1c95:	5b                   	pop    %ebx
    1c96:	5e                   	pop    %esi
    1c97:	5f                   	pop    %edi
    1c98:	5d                   	pop    %ebp
    1c99:	c3                   	ret    
    1c9a:	8d b6 00 00 00 00    	lea    0x0(%esi),%esi
    1ca0:	b8 fe ff ff ff       	mov    $0xfffffffe,%eax
    1ca5:	eb d0                	jmp    1c77 <uhci_driver_init+0x97>
    1ca7:	51                   	push   %ecx
    1ca8:	6a 49                	push   $0x49
    1caa:	68 23 20 01 00       	push   $0x12023
    1caf:	68 54 20 01 00       	push   $0x12054
    1cb4:	e8 c7 3f 01 00       	call   15c80 <assert_abort@plt>
    1cb9:	57                   	push   %edi
    1cba:	6a 48                	push   $0x48
    1cbc:	68 23 20 01 00       	push   $0x12023
    1cc1:	68 90 1d 01 00       	push   $0x11d90
    1cc6:	e8 b5 3f 01 00       	call   15c80 <assert_abort@plt>
    1ccb:	90                   	nop
    1ccc:	8d 74 26 00          	lea    0x0(%esi,%eiz,1),%esi

00001cd0 <disable_legacy>:
    1cd0:	55                   	push   %ebp
    1cd1:	89 e5                	mov    %esp,%ebp
    1cd3:	56                   	push   %esi
    1cd4:	53                   	push   %ebx
    1cd5:	8b 45 08             	mov    0x8(%ebp),%eax
    1cd8:	85 c0                	test   %eax,%eax
    1cda:	74 4b                	je     1d27 <disable_legacy+0x57>
    1cdc:	83 ec 0c             	sub    $0xc,%esp
    1cdf:	50                   	push   %eax
    1ce0:	e8 ab 75 00 00       	call   9290 <ddf_dev_get_handle>
    1ce5:	5a                   	pop    %edx
    1ce6:	59                   	pop    %ecx
    1ce7:	6a 01                	push   $0x1
    1ce9:	50                   	push   %eax
    1cea:	e8 e1 3d 01 00       	call   15ad0 <devman_parent_device_connect@plt>
    1cef:	83 c4 10             	add    $0x10,%esp
    1cf2:	89 c6                	mov    %eax,%esi
    1cf4:	85 c0                	test   %eax,%eax
    1cf6:	74 28                	je     1d20 <disable_legacy+0x50>
    1cf8:	50                   	push   %eax
    1cf9:	68 00 af 00 00       	push   $0xaf00
    1cfe:	68 c0 00 00 00       	push   $0xc0
    1d03:	56                   	push   %esi
    1d04:	e8 a7 e9 00 00       	call   106b0 <pci_config_space_write_16>
    1d09:	89 34 24             	mov    %esi,(%esp)
    1d0c:	89 c3                	mov    %eax,%ebx
    1d0e:	e8 7d 3d 01 00       	call   15a90 <async_hangup@plt>
    1d13:	83 c4 10             	add    $0x10,%esp
    1d16:	89 d8                	mov    %ebx,%eax
    1d18:	8d 65 f8             	lea    -0x8(%ebp),%esp
    1d1b:	5b                   	pop    %ebx
    1d1c:	5e                   	pop    %esi
    1d1d:	5d                   	pop    %ebp
    1d1e:	c3                   	ret    
    1d1f:	90                   	nop
    1d20:	b8 fe ff ff ff       	mov    $0xfffffffe,%eax
    1d25:	eb f1                	jmp    1d18 <disable_legacy+0x48>
    1d27:	53                   	push   %ebx
    1d28:	6a 6a                	push   $0x6a
    1d2a:	68 23 20 01 00       	push   $0x12023
    1d2f:	68 2a 20 01 00       	push   $0x1202a
    1d34:	e8 47 3f 01 00       	call   15c80 <assert_abort@plt>
    1d39:	66 90                	xchg   %ax,%ax
    1d3b:	66 90                	xchg   %ax,%ax
    1d3d:	66 90                	xchg   %ax,%ax
    1d3f:	90                   	nop

00001d40 <main>:
    1d40:	8d 4c 24 04          	lea    0x4(%esp),%ecx
    1d44:	83 e4 f0             	and    $0xfffffff0,%esp
    1d47:	ff 71 fc             	pushl  -0x4(%ecx)
    1d4a:	55                   	push   %ebp
    1d4b:	89 e5                	mov    %esp,%ebp
    1d4d:	51                   	push   %ecx
    1d4e:	83 ec 10             	sub    $0x10,%esp
    1d51:	68 31 20 01 00       	push   $0x12031
    1d56:	e8 25 3d 01 00       	call   15a80 <printf@plt>
    1d5b:	c7 04 24 0a 1e 01 00 	movl   $0x11e0a,(%esp)
    1d62:	e8 89 3d 01 00       	call   15af0 <log_init@plt>
    1d67:	58                   	pop    %eax
    1d68:	5a                   	pop    %edx
    1d69:	6a 03                	push   $0x3
    1d6b:	68 0a 1e 01 00       	push   $0x11e0a
    1d70:	e8 bb 3e 01 00       	call   15c30 <logctl_set_log_level@plt>
    1d75:	c7 04 24 80 20 01 00 	movl   $0x12080,(%esp)
    1d7c:	e8 4f 7c 00 00       	call   99d0 <ddf_driver_main>
    1d81:	8b 4d fc             	mov    -0x4(%ebp),%ecx
    1d84:	c9                   	leave  
    1d85:	8d 61 fc             	lea    -0x4(%ecx),%esp
    1d88:	c3                   	ret    
    1d89:	66 90                	xchg   %ax,%ax
    1d8b:	66 90                	xchg   %ax,%ax
    1d8d:	66 90                	xchg   %ax,%ax
    1d8f:	90                   	nop

00001d90 <uhci_transfer_batch_from_link.part.0>:
    1d90:	55                   	push   %ebp
    1d91:	89 e5                	mov    %esp,%ebp
    1d93:	83 ec 0c             	sub    $0xc,%esp
    1d96:	6a 76                	push   $0x76
    1d98:	68 d0 20 01 00       	push   $0x120d0
    1d9d:	68 08 3b 01 00       	push   $0x13b08
    1da2:	e8 d9 3e 01 00       	call   15c80 <assert_abort@plt>
    1da7:	89 f6                	mov    %esi,%esi
    1da9:	8d bc 27 00 00 00 00 	lea    0x0(%edi,%eiz,1),%edi

00001db0 <transfer_list_init>:
    1db0:	55                   	push   %ebp
    1db1:	89 e5                	mov    %esp,%ebp
    1db3:	57                   	push   %edi
    1db4:	56                   	push   %esi
    1db5:	53                   	push   %ebx
    1db6:	83 ec 1c             	sub    $0x1c,%esp
    1db9:	8b 5d 08             	mov    0x8(%ebp),%ebx
    1dbc:	8b 75 0c             	mov    0xc(%ebp),%esi
    1dbf:	85 db                	test   %ebx,%ebx
    1dc1:	0f 84 d9 00 00 00    	je     1ea0 <transfer_list_init+0xf0>
    1dc7:	89 73 14             	mov    %esi,0x14(%ebx)
    1dca:	8d 7d e4             	lea    -0x1c(%ebp),%edi
    1dcd:	50                   	push   %eax
    1dce:	50                   	push   %eax
    1dcf:	8d 45 e0             	lea    -0x20(%ebp),%eax
    1dd2:	57                   	push   %edi
    1dd3:	c7 45 e4 ff ff ff ff 	movl   $0xffffffff,-0x1c(%ebp)
    1dda:	50                   	push   %eax
    1ddb:	6a 00                	push   $0x0
    1ddd:	6a 03                	push   $0x3
    1ddf:	6a 00                	push   $0x0
    1de1:	68 00 10 00 00       	push   $0x1000
    1de6:	e8 85 40 01 00       	call   15e70 <dmamem_map_anonymous@plt>
    1deb:	83 c4 20             	add    $0x20,%esp
    1dee:	85 c0                	test   %eax,%eax
    1df0:	0f 85 8a 00 00 00    	jne    1e80 <transfer_list_init+0xd0>
    1df6:	50                   	push   %eax
    1df7:	8b 45 e4             	mov    -0x1c(%ebp),%eax
    1dfa:	68 00 10 00 00       	push   $0x1000
    1dff:	6a 05                	push   $0x5
    1e01:	50                   	push   %eax
    1e02:	e8 39 40 01 00       	call   15e40 <memset@plt>
    1e07:	8b 45 e4             	mov    -0x1c(%ebp),%eax
    1e0a:	83 c4 10             	add    $0x10,%esp
    1e0d:	89 43 10             	mov    %eax,0x10(%ebx)
    1e10:	85 c0                	test   %eax,%eax
    1e12:	74 73                	je     1e87 <transfer_list_init+0xd7>
    1e14:	52                   	push   %edx
    1e15:	52                   	push   %edx
    1e16:	57                   	push   %edi
    1e17:	50                   	push   %eax
    1e18:	e8 b3 3f 01 00       	call   15dd0 <as_get_physical_mapping@plt>
    1e1d:	83 c4 10             	add    $0x10,%esp
    1e20:	31 d2                	xor    %edx,%edx
    1e22:	85 c0                	test   %eax,%eax
    1e24:	74 52                	je     1e78 <transfer_list_init+0xc8>
    1e26:	51                   	push   %ecx
    1e27:	51                   	push   %ecx
    1e28:	8b 7b 10             	mov    0x10(%ebx),%edi
    1e2b:	52                   	push   %edx
    1e2c:	57                   	push   %edi
    1e2d:	56                   	push   %esi
    1e2e:	68 9c 21 01 00       	push   $0x1219c
    1e33:	6a 05                	push   $0x5
    1e35:	6a ff                	push   $0xffffffff
    1e37:	e8 e4 3d 01 00       	call   15c20 <log_msg@plt>
    1e3c:	8b 43 10             	mov    0x10(%ebx),%eax
    1e3f:	83 c4 20             	add    $0x20,%esp
    1e42:	85 c0                	test   %eax,%eax
    1e44:	74 6c                	je     1eb2 <transfer_list_init+0x102>
    1e46:	83 ec 0c             	sub    $0xc,%esp
    1e49:	c7 40 04 01 00 00 00 	movl   $0x1,0x4(%eax)
    1e50:	c7 00 01 00 00 00    	movl   $0x1,(%eax)
    1e56:	8d 43 18             	lea    0x18(%ebx),%eax
    1e59:	89 43 18             	mov    %eax,0x18(%ebx)
    1e5c:	89 43 1c             	mov    %eax,0x1c(%ebx)
    1e5f:	53                   	push   %ebx
    1e60:	e8 0b 3f 01 00       	call   15d70 <fibril_mutex_initialize@plt>
    1e65:	83 c4 10             	add    $0x10,%esp
    1e68:	31 c0                	xor    %eax,%eax
    1e6a:	8d 65 f4             	lea    -0xc(%ebp),%esp
    1e6d:	5b                   	pop    %ebx
    1e6e:	5e                   	pop    %esi
    1e6f:	5f                   	pop    %edi
    1e70:	5d                   	pop    %ebp
    1e71:	c3                   	ret    
    1e72:	8d b6 00 00 00 00    	lea    0x0(%esi),%esi
    1e78:	8b 55 e4             	mov    -0x1c(%ebp),%edx
    1e7b:	eb a9                	jmp    1e26 <transfer_list_init+0x76>
    1e7d:	8d 76 00             	lea    0x0(%esi),%esi
    1e80:	c7 43 10 00 00 00 00 	movl   $0x0,0x10(%ebx)
    1e87:	51                   	push   %ecx
    1e88:	68 7c 21 01 00       	push   $0x1217c
    1e8d:	6a 01                	push   $0x1
    1e8f:	6a ff                	push   $0xffffffff
    1e91:	e8 8a 3d 01 00       	call   15c20 <log_msg@plt>
    1e96:	83 c4 10             	add    $0x10,%esp
    1e99:	b8 fe ff ff ff       	mov    $0xfffffffe,%eax
    1e9e:	eb ca                	jmp    1e6a <transfer_list_init+0xba>
    1ea0:	50                   	push   %eax
    1ea1:	6a 3c                	push   $0x3c
    1ea3:	68 dd 20 01 00       	push   $0x120dd
    1ea8:	68 5e 1d 01 00       	push   $0x11d5e
    1ead:	e8 ce 3d 01 00       	call   15c80 <assert_abort@plt>
    1eb2:	50                   	push   %eax
    1eb3:	6a 3e                	push   $0x3e
    1eb5:	68 ed 20 01 00       	push   $0x120ed
    1eba:	68 5e 1d 01 00       	push   $0x11d5e
    1ebf:	e8 bc 3d 01 00       	call   15c80 <assert_abort@plt>
    1ec4:	8d b6 00 00 00 00    	lea    0x0(%esi),%esi
    1eca:	8d bf 00 00 00 00    	lea    0x0(%edi),%edi

00001ed0 <transfer_list_fini>:
    1ed0:	55                   	push   %ebp
    1ed1:	89 e5                	mov    %esp,%ebp
    1ed3:	83 ec 08             	sub    $0x8,%esp
    1ed6:	8b 45 08             	mov    0x8(%ebp),%eax
    1ed9:	85 c0                	test   %eax,%eax
    1edb:	74 0c                	je     1ee9 <transfer_list_fini+0x19>
    1edd:	8b 40 10             	mov    0x10(%eax),%eax
    1ee0:	89 45 08             	mov    %eax,0x8(%ebp)
    1ee3:	c9                   	leave  
    1ee4:	e9 e7 3d 01 00       	jmp    15cd0 <dmamem_unmap_anonymous@plt>
    1ee9:	50                   	push   %eax
    1eea:	6a 55                	push   $0x55
    1eec:	68 dd 20 01 00       	push   $0x120dd
    1ef1:	68 5e 1d 01 00       	push   $0x11d5e
    1ef6:	e8 85 3d 01 00       	call   15c80 <assert_abort@plt>
    1efb:	90                   	nop
    1efc:	8d 74 26 00          	lea    0x0(%esi,%eiz,1),%esi

00001f00 <transfer_list_set_next>:
    1f00:	55                   	push   %ebp
    1f01:	89 e5                	mov    %esp,%ebp
    1f03:	53                   	push   %ebx
    1f04:	83 ec 14             	sub    $0x14,%esp
    1f07:	8b 45 08             	mov    0x8(%ebp),%eax
    1f0a:	8b 55 0c             	mov    0xc(%ebp),%edx
    1f0d:	85 c0                	test   %eax,%eax
    1f0f:	74 67                	je     1f78 <transfer_list_set_next+0x78>
    1f11:	8b 58 10             	mov    0x10(%eax),%ebx
    1f14:	85 db                	test   %ebx,%ebx
    1f16:	74 4e                	je     1f66 <transfer_list_set_next+0x66>
    1f18:	85 d2                	test   %edx,%edx
    1f1a:	74 38                	je     1f54 <transfer_list_set_next+0x54>
    1f1c:	50                   	push   %eax
    1f1d:	50                   	push   %eax
    1f1e:	8b 52 10             	mov    0x10(%edx),%edx
    1f21:	8d 45 f4             	lea    -0xc(%ebp),%eax
    1f24:	50                   	push   %eax
    1f25:	52                   	push   %edx
    1f26:	e8 a5 3e 01 00       	call   15dd0 <as_get_physical_mapping@plt>
    1f2b:	83 c4 10             	add    $0x10,%esp
    1f2e:	85 c0                	test   %eax,%eax
    1f30:	74 0e                	je     1f40 <transfer_list_set_next+0x40>
    1f32:	c7 03 01 00 00 00    	movl   $0x1,(%ebx)
    1f38:	8b 5d fc             	mov    -0x4(%ebp),%ebx
    1f3b:	c9                   	leave  
    1f3c:	c3                   	ret    
    1f3d:	8d 76 00             	lea    0x0(%esi),%esi
    1f40:	8b 45 f4             	mov    -0xc(%ebp),%eax
    1f43:	85 c0                	test   %eax,%eax
    1f45:	74 eb                	je     1f32 <transfer_list_set_next+0x32>
    1f47:	83 e0 f0             	and    $0xfffffff0,%eax
    1f4a:	83 c8 02             	or     $0x2,%eax
    1f4d:	89 03                	mov    %eax,(%ebx)
    1f4f:	8b 5d fc             	mov    -0x4(%ebp),%ebx
    1f52:	c9                   	leave  
    1f53:	c3                   	ret    
    1f54:	51                   	push   %ecx
    1f55:	6a 64                	push   $0x64
    1f57:	68 dd 20 01 00       	push   $0x120dd
    1f5c:	68 19 21 01 00       	push   $0x12119
    1f61:	e8 1a 3d 01 00       	call   15c80 <assert_abort@plt>
    1f66:	53                   	push   %ebx
    1f67:	6a 63                	push   $0x63
    1f69:	68 dd 20 01 00       	push   $0x120dd
    1f6e:	68 04 21 01 00       	push   $0x12104
    1f73:	e8 08 3d 01 00       	call   15c80 <assert_abort@plt>
    1f78:	50                   	push   %eax
    1f79:	6a 62                	push   $0x62
    1f7b:	68 dd 20 01 00       	push   $0x120dd
    1f80:	68 5e 1d 01 00       	push   $0x11d5e
    1f85:	e8 f6 3c 01 00       	call   15c80 <assert_abort@plt>
    1f8a:	8d b6 00 00 00 00    	lea    0x0(%esi),%esi

00001f90 <transfer_list_add_batch>:
    1f90:	55                   	push   %ebp
    1f91:	89 e5                	mov    %esp,%ebp
    1f93:	57                   	push   %edi
    1f94:	56                   	push   %esi
    1f95:	53                   	push   %ebx
    1f96:	83 ec 2c             	sub    $0x2c,%esp
    1f99:	8b 75 08             	mov    0x8(%ebp),%esi
    1f9c:	8b 5d 0c             	mov    0xc(%ebp),%ebx
    1f9f:	85 f6                	test   %esi,%esi
    1fa1:	0f 84 69 01 00 00    	je     2110 <transfer_list_add_batch+0x180>
    1fa7:	85 db                	test   %ebx,%ebx
    1fa9:	0f 84 78 01 00 00    	je     2127 <transfer_list_add_batch+0x197>
    1faf:	83 ec 0c             	sub    $0xc,%esp
    1fb2:	8b 46 14             	mov    0x14(%esi),%eax
    1fb5:	50                   	push   %eax
    1fb6:	8b 43 10             	mov    0x10(%ebx),%eax
    1fb9:	50                   	push   %eax
    1fba:	68 29 21 01 00       	push   $0x12129
    1fbf:	6a 05                	push   $0x5
    1fc1:	6a ff                	push   $0xffffffff
    1fc3:	e8 58 3c 01 00       	call   15c20 <log_msg@plt>
    1fc8:	83 c4 14             	add    $0x14,%esp
    1fcb:	56                   	push   %esi
    1fcc:	e8 9f 40 01 00       	call   16070 <fibril_mutex_lock@plt>
    1fd1:	8d 46 18             	lea    0x18(%esi),%eax
    1fd4:	83 c4 10             	add    $0x10,%esp
    1fd7:	8b 7e 10             	mov    0x10(%esi),%edi
    1fda:	89 c1                	mov    %eax,%ecx
    1fdc:	89 45 d4             	mov    %eax,-0x2c(%ebp)
    1fdf:	3b 46 1c             	cmp    0x1c(%esi),%eax
    1fe2:	74 16                	je     1ffa <transfer_list_add_batch+0x6a>
    1fe4:	8b 46 18             	mov    0x18(%esi),%eax
    1fe7:	85 c0                	test   %eax,%eax
    1fe9:	0f 84 33 01 00 00    	je     2122 <transfer_list_add_batch+0x192>
    1fef:	39 c1                	cmp    %eax,%ecx
    1ff1:	0f 84 2b 01 00 00    	je     2122 <transfer_list_add_batch+0x192>
    1ff7:	8b 78 ec             	mov    -0x14(%eax),%edi
    1ffa:	50                   	push   %eax
    1ffb:	50                   	push   %eax
    1ffc:	8d 55 e4             	lea    -0x1c(%ebp),%edx
    1fff:	8b 03                	mov    (%ebx),%eax
    2001:	52                   	push   %edx
    2002:	89 55 d0             	mov    %edx,-0x30(%ebp)
    2005:	50                   	push   %eax
    2006:	e8 c5 3d 01 00       	call   15dd0 <as_get_physical_mapping@plt>
    200b:	83 c4 10             	add    $0x10,%esp
    200e:	8b 55 d0             	mov    -0x30(%ebp),%edx
    2011:	85 c0                	test   %eax,%eax
    2013:	0f 84 bf 00 00 00    	je     20d8 <transfer_list_add_batch+0x148>
    2019:	8b 03                	mov    (%ebx),%eax
    201b:	8b 0f                	mov    (%edi),%ecx
    201d:	89 08                	mov    %ecx,(%eax)
    201f:	51                   	push   %ecx
    2020:	51                   	push   %ecx
    2021:	52                   	push   %edx
    2022:	50                   	push   %eax
    2023:	e8 a8 3d 01 00       	call   15dd0 <as_get_physical_mapping@plt>
    2028:	83 c4 10             	add    $0x10,%esp
    202b:	85 c0                	test   %eax,%eax
    202d:	0f 84 c5 00 00 00    	je     20f8 <transfer_list_add_batch+0x168>
    2033:	c7 07 01 00 00 00    	movl   $0x1,(%edi)
    2039:	8b 56 18             	mov    0x18(%esi),%edx
    203c:	8b 7d d4             	mov    -0x2c(%ebp),%edi
    203f:	89 53 14             	mov    %edx,0x14(%ebx)
    2042:	8d 43 14             	lea    0x14(%ebx),%eax
    2045:	8b 56 18             	mov    0x18(%esi),%edx
    2048:	89 7b 18             	mov    %edi,0x18(%ebx)
    204b:	83 ec 0c             	sub    $0xc,%esp
    204e:	8b 7e 14             	mov    0x14(%esi),%edi
    2051:	89 42 04             	mov    %eax,0x4(%edx)
    2054:	8b 53 10             	mov    0x10(%ebx),%edx
    2057:	89 46 18             	mov    %eax,0x18(%esi)
    205a:	8b 02                	mov    (%edx),%eax
    205c:	8b 52 14             	mov    0x14(%edx),%edx
    205f:	89 55 d0             	mov    %edx,-0x30(%ebp)
    2062:	8b 48 1c             	mov    0x1c(%eax),%ecx
    2065:	8b 40 10             	mov    0x10(%eax),%eax
    2068:	50                   	push   %eax
    2069:	89 4d d4             	mov    %ecx,-0x2c(%ebp)
    206c:	e8 1f 68 00 00       	call   8890 <usb_str_direction>
    2071:	5a                   	pop    %edx
    2072:	89 45 cc             	mov    %eax,-0x34(%ebp)
    2075:	8b 43 10             	mov    0x10(%ebx),%eax
    2078:	8b 00                	mov    (%eax),%eax
    207a:	8b 48 14             	mov    0x14(%eax),%ecx
    207d:	51                   	push   %ecx
    207e:	e8 ed 67 00 00       	call   8870 <usb_str_transfer_type_short>
    2083:	89 45 c8             	mov    %eax,-0x38(%ebp)
    2086:	58                   	pop    %eax
    2087:	8b 43 10             	mov    0x10(%ebx),%eax
    208a:	8b 00                	mov    (%eax),%eax
    208c:	8b 40 18             	mov    0x18(%eax),%eax
    208f:	50                   	push   %eax
    2090:	e8 1b 68 00 00       	call   88b0 <usb_str_speed>
    2095:	8b 53 10             	mov    0x10(%ebx),%edx
    2098:	8b 5d d4             	mov    -0x2c(%ebp),%ebx
    209b:	8b 0a                	mov    (%edx),%ecx
    209d:	57                   	push   %edi
    209e:	8b 7d d0             	mov    -0x30(%ebp),%edi
    20a1:	53                   	push   %ebx
    20a2:	8b 5d cc             	mov    -0x34(%ebp),%ebx
    20a5:	57                   	push   %edi
    20a6:	8b 7d c8             	mov    -0x38(%ebp),%edi
    20a9:	53                   	push   %ebx
    20aa:	57                   	push   %edi
    20ab:	50                   	push   %eax
    20ac:	0f bf 41 0e          	movswl 0xe(%ecx),%eax
    20b0:	50                   	push   %eax
    20b1:	0f bf 41 0c          	movswl 0xc(%ecx),%eax
    20b5:	50                   	push   %eax
    20b6:	52                   	push   %edx
    20b7:	68 f0 21 01 00       	push   $0x121f0
    20bc:	6a 05                	push   $0x5
    20be:	6a ff                	push   $0xffffffff
    20c0:	e8 5b 3b 01 00       	call   15c20 <log_msg@plt>
    20c5:	83 c4 34             	add    $0x34,%esp
    20c8:	56                   	push   %esi
    20c9:	e8 72 3c 01 00       	call   15d40 <fibril_mutex_unlock@plt>
    20ce:	8d 65 f4             	lea    -0xc(%ebp),%esp
    20d1:	5b                   	pop    %ebx
    20d2:	5e                   	pop    %esi
    20d3:	5f                   	pop    %edi
    20d4:	5d                   	pop    %ebp
    20d5:	c3                   	ret    
    20d6:	66 90                	xchg   %ax,%ax
    20d8:	f6 45 e4 0f          	testb  $0xf,-0x1c(%ebp)
    20dc:	0f 84 37 ff ff ff    	je     2019 <transfer_list_add_batch+0x89>
    20e2:	53                   	push   %ebx
    20e3:	68 83 00 00 00       	push   $0x83
    20e8:	68 dd 20 01 00       	push   $0x120dd
    20ed:	68 c8 21 01 00       	push   $0x121c8
    20f2:	e8 89 3b 01 00       	call   15c80 <assert_abort@plt>
    20f7:	90                   	nop
    20f8:	8b 45 e4             	mov    -0x1c(%ebp),%eax
    20fb:	85 c0                	test   %eax,%eax
    20fd:	0f 84 30 ff ff ff    	je     2033 <transfer_list_add_batch+0xa3>
    2103:	83 e0 f0             	and    $0xfffffff0,%eax
    2106:	83 c8 02             	or     $0x2,%eax
    2109:	89 07                	mov    %eax,(%edi)
    210b:	e9 29 ff ff ff       	jmp    2039 <transfer_list_add_batch+0xa9>
    2110:	50                   	push   %eax
    2111:	6a 73                	push   $0x73
    2113:	68 dd 20 01 00       	push   $0x120dd
    2118:	68 5e 1d 01 00       	push   $0x11d5e
    211d:	e8 5e 3b 01 00       	call   15c80 <assert_abort@plt>
    2122:	e8 69 fc ff ff       	call   1d90 <uhci_transfer_batch_from_link.part.0>
    2127:	50                   	push   %eax
    2128:	6a 74                	push   $0x74
    212a:	68 dd 20 01 00       	push   $0x120dd
    212f:	68 1e 21 01 00       	push   $0x1211e
    2134:	e8 47 3b 01 00       	call   15c80 <assert_abort@plt>
    2139:	8d b4 26 00 00 00 00 	lea    0x0(%esi,%eiz,1),%esi

00002140 <transfer_list_remove_finished>:
    2140:	55                   	push   %ebp
    2141:	89 e5                	mov    %esp,%ebp
    2143:	57                   	push   %edi
    2144:	56                   	push   %esi
    2145:	53                   	push   %ebx
    2146:	83 ec 3c             	sub    $0x3c,%esp
    2149:	8b 75 08             	mov    0x8(%ebp),%esi
    214c:	85 f6                	test   %esi,%esi
    214e:	0f 84 8b 02 00 00    	je     23df <transfer_list_remove_finished+0x29f>
    2154:	8b 45 0c             	mov    0xc(%ebp),%eax
    2157:	85 c0                	test   %eax,%eax
    2159:	0f 84 6b 02 00 00    	je     23ca <transfer_list_remove_finished+0x28a>
    215f:	83 ec 0c             	sub    $0xc,%esp
    2162:	56                   	push   %esi
    2163:	e8 08 3f 01 00       	call   16070 <fibril_mutex_lock@plt>
    2168:	8d 46 18             	lea    0x18(%esi),%eax
    216b:	8b 7e 1c             	mov    0x1c(%esi),%edi
    216e:	83 c4 10             	add    $0x10,%esp
    2171:	89 45 d0             	mov    %eax,-0x30(%ebp)
    2174:	39 f8                	cmp    %edi,%eax
    2176:	0f 84 bf 01 00 00    	je     233b <transfer_list_remove_finished+0x1fb>
    217c:	89 75 08             	mov    %esi,0x8(%ebp)
    217f:	eb 0a                	jmp    218b <transfer_list_remove_finished+0x4b>
    2181:	8d b4 26 00 00 00 00 	lea    0x0(%esi,%eiz,1),%esi
    2188:	8b 7d d4             	mov    -0x2c(%ebp),%edi
    218b:	85 ff                	test   %edi,%edi
    218d:	0f 84 a5 01 00 00    	je     2338 <transfer_list_remove_finished+0x1f8>
    2193:	3b 7d d0             	cmp    -0x30(%ebp),%edi
    2196:	0f 84 9c 01 00 00    	je     2338 <transfer_list_remove_finished+0x1f8>
    219c:	83 ec 0c             	sub    $0xc,%esp
    219f:	8b 47 04             	mov    0x4(%edi),%eax
    21a2:	8d 5f ec             	lea    -0x14(%edi),%ebx
    21a5:	89 45 d4             	mov    %eax,-0x2c(%ebp)
    21a8:	53                   	push   %ebx
    21a9:	e8 52 0e 00 00       	call   3000 <uhci_transfer_batch_is_complete>
    21ae:	83 c4 10             	add    $0x10,%esp
    21b1:	84 c0                	test   %al,%al
    21b3:	74 d3                	je     2188 <transfer_list_remove_finished+0x48>
    21b5:	8b 45 08             	mov    0x8(%ebp),%eax
    21b8:	8b 40 10             	mov    0x10(%eax),%eax
    21bb:	85 c0                	test   %eax,%eax
    21bd:	0f 84 d8 01 00 00    	je     239b <transfer_list_remove_finished+0x25b>
    21c3:	85 db                	test   %ebx,%ebx
    21c5:	0f 84 bb 01 00 00    	je     2386 <transfer_list_remove_finished+0x246>
    21cb:	8b 0b                	mov    (%ebx),%ecx
    21cd:	85 c9                	test   %ecx,%ecx
    21cf:	0f 84 9c 01 00 00    	je     2371 <transfer_list_remove_finished+0x231>
    21d5:	83 ec 0c             	sub    $0xc,%esp
    21d8:	8b 45 08             	mov    0x8(%ebp),%eax
    21db:	50                   	push   %eax
    21dc:	e8 2f 39 01 00       	call   15b10 <fibril_mutex_is_locked@plt>
    21e1:	83 c4 10             	add    $0x10,%esp
    21e4:	84 c0                	test   %al,%al
    21e6:	0f 84 70 01 00 00    	je     235c <transfer_list_remove_finished+0x21c>
    21ec:	8b 45 08             	mov    0x8(%ebp),%eax
    21ef:	83 ec 0c             	sub    $0xc,%esp
    21f2:	8b 40 14             	mov    0x14(%eax),%eax
    21f5:	50                   	push   %eax
    21f6:	8b 43 10             	mov    0x10(%ebx),%eax
    21f9:	50                   	push   %eax
    21fa:	68 58 22 01 00       	push   $0x12258
    21ff:	6a 05                	push   $0x5
    2201:	6a ff                	push   $0xffffffff
    2203:	e8 18 3a 01 00       	call   15c20 <log_msg@plt>
    2208:	8b 45 08             	mov    0x8(%ebp),%eax
    220b:	8b 50 10             	mov    0x10(%eax),%edx
    220e:	8b 40 1c             	mov    0x1c(%eax),%eax
    2211:	83 c4 20             	add    $0x20,%esp
    2214:	39 45 d0             	cmp    %eax,-0x30(%ebp)
    2217:	74 08                	je     2221 <transfer_list_remove_finished+0xe1>
    2219:	39 f8                	cmp    %edi,%eax
    221b:	0f 84 2f 01 00 00    	je     2350 <transfer_list_remove_finished+0x210>
    2221:	8b 43 14             	mov    0x14(%ebx),%eax
    2224:	85 c0                	test   %eax,%eax
    2226:	0f 84 99 01 00 00    	je     23c5 <transfer_list_remove_finished+0x285>
    222c:	8b 50 ec             	mov    -0x14(%eax),%edx
    222f:	c7 45 bc 47 21 01 00 	movl   $0x12147,-0x44(%ebp)
    2236:	8b 32                	mov    (%edx),%esi
    2238:	50                   	push   %eax
    2239:	50                   	push   %eax
    223a:	8d 45 e4             	lea    -0x1c(%ebp),%eax
    223d:	50                   	push   %eax
    223e:	8b 03                	mov    (%ebx),%eax
    2240:	89 55 cc             	mov    %edx,-0x34(%ebp)
    2243:	50                   	push   %eax
    2244:	e8 87 3b 01 00       	call   15dd0 <as_get_physical_mapping@plt>
    2249:	83 e6 f0             	and    $0xfffffff0,%esi
    224c:	83 c4 10             	add    $0x10,%esp
    224f:	31 c9                	xor    %ecx,%ecx
    2251:	8b 55 cc             	mov    -0x34(%ebp),%edx
    2254:	85 c0                	test   %eax,%eax
    2256:	75 03                	jne    225b <transfer_list_remove_finished+0x11b>
    2258:	8b 4d e4             	mov    -0x1c(%ebp),%ecx
    225b:	39 ce                	cmp    %ecx,%esi
    225d:	0f 85 4d 01 00 00    	jne    23b0 <transfer_list_remove_finished+0x270>
    2263:	8b 03                	mov    (%ebx),%eax
    2265:	8b 00                	mov    (%eax),%eax
    2267:	89 02                	mov    %eax,(%edx)
    2269:	8b 53 14             	mov    0x14(%ebx),%edx
    226c:	85 d2                	test   %edx,%edx
    226e:	74 0f                	je     227f <transfer_list_remove_finished+0x13f>
    2270:	8b 43 18             	mov    0x18(%ebx),%eax
    2273:	85 c0                	test   %eax,%eax
    2275:	74 08                	je     227f <transfer_list_remove_finished+0x13f>
    2277:	89 10                	mov    %edx,(%eax)
    2279:	8b 53 14             	mov    0x14(%ebx),%edx
    227c:	89 42 04             	mov    %eax,0x4(%edx)
    227f:	8b 03                	mov    (%ebx),%eax
    2281:	8b 53 10             	mov    0x10(%ebx),%edx
    2284:	8b 75 08             	mov    0x8(%ebp),%esi
    2287:	83 ec 0c             	sub    $0xc,%esp
    228a:	8b 00                	mov    (%eax),%eax
    228c:	c7 43 14 00 00 00 00 	movl   $0x0,0x14(%ebx)
    2293:	89 45 cc             	mov    %eax,-0x34(%ebp)
    2296:	8b 02                	mov    (%edx),%eax
    2298:	8b 4e 14             	mov    0x14(%esi),%ecx
    229b:	8b 52 14             	mov    0x14(%edx),%edx
    229e:	8b 70 1c             	mov    0x1c(%eax),%esi
    22a1:	c7 43 18 00 00 00 00 	movl   $0x0,0x18(%ebx)
    22a8:	8b 40 10             	mov    0x10(%eax),%eax
    22ab:	89 4d c8             	mov    %ecx,-0x38(%ebp)
    22ae:	50                   	push   %eax
    22af:	89 75 c4             	mov    %esi,-0x3c(%ebp)
    22b2:	89 55 c0             	mov    %edx,-0x40(%ebp)
    22b5:	e8 d6 65 00 00       	call   8890 <usb_str_direction>
    22ba:	89 45 b8             	mov    %eax,-0x48(%ebp)
    22bd:	8b 43 10             	mov    0x10(%ebx),%eax
    22c0:	5a                   	pop    %edx
    22c1:	8b 00                	mov    (%eax),%eax
    22c3:	8b 48 14             	mov    0x14(%eax),%ecx
    22c6:	51                   	push   %ecx
    22c7:	e8 a4 65 00 00       	call   8870 <usb_str_transfer_type_short>
    22cc:	89 c6                	mov    %eax,%esi
    22ce:	58                   	pop    %eax
    22cf:	8b 43 10             	mov    0x10(%ebx),%eax
    22d2:	8b 00                	mov    (%eax),%eax
    22d4:	8b 40 18             	mov    0x18(%eax),%eax
    22d7:	50                   	push   %eax
    22d8:	e8 d3 65 00 00       	call   88b0 <usb_str_speed>
    22dd:	8b 53 10             	mov    0x10(%ebx),%edx
    22e0:	83 c4 08             	add    $0x8,%esp
    22e3:	8b 4d cc             	mov    -0x34(%ebp),%ecx
    22e6:	8b 1a                	mov    (%edx),%ebx
    22e8:	51                   	push   %ecx
    22e9:	8b 4d c8             	mov    -0x38(%ebp),%ecx
    22ec:	51                   	push   %ecx
    22ed:	8b 4d bc             	mov    -0x44(%ebp),%ecx
    22f0:	51                   	push   %ecx
    22f1:	8b 4d c4             	mov    -0x3c(%ebp),%ecx
    22f4:	51                   	push   %ecx
    22f5:	8b 4d c0             	mov    -0x40(%ebp),%ecx
    22f8:	51                   	push   %ecx
    22f9:	8b 4d b8             	mov    -0x48(%ebp),%ecx
    22fc:	51                   	push   %ecx
    22fd:	56                   	push   %esi
    22fe:	50                   	push   %eax
    22ff:	0f bf 43 0e          	movswl 0xe(%ebx),%eax
    2303:	50                   	push   %eax
    2304:	0f bf 43 0c          	movswl 0xc(%ebx),%eax
    2308:	50                   	push   %eax
    2309:	52                   	push   %edx
    230a:	68 c8 22 01 00       	push   $0x122c8
    230f:	6a 05                	push   $0x5
    2311:	6a ff                	push   $0xffffffff
    2313:	e8 08 39 01 00       	call   15c20 <log_msg@plt>
    2318:	8b 45 0c             	mov    0xc(%ebp),%eax
    231b:	83 c4 40             	add    $0x40,%esp
    231e:	89 47 04             	mov    %eax,0x4(%edi)
    2321:	8b 00                	mov    (%eax),%eax
    2323:	89 07                	mov    %eax,(%edi)
    2325:	8b 45 0c             	mov    0xc(%ebp),%eax
    2328:	8b 00                	mov    (%eax),%eax
    232a:	89 78 04             	mov    %edi,0x4(%eax)
    232d:	8b 45 0c             	mov    0xc(%ebp),%eax
    2330:	89 38                	mov    %edi,(%eax)
    2332:	e9 51 fe ff ff       	jmp    2188 <transfer_list_remove_finished+0x48>
    2337:	90                   	nop
    2338:	8b 75 08             	mov    0x8(%ebp),%esi
    233b:	83 ec 0c             	sub    $0xc,%esp
    233e:	56                   	push   %esi
    233f:	e8 fc 39 01 00       	call   15d40 <fibril_mutex_unlock@plt>
    2344:	8d 65 f4             	lea    -0xc(%ebp),%esp
    2347:	5b                   	pop    %ebx
    2348:	5e                   	pop    %esi
    2349:	5f                   	pop    %edi
    234a:	5d                   	pop    %ebp
    234b:	c3                   	ret    
    234c:	8d 74 26 00          	lea    0x0(%esi,%eiz,1),%esi
    2350:	c7 45 bc 4b 21 01 00 	movl   $0x1214b,-0x44(%ebp)
    2357:	e9 da fe ff ff       	jmp    2236 <transfer_list_remove_finished+0xf6>
    235c:	50                   	push   %eax
    235d:	68 d2 00 00 00       	push   $0xd2
    2362:	68 dd 20 01 00       	push   $0x120dd
    2367:	68 2c 22 01 00       	push   $0x1222c
    236c:	e8 0f 39 01 00       	call   15c80 <assert_abort@plt>
    2371:	52                   	push   %edx
    2372:	68 d1 00 00 00       	push   $0xd1
    2377:	68 dd 20 01 00       	push   $0x120dd
    237c:	68 56 21 01 00       	push   $0x12156
    2381:	e8 fa 38 01 00       	call   15c80 <assert_abort@plt>
    2386:	53                   	push   %ebx
    2387:	68 d0 00 00 00       	push   $0xd0
    238c:	68 dd 20 01 00       	push   $0x120dd
    2391:	68 1e 21 01 00       	push   $0x1211e
    2396:	e8 e5 38 01 00       	call   15c80 <assert_abort@plt>
    239b:	56                   	push   %esi
    239c:	68 cf 00 00 00       	push   $0xcf
    23a1:	68 dd 20 01 00       	push   $0x120dd
    23a6:	68 04 21 01 00       	push   $0x12104
    23ab:	e8 d0 38 01 00       	call   15c80 <assert_abort@plt>
    23b0:	53                   	push   %ebx
    23b1:	68 e2 00 00 00       	push   $0xe2
    23b6:	68 dd 20 01 00       	push   $0x120dd
    23bb:	68 7c 22 01 00       	push   $0x1227c
    23c0:	e8 bb 38 01 00       	call   15c80 <assert_abort@plt>
    23c5:	e8 c6 f9 ff ff       	call   1d90 <uhci_transfer_batch_from_link.part.0>
    23ca:	50                   	push   %eax
    23cb:	68 a0 00 00 00       	push   $0xa0
    23d0:	68 dd 20 01 00       	push   $0x120dd
    23d5:	68 51 21 01 00       	push   $0x12151
    23da:	e8 a1 38 01 00       	call   15c80 <assert_abort@plt>
    23df:	50                   	push   %eax
    23e0:	68 9f 00 00 00       	push   $0x9f
    23e5:	68 dd 20 01 00       	push   $0x120dd
    23ea:	68 5e 1d 01 00       	push   $0x11d5e
    23ef:	e8 8c 38 01 00       	call   15c80 <assert_abort@plt>
    23f4:	8d b6 00 00 00 00    	lea    0x0(%esi),%esi
    23fa:	8d bf 00 00 00 00    	lea    0x0(%edi),%edi

00002400 <transfer_list_abort_all>:
    2400:	55                   	push   %ebp
    2401:	89 e5                	mov    %esp,%ebp
    2403:	57                   	push   %edi
    2404:	56                   	push   %esi
    2405:	53                   	push   %ebx
    2406:	83 ec 48             	sub    $0x48,%esp
    2409:	8b 5d 08             	mov    0x8(%ebp),%ebx
    240c:	53                   	push   %ebx
    240d:	e8 5e 3c 01 00       	call   16070 <fibril_mutex_lock@plt>
    2412:	8d 73 18             	lea    0x18(%ebx),%esi
    2415:	8b 43 1c             	mov    0x1c(%ebx),%eax
    2418:	83 c4 10             	add    $0x10,%esp
    241b:	89 75 d4             	mov    %esi,-0x2c(%ebp)
    241e:	39 f0                	cmp    %esi,%eax
    2420:	0f 85 2c 01 00 00    	jne    2552 <transfer_list_abort_all+0x152>
    2426:	e9 ad 01 00 00       	jmp    25d8 <transfer_list_abort_all+0x1d8>
    242b:	90                   	nop
    242c:	8d 74 26 00          	lea    0x0(%esi,%eiz,1),%esi
    2430:	8b 47 14             	mov    0x14(%edi),%eax
    2433:	85 c0                	test   %eax,%eax
    2435:	0f 84 e7 01 00 00    	je     2622 <transfer_list_abort_all+0x222>
    243b:	8b 50 ec             	mov    -0x14(%eax),%edx
    243e:	c7 45 bc 47 21 01 00 	movl   $0x12147,-0x44(%ebp)
    2445:	8b 32                	mov    (%edx),%esi
    2447:	89 55 d0             	mov    %edx,-0x30(%ebp)
    244a:	52                   	push   %edx
    244b:	52                   	push   %edx
    244c:	8b 0f                	mov    (%edi),%ecx
    244e:	8d 45 e4             	lea    -0x1c(%ebp),%eax
    2451:	50                   	push   %eax
    2452:	51                   	push   %ecx
    2453:	e8 78 39 01 00       	call   15dd0 <as_get_physical_mapping@plt>
    2458:	83 e6 f0             	and    $0xfffffff0,%esi
    245b:	83 c4 10             	add    $0x10,%esp
    245e:	31 c9                	xor    %ecx,%ecx
    2460:	8b 55 d0             	mov    -0x30(%ebp),%edx
    2463:	85 c0                	test   %eax,%eax
    2465:	75 03                	jne    246a <transfer_list_abort_all+0x6a>
    2467:	8b 4d e4             	mov    -0x1c(%ebp),%ecx
    246a:	39 ce                	cmp    %ecx,%esi
    246c:	0f 85 9b 01 00 00    	jne    260d <transfer_list_abort_all+0x20d>
    2472:	8b 07                	mov    (%edi),%eax
    2474:	8b 00                	mov    (%eax),%eax
    2476:	89 02                	mov    %eax,(%edx)
    2478:	8b 57 14             	mov    0x14(%edi),%edx
    247b:	85 d2                	test   %edx,%edx
    247d:	74 0f                	je     248e <transfer_list_abort_all+0x8e>
    247f:	8b 47 18             	mov    0x18(%edi),%eax
    2482:	85 c0                	test   %eax,%eax
    2484:	74 08                	je     248e <transfer_list_abort_all+0x8e>
    2486:	89 10                	mov    %edx,(%eax)
    2488:	8b 57 14             	mov    0x14(%edi),%edx
    248b:	89 42 04             	mov    %eax,0x4(%edx)
    248e:	8b 07                	mov    (%edi),%eax
    2490:	8b 57 10             	mov    0x10(%edi),%edx
    2493:	83 ec 0c             	sub    $0xc,%esp
    2496:	8b 4b 14             	mov    0x14(%ebx),%ecx
    2499:	8b 00                	mov    (%eax),%eax
    249b:	c7 47 14 00 00 00 00 	movl   $0x0,0x14(%edi)
    24a2:	89 45 d0             	mov    %eax,-0x30(%ebp)
    24a5:	8b 02                	mov    (%edx),%eax
    24a7:	8b 52 14             	mov    0x14(%edx),%edx
    24aa:	c7 47 18 00 00 00 00 	movl   $0x0,0x18(%edi)
    24b1:	8b 70 1c             	mov    0x1c(%eax),%esi
    24b4:	89 55 c4             	mov    %edx,-0x3c(%ebp)
    24b7:	8b 50 10             	mov    0x10(%eax),%edx
    24ba:	89 4d cc             	mov    %ecx,-0x34(%ebp)
    24bd:	52                   	push   %edx
    24be:	89 75 c8             	mov    %esi,-0x38(%ebp)
    24c1:	e8 ca 63 00 00       	call   8890 <usb_str_direction>
    24c6:	59                   	pop    %ecx
    24c7:	89 45 c0             	mov    %eax,-0x40(%ebp)
    24ca:	8b 47 10             	mov    0x10(%edi),%eax
    24cd:	8b 00                	mov    (%eax),%eax
    24cf:	8b 70 14             	mov    0x14(%eax),%esi
    24d2:	56                   	push   %esi
    24d3:	e8 98 63 00 00       	call   8870 <usb_str_transfer_type_short>
    24d8:	89 c6                	mov    %eax,%esi
    24da:	58                   	pop    %eax
    24db:	8b 47 10             	mov    0x10(%edi),%eax
    24de:	8b 00                	mov    (%eax),%eax
    24e0:	8b 40 18             	mov    0x18(%eax),%eax
    24e3:	50                   	push   %eax
    24e4:	e8 c7 63 00 00       	call   88b0 <usb_str_speed>
    24e9:	8b 57 10             	mov    0x10(%edi),%edx
    24ec:	83 c4 08             	add    $0x8,%esp
    24ef:	8b 0a                	mov    (%edx),%ecx
    24f1:	ff 75 d0             	pushl  -0x30(%ebp)
    24f4:	ff 75 cc             	pushl  -0x34(%ebp)
    24f7:	ff 75 bc             	pushl  -0x44(%ebp)
    24fa:	ff 75 c8             	pushl  -0x38(%ebp)
    24fd:	ff 75 c4             	pushl  -0x3c(%ebp)
    2500:	ff 75 c0             	pushl  -0x40(%ebp)
    2503:	56                   	push   %esi
    2504:	50                   	push   %eax
    2505:	0f bf 41 0e          	movswl 0xe(%ecx),%eax
    2509:	50                   	push   %eax
    250a:	0f bf 41 0c          	movswl 0xc(%ecx),%eax
    250e:	50                   	push   %eax
    250f:	52                   	push   %edx
    2510:	68 c8 22 01 00       	push   $0x122c8
    2515:	6a 05                	push   $0x5
    2517:	6a ff                	push   $0xffffffff
    2519:	e8 02 37 01 00       	call   15c20 <log_msg@plt>
    251e:	8b 47 10             	mov    0x10(%edi),%eax
    2521:	83 c4 40             	add    $0x40,%esp
    2524:	85 c0                	test   %eax,%eax
    2526:	0f 84 cf 00 00 00    	je     25fb <transfer_list_abort_all+0x1fb>
    252c:	83 ec 0c             	sub    $0xc,%esp
    252f:	c7 40 28 ef ff ff ff 	movl   $0xffffffef,0x28(%eax)
    2536:	c7 40 24 00 00 00 00 	movl   $0x0,0x24(%eax)
    253d:	57                   	push   %edi
    253e:	e8 7d 06 00 00       	call   2bc0 <uhci_transfer_batch_finish_dispose>
    2543:	8b 43 1c             	mov    0x1c(%ebx),%eax
    2546:	83 c4 10             	add    $0x10,%esp
    2549:	3b 45 d4             	cmp    -0x2c(%ebp),%eax
    254c:	0f 84 86 00 00 00    	je     25d8 <transfer_list_abort_all+0x1d8>
    2552:	85 c0                	test   %eax,%eax
    2554:	0f 84 8f 00 00 00    	je     25e9 <transfer_list_abort_all+0x1e9>
    255a:	8b 53 10             	mov    0x10(%ebx),%edx
    255d:	8d 78 ec             	lea    -0x14(%eax),%edi
    2560:	85 d2                	test   %edx,%edx
    2562:	0f 84 fe 00 00 00    	je     2666 <transfer_list_abort_all+0x266>
    2568:	85 ff                	test   %edi,%edi
    256a:	0f 84 e1 00 00 00    	je     2651 <transfer_list_abort_all+0x251>
    2570:	8b 40 ec             	mov    -0x14(%eax),%eax
    2573:	85 c0                	test   %eax,%eax
    2575:	0f 84 c1 00 00 00    	je     263c <transfer_list_abort_all+0x23c>
    257b:	83 ec 0c             	sub    $0xc,%esp
    257e:	53                   	push   %ebx
    257f:	e8 8c 35 01 00       	call   15b10 <fibril_mutex_is_locked@plt>
    2584:	83 c4 10             	add    $0x10,%esp
    2587:	84 c0                	test   %al,%al
    2589:	0f 84 98 00 00 00    	je     2627 <transfer_list_abort_all+0x227>
    258f:	83 ec 0c             	sub    $0xc,%esp
    2592:	8b 73 14             	mov    0x14(%ebx),%esi
    2595:	8b 47 10             	mov    0x10(%edi),%eax
    2598:	56                   	push   %esi
    2599:	50                   	push   %eax
    259a:	68 58 22 01 00       	push   $0x12258
    259f:	6a 05                	push   $0x5
    25a1:	6a ff                	push   $0xffffffff
    25a3:	e8 78 36 01 00       	call   15c20 <log_msg@plt>
    25a8:	8b 43 1c             	mov    0x1c(%ebx),%eax
    25ab:	83 c4 20             	add    $0x20,%esp
    25ae:	8b 53 10             	mov    0x10(%ebx),%edx
    25b1:	3b 45 d4             	cmp    -0x2c(%ebp),%eax
    25b4:	0f 84 76 fe ff ff    	je     2430 <transfer_list_abort_all+0x30>
    25ba:	8d 4f 14             	lea    0x14(%edi),%ecx
    25bd:	39 c8                	cmp    %ecx,%eax
    25bf:	0f 85 6b fe ff ff    	jne    2430 <transfer_list_abort_all+0x30>
    25c5:	c7 45 bc 4b 21 01 00 	movl   $0x1214b,-0x44(%ebp)
    25cc:	e9 74 fe ff ff       	jmp    2445 <transfer_list_abort_all+0x45>
    25d1:	8d b4 26 00 00 00 00 	lea    0x0(%esi,%eiz,1),%esi
    25d8:	83 ec 0c             	sub    $0xc,%esp
    25db:	53                   	push   %ebx
    25dc:	e8 5f 37 01 00       	call   15d40 <fibril_mutex_unlock@plt>
    25e1:	8d 65 f4             	lea    -0xc(%ebp),%esp
    25e4:	5b                   	pop    %ebx
    25e5:	5e                   	pop    %esi
    25e6:	5f                   	pop    %edi
    25e7:	5d                   	pop    %ebp
    25e8:	c3                   	ret    
    25e9:	51                   	push   %ecx
    25ea:	6a 76                	push   $0x76
    25ec:	68 d0 20 01 00       	push   $0x120d0
    25f1:	68 08 3b 01 00       	push   $0x13b08
    25f6:	e8 85 36 01 00       	call   15c80 <assert_abort@plt>
    25fb:	50                   	push   %eax
    25fc:	6a 6a                	push   $0x6a
    25fe:	68 d0 20 01 00       	push   $0x120d0
    2603:	68 65 21 01 00       	push   $0x12165
    2608:	e8 73 36 01 00       	call   15c80 <assert_abort@plt>
    260d:	50                   	push   %eax
    260e:	68 e2 00 00 00       	push   $0xe2
    2613:	68 dd 20 01 00       	push   $0x120dd
    2618:	68 7c 22 01 00       	push   $0x1227c
    261d:	e8 5e 36 01 00       	call   15c80 <assert_abort@plt>
    2622:	e8 69 f7 ff ff       	call   1d90 <uhci_transfer_batch_from_link.part.0>
    2627:	50                   	push   %eax
    2628:	68 d2 00 00 00       	push   $0xd2
    262d:	68 dd 20 01 00       	push   $0x120dd
    2632:	68 2c 22 01 00       	push   $0x1222c
    2637:	e8 44 36 01 00       	call   15c80 <assert_abort@plt>
    263c:	50                   	push   %eax
    263d:	68 d1 00 00 00       	push   $0xd1
    2642:	68 dd 20 01 00       	push   $0x120dd
    2647:	68 56 21 01 00       	push   $0x12156
    264c:	e8 2f 36 01 00       	call   15c80 <assert_abort@plt>
    2651:	50                   	push   %eax
    2652:	68 d0 00 00 00       	push   $0xd0
    2657:	68 dd 20 01 00       	push   $0x120dd
    265c:	68 1e 21 01 00       	push   $0x1211e
    2661:	e8 1a 36 01 00       	call   15c80 <assert_abort@plt>
    2666:	50                   	push   %eax
    2667:	68 cf 00 00 00       	push   $0xcf
    266c:	68 dd 20 01 00       	push   $0x120dd
    2671:	68 04 21 01 00       	push   $0x12104
    2676:	e8 05 36 01 00       	call   15c80 <assert_abort@plt>
    267b:	66 90                	xchg   %ax,%ax
    267d:	66 90                	xchg   %ax,%ax
    267f:	90                   	nop

00002680 <batch_data>:
    2680:	55                   	push   %ebp
    2681:	89 e5                	mov    %esp,%ebp
    2683:	57                   	push   %edi
    2684:	56                   	push   %esi
    2685:	53                   	push   %ebx
    2686:	83 ec 2c             	sub    $0x2c,%esp
    2689:	8b 7d 08             	mov    0x8(%ebp),%edi
    268c:	8b 55 0c             	mov    0xc(%ebp),%edx
    268f:	85 ff                	test   %edi,%edi
    2691:	0f 84 31 02 00 00    	je     28c8 <batch_data+0x248>
    2697:	8b 47 10             	mov    0x10(%edi),%eax
    269a:	85 c0                	test   %eax,%eax
    269c:	0f 84 11 02 00 00    	je     28b3 <batch_data+0x233>
    26a2:	8b 00                	mov    (%eax),%eax
    26a4:	85 c0                	test   %eax,%eax
    26a6:	0f 84 6d 02 00 00    	je     2919 <batch_data+0x299>
    26ac:	83 fa 01             	cmp    $0x1,%edx
    26af:	0f 87 4f 02 00 00    	ja     2904 <batch_data+0x284>
    26b5:	8b 1c 95 44 27 01 00 	mov    0x12744(,%edx,4),%ebx
    26bc:	8b 70 18             	mov    0x18(%eax),%esi
    26bf:	85 f6                	test   %esi,%esi
    26c1:	8b 48 1c             	mov    0x1c(%eax),%ecx
    26c4:	89 5d d4             	mov    %ebx,-0x2c(%ebp)
    26c7:	89 4d d0             	mov    %ecx,-0x30(%ebp)
    26ca:	0f 94 c3             	sete   %bl
    26cd:	83 ec 0c             	sub    $0xc,%esp
    26d0:	8b 48 0c             	mov    0xc(%eax),%ecx
    26d3:	89 4d cc             	mov    %ecx,-0x34(%ebp)
    26d6:	50                   	push   %eax
    26d7:	e8 c4 3c 00 00       	call   63a0 <endpoint_toggle_get>
    26dc:	83 c4 10             	add    $0x10,%esp
    26df:	89 45 e4             	mov    %eax,-0x1c(%ebp)
    26e2:	83 f8 01             	cmp    $0x1,%eax
    26e5:	0f 87 04 02 00 00    	ja     28ef <batch_data+0x26f>
    26eb:	8b 4f 10             	mov    0x10(%edi),%ecx
    26ee:	8b 57 0c             	mov    0xc(%edi),%edx
    26f1:	85 d2                	test   %edx,%edx
    26f3:	8b 41 14             	mov    0x14(%ecx),%eax
    26f6:	89 45 e0             	mov    %eax,-0x20(%ebp)
    26f9:	0f 84 de 01 00 00    	je     28dd <batch_data+0x25d>
    26ff:	8b 77 08             	mov    0x8(%edi),%esi
    2702:	89 f0                	mov    %esi,%eax
    2704:	c1 e0 04             	shl    $0x4,%eax
    2707:	03 41 20             	add    0x20(%ecx),%eax
    270a:	8d 44 02 08          	lea    0x8(%edx,%eax,1),%eax
    270e:	8b 55 e0             	mov    -0x20(%ebp),%edx
    2711:	85 d2                	test   %edx,%edx
    2713:	0f 84 66 01 00 00    	je     287f <batch_data+0x1ff>
    2719:	88 d9                	mov    %bl,%cl
    271b:	89 45 dc             	mov    %eax,-0x24(%ebp)
    271e:	81 e1 ff 00 00 00    	and    $0xff,%ecx
    2724:	31 c0                	xor    %eax,%eax
    2726:	89 4d c8             	mov    %ecx,-0x38(%ebp)
    2729:	89 f9                	mov    %edi,%ecx
    272b:	eb 08                	jmp    2735 <batch_data+0xb5>
    272d:	8d 76 00             	lea    0x0(%esi),%esi
    2730:	8b 71 08             	mov    0x8(%ecx),%esi
    2733:	89 f8                	mov    %edi,%eax
    2735:	8b 7d d0             	mov    -0x30(%ebp),%edi
    2738:	8b 55 e0             	mov    -0x20(%ebp),%edx
    273b:	89 fb                	mov    %edi,%ebx
    273d:	39 d7                	cmp    %edx,%edi
    273f:	76 02                	jbe    2743 <batch_data+0xc3>
    2741:	89 d3                	mov    %edx,%ebx
    2743:	8d 78 01             	lea    0x1(%eax),%edi
    2746:	31 d2                	xor    %edx,%edx
    2748:	39 f7                	cmp    %esi,%edi
    274a:	73 08                	jae    2754 <batch_data+0xd4>
    274c:	89 fa                	mov    %edi,%edx
    274e:	c1 e2 04             	shl    $0x4,%edx
    2751:	03 51 04             	add    0x4(%ecx),%edx
    2754:	39 c6                	cmp    %eax,%esi
    2756:	0f 86 2d 01 00 00    	jbe    2889 <batch_data+0x209>
    275c:	83 ec 08             	sub    $0x8,%esp
    275f:	89 4d d8             	mov    %ecx,-0x28(%ebp)
    2762:	c1 e0 04             	shl    $0x4,%eax
    2765:	52                   	push   %edx
    2766:	8b 55 dc             	mov    -0x24(%ebp),%edx
    2769:	52                   	push   %edx
    276a:	8b 55 d4             	mov    -0x2c(%ebp),%edx
    276d:	52                   	push   %edx
    276e:	8b 55 cc             	mov    -0x34(%ebp),%edx
    2771:	52                   	push   %edx
    2772:	8b 55 c8             	mov    -0x38(%ebp),%edx
    2775:	52                   	push   %edx
    2776:	8b 55 e4             	mov    -0x1c(%ebp),%edx
    2779:	6a 00                	push   $0x0
    277b:	52                   	push   %edx
    277c:	53                   	push   %ebx
    277d:	6a 03                	push   $0x3
    277f:	8b 51 04             	mov    0x4(%ecx),%edx
    2782:	89 c6                	mov    %eax,%esi
    2784:	01 d0                	add    %edx,%eax
    2786:	50                   	push   %eax
    2787:	e8 a4 18 00 00       	call   4030 <td_init>
    278c:	8b 4d e4             	mov    -0x1c(%ebp),%ecx
    278f:	b8 01 00 00 00       	mov    $0x1,%eax
    2794:	29 c8                	sub    %ecx,%eax
    2796:	83 c4 30             	add    $0x30,%esp
    2799:	89 45 e4             	mov    %eax,-0x1c(%ebp)
    279c:	8b 45 dc             	mov    -0x24(%ebp),%eax
    279f:	01 d8                	add    %ebx,%eax
    27a1:	29 5d e0             	sub    %ebx,-0x20(%ebp)
    27a4:	89 45 dc             	mov    %eax,-0x24(%ebp)
    27a7:	8b 4d d8             	mov    -0x28(%ebp),%ecx
    27aa:	75 84                	jne    2730 <batch_data+0xb0>
    27ac:	89 cf                	mov    %ecx,%edi
    27ae:	89 f0                	mov    %esi,%eax
    27b0:	03 47 04             	add    0x4(%edi),%eax
    27b3:	0f 84 e5 00 00 00    	je     289e <batch_data+0x21e>
    27b9:	8b 50 04             	mov    0x4(%eax),%edx
    27bc:	81 ca 00 00 00 01    	or     $0x1000000,%edx
    27c2:	89 50 04             	mov    %edx,0x4(%eax)
    27c5:	8b 55 e4             	mov    -0x1c(%ebp),%edx
    27c8:	50                   	push   %eax
    27c9:	50                   	push   %eax
    27ca:	52                   	push   %edx
    27cb:	8b 47 10             	mov    0x10(%edi),%eax
    27ce:	8b 08                	mov    (%eax),%ecx
    27d0:	51                   	push   %ecx
    27d1:	e8 4a 3c 00 00       	call   6420 <endpoint_toggle_set>
    27d6:	8b 57 10             	mov    0x10(%edi),%edx
    27d9:	5b                   	pop    %ebx
    27da:	8b 02                	mov    (%edx),%eax
    27dc:	8b 52 14             	mov    0x14(%edx),%edx
    27df:	89 55 d4             	mov    %edx,-0x2c(%ebp)
    27e2:	8b 48 1c             	mov    0x1c(%eax),%ecx
    27e5:	8b 70 10             	mov    0x10(%eax),%esi
    27e8:	56                   	push   %esi
    27e9:	89 4d d0             	mov    %ecx,-0x30(%ebp)
    27ec:	e8 9f 60 00 00       	call   8890 <usb_str_direction>
    27f1:	89 c6                	mov    %eax,%esi
    27f3:	58                   	pop    %eax
    27f4:	8b 47 10             	mov    0x10(%edi),%eax
    27f7:	8b 00                	mov    (%eax),%eax
    27f9:	8b 40 14             	mov    0x14(%eax),%eax
    27fc:	50                   	push   %eax
    27fd:	e8 6e 60 00 00       	call   8870 <usb_str_transfer_type_short>
    2802:	89 45 e4             	mov    %eax,-0x1c(%ebp)
    2805:	58                   	pop    %eax
    2806:	8b 47 10             	mov    0x10(%edi),%eax
    2809:	8b 00                	mov    (%eax),%eax
    280b:	8b 40 18             	mov    0x18(%eax),%eax
    280e:	50                   	push   %eax
    280f:	e8 9c 60 00 00       	call   88b0 <usb_str_speed>
    2814:	89 45 e0             	mov    %eax,-0x20(%ebp)
    2817:	8b 47 10             	mov    0x10(%edi),%eax
    281a:	5a                   	pop    %edx
    281b:	8b 00                	mov    (%eax),%eax
    281d:	0f bf 48 0c          	movswl 0xc(%eax),%ecx
    2821:	0f bf 58 0e          	movswl 0xe(%eax),%ebx
    2825:	89 4d d8             	mov    %ecx,-0x28(%ebp)
    2828:	8b 48 10             	mov    0x10(%eax),%ecx
    282b:	51                   	push   %ecx
    282c:	89 5d dc             	mov    %ebx,-0x24(%ebp)
    282f:	e8 5c 60 00 00       	call   8890 <usb_str_direction>
    2834:	89 c3                	mov    %eax,%ebx
    2836:	58                   	pop    %eax
    2837:	8b 47 10             	mov    0x10(%edi),%eax
    283a:	8b 00                	mov    (%eax),%eax
    283c:	8b 40 14             	mov    0x14(%eax),%eax
    283f:	50                   	push   %eax
    2840:	e8 0b 60 00 00       	call   8850 <usb_str_transfer_type>
    2845:	8b 4d d0             	mov    -0x30(%ebp),%ecx
    2848:	8b 55 d4             	mov    -0x2c(%ebp),%edx
    284b:	89 0c 24             	mov    %ecx,(%esp)
    284e:	52                   	push   %edx
    284f:	8b 55 e4             	mov    -0x1c(%ebp),%edx
    2852:	56                   	push   %esi
    2853:	8b 4d e0             	mov    -0x20(%ebp),%ecx
    2856:	52                   	push   %edx
    2857:	8b 75 dc             	mov    -0x24(%ebp),%esi
    285a:	8b 55 d8             	mov    -0x28(%ebp),%edx
    285d:	51                   	push   %ecx
    285e:	56                   	push   %esi
    285f:	52                   	push   %edx
    2860:	53                   	push   %ebx
    2861:	50                   	push   %eax
    2862:	8b 4f 10             	mov    0x10(%edi),%ecx
    2865:	51                   	push   %ecx
    2866:	68 10 24 01 00       	push   $0x12410
    286b:	6a 05                	push   $0x5
    286d:	6a ff                	push   $0xffffffff
    286f:	e8 ac 33 01 00       	call   15c20 <log_msg@plt>
    2874:	83 c4 40             	add    $0x40,%esp
    2877:	8d 65 f4             	lea    -0xc(%ebp),%esp
    287a:	5b                   	pop    %ebx
    287b:	5e                   	pop    %esi
    287c:	5f                   	pop    %edi
    287d:	5d                   	pop    %ebp
    287e:	c3                   	ret    
    287f:	b8 f0 ff ff ff       	mov    $0xfffffff0,%eax
    2884:	e9 27 ff ff ff       	jmp    27b0 <batch_data+0x130>
    2889:	50                   	push   %eax
    288a:	68 f7 00 00 00       	push   $0xf7
    288f:	68 0c 23 01 00       	push   $0x1230c
    2894:	68 68 23 01 00       	push   $0x12368
    2899:	e8 e2 33 01 00       	call   15c80 <assert_abort@plt>
    289e:	53                   	push   %ebx
    289f:	68 a4 00 00 00       	push   $0xa4
    28a4:	68 f0 23 01 00       	push   $0x123f0
    28a9:	68 5e 1d 01 00       	push   $0x11d5e
    28ae:	e8 cd 33 01 00       	call   15c80 <assert_abort@plt>
    28b3:	50                   	push   %eax
    28b4:	68 dd 00 00 00       	push   $0xdd
    28b9:	68 0c 23 01 00       	push   $0x1230c
    28be:	68 65 21 01 00       	push   $0x12165
    28c3:	e8 b8 33 01 00       	call   15c80 <assert_abort@plt>
    28c8:	50                   	push   %eax
    28c9:	68 dc 00 00 00       	push   $0xdc
    28ce:	68 0c 23 01 00       	push   $0x1230c
    28d3:	68 1e 21 01 00       	push   $0x1211e
    28d8:	e8 a3 33 01 00       	call   15c80 <assert_abort@plt>
    28dd:	51                   	push   %ecx
    28de:	6a 50                	push   $0x50
    28e0:	68 d0 20 01 00       	push   $0x120d0
    28e5:	68 4e 23 01 00       	push   $0x1234e
    28ea:	e8 91 33 01 00       	call   15c80 <assert_abort@plt>
    28ef:	53                   	push   %ebx
    28f0:	68 eb 00 00 00       	push   $0xeb
    28f5:	68 0c 23 01 00       	push   $0x1230c
    28fa:	68 33 23 01 00       	push   $0x12333
    28ff:	e8 7c 33 01 00       	call   15c80 <assert_abort@plt>
    2904:	57                   	push   %edi
    2905:	68 df 00 00 00       	push   $0xdf
    290a:	68 0c 23 01 00       	push   $0x1230c
    290f:	68 bc 23 01 00       	push   $0x123bc
    2914:	e8 67 33 01 00       	call   15c80 <assert_abort@plt>
    2919:	50                   	push   %eax
    291a:	68 de 00 00 00       	push   $0xde
    291f:	68 0c 23 01 00       	push   $0x1230c
    2924:	68 19 23 01 00       	push   $0x12319
    2929:	e8 52 33 01 00       	call   15c80 <assert_abort@plt>
    292e:	66 90                	xchg   %ax,%ax

00002930 <batch_control>:
    2930:	55                   	push   %ebp
    2931:	89 e5                	mov    %esp,%ebp
    2933:	57                   	push   %edi
    2934:	56                   	push   %esi
    2935:	53                   	push   %ebx
    2936:	83 ec 3c             	sub    $0x3c,%esp
    2939:	8b 75 08             	mov    0x8(%ebp),%esi
    293c:	8b 55 0c             	mov    0xc(%ebp),%edx
    293f:	85 f6                	test   %esi,%esi
    2941:	0f 84 f5 01 00 00    	je     2b3c <batch_control+0x20c>
    2947:	8b 5e 10             	mov    0x10(%esi),%ebx
    294a:	85 db                	test   %ebx,%ebx
    294c:	0f 84 d5 01 00 00    	je     2b27 <batch_control+0x1f7>
    2952:	8b 03                	mov    (%ebx),%eax
    2954:	85 c0                	test   %eax,%eax
    2956:	0f 84 31 02 00 00    	je     2b8d <batch_control+0x25d>
    295c:	83 fa 01             	cmp    $0x1,%edx
    295f:	0f 87 13 02 00 00    	ja     2b78 <batch_control+0x248>
    2965:	8b 7e 08             	mov    0x8(%esi),%edi
    2968:	83 ff 01             	cmp    $0x1,%edi
    296b:	0f 86 f2 01 00 00    	jbe    2b63 <batch_control+0x233>
    2971:	8b 0c 95 44 27 01 00 	mov    0x12744(,%edx,4),%ecx
    2978:	8b 14 95 2c 27 01 00 	mov    0x1272c(,%edx,4),%edx
    297f:	89 55 c4             	mov    %edx,-0x3c(%ebp)
    2982:	8b 50 18             	mov    0x18(%eax),%edx
    2985:	85 d2                	test   %edx,%edx
    2987:	8b 50 1c             	mov    0x1c(%eax),%edx
    298a:	8b 40 0c             	mov    0xc(%eax),%eax
    298d:	89 55 cc             	mov    %edx,-0x34(%ebp)
    2990:	89 45 d8             	mov    %eax,-0x28(%ebp)
    2993:	8b 46 04             	mov    0x4(%esi),%eax
    2996:	89 45 e4             	mov    %eax,-0x1c(%ebp)
    2999:	0f 94 45 e0          	sete   -0x20(%ebp)
    299d:	8d 50 10             	lea    0x10(%eax),%edx
    29a0:	8b 46 0c             	mov    0xc(%esi),%eax
    29a3:	89 4d d0             	mov    %ecx,-0x30(%ebp)
    29a6:	85 c0                	test   %eax,%eax
    29a8:	0f 84 a3 01 00 00    	je     2b51 <batch_control+0x221>
    29ae:	c1 e7 04             	shl    $0x4,%edi
    29b1:	83 ec 08             	sub    $0x8,%esp
    29b4:	8a 4d e0             	mov    -0x20(%ebp),%cl
    29b7:	8d 44 38 08          	lea    0x8(%eax,%edi,1),%eax
    29bb:	52                   	push   %edx
    29bc:	81 e1 ff 00 00 00    	and    $0xff,%ecx
    29c2:	50                   	push   %eax
    29c3:	8b 45 d8             	mov    -0x28(%ebp),%eax
    29c6:	6a 2d                	push   $0x2d
    29c8:	50                   	push   %eax
    29c9:	51                   	push   %ecx
    29ca:	6a 00                	push   $0x0
    29cc:	6a 00                	push   $0x0
    29ce:	8b 53 20             	mov    0x20(%ebx),%edx
    29d1:	89 4d d4             	mov    %ecx,-0x2c(%ebp)
    29d4:	8b 4d e4             	mov    -0x1c(%ebp),%ecx
    29d7:	52                   	push   %edx
    29d8:	6a 03                	push   $0x3
    29da:	51                   	push   %ecx
    29db:	e8 50 16 00 00       	call   4030 <td_init>
    29e0:	8b 5e 10             	mov    0x10(%esi),%ebx
    29e3:	8b 4e 0c             	mov    0xc(%esi),%ecx
    29e6:	83 c4 30             	add    $0x30,%esp
    29e9:	8b 43 14             	mov    0x14(%ebx),%eax
    29ec:	85 c9                	test   %ecx,%ecx
    29ee:	0f 84 5d 01 00 00    	je     2b51 <batch_control+0x221>
    29f4:	8b 56 08             	mov    0x8(%esi),%edx
    29f7:	89 d7                	mov    %edx,%edi
    29f9:	c1 e7 04             	shl    $0x4,%edi
    29fc:	03 7b 20             	add    0x20(%ebx),%edi
    29ff:	85 c0                	test   %eax,%eax
    2a01:	8d 4c 39 08          	lea    0x8(%ecx,%edi,1),%ecx
    2a05:	0f 84 e6 00 00 00    	je     2af1 <batch_control+0x1c1>
    2a0b:	89 4d e0             	mov    %ecx,-0x20(%ebp)
    2a0e:	c7 45 e4 01 00 00 00 	movl   $0x1,-0x1c(%ebp)
    2a15:	bb 01 00 00 00       	mov    $0x1,%ebx
    2a1a:	89 c7                	mov    %eax,%edi
    2a1c:	89 f1                	mov    %esi,%ecx
    2a1e:	66 90                	xchg   %ax,%ax
    2a20:	8b 45 cc             	mov    -0x34(%ebp),%eax
    2a23:	89 c6                	mov    %eax,%esi
    2a25:	39 f8                	cmp    %edi,%eax
    2a27:	76 02                	jbe    2a2b <batch_control+0xfb>
    2a29:	89 fe                	mov    %edi,%esi
    2a2b:	43                   	inc    %ebx
    2a2c:	8b 41 04             	mov    0x4(%ecx),%eax
    2a2f:	89 4d dc             	mov    %ecx,-0x24(%ebp)
    2a32:	89 d9                	mov    %ebx,%ecx
    2a34:	c1 e1 04             	shl    $0x4,%ecx
    2a37:	52                   	push   %edx
    2a38:	52                   	push   %edx
    2a39:	89 4d c8             	mov    %ecx,-0x38(%ebp)
    2a3c:	8d 14 08             	lea    (%eax,%ecx,1),%edx
    2a3f:	29 f7                	sub    %esi,%edi
    2a41:	52                   	push   %edx
    2a42:	8b 55 e0             	mov    -0x20(%ebp),%edx
    2a45:	52                   	push   %edx
    2a46:	8b 55 d0             	mov    -0x30(%ebp),%edx
    2a49:	52                   	push   %edx
    2a4a:	8b 55 d8             	mov    -0x28(%ebp),%edx
    2a4d:	52                   	push   %edx
    2a4e:	8b 55 d4             	mov    -0x2c(%ebp),%edx
    2a51:	52                   	push   %edx
    2a52:	8b 55 e4             	mov    -0x1c(%ebp),%edx
    2a55:	6a 00                	push   $0x0
    2a57:	52                   	push   %edx
    2a58:	8d 54 08 f0          	lea    -0x10(%eax,%ecx,1),%edx
    2a5c:	56                   	push   %esi
    2a5d:	6a 03                	push   $0x3
    2a5f:	52                   	push   %edx
    2a60:	e8 cb 15 00 00       	call   4030 <td_init>
    2a65:	8b 4d e4             	mov    -0x1c(%ebp),%ecx
    2a68:	ba 01 00 00 00       	mov    $0x1,%edx
    2a6d:	8b 45 e0             	mov    -0x20(%ebp),%eax
    2a70:	29 ca                	sub    %ecx,%edx
    2a72:	8b 4d dc             	mov    -0x24(%ebp),%ecx
    2a75:	01 f0                	add    %esi,%eax
    2a77:	89 55 e4             	mov    %edx,-0x1c(%ebp)
    2a7a:	8b 51 08             	mov    0x8(%ecx),%edx
    2a7d:	83 c4 30             	add    $0x30,%esp
    2a80:	89 45 e0             	mov    %eax,-0x20(%ebp)
    2a83:	39 d3                	cmp    %edx,%ebx
    2a85:	73 76                	jae    2afd <batch_control+0x1cd>
    2a87:	85 ff                	test   %edi,%edi
    2a89:	75 95                	jne    2a20 <batch_control+0xf0>
    2a8b:	89 ce                	mov    %ecx,%esi
    2a8d:	8b 7d c8             	mov    -0x38(%ebp),%edi
    2a90:	4a                   	dec    %edx
    2a91:	39 da                	cmp    %ebx,%edx
    2a93:	0f 85 09 01 00 00    	jne    2ba2 <batch_control+0x272>
    2a99:	8b 45 d4             	mov    -0x2c(%ebp),%eax
    2a9c:	8b 4d c4             	mov    -0x3c(%ebp),%ecx
    2a9f:	8b 5d d8             	mov    -0x28(%ebp),%ebx
    2aa2:	52                   	push   %edx
    2aa3:	52                   	push   %edx
    2aa4:	6a 00                	push   $0x0
    2aa6:	6a 00                	push   $0x0
    2aa8:	51                   	push   %ecx
    2aa9:	53                   	push   %ebx
    2aaa:	50                   	push   %eax
    2aab:	6a 00                	push   $0x0
    2aad:	6a 01                	push   $0x1
    2aaf:	6a 00                	push   $0x0
    2ab1:	6a 03                	push   $0x3
    2ab3:	8b 46 04             	mov    0x4(%esi),%eax
    2ab6:	01 f8                	add    %edi,%eax
    2ab8:	50                   	push   %eax
    2ab9:	e8 72 15 00 00       	call   4030 <td_init>
    2abe:	89 f8                	mov    %edi,%eax
    2ac0:	83 c4 30             	add    $0x30,%esp
    2ac3:	03 46 04             	add    0x4(%esi),%eax
    2ac6:	74 4a                	je     2b12 <batch_control+0x1e2>
    2ac8:	8b 50 04             	mov    0x4(%eax),%edx
    2acb:	81 ca 00 00 00 01    	or     $0x1000000,%edx
    2ad1:	89 50 04             	mov    %edx,0x4(%eax)
    2ad4:	8b 40 04             	mov    0x4(%eax),%eax
    2ad7:	50                   	push   %eax
    2ad8:	68 9c 23 01 00       	push   $0x1239c
    2add:	6a 05                	push   $0x5
    2adf:	6a ff                	push   $0xffffffff
    2ae1:	e8 3a 31 01 00       	call   15c20 <log_msg@plt>
    2ae6:	83 c4 10             	add    $0x10,%esp
    2ae9:	8d 65 f4             	lea    -0xc(%ebp),%esp
    2aec:	5b                   	pop    %ebx
    2aed:	5e                   	pop    %esi
    2aee:	5f                   	pop    %edi
    2aef:	5d                   	pop    %ebp
    2af0:	c3                   	ret    
    2af1:	bf 10 00 00 00       	mov    $0x10,%edi
    2af6:	bb 01 00 00 00       	mov    $0x1,%ebx
    2afb:	eb 93                	jmp    2a90 <batch_control+0x160>
    2afd:	50                   	push   %eax
    2afe:	68 44 01 00 00       	push   $0x144
    2b03:	68 0c 23 01 00       	push   $0x1230c
    2b08:	68 68 23 01 00       	push   $0x12368
    2b0d:	e8 6e 31 01 00       	call   15c80 <assert_abort@plt>
    2b12:	50                   	push   %eax
    2b13:	68 a4 00 00 00       	push   $0xa4
    2b18:	68 f0 23 01 00       	push   $0x123f0
    2b1d:	68 5e 1d 01 00       	push   $0x11d5e
    2b22:	e8 59 31 01 00       	call   15c80 <assert_abort@plt>
    2b27:	57                   	push   %edi
    2b28:	68 19 01 00 00       	push   $0x119
    2b2d:	68 0c 23 01 00       	push   $0x1230c
    2b32:	68 65 21 01 00       	push   $0x12165
    2b37:	e8 44 31 01 00       	call   15c80 <assert_abort@plt>
    2b3c:	50                   	push   %eax
    2b3d:	68 18 01 00 00       	push   $0x118
    2b42:	68 0c 23 01 00       	push   $0x1230c
    2b47:	68 1e 21 01 00       	push   $0x1211e
    2b4c:	e8 2f 31 01 00       	call   15c80 <assert_abort@plt>
    2b51:	53                   	push   %ebx
    2b52:	6a 50                	push   $0x50
    2b54:	68 d0 20 01 00       	push   $0x120d0
    2b59:	68 4e 23 01 00       	push   $0x1234e
    2b5e:	e8 1d 31 01 00       	call   15c80 <assert_abort@plt>
    2b63:	51                   	push   %ecx
    2b64:	68 1c 01 00 00       	push   $0x11c
    2b69:	68 0c 23 01 00       	push   $0x1230c
    2b6e:	68 82 23 01 00       	push   $0x12382
    2b73:	e8 08 31 01 00       	call   15c80 <assert_abort@plt>
    2b78:	53                   	push   %ebx
    2b79:	68 1b 01 00 00       	push   $0x11b
    2b7e:	68 0c 23 01 00       	push   $0x1230c
    2b83:	68 bc 23 01 00       	push   $0x123bc
    2b88:	e8 f3 30 01 00       	call   15c80 <assert_abort@plt>
    2b8d:	56                   	push   %esi
    2b8e:	68 1a 01 00 00       	push   $0x11a
    2b93:	68 0c 23 01 00       	push   $0x1230c
    2b98:	68 19 23 01 00       	push   $0x12319
    2b9d:	e8 de 30 01 00       	call   15c80 <assert_abort@plt>
    2ba2:	50                   	push   %eax
    2ba3:	68 48 01 00 00       	push   $0x148
    2ba8:	68 0c 23 01 00       	push   $0x1230c
    2bad:	68 48 24 01 00       	push   $0x12448
    2bb2:	e8 c9 30 01 00       	call   15c80 <assert_abort@plt>
    2bb7:	89 f6                	mov    %esi,%esi
    2bb9:	8d bc 27 00 00 00 00 	lea    0x0(%edi,%eiz,1),%edi

00002bc0 <uhci_transfer_batch_finish_dispose>:
    2bc0:	55                   	push   %ebp
    2bc1:	89 e5                	mov    %esp,%ebp
    2bc3:	53                   	push   %ebx
    2bc4:	50                   	push   %eax
    2bc5:	8b 5d 08             	mov    0x8(%ebp),%ebx
    2bc8:	85 db                	test   %ebx,%ebx
    2bca:	74 72                	je     2c3e <uhci_transfer_batch_finish_dispose+0x7e>
    2bcc:	8b 43 10             	mov    0x10(%ebx),%eax
    2bcf:	85 c0                	test   %eax,%eax
    2bd1:	0f 84 8b 00 00 00    	je     2c62 <uhci_transfer_batch_finish_dispose+0xa2>
    2bd7:	8b 4b 14             	mov    0x14(%ebx),%ecx
    2bda:	85 c9                	test   %ecx,%ecx
    2bdc:	74 1a                	je     2bf8 <uhci_transfer_batch_finish_dispose+0x38>
    2bde:	8b 53 18             	mov    0x18(%ebx),%edx
    2be1:	85 d2                	test   %edx,%edx
    2be3:	74 13                	je     2bf8 <uhci_transfer_batch_finish_dispose+0x38>
    2be5:	50                   	push   %eax
    2be6:	6a 49                	push   $0x49
    2be8:	68 0c 23 01 00       	push   $0x1230c
    2bed:	68 68 24 01 00       	push   $0x12468
    2bf2:	e8 89 30 01 00       	call   15c80 <assert_abort@plt>
    2bf7:	90                   	nop
    2bf8:	8b 4b 0c             	mov    0xc(%ebx),%ecx
    2bfb:	85 c9                	test   %ecx,%ecx
    2bfd:	74 51                	je     2c50 <uhci_transfer_batch_finish_dispose+0x90>
    2bff:	8b 50 28             	mov    0x28(%eax),%edx
    2c02:	52                   	push   %edx
    2c03:	8b 50 24             	mov    0x24(%eax),%edx
    2c06:	52                   	push   %edx
    2c07:	8b 53 08             	mov    0x8(%ebx),%edx
    2c0a:	c1 e2 04             	shl    $0x4,%edx
    2c0d:	03 50 20             	add    0x20(%eax),%edx
    2c10:	8d 54 11 08          	lea    0x8(%ecx,%edx,1),%edx
    2c14:	52                   	push   %edx
    2c15:	50                   	push   %eax
    2c16:	e8 15 4f 00 00       	call   7b30 <usb_transfer_batch_finish_error>
    2c1b:	8b 53 10             	mov    0x10(%ebx),%edx
    2c1e:	58                   	pop    %eax
    2c1f:	52                   	push   %edx
    2c20:	e8 6b 4e 00 00       	call   7a90 <usb_transfer_batch_destroy>
    2c25:	8b 43 0c             	mov    0xc(%ebx),%eax
    2c28:	59                   	pop    %ecx
    2c29:	50                   	push   %eax
    2c2a:	e8 a1 30 01 00       	call   15cd0 <dmamem_unmap_anonymous@plt>
    2c2f:	89 5d 08             	mov    %ebx,0x8(%ebp)
    2c32:	83 c4 10             	add    $0x10,%esp
    2c35:	8b 5d fc             	mov    -0x4(%ebp),%ebx
    2c38:	c9                   	leave  
    2c39:	e9 12 34 01 00       	jmp    16050 <free@plt>
    2c3e:	50                   	push   %eax
    2c3f:	6a 47                	push   $0x47
    2c41:	68 0c 23 01 00       	push   $0x1230c
    2c46:	68 1e 21 01 00       	push   $0x1211e
    2c4b:	e8 30 30 01 00       	call   15c80 <assert_abort@plt>
    2c50:	50                   	push   %eax
    2c51:	6a 50                	push   $0x50
    2c53:	68 d0 20 01 00       	push   $0x120d0
    2c58:	68 4e 23 01 00       	push   $0x1234e
    2c5d:	e8 1e 30 01 00       	call   15c80 <assert_abort@plt>
    2c62:	53                   	push   %ebx
    2c63:	6a 48                	push   $0x48
    2c65:	68 0c 23 01 00       	push   $0x1230c
    2c6a:	68 65 21 01 00       	push   $0x12165
    2c6f:	e8 0c 30 01 00       	call   15c80 <assert_abort@plt>
    2c74:	8d b6 00 00 00 00    	lea    0x0(%esi),%esi
    2c7a:	8d bf 00 00 00 00    	lea    0x0(%edi),%edi

00002c80 <uhci_transfer_batch_get>:
    2c80:	55                   	push   %ebp
    2c81:	89 e5                	mov    %esp,%ebp
    2c83:	57                   	push   %edi
    2c84:	56                   	push   %esi
    2c85:	53                   	push   %ebx
    2c86:	83 ec 34             	sub    $0x34,%esp
    2c89:	8b 5d 08             	mov    0x8(%ebp),%ebx
    2c8c:	6a 1c                	push   $0x1c
    2c8e:	6a 01                	push   $0x1
    2c90:	e8 0b 30 01 00       	call   15ca0 <calloc@plt>
    2c95:	83 c4 10             	add    $0x10,%esp
    2c98:	89 c6                	mov    %eax,%esi
    2c9a:	85 c0                	test   %eax,%eax
    2c9c:	0f 84 d6 02 00 00    	je     2f78 <uhci_transfer_batch_get+0x2f8>
    2ca2:	8b 3b                	mov    (%ebx),%edi
    2ca4:	c7 40 14 00 00 00 00 	movl   $0x0,0x14(%eax)
    2cab:	c7 40 18 00 00 00 00 	movl   $0x0,0x18(%eax)
    2cb2:	8b 4b 14             	mov    0x14(%ebx),%ecx
    2cb5:	8b 47 1c             	mov    0x1c(%edi),%eax
    2cb8:	31 d2                	xor    %edx,%edx
    2cba:	8d 44 01 ff          	lea    -0x1(%ecx,%eax,1),%eax
    2cbe:	f7 77 1c             	divl   0x1c(%edi)
    2cc1:	8b 57 14             	mov    0x14(%edi),%edx
    2cc4:	89 46 08             	mov    %eax,0x8(%esi)
    2cc7:	85 d2                	test   %edx,%edx
    2cc9:	0f 84 99 01 00 00    	je     2e68 <uhci_transfer_batch_get+0x1e8>
    2ccf:	8b 53 20             	mov    0x20(%ebx),%edx
    2cd2:	c7 45 e4 ff ff ff ff 	movl   $0xffffffff,-0x1c(%ebp)
    2cd9:	c1 e0 04             	shl    $0x4,%eax
    2cdc:	01 d1                	add    %edx,%ecx
    2cde:	01 c8                	add    %ecx,%eax
    2ce0:	8d 88 07 10 00 00    	lea    0x1007(%eax),%ecx
    2ce6:	8d 78 08             	lea    0x8(%eax),%edi
    2ce9:	50                   	push   %eax
    2cea:	50                   	push   %eax
    2ceb:	8d 45 e4             	lea    -0x1c(%ebp),%eax
    2cee:	81 e1 00 f0 ff ff    	and    $0xfffff000,%ecx
    2cf4:	50                   	push   %eax
    2cf5:	8d 45 e0             	lea    -0x20(%ebp),%eax
    2cf8:	50                   	push   %eax
    2cf9:	89 4d d4             	mov    %ecx,-0x2c(%ebp)
    2cfc:	6a 00                	push   $0x0
    2cfe:	6a 03                	push   $0x3
    2d00:	6a 00                	push   $0x0
    2d02:	51                   	push   %ecx
    2d03:	e8 68 31 01 00       	call   15e70 <dmamem_map_anonymous@plt>
    2d08:	83 c4 20             	add    $0x20,%esp
    2d0b:	85 c0                	test   %eax,%eax
    2d0d:	0f 85 b5 01 00 00    	jne    2ec8 <uhci_transfer_batch_get+0x248>
    2d13:	8b 4d d4             	mov    -0x2c(%ebp),%ecx
    2d16:	50                   	push   %eax
    2d17:	8b 45 e4             	mov    -0x1c(%ebp),%eax
    2d1a:	51                   	push   %ecx
    2d1b:	6a 05                	push   $0x5
    2d1d:	50                   	push   %eax
    2d1e:	e8 1d 31 01 00       	call   15e40 <memset@plt>
    2d23:	8b 45 e4             	mov    -0x1c(%ebp),%eax
    2d26:	83 c4 10             	add    $0x10,%esp
    2d29:	89 46 0c             	mov    %eax,0xc(%esi)
    2d2c:	85 c0                	test   %eax,%eax
    2d2e:	0f 84 9b 01 00 00    	je     2ecf <uhci_transfer_batch_get+0x24f>
    2d34:	52                   	push   %edx
    2d35:	57                   	push   %edi
    2d36:	6a 00                	push   $0x0
    2d38:	50                   	push   %eax
    2d39:	e8 02 31 01 00       	call   15e40 <memset@plt>
    2d3e:	8b 7e 08             	mov    0x8(%esi),%edi
    2d41:	8b 46 0c             	mov    0xc(%esi),%eax
    2d44:	83 c4 10             	add    $0x10,%esp
    2d47:	c1 e7 04             	shl    $0x4,%edi
    2d4a:	89 46 04             	mov    %eax,0x4(%esi)
    2d4d:	01 c7                	add    %eax,%edi
    2d4f:	89 3e                	mov    %edi,(%esi)
    2d51:	85 ff                	test   %edi,%edi
    2d53:	0f 84 36 02 00 00    	je     2f8f <uhci_transfer_batch_get+0x30f>
    2d59:	c7 47 04 01 00 00 00 	movl   $0x1,0x4(%edi)
    2d60:	c7 07 01 00 00 00    	movl   $0x1,(%edi)
    2d66:	52                   	push   %edx
    2d67:	52                   	push   %edx
    2d68:	8d 55 e4             	lea    -0x1c(%ebp),%edx
    2d6b:	52                   	push   %edx
    2d6c:	50                   	push   %eax
    2d6d:	e8 5e 30 01 00       	call   15dd0 <as_get_physical_mapping@plt>
    2d72:	83 c4 10             	add    $0x10,%esp
    2d75:	85 c0                	test   %eax,%eax
    2d77:	0f 84 fb 00 00 00    	je     2e78 <uhci_transfer_batch_get+0x1f8>
    2d7d:	c7 47 04 01 00 00 00 	movl   $0x1,0x4(%edi)
    2d84:	8b 46 08             	mov    0x8(%esi),%eax
    2d87:	8b 56 0c             	mov    0xc(%esi),%edx
    2d8a:	c1 e0 04             	shl    $0x4,%eax
    2d8d:	8d 7c 02 08          	lea    0x8(%edx,%eax,1),%edi
    2d91:	50                   	push   %eax
    2d92:	8b 43 20             	mov    0x20(%ebx),%eax
    2d95:	50                   	push   %eax
    2d96:	8d 43 18             	lea    0x18(%ebx),%eax
    2d99:	50                   	push   %eax
    2d9a:	57                   	push   %edi
    2d9b:	e8 c0 2d 01 00       	call   15b60 <memcpy@plt>
    2da0:	8b 03                	mov    (%ebx),%eax
    2da2:	8b 48 10             	mov    0x10(%eax),%ecx
    2da5:	83 c4 10             	add    $0x10,%esp
    2da8:	85 c9                	test   %ecx,%ecx
    2daa:	0f 85 f0 00 00 00    	jne    2ea0 <uhci_transfer_batch_get+0x220>
    2db0:	83 ec 0c             	sub    $0xc,%esp
    2db3:	8b 40 1c             	mov    0x1c(%eax),%eax
    2db6:	89 5e 10             	mov    %ebx,0x10(%esi)
    2db9:	8b 7b 14             	mov    0x14(%ebx),%edi
    2dbc:	89 45 d4             	mov    %eax,-0x2c(%ebp)
    2dbf:	51                   	push   %ecx
    2dc0:	e8 cb 5a 00 00       	call   8890 <usb_str_direction>
    2dc5:	89 45 d0             	mov    %eax,-0x30(%ebp)
    2dc8:	58                   	pop    %eax
    2dc9:	8b 03                	mov    (%ebx),%eax
    2dcb:	8b 40 14             	mov    0x14(%eax),%eax
    2dce:	50                   	push   %eax
    2dcf:	e8 9c 5a 00 00       	call   8870 <usb_str_transfer_type_short>
    2dd4:	89 45 cc             	mov    %eax,-0x34(%ebp)
    2dd7:	58                   	pop    %eax
    2dd8:	8b 03                	mov    (%ebx),%eax
    2dda:	8b 50 18             	mov    0x18(%eax),%edx
    2ddd:	52                   	push   %edx
    2dde:	e8 cd 5a 00 00       	call   88b0 <usb_str_speed>
    2de3:	83 c4 0c             	add    $0xc,%esp
    2de6:	8b 13                	mov    (%ebx),%edx
    2de8:	8b 4d d4             	mov    -0x2c(%ebp),%ecx
    2deb:	51                   	push   %ecx
    2dec:	8b 4d cc             	mov    -0x34(%ebp),%ecx
    2def:	57                   	push   %edi
    2df0:	8b 7d d0             	mov    -0x30(%ebp),%edi
    2df3:	57                   	push   %edi
    2df4:	51                   	push   %ecx
    2df5:	50                   	push   %eax
    2df6:	0f bf 42 0e          	movswl 0xe(%edx),%eax
    2dfa:	50                   	push   %eax
    2dfb:	0f bf 42 0c          	movswl 0xc(%edx),%eax
    2dff:	50                   	push   %eax
    2e00:	53                   	push   %ebx
    2e01:	68 cc 24 01 00       	push   $0x124cc
    2e06:	6a 05                	push   $0x5
    2e08:	6a ff                	push   $0xffffffff
    2e0a:	e8 11 2e 01 00       	call   15c20 <log_msg@plt>
    2e0f:	8b 43 04             	mov    0x4(%ebx),%eax
    2e12:	83 c4 30             	add    $0x30,%esp
    2e15:	85 c0                	test   %eax,%eax
    2e17:	0f 84 eb 00 00 00    	je     2f08 <uhci_transfer_batch_get+0x288>
    2e1d:	8b 43 08             	mov    0x8(%ebx),%eax
    2e20:	85 c0                	test   %eax,%eax
    2e22:	0f 85 8e 01 00 00    	jne    2fb6 <uhci_transfer_batch_get+0x336>
    2e28:	8b 03                	mov    (%ebx),%eax
    2e2a:	85 c0                	test   %eax,%eax
    2e2c:	0f 84 16 01 00 00    	je     2f48 <uhci_transfer_batch_get+0x2c8>
    2e32:	8b 50 14             	mov    0x14(%eax),%edx
    2e35:	85 d2                	test   %edx,%edx
    2e37:	74 57                	je     2e90 <uhci_transfer_batch_get+0x210>
    2e39:	8b 48 10             	mov    0x10(%eax),%ecx
    2e3c:	85 c9                	test   %ecx,%ecx
    2e3e:	0f 85 87 01 00 00    	jne    2fcb <uhci_transfer_batch_get+0x34b>
    2e44:	8b 04 95 34 27 01 00 	mov    0x12734(,%edx,4),%eax
    2e4b:	85 c0                	test   %eax,%eax
    2e4d:	0f 84 4e 01 00 00    	je     2fa1 <uhci_transfer_batch_get+0x321>
    2e53:	52                   	push   %edx
    2e54:	52                   	push   %edx
    2e55:	51                   	push   %ecx
    2e56:	56                   	push   %esi
    2e57:	ff d0                	call   *%eax
    2e59:	83 c4 10             	add    $0x10,%esp
    2e5c:	8d 65 f4             	lea    -0xc(%ebp),%esp
    2e5f:	89 f0                	mov    %esi,%eax
    2e61:	5b                   	pop    %ebx
    2e62:	5e                   	pop    %esi
    2e63:	5f                   	pop    %edi
    2e64:	5d                   	pop    %ebp
    2e65:	c3                   	ret    
    2e66:	66 90                	xchg   %ax,%ax
    2e68:	83 c0 02             	add    $0x2,%eax
    2e6b:	89 46 08             	mov    %eax,0x8(%esi)
    2e6e:	e9 5c fe ff ff       	jmp    2ccf <uhci_transfer_batch_get+0x4f>
    2e73:	90                   	nop
    2e74:	8d 74 26 00          	lea    0x0(%esi,%eiz,1),%esi
    2e78:	8b 45 e4             	mov    -0x1c(%ebp),%eax
    2e7b:	85 c0                	test   %eax,%eax
    2e7d:	0f 84 fa fe ff ff    	je     2d7d <uhci_transfer_batch_get+0xfd>
    2e83:	83 e0 f0             	and    $0xfffffff0,%eax
    2e86:	89 47 04             	mov    %eax,0x4(%edi)
    2e89:	e9 f6 fe ff ff       	jmp    2d84 <uhci_transfer_batch_get+0x104>
    2e8e:	66 90                	xchg   %ax,%ax
    2e90:	31 c9                	xor    %ecx,%ecx
    2e92:	b8 30 29 00 00       	mov    $0x2930,%eax
    2e97:	eb ba                	jmp    2e53 <uhci_transfer_batch_get+0x1d3>
    2e99:	8d b4 26 00 00 00 00 	lea    0x0(%esi,%eiz,1),%esi
    2ea0:	50                   	push   %eax
    2ea1:	8b 43 14             	mov    0x14(%ebx),%eax
    2ea4:	50                   	push   %eax
    2ea5:	8b 43 10             	mov    0x10(%ebx),%eax
    2ea8:	50                   	push   %eax
    2ea9:	8b 43 20             	mov    0x20(%ebx),%eax
    2eac:	01 f8                	add    %edi,%eax
    2eae:	50                   	push   %eax
    2eaf:	e8 ac 2c 01 00       	call   15b60 <memcpy@plt>
    2eb4:	8b 03                	mov    (%ebx),%eax
    2eb6:	83 c4 10             	add    $0x10,%esp
    2eb9:	8b 48 10             	mov    0x10(%eax),%ecx
    2ebc:	e9 ef fe ff ff       	jmp    2db0 <uhci_transfer_batch_get+0x130>
    2ec1:	8d b4 26 00 00 00 00 	lea    0x0(%esi,%eiz,1),%esi
    2ec8:	c7 46 0c 00 00 00 00 	movl   $0x0,0xc(%esi)
    2ecf:	51                   	push   %ecx
    2ed0:	68 a8 24 01 00       	push   $0x124a8
    2ed5:	6a 01                	push   $0x1
    2ed7:	6a ff                	push   $0xffffffff
    2ed9:	e8 42 2d 01 00       	call   15c20 <log_msg@plt>
    2ede:	8b 7e 10             	mov    0x10(%esi),%edi
    2ee1:	5b                   	pop    %ebx
    2ee2:	57                   	push   %edi
    2ee3:	e8 a8 4b 00 00       	call   7a90 <usb_transfer_batch_destroy>
    2ee8:	58                   	pop    %eax
    2ee9:	8b 46 0c             	mov    0xc(%esi),%eax
    2eec:	50                   	push   %eax
    2eed:	e8 de 2d 01 00       	call   15cd0 <dmamem_unmap_anonymous@plt>
    2ef2:	89 34 24             	mov    %esi,(%esp)
    2ef5:	e8 56 31 01 00       	call   16050 <free@plt>
    2efa:	31 f6                	xor    %esi,%esi
    2efc:	83 c4 10             	add    $0x10,%esp
    2eff:	e9 58 ff ff ff       	jmp    2e5c <uhci_transfer_batch_get+0x1dc>
    2f04:	8d 74 26 00          	lea    0x0(%esi,%eiz,1),%esi
    2f08:	8b 7b 08             	mov    0x8(%ebx),%edi
    2f0b:	85 ff                	test   %edi,%edi
    2f0d:	0f 84 cd 00 00 00    	je     2fe0 <uhci_transfer_batch_get+0x360>
    2f13:	8b 03                	mov    (%ebx),%eax
    2f15:	85 c0                	test   %eax,%eax
    2f17:	74 4f                	je     2f68 <uhci_transfer_batch_get+0x2e8>
    2f19:	8b 50 14             	mov    0x14(%eax),%edx
    2f1c:	85 d2                	test   %edx,%edx
    2f1e:	74 38                	je     2f58 <uhci_transfer_batch_get+0x2d8>
    2f20:	8b 48 10             	mov    0x10(%eax),%ecx
    2f23:	83 f9 01             	cmp    $0x1,%ecx
    2f26:	0f 84 18 ff ff ff    	je     2e44 <uhci_transfer_batch_get+0x1c4>
    2f2c:	56                   	push   %esi
    2f2d:	68 90 00 00 00       	push   $0x90
    2f32:	68 0c 25 01 00       	push   $0x1250c
    2f37:	68 e8 25 01 00       	push   $0x125e8
    2f3c:	e8 3f 2d 01 00       	call   15c80 <assert_abort@plt>
    2f41:	8d b4 26 00 00 00 00 	lea    0x0(%esi,%eiz,1),%esi
    2f48:	8b 15 14 00 00 00    	mov    0x14,%edx
    2f4e:	31 c9                	xor    %ecx,%ecx
    2f50:	e9 ef fe ff ff       	jmp    2e44 <uhci_transfer_batch_get+0x1c4>
    2f55:	8d 76 00             	lea    0x0(%esi),%esi
    2f58:	b9 01 00 00 00       	mov    $0x1,%ecx
    2f5d:	e9 30 ff ff ff       	jmp    2e92 <uhci_transfer_batch_get+0x212>
    2f62:	8d b6 00 00 00 00    	lea    0x0(%esi),%esi
    2f68:	8b 15 14 00 00 00    	mov    0x14,%edx
    2f6e:	b9 01 00 00 00       	mov    $0x1,%ecx
    2f73:	e9 cc fe ff ff       	jmp    2e44 <uhci_transfer_batch_get+0x1c4>
    2f78:	51                   	push   %ecx
    2f79:	68 88 24 01 00       	push   $0x12488
    2f7e:	6a 01                	push   $0x1
    2f80:	6a ff                	push   $0xffffffff
    2f82:	e8 99 2c 01 00       	call   15c20 <log_msg@plt>
    2f87:	83 c4 10             	add    $0x10,%esp
    2f8a:	e9 cd fe ff ff       	jmp    2e5c <uhci_transfer_batch_get+0x1dc>
    2f8f:	51                   	push   %ecx
    2f90:	6a 3e                	push   $0x3e
    2f92:	68 ed 20 01 00       	push   $0x120ed
    2f97:	68 5e 1d 01 00       	push   $0x11d5e
    2f9c:	e8 df 2c 01 00       	call   15c80 <assert_abort@plt>
    2fa1:	51                   	push   %ecx
    2fa2:	68 91 00 00 00       	push   $0x91
    2fa7:	68 0c 23 01 00       	push   $0x1230c
    2fac:	68 64 26 01 00       	push   $0x12664
    2fb1:	e8 ca 2c 01 00       	call   15c80 <assert_abort@plt>
    2fb6:	50                   	push   %eax
    2fb7:	68 86 00 00 00       	push   $0x86
    2fbc:	68 0c 25 01 00       	push   $0x1250c
    2fc1:	68 4c 25 01 00       	push   $0x1254c
    2fc6:	e8 b5 2c 01 00       	call   15c80 <assert_abort@plt>
    2fcb:	50                   	push   %eax
    2fcc:	68 89 00 00 00       	push   $0x89
    2fd1:	68 0c 25 01 00       	push   $0x1250c
    2fd6:	68 6c 25 01 00       	push   $0x1256c
    2fdb:	e8 a0 2c 01 00       	call   15c80 <assert_abort@plt>
    2fe0:	53                   	push   %ebx
    2fe1:	68 93 00 00 00       	push   $0x93
    2fe6:	68 0c 25 01 00       	push   $0x1250c
    2feb:	68 b9 3c 01 00       	push   $0x13cb9
    2ff0:	e8 8b 2c 01 00       	call   15c80 <assert_abort@plt>
    2ff5:	8d 74 26 00          	lea    0x0(%esi,%eiz,1),%esi
    2ff9:	8d bc 27 00 00 00 00 	lea    0x0(%edi,%eiz,1),%edi

00003000 <uhci_transfer_batch_is_complete>:
    3000:	55                   	push   %ebp
    3001:	89 e5                	mov    %esp,%ebp
    3003:	57                   	push   %edi
    3004:	56                   	push   %esi
    3005:	53                   	push   %ebx
    3006:	83 ec 1c             	sub    $0x1c,%esp
    3009:	8b 7d 08             	mov    0x8(%ebp),%edi
    300c:	85 ff                	test   %edi,%edi
    300e:	0f 84 32 02 00 00    	je     3246 <uhci_transfer_batch_is_complete+0x246>
    3014:	8b 47 10             	mov    0x10(%edi),%eax
    3017:	85 c0                	test   %eax,%eax
    3019:	0f 84 fd 01 00 00    	je     321c <uhci_transfer_batch_is_complete+0x21c>
    301f:	8b 10                	mov    (%eax),%edx
    3021:	83 ec 0c             	sub    $0xc,%esp
    3024:	8b 5f 08             	mov    0x8(%edi),%ebx
    3027:	89 5d e4             	mov    %ebx,-0x1c(%ebp)
    302a:	8b 58 14             	mov    0x14(%eax),%ebx
    302d:	8b 42 10             	mov    0x10(%edx),%eax
    3030:	8b 72 1c             	mov    0x1c(%edx),%esi
    3033:	50                   	push   %eax
    3034:	e8 57 58 00 00       	call   8890 <usb_str_direction>
    3039:	89 45 e0             	mov    %eax,-0x20(%ebp)
    303c:	8b 47 10             	mov    0x10(%edi),%eax
    303f:	5a                   	pop    %edx
    3040:	8b 00                	mov    (%eax),%eax
    3042:	8b 48 14             	mov    0x14(%eax),%ecx
    3045:	51                   	push   %ecx
    3046:	e8 25 58 00 00       	call   8870 <usb_str_transfer_type_short>
    304b:	89 45 dc             	mov    %eax,-0x24(%ebp)
    304e:	58                   	pop    %eax
    304f:	8b 47 10             	mov    0x10(%edi),%eax
    3052:	8b 00                	mov    (%eax),%eax
    3054:	8b 40 18             	mov    0x18(%eax),%eax
    3057:	50                   	push   %eax
    3058:	e8 53 58 00 00       	call   88b0 <usb_str_speed>
    305d:	8b 4f 10             	mov    0x10(%edi),%ecx
    3060:	8b 11                	mov    (%ecx),%edx
    3062:	ff 75 e4             	pushl  -0x1c(%ebp)
    3065:	56                   	push   %esi
    3066:	8b 75 dc             	mov    -0x24(%ebp),%esi
    3069:	53                   	push   %ebx
    306a:	8b 5d e0             	mov    -0x20(%ebp),%ebx
    306d:	53                   	push   %ebx
    306e:	56                   	push   %esi
    306f:	50                   	push   %eax
    3070:	0f bf 42 0e          	movswl 0xe(%edx),%eax
    3074:	50                   	push   %eax
    3075:	0f bf 42 0c          	movswl 0xc(%edx),%eax
    3079:	50                   	push   %eax
    307a:	51                   	push   %ecx
    307b:	68 90 26 01 00       	push   $0x12690
    3080:	6a 05                	push   $0x5
    3082:	6a ff                	push   $0xffffffff
    3084:	e8 97 2b 01 00       	call   15c20 <log_msg@plt>
    3089:	8b 5f 10             	mov    0x10(%edi),%ebx
    308c:	8b 47 08             	mov    0x8(%edi),%eax
    308f:	83 c4 40             	add    $0x40,%esp
    3092:	85 c0                	test   %eax,%eax
    3094:	c7 43 24 00 00 00 00 	movl   $0x0,0x24(%ebx)
    309b:	0f 84 bd 00 00 00    	je     315e <uhci_transfer_batch_is_complete+0x15e>
    30a1:	8b 47 04             	mov    0x4(%edi),%eax
    30a4:	85 c0                	test   %eax,%eax
    30a6:	0f 84 5b 01 00 00    	je     3207 <uhci_transfer_batch_is_complete+0x207>
    30ac:	8b 50 04             	mov    0x4(%eax),%edx
    30af:	81 e2 00 00 80 00    	and    $0x800000,%edx
    30b5:	0f 85 b5 00 00 00    	jne    3170 <uhci_transfer_batch_is_complete+0x170>
    30bb:	c7 45 e4 00 00 00 00 	movl   $0x0,-0x1c(%ebp)
    30c2:	eb 34                	jmp    30f8 <uhci_transfer_batch_is_complete+0xf8>
    30c4:	8d 74 26 00          	lea    0x0(%esi,%eiz,1),%esi
    30c8:	8b 55 e4             	mov    -0x1c(%ebp),%edx
    30cb:	42                   	inc    %edx
    30cc:	89 55 e4             	mov    %edx,-0x1c(%ebp)
    30cf:	8b 4d e4             	mov    -0x1c(%ebp),%ecx
    30d2:	39 4f 08             	cmp    %ecx,0x8(%edi)
    30d5:	0f 86 83 00 00 00    	jbe    315e <uhci_transfer_batch_is_complete+0x15e>
    30db:	8b 45 dc             	mov    -0x24(%ebp),%eax
    30de:	8b 55 e0             	mov    -0x20(%ebp),%edx
    30e1:	8d 44 10 10          	lea    0x10(%eax,%edx,1),%eax
    30e5:	85 c0                	test   %eax,%eax
    30e7:	0f 84 1a 01 00 00    	je     3207 <uhci_transfer_batch_is_complete+0x207>
    30ed:	8b 50 04             	mov    0x4(%eax),%edx
    30f0:	81 e2 00 00 80 00    	and    $0x800000,%edx
    30f6:	75 78                	jne    3170 <uhci_transfer_batch_is_complete+0x170>
    30f8:	83 ec 0c             	sub    $0xc,%esp
    30fb:	8b 75 e4             	mov    -0x1c(%ebp),%esi
    30fe:	c1 e6 04             	shl    $0x4,%esi
    3101:	50                   	push   %eax
    3102:	89 75 e0             	mov    %esi,-0x20(%ebp)
    3105:	e8 f6 0b 00 00       	call   3d00 <td_status>
    310a:	83 c4 10             	add    $0x10,%esp
    310d:	89 43 28             	mov    %eax,0x28(%ebx)
    3110:	8b 5f 10             	mov    0x10(%edi),%ebx
    3113:	8b 43 28             	mov    0x28(%ebx),%eax
    3116:	85 c0                	test   %eax,%eax
    3118:	75 66                	jne    3180 <uhci_transfer_batch_is_complete+0x180>
    311a:	8b 47 04             	mov    0x4(%edi),%eax
    311d:	89 c6                	mov    %eax,%esi
    311f:	89 45 dc             	mov    %eax,-0x24(%ebp)
    3122:	03 75 e0             	add    -0x20(%ebp),%esi
    3125:	0f 84 ca 00 00 00    	je     31f5 <uhci_transfer_batch_is_complete+0x1f5>
    312b:	8b 46 04             	mov    0x4(%esi),%eax
    312e:	8b 53 24             	mov    0x24(%ebx),%edx
    3131:	40                   	inc    %eax
    3132:	8b 4e 04             	mov    0x4(%esi),%ecx
    3135:	25 ff 07 00 00       	and    $0x7ff,%eax
    313a:	41                   	inc    %ecx
    313b:	01 d0                	add    %edx,%eax
    313d:	8b 56 08             	mov    0x8(%esi),%edx
    3140:	c1 ea 15             	shr    $0x15,%edx
    3143:	81 e1 ff 07 00 00    	and    $0x7ff,%ecx
    3149:	42                   	inc    %edx
    314a:	89 43 24             	mov    %eax,0x24(%ebx)
    314d:	81 e2 ff 07 00 00    	and    $0x7ff,%edx
    3153:	8b 76 04             	mov    0x4(%esi),%esi
    3156:	39 d1                	cmp    %edx,%ecx
    3158:	0f 83 6a ff ff ff    	jae    30c8 <uhci_transfer_batch_is_complete+0xc8>
    315e:	8b 4b 20             	mov    0x20(%ebx),%ecx
    3161:	29 c8                	sub    %ecx,%eax
    3163:	89 43 24             	mov    %eax,0x24(%ebx)
    3166:	b0 01                	mov    $0x1,%al
    3168:	8d 65 f4             	lea    -0xc(%ebp),%esp
    316b:	5b                   	pop    %ebx
    316c:	5e                   	pop    %esi
    316d:	5f                   	pop    %edi
    316e:	5d                   	pop    %ebp
    316f:	c3                   	ret    
    3170:	8d 65 f4             	lea    -0xc(%ebp),%esp
    3173:	31 c0                	xor    %eax,%eax
    3175:	5b                   	pop    %ebx
    3176:	5e                   	pop    %esi
    3177:	5f                   	pop    %edi
    3178:	5d                   	pop    %ebp
    3179:	c3                   	ret    
    317a:	8d b6 00 00 00 00    	lea    0x0(%esi),%esi
    3180:	8b 03                	mov    (%ebx),%eax
    3182:	85 c0                	test   %eax,%eax
    3184:	0f 84 d1 00 00 00    	je     325b <uhci_transfer_batch_is_complete+0x25b>
    318a:	8b 47 04             	mov    0x4(%edi),%eax
    318d:	8b 75 e0             	mov    -0x20(%ebp),%esi
    3190:	01 f0                	add    %esi,%eax
    3192:	8b 50 04             	mov    0x4(%eax),%edx
    3195:	51                   	push   %ecx
    3196:	52                   	push   %edx
    3197:	50                   	push   %eax
    3198:	8b 45 e4             	mov    -0x1c(%ebp),%eax
    319b:	50                   	push   %eax
    319c:	53                   	push   %ebx
    319d:	68 04 27 01 00       	push   $0x12704
    31a2:	6a 04                	push   $0x4
    31a4:	6a ff                	push   $0xffffffff
    31a6:	e8 75 2a 01 00       	call   15c20 <log_msg@plt>
    31ab:	83 c4 14             	add    $0x14,%esp
    31ae:	8b 47 04             	mov    0x4(%edi),%eax
    31b1:	01 f0                	add    %esi,%eax
    31b3:	50                   	push   %eax
    31b4:	e8 d7 0b 00 00       	call   3d90 <td_print_status>
    31b9:	89 f0                	mov    %esi,%eax
    31bb:	83 c4 10             	add    $0x10,%esp
    31be:	03 47 04             	add    0x4(%edi),%eax
    31c1:	74 6e                	je     3231 <uhci_transfer_batch_is_complete+0x231>
    31c3:	8b 40 08             	mov    0x8(%eax),%eax
    31c6:	53                   	push   %ebx
    31c7:	c1 e8 13             	shr    $0x13,%eax
    31ca:	53                   	push   %ebx
    31cb:	83 e0 01             	and    $0x1,%eax
    31ce:	50                   	push   %eax
    31cf:	8b 47 10             	mov    0x10(%edi),%eax
    31d2:	8b 30                	mov    (%eax),%esi
    31d4:	56                   	push   %esi
    31d5:	e8 46 32 00 00       	call   6420 <endpoint_toggle_set>
    31da:	8b 55 e4             	mov    -0x1c(%ebp),%edx
    31dd:	83 c4 10             	add    $0x10,%esp
    31e0:	b0 01                	mov    $0x1,%al
    31e2:	85 d2                	test   %edx,%edx
    31e4:	0f 84 7e ff ff ff    	je     3168 <uhci_transfer_batch_is_complete+0x168>
    31ea:	8b 5f 10             	mov    0x10(%edi),%ebx
    31ed:	8b 43 24             	mov    0x24(%ebx),%eax
    31f0:	e9 69 ff ff ff       	jmp    315e <uhci_transfer_batch_is_complete+0x15e>
    31f5:	51                   	push   %ecx
    31f6:	6a 72                	push   $0x72
    31f8:	68 f0 23 01 00       	push   $0x123f0
    31fd:	68 5e 1d 01 00       	push   $0x11d5e
    3202:	e8 79 2a 01 00       	call   15c80 <assert_abort@plt>
    3207:	50                   	push   %eax
    3208:	68 9a 00 00 00       	push   $0x9a
    320d:	68 f0 23 01 00       	push   $0x123f0
    3212:	68 5e 1d 01 00       	push   $0x11d5e
    3217:	e8 64 2a 01 00       	call   15c80 <assert_abort@plt>
    321c:	57                   	push   %edi
    321d:	68 a3 00 00 00       	push   $0xa3
    3222:	68 0c 23 01 00       	push   $0x1230c
    3227:	68 65 21 01 00       	push   $0x12165
    322c:	e8 4f 2a 01 00       	call   15c80 <assert_abort@plt>
    3231:	51                   	push   %ecx
    3232:	68 8f 00 00 00       	push   $0x8f
    3237:	68 f0 23 01 00       	push   $0x123f0
    323c:	68 5e 1d 01 00       	push   $0x11d5e
    3241:	e8 3a 2a 01 00       	call   15c80 <assert_abort@plt>
    3246:	50                   	push   %eax
    3247:	68 a2 00 00 00       	push   $0xa2
    324c:	68 0c 23 01 00       	push   $0x1230c
    3251:	68 1e 21 01 00       	push   $0x1211e
    3256:	e8 25 2a 01 00       	call   15c80 <assert_abort@plt>
    325b:	50                   	push   %eax
    325c:	68 b3 00 00 00       	push   $0xb3
    3261:	68 0c 23 01 00       	push   $0x1230c
    3266:	68 e0 26 01 00       	push   $0x126e0
    326b:	e8 10 2a 01 00       	call   15c80 <assert_abort@plt>

00003270 <req_get_port_state>:
    3270:	55                   	push   %ebp
    3271:	89 e5                	mov    %esp,%ebp
    3273:	57                   	push   %edi
    3274:	56                   	push   %esi
    3275:	53                   	push   %ebx
    3276:	83 ec 1c             	sub    $0x1c,%esp
    3279:	8b 7d 0c             	mov    0xc(%ebp),%edi
    327c:	66 83 7f 06 01       	cmpw   $0x1,0x6(%edi)
    3281:	0f 85 99 00 00 00    	jne    3320 <req_get_port_state+0xb0>
    3287:	31 d2                	xor    %edx,%edx
    3289:	66 8b 57 04          	mov    0x4(%edi),%dx
    328d:	8d 5a ff             	lea    -0x1(%edx),%ebx
    3290:	83 fb 01             	cmp    $0x1,%ebx
    3293:	77 7b                	ja     3310 <req_get_port_state+0xa0>
    3295:	83 ec 0c             	sub    $0xc,%esp
    3298:	8b 4d 08             	mov    0x8(%ebp),%ecx
    329b:	89 55 e4             	mov    %edx,-0x1c(%ebp)
    329e:	51                   	push   %ecx
    329f:	e8 8c 4c 00 00       	call   7f30 <virthub_get_data>
    32a4:	83 c4 10             	add    $0x10,%esp
    32a7:	89 c6                	mov    %eax,%esi
    32a9:	85 c0                	test   %eax,%eax
    32ab:	8b 55 e4             	mov    -0x1c(%ebp),%edx
    32ae:	74 77                	je     3327 <req_get_port_state+0xb7>
    32b0:	66 83 7f 02 00       	cmpw   $0x0,0x2(%edi)
    32b5:	75 59                	jne    3310 <req_get_port_state+0xa0>
    32b7:	83 ec 0c             	sub    $0xc,%esp
    32ba:	8b 44 90 60          	mov    0x60(%eax,%edx,4),%eax
    32be:	50                   	push   %eax
    32bf:	e8 3c 2b 01 00       	call   15e00 <pio_read_16@plt>
    32c4:	89 c7                	mov    %eax,%edi
    32c6:	31 c9                	xor    %ecx,%ecx
    32c8:	66 c1 ef 05          	shr    $0x5,%di
    32cc:	83 c4 0c             	add    $0xc,%esp
    32cf:	66 89 c1             	mov    %ax,%cx
    32d2:	83 e7 01             	and    $0x1,%edi
    32d5:	a8 10                	test   $0x10,%al
    32d7:	8b 55 10             	mov    0x10(%ebp),%edx
    32da:	0f 95 c0             	setne  %al
    32dd:	01 c0                	add    %eax,%eax
    32df:	09 f8                	or     %edi,%eax
    32e1:	88 02                	mov    %al,(%edx)
    32e3:	51                   	push   %ecx
    32e4:	0f be c0             	movsbl %al,%eax
    32e7:	50                   	push   %eax
    32e8:	53                   	push   %ebx
    32e9:	56                   	push   %esi
    32ea:	68 20 28 01 00       	push   $0x12820
    32ef:	6a 04                	push   $0x4
    32f1:	6a ff                	push   $0xffffffff
    32f3:	e8 28 29 01 00       	call   15c20 <log_msg@plt>
    32f8:	8b 45 14             	mov    0x14(%ebp),%eax
    32fb:	83 c4 20             	add    $0x20,%esp
    32fe:	c7 00 01 00 00 00    	movl   $0x1,(%eax)
    3304:	31 c0                	xor    %eax,%eax
    3306:	8d 65 f4             	lea    -0xc(%ebp),%esp
    3309:	5b                   	pop    %ebx
    330a:	5e                   	pop    %esi
    330b:	5f                   	pop    %edi
    330c:	5d                   	pop    %ebp
    330d:	c3                   	ret    
    330e:	66 90                	xchg   %ax,%ax
    3310:	8d 65 f4             	lea    -0xc(%ebp),%esp
    3313:	b8 f2 ff ff ff       	mov    $0xfffffff2,%eax
    3318:	5b                   	pop    %ebx
    3319:	5e                   	pop    %esi
    331a:	5f                   	pop    %edi
    331b:	5d                   	pop    %ebp
    331c:	c3                   	ret    
    331d:	8d 76 00             	lea    0x0(%esi),%esi
    3320:	b8 d3 fe ff ff       	mov    $0xfffffed3,%eax
    3325:	eb df                	jmp    3306 <req_get_port_state+0x96>
    3327:	52                   	push   %edx
    3328:	68 c9 00 00 00       	push   $0xc9
    332d:	68 4c 27 01 00       	push   $0x1274c
    3332:	68 56 27 01 00       	push   $0x12756
    3337:	e8 44 29 01 00       	call   15c80 <assert_abort@plt>
    333c:	8d 74 26 00          	lea    0x0(%esi,%eiz,1),%esi

00003340 <req_status_change_handler>:
    3340:	55                   	push   %ebp
    3341:	89 e5                	mov    %esp,%ebp
    3343:	57                   	push   %edi
    3344:	56                   	push   %esi
    3345:	53                   	push   %ebx
    3346:	83 ec 28             	sub    $0x28,%esp
    3349:	8b 5d 08             	mov    0x8(%ebp),%ebx
    334c:	53                   	push   %ebx
    334d:	e8 de 4b 00 00       	call   7f30 <virthub_get_data>
    3352:	83 c4 10             	add    $0x10,%esp
    3355:	85 c0                	test   %eax,%eax
    3357:	0f 84 2a 01 00 00    	je     3487 <req_status_change_handler+0x147>
    335d:	8b 55 18             	mov    0x18(%ebp),%edx
    3360:	85 d2                	test   %edx,%edx
    3362:	0f 84 18 01 00 00    	je     3480 <req_status_change_handler+0x140>
    3368:	83 ec 0c             	sub    $0xc,%esp
    336b:	8b 50 64             	mov    0x64(%eax),%edx
    336e:	89 c3                	mov    %eax,%ebx
    3370:	52                   	push   %edx
    3371:	e8 8a 2a 01 00       	call   15e00 <pio_read_16@plt>
    3376:	8b 7b 68             	mov    0x68(%ebx),%edi
    3379:	59                   	pop    %ecx
    337a:	89 c6                	mov    %eax,%esi
    337c:	57                   	push   %edi
    337d:	e8 7e 2a 01 00       	call   15e00 <pio_read_16@plt>
    3382:	83 c4 10             	add    $0x10,%esp
    3385:	f7 c6 0a 00 00 00    	test   $0xa,%esi
    338b:	0f 85 9f 00 00 00    	jne    3430 <req_status_change_handler+0xf0>
    3391:	80 7b 6c 01          	cmpb   $0x1,0x6c(%ebx)
    3395:	19 ff                	sbb    %edi,%edi
    3397:	83 e7 fe             	and    $0xfffffffe,%edi
    339a:	83 c7 06             	add    $0x6,%edi
    339d:	80 7b 6c 01          	cmpb   $0x1,0x6c(%ebx)
    33a1:	89 7d e4             	mov    %edi,-0x1c(%ebp)
    33a4:	19 ff                	sbb    %edi,%edi
    33a6:	83 f7 ff             	xor    $0xffffffff,%edi
    33a9:	83 e7 02             	and    $0x2,%edi
    33ac:	80 7b 6c 01          	cmpb   $0x1,0x6c(%ebx)
    33b0:	19 c9                	sbb    %ecx,%ecx
    33b2:	89 ca                	mov    %ecx,%edx
    33b4:	83 f2 ff             	xor    $0xffffffff,%edx
    33b7:	83 e2 02             	and    $0x2,%edx
    33ba:	88 55 e3             	mov    %dl,-0x1d(%ebp)
    33bd:	89 ca                	mov    %ecx,%edx
    33bf:	83 e2 fe             	and    $0xfffffffe,%edx
    33c2:	83 f1 ff             	xor    $0xffffffff,%ecx
    33c5:	83 c2 06             	add    $0x6,%edx
    33c8:	83 e1 02             	and    $0x2,%ecx
    33cb:	a8 0a                	test   $0xa,%al
    33cd:	74 79                	je     3448 <req_status_change_handler+0x108>
    33cf:	80 7b 6d 00          	cmpb   $0x0,0x6d(%ebx)
    33d3:	75 79                	jne    344e <req_status_change_handler+0x10e>
    33d5:	b9 66 56 01 00       	mov    $0x15666,%ecx
    33da:	bf 66 56 01 00       	mov    $0x15666,%edi
    33df:	80 7b 6c 00          	cmpb   $0x0,0x6c(%ebx)
    33e3:	74 05                	je     33ea <req_status_change_handler+0xaa>
    33e5:	bf 5a 27 01 00       	mov    $0x1275a,%edi
    33ea:	83 ec 0c             	sub    $0xc,%esp
    33ed:	25 ff ff 00 00       	and    $0xffff,%eax
    33f2:	81 e6 ff ff 00 00    	and    $0xffff,%esi
    33f8:	88 55 e3             	mov    %dl,-0x1d(%ebp)
    33fb:	51                   	push   %ecx
    33fc:	50                   	push   %eax
    33fd:	8b 45 e4             	mov    -0x1c(%ebp),%eax
    3400:	57                   	push   %edi
    3401:	56                   	push   %esi
    3402:	50                   	push   %eax
    3403:	53                   	push   %ebx
    3404:	68 48 28 01 00       	push   $0x12848
    3409:	6a 04                	push   $0x4
    340b:	6a ff                	push   $0xffffffff
    340d:	e8 0e 28 01 00       	call   15c20 <log_msg@plt>
    3412:	8b 45 14             	mov    0x14(%ebp),%eax
    3415:	8a 55 e3             	mov    -0x1d(%ebp),%dl
    3418:	83 c4 30             	add    $0x30,%esp
    341b:	88 10                	mov    %dl,(%eax)
    341d:	8b 45 1c             	mov    0x1c(%ebp),%eax
    3420:	c7 00 01 00 00 00    	movl   $0x1,(%eax)
    3426:	31 c0                	xor    %eax,%eax
    3428:	8d 65 f4             	lea    -0xc(%ebp),%esp
    342b:	5b                   	pop    %ebx
    342c:	5e                   	pop    %esi
    342d:	5f                   	pop    %edi
    342e:	5d                   	pop    %ebp
    342f:	c3                   	ret    
    3430:	c7 45 e4 06 00 00 00 	movl   $0x6,-0x1c(%ebp)
    3437:	bf 02 00 00 00       	mov    $0x2,%edi
    343c:	c6 45 e3 02          	movb   $0x2,-0x1d(%ebp)
    3440:	b2 06                	mov    $0x6,%dl
    3442:	b1 02                	mov    $0x2,%cl
    3444:	a8 0a                	test   $0xa,%al
    3446:	75 87                	jne    33cf <req_status_change_handler+0x8f>
    3448:	80 7b 6d 00          	cmpb   $0x0,0x6d(%ebx)
    344c:	74 0a                	je     3458 <req_status_change_handler+0x118>
    344e:	b9 5a 27 01 00       	mov    $0x1275a,%ecx
    3453:	eb 85                	jmp    33da <req_status_change_handler+0x9a>
    3455:	8d 76 00             	lea    0x0(%esi),%esi
    3458:	84 c9                	test   %cl,%cl
    345a:	75 40                	jne    349c <req_status_change_handler+0x15c>
    345c:	8b 45 14             	mov    0x14(%ebp),%eax
    345f:	8a 4d e3             	mov    -0x1d(%ebp),%cl
    3462:	88 08                	mov    %cl,(%eax)
    3464:	8b 45 1c             	mov    0x1c(%ebp),%eax
    3467:	c7 00 01 00 00 00    	movl   $0x1,(%eax)
    346d:	8d 65 f4             	lea    -0xc(%ebp),%esp
    3470:	b8 d1 fe ff ff       	mov    $0xfffffed1,%eax
    3475:	5b                   	pop    %ebx
    3476:	5e                   	pop    %esi
    3477:	5f                   	pop    %edi
    3478:	5d                   	pop    %ebp
    3479:	c3                   	ret    
    347a:	8d b6 00 00 00 00    	lea    0x0(%esi),%esi
    3480:	b8 d3 fe ff ff       	mov    $0xfffffed3,%eax
    3485:	eb a1                	jmp    3428 <req_status_change_handler+0xe8>
    3487:	51                   	push   %ecx
    3488:	68 99 01 00 00       	push   $0x199
    348d:	68 4c 27 01 00       	push   $0x1274c
    3492:	68 56 27 01 00       	push   $0x12756
    3497:	e8 e4 27 01 00       	call   15c80 <assert_abort@plt>
    349c:	89 7d e4             	mov    %edi,-0x1c(%ebp)
    349f:	8a 55 e3             	mov    -0x1d(%ebp),%dl
    34a2:	e9 2e ff ff ff       	jmp    33d5 <req_status_change_handler+0x95>
    34a7:	89 f6                	mov    %esi,%esi
    34a9:	8d bc 27 00 00 00 00 	lea    0x0(%edi,%eiz,1),%edi

000034b0 <req_clear_port_feature>:
    34b0:	55                   	push   %ebp
    34b1:	89 e5                	mov    %esp,%ebp
    34b3:	57                   	push   %edi
    34b4:	56                   	push   %esi
    34b5:	53                   	push   %ebx
    34b6:	83 ec 1c             	sub    $0x1c,%esp
    34b9:	8b 5d 0c             	mov    0xc(%ebp),%ebx
    34bc:	66 83 7b 06 00       	cmpw   $0x0,0x6(%ebx)
    34c1:	0f 85 59 02 00 00    	jne    3720 <req_clear_port_feature+0x270>
    34c7:	31 ff                	xor    %edi,%edi
    34c9:	66 8b 7b 04          	mov    0x4(%ebx),%di
    34cd:	8d 47 ff             	lea    -0x1(%edi),%eax
    34d0:	89 45 e4             	mov    %eax,-0x1c(%ebp)
    34d3:	83 f8 01             	cmp    $0x1,%eax
    34d6:	77 50                	ja     3528 <req_clear_port_feature+0x78>
    34d8:	83 ec 0c             	sub    $0xc,%esp
    34db:	8b 55 08             	mov    0x8(%ebp),%edx
    34de:	52                   	push   %edx
    34df:	e8 4c 4a 00 00       	call   7f30 <virthub_get_data>
    34e4:	83 c4 10             	add    $0x10,%esp
    34e7:	85 c0                	test   %eax,%eax
    34e9:	0f 84 3b 02 00 00    	je     372a <req_clear_port_feature+0x27a>
    34ef:	8d 3c b8             	lea    (%eax,%edi,4),%edi
    34f2:	83 ec 0c             	sub    $0xc,%esp
    34f5:	89 45 e0             	mov    %eax,-0x20(%ebp)
    34f8:	66 8b 73 02          	mov    0x2(%ebx),%si
    34fc:	8b 47 60             	mov    0x60(%edi),%eax
    34ff:	50                   	push   %eax
    3500:	e8 fb 28 01 00       	call   15e00 <pio_read_16@plt>
    3505:	83 c4 10             	add    $0x10,%esp
    3508:	89 c3                	mov    %eax,%ebx
    350a:	66 83 fe 14          	cmp    $0x14,%si
    350e:	8b 55 e0             	mov    -0x20(%ebp),%edx
    3511:	0f 87 c9 01 00 00    	ja     36e0 <req_clear_port_feature+0x230>
    3517:	31 c0                	xor    %eax,%eax
    3519:	66 89 f0             	mov    %si,%ax
    351c:	ff 24 85 20 2c 01 00 	jmp    *0x12c20(,%eax,4)
    3523:	90                   	nop
    3524:	8d 74 26 00          	lea    0x0(%esi,%eiz,1),%esi
    3528:	b8 f2 ff ff ff       	mov    $0xfffffff2,%eax
    352d:	8d 65 f4             	lea    -0xc(%ebp),%esp
    3530:	5b                   	pop    %ebx
    3531:	5e                   	pop    %esi
    3532:	5f                   	pop    %edi
    3533:	5d                   	pop    %ebp
    3534:	c3                   	ret    
    3535:	8d 76 00             	lea    0x0(%esi),%esi
    3538:	8b 75 e4             	mov    -0x1c(%ebp),%esi
    353b:	81 e3 ff ff 00 00    	and    $0xffff,%ebx
    3541:	89 55 e4             	mov    %edx,-0x1c(%ebp)
    3544:	50                   	push   %eax
    3545:	50                   	push   %eax
    3546:	53                   	push   %ebx
    3547:	56                   	push   %esi
    3548:	52                   	push   %edx
    3549:	68 60 29 01 00       	push   $0x12960
    354e:	6a 04                	push   $0x4
    3550:	6a ff                	push   $0xffffffff
    3552:	e8 c9 26 01 00       	call   15c20 <log_msg@plt>
    3557:	8b 55 e4             	mov    -0x1c(%ebp),%edx
    355a:	83 c4 20             	add    $0x20,%esp
    355d:	31 c0                	xor    %eax,%eax
    355f:	c6 44 32 6c 00       	movb   $0x0,0x6c(%edx,%esi,1)
    3564:	eb c7                	jmp    352d <req_clear_port_feature+0x7d>
    3566:	66 90                	xchg   %ax,%ax
    3568:	50                   	push   %eax
    3569:	50                   	push   %eax
    356a:	31 c0                	xor    %eax,%eax
    356c:	66 89 d8             	mov    %bx,%ax
    356f:	81 e3 f1 ff 00 00    	and    $0xfff1,%ebx
    3575:	50                   	push   %eax
    3576:	8b 45 e4             	mov    -0x1c(%ebp),%eax
    3579:	50                   	push   %eax
    357a:	52                   	push   %edx
    357b:	68 84 28 01 00       	push   $0x12884
    3580:	6a 04                	push   $0x4
    3582:	6a ff                	push   $0xffffffff
    3584:	e8 97 26 01 00       	call   15c20 <log_msg@plt>
    3589:	83 c4 18             	add    $0x18,%esp
    358c:	53                   	push   %ebx
    358d:	8b 47 60             	mov    0x60(%edi),%eax
    3590:	50                   	push   %eax
    3591:	e8 1a 27 01 00       	call   15cb0 <pio_write_16@plt>
    3596:	83 c4 10             	add    $0x10,%esp
    3599:	8d 65 f4             	lea    -0xc(%ebp),%esp
    359c:	31 c0                	xor    %eax,%eax
    359e:	5b                   	pop    %ebx
    359f:	5e                   	pop    %esi
    35a0:	5f                   	pop    %edi
    35a1:	5d                   	pop    %ebp
    35a2:	c3                   	ret    
    35a3:	90                   	nop
    35a4:	8d 74 26 00          	lea    0x0(%esi,%eiz,1),%esi
    35a8:	50                   	push   %eax
    35a9:	50                   	push   %eax
    35aa:	31 c0                	xor    %eax,%eax
    35ac:	8b 75 e4             	mov    -0x1c(%ebp),%esi
    35af:	66 89 d8             	mov    %bx,%ax
    35b2:	81 e3 f5 ef 00 00    	and    $0xeff5,%ebx
    35b8:	50                   	push   %eax
    35b9:	56                   	push   %esi
    35ba:	52                   	push   %edx
    35bb:	68 b0 28 01 00       	push   $0x128b0
    35c0:	6a 04                	push   $0x4
    35c2:	6a ff                	push   $0xffffffff
    35c4:	e8 57 26 01 00       	call   15c20 <log_msg@plt>
    35c9:	83 c4 18             	add    $0x18,%esp
    35cc:	53                   	push   %ebx
    35cd:	8b 47 60             	mov    0x60(%edi),%eax
    35d0:	50                   	push   %eax
    35d1:	e8 da 26 01 00       	call   15cb0 <pio_write_16@plt>
    35d6:	56                   	push   %esi
    35d7:	68 dc 28 01 00       	push   $0x128dc
    35dc:	6a 02                	push   $0x2
    35de:	6a ff                	push   $0xffffffff
    35e0:	e8 3b 26 01 00       	call   15c20 <log_msg@plt>
    35e5:	83 c4 20             	add    $0x20,%esp
    35e8:	31 c0                	xor    %eax,%eax
    35ea:	e9 3e ff ff ff       	jmp    352d <req_clear_port_feature+0x7d>
    35ef:	90                   	nop
    35f0:	8b 75 e4             	mov    -0x1c(%ebp),%esi
    35f3:	81 e3 ff ff 00 00    	and    $0xffff,%ebx
    35f9:	57                   	push   %edi
    35fa:	57                   	push   %edi
    35fb:	53                   	push   %ebx
    35fc:	56                   	push   %esi
    35fd:	52                   	push   %edx
    35fe:	68 04 29 01 00       	push   $0x12904
    3603:	6a 04                	push   $0x4
    3605:	6a ff                	push   $0xffffffff
    3607:	e8 14 26 01 00       	call   15c20 <log_msg@plt>
    360c:	83 c4 20             	add    $0x20,%esp
    360f:	56                   	push   %esi
    3610:	68 61 27 01 00       	push   $0x12761
    3615:	6a 02                	push   $0x2
    3617:	6a ff                	push   $0xffffffff
    3619:	e8 02 26 01 00       	call   15c20 <log_msg@plt>
    361e:	83 c4 10             	add    $0x10,%esp
    3621:	31 c0                	xor    %eax,%eax
    3623:	e9 05 ff ff ff       	jmp    352d <req_clear_port_feature+0x7d>
    3628:	31 c0                	xor    %eax,%eax
    362a:	8b 75 e4             	mov    -0x1c(%ebp),%esi
    362d:	66 89 d8             	mov    %bx,%ax
    3630:	81 e3 f5 ff 00 00    	and    $0xfff5,%ebx
    3636:	51                   	push   %ecx
    3637:	51                   	push   %ecx
    3638:	50                   	push   %eax
    3639:	56                   	push   %esi
    363a:	52                   	push   %edx
    363b:	68 30 29 01 00       	push   $0x12930
    3640:	6a 04                	push   $0x4
    3642:	6a ff                	push   $0xffffffff
    3644:	83 cb 02             	or     $0x2,%ebx
    3647:	e8 d4 25 01 00       	call   15c20 <log_msg@plt>
    364c:	83 c4 18             	add    $0x18,%esp
    364f:	e9 38 ff ff ff       	jmp    358c <req_clear_port_feature+0xdc>
    3654:	8d 74 26 00          	lea    0x0(%esi,%eiz,1),%esi
    3658:	50                   	push   %eax
    3659:	50                   	push   %eax
    365a:	31 c0                	xor    %eax,%eax
    365c:	66 89 d8             	mov    %bx,%ax
    365f:	83 cb 08             	or     $0x8,%ebx
    3662:	50                   	push   %eax
    3663:	8b 45 e4             	mov    -0x1c(%ebp),%eax
    3666:	50                   	push   %eax
    3667:	52                   	push   %edx
    3668:	68 94 29 01 00       	push   $0x12994
    366d:	6a 04                	push   $0x4
    366f:	6a ff                	push   $0xffffffff
    3671:	81 e3 ff ff 00 00    	and    $0xffff,%ebx
    3677:	e8 a4 25 01 00       	call   15c20 <log_msg@plt>
    367c:	83 c4 18             	add    $0x18,%esp
    367f:	e9 08 ff ff ff       	jmp    358c <req_clear_port_feature+0xdc>
    3684:	8d 74 26 00          	lea    0x0(%esi,%eiz,1),%esi
    3688:	8b 7d e4             	mov    -0x1c(%ebp),%edi
    368b:	81 e3 ff ff 00 00    	and    $0xffff,%ebx
    3691:	56                   	push   %esi
    3692:	56                   	push   %esi
    3693:	53                   	push   %ebx
    3694:	57                   	push   %edi
    3695:	52                   	push   %edx
    3696:	68 fc 29 01 00       	push   $0x129fc
    369b:	6a 04                	push   $0x4
    369d:	6a ff                	push   $0xffffffff
    369f:	e8 7c 25 01 00       	call   15c20 <log_msg@plt>
    36a4:	83 c4 20             	add    $0x20,%esp
    36a7:	31 c0                	xor    %eax,%eax
    36a9:	e9 7f fe ff ff       	jmp    352d <req_clear_port_feature+0x7d>
    36ae:	66 90                	xchg   %ax,%ax
    36b0:	81 e3 ff ff 00 00    	and    $0xffff,%ebx
    36b6:	50                   	push   %eax
    36b7:	50                   	push   %eax
    36b8:	8b 45 e4             	mov    -0x1c(%ebp),%eax
    36bb:	53                   	push   %ebx
    36bc:	50                   	push   %eax
    36bd:	52                   	push   %edx
    36be:	68 c8 29 01 00       	push   $0x129c8
    36c3:	6a 04                	push   $0x4
    36c5:	6a ff                	push   $0xffffffff
    36c7:	e8 54 25 01 00       	call   15c20 <log_msg@plt>
    36cc:	83 c4 20             	add    $0x20,%esp
    36cf:	b8 f5 ff ff ff       	mov    $0xfffffff5,%eax
    36d4:	e9 54 fe ff ff       	jmp    352d <req_clear_port_feature+0x7d>
    36d9:	8d b4 26 00 00 00 00 	lea    0x0(%esi,%eiz,1),%esi
    36e0:	31 ff                	xor    %edi,%edi
    36e2:	8b 4d e4             	mov    -0x1c(%ebp),%ecx
    36e5:	66 89 f7             	mov    %si,%di
    36e8:	81 e3 ff ff 00 00    	and    $0xffff,%ebx
    36ee:	50                   	push   %eax
    36ef:	53                   	push   %ebx
    36f0:	57                   	push   %edi
    36f1:	51                   	push   %ecx
    36f2:	52                   	push   %edx
    36f3:	68 2c 2a 01 00       	push   $0x12a2c
    36f8:	6a 04                	push   $0x4
    36fa:	6a ff                	push   $0xffffffff
    36fc:	e8 1f 25 01 00       	call   15c20 <log_msg@plt>
    3701:	83 c4 20             	add    $0x20,%esp
    3704:	57                   	push   %edi
    3705:	68 60 2a 01 00       	push   $0x12a60
    370a:	6a 02                	push   $0x2
    370c:	6a ff                	push   $0xffffffff
    370e:	e8 0d 25 01 00       	call   15c20 <log_msg@plt>
    3713:	83 c4 10             	add    $0x10,%esp
    3716:	b8 d3 fe ff ff       	mov    $0xfffffed3,%eax
    371b:	e9 0d fe ff ff       	jmp    352d <req_clear_port_feature+0x7d>
    3720:	b8 d3 fe ff ff       	mov    $0xfffffed3,%eax
    3725:	e9 03 fe ff ff       	jmp    352d <req_clear_port_feature+0x7d>
    372a:	50                   	push   %eax
    372b:	68 13 01 00 00       	push   $0x113
    3730:	68 4c 27 01 00       	push   $0x1274c
    3735:	68 56 27 01 00       	push   $0x12756
    373a:	e8 41 25 01 00       	call   15c80 <assert_abort@plt>
    373f:	90                   	nop

00003740 <req_set_port_feature>:
    3740:	55                   	push   %ebp
    3741:	89 e5                	mov    %esp,%ebp
    3743:	57                   	push   %edi
    3744:	56                   	push   %esi
    3745:	53                   	push   %ebx
    3746:	83 ec 1c             	sub    $0x1c,%esp
    3749:	8b 7d 0c             	mov    0xc(%ebp),%edi
    374c:	66 83 7f 06 00       	cmpw   $0x0,0x6(%edi)
    3751:	0f 85 31 02 00 00    	jne    3988 <req_set_port_feature+0x248>
    3757:	31 d2                	xor    %edx,%edx
    3759:	66 8b 57 04          	mov    0x4(%edi),%dx
    375d:	89 55 e4             	mov    %edx,-0x1c(%ebp)
    3760:	8d 72 ff             	lea    -0x1(%edx),%esi
    3763:	83 fe 01             	cmp    $0x1,%esi
    3766:	77 50                	ja     37b8 <req_set_port_feature+0x78>
    3768:	83 ec 0c             	sub    $0xc,%esp
    376b:	8b 45 08             	mov    0x8(%ebp),%eax
    376e:	50                   	push   %eax
    376f:	e8 bc 47 00 00       	call   7f30 <virthub_get_data>
    3774:	83 c4 10             	add    $0x10,%esp
    3777:	89 c3                	mov    %eax,%ebx
    3779:	85 c0                	test   %eax,%eax
    377b:	8b 55 e4             	mov    -0x1c(%ebp),%edx
    377e:	0f 84 0e 02 00 00    	je     3992 <req_set_port_feature+0x252>
    3784:	8d 04 90             	lea    (%eax,%edx,4),%eax
    3787:	83 ec 0c             	sub    $0xc,%esp
    378a:	89 45 e4             	mov    %eax,-0x1c(%ebp)
    378d:	66 8b 7f 02          	mov    0x2(%edi),%di
    3791:	8b 40 60             	mov    0x60(%eax),%eax
    3794:	50                   	push   %eax
    3795:	e8 66 26 01 00       	call   15e00 <pio_read_16@plt>
    379a:	83 c4 10             	add    $0x10,%esp
    379d:	66 83 ff 13          	cmp    $0x13,%di
    37a1:	0f 87 a1 01 00 00    	ja     3948 <req_set_port_feature+0x208>
    37a7:	31 d2                	xor    %edx,%edx
    37a9:	66 89 fa             	mov    %di,%dx
    37ac:	ff 24 95 74 2c 01 00 	jmp    *0x12c74(,%edx,4)
    37b3:	90                   	nop
    37b4:	8d 74 26 00          	lea    0x0(%esi,%eiz,1),%esi
    37b8:	b8 f2 ff ff ff       	mov    $0xfffffff2,%eax
    37bd:	8d 65 f4             	lea    -0xc(%ebp),%esp
    37c0:	5b                   	pop    %ebx
    37c1:	5e                   	pop    %esi
    37c2:	5f                   	pop    %edi
    37c3:	5d                   	pop    %ebp
    37c4:	c3                   	ret    
    37c5:	8d 76 00             	lea    0x0(%esi),%esi
    37c8:	25 ff ff 00 00       	and    $0xffff,%eax
    37cd:	57                   	push   %edi
    37ce:	57                   	push   %edi
    37cf:	50                   	push   %eax
    37d0:	56                   	push   %esi
    37d1:	53                   	push   %ebx
    37d2:	68 38 2b 01 00       	push   $0x12b38
    37d7:	6a 04                	push   $0x4
    37d9:	6a ff                	push   $0xffffffff
    37db:	e8 40 24 01 00       	call   15c20 <log_msg@plt>
    37e0:	83 c4 20             	add    $0x20,%esp
    37e3:	56                   	push   %esi
    37e4:	68 82 27 01 00       	push   $0x12782
    37e9:	6a 02                	push   $0x2
    37eb:	6a ff                	push   $0xffffffff
    37ed:	e8 2e 24 01 00       	call   15c20 <log_msg@plt>
    37f2:	83 c4 10             	add    $0x10,%esp
    37f5:	8d 65 f4             	lea    -0xc(%ebp),%esp
    37f8:	31 c0                	xor    %eax,%eax
    37fa:	5b                   	pop    %ebx
    37fb:	5e                   	pop    %esi
    37fc:	5f                   	pop    %edi
    37fd:	5d                   	pop    %ebp
    37fe:	c3                   	ret    
    37ff:	90                   	nop
    3800:	52                   	push   %edx
    3801:	52                   	push   %edx
    3802:	31 d2                	xor    %edx,%edx
    3804:	89 45 e0             	mov    %eax,-0x20(%ebp)
    3807:	66 89 c2             	mov    %ax,%dx
    380a:	52                   	push   %edx
    380b:	56                   	push   %esi
    380c:	53                   	push   %ebx
    380d:	68 e4 2a 01 00       	push   $0x12ae4
    3812:	6a 04                	push   $0x4
    3814:	6a ff                	push   $0xffffffff
    3816:	e8 05 24 01 00       	call   15c20 <log_msg@plt>
    381b:	8b 45 e0             	mov    -0x20(%ebp),%eax
    381e:	83 c4 18             	add    $0x18,%esp
    3821:	25 f5 ef 00 00       	and    $0xeff5,%eax
    3826:	80 cc 10             	or     $0x10,%ah
    3829:	50                   	push   %eax
    382a:	8b 45 e4             	mov    -0x1c(%ebp),%eax
    382d:	8b 48 60             	mov    0x60(%eax),%ecx
    3830:	51                   	push   %ecx
    3831:	e8 7a 24 01 00       	call   15cb0 <pio_write_16@plt>
    3836:	56                   	push   %esi
    3837:	68 10 2b 01 00       	push   $0x12b10
    383c:	6a 02                	push   $0x2
    383e:	6a ff                	push   $0xffffffff
    3840:	e8 db 23 01 00       	call   15c20 <log_msg@plt>
    3845:	83 c4 20             	add    $0x20,%esp
    3848:	8d 65 f4             	lea    -0xc(%ebp),%esp
    384b:	31 c0                	xor    %eax,%eax
    384d:	5b                   	pop    %ebx
    384e:	5e                   	pop    %esi
    384f:	5f                   	pop    %edi
    3850:	5d                   	pop    %ebp
    3851:	c3                   	ret    
    3852:	8d b6 00 00 00 00    	lea    0x0(%esi),%esi
    3858:	25 ff ff 00 00       	and    $0xffff,%eax
    385d:	57                   	push   %edi
    385e:	57                   	push   %edi
    385f:	50                   	push   %eax
    3860:	56                   	push   %esi
    3861:	53                   	push   %ebx
    3862:	68 84 2a 01 00       	push   $0x12a84
    3867:	6a 04                	push   $0x4
    3869:	6a ff                	push   $0xffffffff
    386b:	e8 b0 23 01 00       	call   15c20 <log_msg@plt>
    3870:	8b 45 e4             	mov    -0x1c(%ebp),%eax
    3873:	83 c4 20             	add    $0x20,%esp
    3876:	8b 78 60             	mov    0x60(%eax),%edi
    3879:	85 ff                	test   %edi,%edi
    387b:	0f 84 26 01 00 00    	je     39a7 <req_set_port_feature+0x267>
    3881:	83 ec 0c             	sub    $0xc,%esp
    3884:	57                   	push   %edi
    3885:	e8 76 25 01 00       	call   15e00 <pio_read_16@plt>
    388a:	25 f5 fd 00 00       	and    $0xfdf5,%eax
    388f:	5a                   	pop    %edx
    3890:	80 cc 02             	or     $0x2,%ah
    3893:	59                   	pop    %ecx
    3894:	50                   	push   %eax
    3895:	57                   	push   %edi
    3896:	e8 15 24 01 00       	call   15cb0 <pio_write_16@plt>
    389b:	c7 04 24 50 c3 00 00 	movl   $0xc350,(%esp)
    38a2:	e8 09 26 01 00       	call   15eb0 <async_usleep@plt>
    38a7:	89 3c 24             	mov    %edi,(%esp)
    38aa:	e8 51 25 01 00       	call   15e00 <pio_read_16@plt>
    38af:	5a                   	pop    %edx
    38b0:	25 ff fd 00 00       	and    $0xfdff,%eax
    38b5:	59                   	pop    %ecx
    38b6:	50                   	push   %eax
    38b7:	57                   	push   %edi
    38b8:	e8 f3 23 01 00       	call   15cb0 <pio_write_16@plt>
    38bd:	83 c4 10             	add    $0x10,%esp
    38c0:	83 ec 0c             	sub    $0xc,%esp
    38c3:	57                   	push   %edi
    38c4:	e8 37 25 01 00       	call   15e00 <pio_read_16@plt>
    38c9:	83 c4 10             	add    $0x10,%esp
    38cc:	f6 c4 02             	test   $0x2,%ah
    38cf:	75 ef                	jne    38c0 <req_set_port_feature+0x180>
    38d1:	83 ec 0c             	sub    $0xc,%esp
    38d4:	89 45 e0             	mov    %eax,-0x20(%ebp)
    38d7:	6a 0a                	push   $0xa
    38d9:	e8 12 25 01 00       	call   15df0 <udelay@plt>
    38de:	58                   	pop    %eax
    38df:	8b 45 e0             	mov    -0x20(%ebp),%eax
    38e2:	25 f1 ff 00 00       	and    $0xfff1,%eax
    38e7:	5a                   	pop    %edx
    38e8:	83 c8 06             	or     $0x6,%eax
    38eb:	50                   	push   %eax
    38ec:	57                   	push   %edi
    38ed:	e8 be 23 01 00       	call   15cb0 <pio_write_16@plt>
    38f2:	8b 45 e4             	mov    -0x1c(%ebp),%eax
    38f5:	c6 44 33 6c 01       	movb   $0x1,0x6c(%ebx,%esi,1)
    38fa:	8b 78 60             	mov    0x60(%eax),%edi
    38fd:	59                   	pop    %ecx
    38fe:	57                   	push   %edi
    38ff:	e8 fc 24 01 00       	call   15e00 <pio_read_16@plt>
    3904:	25 ff ff 00 00       	and    $0xffff,%eax
    3909:	5a                   	pop    %edx
    390a:	59                   	pop    %ecx
    390b:	50                   	push   %eax
    390c:	56                   	push   %esi
    390d:	53                   	push   %ebx
    390e:	68 b4 2a 01 00       	push   $0x12ab4
    3913:	6a 04                	push   $0x4
    3915:	6a ff                	push   $0xffffffff
    3917:	e8 04 23 01 00       	call   15c20 <log_msg@plt>
    391c:	83 c4 20             	add    $0x20,%esp
    391f:	8d 65 f4             	lea    -0xc(%ebp),%esp
    3922:	31 c0                	xor    %eax,%eax
    3924:	5b                   	pop    %ebx
    3925:	5e                   	pop    %esi
    3926:	5f                   	pop    %edi
    3927:	5d                   	pop    %ebp
    3928:	c3                   	ret    
    3929:	8d b4 26 00 00 00 00 	lea    0x0(%esi,%eiz,1),%esi
    3930:	25 ff ff 00 00       	and    $0xffff,%eax
    3935:	51                   	push   %ecx
    3936:	51                   	push   %ecx
    3937:	50                   	push   %eax
    3938:	56                   	push   %esi
    3939:	53                   	push   %ebx
    393a:	68 60 2b 01 00       	push   $0x12b60
    393f:	eb d2                	jmp    3913 <req_set_port_feature+0x1d3>
    3941:	8d b4 26 00 00 00 00 	lea    0x0(%esi,%eiz,1),%esi
    3948:	25 ff ff 00 00       	and    $0xffff,%eax
    394d:	81 e7 ff ff 00 00    	and    $0xffff,%edi
    3953:	52                   	push   %edx
    3954:	50                   	push   %eax
    3955:	57                   	push   %edi
    3956:	56                   	push   %esi
    3957:	53                   	push   %ebx
    3958:	68 90 2b 01 00       	push   $0x12b90
    395d:	6a 04                	push   $0x4
    395f:	6a ff                	push   $0xffffffff
    3961:	e8 ba 22 01 00       	call   15c20 <log_msg@plt>
    3966:	83 c4 20             	add    $0x20,%esp
    3969:	57                   	push   %edi
    396a:	68 c0 2b 01 00       	push   $0x12bc0
    396f:	6a 02                	push   $0x2
    3971:	6a ff                	push   $0xffffffff
    3973:	e8 a8 22 01 00       	call   15c20 <log_msg@plt>
    3978:	83 c4 10             	add    $0x10,%esp
    397b:	8d 65 f4             	lea    -0xc(%ebp),%esp
    397e:	b8 d3 fe ff ff       	mov    $0xfffffed3,%eax
    3983:	5b                   	pop    %ebx
    3984:	5e                   	pop    %esi
    3985:	5f                   	pop    %edi
    3986:	5d                   	pop    %ebp
    3987:	c3                   	ret    
    3988:	b8 d3 fe ff ff       	mov    $0xfffffed3,%eax
    398d:	e9 2b fe ff ff       	jmp    37bd <req_set_port_feature+0x7d>
    3992:	50                   	push   %eax
    3993:	68 5c 01 00 00       	push   $0x15c
    3998:	68 4c 27 01 00       	push   $0x1274c
    399d:	68 56 27 01 00       	push   $0x12756
    39a2:	e8 d9 22 01 00       	call   15c80 <assert_abort@plt>
    39a7:	53                   	push   %ebx
    39a8:	68 92 00 00 00       	push   $0x92
    39ad:	68 4c 27 01 00       	push   $0x1274c
    39b2:	68 7d 27 01 00       	push   $0x1277d
    39b7:	e8 c4 22 01 00       	call   15c80 <assert_abort@plt>
    39bc:	8d 74 26 00          	lea    0x0(%esi,%eiz,1),%esi

000039c0 <req_get_port_status>:
    39c0:	55                   	push   %ebp
    39c1:	89 e5                	mov    %esp,%ebp
    39c3:	57                   	push   %edi
    39c4:	56                   	push   %esi
    39c5:	53                   	push   %ebx
    39c6:	83 ec 2c             	sub    $0x2c,%esp
    39c9:	8b 7d 0c             	mov    0xc(%ebp),%edi
    39cc:	66 83 7f 06 04       	cmpw   $0x4,0x6(%edi)
    39d1:	0f 85 31 01 00 00    	jne    3b08 <req_get_port_status+0x148>
    39d7:	31 d2                	xor    %edx,%edx
    39d9:	66 8b 57 04          	mov    0x4(%edi),%dx
    39dd:	8d 5a ff             	lea    -0x1(%edx),%ebx
    39e0:	83 fb 01             	cmp    $0x1,%ebx
    39e3:	0f 87 0f 01 00 00    	ja     3af8 <req_get_port_status+0x138>
    39e9:	83 ec 0c             	sub    $0xc,%esp
    39ec:	8b 45 08             	mov    0x8(%ebp),%eax
    39ef:	89 55 d4             	mov    %edx,-0x2c(%ebp)
    39f2:	50                   	push   %eax
    39f3:	e8 38 45 00 00       	call   7f30 <virthub_get_data>
    39f8:	83 c4 10             	add    $0x10,%esp
    39fb:	89 c6                	mov    %eax,%esi
    39fd:	85 c0                	test   %eax,%eax
    39ff:	8b 55 d4             	mov    -0x2c(%ebp),%edx
    3a02:	0f 84 07 01 00 00    	je     3b0f <req_get_port_status+0x14f>
    3a08:	66 83 7f 02 00       	cmpw   $0x0,0x2(%edi)
    3a0d:	0f 85 e5 00 00 00    	jne    3af8 <req_get_port_status+0x138>
    3a13:	83 ec 0c             	sub    $0xc,%esp
    3a16:	8b 7c 90 60          	mov    0x60(%eax,%edx,4),%edi
    3a1a:	57                   	push   %edi
    3a1b:	e8 e0 23 01 00       	call   15e00 <pio_read_16@plt>
    3a20:	31 c9                	xor    %ecx,%ecx
    3a22:	89 c2                	mov    %eax,%edx
    3a24:	89 c7                	mov    %eax,%edi
    3a26:	81 e2 ff ff 00 00    	and    $0xffff,%edx
    3a2c:	83 e7 01             	and    $0x1,%edi
    3a2f:	83 c4 10             	add    $0x10,%esp
    3a32:	a8 04                	test   $0x4,%al
    3a34:	89 55 d4             	mov    %edx,-0x2c(%ebp)
    3a37:	0f 95 c1             	setne  %cl
    3a3a:	01 c9                	add    %ecx,%ecx
    3a3c:	09 cf                	or     %ecx,%edi
    3a3e:	31 c9                	xor    %ecx,%ecx
    3a40:	f6 c4 10             	test   $0x10,%ah
    3a43:	0f 95 c1             	setne  %cl
    3a46:	c1 e1 02             	shl    $0x2,%ecx
    3a49:	31 d2                	xor    %edx,%edx
    3a4b:	09 f9                	or     %edi,%ecx
    3a4d:	f6 c4 02             	test   $0x2,%ah
    3a50:	0f 95 c2             	setne  %dl
    3a53:	89 d7                	mov    %edx,%edi
    3a55:	31 d2                	xor    %edx,%edx
    3a57:	c1 e7 04             	shl    $0x4,%edi
    3a5a:	09 cf                	or     %ecx,%edi
    3a5c:	88 c1                	mov    %al,%cl
    3a5e:	c0 e9 07             	shr    $0x7,%cl
    3a61:	81 e1 ff 00 00 00    	and    $0xff,%ecx
    3a67:	c1 e1 08             	shl    $0x8,%ecx
    3a6a:	09 f9                	or     %edi,%ecx
    3a6c:	f6 c4 01             	test   $0x1,%ah
    3a6f:	0f 95 c2             	setne  %dl
    3a72:	89 d7                	mov    %edx,%edi
    3a74:	c1 e7 09             	shl    $0x9,%edi
    3a77:	09 cf                	or     %ecx,%edi
    3a79:	31 c9                	xor    %ecx,%ecx
    3a7b:	a8 02                	test   $0x2,%al
    3a7d:	0f 95 c1             	setne  %cl
    3a80:	c1 e1 10             	shl    $0x10,%ecx
    3a83:	09 f9                	or     %edi,%ecx
    3a85:	a8 08                	test   $0x8,%al
    3a87:	0f 95 c0             	setne  %al
    3a8a:	25 ff 00 00 00       	and    $0xff,%eax
    3a8f:	c1 e0 11             	shl    $0x11,%eax
    3a92:	09 c8                	or     %ecx,%eax
    3a94:	80 7c 1e 6c 00       	cmpb   $0x0,0x6c(%esi,%ebx,1)
    3a99:	75 4d                	jne    3ae8 <req_get_port_status+0x128>
    3a9b:	89 45 e4             	mov    %eax,-0x1c(%ebp)
    3a9e:	b9 66 56 01 00       	mov    $0x15666,%ecx
    3aa3:	8b 55 d4             	mov    -0x2c(%ebp),%edx
    3aa6:	51                   	push   %ecx
    3aa7:	52                   	push   %edx
    3aa8:	50                   	push   %eax
    3aa9:	53                   	push   %ebx
    3aaa:	56                   	push   %esi
    3aab:	68 e4 2b 01 00       	push   $0x12be4
    3ab0:	6a 04                	push   $0x4
    3ab2:	6a ff                	push   $0xffffffff
    3ab4:	e8 67 21 01 00       	call   15c20 <log_msg@plt>
    3ab9:	83 c4 1c             	add    $0x1c,%esp
    3abc:	8d 45 e4             	lea    -0x1c(%ebp),%eax
    3abf:	8b 4d 10             	mov    0x10(%ebp),%ecx
    3ac2:	6a 04                	push   $0x4
    3ac4:	50                   	push   %eax
    3ac5:	51                   	push   %ecx
    3ac6:	e8 95 20 01 00       	call   15b60 <memcpy@plt>
    3acb:	8b 45 14             	mov    0x14(%ebp),%eax
    3ace:	83 c4 10             	add    $0x10,%esp
    3ad1:	c7 00 04 00 00 00    	movl   $0x4,(%eax)
    3ad7:	31 c0                	xor    %eax,%eax
    3ad9:	8d 65 f4             	lea    -0xc(%ebp),%esp
    3adc:	5b                   	pop    %ebx
    3add:	5e                   	pop    %esi
    3ade:	5f                   	pop    %edi
    3adf:	5d                   	pop    %ebp
    3ae0:	c3                   	ret    
    3ae1:	8d b4 26 00 00 00 00 	lea    0x0(%esi,%eiz,1),%esi
    3ae8:	0d 00 00 10 00       	or     $0x100000,%eax
    3aed:	b9 5a 27 01 00       	mov    $0x1275a,%ecx
    3af2:	89 45 e4             	mov    %eax,-0x1c(%ebp)
    3af5:	eb ac                	jmp    3aa3 <req_get_port_status+0xe3>
    3af7:	90                   	nop
    3af8:	8d 65 f4             	lea    -0xc(%ebp),%esp
    3afb:	b8 f2 ff ff ff       	mov    $0xfffffff2,%eax
    3b00:	5b                   	pop    %ebx
    3b01:	5e                   	pop    %esi
    3b02:	5f                   	pop    %edi
    3b03:	5d                   	pop    %ebp
    3b04:	c3                   	ret    
    3b05:	8d 76 00             	lea    0x0(%esi),%esi
    3b08:	b8 d3 fe ff ff       	mov    $0xfffffed3,%eax
    3b0d:	eb ca                	jmp    3ad9 <req_get_port_status+0x119>
    3b0f:	50                   	push   %eax
    3b10:	68 ec 00 00 00       	push   $0xec
    3b15:	68 4c 27 01 00       	push   $0x1274c
    3b1a:	68 56 27 01 00       	push   $0x12756
    3b1f:	e8 5c 21 01 00       	call   15c80 <assert_abort@plt>
    3b24:	8d b6 00 00 00 00    	lea    0x0(%esi),%esi
    3b2a:	8d bf 00 00 00 00    	lea    0x0(%edi),%edi

00003b30 <uhci_rh_init>:
    3b30:	55                   	push   %ebp
    3b31:	89 e5                	mov    %esp,%ebp
    3b33:	83 ec 08             	sub    $0x8,%esp
    3b36:	8b 45 08             	mov    0x8(%ebp),%eax
    3b39:	8b 55 0c             	mov    0xc(%ebp),%edx
    3b3c:	85 c0                	test   %eax,%eax
    3b3e:	74 2d                	je     3b6d <uhci_rh_init+0x3d>
    3b40:	89 50 64             	mov    %edx,0x64(%eax)
    3b43:	83 c2 02             	add    $0x2,%edx
    3b46:	89 50 68             	mov    %edx,0x68(%eax)
    3b49:	c6 40 6c 00          	movb   $0x0,0x6c(%eax)
    3b4d:	c6 40 6d 00          	movb   $0x0,0x6d(%eax)
    3b51:	8b 4d 10             	mov    0x10(%ebp),%ecx
    3b54:	52                   	push   %edx
    3b55:	6a 01                	push   $0x1
    3b57:	68 70 2d 01 00       	push   $0x12d70
    3b5c:	6a 00                	push   $0x0
    3b5e:	50                   	push   %eax
    3b5f:	68 80 82 01 00       	push   $0x18280
    3b64:	51                   	push   %ecx
    3b65:	50                   	push   %eax
    3b66:	e8 05 44 00 00       	call   7f70 <virthub_base_init>
    3b6b:	c9                   	leave  
    3b6c:	c3                   	ret    
    3b6d:	50                   	push   %eax
    3b6e:	6a 52                	push   $0x52
    3b70:	68 4c 27 01 00       	push   $0x1274c
    3b75:	68 5e 1d 01 00       	push   $0x11d5e
    3b7a:	e8 01 21 01 00       	call   15c80 <assert_abort@plt>
    3b7f:	90                   	nop

00003b80 <uhci_rh_schedule>:
    3b80:	55                   	push   %ebp
    3b81:	89 e5                	mov    %esp,%ebp
    3b83:	57                   	push   %edi
    3b84:	56                   	push   %esi
    3b85:	53                   	push   %ebx
    3b86:	83 ec 1c             	sub    $0x1c,%esp
    3b89:	8b 75 08             	mov    0x8(%ebp),%esi
    3b8c:	8b 5d 0c             	mov    0xc(%ebp),%ebx
    3b8f:	85 f6                	test   %esi,%esi
    3b91:	0f 84 54 01 00 00    	je     3ceb <uhci_rh_schedule+0x16b>
    3b97:	85 db                	test   %ebx,%ebx
    3b99:	0f 84 3a 01 00 00    	je     3cd9 <uhci_rh_schedule+0x159>
    3b9f:	8b 03                	mov    (%ebx),%eax
    3ba1:	8b 78 0c             	mov    0xc(%eax),%edi
    3ba4:	8d 43 24             	lea    0x24(%ebx),%eax
    3ba7:	89 45 e4             	mov    %eax,-0x1c(%ebp)
    3baa:	8d 43 18             	lea    0x18(%ebx),%eax
    3bad:	89 45 e0             	mov    %eax,-0x20(%ebp)
    3bb0:	8b 43 04             	mov    0x4(%ebx),%eax
    3bb3:	8b 4b 14             	mov    0x14(%ebx),%ecx
    3bb6:	8b 53 10             	mov    0x10(%ebx),%edx
    3bb9:	85 c0                	test   %eax,%eax
    3bbb:	74 6b                	je     3c28 <uhci_rh_schedule+0xa8>
    3bbd:	8b 43 08             	mov    0x8(%ebx),%eax
    3bc0:	85 c0                	test   %eax,%eax
    3bc2:	0f 85 d2 00 00 00    	jne    3c9a <uhci_rh_schedule+0x11a>
    3bc8:	8b 03                	mov    (%ebx),%eax
    3bca:	85 c0                	test   %eax,%eax
    3bcc:	74 52                	je     3c20 <uhci_rh_schedule+0xa0>
    3bce:	83 78 14 00          	cmpl   $0x0,0x14(%eax)
    3bd2:	74 4c                	je     3c20 <uhci_rh_schedule+0xa0>
    3bd4:	8b 40 10             	mov    0x10(%eax),%eax
    3bd7:	85 c0                	test   %eax,%eax
    3bd9:	0f 85 d0 00 00 00    	jne    3caf <uhci_rh_schedule+0x12f>
    3bdf:	83 ec 04             	sub    $0x4,%esp
    3be2:	ff 75 e4             	pushl  -0x1c(%ebp)
    3be5:	51                   	push   %ecx
    3be6:	52                   	push   %edx
    3be7:	8b 55 e0             	mov    -0x20(%ebp),%edx
    3bea:	52                   	push   %edx
    3beb:	50                   	push   %eax
    3bec:	57                   	push   %edi
    3bed:	56                   	push   %esi
    3bee:	e8 2d 45 00 00       	call   8120 <virthub_base_request>
    3bf3:	83 c4 20             	add    $0x20,%esp
    3bf6:	89 43 28             	mov    %eax,0x28(%ebx)
    3bf9:	3d d1 fe ff ff       	cmp    $0xfffffed1,%eax
    3bfe:	74 60                	je     3c60 <uhci_rh_schedule+0xe0>
    3c00:	50                   	push   %eax
    3c01:	8b 43 24             	mov    0x24(%ebx),%eax
    3c04:	50                   	push   %eax
    3c05:	6a 00                	push   $0x0
    3c07:	53                   	push   %ebx
    3c08:	e8 23 3f 00 00       	call   7b30 <usb_transfer_batch_finish_error>
    3c0d:	89 1c 24             	mov    %ebx,(%esp)
    3c10:	e8 7b 3e 00 00       	call   7a90 <usb_transfer_batch_destroy>
    3c15:	8d 65 f4             	lea    -0xc(%ebp),%esp
    3c18:	31 c0                	xor    %eax,%eax
    3c1a:	5b                   	pop    %ebx
    3c1b:	5e                   	pop    %esi
    3c1c:	5f                   	pop    %edi
    3c1d:	5d                   	pop    %ebp
    3c1e:	c3                   	ret    
    3c1f:	90                   	nop
    3c20:	31 c0                	xor    %eax,%eax
    3c22:	eb bb                	jmp    3bdf <uhci_rh_schedule+0x5f>
    3c24:	8d 74 26 00          	lea    0x0(%esi,%eiz,1),%esi
    3c28:	8b 43 08             	mov    0x8(%ebx),%eax
    3c2b:	85 c0                	test   %eax,%eax
    3c2d:	0f 84 91 00 00 00    	je     3cc4 <uhci_rh_schedule+0x144>
    3c33:	8b 03                	mov    (%ebx),%eax
    3c35:	85 c0                	test   %eax,%eax
    3c37:	74 57                	je     3c90 <uhci_rh_schedule+0x110>
    3c39:	83 78 14 00          	cmpl   $0x0,0x14(%eax)
    3c3d:	74 51                	je     3c90 <uhci_rh_schedule+0x110>
    3c3f:	8b 40 10             	mov    0x10(%eax),%eax
    3c42:	83 f8 01             	cmp    $0x1,%eax
    3c45:	74 98                	je     3bdf <uhci_rh_schedule+0x5f>
    3c47:	53                   	push   %ebx
    3c48:	68 90 00 00 00       	push   $0x90
    3c4d:	68 0c 25 01 00       	push   $0x1250c
    3c52:	68 e8 25 01 00       	push   $0x125e8
    3c57:	e8 24 20 01 00       	call   15c80 <assert_abort@plt>
    3c5c:	8d 74 26 00          	lea    0x0(%esi,%eiz,1),%esi
    3c60:	31 c0                	xor    %eax,%eax
    3c62:	83 ec 0c             	sub    $0xc,%esp
    3c65:	8a 46 0f             	mov    0xf(%esi),%al
    3c68:	8d 04 80             	lea    (%eax,%eax,4),%eax
    3c6b:	8d 04 80             	lea    (%eax,%eax,4),%eax
    3c6e:	8d 04 80             	lea    (%eax,%eax,4),%eax
    3c71:	c1 e0 03             	shl    $0x3,%eax
    3c74:	50                   	push   %eax
    3c75:	e8 36 22 01 00       	call   15eb0 <async_usleep@plt>
    3c7a:	8b 43 28             	mov    0x28(%ebx),%eax
    3c7d:	83 c4 10             	add    $0x10,%esp
    3c80:	3d d1 fe ff ff       	cmp    $0xfffffed1,%eax
    3c85:	0f 84 25 ff ff ff    	je     3bb0 <uhci_rh_schedule+0x30>
    3c8b:	e9 70 ff ff ff       	jmp    3c00 <uhci_rh_schedule+0x80>
    3c90:	b8 01 00 00 00       	mov    $0x1,%eax
    3c95:	e9 45 ff ff ff       	jmp    3bdf <uhci_rh_schedule+0x5f>
    3c9a:	50                   	push   %eax
    3c9b:	68 86 00 00 00       	push   $0x86
    3ca0:	68 0c 25 01 00       	push   $0x1250c
    3ca5:	68 4c 25 01 00       	push   $0x1254c
    3caa:	e8 d1 1f 01 00       	call   15c80 <assert_abort@plt>
    3caf:	52                   	push   %edx
    3cb0:	68 89 00 00 00       	push   $0x89
    3cb5:	68 0c 25 01 00       	push   $0x1250c
    3cba:	68 6c 25 01 00       	push   $0x1256c
    3cbf:	e8 bc 1f 01 00       	call   15c80 <assert_abort@plt>
    3cc4:	51                   	push   %ecx
    3cc5:	68 93 00 00 00       	push   $0x93
    3cca:	68 0c 25 01 00       	push   $0x1250c
    3ccf:	68 b9 3c 01 00       	push   $0x13cb9
    3cd4:	e8 a7 1f 01 00       	call   15c80 <assert_abort@plt>
    3cd9:	50                   	push   %eax
    3cda:	6a 67                	push   $0x67
    3cdc:	68 4c 27 01 00       	push   $0x1274c
    3ce1:	68 75 21 01 00       	push   $0x12175
    3ce6:	e8 95 1f 01 00       	call   15c80 <assert_abort@plt>
    3ceb:	50                   	push   %eax
    3cec:	6a 66                	push   $0x66
    3cee:	68 4c 27 01 00       	push   $0x1274c
    3cf3:	68 5e 1d 01 00       	push   $0x11d5e
    3cf8:	e8 83 1f 01 00       	call   15c80 <assert_abort@plt>
    3cfd:	66 90                	xchg   %ax,%ax
    3cff:	90                   	nop

00003d00 <td_status>:
    3d00:	55                   	push   %ebp
    3d01:	89 e5                	mov    %esp,%ebp
    3d03:	83 ec 08             	sub    $0x8,%esp
    3d06:	8b 45 08             	mov    0x8(%ebp),%eax
    3d09:	85 c0                	test   %eax,%eax
    3d0b:	74 6a                	je     3d77 <td_status+0x77>
    3d0d:	8b 50 04             	mov    0x4(%eax),%edx
    3d10:	81 e2 00 00 02 00    	and    $0x20000,%edx
    3d16:	75 40                	jne    3d58 <td_status+0x58>
    3d18:	8b 50 04             	mov    0x4(%eax),%edx
    3d1b:	81 e2 00 00 04 00    	and    $0x40000,%edx
    3d21:	75 3d                	jne    3d60 <td_status+0x60>
    3d23:	8b 50 04             	mov    0x4(%eax),%edx
    3d26:	81 e2 00 00 08 00    	and    $0x80000,%edx
    3d2c:	75 3a                	jne    3d68 <td_status+0x68>
    3d2e:	8b 50 04             	mov    0x4(%eax),%edx
    3d31:	81 e2 00 00 20 00    	and    $0x200000,%edx
    3d37:	75 37                	jne    3d70 <td_status+0x70>
    3d39:	8b 50 04             	mov    0x4(%eax),%edx
    3d3c:	81 e2 00 00 10 00    	and    $0x100000,%edx
    3d42:	75 14                	jne    3d58 <td_status+0x58>
    3d44:	8b 40 04             	mov    0x4(%eax),%eax
    3d47:	c9                   	leave  
    3d48:	c1 e0 09             	shl    $0x9,%eax
    3d4b:	c1 f8 1f             	sar    $0x1f,%eax
    3d4e:	25 d3 fe ff ff       	and    $0xfffffed3,%eax
    3d53:	c3                   	ret    
    3d54:	8d 74 26 00          	lea    0x0(%esi,%eiz,1),%esi
    3d58:	b8 f6 fe ff ff       	mov    $0xfffffef6,%eax
    3d5d:	c9                   	leave  
    3d5e:	c3                   	ret    
    3d5f:	90                   	nop
    3d60:	b8 d4 fe ff ff       	mov    $0xfffffed4,%eax
    3d65:	c9                   	leave  
    3d66:	c3                   	ret    
    3d67:	90                   	nop
    3d68:	b8 06 d5 ff ff       	mov    $0xffffd506,%eax
    3d6d:	c9                   	leave  
    3d6e:	c3                   	ret    
    3d6f:	90                   	nop
    3d70:	b8 f8 fe ff ff       	mov    $0xfffffef8,%eax
    3d75:	c9                   	leave  
    3d76:	c3                   	ret    
    3d77:	50                   	push   %eax
    3d78:	6a 7b                	push   $0x7b
    3d7a:	68 7c 2d 01 00       	push   $0x12d7c
    3d7f:	68 5e 1d 01 00       	push   $0x11d5e
    3d84:	e8 f7 1e 01 00       	call   15c80 <assert_abort@plt>
    3d89:	8d b4 26 00 00 00 00 	lea    0x0(%esi,%eiz,1),%esi

00003d90 <td_print_status>:
    3d90:	55                   	push   %ebp
    3d91:	89 e5                	mov    %esp,%ebp
    3d93:	57                   	push   %edi
    3d94:	56                   	push   %esi
    3d95:	53                   	push   %ebx
    3d96:	83 ec 3c             	sub    $0x3c,%esp
    3d99:	8b 5d 08             	mov    0x8(%ebp),%ebx
    3d9c:	85 db                	test   %ebx,%ebx
    3d9e:	0f 84 6f 02 00 00    	je     4013 <td_print_status+0x283>
    3da4:	8b 43 04             	mov    0x4(%ebx),%eax
    3da7:	8b 53 04             	mov    0x4(%ebx),%edx
    3daa:	42                   	inc    %edx
    3dab:	c7 45 e4 72 2e 01 00 	movl   $0x12e72,-0x1c(%ebp)
    3db2:	81 e2 ff 07 00 00    	and    $0x7ff,%edx
    3db8:	a9 00 00 01 00       	test   $0x10000,%eax
    3dbd:	89 55 c0             	mov    %edx,-0x40(%ebp)
    3dc0:	0f 84 32 02 00 00    	je     3ff8 <td_print_status+0x268>
    3dc6:	c7 45 e0 7d 2e 01 00 	movl   $0x12e7d,-0x20(%ebp)
    3dcd:	a9 00 00 02 00       	test   $0x20000,%eax
    3dd2:	0f 84 00 02 00 00    	je     3fd8 <td_print_status+0x248>
    3dd8:	c7 45 dc 89 2e 01 00 	movl   $0x12e89,-0x24(%ebp)
    3ddf:	a9 00 00 04 00       	test   $0x40000,%eax
    3de4:	0f 84 ce 01 00 00    	je     3fb8 <td_print_status+0x228>
    3dea:	c7 45 d8 97 2e 01 00 	movl   $0x12e97,-0x28(%ebp)
    3df1:	a9 00 00 08 00       	test   $0x80000,%eax
    3df6:	0f 84 9c 01 00 00    	je     3f98 <td_print_status+0x208>
    3dfc:	c7 45 d4 9d 2e 01 00 	movl   $0x12e9d,-0x2c(%ebp)
    3e03:	a9 00 00 10 00       	test   $0x100000,%eax
    3e08:	0f 84 6a 01 00 00    	je     3f78 <td_print_status+0x1e8>
    3e0e:	c7 45 d0 a6 2e 01 00 	movl   $0x12ea6,-0x30(%ebp)
    3e15:	a9 00 00 20 00       	test   $0x200000,%eax
    3e1a:	0f 84 38 01 00 00    	je     3f58 <td_print_status+0x1c8>
    3e20:	c7 45 cc af 2e 01 00 	movl   $0x12eaf,-0x34(%ebp)
    3e27:	a9 00 00 40 00       	test   $0x400000,%eax
    3e2c:	0f 84 06 01 00 00    	je     3f38 <td_print_status+0x1a8>
    3e32:	c7 45 c8 b9 2e 01 00 	movl   $0x12eb9,-0x38(%ebp)
    3e39:	a9 00 00 80 00       	test   $0x800000,%eax
    3e3e:	0f 84 d4 00 00 00    	je     3f18 <td_print_status+0x188>
    3e44:	bf c2 2e 01 00       	mov    $0x12ec2,%edi
    3e49:	a9 00 00 00 01       	test   $0x1000000,%eax
    3e4e:	0f 84 ac 00 00 00    	je     3f00 <td_print_status+0x170>
    3e54:	be c8 2e 01 00       	mov    $0x12ec8,%esi
    3e59:	a9 00 00 00 02       	test   $0x2000000,%eax
    3e5e:	0f 84 7c 00 00 00    	je     3ee0 <td_print_status+0x150>
    3e64:	c7 45 c4 d6 2e 01 00 	movl   $0x12ed6,-0x3c(%ebp)
    3e6b:	a9 00 00 00 04       	test   $0x4000000,%eax
    3e70:	74 5e                	je     3ed0 <td_print_status+0x140>
    3e72:	89 c2                	mov    %eax,%edx
    3e74:	b9 e2 2e 01 00       	mov    $0x12ee2,%ecx
    3e79:	c1 ea 1b             	shr    $0x1b,%edx
    3e7c:	83 e2 03             	and    $0x3,%edx
    3e7f:	a9 00 00 00 20       	test   $0x20000000,%eax
    3e84:	75 05                	jne    3e8b <td_print_status+0xfb>
    3e86:	b9 66 56 01 00       	mov    $0x15666,%ecx
    3e8b:	83 ec 04             	sub    $0x4,%esp
    3e8e:	8b 43 04             	mov    0x4(%ebx),%eax
    3e91:	ff 75 c0             	pushl  -0x40(%ebp)
    3e94:	ff 75 e4             	pushl  -0x1c(%ebp)
    3e97:	ff 75 e0             	pushl  -0x20(%ebp)
    3e9a:	ff 75 dc             	pushl  -0x24(%ebp)
    3e9d:	ff 75 d8             	pushl  -0x28(%ebp)
    3ea0:	ff 75 d4             	pushl  -0x2c(%ebp)
    3ea3:	ff 75 d0             	pushl  -0x30(%ebp)
    3ea6:	ff 75 cc             	pushl  -0x34(%ebp)
    3ea9:	ff 75 c8             	pushl  -0x38(%ebp)
    3eac:	57                   	push   %edi
    3ead:	56                   	push   %esi
    3eae:	8b 75 c4             	mov    -0x3c(%ebp),%esi
    3eb1:	56                   	push   %esi
    3eb2:	52                   	push   %edx
    3eb3:	51                   	push   %ecx
    3eb4:	50                   	push   %eax
    3eb5:	53                   	push   %ebx
    3eb6:	68 9c 2d 01 00       	push   $0x12d9c
    3ebb:	6a 05                	push   $0x5
    3ebd:	6a ff                	push   $0xffffffff
    3ebf:	e8 5c 1d 01 00       	call   15c20 <log_msg@plt>
    3ec4:	83 c4 50             	add    $0x50,%esp
    3ec7:	8d 65 f4             	lea    -0xc(%ebp),%esp
    3eca:	5b                   	pop    %ebx
    3ecb:	5e                   	pop    %esi
    3ecc:	5f                   	pop    %edi
    3ecd:	5d                   	pop    %ebp
    3ece:	c3                   	ret    
    3ecf:	90                   	nop
    3ed0:	c7 45 c4 66 56 01 00 	movl   $0x15666,-0x3c(%ebp)
    3ed7:	eb 99                	jmp    3e72 <td_print_status+0xe2>
    3ed9:	8d b4 26 00 00 00 00 	lea    0x0(%esi,%eiz,1),%esi
    3ee0:	be 66 56 01 00       	mov    $0x15666,%esi
    3ee5:	c7 45 c4 d6 2e 01 00 	movl   $0x12ed6,-0x3c(%ebp)
    3eec:	a9 00 00 00 04       	test   $0x4000000,%eax
    3ef1:	0f 85 7b ff ff ff    	jne    3e72 <td_print_status+0xe2>
    3ef7:	eb d7                	jmp    3ed0 <td_print_status+0x140>
    3ef9:	8d b4 26 00 00 00 00 	lea    0x0(%esi,%eiz,1),%esi
    3f00:	bf 66 56 01 00       	mov    $0x15666,%edi
    3f05:	be c8 2e 01 00       	mov    $0x12ec8,%esi
    3f0a:	a9 00 00 00 02       	test   $0x2000000,%eax
    3f0f:	0f 85 4f ff ff ff    	jne    3e64 <td_print_status+0xd4>
    3f15:	eb c9                	jmp    3ee0 <td_print_status+0x150>
    3f17:	90                   	nop
    3f18:	c7 45 c8 66 56 01 00 	movl   $0x15666,-0x38(%ebp)
    3f1f:	bf c2 2e 01 00       	mov    $0x12ec2,%edi
    3f24:	a9 00 00 00 01       	test   $0x1000000,%eax
    3f29:	0f 85 25 ff ff ff    	jne    3e54 <td_print_status+0xc4>
    3f2f:	eb cf                	jmp    3f00 <td_print_status+0x170>
    3f31:	8d b4 26 00 00 00 00 	lea    0x0(%esi,%eiz,1),%esi
    3f38:	c7 45 cc 66 56 01 00 	movl   $0x15666,-0x34(%ebp)
    3f3f:	c7 45 c8 b9 2e 01 00 	movl   $0x12eb9,-0x38(%ebp)
    3f46:	a9 00 00 80 00       	test   $0x800000,%eax
    3f4b:	0f 85 f3 fe ff ff    	jne    3e44 <td_print_status+0xb4>
    3f51:	eb c5                	jmp    3f18 <td_print_status+0x188>
    3f53:	90                   	nop
    3f54:	8d 74 26 00          	lea    0x0(%esi,%eiz,1),%esi
    3f58:	c7 45 d0 66 56 01 00 	movl   $0x15666,-0x30(%ebp)
    3f5f:	c7 45 cc af 2e 01 00 	movl   $0x12eaf,-0x34(%ebp)
    3f66:	a9 00 00 40 00       	test   $0x400000,%eax
    3f6b:	0f 85 c1 fe ff ff    	jne    3e32 <td_print_status+0xa2>
    3f71:	eb c5                	jmp    3f38 <td_print_status+0x1a8>
    3f73:	90                   	nop
    3f74:	8d 74 26 00          	lea    0x0(%esi,%eiz,1),%esi
    3f78:	c7 45 d4 66 56 01 00 	movl   $0x15666,-0x2c(%ebp)
    3f7f:	c7 45 d0 a6 2e 01 00 	movl   $0x12ea6,-0x30(%ebp)
    3f86:	a9 00 00 20 00       	test   $0x200000,%eax
    3f8b:	0f 85 8f fe ff ff    	jne    3e20 <td_print_status+0x90>
    3f91:	eb c5                	jmp    3f58 <td_print_status+0x1c8>
    3f93:	90                   	nop
    3f94:	8d 74 26 00          	lea    0x0(%esi,%eiz,1),%esi
    3f98:	c7 45 d8 66 56 01 00 	movl   $0x15666,-0x28(%ebp)
    3f9f:	c7 45 d4 9d 2e 01 00 	movl   $0x12e9d,-0x2c(%ebp)
    3fa6:	a9 00 00 10 00       	test   $0x100000,%eax
    3fab:	0f 85 5d fe ff ff    	jne    3e0e <td_print_status+0x7e>
    3fb1:	eb c5                	jmp    3f78 <td_print_status+0x1e8>
    3fb3:	90                   	nop
    3fb4:	8d 74 26 00          	lea    0x0(%esi,%eiz,1),%esi
    3fb8:	c7 45 dc 66 56 01 00 	movl   $0x15666,-0x24(%ebp)
    3fbf:	c7 45 d8 97 2e 01 00 	movl   $0x12e97,-0x28(%ebp)
    3fc6:	a9 00 00 08 00       	test   $0x80000,%eax
    3fcb:	0f 85 2b fe ff ff    	jne    3dfc <td_print_status+0x6c>
    3fd1:	eb c5                	jmp    3f98 <td_print_status+0x208>
    3fd3:	90                   	nop
    3fd4:	8d 74 26 00          	lea    0x0(%esi,%eiz,1),%esi
    3fd8:	c7 45 e0 66 56 01 00 	movl   $0x15666,-0x20(%ebp)
    3fdf:	c7 45 dc 89 2e 01 00 	movl   $0x12e89,-0x24(%ebp)
    3fe6:	a9 00 00 04 00       	test   $0x40000,%eax
    3feb:	0f 85 f9 fd ff ff    	jne    3dea <td_print_status+0x5a>
    3ff1:	eb c5                	jmp    3fb8 <td_print_status+0x228>
    3ff3:	90                   	nop
    3ff4:	8d 74 26 00          	lea    0x0(%esi,%eiz,1),%esi
    3ff8:	c7 45 e4 66 56 01 00 	movl   $0x15666,-0x1c(%ebp)
    3fff:	c7 45 e0 7d 2e 01 00 	movl   $0x12e7d,-0x20(%ebp)
    4006:	a9 00 00 02 00       	test   $0x20000,%eax
    400b:	0f 85 c7 fd ff ff    	jne    3dd8 <td_print_status+0x48>
    4011:	eb c5                	jmp    3fd8 <td_print_status+0x248>
    4013:	57                   	push   %edi
    4014:	68 a0 00 00 00       	push   $0xa0
    4019:	68 7c 2d 01 00       	push   $0x12d7c
    401e:	68 5e 1d 01 00       	push   $0x11d5e
    4023:	e8 58 1c 01 00       	call   15c80 <assert_abort@plt>
    4028:	90                   	nop
    4029:	8d b4 26 00 00 00 00 	lea    0x0(%esi,%eiz,1),%esi

00004030 <td_init>:
    4030:	55                   	push   %ebp
    4031:	89 e5                	mov    %esp,%ebp
    4033:	57                   	push   %edi
    4034:	56                   	push   %esi
    4035:	53                   	push   %ebx
    4036:	83 ec 2c             	sub    $0x2c,%esp
    4039:	8b 5d 08             	mov    0x8(%ebp),%ebx
    403c:	8b 45 14             	mov    0x14(%ebp),%eax
    403f:	89 45 d4             	mov    %eax,-0x2c(%ebp)
    4042:	8b 75 18             	mov    0x18(%ebp),%esi
    4045:	8b 7d 1c             	mov    0x1c(%ebp),%edi
    4048:	85 db                	test   %ebx,%ebx
    404a:	0f 84 b4 01 00 00    	je     4204 <td_init+0x1d4>
    4050:	81 7d 10 ff 03 00 00 	cmpl   $0x3ff,0x10(%ebp)
    4057:	0f 87 95 01 00 00    	ja     41f2 <td_init+0x1c2>
    405d:	83 7d 24 2d          	cmpl   $0x2d,0x24(%ebp)
    4061:	0f 95 c2             	setne  %dl
    4064:	83 7d 24 69          	cmpl   $0x69,0x24(%ebp)
    4068:	0f 95 c0             	setne  %al
    406b:	84 c2                	test   %al,%dl
    406d:	74 0d                	je     407c <td_init+0x4c>
    406f:	81 7d 24 e1 00 00 00 	cmpl   $0xe1,0x24(%ebp)
    4076:	0f 85 64 01 00 00    	jne    41e0 <td_init+0x1b0>
    407c:	8d 55 e4             	lea    -0x1c(%ebp),%edx
    407f:	50                   	push   %eax
    4080:	50                   	push   %eax
    4081:	8b 45 2c             	mov    0x2c(%ebp),%eax
    4084:	52                   	push   %edx
    4085:	89 55 d0             	mov    %edx,-0x30(%ebp)
    4088:	50                   	push   %eax
    4089:	e8 42 1d 01 00       	call   15dd0 <as_get_physical_mapping@plt>
    408e:	83 c4 10             	add    $0x10,%esp
    4091:	8b 55 d0             	mov    -0x30(%ebp),%edx
    4094:	85 c0                	test   %eax,%eax
    4096:	0f 85 fc 00 00 00    	jne    4198 <td_init+0x168>
    409c:	8b 45 e4             	mov    -0x1c(%ebp),%eax
    409f:	83 e0 f0             	and    $0xfffffff0,%eax
    40a2:	3b 45 e4             	cmp    -0x1c(%ebp),%eax
    40a5:	0f 85 6b 01 00 00    	jne    4216 <td_init+0x1e6>
    40ab:	85 c0                	test   %eax,%eax
    40ad:	0f 84 e5 00 00 00    	je     4198 <td_init+0x168>
    40b3:	83 c8 04             	or     $0x4,%eax
    40b6:	89 03                	mov    %eax,(%ebx)
    40b8:	8b 45 0c             	mov    0xc(%ebp),%eax
    40bb:	c1 e0 1b             	shl    $0x1b,%eax
    40be:	89 f9                	mov    %edi,%ecx
    40c0:	25 00 00 00 18       	and    $0x18000000,%eax
    40c5:	84 c9                	test   %cl,%cl
    40c7:	0f 95 c1             	setne  %cl
    40ca:	81 e1 ff 00 00 00    	and    $0xff,%ecx
    40d0:	c1 e1 1a             	shl    $0x1a,%ecx
    40d3:	09 c8                	or     %ecx,%eax
    40d5:	89 f1                	mov    %esi,%ecx
    40d7:	84 c9                	test   %cl,%cl
    40d9:	0f 85 c9 00 00 00    	jne    41a8 <td_init+0x178>
    40df:	0d 00 00 80 00       	or     $0x800000,%eax
    40e4:	89 43 04             	mov    %eax,0x4(%ebx)
    40e7:	83 7d 24 69          	cmpl   $0x69,0x24(%ebp)
    40eb:	75 0b                	jne    40f8 <td_init+0xc8>
    40ed:	8b 43 04             	mov    0x4(%ebx),%eax
    40f0:	0d 00 00 00 20       	or     $0x20000000,%eax
    40f5:	89 43 04             	mov    %eax,0x4(%ebx)
    40f8:	8b 45 10             	mov    0x10(%ebp),%eax
    40fb:	31 c9                	xor    %ecx,%ecx
    40fd:	8d 70 ff             	lea    -0x1(%eax),%esi
    4100:	8b 45 20             	mov    0x20(%ebp),%eax
    4103:	c1 e6 15             	shl    $0x15,%esi
    4106:	80 7d d4 00          	cmpb   $0x0,-0x2c(%ebp)
    410a:	0f 95 c1             	setne  %cl
    410d:	c1 e0 08             	shl    $0x8,%eax
    4110:	c1 e1 13             	shl    $0x13,%ecx
    4113:	25 00 7f 00 00       	and    $0x7f00,%eax
    4118:	89 c7                	mov    %eax,%edi
    411a:	8b 45 20             	mov    0x20(%ebp),%eax
    411d:	d1 e8                	shr    %eax
    411f:	25 00 80 07 00       	and    $0x78000,%eax
    4124:	09 f8                	or     %edi,%eax
    4126:	0f b6 7d 24          	movzbl 0x24(%ebp),%edi
    412a:	81 e7 ff 00 00 00    	and    $0xff,%edi
    4130:	09 f8                	or     %edi,%eax
    4132:	09 f0                	or     %esi,%eax
    4134:	09 c1                	or     %eax,%ecx
    4136:	89 4b 08             	mov    %ecx,0x8(%ebx)
    4139:	50                   	push   %eax
    413a:	50                   	push   %eax
    413b:	8b 45 28             	mov    0x28(%ebp),%eax
    413e:	52                   	push   %edx
    413f:	50                   	push   %eax
    4140:	e8 8b 1c 01 00       	call   15dd0 <as_get_physical_mapping@plt>
    4145:	83 c4 10             	add    $0x10,%esp
    4148:	31 d2                	xor    %edx,%edx
    414a:	85 c0                	test   %eax,%eax
    414c:	75 03                	jne    4151 <td_init+0x121>
    414e:	8b 55 e4             	mov    -0x1c(%ebp),%edx
    4151:	89 53 0c             	mov    %edx,0xc(%ebx)
    4154:	83 ec 0c             	sub    $0xc,%esp
    4157:	8b 4b 0c             	mov    0xc(%ebx),%ecx
    415a:	8b 75 28             	mov    0x28(%ebp),%esi
    415d:	8b 53 08             	mov    0x8(%ebx),%edx
    4160:	8b 43 04             	mov    0x4(%ebx),%eax
    4163:	56                   	push   %esi
    4164:	51                   	push   %ecx
    4165:	52                   	push   %edx
    4166:	50                   	push   %eax
    4167:	8b 3b                	mov    (%ebx),%edi
    4169:	57                   	push   %edi
    416a:	53                   	push   %ebx
    416b:	68 50 2e 01 00       	push   $0x12e50
    4170:	6a 05                	push   $0x5
    4172:	6a ff                	push   $0xffffffff
    4174:	e8 a7 1a 01 00       	call   15c20 <log_msg@plt>
    4179:	83 c4 24             	add    $0x24,%esp
    417c:	53                   	push   %ebx
    417d:	e8 0e fc ff ff       	call   3d90 <td_print_status>
    4182:	83 c4 10             	add    $0x10,%esp
    4185:	83 7d 24 2d          	cmpl   $0x2d,0x24(%ebp)
    4189:	74 2d                	je     41b8 <td_init+0x188>
    418b:	8d 65 f4             	lea    -0xc(%ebp),%esp
    418e:	5b                   	pop    %ebx
    418f:	5e                   	pop    %esi
    4190:	5f                   	pop    %edi
    4191:	5d                   	pop    %ebp
    4192:	c3                   	ret    
    4193:	90                   	nop
    4194:	8d 74 26 00          	lea    0x0(%esi,%eiz,1),%esi
    4198:	b8 05 00 00 00       	mov    $0x5,%eax
    419d:	e9 14 ff ff ff       	jmp    40b6 <td_init+0x86>
    41a2:	8d b6 00 00 00 00    	lea    0x0(%esi),%esi
    41a8:	0d 00 00 80 02       	or     $0x2800000,%eax
    41ad:	89 43 04             	mov    %eax,0x4(%ebx)
    41b0:	e9 43 ff ff ff       	jmp    40f8 <td_init+0xc8>
    41b5:	8d 76 00             	lea    0x0(%esi),%esi
    41b8:	8b 55 28             	mov    0x28(%ebp),%edx
    41bb:	50                   	push   %eax
    41bc:	6a 08                	push   $0x8
    41be:	6a 08                	push   $0x8
    41c0:	52                   	push   %edx
    41c1:	e8 fa 45 00 00       	call   87c0 <usb_debug_str_buffer>
    41c6:	50                   	push   %eax
    41c7:	68 f4 2e 01 00       	push   $0x12ef4
    41cc:	6a 05                	push   $0x5
    41ce:	6a ff                	push   $0xffffffff
    41d0:	e8 4b 1a 01 00       	call   15c20 <log_msg@plt>
    41d5:	83 c4 20             	add    $0x20,%esp
    41d8:	8d 65 f4             	lea    -0xc(%ebp),%esp
    41db:	5b                   	pop    %ebx
    41dc:	5e                   	pop    %esi
    41dd:	5f                   	pop    %edi
    41de:	5d                   	pop    %ebp
    41df:	c3                   	ret    
    41e0:	50                   	push   %eax
    41e1:	6a 4b                	push   $0x4b
    41e3:	68 7c 2d 01 00       	push   $0x12d7c
    41e8:	68 d4 2d 01 00       	push   $0x12dd4
    41ed:	e8 8e 1a 01 00       	call   15c80 <assert_abort@plt>
    41f2:	52                   	push   %edx
    41f3:	6a 49                	push   $0x49
    41f5:	68 7c 2d 01 00       	push   $0x12d7c
    41fa:	68 e8 2e 01 00       	push   $0x12ee8
    41ff:	e8 7c 1a 01 00       	call   15c80 <assert_abort@plt>
    4204:	51                   	push   %ecx
    4205:	6a 48                	push   $0x48
    4207:	68 7c 2d 01 00       	push   $0x12d7c
    420c:	68 5e 1d 01 00       	push   $0x11d5e
    4211:	e8 6a 1a 01 00       	call   15c80 <assert_abort@plt>
    4216:	50                   	push   %eax
    4217:	6a 4e                	push   $0x4e
    4219:	68 7c 2d 01 00       	push   $0x12d7c
    421e:	68 1c 2e 01 00       	push   $0x12e1c
    4223:	e8 58 1a 01 00       	call   15c80 <assert_abort@plt>
    4228:	66 90                	xchg   %ax,%ax
    422a:	66 90                	xchg   %ax,%ax
    422c:	66 90                	xchg   %ax,%ax
    422e:	66 90                	xchg   %ax,%ax

00004230 <get_my_device_handle>:
    4230:	55                   	push   %ebp
    4231:	89 e5                	mov    %esp,%ebp
    4233:	53                   	push   %ebx
    4234:	52                   	push   %edx
    4235:	8b 45 08             	mov    0x8(%ebp),%eax
    4238:	8b 5d 0c             	mov    0xc(%ebp),%ebx
    423b:	85 c0                	test   %eax,%eax
    423d:	74 19                	je     4258 <get_my_device_handle+0x28>
    423f:	85 db                	test   %ebx,%ebx
    4241:	74 0e                	je     4251 <get_my_device_handle+0x21>
    4243:	83 ec 0c             	sub    $0xc,%esp
    4246:	50                   	push   %eax
    4247:	e8 14 51 00 00       	call   9360 <ddf_fun_get_handle>
    424c:	83 c4 10             	add    $0x10,%esp
    424f:	89 03                	mov    %eax,(%ebx)
    4251:	31 c0                	xor    %eax,%eax
    4253:	8b 5d fc             	mov    -0x4(%ebp),%ebx
    4256:	c9                   	leave  
    4257:	c3                   	ret    
    4258:	50                   	push   %eax
    4259:	68 d3 00 00 00       	push   $0xd3
    425e:	68 06 2f 01 00       	push   $0x12f06
    4263:	68 18 2f 01 00       	push   $0x12f18
    4268:	e8 13 1a 01 00       	call   15c80 <assert_abort@plt>
    426d:	8d 76 00             	lea    0x0(%esi),%esi

00004270 <interrupt_polling>:
    4270:	55                   	push   %ebp
    4271:	89 e5                	mov    %esp,%ebp
    4273:	56                   	push   %esi
    4274:	53                   	push   %ebx
    4275:	83 ec 10             	sub    $0x10,%esp
    4278:	8b 5d 08             	mov    0x8(%ebp),%ebx
    427b:	85 db                	test   %ebx,%ebx
    427d:	74 67                	je     42e6 <interrupt_polling+0x76>
    427f:	8b 83 34 08 00 00    	mov    0x834(%ebx),%eax
    4285:	85 c0                	test   %eax,%eax
    4287:	74 56                	je     42df <interrupt_polling+0x6f>
    4289:	8b 93 30 08 00 00    	mov    0x830(%ebx),%edx
    428f:	85 d2                	test   %edx,%edx
    4291:	74 4c                	je     42df <interrupt_polling+0x6f>
    4293:	c7 45 f4 00 00 00 00 	movl   $0x0,-0xc(%ebp)
    429a:	8d 75 f4             	lea    -0xc(%ebp),%esi
    429d:	eb 2a                	jmp    42c9 <interrupt_polling+0x59>
    429f:	90                   	nop
    42a0:	8b 45 f4             	mov    -0xc(%ebp),%eax
    42a3:	51                   	push   %ecx
    42a4:	51                   	push   %ecx
    42a5:	50                   	push   %eax
    42a6:	53                   	push   %ebx
    42a7:	ff 93 30 08 00 00    	call   *0x830(%ebx)
    42ad:	c7 04 24 10 27 00 00 	movl   $0x2710,(%esp)
    42b4:	c7 45 f4 00 00 00 00 	movl   $0x0,-0xc(%ebp)
    42bb:	e8 f0 1b 01 00       	call   15eb0 <async_usleep@plt>
    42c0:	8b 83 34 08 00 00    	mov    0x834(%ebx),%eax
    42c6:	83 c4 10             	add    $0x10,%esp
    42c9:	52                   	push   %edx
    42ca:	52                   	push   %edx
    42cb:	56                   	push   %esi
    42cc:	53                   	push   %ebx
    42cd:	ff d0                	call   *%eax
    42cf:	83 c4 10             	add    $0x10,%esp
    42d2:	85 c0                	test   %eax,%eax
    42d4:	74 ca                	je     42a0 <interrupt_polling+0x30>
    42d6:	31 c0                	xor    %eax,%eax
    42d8:	8d 65 f8             	lea    -0x8(%ebp),%esp
    42db:	5b                   	pop    %ebx
    42dc:	5e                   	pop    %esi
    42dd:	5d                   	pop    %ebp
    42de:	c3                   	ret    
    42df:	b8 f5 ff ff ff       	mov    $0xfffffff5,%eax
    42e4:	eb f2                	jmp    42d8 <interrupt_polling+0x68>
    42e6:	51                   	push   %ecx
    42e7:	68 2d 03 00 00       	push   $0x32d
    42ec:	68 06 2f 01 00       	push   $0x12f06
    42f1:	68 90 1d 01 00       	push   $0x11d90
    42f6:	e8 85 19 01 00       	call   15c80 <assert_abort@plt>
    42fb:	90                   	nop
    42fc:	8d 74 26 00          	lea    0x0(%esi,%eiz,1),%esi

00004300 <clean_match_ids>:
    4300:	55                   	push   %ebp
    4301:	89 e5                	mov    %esp,%ebp
    4303:	56                   	push   %esi
    4304:	53                   	push   %ebx
    4305:	8b 58 04             	mov    0x4(%eax),%ebx
    4308:	39 d8                	cmp    %ebx,%eax
    430a:	74 4b                	je     4357 <clean_match_ids+0x57>
    430c:	89 c6                	mov    %eax,%esi
    430e:	66 90                	xchg   %ax,%ax
    4310:	8b 13                	mov    (%ebx),%edx
    4312:	85 d2                	test   %edx,%edx
    4314:	74 0e                	je     4324 <clean_match_ids+0x24>
    4316:	8b 43 04             	mov    0x4(%ebx),%eax
    4319:	85 c0                	test   %eax,%eax
    431b:	74 07                	je     4324 <clean_match_ids+0x24>
    431d:	89 10                	mov    %edx,(%eax)
    431f:	8b 13                	mov    (%ebx),%edx
    4321:	89 42 04             	mov    %eax,0x4(%edx)
    4324:	8b 43 08             	mov    0x8(%ebx),%eax
    4327:	c7 03 00 00 00 00    	movl   $0x0,(%ebx)
    432d:	c7 43 04 00 00 00 00 	movl   $0x0,0x4(%ebx)
    4334:	85 c0                	test   %eax,%eax
    4336:	74 0c                	je     4344 <clean_match_ids+0x44>
    4338:	83 ec 0c             	sub    $0xc,%esp
    433b:	50                   	push   %eax
    433c:	e8 0f 1d 01 00       	call   16050 <free@plt>
    4341:	83 c4 10             	add    $0x10,%esp
    4344:	83 ec 0c             	sub    $0xc,%esp
    4347:	53                   	push   %ebx
    4348:	e8 03 1d 01 00       	call   16050 <free@plt>
    434d:	8b 5e 04             	mov    0x4(%esi),%ebx
    4350:	83 c4 10             	add    $0x10,%esp
    4353:	39 de                	cmp    %ebx,%esi
    4355:	75 b9                	jne    4310 <clean_match_ids+0x10>
    4357:	8d 65 f8             	lea    -0x8(%ebp),%esp
    435a:	5b                   	pop    %ebx
    435b:	5e                   	pop    %esi
    435c:	5d                   	pop    %ebp
    435d:	c3                   	ret    
    435e:	66 90                	xchg   %ax,%ax

00004360 <ddf_hcd_gen_irq_handler>:
    4360:	55                   	push   %ebp
    4361:	89 e5                	mov    %esp,%ebp
    4363:	53                   	push   %ebx
    4364:	51                   	push   %ecx
    4365:	8b 45 10             	mov    0x10(%ebp),%eax
    4368:	8b 5d 0c             	mov    0xc(%ebp),%ebx
    436b:	85 c0                	test   %eax,%eax
    436d:	74 61                	je     43d0 <ddf_hcd_gen_irq_handler+0x70>
    436f:	83 ec 0c             	sub    $0xc,%esp
    4372:	50                   	push   %eax
    4373:	e8 08 4f 00 00       	call   9280 <ddf_dev_data_get>
    4378:	83 c4 10             	add    $0x10,%esp
    437b:	85 c0                	test   %eax,%eax
    437d:	74 21                	je     43a0 <ddf_hcd_gen_irq_handler+0x40>
    437f:	8d 50 04             	lea    0x4(%eax),%edx
    4382:	8b 80 34 08 00 00    	mov    0x834(%eax),%eax
    4388:	85 c0                	test   %eax,%eax
    438a:	74 26                	je     43b2 <ddf_hcd_gen_irq_handler+0x52>
    438c:	8b 4b 04             	mov    0x4(%ebx),%ecx
    438f:	89 55 08             	mov    %edx,0x8(%ebp)
    4392:	89 4d 0c             	mov    %ecx,0xc(%ebp)
    4395:	8b 5d fc             	mov    -0x4(%ebp),%ebx
    4398:	c9                   	leave  
    4399:	ff e0                	jmp    *%eax
    439b:	90                   	nop
    439c:	8d 74 26 00          	lea    0x0(%esi,%eiz,1),%esi
    43a0:	50                   	push   %eax
    43a1:	68 1c 2f 01 00       	push   $0x12f1c
    43a6:	6a 01                	push   $0x1
    43a8:	6a ff                	push   $0xffffffff
    43aa:	e8 71 18 01 00       	call   15c20 <log_msg@plt>
    43af:	83 c4 10             	add    $0x10,%esp
    43b2:	8b 5d fc             	mov    -0x4(%ebp),%ebx
    43b5:	c7 45 10 70 30 01 00 	movl   $0x13070,0x10(%ebp)
    43bc:	c7 45 0c 01 00 00 00 	movl   $0x1,0xc(%ebp)
    43c3:	c7 45 08 ff ff ff ff 	movl   $0xffffffff,0x8(%ebp)
    43ca:	c9                   	leave  
    43cb:	e9 50 18 01 00       	jmp    15c20 <log_msg@plt>
    43d0:	52                   	push   %edx
    43d1:	68 20 03 00 00       	push   $0x320
    43d6:	68 06 2f 01 00       	push   $0x12f06
    43db:	68 44 2f 01 00       	push   $0x12f44
    43e0:	e8 9b 18 01 00       	call   15c80 <assert_abort@plt>
    43e5:	8d 74 26 00          	lea    0x0(%esi,%eiz,1),%esi
    43e9:	8d bc 27 00 00 00 00 	lea    0x0(%edi,%eiz,1),%edi

000043f0 <device_remove>:
    43f0:	55                   	push   %ebp
    43f1:	89 e5                	mov    %esp,%ebp
    43f3:	57                   	push   %edi
    43f4:	56                   	push   %esi
    43f5:	53                   	push   %ebx
    43f6:	83 ec 1c             	sub    $0x1c,%esp
    43f9:	8b 45 08             	mov    0x8(%ebp),%eax
    43fc:	8b 75 0c             	mov    0xc(%ebp),%esi
    43ff:	85 c0                	test   %eax,%eax
    4401:	0f 84 b1 01 00 00    	je     45b8 <device_remove+0x1c8>
    4407:	83 ec 0c             	sub    $0xc,%esp
    440a:	8b 4d 08             	mov    0x8(%ebp),%ecx
    440d:	51                   	push   %ecx
    440e:	e8 3d 4f 00 00       	call   9350 <ddf_fun_get_dev>
    4413:	89 c7                	mov    %eax,%edi
    4415:	8b 45 08             	mov    0x8(%ebp),%eax
    4418:	5b                   	pop    %ebx
    4419:	50                   	push   %eax
    441a:	e8 c1 50 00 00       	call   94e0 <ddf_fun_data_get>
    441f:	83 c4 10             	add    $0x10,%esp
    4422:	89 c3                	mov    %eax,%ebx
    4424:	85 ff                	test   %edi,%edi
    4426:	0f 84 77 01 00 00    	je     45a3 <device_remove+0x1b3>
    442c:	85 c0                	test   %eax,%eax
    442e:	0f 84 5a 01 00 00    	je     458e <device_remove+0x19e>
    4434:	83 ec 0c             	sub    $0xc,%esp
    4437:	8b 45 08             	mov    0x8(%ebp),%eax
    443a:	50                   	push   %eax
    443b:	e8 b0 50 00 00       	call   94f0 <ddf_fun_get_name>
    4440:	89 34 24             	mov    %esi,(%esp)
    4443:	50                   	push   %eax
    4444:	68 9c 30 01 00       	push   $0x1309c
    4449:	6a 04                	push   $0x4
    444b:	6a ff                	push   $0xffffffff
    444d:	e8 ce 17 01 00       	call   15c20 <log_msg@plt>
    4452:	83 c4 14             	add    $0x14,%esp
    4455:	57                   	push   %edi
    4456:	e8 25 4e 00 00       	call   9280 <ddf_dev_data_get>
    445b:	83 c4 10             	add    $0x10,%esp
    445e:	89 45 e0             	mov    %eax,-0x20(%ebp)
    4461:	85 c0                	test   %eax,%eax
    4463:	0f 84 ea 00 00 00    	je     4553 <device_remove+0x163>
    4469:	83 ec 0c             	sub    $0xc,%esp
    446c:	57                   	push   %edi
    446d:	e8 0e 4e 00 00       	call   9280 <ddf_dev_data_get>
    4472:	83 c4 10             	add    $0x10,%esp
    4475:	85 c0                	test   %eax,%eax
    4477:	0f 84 fc 00 00 00    	je     4579 <device_remove+0x189>
    447d:	83 ec 0c             	sub    $0xc,%esp
    4480:	8d 43 10             	lea    0x10(%ebx),%eax
    4483:	89 45 e4             	mov    %eax,-0x1c(%ebp)
    4486:	83 c3 08             	add    $0x8,%ebx
    4489:	50                   	push   %eax
    448a:	e8 e1 1b 01 00       	call   16070 <fibril_mutex_lock@plt>
    448f:	8b 7b 04             	mov    0x4(%ebx),%edi
    4492:	83 c4 10             	add    $0x10,%esp
    4495:	8b 45 e4             	mov    -0x1c(%ebp),%eax
    4498:	39 df                	cmp    %ebx,%edi
    449a:	75 17                	jne    44b3 <device_remove+0xc3>
    449c:	e9 2f 01 00 00       	jmp    45d0 <device_remove+0x1e0>
    44a1:	8d b4 26 00 00 00 00 	lea    0x0(%esi,%eiz,1),%esi
    44a8:	8b 7f 04             	mov    0x4(%edi),%edi
    44ab:	39 df                	cmp    %ebx,%edi
    44ad:	0f 84 1d 01 00 00    	je     45d0 <device_remove+0x1e0>
    44b3:	3b 77 30             	cmp    0x30(%edi),%esi
    44b6:	75 f0                	jne    44a8 <device_remove+0xb8>
    44b8:	8b 0f                	mov    (%edi),%ecx
    44ba:	85 c9                	test   %ecx,%ecx
    44bc:	74 0e                	je     44cc <device_remove+0xdc>
    44be:	8b 57 04             	mov    0x4(%edi),%edx
    44c1:	85 d2                	test   %edx,%edx
    44c3:	74 07                	je     44cc <device_remove+0xdc>
    44c5:	89 0a                	mov    %ecx,(%edx)
    44c7:	8b 0f                	mov    (%edi),%ecx
    44c9:	89 51 04             	mov    %edx,0x4(%ecx)
    44cc:	83 ec 0c             	sub    $0xc,%esp
    44cf:	c7 07 00 00 00 00    	movl   $0x0,(%edi)
    44d5:	c7 47 04 00 00 00 00 	movl   $0x0,0x4(%edi)
    44dc:	50                   	push   %eax
    44dd:	e8 5e 18 01 00       	call   15d40 <fibril_mutex_unlock@plt>
    44e2:	58                   	pop    %eax
    44e3:	8b 47 20             	mov    0x20(%edi),%eax
    44e6:	50                   	push   %eax
    44e7:	e8 74 52 00 00       	call   9760 <ddf_fun_unbind>
    44ec:	83 c4 10             	add    $0x10,%esp
    44ef:	85 c0                	test   %eax,%eax
    44f1:	75 2c                	jne    451f <device_remove+0x12f>
    44f3:	83 ec 0c             	sub    $0xc,%esp
    44f6:	8b 4f 20             	mov    0x20(%edi),%ecx
    44f9:	0f bf 5f 24          	movswl 0x24(%edi),%ebx
    44fd:	51                   	push   %ecx
    44fe:	e8 fd 4f 00 00       	call   9500 <ddf_fun_destroy>
    4503:	5e                   	pop    %esi
    4504:	8b 75 e0             	mov    -0x20(%ebp),%esi
    4507:	83 c6 04             	add    $0x4,%esi
    450a:	5f                   	pop    %edi
    450b:	53                   	push   %ebx
    450c:	56                   	push   %esi
    450d:	e8 6e 22 00 00       	call   6780 <hcd_release_address>
    4512:	83 c4 10             	add    $0x10,%esp
    4515:	31 c0                	xor    %eax,%eax
    4517:	8d 65 f4             	lea    -0xc(%ebp),%esp
    451a:	5b                   	pop    %ebx
    451b:	5e                   	pop    %esi
    451c:	5f                   	pop    %edi
    451d:	5d                   	pop    %ebp
    451e:	c3                   	ret    
    451f:	83 ec 0c             	sub    $0xc,%esp
    4522:	50                   	push   %eax
    4523:	e8 18 1a 01 00       	call   15f40 <str_error@plt>
    4528:	8b 57 20             	mov    0x20(%edi),%edx
    452b:	89 c3                	mov    %eax,%ebx
    452d:	58                   	pop    %eax
    452e:	52                   	push   %edx
    452f:	e8 bc 4f 00 00       	call   94f0 <ddf_fun_get_name>
    4534:	89 1c 24             	mov    %ebx,(%esp)
    4537:	50                   	push   %eax
    4538:	68 cc 30 01 00       	push   $0x130cc
    453d:	6a 02                	push   $0x2
    453f:	6a ff                	push   $0xffffffff
    4541:	e8 da 16 01 00       	call   15c20 <log_msg@plt>
    4546:	83 c4 20             	add    $0x20,%esp
    4549:	8d 65 f4             	lea    -0xc(%ebp),%esp
    454c:	31 c0                	xor    %eax,%eax
    454e:	5b                   	pop    %ebx
    454f:	5e                   	pop    %esi
    4550:	5f                   	pop    %edi
    4551:	5d                   	pop    %ebp
    4552:	c3                   	ret    
    4553:	50                   	push   %eax
    4554:	68 1c 2f 01 00       	push   $0x12f1c
    4559:	6a 01                	push   $0x1
    455b:	6a ff                	push   $0xffffffff
    455d:	e8 be 16 01 00       	call   15c20 <log_msg@plt>
    4562:	83 c4 0c             	add    $0xc,%esp
    4565:	68 ab 01 00 00       	push   $0x1ab
    456a:	68 06 2f 01 00       	push   $0x12f06
    456f:	68 90 1d 01 00       	push   $0x11d90
    4574:	e8 07 17 01 00       	call   15c80 <assert_abort@plt>
    4579:	50                   	push   %eax
    457a:	68 ae 01 00 00       	push   $0x1ae
    457f:	68 06 2f 01 00       	push   $0x12f06
    4584:	68 39 2f 01 00       	push   $0x12f39
    4589:	e8 f2 16 01 00       	call   15c80 <assert_abort@plt>
    458e:	50                   	push   %eax
    458f:	68 c5 00 00 00       	push   $0xc5
    4594:	68 06 2f 01 00       	push   $0x12f06
    4599:	68 44 2f 01 00       	push   $0x12f44
    459e:	e8 dd 16 01 00       	call   15c80 <assert_abort@plt>
    45a3:	52                   	push   %edx
    45a4:	68 c4 00 00 00       	push   $0xc4
    45a9:	68 06 2f 01 00       	push   $0x12f06
    45ae:	68 31 2f 01 00       	push   $0x12f31
    45b3:	e8 c8 16 01 00       	call   15c80 <assert_abort@plt>
    45b8:	50                   	push   %eax
    45b9:	68 c1 00 00 00       	push   $0xc1
    45be:	68 06 2f 01 00       	push   $0x12f06
    45c3:	68 18 2f 01 00       	push   $0x12f18
    45c8:	e8 b3 16 01 00       	call   15c80 <assert_abort@plt>
    45cd:	8d 76 00             	lea    0x0(%esi),%esi
    45d0:	83 ec 0c             	sub    $0xc,%esp
    45d3:	50                   	push   %eax
    45d4:	e8 67 17 01 00       	call   15d40 <fibril_mutex_unlock@plt>
    45d9:	83 c4 10             	add    $0x10,%esp
    45dc:	83 c8 ff             	or     $0xffffffff,%eax
    45df:	e9 33 ff ff ff       	jmp    4517 <device_remove+0x127>
    45e4:	8d b6 00 00 00 00    	lea    0x0(%esi),%esi
    45ea:	8d bf 00 00 00 00    	lea    0x0(%edi),%edi

000045f0 <release_default_address>:
    45f0:	55                   	push   %ebp
    45f1:	89 e5                	mov    %esp,%ebp
    45f3:	56                   	push   %esi
    45f4:	53                   	push   %ebx
    45f5:	8b 75 08             	mov    0x8(%ebp),%esi
    45f8:	85 f6                	test   %esi,%esi
    45fa:	0f 84 93 00 00 00    	je     4693 <release_default_address+0xa3>
    4600:	83 ec 0c             	sub    $0xc,%esp
    4603:	56                   	push   %esi
    4604:	e8 47 4d 00 00       	call   9350 <ddf_fun_get_dev>
    4609:	89 04 24             	mov    %eax,(%esp)
    460c:	e8 6f 4c 00 00       	call   9280 <ddf_dev_data_get>
    4611:	83 c4 10             	add    $0x10,%esp
    4614:	85 c0                	test   %eax,%eax
    4616:	74 38                	je     4650 <release_default_address+0x60>
    4618:	83 ec 0c             	sub    $0xc,%esp
    461b:	8d 58 04             	lea    0x4(%eax),%ebx
    461e:	56                   	push   %esi
    461f:	e8 bc 4e 00 00       	call   94e0 <ddf_fun_data_get>
    4624:	83 c4 10             	add    $0x10,%esp
    4627:	85 c0                	test   %eax,%eax
    4629:	74 53                	je     467e <release_default_address+0x8e>
    462b:	0f bf 40 24          	movswl 0x24(%eax),%eax
    462f:	50                   	push   %eax
    4630:	68 f0 30 01 00       	push   $0x130f0
    4635:	6a 04                	push   $0x4
    4637:	6a ff                	push   $0xffffffff
    4639:	e8 e2 15 01 00       	call   15c20 <log_msg@plt>
    463e:	58                   	pop    %eax
    463f:	5a                   	pop    %edx
    4640:	6a 00                	push   $0x0
    4642:	53                   	push   %ebx
    4643:	e8 38 21 00 00       	call   6780 <hcd_release_address>
    4648:	8d 65 f8             	lea    -0x8(%ebp),%esp
    464b:	5b                   	pop    %ebx
    464c:	5e                   	pop    %esi
    464d:	5d                   	pop    %ebp
    464e:	c3                   	ret    
    464f:	90                   	nop
    4650:	53                   	push   %ebx
    4651:	68 1c 2f 01 00       	push   $0x12f1c
    4656:	6a 01                	push   $0x1
    4658:	6a ff                	push   $0xffffffff
    465a:	e8 c1 15 01 00       	call   15c20 <log_msg@plt>
    465f:	89 34 24             	mov    %esi,(%esp)
    4662:	e8 79 4e 00 00       	call   94e0 <ddf_fun_data_get>
    4667:	83 c4 0c             	add    $0xc,%esp
    466a:	68 ac 00 00 00       	push   $0xac
    466f:	68 06 2f 01 00       	push   $0x12f06
    4674:	68 90 1d 01 00       	push   $0x11d90
    4679:	e8 02 16 01 00       	call   15c80 <assert_abort@plt>
    467e:	51                   	push   %ecx
    467f:	68 ad 00 00 00       	push   $0xad
    4684:	68 06 2f 01 00       	push   $0x12f06
    4689:	68 44 2f 01 00       	push   $0x12f44
    468e:	e8 ed 15 01 00       	call   15c80 <assert_abort@plt>
    4693:	56                   	push   %esi
    4694:	68 a9 00 00 00       	push   $0xa9
    4699:	68 06 2f 01 00       	push   $0x12f06
    469e:	68 18 2f 01 00       	push   $0x12f18
    46a3:	e8 d8 15 01 00       	call   15c80 <assert_abort@plt>
    46a8:	90                   	nop
    46a9:	8d b4 26 00 00 00 00 	lea    0x0(%esi,%eiz,1),%esi

000046b0 <reserve_default_address>:
    46b0:	55                   	push   %ebp
    46b1:	89 e5                	mov    %esp,%ebp
    46b3:	57                   	push   %edi
    46b4:	56                   	push   %esi
    46b5:	53                   	push   %ebx
    46b6:	83 ec 0c             	sub    $0xc,%esp
    46b9:	8b 5d 08             	mov    0x8(%ebp),%ebx
    46bc:	8b 75 0c             	mov    0xc(%ebp),%esi
    46bf:	85 db                	test   %ebx,%ebx
    46c1:	0f 84 a4 00 00 00    	je     476b <reserve_default_address+0xbb>
    46c7:	83 ec 0c             	sub    $0xc,%esp
    46ca:	53                   	push   %ebx
    46cb:	e8 80 4c 00 00       	call   9350 <ddf_fun_get_dev>
    46d0:	89 04 24             	mov    %eax,(%esp)
    46d3:	e8 a8 4b 00 00       	call   9280 <ddf_dev_data_get>
    46d8:	83 c4 10             	add    $0x10,%esp
    46db:	85 c0                	test   %eax,%eax
    46dd:	74 49                	je     4728 <reserve_default_address+0x78>
    46df:	83 ec 0c             	sub    $0xc,%esp
    46e2:	8d 78 04             	lea    0x4(%eax),%edi
    46e5:	53                   	push   %ebx
    46e6:	e8 f5 4d 00 00       	call   94e0 <ddf_fun_data_get>
    46eb:	83 c4 10             	add    $0x10,%esp
    46ee:	89 c3                	mov    %eax,%ebx
    46f0:	85 c0                	test   %eax,%eax
    46f2:	74 62                	je     4756 <reserve_default_address+0xa6>
    46f4:	83 ec 0c             	sub    $0xc,%esp
    46f7:	56                   	push   %esi
    46f8:	e8 b3 41 00 00       	call   88b0 <usb_str_speed>
    46fd:	89 04 24             	mov    %eax,(%esp)
    4700:	0f bf 43 24          	movswl 0x24(%ebx),%eax
    4704:	50                   	push   %eax
    4705:	68 14 31 01 00       	push   $0x13114
    470a:	6a 04                	push   $0x4
    470c:	6a ff                	push   $0xffffffff
    470e:	e8 0d 15 01 00       	call   15c20 <log_msg@plt>
    4713:	89 75 0c             	mov    %esi,0xc(%ebp)
    4716:	89 7d 08             	mov    %edi,0x8(%ebp)
    4719:	83 c4 20             	add    $0x20,%esp
    471c:	8d 65 f4             	lea    -0xc(%ebp),%esp
    471f:	5b                   	pop    %ebx
    4720:	5e                   	pop    %esi
    4721:	5f                   	pop    %edi
    4722:	5d                   	pop    %ebp
    4723:	e9 98 20 00 00       	jmp    67c0 <hcd_reserve_default_address>
    4728:	52                   	push   %edx
    4729:	68 1c 2f 01 00       	push   $0x12f1c
    472e:	6a 01                	push   $0x1
    4730:	6a ff                	push   $0xffffffff
    4732:	e8 e9 14 01 00       	call   15c20 <log_msg@plt>
    4737:	89 1c 24             	mov    %ebx,(%esp)
    473a:	e8 a1 4d 00 00       	call   94e0 <ddf_fun_data_get>
    473f:	83 c4 0c             	add    $0xc,%esp
    4742:	68 9f 00 00 00       	push   $0x9f
    4747:	68 06 2f 01 00       	push   $0x12f06
    474c:	68 90 1d 01 00       	push   $0x11d90
    4751:	e8 2a 15 01 00       	call   15c80 <assert_abort@plt>
    4756:	50                   	push   %eax
    4757:	68 a0 00 00 00       	push   $0xa0
    475c:	68 06 2f 01 00       	push   $0x12f06
    4761:	68 44 2f 01 00       	push   $0x12f44
    4766:	e8 15 15 01 00       	call   15c80 <assert_abort@plt>
    476b:	51                   	push   %ecx
    476c:	68 9c 00 00 00       	push   $0x9c
    4771:	68 06 2f 01 00       	push   $0x12f06
    4776:	68 18 2f 01 00       	push   $0x12f18
    477b:	e8 00 15 01 00       	call   15c80 <assert_abort@plt>

00004780 <unregister_endpoint>:
    4780:	55                   	push   %ebp
    4781:	89 e5                	mov    %esp,%ebp
    4783:	57                   	push   %edi
    4784:	56                   	push   %esi
    4785:	53                   	push   %ebx
    4786:	83 ec 1c             	sub    $0x1c,%esp
    4789:	8b 7d 08             	mov    0x8(%ebp),%edi
    478c:	8b 75 0c             	mov    0xc(%ebp),%esi
    478f:	85 ff                	test   %edi,%edi
    4791:	0f 84 c4 00 00 00    	je     485b <unregister_endpoint+0xdb>
    4797:	83 ec 0c             	sub    $0xc,%esp
    479a:	57                   	push   %edi
    479b:	e8 b0 4b 00 00       	call   9350 <ddf_fun_get_dev>
    47a0:	89 04 24             	mov    %eax,(%esp)
    47a3:	e8 d8 4a 00 00       	call   9280 <ddf_dev_data_get>
    47a8:	83 c4 10             	add    $0x10,%esp
    47ab:	85 c0                	test   %eax,%eax
    47ad:	74 69                	je     4818 <unregister_endpoint+0x98>
    47af:	83 ec 0c             	sub    $0xc,%esp
    47b2:	83 c0 04             	add    $0x4,%eax
    47b5:	89 45 e4             	mov    %eax,-0x1c(%ebp)
    47b8:	57                   	push   %edi
    47b9:	e8 22 4d 00 00       	call   94e0 <ddf_fun_data_get>
    47be:	83 c4 10             	add    $0x10,%esp
    47c1:	89 c3                	mov    %eax,%ebx
    47c3:	85 c0                	test   %eax,%eax
    47c5:	74 7f                	je     4846 <unregister_endpoint+0xc6>
    47c7:	89 f0                	mov    %esi,%eax
    47c9:	31 ff                	xor    %edi,%edi
    47cb:	83 ec 0c             	sub    $0xc,%esp
    47ce:	66 8b 7b 24          	mov    0x24(%ebx),%di
    47d2:	c1 e0 10             	shl    $0x10,%eax
    47d5:	09 c7                	or     %eax,%edi
    47d7:	8b 45 10             	mov    0x10(%ebp),%eax
    47da:	50                   	push   %eax
    47db:	e8 b0 40 00 00       	call   8890 <usb_str_direction>
    47e0:	5a                   	pop    %edx
    47e1:	59                   	pop    %ecx
    47e2:	50                   	push   %eax
    47e3:	0f bf 43 24          	movswl 0x24(%ebx),%eax
    47e7:	0f bf f6             	movswl %si,%esi
    47ea:	56                   	push   %esi
    47eb:	50                   	push   %eax
    47ec:	68 48 31 01 00       	push   $0x13148
    47f1:	6a 04                	push   $0x4
    47f3:	6a ff                	push   $0xffffffff
    47f5:	e8 26 14 01 00       	call   15c20 <log_msg@plt>
    47fa:	83 c4 1c             	add    $0x1c,%esp
    47fd:	8b 5d 10             	mov    0x10(%ebp),%ebx
    4800:	8b 75 e4             	mov    -0x1c(%ebp),%esi
    4803:	53                   	push   %ebx
    4804:	57                   	push   %edi
    4805:	56                   	push   %esi
    4806:	e8 55 20 00 00       	call   6860 <hcd_remove_ep>
    480b:	8d 65 f4             	lea    -0xc(%ebp),%esp
    480e:	5b                   	pop    %ebx
    480f:	5e                   	pop    %esi
    4810:	5f                   	pop    %edi
    4811:	5d                   	pop    %ebp
    4812:	c3                   	ret    
    4813:	90                   	nop
    4814:	8d 74 26 00          	lea    0x0(%esi,%eiz,1),%esi
    4818:	50                   	push   %eax
    4819:	68 1c 2f 01 00       	push   $0x12f1c
    481e:	6a 01                	push   $0x1
    4820:	6a ff                	push   $0xffffffff
    4822:	e8 f9 13 01 00       	call   15c20 <log_msg@plt>
    4827:	89 3c 24             	mov    %edi,(%esp)
    482a:	e8 b1 4c 00 00       	call   94e0 <ddf_fun_data_get>
    482f:	83 c4 0c             	add    $0xc,%esp
    4832:	68 91 00 00 00       	push   $0x91
    4837:	68 06 2f 01 00       	push   $0x12f06
    483c:	68 90 1d 01 00       	push   $0x11d90
    4841:	e8 3a 14 01 00       	call   15c80 <assert_abort@plt>
    4846:	57                   	push   %edi
    4847:	68 92 00 00 00       	push   $0x92
    484c:	68 06 2f 01 00       	push   $0x12f06
    4851:	68 44 2f 01 00       	push   $0x12f44
    4856:	e8 25 14 01 00       	call   15c80 <assert_abort@plt>
    485b:	50                   	push   %eax
    485c:	68 8e 00 00 00       	push   $0x8e
    4861:	68 06 2f 01 00       	push   $0x12f06
    4866:	68 18 2f 01 00       	push   $0x12f18
    486b:	e8 10 14 01 00       	call   15c80 <assert_abort@plt>

00004870 <register_endpoint>:
    4870:	55                   	push   %ebp
    4871:	89 e5                	mov    %esp,%ebp
    4873:	57                   	push   %edi
    4874:	56                   	push   %esi
    4875:	53                   	push   %ebx
    4876:	83 ec 1c             	sub    $0x1c,%esp
    4879:	8b 75 08             	mov    0x8(%ebp),%esi
    487c:	8b 5d 0c             	mov    0xc(%ebp),%ebx
    487f:	85 f6                	test   %esi,%esi
    4881:	0f 84 f6 00 00 00    	je     497d <register_endpoint+0x10d>
    4887:	83 ec 0c             	sub    $0xc,%esp
    488a:	56                   	push   %esi
    488b:	e8 c0 4a 00 00       	call   9350 <ddf_fun_get_dev>
    4890:	89 04 24             	mov    %eax,(%esp)
    4893:	e8 e8 49 00 00       	call   9280 <ddf_dev_data_get>
    4898:	83 c4 10             	add    $0x10,%esp
    489b:	85 c0                	test   %eax,%eax
    489d:	0f 84 9d 00 00 00    	je     4940 <register_endpoint+0xd0>
    48a3:	83 ec 0c             	sub    $0xc,%esp
    48a6:	83 c0 04             	add    $0x4,%eax
    48a9:	89 45 e4             	mov    %eax,-0x1c(%ebp)
    48ac:	56                   	push   %esi
    48ad:	e8 2e 4c 00 00       	call   94e0 <ddf_fun_data_get>
    48b2:	83 c4 10             	add    $0x10,%esp
    48b5:	89 c7                	mov    %eax,%edi
    48b7:	85 c0                	test   %eax,%eax
    48b9:	0f 84 ac 00 00 00    	je     496b <register_endpoint+0xfb>
    48bf:	89 d8                	mov    %ebx,%eax
    48c1:	31 f6                	xor    %esi,%esi
    48c3:	83 ec 0c             	sub    $0xc,%esp
    48c6:	66 8b 77 24          	mov    0x24(%edi),%si
    48ca:	c1 e0 10             	shl    $0x10,%eax
    48cd:	09 c6                	or     %eax,%esi
    48cf:	8b 45 14             	mov    0x14(%ebp),%eax
    48d2:	50                   	push   %eax
    48d3:	e8 b8 3f 00 00       	call   8890 <usb_str_direction>
    48d8:	8b 4d 10             	mov    0x10(%ebp),%ecx
    48db:	5a                   	pop    %edx
    48dc:	89 45 e0             	mov    %eax,-0x20(%ebp)
    48df:	51                   	push   %ecx
    48e0:	e8 6b 3f 00 00       	call   8850 <usb_str_transfer_type>
    48e5:	8b 4d 20             	mov    0x20(%ebp),%ecx
    48e8:	5a                   	pop    %edx
    48e9:	8b 55 18             	mov    0x18(%ebp),%edx
    48ec:	51                   	push   %ecx
    48ed:	8b 4d e0             	mov    -0x20(%ebp),%ecx
    48f0:	52                   	push   %edx
    48f1:	51                   	push   %ecx
    48f2:	50                   	push   %eax
    48f3:	0f bf 47 24          	movswl 0x24(%edi),%eax
