
volsrv:     file format elf32-i386


Disassembly of section .init:

000010f4 <__entry>:
    10f4:	66 8c d0             	mov    %ss,%ax
    10f7:	8e d8                	mov    %eax,%ds
    10f9:	8e c0                	mov    %eax,%es
    10fb:	8e e0                	mov    %eax,%fs
    10fd:	b8 01 00 00 00       	mov    $0x1,%eax
    1102:	0f a2                	cpuid  
    1104:	0f ba e2 0b          	bt     $0xb,%edx
    1108:	73 0c                	jae    1116 <__entry+0x22>
    110a:	8d 05 98 5f 00 00    	lea    0x5f98,%eax
    1110:	c7 00 c0 44 00 00    	movl   $0x44c0,(%eax)
    1116:	6a 00                	push   $0x0
    1118:	6a 00                	push   $0x0
    111a:	89 e5                	mov    %esp,%ebp
    111c:	57                   	push   %edi
    111d:	e8 ae 30 00 00       	call   41d0 <__main@plt>

Disassembly of section .text:

00001130 <volsrv_part_is_empty>:
    1130:	55                   	push   %ebp
    1131:	89 e5                	mov    %esp,%ebp
    1133:	57                   	push   %edi
    1134:	56                   	push   %esi
    1135:	53                   	push   %ebx
    1136:	83 ec 44             	sub    $0x44,%esp
    1139:	8b 45 08             	mov    0x8(%ebp),%eax
    113c:	68 00 08 00 00       	push   $0x800
    1141:	50                   	push   %eax
    1142:	e8 79 10 00 00       	call   21c0 <block_init>
    1147:	83 c4 10             	add    $0x10,%esp
    114a:	85 c0                	test   %eax,%eax
    114c:	74 2a                	je     1178 <volsrv_part_is_empty+0x48>
    114e:	8b 7d 08             	mov    0x8(%ebp),%edi
    1151:	57                   	push   %edi
    1152:	68 3c 3a 00 00       	push   $0x3a3c
    1157:	6a 01                	push   $0x1
    1159:	6a ff                	push   $0xffffffff
    115b:	e8 b0 31 00 00       	call   4310 <log_msg@plt>
    1160:	83 c4 10             	add    $0x10,%esp
    1163:	c7 45 d4 f6 fe ff ff 	movl   $0xfffffef6,-0x2c(%ebp)
    116a:	8b 45 d4             	mov    -0x2c(%ebp),%eax
    116d:	8d 65 f4             	lea    -0xc(%ebp),%esp
    1170:	5b                   	pop    %ebx
    1171:	5e                   	pop    %esi
    1172:	5f                   	pop    %edi
    1173:	5d                   	pop    %ebp
    1174:	c3                   	ret    
    1175:	8d 76 00             	lea    0x0(%esi),%esi
    1178:	8d 45 dc             	lea    -0x24(%ebp),%eax
    117b:	8b 75 08             	mov    0x8(%ebp),%esi
    117e:	53                   	push   %ebx
    117f:	53                   	push   %ebx
    1180:	50                   	push   %eax
    1181:	56                   	push   %esi
    1182:	e8 99 24 00 00       	call   3620 <block_get_bsize>
    1187:	83 c4 10             	add    $0x10,%esp
    118a:	85 c0                	test   %eax,%eax
    118c:	74 3a                	je     11c8 <volsrv_part_is_empty+0x98>
    118e:	51                   	push   %ecx
    118f:	68 84 3a 00 00       	push   $0x3a84
    1194:	6a 01                	push   $0x1
    1196:	6a ff                	push   $0xffffffff
    1198:	e8 73 31 00 00       	call   4310 <log_msg@plt>
    119d:	83 c4 10             	add    $0x10,%esp
    11a0:	c7 45 d4 f6 fe ff ff 	movl   $0xfffffef6,-0x2c(%ebp)
    11a7:	83 ec 0c             	sub    $0xc,%esp
    11aa:	8b 45 08             	mov    0x8(%ebp),%eax
    11ad:	50                   	push   %eax
    11ae:	e8 9d 16 00 00       	call   2850 <block_fini>
    11b3:	8b 45 d4             	mov    -0x2c(%ebp),%eax
    11b6:	83 c4 10             	add    $0x10,%esp
    11b9:	8d 65 f4             	lea    -0xc(%ebp),%esp
    11bc:	5b                   	pop    %ebx
    11bd:	5e                   	pop    %esi
    11be:	5f                   	pop    %edi
    11bf:	5d                   	pop    %ebp
    11c0:	c3                   	ret    
    11c1:	8d b4 26 00 00 00 00 	lea    0x0(%esi,%eiz,1),%esi
    11c8:	8b 55 08             	mov    0x8(%ebp),%edx
    11cb:	50                   	push   %eax
    11cc:	50                   	push   %eax
    11cd:	8d 45 e0             	lea    -0x20(%ebp),%eax
    11d0:	50                   	push   %eax
    11d1:	52                   	push   %edx
    11d2:	e8 d9 24 00 00       	call   36b0 <block_get_nblocks>
    11d7:	83 c4 10             	add    $0x10,%esp
    11da:	89 45 d4             	mov    %eax,-0x2c(%ebp)
    11dd:	85 c0                	test   %eax,%eax
    11df:	0f 85 53 01 00 00    	jne    1338 <volsrv_part_is_empty+0x208>
    11e5:	8b 4d dc             	mov    -0x24(%ebp),%ecx
    11e8:	31 d2                	xor    %edx,%edx
    11ea:	8d 81 ff 3f 00 00    	lea    0x3fff(%ecx),%eax
    11f0:	f7 f1                	div    %ecx
    11f2:	83 f8 11             	cmp    $0x11,%eax
    11f5:	73 05                	jae    11fc <volsrv_part_is_empty+0xcc>
    11f7:	b8 11 00 00 00       	mov    $0x11,%eax
    11fc:	89 c6                	mov    %eax,%esi
    11fe:	8b 45 e0             	mov    -0x20(%ebp),%eax
    1201:	31 ff                	xor    %edi,%edi
    1203:	8b 55 e4             	mov    -0x1c(%ebp),%edx
    1206:	83 c0 01             	add    $0x1,%eax
    1209:	83 d2 00             	adc    $0x0,%edx
    120c:	0f ac d0 01          	shrd   $0x1,%edx,%eax
    1210:	d1 ea                	shr    %edx
    1212:	89 c3                	mov    %eax,%ebx
    1214:	89 45 c8             	mov    %eax,-0x38(%ebp)
    1217:	89 55 c0             	mov    %edx,-0x40(%ebp)
    121a:	83 fa 00             	cmp    $0x0,%edx
    121d:	0f 87 20 01 00 00    	ja     1343 <volsrv_part_is_empty+0x213>
    1223:	39 f3                	cmp    %esi,%ebx
    1225:	0f 87 18 01 00 00    	ja     1343 <volsrv_part_is_empty+0x213>
    122b:	50                   	push   %eax
    122c:	50                   	push   %eax
    122d:	6a 01                	push   $0x1
    122f:	51                   	push   %ecx
    1230:	e8 5b 31 00 00       	call   4390 <calloc@plt>
    1235:	83 c4 10             	add    $0x10,%esp
    1238:	89 c3                	mov    %eax,%ebx
    123a:	85 c0                	test   %eax,%eax
    123c:	0f 84 6c 01 00 00    	je     13ae <volsrv_part_is_empty+0x27e>
    1242:	8b 45 c0             	mov    -0x40(%ebp),%eax
    1245:	31 f6                	xor    %esi,%esi
    1247:	31 ff                	xor    %edi,%edi
    1249:	0b 45 c8             	or     -0x38(%ebp),%eax
    124c:	0f 84 df 00 00 00    	je     1331 <volsrv_part_is_empty+0x201>
    1252:	8d b6 00 00 00 00    	lea    0x0(%esi),%esi
    1258:	83 ec 0c             	sub    $0xc,%esp
    125b:	8b 45 08             	mov    0x8(%ebp),%eax
    125e:	53                   	push   %ebx
    125f:	6a 01                	push   $0x1
    1261:	57                   	push   %edi
    1262:	56                   	push   %esi
    1263:	50                   	push   %eax
    1264:	e8 47 21 00 00       	call   33b0 <block_read_direct>
    1269:	83 c4 20             	add    $0x20,%esp
    126c:	85 c0                	test   %eax,%eax
    126e:	0f 85 05 01 00 00    	jne    1379 <volsrv_part_is_empty+0x249>
    1274:	8b 55 dc             	mov    -0x24(%ebp),%edx
    1277:	85 d2                	test   %edx,%edx
    1279:	74 24                	je     129f <volsrv_part_is_empty+0x16f>
    127b:	80 3b 00             	cmpb   $0x0,(%ebx)
    127e:	0f 85 ce 00 00 00    	jne    1352 <volsrv_part_is_empty+0x222>
    1284:	8d 43 01             	lea    0x1(%ebx),%eax
    1287:	01 da                	add    %ebx,%edx
    1289:	eb 10                	jmp    129b <volsrv_part_is_empty+0x16b>
    128b:	90                   	nop
    128c:	8d 74 26 00          	lea    0x0(%esi,%eiz,1),%esi
    1290:	40                   	inc    %eax
    1291:	80 78 ff 00          	cmpb   $0x0,-0x1(%eax)
    1295:	0f 85 b7 00 00 00    	jne    1352 <volsrv_part_is_empty+0x222>
    129b:	39 d0                	cmp    %edx,%eax
    129d:	75 f1                	jne    1290 <volsrv_part_is_empty+0x160>
    129f:	83 c6 01             	add    $0x1,%esi
    12a2:	8b 45 c8             	mov    -0x38(%ebp),%eax
    12a5:	83 d7 00             	adc    $0x0,%edi
    12a8:	8b 55 c0             	mov    -0x40(%ebp),%edx
    12ab:	31 f0                	xor    %esi,%eax
    12ad:	31 fa                	xor    %edi,%edx
    12af:	09 c2                	or     %eax,%edx
    12b1:	75 a5                	jne    1258 <volsrv_part_is_empty+0x128>
    12b3:	31 c0                	xor    %eax,%eax
    12b5:	31 d2                	xor    %edx,%edx
    12b7:	89 7d cc             	mov    %edi,-0x34(%ebp)
    12ba:	89 75 c8             	mov    %esi,-0x38(%ebp)
    12bd:	89 df                	mov    %ebx,%edi
    12bf:	89 c1                	mov    %eax,%ecx
    12c1:	89 d3                	mov    %edx,%ebx
    12c3:	90                   	nop
    12c4:	8d 74 26 00          	lea    0x0(%esi,%eiz,1),%esi
    12c8:	89 c8                	mov    %ecx,%eax
    12ca:	83 ec 0c             	sub    $0xc,%esp
    12cd:	03 45 e0             	add    -0x20(%ebp),%eax
    12d0:	89 da                	mov    %ebx,%edx
    12d2:	13 55 e4             	adc    -0x1c(%ebp),%edx
    12d5:	2b 45 c8             	sub    -0x38(%ebp),%eax
    12d8:	1b 55 cc             	sbb    -0x34(%ebp),%edx
    12db:	57                   	push   %edi
    12dc:	6a 01                	push   $0x1
    12de:	52                   	push   %edx
    12df:	50                   	push   %eax
    12e0:	8b 45 08             	mov    0x8(%ebp),%eax
    12e3:	89 4d c0             	mov    %ecx,-0x40(%ebp)
    12e6:	89 5d c4             	mov    %ebx,-0x3c(%ebp)
    12e9:	50                   	push   %eax
    12ea:	e8 c1 20 00 00       	call   33b0 <block_read_direct>
    12ef:	83 c4 20             	add    $0x20,%esp
    12f2:	8b 4d c0             	mov    -0x40(%ebp),%ecx
    12f5:	85 c0                	test   %eax,%eax
    12f7:	8b 5d c4             	mov    -0x3c(%ebp),%ebx
    12fa:	75 7b                	jne    1377 <volsrv_part_is_empty+0x247>
    12fc:	8b 55 dc             	mov    -0x24(%ebp),%edx
    12ff:	85 d2                	test   %edx,%edx
    1301:	74 18                	je     131b <volsrv_part_is_empty+0x1eb>
    1303:	80 3f 00             	cmpb   $0x0,(%edi)
    1306:	75 48                	jne    1350 <volsrv_part_is_empty+0x220>
    1308:	8d 47 01             	lea    0x1(%edi),%eax
    130b:	01 fa                	add    %edi,%edx
    130d:	eb 08                	jmp    1317 <volsrv_part_is_empty+0x1e7>
    130f:	90                   	nop
    1310:	40                   	inc    %eax
    1311:	80 78 ff 00          	cmpb   $0x0,-0x1(%eax)
    1315:	75 39                	jne    1350 <volsrv_part_is_empty+0x220>
    1317:	39 c2                	cmp    %eax,%edx
    1319:	75 f5                	jne    1310 <volsrv_part_is_empty+0x1e0>
    131b:	83 c1 01             	add    $0x1,%ecx
    131e:	8b 45 c8             	mov    -0x38(%ebp),%eax
    1321:	83 d3 00             	adc    $0x0,%ebx
    1324:	8b 55 cc             	mov    -0x34(%ebp),%edx
    1327:	31 c8                	xor    %ecx,%eax
    1329:	31 da                	xor    %ebx,%edx
    132b:	09 c2                	or     %eax,%edx
    132d:	75 99                	jne    12c8 <volsrv_part_is_empty+0x198>
    132f:	89 fb                	mov    %edi,%ebx
    1331:	be 01 00 00 00       	mov    $0x1,%esi
    1336:	eb 1c                	jmp    1354 <volsrv_part_is_empty+0x224>
    1338:	50                   	push   %eax
    1339:	68 64 3a 00 00       	push   $0x3a64
    133e:	e9 51 fe ff ff       	jmp    1194 <volsrv_part_is_empty+0x64>
    1343:	89 75 c8             	mov    %esi,-0x38(%ebp)
    1346:	89 7d c0             	mov    %edi,-0x40(%ebp)
    1349:	e9 dd fe ff ff       	jmp    122b <volsrv_part_is_empty+0xfb>
    134e:	66 90                	xchg   %ax,%ax
    1350:	89 fb                	mov    %edi,%ebx
    1352:	31 f6                	xor    %esi,%esi
    1354:	83 ec 0c             	sub    $0xc,%esp
    1357:	8b 55 08             	mov    0x8(%ebp),%edx
    135a:	52                   	push   %edx
    135b:	e8 f0 14 00 00       	call   2850 <block_fini>
    1360:	89 1c 24             	mov    %ebx,(%esp)
    1363:	e8 88 31 00 00       	call   44f0 <free@plt>
    1368:	8b 55 0c             	mov    0xc(%ebp),%edx
    136b:	89 f0                	mov    %esi,%eax
    136d:	83 c4 10             	add    $0x10,%esp
    1370:	88 02                	mov    %al,(%edx)
    1372:	e9 f3 fd ff ff       	jmp    116a <volsrv_part_is_empty+0x3a>
    1377:	89 fb                	mov    %edi,%ebx
    1379:	51                   	push   %ecx
    137a:	68 b7 3a 00 00       	push   $0x3ab7
    137f:	6a 01                	push   $0x1
    1381:	6a ff                	push   $0xffffffff
    1383:	e8 88 2f 00 00       	call   4310 <log_msg@plt>
    1388:	83 c4 10             	add    $0x10,%esp
    138b:	83 ec 0c             	sub    $0xc,%esp
    138e:	8b 75 08             	mov    0x8(%ebp),%esi
    1391:	56                   	push   %esi
    1392:	e8 b9 14 00 00       	call   2850 <block_fini>
    1397:	89 1c 24             	mov    %ebx,(%esp)
    139a:	e8 51 31 00 00       	call   44f0 <free@plt>
    139f:	83 c4 10             	add    $0x10,%esp
    13a2:	c7 45 d4 f6 fe ff ff 	movl   $0xfffffef6,-0x2c(%ebp)
    13a9:	e9 bc fd ff ff       	jmp    116a <volsrv_part_is_empty+0x3a>
    13ae:	50                   	push   %eax
    13af:	68 9e 3a 00 00       	push   $0x3a9e
    13b4:	6a 01                	push   $0x1
    13b6:	6a ff                	push   $0xffffffff
    13b8:	e8 53 2f 00 00       	call   4310 <log_msg@plt>
    13bd:	83 c4 10             	add    $0x10,%esp
    13c0:	c7 45 d4 fe ff ff ff 	movl   $0xfffffffe,-0x2c(%ebp)
    13c7:	e9 db fd ff ff       	jmp    11a7 <volsrv_part_is_empty+0x77>
    13cc:	8d 74 26 00          	lea    0x0(%esi,%eiz,1),%esi

000013d0 <volsrv_part_empty>:
    13d0:	55                   	push   %ebp
    13d1:	89 e5                	mov    %esp,%ebp
    13d3:	57                   	push   %edi
    13d4:	56                   	push   %esi
    13d5:	53                   	push   %ebx
    13d6:	83 ec 44             	sub    $0x44,%esp
    13d9:	8b 5d 08             	mov    0x8(%ebp),%ebx
    13dc:	68 00 08 00 00       	push   $0x800
    13e1:	53                   	push   %ebx
    13e2:	e8 d9 0d 00 00       	call   21c0 <block_init>
    13e7:	83 c4 10             	add    $0x10,%esp
    13ea:	85 c0                	test   %eax,%eax
    13ec:	74 2a                	je     1418 <volsrv_part_empty+0x48>
    13ee:	53                   	push   %ebx
    13ef:	68 3c 3a 00 00       	push   $0x3a3c
    13f4:	6a 01                	push   $0x1
    13f6:	6a ff                	push   $0xffffffff
    13f8:	e8 13 2f 00 00       	call   4310 <log_msg@plt>
    13fd:	83 c4 10             	add    $0x10,%esp
    1400:	c7 45 cc f6 fe ff ff 	movl   $0xfffffef6,-0x34(%ebp)
    1407:	8b 45 cc             	mov    -0x34(%ebp),%eax
    140a:	8d 65 f4             	lea    -0xc(%ebp),%esp
    140d:	5b                   	pop    %ebx
    140e:	5e                   	pop    %esi
    140f:	5f                   	pop    %edi
    1410:	5d                   	pop    %ebp
    1411:	c3                   	ret    
    1412:	8d b6 00 00 00 00    	lea    0x0(%esi),%esi
    1418:	50                   	push   %eax
    1419:	50                   	push   %eax
    141a:	8d 45 dc             	lea    -0x24(%ebp),%eax
    141d:	50                   	push   %eax
    141e:	53                   	push   %ebx
    141f:	e8 fc 21 00 00       	call   3620 <block_get_bsize>
    1424:	83 c4 10             	add    $0x10,%esp
    1427:	85 c0                	test   %eax,%eax
    1429:	74 35                	je     1460 <volsrv_part_empty+0x90>
    142b:	57                   	push   %edi
    142c:	68 84 3a 00 00       	push   $0x3a84
    1431:	6a 01                	push   $0x1
    1433:	6a ff                	push   $0xffffffff
    1435:	e8 d6 2e 00 00       	call   4310 <log_msg@plt>
    143a:	83 c4 10             	add    $0x10,%esp
    143d:	c7 45 cc f6 fe ff ff 	movl   $0xfffffef6,-0x34(%ebp)
    1444:	83 ec 0c             	sub    $0xc,%esp
    1447:	53                   	push   %ebx
    1448:	e8 03 14 00 00       	call   2850 <block_fini>
    144d:	8b 45 cc             	mov    -0x34(%ebp),%eax
    1450:	83 c4 10             	add    $0x10,%esp
    1453:	8d 65 f4             	lea    -0xc(%ebp),%esp
    1456:	5b                   	pop    %ebx
    1457:	5e                   	pop    %esi
    1458:	5f                   	pop    %edi
    1459:	5d                   	pop    %ebp
    145a:	c3                   	ret    
    145b:	90                   	nop
    145c:	8d 74 26 00          	lea    0x0(%esi,%eiz,1),%esi
    1460:	8d 45 e0             	lea    -0x20(%ebp),%eax
    1463:	56                   	push   %esi
    1464:	56                   	push   %esi
    1465:	50                   	push   %eax
    1466:	53                   	push   %ebx
    1467:	e8 44 22 00 00       	call   36b0 <block_get_nblocks>
    146c:	83 c4 10             	add    $0x10,%esp
    146f:	89 45 cc             	mov    %eax,-0x34(%ebp)
    1472:	85 c0                	test   %eax,%eax
    1474:	0f 85 de 00 00 00    	jne    1558 <volsrv_part_empty+0x188>
    147a:	8b 4d dc             	mov    -0x24(%ebp),%ecx
    147d:	31 d2                	xor    %edx,%edx
    147f:	8d 81 ff 3f 00 00    	lea    0x3fff(%ecx),%eax
    1485:	f7 f1                	div    %ecx
    1487:	83 f8 11             	cmp    $0x11,%eax
    148a:	73 05                	jae    1491 <volsrv_part_empty+0xc1>
    148c:	b8 11 00 00 00       	mov    $0x11,%eax
    1491:	89 c6                	mov    %eax,%esi
    1493:	8b 45 e0             	mov    -0x20(%ebp),%eax
    1496:	31 ff                	xor    %edi,%edi
    1498:	8b 55 e4             	mov    -0x1c(%ebp),%edx
    149b:	83 c0 01             	add    $0x1,%eax
    149e:	83 d2 00             	adc    $0x0,%edx
    14a1:	0f ac d0 01          	shrd   $0x1,%edx,%eax
    14a5:	d1 ea                	shr    %edx
    14a7:	89 45 c0             	mov    %eax,-0x40(%ebp)
    14aa:	89 55 d4             	mov    %edx,-0x2c(%ebp)
    14ad:	89 c2                	mov    %eax,%edx
    14af:	8b 45 d4             	mov    -0x2c(%ebp),%eax
    14b2:	89 45 c8             	mov    %eax,-0x38(%ebp)
    14b5:	83 f8 00             	cmp    $0x0,%eax
    14b8:	0f 87 aa 00 00 00    	ja     1568 <volsrv_part_empty+0x198>
    14be:	39 f2                	cmp    %esi,%edx
    14c0:	0f 87 a2 00 00 00    	ja     1568 <volsrv_part_empty+0x198>
    14c6:	52                   	push   %edx
    14c7:	52                   	push   %edx
    14c8:	6a 01                	push   $0x1
    14ca:	51                   	push   %ecx
    14cb:	e8 c0 2e 00 00       	call   4390 <calloc@plt>
    14d0:	83 c4 10             	add    $0x10,%esp
    14d3:	89 45 d0             	mov    %eax,-0x30(%ebp)
    14d6:	85 c0                	test   %eax,%eax
    14d8:	0f 84 18 01 00 00    	je     15f6 <volsrv_part_empty+0x226>
    14de:	8b 45 c8             	mov    -0x38(%ebp),%eax
    14e1:	31 f6                	xor    %esi,%esi
    14e3:	31 ff                	xor    %edi,%edi
    14e5:	0b 45 c0             	or     -0x40(%ebp),%eax
    14e8:	75 1a                	jne    1504 <volsrv_part_empty+0x134>
    14ea:	e9 ec 00 00 00       	jmp    15db <volsrv_part_empty+0x20b>
    14ef:	90                   	nop
    14f0:	83 c6 01             	add    $0x1,%esi
    14f3:	8b 45 c0             	mov    -0x40(%ebp),%eax
    14f6:	83 d7 00             	adc    $0x0,%edi
    14f9:	8b 55 c8             	mov    -0x38(%ebp),%edx
    14fc:	31 f0                	xor    %esi,%eax
    14fe:	31 fa                	xor    %edi,%edx
    1500:	09 c2                	or     %eax,%edx
    1502:	74 74                	je     1578 <volsrv_part_empty+0x1a8>
    1504:	83 ec 0c             	sub    $0xc,%esp
    1507:	8b 45 d0             	mov    -0x30(%ebp),%eax
    150a:	50                   	push   %eax
    150b:	6a 01                	push   $0x1
    150d:	57                   	push   %edi
    150e:	56                   	push   %esi
    150f:	53                   	push   %ebx
    1510:	e8 7b 1f 00 00       	call   3490 <block_write_direct>
    1515:	83 c4 20             	add    $0x20,%esp
    1518:	85 c0                	test   %eax,%eax
    151a:	74 d4                	je     14f0 <volsrv_part_empty+0x120>
    151c:	50                   	push   %eax
    151d:	68 b7 3a 00 00       	push   $0x3ab7
    1522:	6a 01                	push   $0x1
    1524:	6a ff                	push   $0xffffffff
    1526:	e8 e5 2d 00 00       	call   4310 <log_msg@plt>
    152b:	83 c4 10             	add    $0x10,%esp
    152e:	83 ec 0c             	sub    $0xc,%esp
    1531:	53                   	push   %ebx
    1532:	e8 19 13 00 00       	call   2850 <block_fini>
    1537:	8b 4d d0             	mov    -0x30(%ebp),%ecx
    153a:	5a                   	pop    %edx
    153b:	51                   	push   %ecx
    153c:	e8 af 2f 00 00       	call   44f0 <free@plt>
    1541:	c7 45 cc f6 fe ff ff 	movl   $0xfffffef6,-0x34(%ebp)
    1548:	83 c4 10             	add    $0x10,%esp
    154b:	8b 45 cc             	mov    -0x34(%ebp),%eax
    154e:	8d 65 f4             	lea    -0xc(%ebp),%esp
    1551:	5b                   	pop    %ebx
    1552:	5e                   	pop    %esi
    1553:	5f                   	pop    %edi
    1554:	5d                   	pop    %ebp
    1555:	c3                   	ret    
    1556:	66 90                	xchg   %ax,%ax
    1558:	51                   	push   %ecx
    1559:	68 64 3a 00 00       	push   $0x3a64
    155e:	e9 ce fe ff ff       	jmp    1431 <volsrv_part_empty+0x61>
    1563:	90                   	nop
    1564:	8d 74 26 00          	lea    0x0(%esi,%eiz,1),%esi
    1568:	89 75 c0             	mov    %esi,-0x40(%ebp)
    156b:	89 7d c8             	mov    %edi,-0x38(%ebp)
    156e:	e9 53 ff ff ff       	jmp    14c6 <volsrv_part_empty+0xf6>
    1573:	90                   	nop
    1574:	8d 74 26 00          	lea    0x0(%esi,%eiz,1),%esi
    1578:	31 c0                	xor    %eax,%eax
    157a:	31 d2                	xor    %edx,%edx
    157c:	89 5d 08             	mov    %ebx,0x8(%ebp)
    157f:	89 c1                	mov    %eax,%ecx
    1581:	89 d3                	mov    %edx,%ebx
    1583:	eb 15                	jmp    159a <volsrv_part_empty+0x1ca>
    1585:	8d 76 00             	lea    0x0(%esi),%esi
    1588:	83 c1 01             	add    $0x1,%ecx
    158b:	89 f0                	mov    %esi,%eax
    158d:	83 d3 00             	adc    $0x0,%ebx
    1590:	89 fa                	mov    %edi,%edx
    1592:	31 c8                	xor    %ecx,%eax
    1594:	31 da                	xor    %ebx,%edx
    1596:	09 c2                	or     %eax,%edx
    1598:	74 3e                	je     15d8 <volsrv_part_empty+0x208>
    159a:	83 ec 0c             	sub    $0xc,%esp
    159d:	8b 45 d0             	mov    -0x30(%ebp),%eax
    15a0:	89 da                	mov    %ebx,%edx
    15a2:	89 4d c0             	mov    %ecx,-0x40(%ebp)
    15a5:	50                   	push   %eax
    15a6:	89 c8                	mov    %ecx,%eax
    15a8:	03 45 e0             	add    -0x20(%ebp),%eax
    15ab:	6a 01                	push   $0x1
    15ad:	13 55 e4             	adc    -0x1c(%ebp),%edx
    15b0:	29 f0                	sub    %esi,%eax
    15b2:	19 fa                	sbb    %edi,%edx
    15b4:	89 5d c4             	mov    %ebx,-0x3c(%ebp)
    15b7:	52                   	push   %edx
    15b8:	50                   	push   %eax
    15b9:	8b 45 08             	mov    0x8(%ebp),%eax
    15bc:	50                   	push   %eax
    15bd:	e8 ce 1e 00 00       	call   3490 <block_write_direct>
    15c2:	83 c4 20             	add    $0x20,%esp
    15c5:	8b 4d c0             	mov    -0x40(%ebp),%ecx
    15c8:	85 c0                	test   %eax,%eax
    15ca:	8b 5d c4             	mov    -0x3c(%ebp),%ebx
    15cd:	74 b9                	je     1588 <volsrv_part_empty+0x1b8>
    15cf:	8b 5d 08             	mov    0x8(%ebp),%ebx
    15d2:	e9 45 ff ff ff       	jmp    151c <volsrv_part_empty+0x14c>
    15d7:	90                   	nop
    15d8:	8b 5d 08             	mov    0x8(%ebp),%ebx
    15db:	83 ec 0c             	sub    $0xc,%esp
    15de:	53                   	push   %ebx
    15df:	e8 6c 12 00 00       	call   2850 <block_fini>
    15e4:	58                   	pop    %eax
    15e5:	8b 45 d0             	mov    -0x30(%ebp),%eax
    15e8:	50                   	push   %eax
    15e9:	e8 02 2f 00 00       	call   44f0 <free@plt>
    15ee:	83 c4 10             	add    $0x10,%esp
    15f1:	e9 11 fe ff ff       	jmp    1407 <volsrv_part_empty+0x37>
    15f6:	50                   	push   %eax
    15f7:	68 9e 3a 00 00       	push   $0x3a9e
    15fc:	6a 01                	push   $0x1
    15fe:	6a ff                	push   $0xffffffff
    1600:	e8 0b 2d 00 00       	call   4310 <log_msg@plt>
    1605:	83 c4 10             	add    $0x10,%esp
    1608:	c7 45 cc fe ff ff ff 	movl   $0xfffffffe,-0x34(%ebp)
    160f:	e9 30 fe ff ff       	jmp    1444 <volsrv_part_empty+0x74>
    1614:	66 90                	xchg   %ax,%ax
    1616:	66 90                	xchg   %ax,%ax
    1618:	66 90                	xchg   %ax,%ax
    161a:	66 90                	xchg   %ax,%ax
    161c:	66 90                	xchg   %ax,%ax
    161e:	66 90                	xchg   %ax,%ax

00001620 <cmd_runl>:
    1620:	55                   	push   %ebp
    1621:	31 d2                	xor    %edx,%edx
    1623:	89 e5                	mov    %esp,%ebp
    1625:	57                   	push   %edi
    1626:	56                   	push   %esi
    1627:	53                   	push   %ebx
    1628:	83 ec 4c             	sub    $0x4c,%esp
    162b:	8d 4d 0c             	lea    0xc(%ebp),%ecx
    162e:	8b 5d 08             	mov    0x8(%ebp),%ebx
    1631:	89 c8                	mov    %ecx,%eax
    1633:	90                   	nop
    1634:	8d 74 26 00          	lea    0x0(%esi,%eiz,1),%esi
    1638:	83 c0 04             	add    $0x4,%eax
    163b:	8b 70 fc             	mov    -0x4(%eax),%esi
    163e:	42                   	inc    %edx
    163f:	85 f6                	test   %esi,%esi
    1641:	75 f5                	jne    1638 <cmd_runl+0x18>
    1643:	83 ec 0c             	sub    $0xc,%esp
    1646:	8d 45 b8             	lea    -0x48(%ebp),%eax
    1649:	8d 7d c0             	lea    -0x40(%ebp),%edi
    164c:	51                   	push   %ecx
    164d:	52                   	push   %edx
    164e:	53                   	push   %ebx
    164f:	57                   	push   %edi
    1650:	50                   	push   %eax
    1651:	e8 5a 2d 00 00       	call   43b0 <task_spawn@plt>
    1656:	83 c4 20             	add    $0x20,%esp
    1659:	89 c6                	mov    %eax,%esi
    165b:	85 c0                	test   %eax,%eax
    165d:	75 41                	jne    16a0 <cmd_runl+0x80>
    165f:	8b 45 bc             	mov    -0x44(%ebp),%eax
    1662:	0b 45 b8             	or     -0x48(%ebp),%eax
    1665:	0f 84 ad 00 00 00    	je     1718 <cmd_runl+0xf8>
    166b:	8d 45 b4             	lea    -0x4c(%ebp),%eax
    166e:	52                   	push   %edx
    166f:	50                   	push   %eax
    1670:	8d 45 b0             	lea    -0x50(%ebp),%eax
    1673:	50                   	push   %eax
    1674:	57                   	push   %edi
    1675:	e8 e6 2b 00 00       	call   4260 <task_wait@plt>
    167a:	83 c4 10             	add    $0x10,%esp
    167d:	89 c6                	mov    %eax,%esi
    167f:	85 c0                	test   %eax,%eax
    1681:	75 6d                	jne    16f0 <cmd_runl+0xd0>
    1683:	8b 45 b0             	mov    -0x50(%ebp),%eax
    1686:	85 c0                	test   %eax,%eax
    1688:	0f 85 a6 00 00 00    	jne    1734 <cmd_runl+0x114>
    168e:	8b 75 b4             	mov    -0x4c(%ebp),%esi
    1691:	85 f6                	test   %esi,%esi
    1693:	75 33                	jne    16c8 <cmd_runl+0xa8>
    1695:	8d 65 f4             	lea    -0xc(%ebp),%esp
    1698:	89 f0                	mov    %esi,%eax
    169a:	5b                   	pop    %ebx
    169b:	5e                   	pop    %esi
    169c:	5f                   	pop    %edi
    169d:	5d                   	pop    %ebp
    169e:	c3                   	ret    
    169f:	90                   	nop
    16a0:	83 ec 0c             	sub    $0xc,%esp
    16a3:	50                   	push   %eax
    16a4:	e8 d7 2d 00 00       	call   4480 <str_error@plt>
    16a9:	89 04 24             	mov    %eax,(%esp)
    16ac:	53                   	push   %ebx
    16ad:	68 cd 3a 00 00       	push   $0x3acd
    16b2:	6a 01                	push   $0x1
    16b4:	6a ff                	push   $0xffffffff
    16b6:	e8 55 2c 00 00       	call   4310 <log_msg@plt>
    16bb:	83 c4 20             	add    $0x20,%esp
    16be:	8d 65 f4             	lea    -0xc(%ebp),%esp
    16c1:	89 f0                	mov    %esi,%eax
    16c3:	5b                   	pop    %ebx
    16c4:	5e                   	pop    %esi
    16c5:	5f                   	pop    %edi
    16c6:	5d                   	pop    %ebp
    16c7:	c3                   	ret    
    16c8:	83 ec 0c             	sub    $0xc,%esp
    16cb:	56                   	push   %esi
    16cc:	53                   	push   %ebx
    16cd:	68 6c 3b 00 00       	push   $0x3b6c
    16d2:	6a 01                	push   $0x1
    16d4:	6a ff                	push   $0xffffffff
    16d6:	e8 35 2c 00 00       	call   4310 <log_msg@plt>
    16db:	8b 75 b4             	mov    -0x4c(%ebp),%esi
    16de:	83 c4 20             	add    $0x20,%esp
    16e1:	8d 65 f4             	lea    -0xc(%ebp),%esp
    16e4:	89 f0                	mov    %esi,%eax
    16e6:	5b                   	pop    %ebx
    16e7:	5e                   	pop    %esi
    16e8:	5f                   	pop    %edi
    16e9:	5d                   	pop    %ebp
    16ea:	c3                   	ret    
    16eb:	90                   	nop
    16ec:	8d 74 26 00          	lea    0x0(%esi,%eiz,1),%esi
    16f0:	83 ec 0c             	sub    $0xc,%esp
    16f3:	50                   	push   %eax
    16f4:	e8 87 2d 00 00       	call   4480 <str_error@plt>
    16f9:	89 04 24             	mov    %eax,(%esp)
    16fc:	53                   	push   %ebx
    16fd:	68 e4 3a 00 00       	push   $0x3ae4
    1702:	6a 01                	push   $0x1
    1704:	6a ff                	push   $0xffffffff
    1706:	e8 05 2c 00 00       	call   4310 <log_msg@plt>
    170b:	83 c4 20             	add    $0x20,%esp
    170e:	8d 65 f4             	lea    -0xc(%ebp),%esp
    1711:	89 f0                	mov    %esi,%eax
    1713:	5b                   	pop    %ebx
    1714:	5e                   	pop    %esi
    1715:	5f                   	pop    %edi
    1716:	5d                   	pop    %ebp
    1717:	c3                   	ret    
    1718:	53                   	push   %ebx
    1719:	68 24 3b 00 00       	push   $0x3b24
    171e:	6a 01                	push   $0x1
    1720:	6a ff                	push   $0xffffffff
    1722:	be f2 ff ff ff       	mov    $0xfffffff2,%esi
    1727:	e8 e4 2b 00 00       	call   4310 <log_msg@plt>
    172c:	83 c4 10             	add    $0x10,%esp
    172f:	e9 61 ff ff ff       	jmp    1695 <cmd_runl+0x75>
    1734:	53                   	push   %ebx
    1735:	68 48 3b 00 00       	push   $0x3b48
    173a:	eb e2                	jmp    171e <cmd_runl+0xfe>
    173c:	8d 74 26 00          	lea    0x0(%esi,%eiz,1),%esi

00001740 <volsrv_part_mkfs>:
    1740:	55                   	push   %ebp
    1741:	b8 f5 ff ff ff       	mov    $0xfffffff5,%eax
    1746:	89 e5                	mov    %esp,%ebp
    1748:	53                   	push   %ebx
    1749:	83 ec 24             	sub    $0x24,%esp
    174c:	8b 55 0c             	mov    0xc(%ebp),%edx
    174f:	83 fa 02             	cmp    $0x2,%edx
    1752:	77 41                	ja     1795 <volsrv_part_mkfs+0x55>
    1754:	8b 1c 95 98 3b 00 00 	mov    0x3b98(,%edx,4),%ebx
    175b:	85 db                	test   %ebx,%ebx
    175d:	74 36                	je     1795 <volsrv_part_mkfs+0x55>
    175f:	50                   	push   %eax
    1760:	50                   	push   %eax
    1761:	8d 45 f4             	lea    -0xc(%ebp),%eax
    1764:	50                   	push   %eax
    1765:	8b 45 08             	mov    0x8(%ebp),%eax
    1768:	50                   	push   %eax
    1769:	e8 02 2c 00 00       	call   4370 <loc_service_get_name@plt>
    176e:	83 c4 10             	add    $0x10,%esp
    1771:	85 c0                	test   %eax,%eax
    1773:	75 20                	jne    1795 <volsrv_part_mkfs+0x55>
    1775:	8b 45 f4             	mov    -0xc(%ebp),%eax
    1778:	6a 00                	push   $0x0
    177a:	50                   	push   %eax
    177b:	53                   	push   %ebx
    177c:	53                   	push   %ebx
    177d:	e8 9e fe ff ff       	call   1620 <cmd_runl>
    1782:	8b 4d f4             	mov    -0xc(%ebp),%ecx
    1785:	5a                   	pop    %edx
    1786:	51                   	push   %ecx
    1787:	89 45 e4             	mov    %eax,-0x1c(%ebp)
    178a:	e8 61 2d 00 00       	call   44f0 <free@plt>
    178f:	83 c4 10             	add    $0x10,%esp
    1792:	8b 45 e4             	mov    -0x1c(%ebp),%eax
    1795:	8b 5d fc             	mov    -0x4(%ebp),%ebx
    1798:	c9                   	leave  
    1799:	c3                   	ret    
    179a:	66 90                	xchg   %ax,%ax
    179c:	66 90                	xchg   %ax,%ax
    179e:	66 90                	xchg   %ax,%ax

000017a0 <vol_part_add_locked>:
    17a0:	55                   	push   %ebp
    17a1:	89 e5                	mov    %esp,%ebp
    17a3:	56                   	push   %esi
    17a4:	53                   	push   %ebx
    17a5:	89 c3                	mov    %eax,%ebx
    17a7:	83 ec 2c             	sub    $0x2c,%esp
    17aa:	68 78 5e 00 00       	push   $0x5e78
    17af:	e8 cc 2a 00 00       	call   4280 <fibril_mutex_is_locked@plt>
    17b4:	83 c4 10             	add    $0x10,%esp
    17b7:	84 c0                	test   %al,%al
    17b9:	0f 84 55 01 00 00    	je     1914 <vol_part_add_locked+0x174>
    17bf:	a1 8c 5e 00 00       	mov    0x5e8c,%eax
    17c4:	3d 88 5e 00 00       	cmp    $0x5e88,%eax
    17c9:	75 0f                	jne    17da <vol_part_add_locked+0x3a>
    17cb:	eb 23                	jmp    17f0 <vol_part_add_locked+0x50>
    17cd:	8d 76 00             	lea    0x0(%esi),%esi
    17d0:	8b 40 04             	mov    0x4(%eax),%eax
    17d3:	3d 88 5e 00 00       	cmp    $0x5e88,%eax
    17d8:	74 16                	je     17f0 <vol_part_add_locked+0x50>
    17da:	3b 58 08             	cmp    0x8(%eax),%ebx
    17dd:	75 f1                	jne    17d0 <vol_part_add_locked+0x30>
    17df:	b8 f7 ff ff ff       	mov    $0xfffffff7,%eax
    17e4:	8d 65 f8             	lea    -0x8(%ebp),%esp
    17e7:	5b                   	pop    %ebx
    17e8:	5e                   	pop    %esi
    17e9:	5d                   	pop    %ebp
    17ea:	c3                   	ret    
    17eb:	90                   	nop
    17ec:	8d 74 26 00          	lea    0x0(%esi,%eiz,1),%esi
    17f0:	50                   	push   %eax
    17f1:	68 ab 3b 00 00       	push   $0x3bab
    17f6:	6a 04                	push   $0x4
    17f8:	6a ff                	push   $0xffffffff
    17fa:	e8 11 2b 00 00       	call   4310 <log_msg@plt>
    17ff:	58                   	pop    %eax
    1800:	5a                   	pop    %edx
    1801:	6a 18                	push   $0x18
    1803:	6a 01                	push   $0x1
    1805:	e8 86 2b 00 00       	call   4390 <calloc@plt>
    180a:	83 c4 10             	add    $0x10,%esp
    180d:	89 c6                	mov    %eax,%esi
    180f:	85 c0                	test   %eax,%eax
    1811:	0f 84 e1 00 00 00    	je     18f8 <vol_part_add_locked+0x158>
    1817:	c7 00 00 00 00 00    	movl   $0x0,(%eax)
    181d:	c7 40 04 00 00 00 00 	movl   $0x0,0x4(%eax)
    1824:	c7 40 10 00 00 00 00 	movl   $0x0,0x10(%eax)
    182b:	89 58 08             	mov    %ebx,0x8(%eax)
    182e:	50                   	push   %eax
    182f:	50                   	push   %eax
    1830:	8d 46 0c             	lea    0xc(%esi),%eax
    1833:	50                   	push   %eax
    1834:	53                   	push   %ebx
    1835:	e8 36 2b 00 00       	call   4370 <loc_service_get_name@plt>
    183a:	83 c4 10             	add    $0x10,%esp
    183d:	89 45 e4             	mov    %eax,-0x1c(%ebp)
    1840:	85 c0                	test   %eax,%eax
    1842:	74 3c                	je     1880 <vol_part_add_locked+0xe0>
    1844:	51                   	push   %ecx
    1845:	68 c1 3b 00 00       	push   $0x3bc1
    184a:	6a 01                	push   $0x1
    184c:	6a ff                	push   $0xffffffff
    184e:	e8 bd 2a 00 00       	call   4310 <log_msg@plt>
    1853:	83 c4 10             	add    $0x10,%esp
    1856:	83 ec 0c             	sub    $0xc,%esp
    1859:	8b 56 0c             	mov    0xc(%esi),%edx
    185c:	8b 45 e4             	mov    -0x1c(%ebp),%eax
    185f:	52                   	push   %edx
    1860:	89 45 e4             	mov    %eax,-0x1c(%ebp)
    1863:	e8 88 2c 00 00       	call   44f0 <free@plt>
    1868:	89 34 24             	mov    %esi,(%esp)
    186b:	e8 80 2c 00 00       	call   44f0 <free@plt>
    1870:	8b 45 e4             	mov    -0x1c(%ebp),%eax
    1873:	83 c4 10             	add    $0x10,%esp
    1876:	8d 65 f8             	lea    -0x8(%ebp),%esp
    1879:	5b                   	pop    %ebx
    187a:	5e                   	pop    %esi
    187b:	5d                   	pop    %ebp
    187c:	c3                   	ret    
    187d:	8d 76 00             	lea    0x0(%esi),%esi
    1880:	8b 46 0c             	mov    0xc(%esi),%eax
    1883:	50                   	push   %eax
    1884:	68 de 3b 00 00       	push   $0x3bde
    1889:	6a 04                	push   $0x4
    188b:	6a ff                	push   $0xffffffff
    188d:	e8 7e 2a 00 00       	call   4310 <log_msg@plt>
    1892:	58                   	pop    %eax
    1893:	8d 45 f7             	lea    -0x9(%ebp),%eax
    1896:	5a                   	pop    %edx
    1897:	50                   	push   %eax
    1898:	53                   	push   %ebx
    1899:	e8 92 f8 ff ff       	call   1130 <volsrv_part_is_empty>
    189e:	83 c4 10             	add    $0x10,%esp
    18a1:	89 45 e4             	mov    %eax,-0x1c(%ebp)
    18a4:	85 c0                	test   %eax,%eax
    18a6:	75 45                	jne    18ed <vol_part_add_locked+0x14d>
    18a8:	31 d2                	xor    %edx,%edx
    18aa:	8b 46 08             	mov    0x8(%esi),%eax
    18ad:	80 7d f7 00          	cmpb   $0x0,-0x9(%ebp)
    18b1:	0f 94 c2             	sete   %dl
    18b4:	01 d2                	add    %edx,%edx
    18b6:	c7 46 04 88 5e 00 00 	movl   $0x5e88,0x4(%esi)
    18bd:	89 56 10             	mov    %edx,0x10(%esi)
    18c0:	8b 15 88 5e 00 00    	mov    0x5e88,%edx
    18c6:	89 16                	mov    %edx,(%esi)
    18c8:	89 35 88 5e 00 00    	mov    %esi,0x5e88
    18ce:	89 72 04             	mov    %esi,0x4(%edx)
    18d1:	50                   	push   %eax
    18d2:	68 f1 3b 00 00       	push   $0x3bf1
    18d7:	6a 03                	push   $0x3
    18d9:	6a ff                	push   $0xffffffff
    18db:	e8 30 2a 00 00       	call   4310 <log_msg@plt>
    18e0:	8b 45 e4             	mov    -0x1c(%ebp),%eax
    18e3:	83 c4 10             	add    $0x10,%esp
    18e6:	8d 65 f8             	lea    -0x8(%ebp),%esp
    18e9:	5b                   	pop    %ebx
    18ea:	5e                   	pop    %esi
    18eb:	5d                   	pop    %ebp
    18ec:	c3                   	ret    
    18ed:	51                   	push   %ecx
    18ee:	68 cc 3c 00 00       	push   $0x3ccc
    18f3:	e9 52 ff ff ff       	jmp    184a <vol_part_add_locked+0xaa>
    18f8:	50                   	push   %eax
    18f9:	68 94 3c 00 00       	push   $0x3c94
    18fe:	6a 01                	push   $0x1
    1900:	6a ff                	push   $0xffffffff
    1902:	e8 09 2a 00 00       	call   4310 <log_msg@plt>
    1907:	83 c4 10             	add    $0x10,%esp
    190a:	b8 fe ff ff ff       	mov    $0xfffffffe,%eax
    190f:	e9 d0 fe ff ff       	jmp    17e4 <vol_part_add_locked+0x44>
    1914:	51                   	push   %ecx
    1915:	68 88 00 00 00       	push   $0x88
    191a:	68 a4 3b 00 00       	push   $0x3ba4
    191f:	68 6c 3c 00 00       	push   $0x3c6c
    1924:	e8 57 2a 00 00       	call   4380 <assert_abort@plt>
    1929:	8d b4 26 00 00 00 00 	lea    0x0(%esi,%eiz,1),%esi

00001930 <vol_part_check_new>:
    1930:	55                   	push   %ebp
    1931:	89 e5                	mov    %esp,%ebp
    1933:	57                   	push   %edi
    1934:	56                   	push   %esi
    1935:	53                   	push   %ebx
    1936:	83 ec 28             	sub    $0x28,%esp
    1939:	68 78 5e 00 00       	push   $0x5e78
    193e:	e8 bd 2b 00 00       	call   4500 <fibril_mutex_lock@plt>
    1943:	83 c4 0c             	add    $0xc,%esp
    1946:	8d 45 dc             	lea    -0x24(%ebp),%eax
    1949:	6a 01                	push   $0x1
    194b:	50                   	push   %eax
    194c:	68 05 3c 00 00       	push   $0x3c05
    1951:	e8 8a 28 00 00       	call   41e0 <loc_category_get_id@plt>
    1956:	83 c4 10             	add    $0x10,%esp
    1959:	85 c0                	test   %eax,%eax
    195b:	0f 85 ca 00 00 00    	jne    1a2b <vol_part_check_new+0xfb>
    1961:	8d 45 e4             	lea    -0x1c(%ebp),%eax
    1964:	8b 5d dc             	mov    -0x24(%ebp),%ebx
    1967:	51                   	push   %ecx
    1968:	50                   	push   %eax
    1969:	8d 45 e0             	lea    -0x20(%ebp),%eax
    196c:	50                   	push   %eax
    196d:	53                   	push   %ebx
    196e:	e8 ad 2a 00 00       	call   4420 <loc_category_get_svcs@plt>
    1973:	83 c4 10             	add    $0x10,%esp
    1976:	89 c3                	mov    %eax,%ebx
    1978:	85 c0                	test   %eax,%eax
    197a:	0f 85 d6 00 00 00    	jne    1a56 <vol_part_check_new+0x126>
    1980:	8b 4d e4             	mov    -0x1c(%ebp),%ecx
    1983:	31 ff                	xor    %edi,%edi
    1985:	85 c9                	test   %ecx,%ecx
    1987:	74 33                	je     19bc <vol_part_check_new+0x8c>
    1989:	a1 8c 5e 00 00       	mov    0x5e8c,%eax
    198e:	8d 34 bd 00 00 00 00 	lea    0x0(,%edi,4),%esi
    1995:	3d 88 5e 00 00       	cmp    $0x5e88,%eax
    199a:	74 3a                	je     19d6 <vol_part_check_new+0xa6>
    199c:	8b 55 e0             	mov    -0x20(%ebp),%edx
    199f:	8b 14 32             	mov    (%edx,%esi,1),%edx
    19a2:	eb 0e                	jmp    19b2 <vol_part_check_new+0x82>
    19a4:	8d 74 26 00          	lea    0x0(%esi,%eiz,1),%esi
    19a8:	8b 40 04             	mov    0x4(%eax),%eax
    19ab:	3d 88 5e 00 00       	cmp    $0x5e88,%eax
    19b0:	74 2e                	je     19e0 <vol_part_check_new+0xb0>
    19b2:	3b 50 08             	cmp    0x8(%eax),%edx
    19b5:	75 f1                	jne    19a8 <vol_part_check_new+0x78>
    19b7:	47                   	inc    %edi
    19b8:	39 f9                	cmp    %edi,%ecx
    19ba:	77 cd                	ja     1989 <vol_part_check_new+0x59>
    19bc:	83 ec 0c             	sub    $0xc,%esp
    19bf:	68 78 5e 00 00       	push   $0x5e78
    19c4:	e8 07 2a 00 00       	call   43d0 <fibril_mutex_unlock@plt>
    19c9:	83 c4 10             	add    $0x10,%esp
    19cc:	8d 65 f4             	lea    -0xc(%ebp),%esp
    19cf:	89 d8                	mov    %ebx,%eax
    19d1:	5b                   	pop    %ebx
    19d2:	5e                   	pop    %esi
    19d3:	5f                   	pop    %edi
    19d4:	5d                   	pop    %ebp
    19d5:	c3                   	ret    
    19d6:	8b 45 e0             	mov    -0x20(%ebp),%eax
    19d9:	8b 14 30             	mov    (%eax,%esi,1),%edx
    19dc:	8d 74 26 00          	lea    0x0(%esi,%eiz,1),%esi
    19e0:	52                   	push   %edx
    19e1:	68 0f 3c 00 00       	push   $0x3c0f
    19e6:	6a 03                	push   $0x3
    19e8:	6a ff                	push   $0xffffffff
    19ea:	e8 21 29 00 00       	call   4310 <log_msg@plt>
    19ef:	8b 45 e0             	mov    -0x20(%ebp),%eax
    19f2:	8b 04 30             	mov    (%eax,%esi,1),%eax
    19f5:	e8 a6 fd ff ff       	call   17a0 <vol_part_add_locked>
    19fa:	83 c4 10             	add    $0x10,%esp
    19fd:	85 c0                	test   %eax,%eax
    19ff:	75 0a                	jne    1a0b <vol_part_check_new+0xdb>
    1a01:	8b 4d e4             	mov    -0x1c(%ebp),%ecx
    1a04:	47                   	inc    %edi
    1a05:	39 f9                	cmp    %edi,%ecx
    1a07:	77 80                	ja     1989 <vol_part_check_new+0x59>
    1a09:	eb b1                	jmp    19bc <vol_part_check_new+0x8c>
    1a0b:	47                   	inc    %edi
    1a0c:	50                   	push   %eax
    1a0d:	68 25 3c 00 00       	push   $0x3c25
    1a12:	6a 01                	push   $0x1
    1a14:	6a ff                	push   $0xffffffff
    1a16:	e8 f5 28 00 00       	call   4310 <log_msg@plt>
    1a1b:	8b 4d e4             	mov    -0x1c(%ebp),%ecx
    1a1e:	83 c4 10             	add    $0x10,%esp
    1a21:	39 f9                	cmp    %edi,%ecx
    1a23:	0f 87 60 ff ff ff    	ja     1989 <vol_part_check_new+0x59>
    1a29:	eb 91                	jmp    19bc <vol_part_check_new+0x8c>
    1a2b:	56                   	push   %esi
    1a2c:	68 f8 3c 00 00       	push   $0x3cf8
    1a31:	6a 01                	push   $0x1
    1a33:	6a ff                	push   $0xffffffff
    1a35:	e8 d6 28 00 00       	call   4310 <log_msg@plt>
    1a3a:	c7 04 24 78 5e 00 00 	movl   $0x5e78,(%esp)
    1a41:	e8 8a 29 00 00       	call   43d0 <fibril_mutex_unlock@plt>
    1a46:	83 c4 10             	add    $0x10,%esp
    1a49:	8d 65 f4             	lea    -0xc(%ebp),%esp
    1a4c:	83 cb ff             	or     $0xffffffff,%ebx
    1a4f:	89 d8                	mov    %ebx,%eax
    1a51:	5b                   	pop    %ebx
    1a52:	5e                   	pop    %esi
    1a53:	5f                   	pop    %edi
    1a54:	5d                   	pop    %ebp
    1a55:	c3                   	ret    
    1a56:	52                   	push   %edx
    1a57:	68 20 3d 00 00       	push   $0x3d20
    1a5c:	6a 01                	push   $0x1
    1a5e:	6a ff                	push   $0xffffffff
    1a60:	e8 ab 28 00 00       	call   4310 <log_msg@plt>
    1a65:	c7 04 24 78 5e 00 00 	movl   $0x5e78,(%esp)
    1a6c:	e8 5f 29 00 00       	call   43d0 <fibril_mutex_unlock@plt>
    1a71:	83 c4 10             	add    $0x10,%esp
    1a74:	8d 65 f4             	lea    -0xc(%ebp),%esp
    1a77:	bb f6 fe ff ff       	mov    $0xfffffef6,%ebx
    1a7c:	89 d8                	mov    %ebx,%eax
    1a7e:	5b                   	pop    %ebx
    1a7f:	5e                   	pop    %esi
    1a80:	5f                   	pop    %edi
    1a81:	5d                   	pop    %ebp
    1a82:	c3                   	ret    
    1a83:	8d b6 00 00 00 00    	lea    0x0(%esi),%esi
    1a89:	8d bc 27 00 00 00 00 	lea    0x0(%edi,%eiz,1),%edi

00001a90 <vol_part_cat_change_cb>:
    1a90:	55                   	push   %ebp
    1a91:	89 e5                	mov    %esp,%ebp
    1a93:	5d                   	pop    %ebp
    1a94:	e9 97 fe ff ff       	jmp    1930 <vol_part_check_new>
    1a99:	8d b4 26 00 00 00 00 	lea    0x0(%esi,%eiz,1),%esi

00001aa0 <vol_part_add>:
    1aa0:	55                   	push   %ebp
    1aa1:	89 e5                	mov    %esp,%ebp
    1aa3:	83 ec 24             	sub    $0x24,%esp
    1aa6:	68 78 5e 00 00       	push   $0x5e78
    1aab:	e8 50 2a 00 00       	call   4500 <fibril_mutex_lock@plt>
    1ab0:	8b 45 08             	mov    0x8(%ebp),%eax
    1ab3:	e8 e8 fc ff ff       	call   17a0 <vol_part_add_locked>
    1ab8:	c7 04 24 78 5e 00 00 	movl   $0x5e78,(%esp)
    1abf:	89 45 f4             	mov    %eax,-0xc(%ebp)
    1ac2:	e8 09 29 00 00       	call   43d0 <fibril_mutex_unlock@plt>
    1ac7:	8b 45 f4             	mov    -0xc(%ebp),%eax
    1aca:	c9                   	leave  
    1acb:	c3                   	ret    
    1acc:	8d 74 26 00          	lea    0x0(%esi,%eiz,1),%esi

00001ad0 <vol_part_init>:
    1ad0:	55                   	push   %ebp
    1ad1:	31 c0                	xor    %eax,%eax
    1ad3:	89 e5                	mov    %esp,%ebp
    1ad5:	5d                   	pop    %ebp
    1ad6:	c3                   	ret    
    1ad7:	89 f6                	mov    %esi,%esi
    1ad9:	8d bc 27 00 00 00 00 	lea    0x0(%edi,%eiz,1),%edi

00001ae0 <vol_part_discovery_start>:
    1ae0:	55                   	push   %ebp
    1ae1:	89 e5                	mov    %esp,%ebp
    1ae3:	83 ec 24             	sub    $0x24,%esp
    1ae6:	68 90 1a 00 00       	push   $0x1a90
    1aeb:	e8 b0 28 00 00       	call   43a0 <loc_register_cat_change_cb@plt>
    1af0:	83 c4 10             	add    $0x10,%esp
    1af3:	85 c0                	test   %eax,%eax
    1af5:	75 09                	jne    1b00 <vol_part_discovery_start+0x20>
    1af7:	c9                   	leave  
    1af8:	e9 33 fe ff ff       	jmp    1930 <vol_part_check_new>
    1afd:	8d 76 00             	lea    0x0(%esi),%esi
    1b00:	50                   	push   %eax
    1b01:	68 4c 3d 00 00       	push   $0x3d4c
    1b06:	6a 01                	push   $0x1
    1b08:	6a ff                	push   $0xffffffff
    1b0a:	89 45 f4             	mov    %eax,-0xc(%ebp)
    1b0d:	e8 fe 27 00 00       	call   4310 <log_msg@plt>
    1b12:	8b 45 f4             	mov    -0xc(%ebp),%eax
    1b15:	83 c4 10             	add    $0x10,%esp
    1b18:	c9                   	leave  
    1b19:	c3                   	ret    
    1b1a:	8d b6 00 00 00 00    	lea    0x0(%esi),%esi

00001b20 <vol_part_get_ids>:
    1b20:	55                   	push   %ebp
    1b21:	89 e5                	mov    %esp,%ebp
    1b23:	56                   	push   %esi
    1b24:	53                   	push   %ebx
    1b25:	83 ec 0c             	sub    $0xc,%esp
    1b28:	8b 75 08             	mov    0x8(%ebp),%esi
    1b2b:	68 78 5e 00 00       	push   $0x5e78
    1b30:	e8 cb 29 00 00       	call   4500 <fibril_mutex_lock@plt>
    1b35:	8b 5d 0c             	mov    0xc(%ebp),%ebx
    1b38:	c7 04 24 88 5e 00 00 	movl   $0x5e88,(%esp)
    1b3f:	c1 eb 02             	shr    $0x2,%ebx
    1b42:	e8 09 29 00 00       	call   4450 <list_count@plt>
    1b47:	8b 55 10             	mov    0x10(%ebp),%edx
    1b4a:	83 c4 10             	add    $0x10,%esp
    1b4d:	c1 e0 02             	shl    $0x2,%eax
    1b50:	89 02                	mov    %eax,(%edx)
    1b52:	8b 55 0c             	mov    0xc(%ebp),%edx
    1b55:	83 e2 03             	and    $0x3,%edx
    1b58:	75 3c                	jne    1b96 <vol_part_get_ids+0x76>
    1b5a:	a1 8c 5e 00 00       	mov    0x5e8c,%eax
    1b5f:	3d 88 5e 00 00       	cmp    $0x5e88,%eax
    1b64:	74 17                	je     1b7d <vol_part_get_ids+0x5d>
    1b66:	66 90                	xchg   %ax,%ax
    1b68:	39 d3                	cmp    %edx,%ebx
    1b6a:	76 06                	jbe    1b72 <vol_part_get_ids+0x52>
    1b6c:	8b 48 08             	mov    0x8(%eax),%ecx
    1b6f:	89 0c 96             	mov    %ecx,(%esi,%edx,4)
    1b72:	8b 40 04             	mov    0x4(%eax),%eax
    1b75:	42                   	inc    %edx
    1b76:	3d 88 5e 00 00       	cmp    $0x5e88,%eax
    1b7b:	75 eb                	jne    1b68 <vol_part_get_ids+0x48>
    1b7d:	83 ec 0c             	sub    $0xc,%esp
    1b80:	68 78 5e 00 00       	push   $0x5e78
    1b85:	e8 46 28 00 00       	call   43d0 <fibril_mutex_unlock@plt>
    1b8a:	83 c4 10             	add    $0x10,%esp
    1b8d:	31 c0                	xor    %eax,%eax
    1b8f:	8d 65 f8             	lea    -0x8(%ebp),%esp
    1b92:	5b                   	pop    %ebx
    1b93:	5e                   	pop    %esi
    1b94:	5d                   	pop    %ebp
    1b95:	c3                   	ret    
    1b96:	83 ec 0c             	sub    $0xc,%esp
    1b99:	68 78 5e 00 00       	push   $0x5e78
    1b9e:	e8 2d 28 00 00       	call   43d0 <fibril_mutex_unlock@plt>
    1ba3:	83 c4 10             	add    $0x10,%esp
    1ba6:	b8 f2 ff ff ff       	mov    $0xfffffff2,%eax
    1bab:	eb e2                	jmp    1b8f <vol_part_get_ids+0x6f>
    1bad:	8d 76 00             	lea    0x0(%esi),%esi

00001bb0 <vol_part_find_by_id>:
    1bb0:	55                   	push   %ebp
    1bb1:	a1 8c 5e 00 00       	mov    0x5e8c,%eax
    1bb6:	89 e5                	mov    %esp,%ebp
    1bb8:	3d 88 5e 00 00       	cmp    $0x5e88,%eax
    1bbd:	8b 55 08             	mov    0x8(%ebp),%edx
    1bc0:	74 1d                	je     1bdf <vol_part_find_by_id+0x2f>
    1bc2:	3b 50 08             	cmp    0x8(%eax),%edx
    1bc5:	75 0e                	jne    1bd5 <vol_part_find_by_id+0x25>
    1bc7:	eb 1f                	jmp    1be8 <vol_part_find_by_id+0x38>
    1bc9:	8d b4 26 00 00 00 00 	lea    0x0(%esi,%eiz,1),%esi
    1bd0:	39 50 08             	cmp    %edx,0x8(%eax)
    1bd3:	74 13                	je     1be8 <vol_part_find_by_id+0x38>
    1bd5:	8b 40 04             	mov    0x4(%eax),%eax
    1bd8:	3d 88 5e 00 00       	cmp    $0x5e88,%eax
    1bdd:	75 f1                	jne    1bd0 <vol_part_find_by_id+0x20>
    1bdf:	83 c8 ff             	or     $0xffffffff,%eax
    1be2:	5d                   	pop    %ebp
    1be3:	c3                   	ret    
    1be4:	8d 74 26 00          	lea    0x0(%esi,%eiz,1),%esi
    1be8:	8b 55 0c             	mov    0xc(%ebp),%edx
    1beb:	89 02                	mov    %eax,(%edx)
    1bed:	31 c0                	xor    %eax,%eax
    1bef:	5d                   	pop    %ebp
    1bf0:	c3                   	ret    
    1bf1:	eb 0d                	jmp    1c00 <vol_part_empty_part>
    1bf3:	90                   	nop
    1bf4:	90                   	nop
    1bf5:	90                   	nop
    1bf6:	90                   	nop
    1bf7:	90                   	nop
    1bf8:	90                   	nop
    1bf9:	90                   	nop
    1bfa:	90                   	nop
    1bfb:	90                   	nop
    1bfc:	90                   	nop
    1bfd:	90                   	nop
    1bfe:	90                   	nop
    1bff:	90                   	nop

00001c00 <vol_part_empty_part>:
    1c00:	55                   	push   %ebp
    1c01:	89 e5                	mov    %esp,%ebp
    1c03:	53                   	push   %ebx
    1c04:	83 ec 18             	sub    $0x18,%esp
    1c07:	8b 5d 08             	mov    0x8(%ebp),%ebx
    1c0a:	68 3e 3c 00 00       	push   $0x3c3e
    1c0f:	6a 04                	push   $0x4
    1c11:	6a ff                	push   $0xffffffff
    1c13:	e8 f8 26 00 00       	call   4310 <log_msg@plt>
    1c18:	8b 53 08             	mov    0x8(%ebx),%edx
    1c1b:	58                   	pop    %eax
    1c1c:	52                   	push   %edx
    1c1d:	e8 ae f7 ff ff       	call   13d0 <volsrv_part_empty>
    1c22:	83 c4 10             	add    $0x10,%esp
    1c25:	85 c0                	test   %eax,%eax
    1c27:	75 0f                	jne    1c38 <vol_part_empty_part+0x38>
    1c29:	c7 43 10 00 00 00 00 	movl   $0x0,0x10(%ebx)
    1c30:	8b 5d fc             	mov    -0x4(%ebp),%ebx
    1c33:	c9                   	leave  
    1c34:	c3                   	ret    
    1c35:	8d 76 00             	lea    0x0(%esi),%esi
    1c38:	50                   	push   %eax
    1c39:	68 88 3d 00 00       	push   $0x3d88
    1c3e:	6a 04                	push   $0x4
    1c40:	6a ff                	push   $0xffffffff
    1c42:	89 45 f4             	mov    %eax,-0xc(%ebp)
    1c45:	e8 c6 26 00 00       	call   4310 <log_msg@plt>
    1c4a:	8b 45 f4             	mov    -0xc(%ebp),%eax
    1c4d:	83 c4 10             	add    $0x10,%esp
    1c50:	8b 5d fc             	mov    -0x4(%ebp),%ebx
    1c53:	c9                   	leave  
    1c54:	c3                   	ret    
    1c55:	8d 74 26 00          	lea    0x0(%esi,%eiz,1),%esi
    1c59:	8d bc 27 00 00 00 00 	lea    0x0(%edi,%eiz,1),%edi

00001c60 <vol_part_mkfs_part>:
    1c60:	55                   	push   %ebp
    1c61:	89 e5                	mov    %esp,%ebp
    1c63:	56                   	push   %esi
    1c64:	53                   	push   %ebx
    1c65:	83 ec 14             	sub    $0x14,%esp
    1c68:	8b 5d 08             	mov    0x8(%ebp),%ebx
    1c6b:	8b 75 0c             	mov    0xc(%ebp),%esi
    1c6e:	68 54 3c 00 00       	push   $0x3c54
    1c73:	6a 04                	push   $0x4
    1c75:	6a ff                	push   $0xffffffff
    1c77:	e8 94 26 00 00       	call   4310 <log_msg@plt>
    1c7c:	8b 4b 08             	mov    0x8(%ebx),%ecx
    1c7f:	58                   	pop    %eax
    1c80:	5a                   	pop    %edx
    1c81:	56                   	push   %esi
    1c82:	51                   	push   %ecx
    1c83:	e8 b8 fa ff ff       	call   1740 <volsrv_part_mkfs>
    1c88:	83 c4 10             	add    $0x10,%esp
    1c8b:	85 c0                	test   %eax,%eax
    1c8d:	75 11                	jne    1ca0 <vol_part_mkfs_part+0x40>
    1c8f:	c7 43 10 01 00 00 00 	movl   $0x1,0x10(%ebx)
    1c96:	89 73 14             	mov    %esi,0x14(%ebx)
    1c99:	8d 65 f8             	lea    -0x8(%ebp),%esp
    1c9c:	5b                   	pop    %ebx
    1c9d:	5e                   	pop    %esi
    1c9e:	5d                   	pop    %ebp
    1c9f:	c3                   	ret    
    1ca0:	50                   	push   %eax
    1ca1:	68 ac 3d 00 00       	push   $0x3dac
    1ca6:	6a 04                	push   $0x4
    1ca8:	6a ff                	push   $0xffffffff
    1caa:	89 45 f4             	mov    %eax,-0xc(%ebp)
    1cad:	e8 5e 26 00 00       	call   4310 <log_msg@plt>
    1cb2:	8b 45 f4             	mov    -0xc(%ebp),%eax
    1cb5:	83 c4 10             	add    $0x10,%esp
    1cb8:	8d 65 f8             	lea    -0x8(%ebp),%esp
    1cbb:	5b                   	pop    %ebx
    1cbc:	5e                   	pop    %esi
    1cbd:	5d                   	pop    %ebp
    1cbe:	c3                   	ret    
    1cbf:	90                   	nop

00001cc0 <vol_part_get_info>:
    1cc0:	55                   	push   %ebp
    1cc1:	89 e5                	mov    %esp,%ebp
    1cc3:	8b 55 08             	mov    0x8(%ebp),%edx
    1cc6:	8b 45 0c             	mov    0xc(%ebp),%eax
    1cc9:	8b 4a 10             	mov    0x10(%edx),%ecx
    1ccc:	8b 52 14             	mov    0x14(%edx),%edx
    1ccf:	89 08                	mov    %ecx,(%eax)
    1cd1:	89 50 04             	mov    %edx,0x4(%eax)
    1cd4:	5d                   	pop    %ebp
    1cd5:	31 c0                	xor    %eax,%eax
    1cd7:	c3                   	ret    
    1cd8:	66 90                	xchg   %ax,%ax
    1cda:	66 90                	xchg   %ax,%ax
    1cdc:	66 90                	xchg   %ax,%ax
    1cde:	66 90                	xchg   %ax,%ax

00001ce0 <vol_client_conn>:
    1ce0:	55                   	push   %ebp
    1ce1:	89 e5                	mov    %esp,%ebp
    1ce3:	57                   	push   %edi
    1ce4:	56                   	push   %esi
    1ce5:	53                   	push   %ebx
    1ce6:	83 ec 60             	sub    $0x60,%esp
    1ce9:	8d 75 c4             	lea    -0x3c(%ebp),%esi
    1cec:	8d 7d bc             	lea    -0x44(%ebp),%edi
    1cef:	68 cd 3d 00 00       	push   $0x3dcd
    1cf4:	6a 04                	push   $0x4
    1cf6:	6a ff                	push   $0xffffffff
    1cf8:	e8 13 26 00 00       	call   4310 <log_msg@plt>
    1cfd:	8b 4d 08             	mov    0x8(%ebp),%ecx
    1d00:	58                   	pop    %eax
    1d01:	5a                   	pop    %edx
    1d02:	6a 00                	push   $0x0
    1d04:	51                   	push   %ecx
    1d05:	e8 f6 25 00 00       	call   4300 <async_answer_0@plt>
    1d0a:	83 c4 10             	add    $0x10,%esp
    1d0d:	8d 76 00             	lea    0x0(%esi),%esi
    1d10:	50                   	push   %eax
    1d11:	50                   	push   %eax
    1d12:	6a 00                	push   $0x0
    1d14:	56                   	push   %esi
    1d15:	e8 26 27 00 00       	call   4440 <async_get_call_timeout@plt>
    1d1a:	83 c4 10             	add    $0x10,%esp
    1d1d:	89 c3                	mov    %eax,%ebx
    1d1f:	8b 45 c4             	mov    -0x3c(%ebp),%eax
    1d22:	85 c0                	test   %eax,%eax
    1d24:	0f 84 16 02 00 00    	je     1f40 <vol_client_conn+0x260>
    1d2a:	2d 00 04 00 00       	sub    $0x400,%eax
    1d2f:	83 f8 04             	cmp    $0x4,%eax
    1d32:	0f 87 f0 01 00 00    	ja     1f28 <vol_client_conn+0x248>
    1d38:	ff 24 85 34 3e 00 00 	jmp    *0x3e34(,%eax,4)
    1d3f:	90                   	nop
    1d40:	8b 45 c8             	mov    -0x38(%ebp),%eax
    1d43:	50                   	push   %eax
    1d44:	89 45 a4             	mov    %eax,-0x5c(%ebp)
    1d47:	68 f6 3d 00 00       	push   $0x3df6
    1d4c:	6a 04                	push   $0x4
    1d4e:	6a ff                	push   $0xffffffff
    1d50:	e8 bb 25 00 00       	call   4310 <log_msg@plt>
    1d55:	58                   	pop    %eax
    1d56:	8b 45 a4             	mov    -0x5c(%ebp),%eax
    1d59:	5a                   	pop    %edx
    1d5a:	57                   	push   %edi
    1d5b:	50                   	push   %eax
    1d5c:	e8 4f fe ff ff       	call   1bb0 <vol_part_find_by_id>
    1d61:	83 c4 10             	add    $0x10,%esp
    1d64:	85 c0                	test   %eax,%eax
    1d66:	0f 85 a4 01 00 00    	jne    1f10 <vol_client_conn+0x230>
    1d6c:	83 ec 0c             	sub    $0xc,%esp
    1d6f:	8b 4d bc             	mov    -0x44(%ebp),%ecx
    1d72:	51                   	push   %ecx
    1d73:	e8 88 fe ff ff       	call   1c00 <vol_part_empty_part>
    1d78:	83 c4 10             	add    $0x10,%esp
    1d7b:	85 c0                	test   %eax,%eax
    1d7d:	0f 84 b4 00 00 00    	je     1e37 <vol_client_conn+0x157>
    1d83:	52                   	push   %edx
    1d84:	52                   	push   %edx
    1d85:	68 f6 fe ff ff       	push   $0xfffffef6
    1d8a:	53                   	push   %ebx
    1d8b:	e8 70 25 00 00       	call   4300 <async_answer_0@plt>
    1d90:	83 c4 10             	add    $0x10,%esp
    1d93:	e9 78 ff ff ff       	jmp    1d10 <vol_client_conn+0x30>
    1d98:	8b 45 c8             	mov    -0x38(%ebp),%eax
    1d9b:	50                   	push   %eax
    1d9c:	89 45 a4             	mov    %eax,-0x5c(%ebp)
    1d9f:	68 df 3d 00 00       	push   $0x3ddf
    1da4:	6a 04                	push   $0x4
    1da6:	6a ff                	push   $0xffffffff
    1da8:	e8 63 25 00 00       	call   4310 <log_msg@plt>
    1dad:	58                   	pop    %eax
    1dae:	8d 45 b0             	lea    -0x50(%ebp),%eax
    1db1:	5a                   	pop    %edx
    1db2:	50                   	push   %eax
    1db3:	8b 45 a4             	mov    -0x5c(%ebp),%eax
    1db6:	50                   	push   %eax
    1db7:	e8 f4 fd ff ff       	call   1bb0 <vol_part_find_by_id>
    1dbc:	83 c4 10             	add    $0x10,%esp
    1dbf:	85 c0                	test   %eax,%eax
    1dc1:	0f 85 49 01 00 00    	jne    1f10 <vol_client_conn+0x230>
    1dc7:	50                   	push   %eax
    1dc8:	50                   	push   %eax
    1dc9:	8b 45 b0             	mov    -0x50(%ebp),%eax
    1dcc:	57                   	push   %edi
    1dcd:	50                   	push   %eax
    1dce:	e8 ed fe ff ff       	call   1cc0 <vol_part_get_info>
    1dd3:	83 c4 10             	add    $0x10,%esp
    1dd6:	85 c0                	test   %eax,%eax
    1dd8:	75 a9                	jne    1d83 <vol_client_conn+0xa3>
    1dda:	8d 45 b8             	lea    -0x48(%ebp),%eax
    1ddd:	51                   	push   %ecx
    1dde:	51                   	push   %ecx
    1ddf:	50                   	push   %eax
    1de0:	8d 45 b4             	lea    -0x4c(%ebp),%eax
    1de3:	50                   	push   %eax
    1de4:	e8 17 26 00 00       	call   4400 <async_data_read_receive@plt>
    1de9:	83 c4 10             	add    $0x10,%esp
    1dec:	84 c0                	test   %al,%al
    1dee:	0f 84 64 01 00 00    	je     1f58 <vol_client_conn+0x278>
    1df4:	83 7d b8 08          	cmpl   $0x8,-0x48(%ebp)
    1df8:	0f 84 f1 01 00 00    	je     1fef <vol_client_conn+0x30f>
    1dfe:	50                   	push   %eax
    1dff:	50                   	push   %eax
    1e00:	8b 45 b4             	mov    -0x4c(%ebp),%eax
    1e03:	6a f2                	push   $0xfffffff2
    1e05:	50                   	push   %eax
    1e06:	e8 f5 24 00 00       	call   4300 <async_answer_0@plt>
    1e0b:	58                   	pop    %eax
    1e0c:	5a                   	pop    %edx
    1e0d:	6a f2                	push   $0xfffffff2
    1e0f:	53                   	push   %ebx
    1e10:	e8 eb 24 00 00       	call   4300 <async_answer_0@plt>
    1e15:	83 c4 10             	add    $0x10,%esp
    1e18:	e9 f3 fe ff ff       	jmp    1d10 <vol_client_conn+0x30>
    1e1d:	8d 76 00             	lea    0x0(%esi),%esi
    1e20:	83 ec 0c             	sub    $0xc,%esp
    1e23:	8b 4d c8             	mov    -0x38(%ebp),%ecx
    1e26:	51                   	push   %ecx
    1e27:	e8 74 fc ff ff       	call   1aa0 <vol_part_add>
    1e2c:	83 c4 10             	add    $0x10,%esp
    1e2f:	85 c0                	test   %eax,%eax
    1e31:	0f 85 c4 00 00 00    	jne    1efb <vol_client_conn+0x21b>
    1e37:	52                   	push   %edx
    1e38:	52                   	push   %edx
    1e39:	6a 00                	push   $0x0
    1e3b:	53                   	push   %ebx
    1e3c:	e8 bf 24 00 00       	call   4300 <async_answer_0@plt>
    1e41:	83 c4 10             	add    $0x10,%esp
    1e44:	e9 c7 fe ff ff       	jmp    1d10 <vol_client_conn+0x30>
    1e49:	8d b4 26 00 00 00 00 	lea    0x0(%esi,%eiz,1),%esi
    1e50:	50                   	push   %eax
    1e51:	50                   	push   %eax
    1e52:	8d 45 b8             	lea    -0x48(%ebp),%eax
    1e55:	50                   	push   %eax
    1e56:	8d 45 b4             	lea    -0x4c(%ebp),%eax
    1e59:	50                   	push   %eax
    1e5a:	e8 a1 25 00 00       	call   4400 <async_data_read_receive@plt>
    1e5f:	83 c4 10             	add    $0x10,%esp
    1e62:	84 c0                	test   %al,%al
    1e64:	0f 84 ee 00 00 00    	je     1f58 <vol_client_conn+0x278>
    1e6a:	83 ec 0c             	sub    $0xc,%esp
    1e6d:	8b 4d b8             	mov    -0x48(%ebp),%ecx
    1e70:	51                   	push   %ecx
    1e71:	e8 6a 24 00 00       	call   42e0 <malloc@plt>
    1e76:	83 c4 10             	add    $0x10,%esp
    1e79:	89 c2                	mov    %eax,%edx
    1e7b:	85 c0                	test   %eax,%eax
    1e7d:	0f 84 4d 01 00 00    	je     1fd0 <vol_client_conn+0x2f0>
    1e83:	50                   	push   %eax
    1e84:	8b 45 b8             	mov    -0x48(%ebp),%eax
    1e87:	57                   	push   %edi
    1e88:	89 55 a4             	mov    %edx,-0x5c(%ebp)
    1e8b:	50                   	push   %eax
    1e8c:	52                   	push   %edx
    1e8d:	e8 8e fc ff ff       	call   1b20 <vol_part_get_ids>
    1e92:	83 c4 10             	add    $0x10,%esp
    1e95:	89 c1                	mov    %eax,%ecx
    1e97:	85 c0                	test   %eax,%eax
    1e99:	8b 55 a4             	mov    -0x5c(%ebp),%edx
    1e9c:	0f 84 d6 00 00 00    	je     1f78 <vol_client_conn+0x298>
    1ea2:	50                   	push   %eax
    1ea3:	50                   	push   %eax
    1ea4:	8b 45 b4             	mov    -0x4c(%ebp),%eax
    1ea7:	51                   	push   %ecx
    1ea8:	89 4d a4             	mov    %ecx,-0x5c(%ebp)
    1eab:	50                   	push   %eax
    1eac:	e8 4f 24 00 00       	call   4300 <async_answer_0@plt>
    1eb1:	5a                   	pop    %edx
    1eb2:	59                   	pop    %ecx
    1eb3:	8b 4d a4             	mov    -0x5c(%ebp),%ecx
    1eb6:	51                   	push   %ecx
    1eb7:	53                   	push   %ebx
    1eb8:	e8 43 24 00 00       	call   4300 <async_answer_0@plt>
    1ebd:	83 c4 10             	add    $0x10,%esp
    1ec0:	e9 4b fe ff ff       	jmp    1d10 <vol_client_conn+0x30>
    1ec5:	8d 76 00             	lea    0x0(%esi),%esi
    1ec8:	8b 45 cc             	mov    -0x34(%ebp),%eax
    1ecb:	89 45 a4             	mov    %eax,-0x5c(%ebp)
    1ece:	50                   	push   %eax
    1ecf:	50                   	push   %eax
    1ed0:	8b 45 c8             	mov    -0x38(%ebp),%eax
    1ed3:	57                   	push   %edi
    1ed4:	50                   	push   %eax
    1ed5:	e8 d6 fc ff ff       	call   1bb0 <vol_part_find_by_id>
    1eda:	83 c4 10             	add    $0x10,%esp
    1edd:	85 c0                	test   %eax,%eax
    1edf:	75 2f                	jne    1f10 <vol_client_conn+0x230>
    1ee1:	50                   	push   %eax
    1ee2:	50                   	push   %eax
    1ee3:	8b 45 a4             	mov    -0x5c(%ebp),%eax
    1ee6:	50                   	push   %eax
    1ee7:	8b 45 bc             	mov    -0x44(%ebp),%eax
    1eea:	50                   	push   %eax
    1eeb:	e8 70 fd ff ff       	call   1c60 <vol_part_mkfs_part>
    1ef0:	83 c4 10             	add    $0x10,%esp
    1ef3:	85 c0                	test   %eax,%eax
    1ef5:	0f 84 bd 00 00 00    	je     1fb8 <vol_client_conn+0x2d8>
    1efb:	51                   	push   %ecx
    1efc:	51                   	push   %ecx
    1efd:	50                   	push   %eax
    1efe:	53                   	push   %ebx
    1eff:	e8 fc 23 00 00       	call   4300 <async_answer_0@plt>
    1f04:	83 c4 10             	add    $0x10,%esp
    1f07:	e9 04 fe ff ff       	jmp    1d10 <vol_client_conn+0x30>
    1f0c:	8d 74 26 00          	lea    0x0(%esi,%eiz,1),%esi
    1f10:	50                   	push   %eax
    1f11:	50                   	push   %eax
    1f12:	6a ff                	push   $0xffffffff
    1f14:	53                   	push   %ebx
    1f15:	e8 e6 23 00 00       	call   4300 <async_answer_0@plt>
    1f1a:	83 c4 10             	add    $0x10,%esp
    1f1d:	e9 ee fd ff ff       	jmp    1d10 <vol_client_conn+0x30>
    1f22:	8d b6 00 00 00 00    	lea    0x0(%esi),%esi
    1f28:	50                   	push   %eax
    1f29:	50                   	push   %eax
    1f2a:	6a f2                	push   $0xfffffff2
    1f2c:	53                   	push   %ebx
    1f2d:	e8 ce 23 00 00       	call   4300 <async_answer_0@plt>
    1f32:	83 c4 10             	add    $0x10,%esp
    1f35:	e9 d6 fd ff ff       	jmp    1d10 <vol_client_conn+0x30>
    1f3a:	8d b6 00 00 00 00    	lea    0x0(%esi),%esi
    1f40:	50                   	push   %eax
    1f41:	50                   	push   %eax
    1f42:	6a 00                	push   $0x0
    1f44:	53                   	push   %ebx
    1f45:	e8 b6 23 00 00       	call   4300 <async_answer_0@plt>
    1f4a:	8d 65 f4             	lea    -0xc(%ebp),%esp
    1f4d:	5b                   	pop    %ebx
    1f4e:	5e                   	pop    %esi
    1f4f:	5f                   	pop    %edi
    1f50:	5d                   	pop    %ebp
    1f51:	c3                   	ret    
    1f52:	8d b6 00 00 00 00    	lea    0x0(%esi),%esi
    1f58:	8b 45 b4             	mov    -0x4c(%ebp),%eax
    1f5b:	51                   	push   %ecx
    1f5c:	51                   	push   %ecx
    1f5d:	6a fc                	push   $0xfffffffc
    1f5f:	50                   	push   %eax
    1f60:	e8 9b 23 00 00       	call   4300 <async_answer_0@plt>
    1f65:	58                   	pop    %eax
    1f66:	5a                   	pop    %edx
    1f67:	6a fc                	push   $0xfffffffc
    1f69:	53                   	push   %ebx
    1f6a:	e8 91 23 00 00       	call   4300 <async_answer_0@plt>
    1f6f:	83 c4 10             	add    $0x10,%esp
    1f72:	e9 99 fd ff ff       	jmp    1d10 <vol_client_conn+0x30>
    1f77:	90                   	nop
    1f78:	50                   	push   %eax
    1f79:	8b 45 b8             	mov    -0x48(%ebp),%eax
    1f7c:	50                   	push   %eax
    1f7d:	8b 45 b4             	mov    -0x4c(%ebp),%eax
    1f80:	52                   	push   %edx
    1f81:	89 55 a0             	mov    %edx,-0x60(%ebp)
    1f84:	50                   	push   %eax
    1f85:	e8 26 23 00 00       	call   42b0 <async_data_read_finalize@plt>
    1f8a:	8b 55 a0             	mov    -0x60(%ebp),%edx
    1f8d:	89 45 a4             	mov    %eax,-0x5c(%ebp)
    1f90:	89 14 24             	mov    %edx,(%esp)
    1f93:	e8 58 25 00 00       	call   44f0 <free@plt>
    1f98:	83 c4 0c             	add    $0xc,%esp
    1f9b:	8b 45 bc             	mov    -0x44(%ebp),%eax
    1f9e:	50                   	push   %eax
    1f9f:	8b 45 a4             	mov    -0x5c(%ebp),%eax
    1fa2:	50                   	push   %eax
    1fa3:	53                   	push   %ebx
    1fa4:	e8 c7 24 00 00       	call   4470 <async_answer_1@plt>
    1fa9:	83 c4 10             	add    $0x10,%esp
    1fac:	e9 5f fd ff ff       	jmp    1d10 <vol_client_conn+0x30>
    1fb1:	8d b4 26 00 00 00 00 	lea    0x0(%esi,%eiz,1),%esi
    1fb8:	8b 45 bc             	mov    -0x44(%ebp),%eax
    1fbb:	8b 4d a4             	mov    -0x5c(%ebp),%ecx
    1fbe:	c7 40 10 01 00 00 00 	movl   $0x1,0x10(%eax)
    1fc5:	89 48 14             	mov    %ecx,0x14(%eax)
    1fc8:	e9 6a fe ff ff       	jmp    1e37 <vol_client_conn+0x157>
    1fcd:	8d 76 00             	lea    0x0(%esi),%esi
    1fd0:	50                   	push   %eax
    1fd1:	50                   	push   %eax
    1fd2:	8b 45 b4             	mov    -0x4c(%ebp),%eax
    1fd5:	6a fe                	push   $0xfffffffe
    1fd7:	50                   	push   %eax
    1fd8:	e8 23 23 00 00       	call   4300 <async_answer_0@plt>
    1fdd:	58                   	pop    %eax
    1fde:	5a                   	pop    %edx
    1fdf:	6a fe                	push   $0xfffffffe
    1fe1:	53                   	push   %ebx
    1fe2:	e8 19 23 00 00       	call   4300 <async_answer_0@plt>
    1fe7:	83 c4 10             	add    $0x10,%esp
    1fea:	e9 21 fd ff ff       	jmp    1d10 <vol_client_conn+0x30>
    1fef:	8b 45 b4             	mov    -0x4c(%ebp),%eax
    1ff2:	51                   	push   %ecx
    1ff3:	6a 08                	push   $0x8
    1ff5:	57                   	push   %edi
    1ff6:	50                   	push   %eax
    1ff7:	e8 b4 22 00 00       	call   42b0 <async_data_read_finalize@plt>
    1ffc:	83 c4 10             	add    $0x10,%esp
    1fff:	85 c0                	test   %eax,%eax
    2001:	0f 84 30 fe ff ff    	je     1e37 <vol_client_conn+0x157>
    2007:	89 45 a4             	mov    %eax,-0x5c(%ebp)
    200a:	51                   	push   %ecx
    200b:	51                   	push   %ecx
    200c:	50                   	push   %eax
    200d:	8b 45 b4             	mov    -0x4c(%ebp),%eax
    2010:	50                   	push   %eax
    2011:	e8 ea 22 00 00       	call   4300 <async_answer_0@plt>
    2016:	58                   	pop    %eax
    2017:	5a                   	pop    %edx
    2018:	8b 55 a4             	mov    -0x5c(%ebp),%edx
    201b:	52                   	push   %edx
    201c:	53                   	push   %ebx
    201d:	e8 de 22 00 00       	call   4300 <async_answer_0@plt>
    2022:	83 c4 10             	add    $0x10,%esp
    2025:	e9 e6 fc ff ff       	jmp    1d10 <vol_client_conn+0x30>
    202a:	66 90                	xchg   %ax,%ax
    202c:	66 90                	xchg   %ax,%ax
    202e:	66 90                	xchg   %ax,%ax

00002030 <main>:
    2030:	8d 4c 24 04          	lea    0x4(%esp),%ecx
    2034:	83 e4 f0             	and    $0xfffffff0,%esp
    2037:	ff 71 fc             	pushl  -0x4(%ecx)
    203a:	55                   	push   %ebp
    203b:	89 e5                	mov    %esp,%ebp
    203d:	53                   	push   %ebx
    203e:	51                   	push   %ecx
    203f:	83 ec 18             	sub    $0x18,%esp
    2042:	68 0e 3e 00 00       	push   $0x3e0e
    2047:	68 15 3e 00 00       	push   $0x3e15
    204c:	e8 bf 21 00 00       	call   4210 <printf@plt>
    2051:	c7 04 24 0e 3e 00 00 	movl   $0x3e0e,(%esp)
    2058:	e8 e3 21 00 00       	call   4240 <log_init@plt>
    205d:	83 c4 10             	add    $0x10,%esp
    2060:	85 c0                	test   %eax,%eax
    2062:	0f 85 b3 00 00 00    	jne    211b <main+0xeb>
    2068:	53                   	push   %ebx
    2069:	68 29 3e 00 00       	push   $0x3e29
    206e:	6a 04                	push   $0x4
    2070:	6a ff                	push   $0xffffffff
    2072:	e8 99 22 00 00       	call   4310 <log_msg@plt>
    2077:	e8 54 fa ff ff       	call   1ad0 <vol_part_init>
    207c:	83 c4 10             	add    $0x10,%esp
    207f:	85 c0                	test   %eax,%eax
    2081:	74 11                	je     2094 <main+0x64>
    2083:	bb 01 00 00 00       	mov    $0x1,%ebx
    2088:	8d 65 f8             	lea    -0x8(%ebp),%esp
    208b:	89 d8                	mov    %ebx,%eax
    208d:	59                   	pop    %ecx
    208e:	5b                   	pop    %ebx
    208f:	5d                   	pop    %ebp
    2090:	8d 61 fc             	lea    -0x4(%ecx),%esp
    2093:	c3                   	ret    
    2094:	e8 47 fa ff ff       	call   1ae0 <vol_part_discovery_start>
    2099:	85 c0                	test   %eax,%eax
    209b:	75 e6                	jne    2083 <main+0x53>
    209d:	51                   	push   %ecx
    209e:	51                   	push   %ecx
    209f:	6a 00                	push   $0x0
    20a1:	68 e0 1c 00 00       	push   $0x1ce0
    20a6:	e8 25 24 00 00       	call   44d0 <async_set_fallback_port_handler@plt>
    20ab:	c7 04 24 0e 3e 00 00 	movl   $0x3e0e,(%esp)
    20b2:	e8 59 23 00 00       	call   4410 <loc_server_register@plt>
    20b7:	83 c4 10             	add    $0x10,%esp
    20ba:	85 c0                	test   %eax,%eax
    20bc:	0f 85 90 00 00 00    	jne    2152 <main+0x122>
    20c2:	8d 45 f4             	lea    -0xc(%ebp),%eax
    20c5:	52                   	push   %edx
    20c6:	52                   	push   %edx
    20c7:	50                   	push   %eax
    20c8:	68 0e 3e 00 00       	push   $0x3e0e
    20cd:	e8 9e 21 00 00       	call   4270 <loc_service_register@plt>
    20d2:	83 c4 10             	add    $0x10,%esp
    20d5:	89 c3                	mov    %eax,%ebx
    20d7:	85 c0                	test   %eax,%eax
    20d9:	0f 85 8a 00 00 00    	jne    2169 <main+0x139>
    20df:	83 ec 0c             	sub    $0xc,%esp
    20e2:	68 b4 3e 00 00       	push   $0x3eb4
    20e7:	e8 24 21 00 00       	call   4210 <printf@plt>
    20ec:	c7 04 24 00 00 00 00 	movl   $0x0,(%esp)
    20f3:	e8 f8 20 00 00       	call   41f0 <task_retval@plt>
    20f8:	83 c8 ff             	or     $0xffffffff,%eax
    20fb:	f0 0f c1 05 9c 5f 00 	lock xadd %eax,0x5f9c
    2102:	00 
    2103:	83 c4 10             	add    $0x10,%esp
    2106:	48                   	dec    %eax
    2107:	78 2c                	js     2135 <main+0x105>
    2109:	83 ec 0c             	sub    $0xc,%esp
    210c:	6a 03                	push   $0x3
    210e:	e8 9d 23 00 00       	call   44b0 <fibril_switch@plt>
    2113:	83 c4 10             	add    $0x10,%esp
    2116:	e9 6d ff ff ff       	jmp    2088 <main+0x58>
    211b:	83 ec 0c             	sub    $0xc,%esp
    211e:	bb 01 00 00 00       	mov    $0x1,%ebx
    2123:	68 48 3e 00 00       	push   $0x3e48
    2128:	e8 e3 20 00 00       	call   4210 <printf@plt>
    212d:	83 c4 10             	add    $0x10,%esp
    2130:	e9 53 ff ff ff       	jmp    2088 <main+0x58>
    2135:	50                   	push   %eax
    2136:	6a 0b                	push   $0xb
    2138:	6a 00                	push   $0x0
    213a:	6a 00                	push   $0x0
    213c:	6a 00                	push   $0x0
    213e:	6a 00                	push   $0x0
    2140:	6a 00                	push   $0x0
    2142:	68 9c 5f 00 00       	push   $0x5f9c
    2147:	ff 15 98 5f 00 00    	call   *0x5f98
    214d:	83 c4 20             	add    $0x20,%esp
    2150:	eb b7                	jmp    2109 <main+0xd9>
    2152:	50                   	push   %eax
    2153:	68 70 3e 00 00       	push   $0x3e70
    2158:	6a 01                	push   $0x1
    215a:	6a ff                	push   $0xffffffff
    215c:	e8 af 21 00 00       	call   4310 <log_msg@plt>
    2161:	83 c4 10             	add    $0x10,%esp
    2164:	e9 1a ff ff ff       	jmp    2083 <main+0x53>
    2169:	50                   	push   %eax
    216a:	68 90 3e 00 00       	push   $0x3e90
    216f:	6a 01                	push   $0x1
    2171:	6a ff                	push   $0xffffffff
    2173:	e8 98 21 00 00       	call   4310 <log_msg@plt>
    2178:	83 c4 10             	add    $0x10,%esp
    217b:	e9 03 ff ff ff       	jmp    2083 <main+0x53>

00002180 <cache_key_hash>:
    2180:	55                   	push   %ebp
    2181:	89 e5                	mov    %esp,%ebp
    2183:	8b 45 08             	mov    0x8(%ebp),%eax
    2186:	5d                   	pop    %ebp
    2187:	8b 00                	mov    (%eax),%eax
    2189:	c3                   	ret    
    218a:	8d b6 00 00 00 00    	lea    0x0(%esi),%esi

00002190 <cache_hash>:
    2190:	55                   	push   %ebp
    2191:	89 e5                	mov    %esp,%ebp
    2193:	8b 45 08             	mov    0x8(%ebp),%eax
    2196:	5d                   	pop    %ebp
    2197:	8b 40 e0             	mov    -0x20(%eax),%eax
    219a:	c3                   	ret    
    219b:	90                   	nop
    219c:	8d 74 26 00          	lea    0x0(%esi,%eiz,1),%esi

000021a0 <cache_key_equal>:
    21a0:	55                   	push   %ebp
    21a1:	89 e5                	mov    %esp,%ebp
    21a3:	8b 45 0c             	mov    0xc(%ebp),%eax
    21a6:	8b 4d 08             	mov    0x8(%ebp),%ecx
    21a9:	5d                   	pop    %ebp
    21aa:	8b 50 e0             	mov    -0x20(%eax),%edx
    21ad:	8b 40 e4             	mov    -0x1c(%eax),%eax
    21b0:	33 41 04             	xor    0x4(%ecx),%eax
    21b3:	33 11                	xor    (%ecx),%edx
    21b5:	09 c2                	or     %eax,%edx
    21b7:	0f 94 c0             	sete   %al
    21ba:	c3                   	ret    
    21bb:	90                   	nop
    21bc:	8d 74 26 00          	lea    0x0(%esi,%eiz,1),%esi

000021c0 <block_init>:
    21c0:	55                   	push   %ebp
    21c1:	89 e5                	mov    %esp,%ebp
    21c3:	57                   	push   %edi
    21c4:	56                   	push   %esi
    21c5:	53                   	push   %ebx
    21c6:	83 ec 30             	sub    $0x30,%esp
    21c9:	8b 5d 08             	mov    0x8(%ebp),%ebx
    21cc:	6a 01                	push   $0x1
    21ce:	68 21 66 93 ed       	push   $0xed936621
    21d3:	53                   	push   %ebx
    21d4:	e8 27 20 00 00       	call   4200 <loc_service_connect@plt>
    21d9:	83 c4 10             	add    $0x10,%esp
    21dc:	85 c0                	test   %eax,%eax
    21de:	0f 84 95 01 00 00    	je     2379 <block_init+0x1b9>
    21e4:	89 c7                	mov    %eax,%edi
    21e6:	50                   	push   %eax
    21e7:	50                   	push   %eax
    21e8:	8d 45 d8             	lea    -0x28(%ebp),%eax
    21eb:	50                   	push   %eax
    21ec:	57                   	push   %edi
    21ed:	e8 fe 20 00 00       	call   42f0 <bd_open@plt>
    21f2:	83 c4 10             	add    $0x10,%esp
    21f5:	89 c6                	mov    %eax,%esi
    21f7:	85 c0                	test   %eax,%eax
    21f9:	0f 85 31 01 00 00    	jne    2330 <block_init+0x170>
    21ff:	8d 45 dc             	lea    -0x24(%ebp),%eax
    2202:	56                   	push   %esi
    2203:	56                   	push   %esi
    2204:	50                   	push   %eax
    2205:	8b 45 d8             	mov    -0x28(%ebp),%eax
    2208:	50                   	push   %eax
    2209:	e8 22 22 00 00       	call   4430 <bd_get_block_size@plt>
    220e:	83 c4 10             	add    $0x10,%esp
    2211:	89 c6                	mov    %eax,%esi
    2213:	85 c0                	test   %eax,%eax
    2215:	0f 85 f0 00 00 00    	jne    230b <block_init+0x14b>
    221b:	8d 45 e0             	lea    -0x20(%ebp),%eax
    221e:	8b 4d d8             	mov    -0x28(%ebp),%ecx
    2221:	52                   	push   %edx
    2222:	52                   	push   %edx
    2223:	50                   	push   %eax
    2224:	51                   	push   %ecx
    2225:	e8 76 20 00 00       	call   42a0 <bd_get_num_blocks@plt>
    222a:	83 c4 10             	add    $0x10,%esp
    222d:	89 c6                	mov    %eax,%esi
    222f:	85 c0                	test   %eax,%eax
    2231:	0f 85 d4 00 00 00    	jne    230b <block_init+0x14b>
    2237:	83 ec 0c             	sub    $0xc,%esp
    223a:	8b 55 e4             	mov    -0x1c(%ebp),%edx
    223d:	8b 4d d8             	mov    -0x28(%ebp),%ecx
    2240:	8b 45 e0             	mov    -0x20(%ebp),%eax
    2243:	89 55 d4             	mov    %edx,-0x2c(%ebp)
    2246:	8b 55 dc             	mov    -0x24(%ebp),%edx
    2249:	6a 30                	push   $0x30
    224b:	89 4d c8             	mov    %ecx,-0x38(%ebp)
    224e:	89 45 d0             	mov    %eax,-0x30(%ebp)
    2251:	89 55 cc             	mov    %edx,-0x34(%ebp)
    2254:	e8 87 20 00 00       	call   42e0 <malloc@plt>
    2259:	83 c4 10             	add    $0x10,%esp
    225c:	85 c0                	test   %eax,%eax
    225e:	0f 84 1a 01 00 00    	je     237e <block_init+0x1be>
    2264:	8b 4d c8             	mov    -0x38(%ebp),%ecx
    2267:	8b 55 cc             	mov    -0x34(%ebp),%edx
    226a:	89 48 10             	mov    %ecx,0x10(%eax)
    226d:	89 50 28             	mov    %edx,0x28(%eax)
    2270:	83 ec 0c             	sub    $0xc,%esp
    2273:	8b 55 d0             	mov    -0x30(%ebp),%edx
    2276:	8b 4d d4             	mov    -0x2c(%ebp),%ecx
    2279:	89 50 20             	mov    %edx,0x20(%eax)
    227c:	c7 00 00 00 00 00    	movl   $0x0,(%eax)
    2282:	c7 40 04 00 00 00 00 	movl   $0x0,0x4(%eax)
    2289:	89 58 08             	mov    %ebx,0x8(%eax)
    228c:	89 78 0c             	mov    %edi,0xc(%eax)
    228f:	c7 40 14 00 00 00 00 	movl   $0x0,0x14(%eax)
    2296:	c7 40 18 00 00 00 00 	movl   $0x0,0x18(%eax)
    229d:	c7 40 1c 00 00 00 00 	movl   $0x0,0x1c(%eax)
    22a4:	89 48 24             	mov    %ecx,0x24(%eax)
    22a7:	c7 40 2c 00 00 00 00 	movl   $0x0,0x2c(%eax)
    22ae:	89 45 d0             	mov    %eax,-0x30(%ebp)
    22b1:	68 ac 5e 00 00       	push   $0x5eac
    22b6:	e8 45 22 00 00       	call   4500 <fibril_mutex_lock@plt>
    22bb:	8b 15 a8 5e 00 00    	mov    0x5ea8,%edx
    22c1:	83 c4 10             	add    $0x10,%esp
    22c4:	8b 45 d0             	mov    -0x30(%ebp),%eax
    22c7:	81 fa a4 5e 00 00    	cmp    $0x5ea4,%edx
    22cd:	75 14                	jne    22e3 <block_init+0x123>
    22cf:	eb 77                	jmp    2348 <block_init+0x188>
    22d1:	8d b4 26 00 00 00 00 	lea    0x0(%esi,%eiz,1),%esi
    22d8:	8b 52 04             	mov    0x4(%edx),%edx
    22db:	81 fa a4 5e 00 00    	cmp    $0x5ea4,%edx
    22e1:	74 65                	je     2348 <block_init+0x188>
    22e3:	3b 5a 08             	cmp    0x8(%edx),%ebx
    22e6:	75 f0                	jne    22d8 <block_init+0x118>
    22e8:	83 ec 0c             	sub    $0xc,%esp
    22eb:	89 45 d0             	mov    %eax,-0x30(%ebp)
    22ee:	be f7 ff ff ff       	mov    $0xfffffff7,%esi
    22f3:	68 ac 5e 00 00       	push   $0x5eac
    22f8:	e8 d3 20 00 00       	call   43d0 <fibril_mutex_unlock@plt>
    22fd:	8b 45 d0             	mov    -0x30(%ebp),%eax
    2300:	89 04 24             	mov    %eax,(%esp)
    2303:	e8 e8 21 00 00       	call   44f0 <free@plt>
    2308:	83 c4 10             	add    $0x10,%esp
    230b:	83 ec 0c             	sub    $0xc,%esp
    230e:	8b 45 d8             	mov    -0x28(%ebp),%eax
    2311:	50                   	push   %eax
    2312:	e8 a9 1f 00 00       	call   42c0 <bd_close@plt>
    2317:	89 3c 24             	mov    %edi,(%esp)
    231a:	e8 01 1f 00 00       	call   4220 <async_hangup@plt>
    231f:	83 c4 10             	add    $0x10,%esp
    2322:	8d 65 f4             	lea    -0xc(%ebp),%esp
    2325:	89 f0                	mov    %esi,%eax
    2327:	5b                   	pop    %ebx
    2328:	5e                   	pop    %esi
    2329:	5f                   	pop    %edi
    232a:	5d                   	pop    %ebp
    232b:	c3                   	ret    
    232c:	8d 74 26 00          	lea    0x0(%esi,%eiz,1),%esi
    2330:	83 ec 0c             	sub    $0xc,%esp
    2333:	57                   	push   %edi
    2334:	e8 e7 1e 00 00       	call   4220 <async_hangup@plt>
    2339:	83 c4 10             	add    $0x10,%esp
    233c:	8d 65 f4             	lea    -0xc(%ebp),%esp
    233f:	89 f0                	mov    %esi,%eax
    2341:	5b                   	pop    %ebx
    2342:	5e                   	pop    %esi
    2343:	5f                   	pop    %edi
    2344:	5d                   	pop    %ebp
    2345:	c3                   	ret    
    2346:	66 90                	xchg   %ax,%ax
    2348:	8b 15 a4 5e 00 00    	mov    0x5ea4,%edx
    234e:	83 ec 0c             	sub    $0xc,%esp
    2351:	c7 40 04 a4 5e 00 00 	movl   $0x5ea4,0x4(%eax)
    2358:	89 10                	mov    %edx,(%eax)
    235a:	89 42 04             	mov    %eax,0x4(%edx)
    235d:	68 ac 5e 00 00       	push   $0x5eac
    2362:	a3 a4 5e 00 00       	mov    %eax,0x5ea4
    2367:	e8 64 20 00 00       	call   43d0 <fibril_mutex_unlock@plt>
    236c:	83 c4 10             	add    $0x10,%esp
    236f:	8d 65 f4             	lea    -0xc(%ebp),%esp
    2372:	89 f0                	mov    %esi,%eax
    2374:	5b                   	pop    %ebx
    2375:	5e                   	pop    %esi
    2376:	5f                   	pop    %edi
    2377:	5d                   	pop    %ebp
    2378:	c3                   	ret    
    2379:	83 ce ff             	or     $0xffffffff,%esi
    237c:	eb a4                	jmp    2322 <block_init+0x162>
    237e:	be fe ff ff ff       	mov    $0xfffffffe,%esi
    2383:	eb 86                	jmp    230b <block_init+0x14b>
    2385:	8d 74 26 00          	lea    0x0(%esi,%eiz,1),%esi
    2389:	8d bc 27 00 00 00 00 	lea    0x0(%edi,%eiz,1),%edi

00002390 <block_bb_read>:
    2390:	55                   	push   %ebp
    2391:	89 e5                	mov    %esp,%ebp
    2393:	57                   	push   %edi
    2394:	56                   	push   %esi
    2395:	53                   	push   %ebx
    2396:	83 ec 28             	sub    $0x28,%esp
    2399:	8b 45 08             	mov    0x8(%ebp),%eax
    239c:	8b 75 0c             	mov    0xc(%ebp),%esi
    239f:	68 ac 5e 00 00       	push   $0x5eac
    23a4:	89 45 e4             	mov    %eax,-0x1c(%ebp)
    23a7:	8b 7d 10             	mov    0x10(%ebp),%edi
    23aa:	e8 51 21 00 00       	call   4500 <fibril_mutex_lock@plt>
    23af:	8b 1d a8 5e 00 00    	mov    0x5ea8,%ebx
    23b5:	83 c4 10             	add    $0x10,%esp
    23b8:	81 fb a4 5e 00 00    	cmp    $0x5ea4,%ebx
    23be:	74 20                	je     23e0 <block_bb_read+0x50>
    23c0:	8b 45 e4             	mov    -0x1c(%ebp),%eax
    23c3:	3b 43 08             	cmp    0x8(%ebx),%eax
    23c6:	75 0d                	jne    23d5 <block_bb_read+0x45>
    23c8:	eb 36                	jmp    2400 <block_bb_read+0x70>
    23ca:	8d b6 00 00 00 00    	lea    0x0(%esi),%esi
    23d0:	3b 43 08             	cmp    0x8(%ebx),%eax
    23d3:	74 2b                	je     2400 <block_bb_read+0x70>
    23d5:	8b 5b 04             	mov    0x4(%ebx),%ebx
    23d8:	81 fb a4 5e 00 00    	cmp    $0x5ea4,%ebx
    23de:	75 f0                	jne    23d0 <block_bb_read+0x40>
    23e0:	83 ec 0c             	sub    $0xc,%esp
    23e3:	68 ac 5e 00 00       	push   $0x5eac
    23e8:	e8 e3 1f 00 00       	call   43d0 <fibril_mutex_unlock@plt>
    23ed:	83 c4 10             	add    $0x10,%esp
    23f0:	83 ca ff             	or     $0xffffffff,%edx
    23f3:	8d 65 f4             	lea    -0xc(%ebp),%esp
    23f6:	89 d0                	mov    %edx,%eax
    23f8:	5b                   	pop    %ebx
    23f9:	5e                   	pop    %esi
    23fa:	5f                   	pop    %edi
    23fb:	5d                   	pop    %ebp
    23fc:	c3                   	ret    
    23fd:	8d 76 00             	lea    0x0(%esi),%esi
    2400:	83 ec 0c             	sub    $0xc,%esp
    2403:	68 ac 5e 00 00       	push   $0x5eac
    2408:	e8 c3 1f 00 00       	call   43d0 <fibril_mutex_unlock@plt>
    240d:	8b 43 14             	mov    0x14(%ebx),%eax
    2410:	83 c4 10             	add    $0x10,%esp
    2413:	85 c0                	test   %eax,%eax
    2415:	0f 85 9d 00 00 00    	jne    24b8 <block_bb_read+0x128>
    241b:	83 ec 0c             	sub    $0xc,%esp
    241e:	8b 43 28             	mov    0x28(%ebx),%eax
    2421:	50                   	push   %eax
    2422:	e8 b9 1e 00 00       	call   42e0 <malloc@plt>
    2427:	83 c4 10             	add    $0x10,%esp
    242a:	89 c1                	mov    %eax,%ecx
    242c:	85 c0                	test   %eax,%eax
    242e:	0f 84 93 00 00 00    	je     24c7 <block_bb_read+0x137>
    2434:	50                   	push   %eax
    2435:	50                   	push   %eax
    2436:	8b 43 28             	mov    0x28(%ebx),%eax
    2439:	89 4d e4             	mov    %ecx,-0x1c(%ebp)
    243c:	50                   	push   %eax
    243d:	51                   	push   %ecx
    243e:	8b 43 10             	mov    0x10(%ebx),%eax
    2441:	6a 01                	push   $0x1
    2443:	6a 00                	push   $0x0
    2445:	6a 00                	push   $0x0
    2447:	50                   	push   %eax
    2448:	e8 03 1f 00 00       	call   4350 <bd_read_blocks@plt>
    244d:	83 c4 20             	add    $0x20,%esp
    2450:	89 c2                	mov    %eax,%edx
    2452:	85 c0                	test   %eax,%eax
    2454:	8b 4d e4             	mov    -0x1c(%ebp),%ecx
    2457:	75 17                	jne    2470 <block_bb_read+0xe0>
    2459:	89 4b 14             	mov    %ecx,0x14(%ebx)
    245c:	89 73 18             	mov    %esi,0x18(%ebx)
    245f:	89 7b 1c             	mov    %edi,0x1c(%ebx)
    2462:	8d 65 f4             	lea    -0xc(%ebp),%esp
    2465:	89 d0                	mov    %edx,%eax
    2467:	5b                   	pop    %ebx
    2468:	5e                   	pop    %esi
    2469:	5f                   	pop    %edi
    246a:	5d                   	pop    %ebp
    246b:	c3                   	ret    
    246c:	8d 74 26 00          	lea    0x0(%esi,%eiz,1),%esi
    2470:	50                   	push   %eax
    2471:	50                   	push   %eax
    2472:	89 4d e0             	mov    %ecx,-0x20(%ebp)
    2475:	8b 4b 08             	mov    0x8(%ebx),%ecx
    2478:	51                   	push   %ecx
    2479:	6a 00                	push   $0x0
    247b:	6a 00                	push   $0x0
    247d:	6a 01                	push   $0x1
    247f:	52                   	push   %edx
    2480:	68 24 3f 00 00       	push   $0x3f24
    2485:	89 55 e4             	mov    %edx,-0x1c(%ebp)
    2488:	e8 83 1d 00 00       	call   4210 <printf@plt>
    248d:	83 c4 20             	add    $0x20,%esp
    2490:	e8 8b 1e 00 00       	call   4320 <stacktrace_print@plt>
    2495:	83 ec 0c             	sub    $0xc,%esp
    2498:	8b 4d e0             	mov    -0x20(%ebp),%ecx
    249b:	51                   	push   %ecx
    249c:	e8 4f 20 00 00       	call   44f0 <free@plt>
    24a1:	8b 55 e4             	mov    -0x1c(%ebp),%edx
    24a4:	83 c4 10             	add    $0x10,%esp
    24a7:	8d 65 f4             	lea    -0xc(%ebp),%esp
    24aa:	89 d0                	mov    %edx,%eax
    24ac:	5b                   	pop    %ebx
    24ad:	5e                   	pop    %esi
    24ae:	5f                   	pop    %edi
    24af:	5d                   	pop    %ebp
    24b0:	c3                   	ret    
    24b1:	8d b4 26 00 00 00 00 	lea    0x0(%esi,%eiz,1),%esi
    24b8:	8d 65 f4             	lea    -0xc(%ebp),%esp
    24bb:	ba f7 ff ff ff       	mov    $0xfffffff7,%edx
    24c0:	89 d0                	mov    %edx,%eax
    24c2:	5b                   	pop    %ebx
    24c3:	5e                   	pop    %esi
    24c4:	5f                   	pop    %edi
    24c5:	5d                   	pop    %ebp
    24c6:	c3                   	ret    
    24c7:	ba fe ff ff ff       	mov    $0xfffffffe,%edx
    24cc:	e9 22 ff ff ff       	jmp    23f3 <block_bb_read+0x63>
    24d1:	eb 0d                	jmp    24e0 <block_bb_get>
    24d3:	90                   	nop
    24d4:	90                   	nop
    24d5:	90                   	nop
    24d6:	90                   	nop
    24d7:	90                   	nop
    24d8:	90                   	nop
    24d9:	90                   	nop
    24da:	90                   	nop
    24db:	90                   	nop
    24dc:	90                   	nop
    24dd:	90                   	nop
    24de:	90                   	nop
    24df:	90                   	nop

000024e0 <block_bb_get>:
    24e0:	55                   	push   %ebp
    24e1:	89 e5                	mov    %esp,%ebp
    24e3:	56                   	push   %esi
    24e4:	53                   	push   %ebx
    24e5:	83 ec 0c             	sub    $0xc,%esp
    24e8:	8b 75 08             	mov    0x8(%ebp),%esi
    24eb:	68 ac 5e 00 00       	push   $0x5eac
    24f0:	e8 0b 20 00 00       	call   4500 <fibril_mutex_lock@plt>
    24f5:	8b 1d a8 5e 00 00    	mov    0x5ea8,%ebx
    24fb:	83 c4 10             	add    $0x10,%esp
    24fe:	81 fb a4 5e 00 00    	cmp    $0x5ea4,%ebx
    2504:	75 0d                	jne    2513 <block_bb_get+0x33>
    2506:	eb 28                	jmp    2530 <block_bb_get+0x50>
    2508:	8b 5b 04             	mov    0x4(%ebx),%ebx
    250b:	81 fb a4 5e 00 00    	cmp    $0x5ea4,%ebx
    2511:	74 1d                	je     2530 <block_bb_get+0x50>
    2513:	3b 73 08             	cmp    0x8(%ebx),%esi
    2516:	75 f0                	jne    2508 <block_bb_get+0x28>
    2518:	83 ec 0c             	sub    $0xc,%esp
    251b:	68 ac 5e 00 00       	push   $0x5eac
    2520:	e8 ab 1e 00 00       	call   43d0 <fibril_mutex_unlock@plt>
    2525:	8b 43 14             	mov    0x14(%ebx),%eax
    2528:	8d 65 f8             	lea    -0x8(%ebp),%esp
    252b:	5b                   	pop    %ebx
    252c:	5e                   	pop    %esi
    252d:	5d                   	pop    %ebp
    252e:	c3                   	ret    
    252f:	90                   	nop
    2530:	83 ec 0c             	sub    $0xc,%esp
    2533:	68 ac 5e 00 00       	push   $0x5eac
    2538:	e8 93 1e 00 00       	call   43d0 <fibril_mutex_unlock@plt>
    253d:	83 c4 0c             	add    $0xc,%esp
    2540:	68 ee 00 00 00       	push   $0xee
    2545:	68 d4 3e 00 00       	push   $0x3ed4
    254a:	68 dc 3e 00 00       	push   $0x3edc
    254f:	e8 2c 1e 00 00       	call   4380 <assert_abort@plt>
    2554:	8d b6 00 00 00 00    	lea    0x0(%esi),%esi
    255a:	8d bf 00 00 00 00    	lea    0x0(%edi),%edi

00002560 <block_cache_init>:
    2560:	55                   	push   %ebp
    2561:	89 e5                	mov    %esp,%ebp
    2563:	56                   	push   %esi
    2564:	53                   	push   %ebx
    2565:	83 ec 0c             	sub    $0xc,%esp
    2568:	8b 75 08             	mov    0x8(%ebp),%esi
    256b:	68 ac 5e 00 00       	push   $0x5eac
    2570:	e8 8b 1f 00 00       	call   4500 <fibril_mutex_lock@plt>
    2575:	8b 1d a8 5e 00 00    	mov    0x5ea8,%ebx
    257b:	83 c4 10             	add    $0x10,%esp
    257e:	81 fb a4 5e 00 00    	cmp    $0x5ea4,%ebx
    2584:	75 19                	jne    259f <block_cache_init+0x3f>
    2586:	e9 ad 00 00 00       	jmp    2638 <block_cache_init+0xd8>
    258b:	90                   	nop
    258c:	8d 74 26 00          	lea    0x0(%esi,%eiz,1),%esi
    2590:	8b 5b 04             	mov    0x4(%ebx),%ebx
    2593:	81 fb a4 5e 00 00    	cmp    $0x5ea4,%ebx
    2599:	0f 84 99 00 00 00    	je     2638 <block_cache_init+0xd8>
    259f:	3b 73 08             	cmp    0x8(%ebx),%esi
    25a2:	75 ec                	jne    2590 <block_cache_init+0x30>
    25a4:	83 ec 0c             	sub    $0xc,%esp
    25a7:	68 ac 5e 00 00       	push   $0x5eac
    25ac:	e8 1f 1e 00 00       	call   43d0 <fibril_mutex_unlock@plt>
    25b1:	8b 43 2c             	mov    0x2c(%ebx),%eax
    25b4:	83 c4 10             	add    $0x10,%esp
    25b7:	85 c0                	test   %eax,%eax
    25b9:	0f 85 99 00 00 00    	jne    2658 <block_cache_init+0xf8>
    25bf:	83 ec 0c             	sub    $0xc,%esp
    25c2:	6a 48                	push   $0x48
    25c4:	e8 17 1d 00 00       	call   42e0 <malloc@plt>
    25c9:	83 c4 10             	add    $0x10,%esp
    25cc:	89 c6                	mov    %eax,%esi
    25ce:	85 c0                	test   %eax,%eax
    25d0:	0f 84 b4 00 00 00    	je     268a <block_cache_init+0x12a>
    25d6:	83 ec 0c             	sub    $0xc,%esp
    25d9:	50                   	push   %eax
    25da:	e8 01 1e 00 00       	call   43e0 <fibril_mutex_initialize@plt>
    25df:	8d 46 3c             	lea    0x3c(%esi),%eax
    25e2:	31 d2                	xor    %edx,%edx
    25e4:	89 46 3c             	mov    %eax,0x3c(%esi)
    25e7:	89 46 40             	mov    %eax,0x40(%esi)
    25ea:	8b 45 0c             	mov    0xc(%ebp),%eax
    25ed:	83 c4 10             	add    $0x10,%esp
    25f0:	89 46 10             	mov    %eax,0x10(%esi)
    25f3:	8b 45 10             	mov    0x10(%ebp),%eax
    25f6:	89 46 18             	mov    %eax,0x18(%esi)
    25f9:	8b 45 14             	mov    0x14(%ebp),%eax
    25fc:	89 46 44             	mov    %eax,0x44(%esi)
    25ff:	8b 45 0c             	mov    0xc(%ebp),%eax
    2602:	f7 73 28             	divl   0x28(%ebx)
    2605:	c7 46 1c 00 00 00 00 	movl   $0x0,0x1c(%esi)
    260c:	85 d2                	test   %edx,%edx
    260e:	75 54                	jne    2664 <block_cache_init+0x104>
    2610:	89 46 14             	mov    %eax,0x14(%esi)
    2613:	8d 46 20             	lea    0x20(%esi),%eax
    2616:	68 90 5e 00 00       	push   $0x5e90
    261b:	6a 00                	push   $0x0
    261d:	6a 00                	push   $0x0
    261f:	50                   	push   %eax
    2620:	e8 0b 1c 00 00       	call   4230 <hash_table_create@plt>
    2625:	83 c4 10             	add    $0x10,%esp
    2628:	84 c0                	test   %al,%al
    262a:	74 4b                	je     2677 <block_cache_init+0x117>
    262c:	89 73 2c             	mov    %esi,0x2c(%ebx)
    262f:	31 c0                	xor    %eax,%eax
    2631:	8d 65 f8             	lea    -0x8(%ebp),%esp
    2634:	5b                   	pop    %ebx
    2635:	5e                   	pop    %esi
    2636:	5d                   	pop    %ebp
    2637:	c3                   	ret    
    2638:	83 ec 0c             	sub    $0xc,%esp
    263b:	68 ac 5e 00 00       	push   $0x5eac
    2640:	e8 8b 1d 00 00       	call   43d0 <fibril_mutex_unlock@plt>
    2645:	83 c4 10             	add    $0x10,%esp
    2648:	8d 65 f8             	lea    -0x8(%ebp),%esp
    264b:	83 c8 ff             	or     $0xffffffff,%eax
    264e:	5b                   	pop    %ebx
    264f:	5e                   	pop    %esi
    2650:	5d                   	pop    %ebp
    2651:	c3                   	ret    
    2652:	8d b6 00 00 00 00    	lea    0x0(%esi),%esi
    2658:	8d 65 f8             	lea    -0x8(%ebp),%esp
    265b:	b8 f7 ff ff ff       	mov    $0xfffffff7,%eax
    2660:	5b                   	pop    %ebx
    2661:	5e                   	pop    %esi
    2662:	5d                   	pop    %ebp
    2663:	c3                   	ret    
    2664:	83 ec 0c             	sub    $0xc,%esp
    2667:	56                   	push   %esi
    2668:	e8 83 1e 00 00       	call   44f0 <free@plt>
    266d:	83 c4 10             	add    $0x10,%esp
    2670:	b8 f5 ff ff ff       	mov    $0xfffffff5,%eax
    2675:	eb ba                	jmp    2631 <block_cache_init+0xd1>
    2677:	83 ec 0c             	sub    $0xc,%esp
    267a:	56                   	push   %esi
    267b:	e8 70 1e 00 00       	call   44f0 <free@plt>
    2680:	83 c4 10             	add    $0x10,%esp
    2683:	b8 fe ff ff ff       	mov    $0xfffffffe,%eax
    2688:	eb a7                	jmp    2631 <block_cache_init+0xd1>
    268a:	b8 fe ff ff ff       	mov    $0xfffffffe,%eax
    268f:	eb a0                	jmp    2631 <block_cache_init+0xd1>
    2691:	eb 0d                	jmp    26a0 <block_cache_fini>
    2693:	90                   	nop
    2694:	90                   	nop
    2695:	90                   	nop
    2696:	90                   	nop
    2697:	90                   	nop
    2698:	90                   	nop
    2699:	90                   	nop
    269a:	90                   	nop
    269b:	90                   	nop
    269c:	90                   	nop
    269d:	90                   	nop
    269e:	90                   	nop
    269f:	90                   	nop

000026a0 <block_cache_fini>:
    26a0:	55                   	push   %ebp
    26a1:	89 e5                	mov    %esp,%ebp
    26a3:	57                   	push   %edi
    26a4:	56                   	push   %esi
    26a5:	53                   	push   %ebx
    26a6:	83 ec 38             	sub    $0x38,%esp
    26a9:	8b 5d 08             	mov    0x8(%ebp),%ebx
    26ac:	68 ac 5e 00 00       	push   $0x5eac
    26b1:	e8 4a 1e 00 00       	call   4500 <fibril_mutex_lock@plt>
    26b6:	8b 3d a8 5e 00 00    	mov    0x5ea8,%edi
    26bc:	83 c4 10             	add    $0x10,%esp
    26bf:	81 ff a4 5e 00 00    	cmp    $0x5ea4,%edi
    26c5:	75 18                	jne    26df <block_cache_fini+0x3f>
    26c7:	e9 2c 01 00 00       	jmp    27f8 <block_cache_fini+0x158>
    26cc:	8d 74 26 00          	lea    0x0(%esi,%eiz,1),%esi
    26d0:	8b 7f 04             	mov    0x4(%edi),%edi
    26d3:	81 ff a4 5e 00 00    	cmp    $0x5ea4,%edi
    26d9:	0f 84 19 01 00 00    	je     27f8 <block_cache_fini+0x158>
    26df:	3b 5f 08             	cmp    0x8(%edi),%ebx
    26e2:	75 ec                	jne    26d0 <block_cache_fini+0x30>
    26e4:	83 ec 0c             	sub    $0xc,%esp
    26e7:	68 ac 5e 00 00       	push   $0x5eac
    26ec:	e8 df 1c 00 00       	call   43d0 <fibril_mutex_unlock@plt>
    26f1:	8b 47 2c             	mov    0x2c(%edi),%eax
    26f4:	83 c4 10             	add    $0x10,%esp
    26f7:	89 45 e0             	mov    %eax,-0x20(%ebp)
    26fa:	85 c0                	test   %eax,%eax
    26fc:	0f 84 42 01 00 00    	je     2844 <block_cache_fini+0x1a4>
    2702:	8b 58 40             	mov    0x40(%eax),%ebx
    2705:	8d 70 3c             	lea    0x3c(%eax),%esi
    2708:	83 c0 20             	add    $0x20,%eax
    270b:	89 75 dc             	mov    %esi,-0x24(%ebp)
    270e:	89 45 d8             	mov    %eax,-0x28(%ebp)
    2711:	39 de                	cmp    %ebx,%esi
    2713:	0f 84 2f 01 00 00    	je     2848 <block_cache_fini+0x1a8>
    2719:	89 da                	mov    %ebx,%edx
    271b:	89 7d d0             	mov    %edi,-0x30(%ebp)
    271e:	eb 35                	jmp    2755 <block_cache_fini+0xb5>
    2720:	8b 55 d8             	mov    -0x28(%ebp),%edx
    2723:	8d 43 50             	lea    0x50(%ebx),%eax
    2726:	89 d6                	mov    %edx,%esi
    2728:	51                   	push   %ecx
    2729:	51                   	push   %ecx
    272a:	50                   	push   %eax
    272b:	52                   	push   %edx
    272c:	e8 bf 1c 00 00       	call   43f0 <hash_table_remove_item@plt>
    2731:	8b 43 58             	mov    0x58(%ebx),%eax
    2734:	5f                   	pop    %edi
    2735:	50                   	push   %eax
    2736:	e8 b5 1d 00 00       	call   44f0 <free@plt>
    273b:	89 1c 24             	mov    %ebx,(%esp)
    273e:	e8 ad 1d 00 00       	call   44f0 <free@plt>
    2743:	8b 45 e0             	mov    -0x20(%ebp),%eax
    2746:	83 c4 10             	add    $0x10,%esp
    2749:	8b 50 40             	mov    0x40(%eax),%edx
    274c:	3b 55 dc             	cmp    -0x24(%ebp),%edx
    274f:	0f 84 c3 00 00 00    	je     2818 <block_cache_fini+0x178>
    2755:	8d 5a b8             	lea    -0x48(%edx),%ebx
    2758:	8b 4b 48             	mov    0x48(%ebx),%ecx
    275b:	85 c9                	test   %ecx,%ecx
    275d:	74 0f                	je     276e <block_cache_fini+0xce>
    275f:	8b 43 4c             	mov    0x4c(%ebx),%eax
    2762:	85 c0                	test   %eax,%eax
    2764:	74 08                	je     276e <block_cache_fini+0xce>
    2766:	89 08                	mov    %ecx,(%eax)
    2768:	8b 4b 48             	mov    0x48(%ebx),%ecx
    276b:	89 41 04             	mov    %eax,0x4(%ecx)
    276e:	c7 43 48 00 00 00 00 	movl   $0x0,0x48(%ebx)
    2775:	c7 43 4c 00 00 00 00 	movl   $0x0,0x4c(%ebx)
    277c:	80 7b 14 00          	cmpb   $0x0,0x14(%ebx)
    2780:	74 9e                	je     2720 <block_cache_fini+0x80>
    2782:	8b 45 e0             	mov    -0x20(%ebp),%eax
    2785:	8b 73 38             	mov    0x38(%ebx),%esi
    2788:	8b 7b 3c             	mov    0x3c(%ebx),%edi
    278b:	8b 48 14             	mov    0x14(%eax),%ecx
    278e:	50                   	push   %eax
    278f:	50                   	push   %eax
    2790:	89 4d d4             	mov    %ecx,-0x2c(%ebp)
    2793:	8b 53 40             	mov    0x40(%ebx),%edx
    2796:	8b 43 58             	mov    0x58(%ebx),%eax
    2799:	52                   	push   %edx
    279a:	50                   	push   %eax
    279b:	8b 45 d0             	mov    -0x30(%ebp),%eax
    279e:	51                   	push   %ecx
    279f:	57                   	push   %edi
    27a0:	56                   	push   %esi
    27a1:	8b 40 10             	mov    0x10(%eax),%eax
    27a4:	50                   	push   %eax
    27a5:	e8 e6 1a 00 00       	call   4290 <bd_write_blocks@plt>
    27aa:	83 c4 20             	add    $0x20,%esp
    27ad:	8b 4d d4             	mov    -0x2c(%ebp),%ecx
    27b0:	85 c0                	test   %eax,%eax
    27b2:	0f 84 68 ff ff ff    	je     2720 <block_cache_fini+0x80>
    27b8:	89 7d e4             	mov    %edi,-0x1c(%ebp)
    27bb:	8b 7d d0             	mov    -0x30(%ebp),%edi
    27be:	89 75 e0             	mov    %esi,-0x20(%ebp)
    27c1:	89 ce                	mov    %ecx,%esi
    27c3:	89 c1                	mov    %eax,%ecx
    27c5:	50                   	push   %eax
    27c6:	50                   	push   %eax
    27c7:	8b 47 08             	mov    0x8(%edi),%eax
    27ca:	50                   	push   %eax
    27cb:	8b 45 e4             	mov    -0x1c(%ebp),%eax
    27ce:	50                   	push   %eax
    27cf:	8b 45 e0             	mov    -0x20(%ebp),%eax
    27d2:	50                   	push   %eax
    27d3:	56                   	push   %esi
    27d4:	51                   	push   %ecx
    27d5:	68 70 3f 00 00       	push   $0x3f70
    27da:	89 4d e0             	mov    %ecx,-0x20(%ebp)
    27dd:	e8 2e 1a 00 00       	call   4210 <printf@plt>
    27e2:	83 c4 20             	add    $0x20,%esp
    27e5:	e8 36 1b 00 00       	call   4320 <stacktrace_print@plt>
    27ea:	8b 4d e0             	mov    -0x20(%ebp),%ecx
    27ed:	8d 65 f4             	lea    -0xc(%ebp),%esp
    27f0:	89 c8                	mov    %ecx,%eax
    27f2:	5b                   	pop    %ebx
    27f3:	5e                   	pop    %esi
    27f4:	5f                   	pop    %edi
    27f5:	5d                   	pop    %ebp
    27f6:	c3                   	ret    
    27f7:	90                   	nop
    27f8:	83 ec 0c             	sub    $0xc,%esp
    27fb:	68 ac 5e 00 00       	push   $0x5eac
    2800:	e8 cb 1b 00 00       	call   43d0 <fibril_mutex_unlock@plt>
    2805:	83 c4 10             	add    $0x10,%esp
    2808:	8d 65 f4             	lea    -0xc(%ebp),%esp
    280b:	83 c9 ff             	or     $0xffffffff,%ecx
    280e:	5b                   	pop    %ebx
    280f:	89 c8                	mov    %ecx,%eax
    2811:	5e                   	pop    %esi
    2812:	5f                   	pop    %edi
    2813:	5d                   	pop    %ebp
    2814:	c3                   	ret    
    2815:	8d 76 00             	lea    0x0(%esi),%esi
    2818:	8b 7d d0             	mov    -0x30(%ebp),%edi
    281b:	83 ec 0c             	sub    $0xc,%esp
    281e:	56                   	push   %esi
    281f:	e8 bc 1c 00 00       	call   44e0 <hash_table_destroy@plt>
    2824:	c7 47 2c 00 00 00 00 	movl   $0x0,0x2c(%edi)
    282b:	8b 55 e0             	mov    -0x20(%ebp),%edx
    282e:	58                   	pop    %eax
    282f:	52                   	push   %edx
    2830:	e8 bb 1c 00 00       	call   44f0 <free@plt>
    2835:	83 c4 10             	add    $0x10,%esp
    2838:	8d 65 f4             	lea    -0xc(%ebp),%esp
    283b:	31 c9                	xor    %ecx,%ecx
    283d:	89 c8                	mov    %ecx,%eax
    283f:	5b                   	pop    %ebx
    2840:	5e                   	pop    %esi
    2841:	5f                   	pop    %edi
    2842:	5d                   	pop    %ebp
    2843:	c3                   	ret    
    2844:	31 c9                	xor    %ecx,%ecx
    2846:	eb a5                	jmp    27ed <block_cache_fini+0x14d>
    2848:	8b 45 e0             	mov    -0x20(%ebp),%eax
    284b:	8d 70 20             	lea    0x20(%eax),%esi
    284e:	eb cb                	jmp    281b <block_cache_fini+0x17b>

00002850 <block_fini>:
    2850:	55                   	push   %ebp
    2851:	89 e5                	mov    %esp,%ebp
    2853:	56                   	push   %esi
    2854:	53                   	push   %ebx
    2855:	83 ec 0c             	sub    $0xc,%esp
    2858:	8b 75 08             	mov    0x8(%ebp),%esi
    285b:	68 ac 5e 00 00       	push   $0x5eac
    2860:	e8 9b 1c 00 00       	call   4500 <fibril_mutex_lock@plt>
    2865:	8b 1d a8 5e 00 00    	mov    0x5ea8,%ebx
    286b:	83 c4 10             	add    $0x10,%esp
    286e:	81 fb a4 5e 00 00    	cmp    $0x5ea4,%ebx
    2874:	75 19                	jne    288f <block_fini+0x3f>
    2876:	e9 c5 00 00 00       	jmp    2940 <block_fini+0xf0>
    287b:	90                   	nop
    287c:	8d 74 26 00          	lea    0x0(%esi,%eiz,1),%esi
    2880:	8b 5b 04             	mov    0x4(%ebx),%ebx
    2883:	81 fb a4 5e 00 00    	cmp    $0x5ea4,%ebx
    2889:	0f 84 b1 00 00 00    	je     2940 <block_fini+0xf0>
    288f:	3b 73 08             	cmp    0x8(%ebx),%esi
    2892:	75 ec                	jne    2880 <block_fini+0x30>
    2894:	83 ec 0c             	sub    $0xc,%esp
    2897:	68 ac 5e 00 00       	push   $0x5eac
    289c:	e8 2f 1b 00 00       	call   43d0 <fibril_mutex_unlock@plt>
    28a1:	8b 43 2c             	mov    0x2c(%ebx),%eax
    28a4:	83 c4 10             	add    $0x10,%esp
    28a7:	85 c0                	test   %eax,%eax
    28a9:	74 0c                	je     28b7 <block_fini+0x67>
    28ab:	83 ec 0c             	sub    $0xc,%esp
    28ae:	56                   	push   %esi
    28af:	e8 ec fd ff ff       	call   26a0 <block_cache_fini>
    28b4:	83 c4 10             	add    $0x10,%esp
    28b7:	6a 00                	push   $0x0
    28b9:	6a 00                	push   $0x0
    28bb:	6a 00                	push   $0x0
    28bd:	8b 73 10             	mov    0x10(%ebx),%esi
    28c0:	56                   	push   %esi
    28c1:	e8 9a 1b 00 00       	call   4460 <bd_sync_cache@plt>
    28c6:	c7 04 24 ac 5e 00 00 	movl   $0x5eac,(%esp)
    28cd:	e8 2e 1c 00 00       	call   4500 <fibril_mutex_lock@plt>
    28d2:	8b 13                	mov    (%ebx),%edx
    28d4:	83 c4 10             	add    $0x10,%esp
    28d7:	85 d2                	test   %edx,%edx
    28d9:	74 0e                	je     28e9 <block_fini+0x99>
    28db:	8b 43 04             	mov    0x4(%ebx),%eax
    28de:	85 c0                	test   %eax,%eax
    28e0:	74 07                	je     28e9 <block_fini+0x99>
    28e2:	89 10                	mov    %edx,(%eax)
    28e4:	8b 13                	mov    (%ebx),%edx
    28e6:	89 42 04             	mov    %eax,0x4(%edx)
    28e9:	83 ec 0c             	sub    $0xc,%esp
    28ec:	c7 03 00 00 00 00    	movl   $0x0,(%ebx)
    28f2:	c7 43 04 00 00 00 00 	movl   $0x0,0x4(%ebx)
    28f9:	68 ac 5e 00 00       	push   $0x5eac
    28fe:	e8 cd 1a 00 00       	call   43d0 <fibril_mutex_unlock@plt>
    2903:	8b 43 14             	mov    0x14(%ebx),%eax
    2906:	83 c4 10             	add    $0x10,%esp
    2909:	85 c0                	test   %eax,%eax
    290b:	74 0c                	je     2919 <block_fini+0xc9>
    290d:	83 ec 0c             	sub    $0xc,%esp
    2910:	50                   	push   %eax
    2911:	e8 da 1b 00 00       	call   44f0 <free@plt>
    2916:	83 c4 10             	add    $0x10,%esp
    2919:	83 ec 0c             	sub    $0xc,%esp
    291c:	8b 43 10             	mov    0x10(%ebx),%eax
    291f:	50                   	push   %eax
    2920:	e8 9b 19 00 00       	call   42c0 <bd_close@plt>
    2925:	8b 4b 0c             	mov    0xc(%ebx),%ecx
    2928:	5a                   	pop    %edx
    2929:	51                   	push   %ecx
    292a:	e8 f1 18 00 00       	call   4220 <async_hangup@plt>
    292f:	89 5d 08             	mov    %ebx,0x8(%ebp)
    2932:	83 c4 10             	add    $0x10,%esp
    2935:	8d 65 f8             	lea    -0x8(%ebp),%esp
    2938:	5b                   	pop    %ebx
    2939:	5e                   	pop    %esi
    293a:	5d                   	pop    %ebp
    293b:	e9 b0 1b 00 00       	jmp    44f0 <free@plt>
    2940:	83 ec 0c             	sub    $0xc,%esp
    2943:	68 ac 5e 00 00       	push   $0x5eac
    2948:	e8 83 1a 00 00       	call   43d0 <fibril_mutex_unlock@plt>
    294d:	83 c4 0c             	add    $0xc,%esp
    2950:	68 bf 00 00 00       	push   $0xbf
    2955:	68 d4 3e 00 00       	push   $0x3ed4
    295a:	68 dc 3e 00 00       	push   $0x3edc
    295f:	e8 1c 1a 00 00       	call   4380 <assert_abort@plt>
    2964:	8d b6 00 00 00 00    	lea    0x0(%esi),%esi
    296a:	8d bf 00 00 00 00    	lea    0x0(%edi),%edi

00002970 <block_put>:
    2970:	55                   	push   %ebp
    2971:	89 e5                	mov    %esp,%ebp
    2973:	57                   	push   %edi
    2974:	56                   	push   %esi
    2975:	53                   	push   %ebx
    2976:	83 ec 28             	sub    $0x28,%esp
    2979:	8b 7d 08             	mov    0x8(%ebp),%edi
    297c:	8b 5f 2c             	mov    0x2c(%edi),%ebx
    297f:	68 ac 5e 00 00       	push   $0x5eac
    2984:	e8 77 1b 00 00       	call   4500 <fibril_mutex_lock@plt>
    2989:	8b 35 a8 5e 00 00    	mov    0x5ea8,%esi
    298f:	83 c4 10             	add    $0x10,%esp
    2992:	81 fe a4 5e 00 00    	cmp    $0x5ea4,%esi
    2998:	75 15                	jne    29af <block_put+0x3f>
    299a:	e9 c1 01 00 00       	jmp    2b60 <block_put+0x1f0>
    299f:	90                   	nop
    29a0:	8b 76 04             	mov    0x4(%esi),%esi
    29a3:	81 fe a4 5e 00 00    	cmp    $0x5ea4,%esi
    29a9:	0f 84 b1 01 00 00    	je     2b60 <block_put+0x1f0>
    29af:	3b 5e 08             	cmp    0x8(%esi),%ebx
    29b2:	75 ec                	jne    29a0 <block_put+0x30>
    29b4:	83 ec 0c             	sub    $0xc,%esp
    29b7:	68 ac 5e 00 00       	push   $0x5eac
    29bc:	e8 0f 1a 00 00       	call   43d0 <fibril_mutex_unlock@plt>
    29c1:	8b 5e 2c             	mov    0x2c(%esi),%ebx
    29c4:	83 c4 10             	add    $0x10,%esp
    29c7:	85 db                	test   %ebx,%ebx
    29c9:	0f 84 6b 02 00 00    	je     2c3a <block_put+0x2ca>
    29cf:	8b 47 10             	mov    0x10(%edi),%eax
    29d2:	85 c0                	test   %eax,%eax
    29d4:	0f 84 75 02 00 00    	je     2c4f <block_put+0x2df>
    29da:	c7 45 e4 00 00 00 00 	movl   $0x0,-0x1c(%ebp)
    29e1:	89 75 e0             	mov    %esi,-0x20(%ebp)
    29e4:	8d 74 26 00          	lea    0x0(%esi,%eiz,1),%esi
    29e8:	83 ec 0c             	sub    $0xc,%esp
    29eb:	53                   	push   %ebx
    29ec:	e8 0f 1b 00 00       	call   4500 <fibril_mutex_lock@plt>
    29f1:	8b 43 44             	mov    0x44(%ebx),%eax
    29f4:	8b 73 1c             	mov    0x1c(%ebx),%esi
    29f7:	89 45 d8             	mov    %eax,-0x28(%ebp)
    29fa:	89 1c 24             	mov    %ebx,(%esp)
    29fd:	e8 ce 19 00 00       	call   43d0 <fibril_mutex_unlock@plt>
    2a02:	89 3c 24             	mov    %edi,(%esp)
    2a05:	e8 f6 1a 00 00       	call   4500 <fibril_mutex_lock@plt>
    2a0a:	83 c4 10             	add    $0x10,%esp
    2a0d:	80 7f 15 00          	cmpb   $0x0,0x15(%edi)
    2a11:	0f 85 39 01 00 00    	jne    2b50 <block_put+0x1e0>
    2a17:	80 7f 14 00          	cmpb   $0x0,0x14(%edi)
    2a1b:	74 0a                	je     2a27 <block_put+0xb7>
    2a1d:	83 7f 10 01          	cmpl   $0x1,0x10(%edi)
    2a21:	0f 84 b9 00 00 00    	je     2ae0 <block_put+0x170>
    2a27:	83 ec 0c             	sub    $0xc,%esp
    2a2a:	57                   	push   %edi
    2a2b:	e8 a0 19 00 00       	call   43d0 <fibril_mutex_unlock@plt>
    2a30:	89 1c 24             	mov    %ebx,(%esp)
    2a33:	e8 c8 1a 00 00       	call   4500 <fibril_mutex_lock@plt>
    2a38:	89 3c 24             	mov    %edi,(%esp)
    2a3b:	e8 c0 1a 00 00       	call   4500 <fibril_mutex_lock@plt>
    2a40:	8b 47 10             	mov    0x10(%edi),%eax
    2a43:	83 c4 10             	add    $0x10,%esp
    2a46:	48                   	dec    %eax
    2a47:	89 47 10             	mov    %eax,0x10(%edi)
    2a4a:	85 c0                	test   %eax,%eax
    2a4c:	0f 85 51 01 00 00    	jne    2ba3 <block_put+0x233>
    2a52:	83 7b 1c 14          	cmpl   $0x14,0x1c(%ebx)
    2a56:	77 48                	ja     2aa0 <block_put+0x130>
    2a58:	8b 45 e4             	mov    -0x1c(%ebp),%eax
    2a5b:	85 c0                	test   %eax,%eax
    2a5d:	75 41                	jne    2aa0 <block_put+0x130>
    2a5f:	83 7b 44 01          	cmpl   $0x1,0x44(%ebx)
    2a63:	0f 84 1b 01 00 00    	je     2b84 <block_put+0x214>
    2a69:	80 7f 14 00          	cmpb   $0x0,0x14(%edi)
    2a6d:	0f 84 11 01 00 00    	je     2b84 <block_put+0x214>
    2a73:	83 ec 0c             	sub    $0xc,%esp
    2a76:	c7 47 10 01 00 00 00 	movl   $0x1,0x10(%edi)
    2a7d:	57                   	push   %edi
    2a7e:	e8 4d 19 00 00       	call   43d0 <fibril_mutex_unlock@plt>
    2a83:	89 1c 24             	mov    %ebx,(%esp)
    2a86:	e8 45 19 00 00       	call   43d0 <fibril_mutex_unlock@plt>
    2a8b:	83 c4 10             	add    $0x10,%esp
    2a8e:	c7 45 e4 00 00 00 00 	movl   $0x0,-0x1c(%ebp)
    2a95:	e9 4e ff ff ff       	jmp    29e8 <block_put+0x78>
    2a9a:	8d b6 00 00 00 00    	lea    0x0(%esi),%esi
    2aa0:	80 7f 14 00          	cmpb   $0x0,0x14(%edi)
    2aa4:	0f 84 4a 01 00 00    	je     2bf4 <block_put+0x284>
    2aaa:	8b 47 44             	mov    0x44(%edi),%eax
    2aad:	c7 47 10 01 00 00 00 	movl   $0x1,0x10(%edi)
    2ab4:	83 f8 09             	cmp    $0x9,%eax
    2ab7:	0f 8f 1b 01 00 00    	jg     2bd8 <block_put+0x268>
    2abd:	83 ec 0c             	sub    $0xc,%esp
    2ac0:	40                   	inc    %eax
    2ac1:	89 47 44             	mov    %eax,0x44(%edi)
    2ac4:	57                   	push   %edi
    2ac5:	e8 06 19 00 00       	call   43d0 <fibril_mutex_unlock@plt>
    2aca:	89 1c 24             	mov    %ebx,(%esp)
    2acd:	e8 fe 18 00 00       	call   43d0 <fibril_mutex_unlock@plt>
    2ad2:	83 c4 10             	add    $0x10,%esp
    2ad5:	e9 0e ff ff ff       	jmp    29e8 <block_put+0x78>
    2ada:	8d b6 00 00 00 00    	lea    0x0(%esi),%esi
    2ae0:	83 fe 14             	cmp    $0x14,%esi
    2ae3:	77 0a                	ja     2aef <block_put+0x17f>
    2ae5:	83 7d d8 01          	cmpl   $0x1,-0x28(%ebp)
    2ae9:	0f 84 38 ff ff ff    	je     2a27 <block_put+0xb7>
    2aef:	8b 47 38             	mov    0x38(%edi),%eax
    2af2:	8b 57 3c             	mov    0x3c(%edi),%edx
    2af5:	8b 73 14             	mov    0x14(%ebx),%esi
    2af8:	51                   	push   %ecx
    2af9:	51                   	push   %ecx
    2afa:	89 45 d8             	mov    %eax,-0x28(%ebp)
    2afd:	8b 4f 40             	mov    0x40(%edi),%ecx
    2b00:	89 55 dc             	mov    %edx,-0x24(%ebp)
    2b03:	51                   	push   %ecx
    2b04:	8b 4f 58             	mov    0x58(%edi),%ecx
    2b07:	51                   	push   %ecx
    2b08:	56                   	push   %esi
    2b09:	52                   	push   %edx
    2b0a:	50                   	push   %eax
    2b0b:	8b 45 e0             	mov    -0x20(%ebp),%eax
    2b0e:	8b 40 10             	mov    0x10(%eax),%eax
    2b11:	50                   	push   %eax
    2b12:	e8 79 17 00 00       	call   4290 <bd_write_blocks@plt>
    2b17:	83 c4 20             	add    $0x20,%esp
    2b1a:	89 45 e4             	mov    %eax,-0x1c(%ebp)
    2b1d:	85 c0                	test   %eax,%eax
    2b1f:	0f 84 a3 00 00 00    	je     2bc8 <block_put+0x258>
    2b25:	50                   	push   %eax
    2b26:	50                   	push   %eax
    2b27:	8b 45 e0             	mov    -0x20(%ebp),%eax
    2b2a:	8b 55 dc             	mov    -0x24(%ebp),%edx
    2b2d:	8b 4d d8             	mov    -0x28(%ebp),%ecx
    2b30:	8b 40 08             	mov    0x8(%eax),%eax
    2b33:	50                   	push   %eax
    2b34:	52                   	push   %edx
    2b35:	51                   	push   %ecx
    2b36:	56                   	push   %esi
    2b37:	8b 75 e4             	mov    -0x1c(%ebp),%esi
    2b3a:	56                   	push   %esi
    2b3b:	68 70 3f 00 00       	push   $0x3f70
    2b40:	e8 cb 16 00 00       	call   4210 <printf@plt>
    2b45:	83 c4 20             	add    $0x20,%esp
    2b48:	e8 d3 17 00 00       	call   4320 <stacktrace_print@plt>
    2b4d:	8d 76 00             	lea    0x0(%esi),%esi
    2b50:	c6 47 14 00          	movb   $0x0,0x14(%edi)
    2b54:	e9 ce fe ff ff       	jmp    2a27 <block_put+0xb7>
    2b59:	8d b4 26 00 00 00 00 	lea    0x0(%esi,%eiz,1),%esi
    2b60:	83 ec 0c             	sub    $0xc,%esp
    2b63:	68 ac 5e 00 00       	push   $0x5eac
    2b68:	e8 63 18 00 00       	call   43d0 <fibril_mutex_unlock@plt>
    2b6d:	83 c4 0c             	add    $0xc,%esp
    2b70:	68 4c 02 00 00       	push   $0x24c
    2b75:	68 d4 3e 00 00       	push   $0x3ed4
    2b7a:	68 dc 3e 00 00       	push   $0x3edc
    2b7f:	e8 fc 17 00 00       	call   4380 <assert_abort@plt>
    2b84:	8d 4b 3c             	lea    0x3c(%ebx),%ecx
    2b87:	8d 47 48             	lea    0x48(%edi),%eax
    2b8a:	89 4f 4c             	mov    %ecx,0x4c(%edi)
    2b8d:	8b 4b 3c             	mov    0x3c(%ebx),%ecx
    2b90:	89 4f 48             	mov    %ecx,0x48(%edi)
    2b93:	c7 45 e4 00 00 00 00 	movl   $0x0,-0x1c(%ebp)
    2b9a:	8b 4b 3c             	mov    0x3c(%ebx),%ecx
    2b9d:	89 41 04             	mov    %eax,0x4(%ecx)
    2ba0:	89 43 3c             	mov    %eax,0x3c(%ebx)
    2ba3:	83 ec 0c             	sub    $0xc,%esp
    2ba6:	57                   	push   %edi
    2ba7:	e8 24 18 00 00       	call   43d0 <fibril_mutex_unlock@plt>
    2bac:	89 1c 24             	mov    %ebx,(%esp)
    2baf:	e8 1c 18 00 00       	call   43d0 <fibril_mutex_unlock@plt>
    2bb4:	8b 45 e4             	mov    -0x1c(%ebp),%eax
    2bb7:	83 c4 10             	add    $0x10,%esp
    2bba:	8d 65 f4             	lea    -0xc(%ebp),%esp
    2bbd:	5b                   	pop    %ebx
    2bbe:	5e                   	pop    %esi
    2bbf:	5f                   	pop    %edi
    2bc0:	5d                   	pop    %ebp
    2bc1:	c3                   	ret    
    2bc2:	8d b6 00 00 00 00    	lea    0x0(%esi),%esi
    2bc8:	c7 47 44 00 00 00 00 	movl   $0x0,0x44(%edi)
    2bcf:	c6 47 14 00          	movb   $0x0,0x14(%edi)
    2bd3:	e9 4f fe ff ff       	jmp    2a27 <block_put+0xb7>
    2bd8:	8b 75 e0             	mov    -0x20(%ebp),%esi
    2bdb:	8b 46 08             	mov    0x8(%esi),%eax
    2bde:	50                   	push   %eax
    2bdf:	8b 47 34             	mov    0x34(%edi),%eax
    2be2:	50                   	push   %eax
    2be3:	8b 47 30             	mov    0x30(%edi),%eax
    2be6:	50                   	push   %eax
    2be7:	68 b8 3f 00 00       	push   $0x3fb8
    2bec:	e8 1f 16 00 00       	call   4210 <printf@plt>
    2bf1:	83 c4 10             	add    $0x10,%esp
    2bf4:	50                   	push   %eax
    2bf5:	50                   	push   %eax
    2bf6:	8d 47 50             	lea    0x50(%edi),%eax
    2bf9:	50                   	push   %eax
    2bfa:	8d 43 20             	lea    0x20(%ebx),%eax
    2bfd:	50                   	push   %eax
    2bfe:	e8 ed 17 00 00       	call   43f0 <hash_table_remove_item@plt>
    2c03:	89 3c 24             	mov    %edi,(%esp)
    2c06:	e8 c5 17 00 00       	call   43d0 <fibril_mutex_unlock@plt>
    2c0b:	8b 4f 58             	mov    0x58(%edi),%ecx
    2c0e:	5a                   	pop    %edx
    2c0f:	51                   	push   %ecx
    2c10:	e8 db 18 00 00       	call   44f0 <free@plt>
    2c15:	89 3c 24             	mov    %edi,(%esp)
    2c18:	e8 d3 18 00 00       	call   44f0 <free@plt>
    2c1d:	8b 73 1c             	mov    0x1c(%ebx),%esi
    2c20:	4e                   	dec    %esi
    2c21:	89 73 1c             	mov    %esi,0x1c(%ebx)
    2c24:	89 1c 24             	mov    %ebx,(%esp)
    2c27:	e8 a4 17 00 00       	call   43d0 <fibril_mutex_unlock@plt>
    2c2c:	8b 45 e4             	mov    -0x1c(%ebp),%eax
    2c2f:	83 c4 10             	add    $0x10,%esp
    2c32:	8d 65 f4             	lea    -0xc(%ebp),%esp
    2c35:	5b                   	pop    %ebx
    2c36:	5e                   	pop    %esi
    2c37:	5f                   	pop    %edi
    2c38:	5d                   	pop    %ebp
    2c39:	c3                   	ret    
    2c3a:	50                   	push   %eax
    2c3b:	68 4d 02 00 00       	push   $0x24d
    2c40:	68 d4 3e 00 00       	push   $0x3ed4
    2c45:	68 e3 3e 00 00       	push   $0x3ee3
    2c4a:	e8 31 17 00 00       	call   4380 <assert_abort@plt>
    2c4f:	50                   	push   %eax
    2c50:	68 4e 02 00 00       	push   $0x24e
    2c55:	68 d4 3e 00 00       	push   $0x3ed4
    2c5a:	68 f1 3e 00 00       	push   $0x3ef1
    2c5f:	e8 1c 17 00 00       	call   4380 <assert_abort@plt>
    2c64:	8d b6 00 00 00 00    	lea    0x0(%esi),%esi
    2c6a:	8d bf 00 00 00 00    	lea    0x0(%edi),%edi

00002c70 <block_get>:
    2c70:	55                   	push   %ebp
    2c71:	89 e5                	mov    %esp,%ebp
    2c73:	57                   	push   %edi
    2c74:	56                   	push   %esi
    2c75:	53                   	push   %ebx
    2c76:	83 ec 48             	sub    $0x48,%esp
    2c79:	8b 45 10             	mov    0x10(%ebp),%eax
    2c7c:	89 45 e0             	mov    %eax,-0x20(%ebp)
    2c7f:	8b 45 14             	mov    0x14(%ebp),%eax
    2c82:	68 ac 5e 00 00       	push   $0x5eac
    2c87:	89 45 e4             	mov    %eax,-0x1c(%ebp)
    2c8a:	e8 71 18 00 00       	call   4500 <fibril_mutex_lock@plt>
    2c8f:	8b 35 a8 5e 00 00    	mov    0x5ea8,%esi
    2c95:	83 c4 10             	add    $0x10,%esp
    2c98:	81 fe a4 5e 00 00    	cmp    $0x5ea4,%esi
    2c9e:	74 20                	je     2cc0 <block_get+0x50>
    2ca0:	8b 46 08             	mov    0x8(%esi),%eax
    2ca3:	39 45 0c             	cmp    %eax,0xc(%ebp)
    2ca6:	74 40                	je     2ce8 <block_get+0x78>
    2ca8:	8b 45 0c             	mov    0xc(%ebp),%eax
    2cab:	eb 08                	jmp    2cb5 <block_get+0x45>
    2cad:	8d 76 00             	lea    0x0(%esi),%esi
    2cb0:	3b 46 08             	cmp    0x8(%esi),%eax
    2cb3:	74 33                	je     2ce8 <block_get+0x78>
    2cb5:	8b 76 04             	mov    0x4(%esi),%esi
    2cb8:	81 fe a4 5e 00 00    	cmp    $0x5ea4,%esi
    2cbe:	75 f0                	jne    2cb0 <block_get+0x40>
    2cc0:	83 ec 0c             	sub    $0xc,%esp
    2cc3:	68 ac 5e 00 00       	push   $0x5eac
    2cc8:	e8 03 17 00 00       	call   43d0 <fibril_mutex_unlock@plt>
    2ccd:	83 c4 0c             	add    $0xc,%esp
    2cd0:	68 8a 01 00 00       	push   $0x18a
    2cd5:	68 d4 3e 00 00       	push   $0x3ed4
    2cda:	68 dc 3e 00 00       	push   $0x3edc
    2cdf:	e8 9c 16 00 00       	call   4380 <assert_abort@plt>
    2ce4:	8d 74 26 00          	lea    0x0(%esi,%eiz,1),%esi
    2ce8:	83 ec 0c             	sub    $0xc,%esp
    2ceb:	68 ac 5e 00 00       	push   $0x5eac
    2cf0:	e8 db 16 00 00       	call   43d0 <fibril_mutex_unlock@plt>
    2cf5:	8b 5e 2c             	mov    0x2c(%esi),%ebx
    2cf8:	83 c4 10             	add    $0x10,%esp
    2cfb:	85 db                	test   %ebx,%ebx
    2cfd:	0f 84 a5 04 00 00    	je     31a8 <block_get+0x538>
    2d03:	8b 43 14             	mov    0x14(%ebx),%eax
    2d06:	8b 4d e4             	mov    -0x1c(%ebp),%ecx
    2d09:	89 45 d8             	mov    %eax,-0x28(%ebp)
    2d0c:	31 d2                	xor    %edx,%edx
    2d0e:	0f af c8             	imul   %eax,%ecx
    2d11:	8b 45 d8             	mov    -0x28(%ebp),%eax
    2d14:	89 55 dc             	mov    %edx,-0x24(%ebp)
    2d17:	f7 65 e0             	mull   -0x20(%ebp)
    2d1a:	01 ca                	add    %ecx,%edx
    2d1c:	03 45 d8             	add    -0x28(%ebp),%eax
    2d1f:	13 55 dc             	adc    -0x24(%ebp),%edx
    2d22:	3b 56 24             	cmp    0x24(%esi),%edx
    2d25:	76 19                	jbe    2d40 <block_get+0xd0>
    2d27:	c7 45 d8 f6 fe ff ff 	movl   $0xfffffef6,-0x28(%ebp)
    2d2e:	8b 45 d8             	mov    -0x28(%ebp),%eax
    2d31:	8d 65 f4             	lea    -0xc(%ebp),%esp
    2d34:	5b                   	pop    %ebx
    2d35:	5e                   	pop    %esi
    2d36:	5f                   	pop    %edi
    2d37:	5d                   	pop    %ebp
    2d38:	c3                   	ret    
    2d39:	8d b4 26 00 00 00 00 	lea    0x0(%esi,%eiz,1),%esi
    2d40:	0f 83 f2 01 00 00    	jae    2f38 <block_get+0x2c8>
    2d46:	8d 43 20             	lea    0x20(%ebx),%eax
    2d49:	89 75 c8             	mov    %esi,-0x38(%ebp)
    2d4c:	89 45 d0             	mov    %eax,-0x30(%ebp)
    2d4f:	8d 43 3c             	lea    0x3c(%ebx),%eax
    2d52:	89 45 d8             	mov    %eax,-0x28(%ebp)
    2d55:	8d 76 00             	lea    0x0(%esi),%esi
    2d58:	83 ec 0c             	sub    $0xc,%esp
    2d5b:	53                   	push   %ebx
    2d5c:	e8 9f 17 00 00       	call   4500 <fibril_mutex_lock@plt>
    2d61:	58                   	pop    %eax
    2d62:	8b 4d d0             	mov    -0x30(%ebp),%ecx
    2d65:	8d 45 e0             	lea    -0x20(%ebp),%eax
    2d68:	5a                   	pop    %edx
    2d69:	50                   	push   %eax
    2d6a:	51                   	push   %ecx
    2d6b:	e8 20 17 00 00       	call   4490 <hash_table_find@plt>
    2d70:	83 c4 10             	add    $0x10,%esp
    2d73:	85 c0                	test   %eax,%eax
    2d75:	0f 85 cd 01 00 00    	jne    2f48 <block_get+0x2d8>
    2d7b:	83 7b 1c 09          	cmpl   $0x9,0x1c(%ebx)
    2d7f:	0f 86 d3 00 00 00    	jbe    2e58 <block_get+0x1e8>
    2d85:	8b 73 40             	mov    0x40(%ebx),%esi
    2d88:	3b 75 d8             	cmp    -0x28(%ebp),%esi
    2d8b:	0f 84 c7 00 00 00    	je     2e58 <block_get+0x1e8>
    2d91:	83 ec 0c             	sub    $0xc,%esp
    2d94:	8d 7e b8             	lea    -0x48(%esi),%edi
    2d97:	57                   	push   %edi
    2d98:	e8 63 17 00 00       	call   4500 <fibril_mutex_lock@plt>
    2d9d:	83 c4 10             	add    $0x10,%esp
    2da0:	80 7f 14 00          	cmpb   $0x0,0x14(%edi)
    2da4:	0f 84 1e 02 00 00    	je     2fc8 <block_get+0x358>
    2daa:	8b 4f 48             	mov    0x48(%edi),%ecx
    2dad:	85 c9                	test   %ecx,%ecx
    2daf:	74 0f                	je     2dc0 <block_get+0x150>
    2db1:	8b 47 4c             	mov    0x4c(%edi),%eax
    2db4:	85 c0                	test   %eax,%eax
    2db6:	74 08                	je     2dc0 <block_get+0x150>
    2db8:	89 08                	mov    %ecx,(%eax)
    2dba:	8b 4f 48             	mov    0x48(%edi),%ecx
    2dbd:	89 41 04             	mov    %eax,0x4(%ecx)
    2dc0:	c7 47 48 00 00 00 00 	movl   $0x0,0x48(%edi)
    2dc7:	8b 45 d8             	mov    -0x28(%ebp),%eax
    2dca:	89 47 4c             	mov    %eax,0x4c(%edi)
    2dcd:	8b 43 3c             	mov    0x3c(%ebx),%eax
    2dd0:	89 47 48             	mov    %eax,0x48(%edi)
    2dd3:	83 ec 0c             	sub    $0xc,%esp
    2dd6:	8b 43 3c             	mov    0x3c(%ebx),%eax
    2dd9:	89 70 04             	mov    %esi,0x4(%eax)
    2ddc:	89 73 3c             	mov    %esi,0x3c(%ebx)
    2ddf:	53                   	push   %ebx
    2de0:	e8 eb 15 00 00       	call   43d0 <fibril_mutex_unlock@plt>
    2de5:	83 c4 08             	add    $0x8,%esp
    2de8:	8b 77 40             	mov    0x40(%edi),%esi
    2deb:	8b 4b 14             	mov    0x14(%ebx),%ecx
    2dee:	8b 47 38             	mov    0x38(%edi),%eax
    2df1:	8b 57 3c             	mov    0x3c(%edi),%edx
    2df4:	56                   	push   %esi
    2df5:	8b 77 58             	mov    0x58(%edi),%esi
    2df8:	89 45 c0             	mov    %eax,-0x40(%ebp)
    2dfb:	56                   	push   %esi
    2dfc:	51                   	push   %ecx
    2dfd:	52                   	push   %edx
    2dfe:	50                   	push   %eax
    2dff:	8b 45 c8             	mov    -0x38(%ebp),%eax
    2e02:	89 4d d4             	mov    %ecx,-0x2c(%ebp)
    2e05:	89 55 c4             	mov    %edx,-0x3c(%ebp)
    2e08:	8b 40 10             	mov    0x10(%eax),%eax
    2e0b:	50                   	push   %eax
    2e0c:	e8 7f 14 00 00       	call   4290 <bd_write_blocks@plt>
    2e11:	83 c4 20             	add    $0x20,%esp
    2e14:	89 c6                	mov    %eax,%esi
    2e16:	85 c0                	test   %eax,%eax
    2e18:	8b 4d d4             	mov    -0x2c(%ebp),%ecx
    2e1b:	0f 85 a7 00 00 00    	jne    2ec8 <block_get+0x258>
    2e21:	c7 47 44 00 00 00 00 	movl   $0x0,0x44(%edi)
    2e28:	83 ec 0c             	sub    $0xc,%esp
    2e2b:	c6 47 14 00          	movb   $0x0,0x14(%edi)
    2e2f:	53                   	push   %ebx
    2e30:	e8 2b 15 00 00       	call   4360 <fibril_mutex_trylock@plt>
    2e35:	83 c4 10             	add    $0x10,%esp
    2e38:	84 c0                	test   %al,%al
    2e3a:	0f 85 b7 02 00 00    	jne    30f7 <block_get+0x487>
    2e40:	83 ec 0c             	sub    $0xc,%esp
    2e43:	57                   	push   %edi
    2e44:	e8 87 15 00 00       	call   43d0 <fibril_mutex_unlock@plt>
    2e49:	83 c4 10             	add    $0x10,%esp
    2e4c:	e9 07 ff ff ff       	jmp    2d58 <block_get+0xe8>
    2e51:	8d b4 26 00 00 00 00 	lea    0x0(%esi,%eiz,1),%esi
    2e58:	83 ec 0c             	sub    $0xc,%esp
    2e5b:	6a 5c                	push   $0x5c
    2e5d:	e8 7e 14 00 00       	call   42e0 <malloc@plt>
    2e62:	83 c4 10             	add    $0x10,%esp
    2e65:	89 c7                	mov    %eax,%edi
    2e67:	85 c0                	test   %eax,%eax
    2e69:	74 26                	je     2e91 <block_get+0x221>
    2e6b:	83 ec 0c             	sub    $0xc,%esp
    2e6e:	8b 43 10             	mov    0x10(%ebx),%eax
    2e71:	50                   	push   %eax
    2e72:	e8 69 14 00 00       	call   42e0 <malloc@plt>
    2e77:	83 c4 10             	add    $0x10,%esp
    2e7a:	89 47 58             	mov    %eax,0x58(%edi)
    2e7d:	85 c0                	test   %eax,%eax
    2e7f:	0f 85 14 03 00 00    	jne    3199 <block_get+0x529>
    2e85:	83 ec 0c             	sub    $0xc,%esp
    2e88:	57                   	push   %edi
    2e89:	e8 62 16 00 00       	call   44f0 <free@plt>
    2e8e:	83 c4 10             	add    $0x10,%esp
    2e91:	8b 73 40             	mov    0x40(%ebx),%esi
    2e94:	3b 75 d8             	cmp    -0x28(%ebp),%esi
    2e97:	0f 85 f4 fe ff ff    	jne    2d91 <block_get+0x121>
    2e9d:	83 ec 0c             	sub    $0xc,%esp
    2ea0:	31 ff                	xor    %edi,%edi
    2ea2:	53                   	push   %ebx
    2ea3:	e8 28 15 00 00       	call   43d0 <fibril_mutex_unlock@plt>
    2ea8:	83 c4 10             	add    $0x10,%esp
    2eab:	c7 45 d8 fe ff ff ff 	movl   $0xfffffffe,-0x28(%ebp)
    2eb2:	8b 45 08             	mov    0x8(%ebp),%eax
    2eb5:	89 38                	mov    %edi,(%eax)
    2eb7:	8b 45 d8             	mov    -0x28(%ebp),%eax
    2eba:	8d 65 f4             	lea    -0xc(%ebp),%esp
    2ebd:	5b                   	pop    %ebx
    2ebe:	5e                   	pop    %esi
    2ebf:	5f                   	pop    %edi
    2ec0:	5d                   	pop    %ebp
    2ec1:	c3                   	ret    
    2ec2:	8d b6 00 00 00 00    	lea    0x0(%esi),%esi
    2ec8:	50                   	push   %eax
    2ec9:	50                   	push   %eax
    2eca:	8b 45 c8             	mov    -0x38(%ebp),%eax
    2ecd:	8b 55 c0             	mov    -0x40(%ebp),%edx
    2ed0:	8b 40 08             	mov    0x8(%eax),%eax
    2ed3:	50                   	push   %eax
    2ed4:	8b 45 c4             	mov    -0x3c(%ebp),%eax
    2ed7:	50                   	push   %eax
    2ed8:	52                   	push   %edx
    2ed9:	51                   	push   %ecx
    2eda:	56                   	push   %esi
    2edb:	68 70 3f 00 00       	push   $0x3f70
    2ee0:	e8 2b 13 00 00       	call   4210 <printf@plt>
    2ee5:	83 c4 20             	add    $0x20,%esp
    2ee8:	e8 33 14 00 00       	call   4320 <stacktrace_print@plt>
    2eed:	8b 47 44             	mov    0x44(%edi),%eax
    2ef0:	83 f8 09             	cmp    $0x9,%eax
    2ef3:	7f 1b                	jg     2f10 <block_get+0x2a0>
    2ef5:	83 ec 0c             	sub    $0xc,%esp
    2ef8:	40                   	inc    %eax
    2ef9:	89 47 44             	mov    %eax,0x44(%edi)
    2efc:	57                   	push   %edi
    2efd:	e8 ce 14 00 00       	call   43d0 <fibril_mutex_unlock@plt>
    2f02:	83 c4 10             	add    $0x10,%esp
    2f05:	e9 4e fe ff ff       	jmp    2d58 <block_get+0xe8>
    2f0a:	8d b6 00 00 00 00    	lea    0x0(%esi),%esi
    2f10:	8b 45 c8             	mov    -0x38(%ebp),%eax
    2f13:	8b 40 08             	mov    0x8(%eax),%eax
    2f16:	50                   	push   %eax
    2f17:	8b 47 34             	mov    0x34(%edi),%eax
    2f1a:	50                   	push   %eax
    2f1b:	8b 47 30             	mov    0x30(%edi),%eax
    2f1e:	50                   	push   %eax
    2f1f:	68 b8 3f 00 00       	push   $0x3fb8
    2f24:	e8 e7 12 00 00       	call   4210 <printf@plt>
    2f29:	83 c4 10             	add    $0x10,%esp
    2f2c:	e9 f7 fe ff ff       	jmp    2e28 <block_get+0x1b8>
    2f31:	8d b4 26 00 00 00 00 	lea    0x0(%esi,%eiz,1),%esi
    2f38:	3b 46 20             	cmp    0x20(%esi),%eax
    2f3b:	0f 83 e6 fd ff ff    	jae    2d27 <block_get+0xb7>
    2f41:	e9 00 fe ff ff       	jmp    2d46 <block_get+0xd6>
    2f46:	66 90                	xchg   %ax,%ax
    2f48:	c7 45 d8 00 00 00 00 	movl   $0x0,-0x28(%ebp)
    2f4f:	8d 78 b0             	lea    -0x50(%eax),%edi
    2f52:	83 ec 0c             	sub    $0xc,%esp
    2f55:	57                   	push   %edi
    2f56:	e8 a5 15 00 00       	call   4500 <fibril_mutex_lock@plt>
    2f5b:	8b 47 10             	mov    0x10(%edi),%eax
    2f5e:	83 c4 10             	add    $0x10,%esp
    2f61:	85 c0                	test   %eax,%eax
    2f63:	8d 50 01             	lea    0x1(%eax),%edx
    2f66:	89 57 10             	mov    %edx,0x10(%edi)
    2f69:	75 24                	jne    2f8f <block_get+0x31f>
    2f6b:	8b 57 48             	mov    0x48(%edi),%edx
    2f6e:	85 d2                	test   %edx,%edx
    2f70:	74 0f                	je     2f81 <block_get+0x311>
    2f72:	8b 47 4c             	mov    0x4c(%edi),%eax
    2f75:	85 c0                	test   %eax,%eax
    2f77:	74 08                	je     2f81 <block_get+0x311>
    2f79:	89 10                	mov    %edx,(%eax)
    2f7b:	8b 57 48             	mov    0x48(%edi),%edx
    2f7e:	89 42 04             	mov    %eax,0x4(%edx)
    2f81:	c7 47 48 00 00 00 00 	movl   $0x0,0x48(%edi)
    2f88:	c7 47 4c 00 00 00 00 	movl   $0x0,0x4c(%edi)
    2f8f:	8a 47 15             	mov    0x15(%edi),%al
    2f92:	84 c0                	test   %al,%al
    2f94:	0f 85 51 01 00 00    	jne    30eb <block_get+0x47b>
    2f9a:	8b 45 d8             	mov    -0x28(%ebp),%eax
    2f9d:	85 c0                	test   %eax,%eax
    2f9f:	0f 95 c0             	setne  %al
    2fa2:	83 ec 0c             	sub    $0xc,%esp
    2fa5:	88 45 d4             	mov    %al,-0x2c(%ebp)
    2fa8:	57                   	push   %edi
    2fa9:	e8 22 14 00 00       	call   43d0 <fibril_mutex_unlock@plt>
    2fae:	89 1c 24             	mov    %ebx,(%esp)
    2fb1:	e8 1a 14 00 00       	call   43d0 <fibril_mutex_unlock@plt>
    2fb6:	83 c4 10             	add    $0x10,%esp
    2fb9:	8a 45 d4             	mov    -0x2c(%ebp),%al
    2fbc:	e9 05 01 00 00       	jmp    30c6 <block_get+0x456>
    2fc1:	8d b4 26 00 00 00 00 	lea    0x0(%esi,%eiz,1),%esi
    2fc8:	8b 75 c8             	mov    -0x38(%ebp),%esi
    2fcb:	83 ec 0c             	sub    $0xc,%esp
    2fce:	57                   	push   %edi
    2fcf:	e8 fc 13 00 00       	call   43d0 <fibril_mutex_unlock@plt>
    2fd4:	8b 57 48             	mov    0x48(%edi),%edx
    2fd7:	83 c4 10             	add    $0x10,%esp
    2fda:	85 d2                	test   %edx,%edx
    2fdc:	74 0f                	je     2fed <block_get+0x37d>
    2fde:	8b 47 4c             	mov    0x4c(%edi),%eax
    2fe1:	85 c0                	test   %eax,%eax
    2fe3:	74 08                	je     2fed <block_get+0x37d>
    2fe5:	89 10                	mov    %edx,(%eax)
    2fe7:	8b 57 48             	mov    0x48(%edi),%edx
    2fea:	89 42 04             	mov    %eax,0x4(%edx)
    2fed:	c7 47 48 00 00 00 00 	movl   $0x0,0x48(%edi)
    2ff4:	c7 47 4c 00 00 00 00 	movl   $0x0,0x4c(%edi)
    2ffb:	50                   	push   %eax
    2ffc:	50                   	push   %eax
    2ffd:	8d 47 50             	lea    0x50(%edi),%eax
    3000:	50                   	push   %eax
    3001:	8b 45 d0             	mov    -0x30(%ebp),%eax
    3004:	50                   	push   %eax
    3005:	e8 e6 13 00 00       	call   43f0 <hash_table_remove_item@plt>
    300a:	83 c4 10             	add    $0x10,%esp
    300d:	83 ec 0c             	sub    $0xc,%esp
    3010:	57                   	push   %edi
    3011:	e8 ca 13 00 00       	call   43e0 <fibril_mutex_initialize@plt>
    3016:	8d 47 18             	lea    0x18(%edi),%eax
    3019:	c7 47 10 01 00 00 00 	movl   $0x1,0x10(%edi)
    3020:	c7 47 44 00 00 00 00 	movl   $0x0,0x44(%edi)
    3027:	c6 47 14 00          	movb   $0x0,0x14(%edi)
    302b:	c6 47 15 00          	movb   $0x0,0x15(%edi)
    302f:	89 04 24             	mov    %eax,(%esp)
    3032:	e8 69 14 00 00       	call   44a0 <fibril_rwlock_initialize@plt>
    3037:	8b 45 0c             	mov    0xc(%ebp),%eax
    303a:	89 47 2c             	mov    %eax,0x2c(%edi)
    303d:	8b 43 10             	mov    0x10(%ebx),%eax
    3040:	89 47 40             	mov    %eax,0x40(%edi)
    3043:	8b 45 e0             	mov    -0x20(%ebp),%eax
    3046:	89 45 d8             	mov    %eax,-0x28(%ebp)
    3049:	8b 4d e4             	mov    -0x1c(%ebp),%ecx
    304c:	89 47 30             	mov    %eax,0x30(%edi)
    304f:	8b 46 2c             	mov    0x2c(%esi),%eax
    3052:	83 c4 10             	add    $0x10,%esp
    3055:	c7 47 48 00 00 00 00 	movl   $0x0,0x48(%edi)
    305c:	c7 47 4c 00 00 00 00 	movl   $0x0,0x4c(%edi)
    3063:	89 4f 34             	mov    %ecx,0x34(%edi)
    3066:	85 c0                	test   %eax,%eax
    3068:	0f 84 4f 01 00 00    	je     31bd <block_get+0x54d>
    306e:	8b 40 14             	mov    0x14(%eax),%eax
    3071:	0f af c8             	imul   %eax,%ecx
    3074:	f7 65 d8             	mull   -0x28(%ebp)
    3077:	01 ca                	add    %ecx,%edx
    3079:	89 47 38             	mov    %eax,0x38(%edi)
    307c:	89 57 3c             	mov    %edx,0x3c(%edi)
    307f:	50                   	push   %eax
    3080:	50                   	push   %eax
    3081:	8d 47 50             	lea    0x50(%edi),%eax
    3084:	50                   	push   %eax
    3085:	8b 45 d0             	mov    -0x30(%ebp),%eax
    3088:	50                   	push   %eax
    3089:	e8 c2 11 00 00       	call   4250 <hash_table_insert@plt>
    308e:	89 3c 24             	mov    %edi,(%esp)
    3091:	e8 6a 14 00 00       	call   4500 <fibril_mutex_lock@plt>
    3096:	89 1c 24             	mov    %ebx,(%esp)
    3099:	e8 32 13 00 00       	call   43d0 <fibril_mutex_unlock@plt>
    309e:	83 c4 10             	add    $0x10,%esp
    30a1:	f6 45 18 01          	testb  $0x1,0x18(%ebp)
    30a5:	0f 84 83 00 00 00    	je     312e <block_get+0x4be>
    30ab:	31 c0                	xor    %eax,%eax
    30ad:	c7 45 d8 00 00 00 00 	movl   $0x0,-0x28(%ebp)
    30b4:	83 ec 0c             	sub    $0xc,%esp
    30b7:	88 45 d4             	mov    %al,-0x2c(%ebp)
    30ba:	57                   	push   %edi
    30bb:	e8 10 13 00 00       	call   43d0 <fibril_mutex_unlock@plt>
    30c0:	83 c4 10             	add    $0x10,%esp
    30c3:	8a 45 d4             	mov    -0x2c(%ebp),%al
    30c6:	84 c0                	test   %al,%al
    30c8:	0f 84 e4 fd ff ff    	je     2eb2 <block_get+0x242>
    30ce:	80 7f 15 00          	cmpb   $0x0,0x15(%edi)
    30d2:	0f 84 fa 00 00 00    	je     31d2 <block_get+0x562>
    30d8:	83 ec 0c             	sub    $0xc,%esp
    30db:	57                   	push   %edi
    30dc:	31 ff                	xor    %edi,%edi
    30de:	e8 8d f8 ff ff       	call   2970 <block_put>
    30e3:	83 c4 10             	add    $0x10,%esp
    30e6:	e9 c7 fd ff ff       	jmp    2eb2 <block_get+0x242>
    30eb:	c7 45 d8 f6 fe ff ff 	movl   $0xfffffef6,-0x28(%ebp)
    30f2:	e9 ab fe ff ff       	jmp    2fa2 <block_get+0x332>
    30f7:	8d 45 e0             	lea    -0x20(%ebp),%eax
    30fa:	8b 4d d0             	mov    -0x30(%ebp),%ecx
    30fd:	89 75 d8             	mov    %esi,-0x28(%ebp)
    3100:	8b 75 c8             	mov    -0x38(%ebp),%esi
    3103:	52                   	push   %edx
    3104:	52                   	push   %edx
    3105:	50                   	push   %eax
    3106:	51                   	push   %ecx
    3107:	e8 84 13 00 00       	call   4490 <hash_table_find@plt>
    310c:	83 c4 10             	add    $0x10,%esp
    310f:	89 45 d4             	mov    %eax,-0x2c(%ebp)
    3112:	85 c0                	test   %eax,%eax
    3114:	0f 84 b1 fe ff ff    	je     2fcb <block_get+0x35b>
    311a:	83 ec 0c             	sub    $0xc,%esp
    311d:	57                   	push   %edi
    311e:	e8 ad 12 00 00       	call   43d0 <fibril_mutex_unlock@plt>
    3123:	83 c4 10             	add    $0x10,%esp
    3126:	8b 45 d4             	mov    -0x2c(%ebp),%eax
    3129:	e9 21 fe ff ff       	jmp    2f4f <block_get+0x2df>
    312e:	83 ec 08             	sub    $0x8,%esp
    3131:	8b 4b 14             	mov    0x14(%ebx),%ecx
    3134:	8b 5b 10             	mov    0x10(%ebx),%ebx
    3137:	8b 47 38             	mov    0x38(%edi),%eax
    313a:	8b 57 3c             	mov    0x3c(%edi),%edx
    313d:	53                   	push   %ebx
    313e:	8b 5f 58             	mov    0x58(%edi),%ebx
    3141:	89 45 c8             	mov    %eax,-0x38(%ebp)
    3144:	53                   	push   %ebx
    3145:	51                   	push   %ecx
    3146:	52                   	push   %edx
    3147:	50                   	push   %eax
    3148:	8b 46 10             	mov    0x10(%esi),%eax
    314b:	89 55 cc             	mov    %edx,-0x34(%ebp)
    314e:	89 4d d4             	mov    %ecx,-0x2c(%ebp)
    3151:	50                   	push   %eax
    3152:	e8 f9 11 00 00       	call   4350 <bd_read_blocks@plt>
    3157:	83 c4 20             	add    $0x20,%esp
    315a:	89 c2                	mov    %eax,%edx
    315c:	89 45 d8             	mov    %eax,-0x28(%ebp)
    315f:	8b 4d d4             	mov    -0x2c(%ebp),%ecx
    3162:	31 c0                	xor    %eax,%eax
    3164:	85 d2                	test   %edx,%edx
    3166:	0f 84 48 ff ff ff    	je     30b4 <block_get+0x444>
    316c:	53                   	push   %ebx
    316d:	53                   	push   %ebx
    316e:	8b 76 08             	mov    0x8(%esi),%esi
    3171:	8b 45 cc             	mov    -0x34(%ebp),%eax
    3174:	56                   	push   %esi
    3175:	50                   	push   %eax
    3176:	8b 45 c8             	mov    -0x38(%ebp),%eax
    3179:	50                   	push   %eax
    317a:	51                   	push   %ecx
    317b:	52                   	push   %edx
    317c:	68 24 3f 00 00       	push   $0x3f24
    3181:	e8 8a 10 00 00       	call   4210 <printf@plt>
    3186:	83 c4 20             	add    $0x20,%esp
    3189:	e8 92 11 00 00       	call   4320 <stacktrace_print@plt>
    318e:	c6 47 15 01          	movb   $0x1,0x15(%edi)
    3192:	b0 01                	mov    $0x1,%al
    3194:	e9 1b ff ff ff       	jmp    30b4 <block_get+0x444>
    3199:	8b 43 1c             	mov    0x1c(%ebx),%eax
    319c:	8b 75 c8             	mov    -0x38(%ebp),%esi
    319f:	40                   	inc    %eax
    31a0:	89 43 1c             	mov    %eax,0x1c(%ebx)
    31a3:	e9 65 fe ff ff       	jmp    300d <block_get+0x39d>
    31a8:	53                   	push   %ebx
    31a9:	68 8b 01 00 00       	push   $0x18b
    31ae:	68 d4 3e 00 00       	push   $0x3ed4
    31b3:	68 e3 3e 00 00       	push   $0x3ee3
    31b8:	e8 c3 11 00 00       	call   4380 <assert_abort@plt>
    31bd:	50                   	push   %eax
    31be:	68 c6 03 00 00       	push   $0x3c6
    31c3:	68 d4 3e 00 00       	push   $0x3ed4
    31c8:	68 04 3f 00 00       	push   $0x3f04
    31cd:	e8 ae 11 00 00       	call   4380 <assert_abort@plt>
    31d2:	50                   	push   %eax
    31d3:	68 34 02 00 00       	push   $0x234
    31d8:	68 d4 3e 00 00       	push   $0x3ed4
    31dd:	68 1a 3f 00 00       	push   $0x3f1a
    31e2:	e8 99 11 00 00       	call   4380 <assert_abort@plt>
    31e7:	89 f6                	mov    %esi,%esi
    31e9:	8d bc 27 00 00 00 00 	lea    0x0(%edi,%eiz,1),%edi

000031f0 <block_seqread>:
    31f0:	55                   	push   %ebp
    31f1:	89 e5                	mov    %esp,%ebp
    31f3:	57                   	push   %edi
    31f4:	56                   	push   %esi
    31f5:	53                   	push   %ebx
    31f6:	83 ec 38             	sub    $0x38,%esp
    31f9:	8b 4d 20             	mov    0x20(%ebp),%ecx
    31fc:	8b 75 08             	mov    0x8(%ebp),%esi
    31ff:	68 ac 5e 00 00       	push   $0x5eac
    3204:	89 4d e4             	mov    %ecx,-0x1c(%ebp)
    3207:	e8 f4 12 00 00       	call   4500 <fibril_mutex_lock@plt>
    320c:	8b 1d a8 5e 00 00    	mov    0x5ea8,%ebx
    3212:	83 c4 10             	add    $0x10,%esp
    3215:	81 fb a4 5e 00 00    	cmp    $0x5ea4,%ebx
    321b:	74 1b                	je     3238 <block_seqread+0x48>
    321d:	3b 73 08             	cmp    0x8(%ebx),%esi
    3220:	8b 4d e4             	mov    -0x1c(%ebp),%ecx
    3223:	75 08                	jne    322d <block_seqread+0x3d>
    3225:	eb 39                	jmp    3260 <block_seqread+0x70>
    3227:	90                   	nop
    3228:	3b 73 08             	cmp    0x8(%ebx),%esi
    322b:	74 33                	je     3260 <block_seqread+0x70>
    322d:	8b 5b 04             	mov    0x4(%ebx),%ebx
    3230:	81 fb a4 5e 00 00    	cmp    $0x5ea4,%ebx
    3236:	75 f0                	jne    3228 <block_seqread+0x38>
    3238:	83 ec 0c             	sub    $0xc,%esp
    323b:	68 ac 5e 00 00       	push   $0x5eac
    3240:	e8 8b 11 00 00       	call   43d0 <fibril_mutex_unlock@plt>
    3245:	83 c4 0c             	add    $0xc,%esp
    3248:	68 c6 02 00 00       	push   $0x2c6
    324d:	68 d4 3e 00 00       	push   $0x3ed4
    3252:	68 dc 3e 00 00       	push   $0x3edc
    3257:	e8 24 11 00 00       	call   4380 <assert_abort@plt>
    325c:	8d 74 26 00          	lea    0x0(%esi,%eiz,1),%esi
    3260:	83 ec 0c             	sub    $0xc,%esp
    3263:	89 4d e4             	mov    %ecx,-0x1c(%ebp)
    3266:	68 ac 5e 00 00       	push   $0x5eac
    326b:	e8 60 11 00 00       	call   43d0 <fibril_mutex_unlock@plt>
    3270:	8b 43 28             	mov    0x28(%ebx),%eax
    3273:	8b 4d e4             	mov    -0x1c(%ebp),%ecx
    3276:	83 c4 10             	add    $0x10,%esp
    3279:	89 45 d8             	mov    %eax,-0x28(%ebp)
    327c:	85 c9                	test   %ecx,%ecx
    327e:	0f 84 e0 00 00 00    	je     3364 <block_seqread+0x174>
    3284:	89 c6                	mov    %eax,%esi
    3286:	8b 45 14             	mov    0x14(%ebp),%eax
    3289:	89 5d dc             	mov    %ebx,-0x24(%ebp)
    328c:	c7 45 e4 00 00 00 00 	movl   $0x0,-0x1c(%ebp)
    3293:	8b 00                	mov    (%eax),%eax
    3295:	89 75 d0             	mov    %esi,-0x30(%ebp)
    3298:	c7 45 d4 00 00 00 00 	movl   $0x0,-0x2c(%ebp)
    329f:	8b 5d 10             	mov    0x10(%ebp),%ebx
    32a2:	eb 1a                	jmp    32be <block_seqread+0xce>
    32a4:	8d 74 26 00          	lea    0x0(%esi,%eiz,1),%esi
    32a8:	89 c2                	mov    %eax,%edx
    32aa:	29 fa                	sub    %edi,%edx
    32ac:	0f 85 f0 00 00 00    	jne    33a2 <block_seqread+0x1b2>
    32b2:	39 c7                	cmp    %eax,%edi
    32b4:	74 56                	je     330c <block_seqread+0x11c>
    32b6:	85 c9                	test   %ecx,%ecx
    32b8:	0f 84 a6 00 00 00    	je     3364 <block_seqread+0x174>
    32be:	8b 3b                	mov    (%ebx),%edi
    32c0:	8d 14 0f             	lea    (%edi,%ecx,1),%edx
    32c3:	39 c2                	cmp    %eax,%edx
    32c5:	73 e1                	jae    32a8 <block_seqread+0xb8>
    32c7:	31 f6                	xor    %esi,%esi
    32c9:	50                   	push   %eax
    32ca:	8b 45 0c             	mov    0xc(%ebp),%eax
    32cd:	01 c7                	add    %eax,%edi
    32cf:	51                   	push   %ecx
    32d0:	8b 45 1c             	mov    0x1c(%ebp),%eax
    32d3:	57                   	push   %edi
    32d4:	8b 7d e4             	mov    -0x1c(%ebp),%edi
    32d7:	89 4d e0             	mov    %ecx,-0x20(%ebp)
    32da:	01 f8                	add    %edi,%eax
    32dc:	50                   	push   %eax
    32dd:	e8 ee 0f 00 00       	call   42d0 <memcpy@plt>
    32e2:	8b 4d e0             	mov    -0x20(%ebp),%ecx
    32e5:	89 f8                	mov    %edi,%eax
    32e7:	01 c8                	add    %ecx,%eax
    32e9:	8b 3b                	mov    (%ebx),%edi
    32eb:	01 cf                	add    %ecx,%edi
    32ed:	89 45 e4             	mov    %eax,-0x1c(%ebp)
    32f0:	89 c8                	mov    %ecx,%eax
    32f2:	8b 4d 18             	mov    0x18(%ebp),%ecx
    32f5:	89 3b                	mov    %edi,(%ebx)
    32f7:	31 d2                	xor    %edx,%edx
    32f9:	01 01                	add    %eax,(%ecx)
    32fb:	8b 45 14             	mov    0x14(%ebp),%eax
    32fe:	11 51 04             	adc    %edx,0x4(%ecx)
    3301:	8b 00                	mov    (%eax),%eax
    3303:	83 c4 10             	add    $0x10,%esp
    3306:	89 f1                	mov    %esi,%ecx
    3308:	39 c7                	cmp    %eax,%edi
    330a:	75 aa                	jne    32b6 <block_seqread+0xc6>
    330c:	8b 45 18             	mov    0x18(%ebp),%eax
    330f:	8b 75 d4             	mov    -0x2c(%ebp),%esi
    3312:	8b 7d d0             	mov    -0x30(%ebp),%edi
    3315:	56                   	push   %esi
    3316:	57                   	push   %edi
    3317:	89 4d e0             	mov    %ecx,-0x20(%ebp)
    331a:	8b 50 04             	mov    0x4(%eax),%edx
    331d:	52                   	push   %edx
    331e:	8b 08                	mov    (%eax),%ecx
    3320:	51                   	push   %ecx
    3321:	e8 1a 10 00 00       	call   4340 <__udivdi3@plt>
    3326:	5e                   	pop    %esi
    3327:	89 c6                	mov    %eax,%esi
    3329:	8b 45 dc             	mov    -0x24(%ebp),%eax
    332c:	5f                   	pop    %edi
    332d:	8b 4d 0c             	mov    0xc(%ebp),%ecx
    3330:	89 d7                	mov    %edx,%edi
    3332:	8b 50 28             	mov    0x28(%eax),%edx
    3335:	52                   	push   %edx
    3336:	51                   	push   %ecx
    3337:	8b 40 10             	mov    0x10(%eax),%eax
    333a:	6a 01                	push   $0x1
    333c:	57                   	push   %edi
    333d:	56                   	push   %esi
    333e:	50                   	push   %eax
    333f:	e8 0c 10 00 00       	call   4350 <bd_read_blocks@plt>
    3344:	83 c4 20             	add    $0x20,%esp
    3347:	8b 4d e0             	mov    -0x20(%ebp),%ecx
    334a:	85 c0                	test   %eax,%eax
    334c:	75 22                	jne    3370 <block_seqread+0x180>
    334e:	8b 75 14             	mov    0x14(%ebp),%esi
    3351:	8b 45 d8             	mov    -0x28(%ebp),%eax
    3354:	c7 03 00 00 00 00    	movl   $0x0,(%ebx)
    335a:	85 c9                	test   %ecx,%ecx
    335c:	89 06                	mov    %eax,(%esi)
    335e:	0f 85 5a ff ff ff    	jne    32be <block_seqread+0xce>
    3364:	8d 65 f4             	lea    -0xc(%ebp),%esp
    3367:	31 d2                	xor    %edx,%edx
    3369:	89 d0                	mov    %edx,%eax
    336b:	5b                   	pop    %ebx
    336c:	5e                   	pop    %esi
    336d:	5f                   	pop    %edi
    336e:	5d                   	pop    %ebp
    336f:	c3                   	ret    
    3370:	8b 5d dc             	mov    -0x24(%ebp),%ebx
    3373:	89 c2                	mov    %eax,%edx
    3375:	50                   	push   %eax
    3376:	50                   	push   %eax
    3377:	8b 4b 08             	mov    0x8(%ebx),%ecx
    337a:	89 55 e4             	mov    %edx,-0x1c(%ebp)
    337d:	51                   	push   %ecx
    337e:	57                   	push   %edi
    337f:	56                   	push   %esi
    3380:	6a 01                	push   $0x1
    3382:	52                   	push   %edx
    3383:	68 24 3f 00 00       	push   $0x3f24
    3388:	e8 83 0e 00 00       	call   4210 <printf@plt>
    338d:	83 c4 20             	add    $0x20,%esp
    3390:	e8 8b 0f 00 00       	call   4320 <stacktrace_print@plt>
    3395:	8b 55 e4             	mov    -0x1c(%ebp),%edx
    3398:	8d 65 f4             	lea    -0xc(%ebp),%esp
    339b:	89 d0                	mov    %edx,%eax
    339d:	5b                   	pop    %ebx
    339e:	5e                   	pop    %esi
    339f:	5f                   	pop    %edi
    33a0:	5d                   	pop    %ebp
    33a1:	c3                   	ret    
    33a2:	89 ce                	mov    %ecx,%esi
    33a4:	89 d1                	mov    %edx,%ecx
    33a6:	29 d6                	sub    %edx,%esi
    33a8:	e9 1c ff ff ff       	jmp    32c9 <block_seqread+0xd9>
    33ad:	8d 76 00             	lea    0x0(%esi),%esi

000033b0 <block_read_direct>:
    33b0:	55                   	push   %ebp
    33b1:	89 e5                	mov    %esp,%ebp
    33b3:	57                   	push   %edi
    33b4:	56                   	push   %esi
    33b5:	53                   	push   %ebx
    33b6:	83 ec 28             	sub    $0x28,%esp
    33b9:	8b 45 08             	mov    0x8(%ebp),%eax
    33bc:	8b 75 0c             	mov    0xc(%ebp),%esi
    33bf:	68 ac 5e 00 00       	push   $0x5eac
    33c4:	89 45 e4             	mov    %eax,-0x1c(%ebp)
    33c7:	8b 7d 10             	mov    0x10(%ebp),%edi
    33ca:	e8 31 11 00 00       	call   4500 <fibril_mutex_lock@plt>
    33cf:	8b 1d a8 5e 00 00    	mov    0x5ea8,%ebx
    33d5:	83 c4 10             	add    $0x10,%esp
    33d8:	81 fb a4 5e 00 00    	cmp    $0x5ea4,%ebx
    33de:	74 20                	je     3400 <block_read_direct+0x50>
    33e0:	8b 45 e4             	mov    -0x1c(%ebp),%eax
    33e3:	3b 43 08             	cmp    0x8(%ebx),%eax
    33e6:	75 0d                	jne    33f5 <block_read_direct+0x45>
    33e8:	eb 3e                	jmp    3428 <block_read_direct+0x78>
    33ea:	8d b6 00 00 00 00    	lea    0x0(%esi),%esi
    33f0:	3b 43 08             	cmp    0x8(%ebx),%eax
    33f3:	74 33                	je     3428 <block_read_direct+0x78>
    33f5:	8b 5b 04             	mov    0x4(%ebx),%ebx
    33f8:	81 fb a4 5e 00 00    	cmp    $0x5ea4,%ebx
    33fe:	75 f0                	jne    33f0 <block_read_direct+0x40>
    3400:	83 ec 0c             	sub    $0xc,%esp
    3403:	68 ac 5e 00 00       	push   $0x5eac
    3408:	e8 c3 0f 00 00       	call   43d0 <fibril_mutex_unlock@plt>
    340d:	83 c4 0c             	add    $0xc,%esp
    3410:	68 fd 02 00 00       	push   $0x2fd
    3415:	68 d4 3e 00 00       	push   $0x3ed4
    341a:	68 dc 3e 00 00       	push   $0x3edc
    341f:	e8 5c 0f 00 00       	call   4380 <assert_abort@plt>
    3424:	8d 74 26 00          	lea    0x0(%esi,%eiz,1),%esi
    3428:	83 ec 0c             	sub    $0xc,%esp
    342b:	68 ac 5e 00 00       	push   $0x5eac
    3430:	e8 9b 0f 00 00       	call   43d0 <fibril_mutex_unlock@plt>
    3435:	58                   	pop    %eax
    3436:	8b 4b 28             	mov    0x28(%ebx),%ecx
    3439:	8b 45 14             	mov    0x14(%ebp),%eax
    343c:	5a                   	pop    %edx
    343d:	0f af c1             	imul   %ecx,%eax
    3440:	50                   	push   %eax
    3441:	8b 45 18             	mov    0x18(%ebp),%eax
    3444:	50                   	push   %eax
    3445:	8b 45 14             	mov    0x14(%ebp),%eax
    3448:	50                   	push   %eax
    3449:	8b 43 10             	mov    0x10(%ebx),%eax
    344c:	57                   	push   %edi
    344d:	56                   	push   %esi
    344e:	50                   	push   %eax
    344f:	e8 fc 0e 00 00       	call   4350 <bd_read_blocks@plt>
    3454:	83 c4 20             	add    $0x20,%esp
    3457:	89 c1                	mov    %eax,%ecx
    3459:	85 c0                	test   %eax,%eax
    345b:	74 25                	je     3482 <block_read_direct+0xd2>
    345d:	50                   	push   %eax
    345e:	50                   	push   %eax
    345f:	8b 53 08             	mov    0x8(%ebx),%edx
    3462:	8b 5d 14             	mov    0x14(%ebp),%ebx
    3465:	52                   	push   %edx
    3466:	57                   	push   %edi
    3467:	56                   	push   %esi
    3468:	53                   	push   %ebx
    3469:	51                   	push   %ecx
    346a:	68 24 3f 00 00       	push   $0x3f24
    346f:	89 4d e4             	mov    %ecx,-0x1c(%ebp)
    3472:	e8 99 0d 00 00       	call   4210 <printf@plt>
    3477:	83 c4 20             	add    $0x20,%esp
    347a:	e8 a1 0e 00 00       	call   4320 <stacktrace_print@plt>
    347f:	8b 4d e4             	mov    -0x1c(%ebp),%ecx
    3482:	8d 65 f4             	lea    -0xc(%ebp),%esp
    3485:	89 c8                	mov    %ecx,%eax
    3487:	5b                   	pop    %ebx
    3488:	5e                   	pop    %esi
    3489:	5f                   	pop    %edi
    348a:	5d                   	pop    %ebp
    348b:	c3                   	ret    
    348c:	8d 74 26 00          	lea    0x0(%esi,%eiz,1),%esi

00003490 <block_write_direct>:
    3490:	55                   	push   %ebp
    3491:	89 e5                	mov    %esp,%ebp
    3493:	57                   	push   %edi
    3494:	56                   	push   %esi
    3495:	53                   	push   %ebx
    3496:	83 ec 28             	sub    $0x28,%esp
    3499:	8b 45 08             	mov    0x8(%ebp),%eax
    349c:	8b 75 0c             	mov    0xc(%ebp),%esi
    349f:	68 ac 5e 00 00       	push   $0x5eac
    34a4:	89 45 e4             	mov    %eax,-0x1c(%ebp)
    34a7:	8b 7d 10             	mov    0x10(%ebp),%edi
    34aa:	e8 51 10 00 00       	call   4500 <fibril_mutex_lock@plt>
    34af:	8b 1d a8 5e 00 00    	mov    0x5ea8,%ebx
    34b5:	83 c4 10             	add    $0x10,%esp
    34b8:	81 fb a4 5e 00 00    	cmp    $0x5ea4,%ebx
    34be:	74 20                	je     34e0 <block_write_direct+0x50>
    34c0:	8b 45 e4             	mov    -0x1c(%ebp),%eax
    34c3:	3b 43 08             	cmp    0x8(%ebx),%eax
    34c6:	75 0d                	jne    34d5 <block_write_direct+0x45>
    34c8:	eb 3e                	jmp    3508 <block_write_direct+0x78>
    34ca:	8d b6 00 00 00 00    	lea    0x0(%esi),%esi
    34d0:	3b 43 08             	cmp    0x8(%ebx),%eax
    34d3:	74 33                	je     3508 <block_write_direct+0x78>
    34d5:	8b 5b 04             	mov    0x4(%ebx),%ebx
    34d8:	81 fb a4 5e 00 00    	cmp    $0x5ea4,%ebx
    34de:	75 f0                	jne    34d0 <block_write_direct+0x40>
    34e0:	83 ec 0c             	sub    $0xc,%esp
    34e3:	68 ac 5e 00 00       	push   $0x5eac
    34e8:	e8 e3 0e 00 00       	call   43d0 <fibril_mutex_unlock@plt>
    34ed:	83 c4 0c             	add    $0xc,%esp
    34f0:	68 11 03 00 00       	push   $0x311
    34f5:	68 d4 3e 00 00       	push   $0x3ed4
    34fa:	68 dc 3e 00 00       	push   $0x3edc
    34ff:	e8 7c 0e 00 00       	call   4380 <assert_abort@plt>
    3504:	8d 74 26 00          	lea    0x0(%esi,%eiz,1),%esi
    3508:	83 ec 0c             	sub    $0xc,%esp
    350b:	68 ac 5e 00 00       	push   $0x5eac
    3510:	e8 bb 0e 00 00       	call   43d0 <fibril_mutex_unlock@plt>
    3515:	58                   	pop    %eax
    3516:	8b 4b 28             	mov    0x28(%ebx),%ecx
    3519:	8b 45 14             	mov    0x14(%ebp),%eax
    351c:	5a                   	pop    %edx
    351d:	0f af c1             	imul   %ecx,%eax
    3520:	50                   	push   %eax
    3521:	8b 45 18             	mov    0x18(%ebp),%eax
    3524:	50                   	push   %eax
    3525:	8b 45 14             	mov    0x14(%ebp),%eax
    3528:	50                   	push   %eax
    3529:	8b 43 10             	mov    0x10(%ebx),%eax
    352c:	57                   	push   %edi
    352d:	56                   	push   %esi
    352e:	50                   	push   %eax
    352f:	e8 5c 0d 00 00       	call   4290 <bd_write_blocks@plt>
    3534:	83 c4 20             	add    $0x20,%esp
    3537:	89 c1                	mov    %eax,%ecx
    3539:	85 c0                	test   %eax,%eax
    353b:	74 25                	je     3562 <block_write_direct+0xd2>
    353d:	50                   	push   %eax
    353e:	50                   	push   %eax
    353f:	8b 53 08             	mov    0x8(%ebx),%edx
    3542:	8b 5d 14             	mov    0x14(%ebp),%ebx
    3545:	52                   	push   %edx
    3546:	57                   	push   %edi
    3547:	56                   	push   %esi
    3548:	53                   	push   %ebx
    3549:	51                   	push   %ecx
    354a:	68 70 3f 00 00       	push   $0x3f70
    354f:	89 4d e4             	mov    %ecx,-0x1c(%ebp)
    3552:	e8 b9 0c 00 00       	call   4210 <printf@plt>
    3557:	83 c4 20             	add    $0x20,%esp
    355a:	e8 c1 0d 00 00       	call   4320 <stacktrace_print@plt>
    355f:	8b 4d e4             	mov    -0x1c(%ebp),%ecx
    3562:	8d 65 f4             	lea    -0xc(%ebp),%esp
    3565:	89 c8                	mov    %ecx,%eax
    3567:	5b                   	pop    %ebx
    3568:	5e                   	pop    %esi
    3569:	5f                   	pop    %edi
    356a:	5d                   	pop    %ebp
    356b:	c3                   	ret    
    356c:	8d 74 26 00          	lea    0x0(%esi,%eiz,1),%esi

00003570 <block_sync_cache>:
    3570:	55                   	push   %ebp
    3571:	89 e5                	mov    %esp,%ebp
    3573:	57                   	push   %edi
    3574:	56                   	push   %esi
    3575:	53                   	push   %ebx
    3576:	83 ec 28             	sub    $0x28,%esp
    3579:	8b 55 08             	mov    0x8(%ebp),%edx
    357c:	8b 75 0c             	mov    0xc(%ebp),%esi
    357f:	68 ac 5e 00 00       	push   $0x5eac
    3584:	89 55 e4             	mov    %edx,-0x1c(%ebp)
    3587:	8b 7d 10             	mov    0x10(%ebp),%edi
    358a:	8b 5d 14             	mov    0x14(%ebp),%ebx
    358d:	e8 6e 0f 00 00       	call   4500 <fibril_mutex_lock@plt>
    3592:	a1 a8 5e 00 00       	mov    0x5ea8,%eax
    3597:	83 c4 10             	add    $0x10,%esp
    359a:	3d a4 5e 00 00       	cmp    $0x5ea4,%eax
    359f:	74 1e                	je     35bf <block_sync_cache+0x4f>
    35a1:	8b 55 e4             	mov    -0x1c(%ebp),%edx
    35a4:	3b 50 08             	cmp    0x8(%eax),%edx
    35a7:	75 0c                	jne    35b5 <block_sync_cache+0x45>
    35a9:	eb 3d                	jmp    35e8 <block_sync_cache+0x78>
    35ab:	90                   	nop
    35ac:	8d 74 26 00          	lea    0x0(%esi,%eiz,1),%esi
    35b0:	3b 50 08             	cmp    0x8(%eax),%edx
    35b3:	74 33                	je     35e8 <block_sync_cache+0x78>
    35b5:	8b 40 04             	mov    0x4(%eax),%eax
    35b8:	3d a4 5e 00 00       	cmp    $0x5ea4,%eax
    35bd:	75 f1                	jne    35b0 <block_sync_cache+0x40>
    35bf:	83 ec 0c             	sub    $0xc,%esp
    35c2:	68 ac 5e 00 00       	push   $0x5eac
    35c7:	e8 04 0e 00 00       	call   43d0 <fibril_mutex_unlock@plt>
    35cc:	83 c4 0c             	add    $0xc,%esp
    35cf:	68 23 03 00 00       	push   $0x323
    35d4:	68 d4 3e 00 00       	push   $0x3ed4
    35d9:	68 dc 3e 00 00       	push   $0x3edc
    35de:	e8 9d 0d 00 00       	call   4380 <assert_abort@plt>
    35e3:	90                   	nop
    35e4:	8d 74 26 00          	lea    0x0(%esi,%eiz,1),%esi
    35e8:	83 ec 0c             	sub    $0xc,%esp
    35eb:	89 45 e4             	mov    %eax,-0x1c(%ebp)
    35ee:	68 ac 5e 00 00       	push   $0x5eac
    35f3:	e8 d8 0d 00 00       	call   43d0 <fibril_mutex_unlock@plt>
    35f8:	8b 45 e4             	mov    -0x1c(%ebp),%eax
    35fb:	89 5d 14             	mov    %ebx,0x14(%ebp)
    35fe:	89 75 0c             	mov    %esi,0xc(%ebp)
    3601:	89 7d 10             	mov    %edi,0x10(%ebp)
    3604:	8b 40 10             	mov    0x10(%eax),%eax
    3607:	83 c4 10             	add    $0x10,%esp
    360a:	89 45 08             	mov    %eax,0x8(%ebp)
    360d:	8d 65 f4             	lea    -0xc(%ebp),%esp
    3610:	5b                   	pop    %ebx
    3611:	5e                   	pop    %esi
    3612:	5f                   	pop    %edi
    3613:	5d                   	pop    %ebp
    3614:	e9 47 0e 00 00       	jmp    4460 <bd_sync_cache@plt>
    3619:	8d b4 26 00 00 00 00 	lea    0x0(%esi,%eiz,1),%esi

00003620 <block_get_bsize>:
    3620:	55                   	push   %ebp
    3621:	89 e5                	mov    %esp,%ebp
    3623:	57                   	push   %edi
    3624:	56                   	push   %esi
    3625:	53                   	push   %ebx
    3626:	83 ec 18             	sub    $0x18,%esp
    3629:	8b 75 08             	mov    0x8(%ebp),%esi
    362c:	8b 7d 0c             	mov    0xc(%ebp),%edi
    362f:	68 ac 5e 00 00       	push   $0x5eac
    3634:	e8 c7 0e 00 00       	call   4500 <fibril_mutex_lock@plt>
    3639:	8b 1d a8 5e 00 00    	mov    0x5ea8,%ebx
    363f:	83 c4 10             	add    $0x10,%esp
    3642:	81 fb a4 5e 00 00    	cmp    $0x5ea4,%ebx
    3648:	75 11                	jne    365b <block_get_bsize+0x3b>
    364a:	eb 3c                	jmp    3688 <block_get_bsize+0x68>
    364c:	8d 74 26 00          	lea    0x0(%esi,%eiz,1),%esi
    3650:	8b 5b 04             	mov    0x4(%ebx),%ebx
    3653:	81 fb a4 5e 00 00    	cmp    $0x5ea4,%ebx
    3659:	74 2d                	je     3688 <block_get_bsize+0x68>
    365b:	3b 73 08             	cmp    0x8(%ebx),%esi
    365e:	75 f0                	jne    3650 <block_get_bsize+0x30>
    3660:	83 ec 0c             	sub    $0xc,%esp
    3663:	68 ac 5e 00 00       	push   $0x5eac
    3668:	e8 63 0d 00 00       	call   43d0 <fibril_mutex_unlock@plt>
    366d:	89 7d 0c             	mov    %edi,0xc(%ebp)
    3670:	83 c4 10             	add    $0x10,%esp
    3673:	8b 43 10             	mov    0x10(%ebx),%eax
    3676:	89 45 08             	mov    %eax,0x8(%ebp)
    3679:	8d 65 f4             	lea    -0xc(%ebp),%esp
    367c:	5b                   	pop    %ebx
    367d:	5e                   	pop    %esi
    367e:	5f                   	pop    %edi
    367f:	5d                   	pop    %ebp
    3680:	e9 ab 0d 00 00       	jmp    4430 <bd_get_block_size@plt>
    3685:	8d 76 00             	lea    0x0(%esi),%esi
    3688:	83 ec 0c             	sub    $0xc,%esp
    368b:	68 ac 5e 00 00       	push   $0x5eac
    3690:	e8 3b 0d 00 00       	call   43d0 <fibril_mutex_unlock@plt>
    3695:	83 c4 0c             	add    $0xc,%esp
    3698:	68 34 03 00 00       	push   $0x334
    369d:	68 d4 3e 00 00       	push   $0x3ed4
    36a2:	68 dc 3e 00 00       	push   $0x3edc
    36a7:	e8 d4 0c 00 00       	call   4380 <assert_abort@plt>
    36ac:	8d 74 26 00          	lea    0x0(%esi,%eiz,1),%esi

000036b0 <block_get_nblocks>:
    36b0:	55                   	push   %ebp
    36b1:	89 e5                	mov    %esp,%ebp
    36b3:	57                   	push   %edi
    36b4:	56                   	push   %esi
    36b5:	53                   	push   %ebx
    36b6:	83 ec 18             	sub    $0x18,%esp
    36b9:	8b 75 08             	mov    0x8(%ebp),%esi
    36bc:	8b 7d 0c             	mov    0xc(%ebp),%edi
    36bf:	68 ac 5e 00 00       	push   $0x5eac
    36c4:	e8 37 0e 00 00       	call   4500 <fibril_mutex_lock@plt>
    36c9:	8b 1d a8 5e 00 00    	mov    0x5ea8,%ebx
    36cf:	83 c4 10             	add    $0x10,%esp
    36d2:	81 fb a4 5e 00 00    	cmp    $0x5ea4,%ebx
    36d8:	75 11                	jne    36eb <block_get_nblocks+0x3b>
    36da:	eb 3c                	jmp    3718 <block_get_nblocks+0x68>
    36dc:	8d 74 26 00          	lea    0x0(%esi,%eiz,1),%esi
    36e0:	8b 5b 04             	mov    0x4(%ebx),%ebx
    36e3:	81 fb a4 5e 00 00    	cmp    $0x5ea4,%ebx
    36e9:	74 2d                	je     3718 <block_get_nblocks+0x68>
    36eb:	3b 73 08             	cmp    0x8(%ebx),%esi
    36ee:	75 f0                	jne    36e0 <block_get_nblocks+0x30>
    36f0:	83 ec 0c             	sub    $0xc,%esp
    36f3:	68 ac 5e 00 00       	push   $0x5eac
    36f8:	e8 d3 0c 00 00       	call   43d0 <fibril_mutex_unlock@plt>
    36fd:	89 7d 0c             	mov    %edi,0xc(%ebp)
    3700:	83 c4 10             	add    $0x10,%esp
    3703:	8b 43 10             	mov    0x10(%ebx),%eax
    3706:	89 45 08             	mov    %eax,0x8(%ebp)
    3709:	8d 65 f4             	lea    -0xc(%ebp),%esp
    370c:	5b                   	pop    %ebx
    370d:	5e                   	pop    %esi
    370e:	5f                   	pop    %edi
    370f:	5d                   	pop    %ebp
    3710:	e9 8b 0b 00 00       	jmp    42a0 <bd_get_num_blocks@plt>
    3715:	8d 76 00             	lea    0x0(%esi),%esi
    3718:	83 ec 0c             	sub    $0xc,%esp
    371b:	68 ac 5e 00 00       	push   $0x5eac
    3720:	e8 ab 0c 00 00       	call   43d0 <fibril_mutex_unlock@plt>
    3725:	83 c4 0c             	add    $0xc,%esp
    3728:	68 43 03 00 00       	push   $0x343
    372d:	68 d4 3e 00 00       	push   $0x3ed4
    3732:	68 dc 3e 00 00       	push   $0x3edc
    3737:	e8 44 0c 00 00       	call   4380 <assert_abort@plt>
    373c:	8d 74 26 00          	lea    0x0(%esi,%eiz,1),%esi

00003740 <block_read_bytes_direct>:
    3740:	55                   	push   %ebp
    3741:	89 e5                	mov    %esp,%ebp
    3743:	57                   	push   %edi
    3744:	56                   	push   %esi
    3745:	53                   	push   %ebx
    3746:	83 ec 48             	sub    $0x48,%esp
    3749:	8b 45 0c             	mov    0xc(%ebp),%eax
    374c:	8b 55 10             	mov    0x10(%ebp),%edx
    374f:	68 ac 5e 00 00       	push   $0x5eac
    3754:	8b 5d 08             	mov    0x8(%ebp),%ebx
    3757:	89 45 d0             	mov    %eax,-0x30(%ebp)
    375a:	89 55 d4             	mov    %edx,-0x2c(%ebp)
    375d:	e8 9e 0d 00 00       	call   4500 <fibril_mutex_lock@plt>
    3762:	8b 35 a8 5e 00 00    	mov    0x5ea8,%esi
    3768:	83 c4 10             	add    $0x10,%esp
    376b:	81 fe a4 5e 00 00    	cmp    $0x5ea4,%esi
    3771:	75 10                	jne    3783 <block_read_bytes_direct+0x43>
    3773:	eb 43                	jmp    37b8 <block_read_bytes_direct+0x78>
    3775:	8d 76 00             	lea    0x0(%esi),%esi
    3778:	8b 76 04             	mov    0x4(%esi),%esi
    377b:	81 fe a4 5e 00 00    	cmp    $0x5ea4,%esi
    3781:	74 35                	je     37b8 <block_read_bytes_direct+0x78>
    3783:	3b 5e 08             	cmp    0x8(%esi),%ebx
    3786:	75 f0                	jne    3778 <block_read_bytes_direct+0x38>
    3788:	83 ec 0c             	sub    $0xc,%esp
    378b:	68 ac 5e 00 00       	push   $0x5eac
    3790:	e8 3b 0c 00 00       	call   43d0 <fibril_mutex_unlock@plt>
    3795:	8d 45 e4             	lea    -0x1c(%ebp),%eax
    3798:	59                   	pop    %ecx
    3799:	5f                   	pop    %edi
    379a:	50                   	push   %eax
    379b:	8b 46 10             	mov    0x10(%esi),%eax
    379e:	50                   	push   %eax
    379f:	e8 8c 0c 00 00       	call   4430 <bd_get_block_size@plt>
    37a4:	83 c4 10             	add    $0x10,%esp
    37a7:	89 c1                	mov    %eax,%ecx
    37a9:	85 c0                	test   %eax,%eax
    37ab:	74 33                	je     37e0 <block_read_bytes_direct+0xa0>
    37ad:	8d 65 f4             	lea    -0xc(%ebp),%esp
    37b0:	89 c8                	mov    %ecx,%eax
    37b2:	5b                   	pop    %ebx
    37b3:	5e                   	pop    %esi
    37b4:	5f                   	pop    %edi
    37b5:	5d                   	pop    %ebp
    37b6:	c3                   	ret    
    37b7:	90                   	nop
    37b8:	83 ec 0c             	sub    $0xc,%esp
    37bb:	68 ac 5e 00 00       	push   $0x5eac
    37c0:	e8 0b 0c 00 00       	call   43d0 <fibril_mutex_unlock@plt>
    37c5:	83 c4 0c             	add    $0xc,%esp
    37c8:	68 34 03 00 00       	push   $0x334
    37cd:	68 d4 3e 00 00       	push   $0x3ed4
    37d2:	68 dc 3e 00 00       	push   $0x3edc
    37d7:	e8 a4 0b 00 00       	call   4380 <assert_abort@plt>
    37dc:	8d 74 26 00          	lea    0x0(%esi,%eiz,1),%esi
    37e0:	8b 75 e4             	mov    -0x1c(%ebp),%esi
    37e3:	31 d2                	xor    %edx,%edx
    37e5:	8b 45 d4             	mov    -0x2c(%ebp),%eax
    37e8:	52                   	push   %edx
    37e9:	56                   	push   %esi
    37ea:	50                   	push   %eax
    37eb:	8b 45 d0             	mov    -0x30(%ebp),%eax
    37ee:	89 75 c8             	mov    %esi,-0x38(%ebp)
    37f1:	50                   	push   %eax
    37f2:	89 55 cc             	mov    %edx,-0x34(%ebp)
    37f5:	e8 46 0b 00 00       	call   4340 <__udivdi3@plt>
    37fa:	83 c4 10             	add    $0x10,%esp
    37fd:	89 45 c0             	mov    %eax,-0x40(%ebp)
    3800:	8b 45 14             	mov    0x14(%ebp),%eax
    3803:	89 55 c4             	mov    %edx,-0x3c(%ebp)
    3806:	31 d2                	xor    %edx,%edx
    3808:	03 45 d0             	add    -0x30(%ebp),%eax
    380b:	8b 4d cc             	mov    -0x34(%ebp),%ecx
    380e:	13 55 d4             	adc    -0x2c(%ebp),%edx
    3811:	83 c0 ff             	add    $0xffffffff,%eax
    3814:	83 d2 ff             	adc    $0xffffffff,%edx
    3817:	8b 7d c8             	mov    -0x38(%ebp),%edi
    381a:	51                   	push   %ecx
    381b:	57                   	push   %edi
    381c:	52                   	push   %edx
    381d:	50                   	push   %eax
    381e:	e8 1d 0b 00 00       	call   4340 <__udivdi3@plt>
    3823:	8b 55 c0             	mov    -0x40(%ebp),%edx
    3826:	29 d0                	sub    %edx,%eax
    3828:	40                   	inc    %eax
    3829:	0f af f0             	imul   %eax,%esi
    382c:	89 45 bc             	mov    %eax,-0x44(%ebp)
    382f:	89 34 24             	mov    %esi,(%esp)
    3832:	e8 a9 0a 00 00       	call   42e0 <malloc@plt>
    3837:	83 c4 10             	add    $0x10,%esp
    383a:	89 c6                	mov    %eax,%esi
    383c:	85 c0                	test   %eax,%eax
    383e:	0f 84 19 01 00 00    	je     395d <block_read_bytes_direct+0x21d>
    3844:	83 ec 0c             	sub    $0xc,%esp
    3847:	68 ac 5e 00 00       	push   $0x5eac
    384c:	e8 af 0c 00 00       	call   4500 <fibril_mutex_lock@plt>
    3851:	8b 3d a8 5e 00 00    	mov    0x5ea8,%edi
    3857:	83 c4 10             	add    $0x10,%esp
    385a:	81 ff a4 5e 00 00    	cmp    $0x5ea4,%edi
    3860:	75 15                	jne    3877 <block_read_bytes_direct+0x137>
    3862:	e9 91 00 00 00       	jmp    38f8 <block_read_bytes_direct+0x1b8>
    3867:	90                   	nop
    3868:	8b 7f 04             	mov    0x4(%edi),%edi
    386b:	81 ff a4 5e 00 00    	cmp    $0x5ea4,%edi
    3871:	0f 84 81 00 00 00    	je     38f8 <block_read_bytes_direct+0x1b8>
    3877:	3b 5f 08             	cmp    0x8(%edi),%ebx
    387a:	75 ec                	jne    3868 <block_read_bytes_direct+0x128>
    387c:	83 ec 0c             	sub    $0xc,%esp
    387f:	68 ac 5e 00 00       	push   $0x5eac
    3884:	e8 47 0b 00 00       	call   43d0 <fibril_mutex_unlock@plt>
    3889:	58                   	pop    %eax
    388a:	8b 47 28             	mov    0x28(%edi),%eax
    388d:	5a                   	pop    %edx
    388e:	8b 55 bc             	mov    -0x44(%ebp),%edx
    3891:	0f af c2             	imul   %edx,%eax
    3894:	50                   	push   %eax
    3895:	56                   	push   %esi
    3896:	8b 4d c4             	mov    -0x3c(%ebp),%ecx
    3899:	8b 5d c0             	mov    -0x40(%ebp),%ebx
    389c:	8b 47 10             	mov    0x10(%edi),%eax
    389f:	52                   	push   %edx
    38a0:	51                   	push   %ecx
    38a1:	53                   	push   %ebx
    38a2:	50                   	push   %eax
    38a3:	e8 a8 0a 00 00       	call   4350 <bd_read_blocks@plt>
    38a8:	83 c4 20             	add    $0x20,%esp
    38ab:	89 c1                	mov    %eax,%ecx
    38ad:	85 c0                	test   %eax,%eax
    38af:	75 6b                	jne    391c <block_read_bytes_direct+0x1dc>
    38b1:	89 45 c0             	mov    %eax,-0x40(%ebp)
    38b4:	8b 55 14             	mov    0x14(%ebp),%edx
    38b7:	8b 5d cc             	mov    -0x34(%ebp),%ebx
    38ba:	8b 7d c8             	mov    -0x38(%ebp),%edi
    38bd:	50                   	push   %eax
    38be:	8b 45 d4             	mov    -0x2c(%ebp),%eax
    38c1:	52                   	push   %edx
    38c2:	51                   	push   %ecx
    38c3:	51                   	push   %ecx
    38c4:	53                   	push   %ebx
    38c5:	57                   	push   %edi
    38c6:	50                   	push   %eax
    38c7:	8b 45 d0             	mov    -0x30(%ebp),%eax
    38ca:	50                   	push   %eax
    38cb:	e8 60 0a 00 00       	call   4330 <__umoddi3@plt>
    38d0:	83 c4 18             	add    $0x18,%esp
    38d3:	01 f0                	add    %esi,%eax
    38d5:	50                   	push   %eax
    38d6:	8b 45 18             	mov    0x18(%ebp),%eax
    38d9:	50                   	push   %eax
    38da:	e8 f1 09 00 00       	call   42d0 <memcpy@plt>
    38df:	89 34 24             	mov    %esi,(%esp)
    38e2:	e8 09 0c 00 00       	call   44f0 <free@plt>
    38e7:	8b 4d c0             	mov    -0x40(%ebp),%ecx
    38ea:	83 c4 10             	add    $0x10,%esp
    38ed:	8d 65 f4             	lea    -0xc(%ebp),%esp
    38f0:	89 c8                	mov    %ecx,%eax
    38f2:	5b                   	pop    %ebx
    38f3:	5e                   	pop    %esi
    38f4:	5f                   	pop    %edi
    38f5:	5d                   	pop    %ebp
    38f6:	c3                   	ret    
    38f7:	90                   	nop
    38f8:	83 ec 0c             	sub    $0xc,%esp
    38fb:	68 ac 5e 00 00       	push   $0x5eac
    3900:	e8 cb 0a 00 00       	call   43d0 <fibril_mutex_unlock@plt>
    3905:	83 c4 0c             	add    $0xc,%esp
    3908:	68 fd 02 00 00       	push   $0x2fd
    390d:	68 d4 3e 00 00       	push   $0x3ed4
    3912:	68 dc 3e 00 00       	push   $0x3edc
    3917:	e8 64 0a 00 00       	call   4380 <assert_abort@plt>
    391c:	50                   	push   %eax
    391d:	50                   	push   %eax
    391e:	8b 47 08             	mov    0x8(%edi),%eax
    3921:	8b 55 c0             	mov    -0x40(%ebp),%edx
    3924:	50                   	push   %eax
    3925:	8b 5d bc             	mov    -0x44(%ebp),%ebx
    3928:	8b 45 c4             	mov    -0x3c(%ebp),%eax
    392b:	89 4d d0             	mov    %ecx,-0x30(%ebp)
    392e:	50                   	push   %eax
    392f:	52                   	push   %edx
    3930:	53                   	push   %ebx
    3931:	51                   	push   %ecx
    3932:	68 24 3f 00 00       	push   $0x3f24
    3937:	e8 d4 08 00 00       	call   4210 <printf@plt>
    393c:	83 c4 20             	add    $0x20,%esp
    393f:	e8 dc 09 00 00       	call   4320 <stacktrace_print@plt>
    3944:	83 ec 0c             	sub    $0xc,%esp
    3947:	56                   	push   %esi
    3948:	e8 a3 0b 00 00       	call   44f0 <free@plt>
    394d:	8b 4d d0             	mov    -0x30(%ebp),%ecx
    3950:	83 c4 10             	add    $0x10,%esp
    3953:	8d 65 f4             	lea    -0xc(%ebp),%esp
    3956:	89 c8                	mov    %ecx,%eax
    3958:	5b                   	pop    %ebx
    3959:	5e                   	pop    %esi
    395a:	5f                   	pop    %edi
    395b:	5d                   	pop    %ebp
    395c:	c3                   	ret    
    395d:	b9 fe ff ff ff       	mov    $0xfffffffe,%ecx
    3962:	e9 46 fe ff ff       	jmp    37ad <block_read_bytes_direct+0x6d>
    3967:	89 f6                	mov    %esi,%esi
    3969:	8d bc 27 00 00 00 00 	lea    0x0(%edi,%eiz,1),%edi

00003970 <block_read_toc>:
    3970:	55                   	push   %ebp
    3971:	89 e5                	mov    %esp,%ebp
    3973:	57                   	push   %edi
    3974:	56                   	push   %esi
    3975:	53                   	push   %ebx
    3976:	83 ec 28             	sub    $0x28,%esp
    3979:	8b 55 08             	mov    0x8(%ebp),%edx
    397c:	8b 5d 0c             	mov    0xc(%ebp),%ebx
    397f:	68 ac 5e 00 00       	push   $0x5eac
    3984:	89 55 e4             	mov    %edx,-0x1c(%ebp)
    3987:	8b 75 10             	mov    0x10(%ebp),%esi
    398a:	8b 7d 14             	mov    0x14(%ebp),%edi
    398d:	e8 6e 0b 00 00       	call   4500 <fibril_mutex_lock@plt>
    3992:	a1 a8 5e 00 00       	mov    0x5ea8,%eax
    3997:	83 c4 10             	add    $0x10,%esp
    399a:	3d a4 5e 00 00       	cmp    $0x5ea4,%eax
    399f:	74 1e                	je     39bf <block_read_toc+0x4f>
    39a1:	8b 55 e4             	mov    -0x1c(%ebp),%edx
    39a4:	3b 50 08             	cmp    0x8(%eax),%edx
    39a7:	75 0c                	jne    39b5 <block_read_toc+0x45>
    39a9:	eb 3d                	jmp    39e8 <block_read_toc+0x78>
    39ab:	90                   	nop
    39ac:	8d 74 26 00          	lea    0x0(%esi,%eiz,1),%esi
    39b0:	3b 50 08             	cmp    0x8(%eax),%edx
    39b3:	74 33                	je     39e8 <block_read_toc+0x78>
    39b5:	8b 40 04             	mov    0x4(%eax),%eax
    39b8:	3d a4 5e 00 00       	cmp    $0x5ea4,%eax
    39bd:	75 f1                	jne    39b0 <block_read_toc+0x40>
    39bf:	83 ec 0c             	sub    $0xc,%esp
    39c2:	68 ac 5e 00 00       	push   $0x5eac
    39c7:	e8 04 0a 00 00       	call   43d0 <fibril_mutex_unlock@plt>
    39cc:	83 c4 0c             	add    $0xc,%esp
    39cf:	68 8a 03 00 00       	push   $0x38a
    39d4:	68 d4 3e 00 00       	push   $0x3ed4
    39d9:	68 dc 3e 00 00       	push   $0x3edc
    39de:	e8 9d 09 00 00       	call   4380 <assert_abort@plt>
    39e3:	90                   	nop
    39e4:	8d 74 26 00          	lea    0x0(%esi,%eiz,1),%esi
    39e8:	83 ec 0c             	sub    $0xc,%esp
    39eb:	89 45 e4             	mov    %eax,-0x1c(%ebp)
    39ee:	81 e3 ff 00 00 00    	and    $0xff,%ebx
    39f4:	68 ac 5e 00 00       	push   $0x5eac
    39f9:	e8 d2 09 00 00       	call   43d0 <fibril_mutex_unlock@plt>
    39fe:	8b 45 e4             	mov    -0x1c(%ebp),%eax
    3a01:	89 7d 14             	mov    %edi,0x14(%ebp)
    3a04:	89 75 10             	mov    %esi,0x10(%ebp)
    3a07:	89 5d 0c             	mov    %ebx,0xc(%ebp)
    3a0a:	8b 40 10             	mov    0x10(%eax),%eax
    3a0d:	83 c4 10             	add    $0x10,%esp
    3a10:	89 45 08             	mov    %eax,0x8(%ebp)
    3a13:	8d 65 f4             	lea    -0xc(%ebp),%esp
    3a16:	5b                   	pop    %ebx
    3a17:	5e                   	pop    %esi
    3a18:	5f                   	pop    %edi
    3a19:	5d                   	pop    %ebp
    3a1a:	e9 a1 09 00 00       	jmp    43c0 <bd_read_toc@plt>

00003a1f <write_blocks.part.3>:
    3a1f:	55                   	push   %ebp
    3a20:	89 e5                	mov    %esp,%ebp
    3a22:	83 ec 0c             	sub    $0xc,%esp
    3a25:	68 b5 03 00 00       	push   $0x3b5
    3a2a:	68 d4 3e 00 00       	push   $0x3ed4
    3a2f:	68 dc 3e 00 00       	push   $0x3edc
    3a34:	e8 47 09 00 00       	call   4380 <assert_abort@plt>
    3a39:	66 90                	xchg   %ax,%ax
    3a3b:	90                   	nop
    3a3c:	45                   	inc    %ebp
    3a3d:	72 72                	jb     3ab1 <write_blocks.part.3+0x92>
    3a3f:	6f                   	outsl  %ds:(%esi),(%dx)
    3a40:	72 20                	jb     3a62 <write_blocks.part.3+0x43>
    3a42:	6f                   	outsl  %ds:(%esi),(%dx)
    3a43:	70 65                	jo     3aaa <write_blocks.part.3+0x8b>
    3a45:	6e                   	outsb  %ds:(%esi),(%dx)
    3a46:	69 6e 67 20 62 6c 6f 	imul   $0x6f6c6220,0x67(%esi),%ebp
    3a4d:	63 6b 20             	arpl   %bp,0x20(%ebx)
    3a50:	64 65 76 69          	fs gs jbe 3abd <write_blocks.part.3+0x9e>
    3a54:	63 65 20             	arpl   %sp,0x20(%ebp)
    3a57:	73 65                	jae    3abe <write_blocks.part.3+0x9f>
    3a59:	72 76                	jb     3ad1 <write_blocks.part.3+0xb2>
    3a5b:	69 63 65 20 25 7a 75 	imul   $0x757a2520,0x65(%ebx),%esp
    3a62:	00 00                	add    %al,(%eax)
    3a64:	45                   	inc    %ebp
    3a65:	72 72                	jb     3ad9 <write_blocks.part.3+0xba>
    3a67:	6f                   	outsl  %ds:(%esi),(%dx)
    3a68:	72 20                	jb     3a8a <write_blocks.part.3+0x6b>
    3a6a:	67 65 74 74          	addr16 gs je 3ae2 <write_blocks.part.3+0xc3>
    3a6e:	69 6e 67 20 6e 75 6d 	imul   $0x6d756e20,0x67(%esi),%ebp
    3a75:	62 65 72             	bound  %esp,0x72(%ebp)
    3a78:	20 6f 66             	and    %ch,0x66(%edi)
    3a7b:	20 62 6c             	and    %ah,0x6c(%edx)
    3a7e:	6f                   	outsl  %ds:(%esi),(%dx)
    3a7f:	63 6b 73             	arpl   %bp,0x73(%ebx)
    3a82:	2e 00 45 72          	add    %al,%cs:0x72(%ebp)
    3a86:	72 6f                	jb     3af7 <write_blocks.part.3+0xd8>
    3a88:	72 20                	jb     3aaa <write_blocks.part.3+0x8b>
    3a8a:	67 65 74 74          	addr16 gs je 3b02 <write_blocks.part.3+0xe3>
    3a8e:	69 6e 67 20 62 6c 6f 	imul   $0x6f6c6220,0x67(%esi),%ebp
    3a95:	63 6b 20             	arpl   %bp,0x20(%ebx)
    3a98:	73 69                	jae    3b03 <write_blocks.part.3+0xe4>
    3a9a:	7a 65                	jp     3b01 <write_blocks.part.3+0xe2>
    3a9c:	2e 00 45 72          	add    %al,%cs:0x72(%ebp)
    3aa0:	72 6f                	jb     3b11 <write_blocks.part.3+0xf2>
    3aa2:	72 20                	jb     3ac4 <write_blocks.part.3+0xa5>
    3aa4:	61                   	popa   
    3aa5:	6c                   	insb   (%dx),%es:(%edi)
    3aa6:	6c                   	insb   (%dx),%es:(%edi)
    3aa7:	6f                   	outsl  %ds:(%esi),(%dx)
    3aa8:	63 61 74             	arpl   %sp,0x74(%ecx)
    3aab:	69 6e 67 20 62 75 66 	imul   $0x66756220,0x67(%esi),%ebp
    3ab2:	66 65 72 2e          	data16 gs jb 3ae4 <write_blocks.part.3+0xc5>
    3ab6:	00 45 72             	add    %al,0x72(%ebp)
    3ab9:	72 6f                	jb     3b2a <write_blocks.part.3+0x10b>
    3abb:	72 20                	jb     3add <write_blocks.part.3+0xbe>
    3abd:	72 65                	jb     3b24 <write_blocks.part.3+0x105>
    3abf:	61                   	popa   
    3ac0:	64 69 6e 67 20 62 6c 	imul   $0x6f6c6220,%fs:0x67(%esi),%ebp
    3ac7:	6f 
    3ac8:	63 6b 73             	arpl   %bp,0x73(%ebx)
    3acb:	2e 00 45 72          	add    %al,%cs:0x72(%ebp)
    3acf:	72 6f                	jb     3b40 <write_blocks.part.3+0x121>
    3ad1:	72 20                	jb     3af3 <write_blocks.part.3+0xd4>
    3ad3:	73 70                	jae    3b45 <write_blocks.part.3+0x126>
    3ad5:	61                   	popa   
    3ad6:	77 6e                	ja     3b46 <write_blocks.part.3+0x127>
    3ad8:	69 6e 67 20 25 73 20 	imul   $0x20732520,0x67(%esi),%ebp
    3adf:	28 25 73 29 00 45    	sub    %ah,0x45002973
    3ae5:	72 72                	jb     3b59 <write_blocks.part.3+0x13a>
    3ae7:	6f                   	outsl  %ds:(%esi),(%dx)
    3ae8:	72 20                	jb     3b0a <write_blocks.part.3+0xeb>
    3aea:	77 61                	ja     3b4d <write_blocks.part.3+0x12e>
    3aec:	69 74 69 6e 67 20 66 	imul   $0x6f662067,0x6e(%ecx,%ebp,2),%esi
    3af3:	6f 
    3af4:	72 20                	jb     3b16 <write_blocks.part.3+0xf7>
    3af6:	25 73 20 28 25       	and    $0x25282073,%eax
    3afb:	73 29                	jae    3b26 <write_blocks.part.3+0x107>
    3afd:	00 2f                	add    %ch,(%edi)
    3aff:	61                   	popa   
    3b00:	70 70                	jo     3b72 <write_blocks.part.3+0x153>
    3b02:	2f                   	das    
    3b03:	6d                   	insl   (%dx),%es:(%edi)
    3b04:	6b 65 78 66          	imul   $0x66,0x78(%ebp),%esp
    3b08:	61                   	popa   
    3b09:	74 00                	je     3b0b <write_blocks.part.3+0xec>
    3b0b:	2f                   	das    
    3b0c:	61                   	popa   
    3b0d:	70 70                	jo     3b7f <write_blocks.part.3+0x160>
    3b0f:	2f                   	das    
    3b10:	6d                   	insl   (%dx),%es:(%edi)
    3b11:	6b 66 61 74          	imul   $0x74,0x61(%esi),%esp
    3b15:	00 2f                	add    %ch,(%edi)
    3b17:	61                   	popa   
    3b18:	70 70                	jo     3b8a <write_blocks.part.3+0x16b>
    3b1a:	2f                   	das    
    3b1b:	6d                   	insl   (%dx),%es:(%edi)
    3b1c:	6b 6d 66 73          	imul   $0x73,0x66(%ebp),%ebp
    3b20:	00 66 90             	add    %ah,-0x70(%esi)
    3b23:	90                   	nop
    3b24:	45                   	inc    %ebp
    3b25:	72 72                	jb     3b99 <CSWTCH.7+0x1>
    3b27:	6f                   	outsl  %ds:(%esi),(%dx)
    3b28:	72 20                	jb     3b4a <write_blocks.part.3+0x12b>
    3b2a:	73 70                	jae    3b9c <CSWTCH.7+0x4>
    3b2c:	61                   	popa   
    3b2d:	77 6e                	ja     3b9d <CSWTCH.7+0x5>
    3b2f:	69 6e 67 20 25 73 20 	imul   $0x20732520,0x67(%esi),%ebp
    3b36:	28 69 6e             	sub    %ch,0x6e(%ecx)
    3b39:	76 61                	jbe    3b9c <CSWTCH.7+0x4>
    3b3b:	6c                   	insb   (%dx),%es:(%edi)
    3b3c:	69 64 20 74 61 73 6b 	imul   $0x206b7361,0x74(%eax,%eiz,1),%esp
    3b43:	20 
    3b44:	49                   	dec    %ecx
    3b45:	44                   	inc    %esp
    3b46:	29 00                	sub    %eax,(%eax)
    3b48:	43                   	inc    %ebx
    3b49:	6f                   	outsl  %ds:(%esi),(%dx)
    3b4a:	6d                   	insl   (%dx),%es:(%edi)
    3b4b:	6d                   	insl   (%dx),%es:(%edi)
    3b4c:	61                   	popa   
    3b4d:	6e                   	outsb  %ds:(%esi),(%dx)
    3b4e:	64 20 25 73 20 75 6e 	and    %ah,%fs:0x6e752073
    3b55:	65 78 70             	gs js  3bc8 <CSWTCH.7+0x30>
    3b58:	65 63 74 65 64       	arpl   %si,%gs:0x64(%ebp,%eiz,2)
    3b5d:	6c                   	insb   (%dx),%es:(%edi)
    3b5e:	79 20                	jns    3b80 <write_blocks.part.3+0x161>
    3b60:	74 65                	je     3bc7 <CSWTCH.7+0x2f>
    3b62:	72 6d                	jb     3bd1 <CSWTCH.7+0x39>
    3b64:	69 6e 61 74 65 64 00 	imul   $0x646574,0x61(%esi),%ebp
    3b6b:	00 43 6f             	add    %al,0x6f(%ebx)
    3b6e:	6d                   	insl   (%dx),%es:(%edi)
    3b6f:	6d                   	insl   (%dx),%es:(%edi)
    3b70:	61                   	popa   
    3b71:	6e                   	outsb  %ds:(%esi),(%dx)
    3b72:	64 20 25 73 20 72 65 	and    %ah,%fs:0x65722073
    3b79:	74 75                	je     3bf0 <CSWTCH.7+0x58>
    3b7b:	72 6e                	jb     3beb <CSWTCH.7+0x53>
    3b7d:	65 64 20 6e 6f       	gs and %ch,%fs:0x6f(%esi)
    3b82:	6e                   	outsb  %ds:(%esi),(%dx)
    3b83:	2d 7a 65 72 6f       	sub    $0x6f72657a,%eax
    3b88:	20 65 78             	and    %ah,0x78(%ebp)
    3b8b:	69 74 20 63 6f 64 65 	imul   $0x2065646f,0x63(%eax,%eiz,1),%esi
    3b92:	20 
    3b93:	25 64 29 00 90       	and    $0x90002964,%eax

00003b98 <CSWTCH.7>:
    3b98:	fe 3a 00 00 0b 3b 00 00 16 3b 00 00 70 61 72 74     .:...;...;..part
    3ba8:	2e 63 00 76 6f 6c 5f 70 61 72 74 5f 61 64 64 5f     .c.vol_part_add_
    3bb8:	6c 6f 63 6b 65 64 28 29 00 46 61 69 6c 65 64 20     locked().Failed 
    3bc8:	67 65 74 74 69 6e 67 20 73 65 72 76 69 63 65 20     getting service 
    3bd8:	6e 61 6d 65 2e 00 50 72 6f 62 65 20 70 61 72 74     name..Probe part
    3be8:	69 74 69 6f 6e 20 25 73 00 41 64 64 65 64 20 70     ition %s.Added p
    3bf8:	61 72 74 69 74 69 6f 6e 20 25 7a 75 00 70 61 72     artition %zu.par
    3c08:	74 69 74 69 6f 6e 00 46 6f 75 6e 64 20 70 61 72     tition.Found par
    3c18:	74 69 74 69 6f 6e 20 27 25 6c 75 27 00 43 6f 75     tition '%lu'.Cou
    3c28:	6c 64 20 6e 6f 74 20 61 64 64 20 70 61 72 74 69     ld not add parti
    3c38:	74 69 6f 6e 2e 00 76 6f 6c 5f 70 61 72 74 5f 65     tion..vol_part_e
    3c48:	6d 70 74 79 5f 70 61 72 74 28 29 00 76 6f 6c 5f     mpty_part().vol_
    3c58:	70 61 72 74 5f 6d 6b 66 73 5f 70 61 72 74 28 29     part_mkfs_part()
    3c68:	00 66 90 90 66 69 62 72 69 6c 5f 6d 75 74 65 78     .f..fibril_mutex
    3c78:	5f 69 73 5f 6c 6f 63 6b 65 64 28 26 76 6f 6c 5f     _is_locked(&vol_
    3c88:	70 61 72 74 73 5f 6c 6f 63 6b 29 00 46 61 69 6c     parts_lock).Fail
    3c98:	65 64 20 61 6c 6c 6f 63 61 74 69 6e 67 20 70 61     ed allocating pa
    3ca8:	72 74 69 74 69 6f 6e 20 73 74 72 75 63 74 75 72     rtition structur
    3cb8:	65 2e 20 4f 75 74 20 6f 66 20 6d 65 6d 6f 72 79     e. Out of memory
    3cc8:	2e 00 00 00 46 61 69 6c 65 64 20 64 65 74 65 72     ....Failed deter
    3cd8:	6d 69 6e 69 6e 67 20 69 66 20 70 61 72 74 69 74     mining if partit
    3ce8:	69 6f 6e 20 69 73 20 65 6d 70 74 79 2e 00 00 00     ion is empty....
    3cf8:	46 61 69 6c 65 64 20 72 65 73 6f 6c 76 69 6e 67     Failed resolving
    3d08:	20 63 61 74 65 67 6f 72 79 20 27 70 61 72 74 69      category 'parti
    3d18:	74 69 6f 6e 27 2e 00 00 46 61 69 6c 65 64 20 67     tion'...Failed g
    3d28:	65 74 74 69 6e 67 20 6c 69 73 74 20 6f 66 20 70     etting list of p
    3d38:	61 72 74 69 74 69 6f 6e 20 64 65 76 69 63 65 73     artition devices
    3d48:	2e 00 00 00 46 61 69 6c 65 64 20 72 65 67 69 73     ....Failed regis
    3d58:	74 65 72 69 6e 67 20 63 61 6c 6c 62 61 63 6b 20     tering callback 
    3d68:	66 6f 72 20 70 61 72 74 69 74 69 6f 6e 20 64 69     for partition di
    3d78:	73 63 6f 76 65 72 79 20 28 25 64 29 2e 00 00 00     scovery (%d)....
    3d88:	76 6f 6c 5f 70 61 72 74 5f 65 6d 70 74 79 5f 70     vol_part_empty_p
    3d98:	61 72 74 28 29 20 2d 20 66 61 69 6c 65 64 20 25     art() - failed %
    3da8:	64 00 00 00 76 6f 6c 5f 70 61 72 74 5f 6d 6b 66     d...vol_part_mkf
    3db8:	73 5f 70 61 72 74 28 29 20 2d 20 66 61 69 6c 65     s_part() - faile
    3dc8:	64 20 25 64 00 76 6f 6c 5f 63 6c 69 65 6e 74 5f     d %d.vol_client_
    3dd8:	63 6f 6e 6e 28 29 00 76 6f 6c 5f 70 61 72 74 5f     conn().vol_part_
    3de8:	69 6e 66 6f 5f 73 72 76 28 25 7a 75 29 00 76 6f     info_srv(%zu).vo
    3df8:	6c 5f 70 61 72 74 5f 65 6d 70 74 79 5f 73 72 76     l_part_empty_srv
    3e08:	28 25 7a 75 29 00 76 6f 6c 73 72 76 00 25 73 3a     (%zu).volsrv.%s:
    3e18:	20 56 6f 6c 75 6d 65 20 73 65 72 76 69 63 65 0a      Volume service.
    3e28:	00 76 6f 6c 5f 69 6e 69 74 28 29 00 50 1e 00 00     .vol_init().P...
    3e38:	20 1e 00 00 98 1d 00 00 40 1d 00 00 c8 1e 00 00      .......@.......
    3e48:	76 6f 6c 73 72 76 3a 20 46 61 69 6c 65 64 20 74     volsrv: Failed t
    3e58:	6f 20 69 6e 69 74 69 61 6c 69 7a 65 20 6c 6f 67     o initialize log
    3e68:	67 69 6e 67 2e 0a 00 00 46 61 69 6c 65 64 20 72     ging....Failed r
    3e78:	65 67 69 73 74 65 72 69 6e 67 20 73 65 72 76 65     egistering serve
    3e88:	72 20 28 25 64 29 2e 00 46 61 69 6c 65 64 20 72     r (%d)..Failed r
    3e98:	65 67 69 73 74 65 72 69 6e 67 20 73 65 72 76 69     egistering servi
    3ea8:	63 65 20 28 25 64 29 2e 00 00 00 00 76 6f 6c 73     ce (%d).....vols
    3eb8:	72 76 3a 20 41 63 63 65 70 74 69 6e 67 20 63 6f     rv: Accepting co
    3ec8:	6e 6e 65 63 74 69 6f 6e 73 2e 0a 00 62 6c 6f 63     nnections...bloc
    3ed8:	6b 2e 63 00 64 65 76 63 6f 6e 00 64 65 76 63 6f     k.c.devcon.devco
    3ee8:	6e 2d 3e 63 61 63 68 65 00 62 6c 6f 63 6b 2d 3e     n->cache.block->
    3ef8:	72 65 66 63 6e 74 20 3e 3d 20 31 00 64 65 76 63     refcnt >= 1.devc
    3f08:	6f 6e 2d 3e 63 61 63 68 65 20 21 3d 20 4e 55 4c     on->cache != NUL
    3f18:	4c 00 62 2d 3e 74 6f 78 69 63 00 90 45 72 72 6f     L.b->toxic..Erro
    3f28:	72 20 25 64 20 72 65 61 64 69 6e 67 20 25 7a 75     r %d reading %zu
    3f38:	20 62 6c 6f 63 6b 73 20 73 74 61 72 74 69 6e 67      blocks starting
    3f48:	20 61 74 20 62 6c 6f 63 6b 20 25 6c 6c 75 20 66      at block %llu f
    3f58:	72 6f 6d 20 64 65 76 69 63 65 20 68 61 6e 64 6c     rom device handl
    3f68:	65 20 25 75 0a 00 00 00 45 72 72 6f 72 20 25 64     e %u....Error %d
    3f78:	20 77 72 69 74 69 6e 67 20 25 7a 75 20 62 6c 6f      writing %zu blo
    3f88:	63 6b 73 20 73 74 61 72 74 69 6e 67 20 61 74 20     cks starting at 
    3f98:	62 6c 6f 63 6b 20 25 6c 6c 75 20 74 6f 20 64 65     block %llu to de
    3fa8:	76 69 63 65 20 68 61 6e 64 6c 65 20 25 75 0a 00     vice handle %u..
    3fb8:	54 6f 6f 20 6d 61 6e 79 20 65 72 72 6f 72 73 20     Too many errors 
    3fc8:	77 72 69 74 69 6e 67 20 62 6c 6f 63 6b 20 25 6c     writing block %l
    3fd8:	6c 75 66 72 6f 6d 20 64 65 76 69 63 65 20 68 61     lufrom device ha
    3fe8:	6e 64 6c 65 20 25 75 0a 53 45 56 45 52 45 20 44     ndle %u.SEVERE D
    3ff8:	41 54 41 20 4c 4f 53 53 20 50 4f 53 53 49 42 4c     ATA LOSS POSSIBL
    4008:	45 0a 00 00                                         E...

Disassembly of section .plt:

000041c0 <__main@plt-0x10>:
    41c0:	ff 35 c0 5e 00 00    	pushl  0x5ec0
    41c6:	ff 25 c4 5e 00 00    	jmp    *0x5ec4
    41cc:	00 00                	add    %al,(%eax)
	...

000041d0 <__main@plt>:
    41d0:	ff 25 c8 5e 00 00    	jmp    *0x5ec8
    41d6:	68 00 00 00 00       	push   $0x0
    41db:	e9 e0 ff ff ff       	jmp    41c0 <CSWTCH.7+0x628>

000041e0 <loc_category_get_id@plt>:
    41e0:	ff 25 cc 5e 00 00    	jmp    *0x5ecc
    41e6:	68 08 00 00 00       	push   $0x8
    41eb:	e9 d0 ff ff ff       	jmp    41c0 <CSWTCH.7+0x628>

000041f0 <task_retval@plt>:
    41f0:	ff 25 d0 5e 00 00    	jmp    *0x5ed0
    41f6:	68 10 00 00 00       	push   $0x10
    41fb:	e9 c0 ff ff ff       	jmp    41c0 <CSWTCH.7+0x628>

00004200 <loc_service_connect@plt>:
    4200:	ff 25 d4 5e 00 00    	jmp    *0x5ed4
    4206:	68 18 00 00 00       	push   $0x18
    420b:	e9 b0 ff ff ff       	jmp    41c0 <CSWTCH.7+0x628>

00004210 <printf@plt>:
    4210:	ff 25 d8 5e 00 00    	jmp    *0x5ed8
    4216:	68 20 00 00 00       	push   $0x20
    421b:	e9 a0 ff ff ff       	jmp    41c0 <CSWTCH.7+0x628>

00004220 <async_hangup@plt>:
    4220:	ff 25 dc 5e 00 00    	jmp    *0x5edc
    4226:	68 28 00 00 00       	push   $0x28
    422b:	e9 90 ff ff ff       	jmp    41c0 <CSWTCH.7+0x628>

00004230 <hash_table_create@plt>:
    4230:	ff 25 e0 5e 00 00    	jmp    *0x5ee0
    4236:	68 30 00 00 00       	push   $0x30
    423b:	e9 80 ff ff ff       	jmp    41c0 <CSWTCH.7+0x628>

00004240 <log_init@plt>:
    4240:	ff 25 e4 5e 00 00    	jmp    *0x5ee4
    4246:	68 38 00 00 00       	push   $0x38
    424b:	e9 70 ff ff ff       	jmp    41c0 <CSWTCH.7+0x628>

00004250 <hash_table_insert@plt>:
    4250:	ff 25 e8 5e 00 00    	jmp    *0x5ee8
    4256:	68 40 00 00 00       	push   $0x40
    425b:	e9 60 ff ff ff       	jmp    41c0 <CSWTCH.7+0x628>

00004260 <task_wait@plt>:
    4260:	ff 25 ec 5e 00 00    	jmp    *0x5eec
    4266:	68 48 00 00 00       	push   $0x48
    426b:	e9 50 ff ff ff       	jmp    41c0 <CSWTCH.7+0x628>

00004270 <loc_service_register@plt>:
    4270:	ff 25 f0 5e 00 00    	jmp    *0x5ef0
    4276:	68 50 00 00 00       	push   $0x50
    427b:	e9 40 ff ff ff       	jmp    41c0 <CSWTCH.7+0x628>

00004280 <fibril_mutex_is_locked@plt>:
    4280:	ff 25 f4 5e 00 00    	jmp    *0x5ef4
    4286:	68 58 00 00 00       	push   $0x58
    428b:	e9 30 ff ff ff       	jmp    41c0 <CSWTCH.7+0x628>

00004290 <bd_write_blocks@plt>:
    4290:	ff 25 f8 5e 00 00    	jmp    *0x5ef8
    4296:	68 60 00 00 00       	push   $0x60
    429b:	e9 20 ff ff ff       	jmp    41c0 <CSWTCH.7+0x628>

000042a0 <bd_get_num_blocks@plt>:
    42a0:	ff 25 fc 5e 00 00    	jmp    *0x5efc
    42a6:	68 68 00 00 00       	push   $0x68
    42ab:	e9 10 ff ff ff       	jmp    41c0 <CSWTCH.7+0x628>

000042b0 <async_data_read_finalize@plt>:
    42b0:	ff 25 00 5f 00 00    	jmp    *0x5f00
    42b6:	68 70 00 00 00       	push   $0x70
    42bb:	e9 00 ff ff ff       	jmp    41c0 <CSWTCH.7+0x628>

000042c0 <bd_close@plt>:
    42c0:	ff 25 04 5f 00 00    	jmp    *0x5f04
    42c6:	68 78 00 00 00       	push   $0x78
    42cb:	e9 f0 fe ff ff       	jmp    41c0 <CSWTCH.7+0x628>

000042d0 <memcpy@plt>:
    42d0:	ff 25 08 5f 00 00    	jmp    *0x5f08
    42d6:	68 80 00 00 00       	push   $0x80
    42db:	e9 e0 fe ff ff       	jmp    41c0 <CSWTCH.7+0x628>

000042e0 <malloc@plt>:
    42e0:	ff 25 0c 5f 00 00    	jmp    *0x5f0c
    42e6:	68 88 00 00 00       	push   $0x88
    42eb:	e9 d0 fe ff ff       	jmp    41c0 <CSWTCH.7+0x628>

000042f0 <bd_open@plt>:
    42f0:	ff 25 10 5f 00 00    	jmp    *0x5f10
    42f6:	68 90 00 00 00       	push   $0x90
    42fb:	e9 c0 fe ff ff       	jmp    41c0 <CSWTCH.7+0x628>

00004300 <async_answer_0@plt>:
    4300:	ff 25 14 5f 00 00    	jmp    *0x5f14
    4306:	68 98 00 00 00       	push   $0x98
    430b:	e9 b0 fe ff ff       	jmp    41c0 <CSWTCH.7+0x628>

00004310 <log_msg@plt>:
    4310:	ff 25 18 5f 00 00    	jmp    *0x5f18
    4316:	68 a0 00 00 00       	push   $0xa0
    431b:	e9 a0 fe ff ff       	jmp    41c0 <CSWTCH.7+0x628>

00004320 <stacktrace_print@plt>:
    4320:	ff 25 1c 5f 00 00    	jmp    *0x5f1c
    4326:	68 a8 00 00 00       	push   $0xa8
    432b:	e9 90 fe ff ff       	jmp    41c0 <CSWTCH.7+0x628>

00004330 <__umoddi3@plt>:
    4330:	ff 25 20 5f 00 00    	jmp    *0x5f20
    4336:	68 b0 00 00 00       	push   $0xb0
    433b:	e9 80 fe ff ff       	jmp    41c0 <CSWTCH.7+0x628>

00004340 <__udivdi3@plt>:
    4340:	ff 25 24 5f 00 00    	jmp    *0x5f24
    4346:	68 b8 00 00 00       	push   $0xb8
    434b:	e9 70 fe ff ff       	jmp    41c0 <CSWTCH.7+0x628>

00004350 <bd_read_blocks@plt>:
    4350:	ff 25 28 5f 00 00    	jmp    *0x5f28
    4356:	68 c0 00 00 00       	push   $0xc0
    435b:	e9 60 fe ff ff       	jmp    41c0 <CSWTCH.7+0x628>

00004360 <fibril_mutex_trylock@plt>:
    4360:	ff 25 2c 5f 00 00    	jmp    *0x5f2c
    4366:	68 c8 00 00 00       	push   $0xc8
    436b:	e9 50 fe ff ff       	jmp    41c0 <CSWTCH.7+0x628>

00004370 <loc_service_get_name@plt>:
    4370:	ff 25 30 5f 00 00    	jmp    *0x5f30
    4376:	68 d0 00 00 00       	push   $0xd0
    437b:	e9 40 fe ff ff       	jmp    41c0 <CSWTCH.7+0x628>

00004380 <assert_abort@plt>:
    4380:	ff 25 34 5f 00 00    	jmp    *0x5f34
    4386:	68 d8 00 00 00       	push   $0xd8
    438b:	e9 30 fe ff ff       	jmp    41c0 <CSWTCH.7+0x628>

00004390 <calloc@plt>:
    4390:	ff 25 38 5f 00 00    	jmp    *0x5f38
    4396:	68 e0 00 00 00       	push   $0xe0
    439b:	e9 20 fe ff ff       	jmp    41c0 <CSWTCH.7+0x628>

000043a0 <loc_register_cat_change_cb@plt>:
    43a0:	ff 25 3c 5f 00 00    	jmp    *0x5f3c
    43a6:	68 e8 00 00 00       	push   $0xe8
    43ab:	e9 10 fe ff ff       	jmp    41c0 <CSWTCH.7+0x628>

000043b0 <task_spawn@plt>:
    43b0:	ff 25 40 5f 00 00    	jmp    *0x5f40
    43b6:	68 f0 00 00 00       	push   $0xf0
    43bb:	e9 00 fe ff ff       	jmp    41c0 <CSWTCH.7+0x628>

000043c0 <bd_read_toc@plt>:
    43c0:	ff 25 44 5f 00 00    	jmp    *0x5f44
    43c6:	68 f8 00 00 00       	push   $0xf8
    43cb:	e9 f0 fd ff ff       	jmp    41c0 <CSWTCH.7+0x628>

000043d0 <fibril_mutex_unlock@plt>:
    43d0:	ff 25 48 5f 00 00    	jmp    *0x5f48
    43d6:	68 00 01 00 00       	push   $0x100
    43db:	e9 e0 fd ff ff       	jmp    41c0 <CSWTCH.7+0x628>

000043e0 <fibril_mutex_initialize@plt>:
    43e0:	ff 25 4c 5f 00 00    	jmp    *0x5f4c
    43e6:	68 08 01 00 00       	push   $0x108
    43eb:	e9 d0 fd ff ff       	jmp    41c0 <CSWTCH.7+0x628>

000043f0 <hash_table_remove_item@plt>:
    43f0:	ff 25 50 5f 00 00    	jmp    *0x5f50
    43f6:	68 10 01 00 00       	push   $0x110
    43fb:	e9 c0 fd ff ff       	jmp    41c0 <CSWTCH.7+0x628>

00004400 <async_data_read_receive@plt>:
    4400:	ff 25 54 5f 00 00    	jmp    *0x5f54
    4406:	68 18 01 00 00       	push   $0x118
    440b:	e9 b0 fd ff ff       	jmp    41c0 <CSWTCH.7+0x628>

00004410 <loc_server_register@plt>:
    4410:	ff 25 58 5f 00 00    	jmp    *0x5f58
    4416:	68 20 01 00 00       	push   $0x120
    441b:	e9 a0 fd ff ff       	jmp    41c0 <CSWTCH.7+0x628>

00004420 <loc_category_get_svcs@plt>:
    4420:	ff 25 5c 5f 00 00    	jmp    *0x5f5c
    4426:	68 28 01 00 00       	push   $0x128
    442b:	e9 90 fd ff ff       	jmp    41c0 <CSWTCH.7+0x628>

00004430 <bd_get_block_size@plt>:
    4430:	ff 25 60 5f 00 00    	jmp    *0x5f60
    4436:	68 30 01 00 00       	push   $0x130
    443b:	e9 80 fd ff ff       	jmp    41c0 <CSWTCH.7+0x628>

00004440 <async_get_call_timeout@plt>:
    4440:	ff 25 64 5f 00 00    	jmp    *0x5f64
    4446:	68 38 01 00 00       	push   $0x138
    444b:	e9 70 fd ff ff       	jmp    41c0 <CSWTCH.7+0x628>

00004450 <list_count@plt>:
    4450:	ff 25 68 5f 00 00    	jmp    *0x5f68
    4456:	68 40 01 00 00       	push   $0x140
    445b:	e9 60 fd ff ff       	jmp    41c0 <CSWTCH.7+0x628>

00004460 <bd_sync_cache@plt>:
    4460:	ff 25 6c 5f 00 00    	jmp    *0x5f6c
    4466:	68 48 01 00 00       	push   $0x148
    446b:	e9 50 fd ff ff       	jmp    41c0 <CSWTCH.7+0x628>

00004470 <async_answer_1@plt>:
    4470:	ff 25 70 5f 00 00    	jmp    *0x5f70
    4476:	68 50 01 00 00       	push   $0x150
    447b:	e9 40 fd ff ff       	jmp    41c0 <CSWTCH.7+0x628>

00004480 <str_error@plt>:
    4480:	ff 25 74 5f 00 00    	jmp    *0x5f74
    4486:	68 58 01 00 00       	push   $0x158
    448b:	e9 30 fd ff ff       	jmp    41c0 <CSWTCH.7+0x628>

00004490 <hash_table_find@plt>:
    4490:	ff 25 78 5f 00 00    	jmp    *0x5f78
    4496:	68 60 01 00 00       	push   $0x160
    449b:	e9 20 fd ff ff       	jmp    41c0 <CSWTCH.7+0x628>

000044a0 <fibril_rwlock_initialize@plt>:
    44a0:	ff 25 7c 5f 00 00    	jmp    *0x5f7c
    44a6:	68 68 01 00 00       	push   $0x168
    44ab:	e9 10 fd ff ff       	jmp    41c0 <CSWTCH.7+0x628>

000044b0 <fibril_switch@plt>:
    44b0:	ff 25 80 5f 00 00    	jmp    *0x5f80
    44b6:	68 70 01 00 00       	push   $0x170
    44bb:	e9 00 fd ff ff       	jmp    41c0 <CSWTCH.7+0x628>

000044c0 <__syscall_fast@plt>:
    44c0:	ff 25 84 5f 00 00    	jmp    *0x5f84
    44c6:	68 78 01 00 00       	push   $0x178
    44cb:	e9 f0 fc ff ff       	jmp    41c0 <CSWTCH.7+0x628>

000044d0 <async_set_fallback_port_handler@plt>:
    44d0:	ff 25 88 5f 00 00    	jmp    *0x5f88
    44d6:	68 80 01 00 00       	push   $0x180
    44db:	e9 e0 fc ff ff       	jmp    41c0 <CSWTCH.7+0x628>

000044e0 <hash_table_destroy@plt>:
    44e0:	ff 25 8c 5f 00 00    	jmp    *0x5f8c
    44e6:	68 88 01 00 00       	push   $0x188
    44eb:	e9 d0 fc ff ff       	jmp    41c0 <CSWTCH.7+0x628>

000044f0 <free@plt>:
    44f0:	ff 25 90 5f 00 00    	jmp    *0x5f90
    44f6:	68 90 01 00 00       	push   $0x190
    44fb:	e9 c0 fc ff ff       	jmp    41c0 <CSWTCH.7+0x628>

00004500 <fibril_mutex_lock@plt>:
    4500:	ff 25 94 5f 00 00    	jmp    *0x5f94
    4506:	68 98 01 00 00       	push   $0x198
    450b:	e9 b0 fc ff ff       	jmp    41c0 <CSWTCH.7+0x628>
