
rd:     file format elf32-i386


Disassembly of section .init:

000010b4 <__entry>:
    10b4:	66 8c d0             	mov    %ss,%ax
    10b7:	8e d8                	mov    %eax,%ds
    10b9:	8e c0                	mov    %eax,%es
    10bb:	8e e0                	mov    %eax,%fs
    10bd:	b8 01 00 00 00       	mov    $0x1,%eax
    10c2:	0f a2                	cpuid  
    10c4:	0f ba e2 0b          	bt     $0xb,%edx
    10c8:	73 0c                	jae    10d6 <__entry+0x22>
    10ca:	8d 05 14 71 02 00    	lea    0x27114,%eax
    10d0:	c7 00 7d 0f 02 00    	movl   $0x20f7d,(%eax)
    10d6:	6a 00                	push   $0x0
    10d8:	6a 00                	push   $0x0
    10da:	89 e5                	mov    %esp,%ebp
    10dc:	57                   	push   %edi
    10dd:	e8 0e 04 00 00       	call   14f0 <__main>

Disassembly of section .text:

00001100 <rd_open>:
    1100:	55                   	push   %ebp
    1101:	31 c0                	xor    %eax,%eax
    1103:	89 e5                	mov    %esp,%ebp
    1105:	5d                   	pop    %ebp
    1106:	c3                   	ret    
    1107:	89 f6                	mov    %esi,%esi
    1109:	8d bc 27 00 00 00 00 	lea    0x0(%edi,%eiz,1),%edi

00001110 <rd_close>:
    1110:	55                   	push   %ebp
    1111:	31 c0                	xor    %eax,%eax
    1113:	89 e5                	mov    %esp,%ebp
    1115:	5d                   	pop    %ebp
    1116:	c3                   	ret    
    1117:	89 f6                	mov    %esi,%esi
    1119:	8d bc 27 00 00 00 00 	lea    0x0(%edi,%eiz,1),%edi

00001120 <rd_get_block_size>:
    1120:	55                   	push   %ebp
    1121:	89 e5                	mov    %esp,%ebp
    1123:	8b 45 0c             	mov    0xc(%ebp),%eax
    1126:	c7 00 00 02 00 00    	movl   $0x200,(%eax)
    112c:	31 c0                	xor    %eax,%eax
    112e:	5d                   	pop    %ebp
    112f:	c3                   	ret    

00001130 <rd_get_num_blocks>:
    1130:	55                   	push   %ebp
    1131:	a1 68 71 02 00       	mov    0x27168,%eax
    1136:	c1 e8 09             	shr    $0x9,%eax
    1139:	89 e5                	mov    %esp,%ebp
    113b:	8b 55 0c             	mov    0xc(%ebp),%edx
    113e:	89 02                	mov    %eax,(%edx)
    1140:	c7 42 04 00 00 00 00 	movl   $0x0,0x4(%edx)
    1147:	31 c0                	xor    %eax,%eax
    1149:	5d                   	pop    %ebp
    114a:	c3                   	ret    
    114b:	90                   	nop
    114c:	8d 74 26 00          	lea    0x0(%esi,%eiz,1),%esi

00001150 <rd_client_conn>:
    1150:	55                   	push   %ebp
    1151:	89 e5                	mov    %esp,%ebp
    1153:	c7 45 10 4c 71 02 00 	movl   $0x2714c,0x10(%ebp)
    115a:	5d                   	pop    %ebp
    115b:	e9 b0 09 00 00       	jmp    1b10 <bd_conn>

00001160 <rd_write_blocks>:
    1160:	55                   	push   %ebp
    1161:	31 d2                	xor    %edx,%edx
    1163:	89 e5                	mov    %esp,%ebp
    1165:	57                   	push   %edi
    1166:	56                   	push   %esi
    1167:	53                   	push   %ebx
    1168:	83 ec 0c             	sub    $0xc,%esp
    116b:	8b 75 0c             	mov    0xc(%ebp),%esi
    116e:	8b 45 14             	mov    0x14(%ebp),%eax
    1171:	01 f0                	add    %esi,%eax
    1173:	8b 7d 10             	mov    0x10(%ebp),%edi
    1176:	11 fa                	adc    %edi,%edx
    1178:	8b 0d 68 71 02 00    	mov    0x27168,%ecx
    117e:	0f a4 c2 09          	shld   $0x9,%eax,%edx
    1182:	c1 e0 09             	shl    $0x9,%eax
    1185:	83 fa 00             	cmp    $0x0,%edx
    1188:	76 0e                	jbe    1198 <rd_write_blocks+0x38>
    118a:	8d 65 f4             	lea    -0xc(%ebp),%esp
    118d:	b8 fd ff ff ff       	mov    $0xfffffffd,%eax
    1192:	5b                   	pop    %ebx
    1193:	5e                   	pop    %esi
    1194:	5f                   	pop    %edi
    1195:	5d                   	pop    %ebp
    1196:	c3                   	ret    
    1197:	90                   	nop
    1198:	39 c8                	cmp    %ecx,%eax
    119a:	77 ee                	ja     118a <rd_write_blocks+0x2a>
    119c:	83 ec 0c             	sub    $0xc,%esp
    119f:	68 54 71 02 00       	push   $0x27154
    11a4:	e8 47 88 00 00       	call   99f0 <fibril_rwlock_write_lock>
    11a9:	8b 45 14             	mov    0x14(%ebp),%eax
    11ac:	83 c4 0c             	add    $0xc,%esp
    11af:	c1 e0 09             	shl    $0x9,%eax
    11b2:	3b 45 1c             	cmp    0x1c(%ebp),%eax
    11b5:	76 03                	jbe    11ba <rd_write_blocks+0x5a>
    11b7:	8b 45 1c             	mov    0x1c(%ebp),%eax
    11ba:	c1 e6 09             	shl    $0x9,%esi
    11bd:	50                   	push   %eax
    11be:	8b 45 18             	mov    0x18(%ebp),%eax
    11c1:	50                   	push   %eax
    11c2:	a1 c0 6e 02 00       	mov    0x26ec0,%eax
    11c7:	01 f0                	add    %esi,%eax
    11c9:	50                   	push   %eax
    11ca:	e8 11 2f 00 00       	call   40e0 <memcpy>
    11cf:	c7 04 24 54 71 02 00 	movl   $0x27154,(%esp)
    11d6:	e8 95 89 00 00       	call   9b70 <fibril_rwlock_write_unlock>
    11db:	83 c4 10             	add    $0x10,%esp
    11de:	8d 65 f4             	lea    -0xc(%ebp),%esp
    11e1:	31 c0                	xor    %eax,%eax
    11e3:	5b                   	pop    %ebx
    11e4:	5e                   	pop    %esi
    11e5:	5f                   	pop    %edi
    11e6:	5d                   	pop    %ebp
    11e7:	c3                   	ret    
    11e8:	90                   	nop
    11e9:	8d b4 26 00 00 00 00 	lea    0x0(%esi,%eiz,1),%esi

000011f0 <rd_read_blocks>:
    11f0:	55                   	push   %ebp
    11f1:	31 d2                	xor    %edx,%edx
    11f3:	89 e5                	mov    %esp,%ebp
    11f5:	57                   	push   %edi
    11f6:	56                   	push   %esi
    11f7:	53                   	push   %ebx
    11f8:	83 ec 0c             	sub    $0xc,%esp
    11fb:	8b 75 0c             	mov    0xc(%ebp),%esi
    11fe:	8b 45 14             	mov    0x14(%ebp),%eax
    1201:	01 f0                	add    %esi,%eax
    1203:	8b 7d 10             	mov    0x10(%ebp),%edi
    1206:	11 fa                	adc    %edi,%edx
    1208:	8b 0d 68 71 02 00    	mov    0x27168,%ecx
    120e:	0f a4 c2 09          	shld   $0x9,%eax,%edx
    1212:	c1 e0 09             	shl    $0x9,%eax
    1215:	83 fa 00             	cmp    $0x0,%edx
    1218:	76 0e                	jbe    1228 <rd_read_blocks+0x38>
    121a:	8d 65 f4             	lea    -0xc(%ebp),%esp
    121d:	b8 fd ff ff ff       	mov    $0xfffffffd,%eax
    1222:	5b                   	pop    %ebx
    1223:	5e                   	pop    %esi
    1224:	5f                   	pop    %edi
    1225:	5d                   	pop    %ebp
    1226:	c3                   	ret    
    1227:	90                   	nop
    1228:	39 c8                	cmp    %ecx,%eax
    122a:	77 ee                	ja     121a <rd_read_blocks+0x2a>
    122c:	83 ec 0c             	sub    $0xc,%esp
    122f:	68 54 71 02 00       	push   $0x27154
    1234:	e8 b7 86 00 00       	call   98f0 <fibril_rwlock_read_lock>
    1239:	8b 45 14             	mov    0x14(%ebp),%eax
    123c:	83 c4 0c             	add    $0xc,%esp
    123f:	c1 e0 09             	shl    $0x9,%eax
    1242:	3b 45 1c             	cmp    0x1c(%ebp),%eax
    1245:	76 03                	jbe    124a <rd_read_blocks+0x5a>
    1247:	8b 45 1c             	mov    0x1c(%ebp),%eax
    124a:	c1 e6 09             	shl    $0x9,%esi
    124d:	50                   	push   %eax
    124e:	a1 c0 6e 02 00       	mov    0x26ec0,%eax
    1253:	01 f0                	add    %esi,%eax
    1255:	50                   	push   %eax
    1256:	8b 45 18             	mov    0x18(%ebp),%eax
    1259:	50                   	push   %eax
    125a:	e8 81 2e 00 00       	call   40e0 <memcpy>
    125f:	c7 04 24 54 71 02 00 	movl   $0x27154,(%esp)
    1266:	e8 65 88 00 00       	call   9ad0 <fibril_rwlock_read_unlock>
    126b:	83 c4 10             	add    $0x10,%esp
    126e:	8d 65 f4             	lea    -0xc(%ebp),%esp
    1271:	31 c0                	xor    %eax,%eax
    1273:	5b                   	pop    %ebx
    1274:	5e                   	pop    %esi
    1275:	5f                   	pop    %edi
    1276:	5d                   	pop    %ebp
    1277:	c3                   	ret    
    1278:	66 90                	xchg   %ax,%ax
    127a:	66 90                	xchg   %ax,%ax
    127c:	66 90                	xchg   %ax,%ax
    127e:	66 90                	xchg   %ax,%ax

00001280 <main>:
    1280:	8d 4c 24 04          	lea    0x4(%esp),%ecx
    1284:	83 e4 f0             	and    $0xfffffff0,%esp
    1287:	ff 71 fc             	pushl  -0x4(%ecx)
    128a:	55                   	push   %ebp
    128b:	89 e5                	mov    %esp,%ebp
    128d:	53                   	push   %ebx
    128e:	51                   	push   %ecx
    128f:	83 ec 18             	sub    $0x18,%esp
    1292:	68 e9 36 02 00       	push   $0x236e9
    1297:	68 76 36 02 00       	push   $0x23676
    129c:	e8 2f da 00 00       	call   ecd0 <printf>
    12a1:	58                   	pop    %eax
    12a2:	8d 45 ec             	lea    -0x14(%ebp),%eax
    12a5:	5a                   	pop    %edx
    12a6:	50                   	push   %eax
    12a7:	68 93 36 02 00       	push   $0x23693
    12ac:	e8 cf 3a 01 00       	call   14d80 <sysinfo_get_value>
    12b1:	83 c4 10             	add    $0x10,%esp
    12b4:	85 c0                	test   %eax,%eax
    12b6:	75 07                	jne    12bf <main+0x3f>
    12b8:	8b 45 ec             	mov    -0x14(%ebp),%eax
    12bb:	85 c0                	test   %eax,%eax
    12bd:	75 23                	jne    12e2 <main+0x62>
    12bf:	50                   	push   %eax
    12c0:	50                   	push   %eax
    12c1:	68 e9 36 02 00       	push   $0x236e9
    12c6:	68 9b 36 02 00       	push   $0x2369b
    12cb:	e8 00 da 00 00       	call   ecd0 <printf>
    12d0:	83 c4 10             	add    $0x10,%esp
    12d3:	8d 65 f8             	lea    -0x8(%ebp),%esp
    12d6:	83 cb ff             	or     $0xffffffff,%ebx
    12d9:	89 d8                	mov    %ebx,%eax
    12db:	59                   	pop    %ecx
    12dc:	5b                   	pop    %ebx
    12dd:	5d                   	pop    %ebp
    12de:	8d 61 fc             	lea    -0x4(%ecx),%esp
    12e1:	c3                   	ret    
    12e2:	50                   	push   %eax
    12e3:	50                   	push   %eax
    12e4:	8d 45 f0             	lea    -0x10(%ebp),%eax
    12e7:	50                   	push   %eax
    12e8:	68 b2 36 02 00       	push   $0x236b2
    12ed:	e8 8e 3a 01 00       	call   14d80 <sysinfo_get_value>
    12f2:	83 c4 10             	add    $0x10,%esp
    12f5:	85 c0                	test   %eax,%eax
    12f7:	75 07                	jne    1300 <main+0x80>
    12f9:	8b 55 f0             	mov    -0x10(%ebp),%edx
    12fc:	85 d2                	test   %edx,%edx
    12fe:	75 16                	jne    1316 <main+0x96>
    1300:	50                   	push   %eax
    1301:	50                   	push   %eax
    1302:	68 e9 36 02 00       	push   $0x236e9
    1307:	68 08 37 02 00       	push   $0x23708
    130c:	e8 bf d9 00 00       	call   ecd0 <printf>
    1311:	83 c4 10             	add    $0x10,%esp
    1314:	eb bd                	jmp    12d3 <main+0x53>
    1316:	8b 45 ec             	mov    -0x14(%ebp),%eax
    1319:	68 c0 6e 02 00       	push   $0x26ec0
    131e:	05 ff 01 00 00       	add    $0x1ff,%eax
    1323:	6a 0b                	push   $0xb
    1325:	25 00 fe ff ff       	and    $0xfffffe00,%eax
    132a:	a3 68 71 02 00       	mov    %eax,0x27168
    132f:	05 ff 0f 00 00       	add    $0xfff,%eax
    1334:	c1 f8 0c             	sar    $0xc,%eax
    1337:	50                   	push   %eax
    1338:	52                   	push   %edx
    1339:	e8 72 02 00 00       	call   15b0 <physmem_map>
    133e:	83 c4 10             	add    $0x10,%esp
    1341:	85 c0                	test   %eax,%eax
    1343:	0f 85 e7 00 00 00    	jne    1430 <main+0x1b0>
    1349:	ff 75 ec             	pushl  -0x14(%ebp)
    134c:	ff 75 f0             	pushl  -0x10(%ebp)
    134f:	68 e9 36 02 00       	push   $0x236e9
    1354:	68 30 37 02 00       	push   $0x23730
    1359:	e8 72 d9 00 00       	call   ecd0 <printf>
    135e:	c7 04 24 4c 71 02 00 	movl   $0x2714c,(%esp)
    1365:	e8 86 07 00 00       	call   1af0 <bd_srvs_init>
    136a:	59                   	pop    %ecx
    136b:	5b                   	pop    %ebx
    136c:	6a 00                	push   $0x0
    136e:	68 50 11 00 00       	push   $0x1150
    1373:	c7 05 4c 71 02 00 a0 	movl   $0x26ea0,0x2714c
    137a:	6e 02 00 
    137d:	e8 8e 50 01 00       	call   16410 <async_set_fallback_port_handler>
    1382:	c7 04 24 e9 36 02 00 	movl   $0x236e9,(%esp)
    1389:	e8 b2 13 00 00       	call   2740 <loc_server_register>
    138e:	83 c4 10             	add    $0x10,%esp
    1391:	85 c0                	test   %eax,%eax
    1393:	75 65                	jne    13fa <main+0x17a>
    1395:	50                   	push   %eax
    1396:	50                   	push   %eax
    1397:	8d 45 f4             	lea    -0xc(%ebp),%eax
    139a:	50                   	push   %eax
    139b:	68 e2 36 02 00       	push   $0x236e2
    13a0:	e8 7b 15 00 00       	call   2920 <loc_service_register>
    13a5:	83 c4 10             	add    $0x10,%esp
    13a8:	89 c3                	mov    %eax,%ebx
    13aa:	85 c0                	test   %eax,%eax
    13ac:	0f 85 97 00 00 00    	jne    1449 <main+0x1c9>
    13b2:	83 ec 0c             	sub    $0xc,%esp
    13b5:	68 54 71 02 00       	push   $0x27154
    13ba:	e8 01 85 00 00       	call   98c0 <fibril_rwlock_initialize>
    13bf:	5a                   	pop    %edx
    13c0:	59                   	pop    %ecx
    13c1:	68 e9 36 02 00       	push   $0x236e9
    13c6:	68 ec 36 02 00       	push   $0x236ec
    13cb:	e8 00 d9 00 00       	call   ecd0 <printf>
    13d0:	83 c8 ff             	or     $0xffffffff,%eax
    13d3:	f0 0f c1 05 cc 70 02 	lock xadd %eax,0x270cc
    13da:	00 
    13db:	83 c4 10             	add    $0x10,%esp
    13de:	48                   	dec    %eax
    13df:	78 32                	js     1413 <main+0x193>
    13e1:	83 ec 0c             	sub    $0xc,%esp
    13e4:	6a 03                	push   $0x3
    13e6:	e8 35 76 00 00       	call   8a20 <fibril_switch>
    13eb:	83 c4 10             	add    $0x10,%esp
    13ee:	8d 65 f8             	lea    -0x8(%ebp),%esp
    13f1:	89 d8                	mov    %ebx,%eax
    13f3:	59                   	pop    %ecx
    13f4:	5b                   	pop    %ebx
    13f5:	5d                   	pop    %ebp
    13f6:	8d 61 fc             	lea    -0x4(%ecx),%esp
    13f9:	c3                   	ret    
    13fa:	52                   	push   %edx
    13fb:	50                   	push   %eax
    13fc:	68 e9 36 02 00       	push   $0x236e9
    1401:	68 54 37 02 00       	push   $0x23754
    1406:	e8 c5 d8 00 00       	call   ecd0 <printf>
    140b:	83 c4 10             	add    $0x10,%esp
    140e:	e9 c0 fe ff ff       	jmp    12d3 <main+0x53>
    1413:	50                   	push   %eax
    1414:	6a 0b                	push   $0xb
    1416:	6a 00                	push   $0x0
    1418:	6a 00                	push   $0x0
    141a:	6a 00                	push   $0x0
    141c:	6a 00                	push   $0x0
    141e:	6a 00                	push   $0x0
    1420:	68 cc 70 02 00       	push   $0x270cc
    1425:	ff 15 14 71 02 00    	call   *0x27114
    142b:	83 c4 20             	add    $0x20,%esp
    142e:	eb b1                	jmp    13e1 <main+0x161>
    1430:	50                   	push   %eax
    1431:	50                   	push   %eax
    1432:	68 e9 36 02 00       	push   $0x236e9
    1437:	68 c6 36 02 00       	push   $0x236c6
    143c:	e8 8f d8 00 00       	call   ecd0 <printf>
    1441:	83 c4 10             	add    $0x10,%esp
    1444:	e9 8a fe ff ff       	jmp    12d3 <main+0x53>
    1449:	53                   	push   %ebx
    144a:	53                   	push   %ebx
    144b:	68 e9 36 02 00       	push   $0x236e9
    1450:	68 78 37 02 00       	push   $0x23778
    1455:	e8 76 d8 00 00       	call   ecd0 <printf>
    145a:	83 c4 10             	add    $0x10,%esp
    145d:	e9 71 fe ff ff       	jmp    12d3 <main+0x53>
    1462:	66 90                	xchg   %ax,%ax
    1464:	66 90                	xchg   %ax,%ax
    1466:	66 90                	xchg   %ax,%ax
    1468:	66 90                	xchg   %ax,%ax
    146a:	66 90                	xchg   %ax,%ax
    146c:	66 90                	xchg   %ax,%ax
    146e:	66 90                	xchg   %ax,%ax

00001470 <exit>:
    1470:	55                   	push   %ebp
    1471:	89 e5                	mov    %esp,%ebp
    1473:	83 ec 08             	sub    $0x8,%esp
    1476:	80 3d 6c 71 02 00 00 	cmpb   $0x0,0x2716c
    147d:	75 1a                	jne    1499 <exit+0x29>
    147f:	50                   	push   %eax
    1480:	6a 09                	push   $0x9
    1482:	6a 00                	push   $0x0
    1484:	6a 00                	push   $0x0
    1486:	6a 00                	push   $0x0
    1488:	6a 00                	push   $0x0
    148a:	6a 00                	push   $0x0
    148c:	6a 00                	push   $0x0
    148e:	ff 15 14 71 02 00    	call   *0x27114
    1494:	83 c4 20             	add    $0x20,%esp
    1497:	eb fe                	jmp    1497 <exit+0x27>
    1499:	e8 b2 af 00 00       	call   c450 <__stdio_done>
    149e:	83 ec 0c             	sub    $0xc,%esp
    14a1:	8b 55 08             	mov    0x8(%ebp),%edx
    14a4:	52                   	push   %edx
    14a5:	e8 76 ab 00 00       	call   c020 <task_retval>
    14aa:	65 a1 00 00 00 00    	mov    %gs:0x0,%eax
    14b0:	59                   	pop    %ecx
    14b1:	8b 48 04             	mov    0x4(%eax),%ecx
    14b4:	5a                   	pop    %edx
    14b5:	6a 00                	push   $0x0
    14b7:	51                   	push   %ecx
    14b8:	e8 63 74 00 00       	call   8920 <fibril_teardown>
    14bd:	83 c4 10             	add    $0x10,%esp
    14c0:	eb bd                	jmp    147f <exit+0xf>
    14c2:	8d b4 26 00 00 00 00 	lea    0x0(%esi,%eiz,1),%esi
    14c9:	8d bc 27 00 00 00 00 	lea    0x0(%edi,%eiz,1),%edi

000014d0 <abort>:
    14d0:	55                   	push   %ebp
    14d1:	89 e5                	mov    %esp,%ebp
    14d3:	83 ec 0c             	sub    $0xc,%esp
    14d6:	6a 09                	push   $0x9
    14d8:	6a 00                	push   $0x0
    14da:	6a 00                	push   $0x0
    14dc:	6a 00                	push   $0x0
    14de:	6a 00                	push   $0x0
    14e0:	6a 00                	push   $0x0
    14e2:	6a 01                	push   $0x1
    14e4:	ff 15 14 71 02 00    	call   *0x27114
    14ea:	83 c4 20             	add    $0x20,%esp
    14ed:	eb fe                	jmp    14ed <abort+0x1d>
    14ef:	90                   	nop

000014f0 <__main>:
    14f0:	55                   	push   %ebp
    14f1:	89 e5                	mov    %esp,%ebp
    14f3:	56                   	push   %esi
    14f4:	53                   	push   %ebx
    14f5:	8b 5d 08             	mov    0x8(%ebp),%ebx
    14f8:	e8 b3 24 01 00       	call   139b0 <__malloc_init>
    14fd:	89 1d 40 71 02 00    	mov    %ebx,0x27140
    1503:	85 db                	test   %ebx,%ebx
    1505:	74 68                	je     156f <__main+0x7f>
    1507:	8b 43 18             	mov    0x18(%ebx),%eax
    150a:	85 c0                	test   %eax,%eax
    150c:	74 61                	je     156f <__main+0x7f>
    150e:	a3 48 71 02 00       	mov    %eax,0x27148
    1513:	e8 f8 72 00 00       	call   8810 <fibril_setup>
    1518:	85 c0                	test   %eax,%eax
    151a:	74 5c                	je     1578 <__main+0x88>
    151c:	8b 40 38             	mov    0x38(%eax),%eax
    151f:	65 a3 00 00 00 00    	mov    %eax,%gs:0x0
    1525:	e8 b6 59 01 00       	call   16ee0 <__async_init>
    152a:	a1 40 71 02 00       	mov    0x27140,%eax
    152f:	c6 05 6c 71 02 00 01 	movb   $0x1,0x2716c
    1536:	85 c0                	test   %eax,%eax
    1538:	74 43                	je     157d <__main+0x8d>
    153a:	83 ec 0c             	sub    $0xc,%esp
    153d:	8b 50 10             	mov    0x10(%eax),%edx
    1540:	8b 58 08             	mov    0x8(%eax),%ebx
    1543:	8b 70 0c             	mov    0xc(%eax),%esi
    1546:	52                   	push   %edx
    1547:	e8 64 ac 00 00       	call   c1b0 <__stdio_init>
    154c:	a1 40 71 02 00       	mov    0x27140,%eax
    1551:	59                   	pop    %ecx
    1552:	8b 40 04             	mov    0x4(%eax),%eax
    1555:	50                   	push   %eax
    1556:	e8 35 dd 01 00       	call   1f290 <chdir>
    155b:	83 c4 10             	add    $0x10,%esp
    155e:	50                   	push   %eax
    155f:	50                   	push   %eax
    1560:	56                   	push   %esi
    1561:	53                   	push   %ebx
    1562:	e8 19 fd ff ff       	call   1280 <main>
    1567:	89 04 24             	mov    %eax,(%esp)
    156a:	e8 01 ff ff ff       	call   1470 <exit>
    156f:	e8 cc eb 01 00       	call   20140 <rtld_init_static>
    1574:	85 c0                	test   %eax,%eax
    1576:	74 9b                	je     1513 <__main+0x23>
    1578:	e8 53 ff ff ff       	call   14d0 <abort>
    157d:	83 ec 0c             	sub    $0xc,%esp
    1580:	31 f6                	xor    %esi,%esi
    1582:	31 db                	xor    %ebx,%ebx
    1584:	6a 00                	push   $0x0
    1586:	e8 25 ac 00 00       	call   c1b0 <__stdio_init>
    158b:	83 c4 10             	add    $0x10,%esp
    158e:	eb ce                	jmp    155e <__main+0x6e>

00001590 <device_assign_devno>:
    1590:	55                   	push   %ebp
    1591:	89 e5                	mov    %esp,%ebp
    1593:	83 ec 0c             	sub    $0xc,%esp
    1596:	6a 23                	push   $0x23
    1598:	6a 00                	push   $0x0
    159a:	6a 00                	push   $0x0
    159c:	6a 00                	push   $0x0
    159e:	6a 00                	push   $0x0
    15a0:	6a 00                	push   $0x0
    15a2:	6a 00                	push   $0x0
    15a4:	ff 15 14 71 02 00    	call   *0x27114
    15aa:	c9                   	leave  
    15ab:	c3                   	ret    
    15ac:	8d 74 26 00          	lea    0x0(%esi,%eiz,1),%esi

000015b0 <physmem_map>:
    15b0:	55                   	push   %ebp
    15b1:	89 e5                	mov    %esp,%ebp
    15b3:	83 ec 0c             	sub    $0xc,%esp
    15b6:	8b 45 14             	mov    0x14(%ebp),%eax
    15b9:	6a 24                	push   $0x24
    15bb:	8b 55 10             	mov    0x10(%ebp),%edx
    15be:	6a 00                	push   $0x0
    15c0:	8b 4d 0c             	mov    0xc(%ebp),%ecx
    15c3:	68 b4 10 00 00       	push   $0x10b4
    15c8:	50                   	push   %eax
    15c9:	8b 45 08             	mov    0x8(%ebp),%eax
    15cc:	52                   	push   %edx
    15cd:	51                   	push   %ecx
    15ce:	50                   	push   %eax
    15cf:	e8 82 f9 01 00       	call   20f56 <__syscall_slow>
    15d4:	c9                   	leave  
    15d5:	c3                   	ret    
    15d6:	8d 76 00             	lea    0x0(%esi),%esi
    15d9:	8d bc 27 00 00 00 00 	lea    0x0(%edi,%eiz,1),%edi

000015e0 <physmem_unmap>:
    15e0:	55                   	push   %ebp
    15e1:	89 e5                	mov    %esp,%ebp
    15e3:	83 ec 0c             	sub    $0xc,%esp
    15e6:	8b 45 08             	mov    0x8(%ebp),%eax
    15e9:	6a 25                	push   $0x25
    15eb:	6a 00                	push   $0x0
    15ed:	6a 00                	push   $0x0
    15ef:	6a 00                	push   $0x0
    15f1:	6a 00                	push   $0x0
    15f3:	6a 00                	push   $0x0
    15f5:	50                   	push   %eax
    15f6:	ff 15 14 71 02 00    	call   *0x27114
    15fc:	c9                   	leave  
    15fd:	c3                   	ret    
    15fe:	66 90                	xchg   %ax,%ax

00001600 <dmamem_map>:
    1600:	55                   	push   %ebp
    1601:	89 e5                	mov    %esp,%ebp
    1603:	83 ec 0c             	sub    $0xc,%esp
    1606:	8b 45 08             	mov    0x8(%ebp),%eax
    1609:	6a 26                	push   $0x26
    160b:	6a 00                	push   $0x0
    160d:	50                   	push   %eax
    160e:	8b 45 14             	mov    0x14(%ebp),%eax
    1611:	8b 55 18             	mov    0x18(%ebp),%edx
    1614:	83 e0 fe             	and    $0xfffffffe,%eax
    1617:	52                   	push   %edx
    1618:	8b 4d 10             	mov    0x10(%ebp),%ecx
    161b:	50                   	push   %eax
    161c:	8b 45 0c             	mov    0xc(%ebp),%eax
    161f:	51                   	push   %ecx
    1620:	50                   	push   %eax
    1621:	e8 30 f9 01 00       	call   20f56 <__syscall_slow>
    1626:	c9                   	leave  
    1627:	c3                   	ret    
    1628:	90                   	nop
    1629:	8d b4 26 00 00 00 00 	lea    0x0(%esi,%eiz,1),%esi

00001630 <dmamem_map_anonymous>:
    1630:	55                   	push   %ebp
    1631:	89 e5                	mov    %esp,%ebp
    1633:	83 ec 0c             	sub    $0xc,%esp
    1636:	8b 45 18             	mov    0x18(%ebp),%eax
    1639:	8b 55 0c             	mov    0xc(%ebp),%edx
    163c:	8b 4d 10             	mov    0x10(%ebp),%ecx
    163f:	89 10                	mov    %edx,(%eax)
    1641:	8b 55 1c             	mov    0x1c(%ebp),%edx
    1644:	6a 26                	push   $0x26
    1646:	68 b4 10 00 00       	push   $0x10b4
    164b:	52                   	push   %edx
    164c:	50                   	push   %eax
    164d:	8b 45 14             	mov    0x14(%ebp),%eax
    1650:	83 c8 01             	or     $0x1,%eax
    1653:	50                   	push   %eax
    1654:	8b 45 08             	mov    0x8(%ebp),%eax
    1657:	51                   	push   %ecx
    1658:	50                   	push   %eax
    1659:	e8 f8 f8 01 00       	call   20f56 <__syscall_slow>
    165e:	c9                   	leave  
    165f:	c3                   	ret    

00001660 <dmamem_unmap>:
    1660:	55                   	push   %ebp
    1661:	89 e5                	mov    %esp,%ebp
    1663:	83 ec 0c             	sub    $0xc,%esp
    1666:	8b 45 0c             	mov    0xc(%ebp),%eax
    1669:	8b 55 08             	mov    0x8(%ebp),%edx
    166c:	6a 27                	push   $0x27
    166e:	6a 00                	push   $0x0
    1670:	6a 00                	push   $0x0
    1672:	6a 00                	push   $0x0
    1674:	6a 00                	push   $0x0
    1676:	50                   	push   %eax
    1677:	52                   	push   %edx
    1678:	ff 15 14 71 02 00    	call   *0x27114
    167e:	c9                   	leave  
    167f:	c3                   	ret    

00001680 <dmamem_unmap_anonymous>:
    1680:	55                   	push   %ebp
    1681:	89 e5                	mov    %esp,%ebp
    1683:	83 ec 0c             	sub    $0xc,%esp
    1686:	8b 45 08             	mov    0x8(%ebp),%eax
    1689:	6a 27                	push   $0x27
    168b:	6a 00                	push   $0x0
    168d:	6a 00                	push   $0x0
    168f:	6a 00                	push   $0x0
    1691:	6a 01                	push   $0x1
    1693:	6a 00                	push   $0x0
    1695:	50                   	push   %eax
    1696:	ff 15 14 71 02 00    	call   *0x27114
    169c:	c9                   	leave  
    169d:	c3                   	ret    
    169e:	66 90                	xchg   %ax,%ax

000016a0 <pio_enable_range>:
    16a0:	55                   	push   %ebp
    16a1:	89 e5                	mov    %esp,%ebp
    16a3:	57                   	push   %edi
    16a4:	56                   	push   %esi
    16a5:	53                   	push   %ebx
    16a6:	83 ec 1c             	sub    $0x1c,%esp
    16a9:	8b 45 08             	mov    0x8(%ebp),%eax
    16ac:	8b 7d 0c             	mov    0xc(%ebp),%edi
    16af:	8b 18                	mov    (%eax),%ebx
    16b1:	8b 70 10             	mov    0x10(%eax),%esi
    16b4:	81 fb ff ff 00 00    	cmp    $0xffff,%ebx
    16ba:	77 3c                	ja     16f8 <pio_enable_range+0x58>
    16bc:	85 ff                	test   %edi,%edi
    16be:	74 02                	je     16c2 <pio_enable_range+0x22>
    16c0:	89 1f                	mov    %ebx,(%edi)
    16c2:	e8 19 a2 00 00       	call   b8e0 <task_get_id>
    16c7:	89 5d e0             	mov    %ebx,-0x20(%ebp)
    16ca:	89 45 d8             	mov    %eax,-0x28(%ebp)
    16cd:	8d 45 d8             	lea    -0x28(%ebp),%eax
    16d0:	53                   	push   %ebx
    16d1:	89 55 dc             	mov    %edx,-0x24(%ebp)
    16d4:	6a 28                	push   $0x28
    16d6:	89 75 e4             	mov    %esi,-0x1c(%ebp)
    16d9:	6a 00                	push   $0x0
    16db:	6a 00                	push   $0x0
    16dd:	6a 00                	push   $0x0
    16df:	6a 00                	push   $0x0
    16e1:	6a 00                	push   $0x0
    16e3:	50                   	push   %eax
    16e4:	ff 15 14 71 02 00    	call   *0x27114
    16ea:	83 c4 20             	add    $0x20,%esp
    16ed:	8d 65 f4             	lea    -0xc(%ebp),%esp
    16f0:	5b                   	pop    %ebx
    16f1:	5e                   	pop    %esi
    16f2:	5f                   	pop    %edi
    16f3:	5d                   	pop    %ebp
    16f4:	c3                   	ret    
    16f5:	8d 76 00             	lea    0x0(%esi),%esi
    16f8:	85 ff                	test   %edi,%edi
    16fa:	74 46                	je     1742 <pio_enable_range+0xa2>
    16fc:	89 d8                	mov    %ebx,%eax
    16fe:	25 00 f0 ff ff       	and    $0xfffff000,%eax
    1703:	29 c3                	sub    %eax,%ebx
    1705:	01 de                	add    %ebx,%esi
    1707:	74 05                	je     170e <pio_enable_range+0x6e>
    1709:	4e                   	dec    %esi
    170a:	c1 ee 0c             	shr    $0xc,%esi
    170d:	46                   	inc    %esi
    170e:	8d 55 d8             	lea    -0x28(%ebp),%edx
    1711:	c7 45 d8 ff ff ff ff 	movl   $0xffffffff,-0x28(%ebp)
    1718:	51                   	push   %ecx
    1719:	6a 24                	push   $0x24
    171b:	6a 00                	push   $0x0
    171d:	68 b4 10 00 00       	push   $0x10b4
    1722:	52                   	push   %edx
    1723:	6a 03                	push   $0x3
    1725:	56                   	push   %esi
    1726:	50                   	push   %eax
    1727:	e8 2a f8 01 00       	call   20f56 <__syscall_slow>
    172c:	83 c4 20             	add    $0x20,%esp
    172f:	85 c0                	test   %eax,%eax
    1731:	75 ba                	jne    16ed <pio_enable_range+0x4d>
    1733:	8b 55 d8             	mov    -0x28(%ebp),%edx
    1736:	01 d3                	add    %edx,%ebx
    1738:	89 1f                	mov    %ebx,(%edi)
    173a:	8d 65 f4             	lea    -0xc(%ebp),%esp
    173d:	5b                   	pop    %ebx
    173e:	5e                   	pop    %esi
    173f:	5f                   	pop    %edi
    1740:	5d                   	pop    %ebp
    1741:	c3                   	ret    
    1742:	b8 f2 ff ff ff       	mov    $0xfffffff2,%eax
    1747:	eb a4                	jmp    16ed <pio_enable_range+0x4d>
    1749:	8d b4 26 00 00 00 00 	lea    0x0(%esi,%eiz,1),%esi

00001750 <pio_enable_resource>:
    1750:	55                   	push   %ebp
    1751:	89 e5                	mov    %esp,%ebp
    1753:	57                   	push   %edi
    1754:	56                   	push   %esi
    1755:	53                   	push   %ebx
    1756:	83 ec 1c             	sub    $0x1c,%esp
    1759:	8b 45 0c             	mov    0xc(%ebp),%eax
    175c:	8b 75 10             	mov    0x10(%ebp),%esi
    175f:	8b 10                	mov    (%eax),%edx
    1761:	83 fa 01             	cmp    $0x1,%edx
    1764:	74 6a                	je     17d0 <pio_enable_resource+0x80>
    1766:	83 fa 02             	cmp    $0x2,%edx
    1769:	74 0d                	je     1778 <pio_enable_resource+0x28>
    176b:	b8 f2 ff ff ff       	mov    $0xfffffff2,%eax
    1770:	8d 65 f4             	lea    -0xc(%ebp),%esp
    1773:	5b                   	pop    %ebx
    1774:	5e                   	pop    %esi
    1775:	5f                   	pop    %edi
    1776:	5d                   	pop    %ebp
    1777:	c3                   	ret    
    1778:	8b 58 04             	mov    0x4(%eax),%ebx
    177b:	80 78 10 00          	cmpb   $0x0,0x10(%eax)
    177f:	0f 85 bb 00 00 00    	jne    1840 <pio_enable_resource+0xf0>
    1785:	8b 78 0c             	mov    0xc(%eax),%edi
    1788:	81 fb ff ff 00 00    	cmp    $0xffff,%ebx
    178e:	77 63                	ja     17f3 <pio_enable_resource+0xa3>
    1790:	85 f6                	test   %esi,%esi
    1792:	74 02                	je     1796 <pio_enable_resource+0x46>
    1794:	89 1e                	mov    %ebx,(%esi)
    1796:	e8 45 a1 00 00       	call   b8e0 <task_get_id>
    179b:	89 5d e0             	mov    %ebx,-0x20(%ebp)
    179e:	89 45 d8             	mov    %eax,-0x28(%ebp)
    17a1:	8d 45 d8             	lea    -0x28(%ebp),%eax
    17a4:	53                   	push   %ebx
    17a5:	89 7d e4             	mov    %edi,-0x1c(%ebp)
    17a8:	6a 28                	push   $0x28
    17aa:	89 55 dc             	mov    %edx,-0x24(%ebp)
    17ad:	6a 00                	push   $0x0
    17af:	6a 00                	push   $0x0
    17b1:	6a 00                	push   $0x0
    17b3:	6a 00                	push   $0x0
    17b5:	6a 00                	push   $0x0
    17b7:	50                   	push   %eax
    17b8:	ff 15 14 71 02 00    	call   *0x27114
    17be:	83 c4 20             	add    $0x20,%esp
    17c1:	8d 65 f4             	lea    -0xc(%ebp),%esp
    17c4:	5b                   	pop    %ebx
    17c5:	5e                   	pop    %esi
    17c6:	5f                   	pop    %edi
    17c7:	5d                   	pop    %ebp
    17c8:	c3                   	ret    
    17c9:	8d b4 26 00 00 00 00 	lea    0x0(%esi,%eiz,1),%esi
    17d0:	8b 58 04             	mov    0x4(%eax),%ebx
    17d3:	80 78 10 00          	cmpb   $0x0,0x10(%eax)
    17d7:	74 ac                	je     1785 <pio_enable_resource+0x35>
    17d9:	8b 55 08             	mov    0x8(%ebp),%edx
    17dc:	85 d2                	test   %edx,%edx
    17de:	74 8b                	je     176b <pio_enable_resource+0x1b>
    17e0:	8b 4d 08             	mov    0x8(%ebp),%ecx
    17e3:	8b 79 08             	mov    0x8(%ecx),%edi
    17e6:	01 fb                	add    %edi,%ebx
    17e8:	8b 78 0c             	mov    0xc(%eax),%edi
    17eb:	81 fb ff ff 00 00    	cmp    $0xffff,%ebx
    17f1:	76 9d                	jbe    1790 <pio_enable_resource+0x40>
    17f3:	85 f6                	test   %esi,%esi
    17f5:	0f 84 70 ff ff ff    	je     176b <pio_enable_resource+0x1b>
    17fb:	89 d8                	mov    %ebx,%eax
    17fd:	25 00 f0 ff ff       	and    $0xfffff000,%eax
    1802:	29 c3                	sub    %eax,%ebx
    1804:	01 df                	add    %ebx,%edi
    1806:	75 50                	jne    1858 <pio_enable_resource+0x108>
    1808:	8d 55 d8             	lea    -0x28(%ebp),%edx
    180b:	c7 45 d8 ff ff ff ff 	movl   $0xffffffff,-0x28(%ebp)
    1812:	51                   	push   %ecx
    1813:	6a 24                	push   $0x24
    1815:	6a 00                	push   $0x0
    1817:	68 b4 10 00 00       	push   $0x10b4
    181c:	52                   	push   %edx
    181d:	6a 03                	push   $0x3
    181f:	57                   	push   %edi
    1820:	50                   	push   %eax
    1821:	e8 30 f7 01 00       	call   20f56 <__syscall_slow>
    1826:	83 c4 20             	add    $0x20,%esp
    1829:	85 c0                	test   %eax,%eax
    182b:	0f 85 3f ff ff ff    	jne    1770 <pio_enable_resource+0x20>
    1831:	8b 55 d8             	mov    -0x28(%ebp),%edx
    1834:	01 d3                	add    %edx,%ebx
    1836:	89 1e                	mov    %ebx,(%esi)
    1838:	8d 65 f4             	lea    -0xc(%ebp),%esp
    183b:	5b                   	pop    %ebx
    183c:	5e                   	pop    %esi
    183d:	5f                   	pop    %edi
    183e:	5d                   	pop    %ebp
    183f:	c3                   	ret    
    1840:	8b 55 08             	mov    0x8(%ebp),%edx
    1843:	85 d2                	test   %edx,%edx
    1845:	0f 84 20 ff ff ff    	je     176b <pio_enable_resource+0x1b>
    184b:	8b 4d 08             	mov    0x8(%ebp),%ecx
    184e:	8b 39                	mov    (%ecx),%edi
    1850:	01 fb                	add    %edi,%ebx
    1852:	e9 2e ff ff ff       	jmp    1785 <pio_enable_resource+0x35>
    1857:	90                   	nop
    1858:	4f                   	dec    %edi
    1859:	c1 ef 0c             	shr    $0xc,%edi
    185c:	47                   	inc    %edi
    185d:	eb a9                	jmp    1808 <pio_enable_resource+0xb8>
    185f:	90                   	nop

00001860 <pio_enable>:
    1860:	55                   	push   %ebp
    1861:	89 e5                	mov    %esp,%ebp
    1863:	56                   	push   %esi
    1864:	53                   	push   %ebx
    1865:	83 ec 10             	sub    $0x10,%esp
    1868:	8b 5d 08             	mov    0x8(%ebp),%ebx
    186b:	8b 75 10             	mov    0x10(%ebp),%esi
    186e:	81 fb ff ff 00 00    	cmp    $0xffff,%ebx
    1874:	77 42                	ja     18b8 <pio_enable+0x58>
    1876:	85 f6                	test   %esi,%esi
    1878:	74 02                	je     187c <pio_enable+0x1c>
    187a:	89 1e                	mov    %ebx,(%esi)
    187c:	e8 5f a0 00 00       	call   b8e0 <task_get_id>
    1881:	89 5d f0             	mov    %ebx,-0x10(%ebp)
    1884:	89 45 e8             	mov    %eax,-0x18(%ebp)
    1887:	8b 45 0c             	mov    0xc(%ebp),%eax
    188a:	89 45 f4             	mov    %eax,-0xc(%ebp)
    188d:	8d 45 e8             	lea    -0x18(%ebp),%eax
    1890:	53                   	push   %ebx
    1891:	89 55 ec             	mov    %edx,-0x14(%ebp)
    1894:	6a 28                	push   $0x28
    1896:	6a 00                	push   $0x0
    1898:	6a 00                	push   $0x0
    189a:	6a 00                	push   $0x0
    189c:	6a 00                	push   $0x0
    189e:	6a 00                	push   $0x0
    18a0:	50                   	push   %eax
    18a1:	ff 15 14 71 02 00    	call   *0x27114
    18a7:	83 c4 20             	add    $0x20,%esp
    18aa:	8d 65 f8             	lea    -0x8(%ebp),%esp
    18ad:	5b                   	pop    %ebx
    18ae:	5e                   	pop    %esi
    18af:	5d                   	pop    %ebp
    18b0:	c3                   	ret    
    18b1:	8d b4 26 00 00 00 00 	lea    0x0(%esi,%eiz,1),%esi
    18b8:	85 f6                	test   %esi,%esi
    18ba:	74 49                	je     1905 <pio_enable+0xa5>
    18bc:	89 da                	mov    %ebx,%edx
    18be:	81 e2 00 f0 ff ff    	and    $0xfffff000,%edx
    18c4:	29 d3                	sub    %edx,%ebx
    18c6:	89 d8                	mov    %ebx,%eax
    18c8:	03 45 0c             	add    0xc(%ebp),%eax
    18cb:	74 05                	je     18d2 <pio_enable+0x72>
    18cd:	48                   	dec    %eax
    18ce:	c1 e8 0c             	shr    $0xc,%eax
    18d1:	40                   	inc    %eax
    18d2:	51                   	push   %ecx
    18d3:	8d 4d e8             	lea    -0x18(%ebp),%ecx
    18d6:	6a 24                	push   $0x24
    18d8:	c7 45 e8 ff ff ff ff 	movl   $0xffffffff,-0x18(%ebp)
    18df:	6a 00                	push   $0x0
    18e1:	68 b4 10 00 00       	push   $0x10b4
    18e6:	51                   	push   %ecx
    18e7:	6a 03                	push   $0x3
    18e9:	50                   	push   %eax
    18ea:	52                   	push   %edx
    18eb:	e8 66 f6 01 00       	call   20f56 <__syscall_slow>
    18f0:	83 c4 20             	add    $0x20,%esp
    18f3:	85 c0                	test   %eax,%eax
    18f5:	75 b3                	jne    18aa <pio_enable+0x4a>
    18f7:	8b 55 e8             	mov    -0x18(%ebp),%edx
    18fa:	01 d3                	add    %edx,%ebx
    18fc:	89 1e                	mov    %ebx,(%esi)
    18fe:	8d 65 f8             	lea    -0x8(%ebp),%esp
    1901:	5b                   	pop    %ebx
    1902:	5e                   	pop    %esi
    1903:	5d                   	pop    %ebp
    1904:	c3                   	ret    
    1905:	b8 f2 ff ff ff       	mov    $0xfffffff2,%eax
    190a:	eb 9e                	jmp    18aa <pio_enable+0x4a>
    190c:	8d 74 26 00          	lea    0x0(%esi,%eiz,1),%esi

00001910 <pio_disable>:
    1910:	55                   	push   %ebp
    1911:	89 e5                	mov    %esp,%ebp
    1913:	53                   	push   %ebx
    1914:	83 ec 14             	sub    $0x14,%esp
    1917:	8b 5d 08             	mov    0x8(%ebp),%ebx
    191a:	81 fb ff ff 00 00    	cmp    $0xffff,%ebx
    1920:	76 1e                	jbe    1940 <pio_disable+0x30>
    1922:	50                   	push   %eax
    1923:	6a 25                	push   $0x25
    1925:	6a 00                	push   $0x0
    1927:	6a 00                	push   $0x0
    1929:	6a 00                	push   $0x0
    192b:	6a 00                	push   $0x0
    192d:	6a 00                	push   $0x0
    192f:	53                   	push   %ebx
    1930:	ff 15 14 71 02 00    	call   *0x27114
    1936:	83 c4 20             	add    $0x20,%esp
    1939:	8b 5d fc             	mov    -0x4(%ebp),%ebx
    193c:	c9                   	leave  
    193d:	c3                   	ret    
    193e:	66 90                	xchg   %ax,%ax
    1940:	e8 9b 9f 00 00       	call   b8e0 <task_get_id>
    1945:	89 5d f0             	mov    %ebx,-0x10(%ebp)
    1948:	89 45 e8             	mov    %eax,-0x18(%ebp)
    194b:	8b 45 0c             	mov    0xc(%ebp),%eax
    194e:	89 45 f4             	mov    %eax,-0xc(%ebp)
    1951:	8d 45 e8             	lea    -0x18(%ebp),%eax
    1954:	89 55 ec             	mov    %edx,-0x14(%ebp)
    1957:	52                   	push   %edx
    1958:	6a 29                	push   $0x29
    195a:	6a 00                	push   $0x0
    195c:	6a 00                	push   $0x0
    195e:	6a 00                	push   $0x0
    1960:	6a 00                	push   $0x0
    1962:	6a 00                	push   $0x0
    1964:	50                   	push   %eax
    1965:	ff 15 14 71 02 00    	call   *0x27114
    196b:	83 c4 20             	add    $0x20,%esp
    196e:	8b 5d fc             	mov    -0x4(%ebp),%ebx
    1971:	c9                   	leave  
    1972:	c3                   	ret    
    1973:	8d b6 00 00 00 00    	lea    0x0(%esi),%esi
    1979:	8d bc 27 00 00 00 00 	lea    0x0(%edi,%eiz,1),%edi

00001980 <pio_write_8>:
    1980:	55                   	push   %ebp
    1981:	89 e5                	mov    %esp,%ebp
    1983:	56                   	push   %esi
    1984:	53                   	push   %ebx
    1985:	50                   	push   %eax
    1986:	8b 75 0c             	mov    0xc(%ebp),%esi
    1989:	8b 5d 08             	mov    0x8(%ebp),%ebx
    198c:	89 f0                	mov    %esi,%eax
    198e:	6a 01                	push   $0x1
    1990:	25 ff 00 00 00       	and    $0xff,%eax
    1995:	50                   	push   %eax
    1996:	53                   	push   %ebx
    1997:	e8 f4 e5 01 00       	call   1ff90 <pio_trace_log>
    199c:	83 c4 10             	add    $0x10,%esp
    199f:	89 f0                	mov    %esi,%eax
    19a1:	81 fb ff ff 00 00    	cmp    $0xffff,%ebx
    19a7:	76 0f                	jbe    19b8 <pio_write_8+0x38>
    19a9:	88 03                	mov    %al,(%ebx)
    19ab:	8d 65 f8             	lea    -0x8(%ebp),%esp
    19ae:	5b                   	pop    %ebx
    19af:	5e                   	pop    %esi
    19b0:	5d                   	pop    %ebp
    19b1:	c3                   	ret    
    19b2:	8d b6 00 00 00 00    	lea    0x0(%esi),%esi
    19b8:	89 da                	mov    %ebx,%edx
    19ba:	ee                   	out    %al,(%dx)
    19bb:	8d 65 f8             	lea    -0x8(%ebp),%esp
    19be:	5b                   	pop    %ebx
    19bf:	5e                   	pop    %esi
    19c0:	5d                   	pop    %ebp
    19c1:	c3                   	ret    
    19c2:	8d b4 26 00 00 00 00 	lea    0x0(%esi,%eiz,1),%esi
    19c9:	8d bc 27 00 00 00 00 	lea    0x0(%edi,%eiz,1),%edi

000019d0 <pio_write_16>:
    19d0:	55                   	push   %ebp
    19d1:	89 e5                	mov    %esp,%ebp
    19d3:	56                   	push   %esi
    19d4:	53                   	push   %ebx
    19d5:	50                   	push   %eax
    19d6:	8b 75 0c             	mov    0xc(%ebp),%esi
    19d9:	31 c0                	xor    %eax,%eax
    19db:	8b 5d 08             	mov    0x8(%ebp),%ebx
    19de:	66 89 f0             	mov    %si,%ax
    19e1:	6a 01                	push   $0x1
    19e3:	50                   	push   %eax
    19e4:	53                   	push   %ebx
    19e5:	e8 a6 e5 01 00       	call   1ff90 <pio_trace_log>
    19ea:	83 c4 10             	add    $0x10,%esp
    19ed:	81 fb ff ff 00 00    	cmp    $0xffff,%ebx
    19f3:	76 0b                	jbe    1a00 <pio_write_16+0x30>
    19f5:	66 89 33             	mov    %si,(%ebx)
    19f8:	8d 65 f8             	lea    -0x8(%ebp),%esp
    19fb:	5b                   	pop    %ebx
    19fc:	5e                   	pop    %esi
    19fd:	5d                   	pop    %ebp
    19fe:	c3                   	ret    
    19ff:	90                   	nop
    1a00:	89 f0                	mov    %esi,%eax
    1a02:	89 da                	mov    %ebx,%edx
    1a04:	66 ef                	out    %ax,(%dx)
    1a06:	8d 65 f8             	lea    -0x8(%ebp),%esp
    1a09:	5b                   	pop    %ebx
    1a0a:	5e                   	pop    %esi
    1a0b:	5d                   	pop    %ebp
    1a0c:	c3                   	ret    
    1a0d:	8d 76 00             	lea    0x0(%esi),%esi

00001a10 <pio_write_32>:
    1a10:	55                   	push   %ebp
    1a11:	89 e5                	mov    %esp,%ebp
    1a13:	56                   	push   %esi
    1a14:	53                   	push   %ebx
    1a15:	50                   	push   %eax
    1a16:	8b 5d 08             	mov    0x8(%ebp),%ebx
    1a19:	8b 75 0c             	mov    0xc(%ebp),%esi
    1a1c:	6a 01                	push   $0x1
    1a1e:	56                   	push   %esi
    1a1f:	53                   	push   %ebx
    1a20:	e8 6b e5 01 00       	call   1ff90 <pio_trace_log>
    1a25:	83 c4 10             	add    $0x10,%esp
    1a28:	81 fb ff ff 00 00    	cmp    $0xffff,%ebx
    1a2e:	76 10                	jbe    1a40 <pio_write_32+0x30>
    1a30:	89 33                	mov    %esi,(%ebx)
    1a32:	8d 65 f8             	lea    -0x8(%ebp),%esp
    1a35:	5b                   	pop    %ebx
    1a36:	5e                   	pop    %esi
    1a37:	5d                   	pop    %ebp
    1a38:	c3                   	ret    
    1a39:	8d b4 26 00 00 00 00 	lea    0x0(%esi,%eiz,1),%esi
    1a40:	89 f0                	mov    %esi,%eax
    1a42:	89 da                	mov    %ebx,%edx
    1a44:	ef                   	out    %eax,(%dx)
    1a45:	8d 65 f8             	lea    -0x8(%ebp),%esp
    1a48:	5b                   	pop    %ebx
    1a49:	5e                   	pop    %esi
    1a4a:	5d                   	pop    %ebp
    1a4b:	c3                   	ret    
    1a4c:	8d 74 26 00          	lea    0x0(%esi,%eiz,1),%esi

00001a50 <pio_read_8>:
    1a50:	55                   	push   %ebp
    1a51:	89 e5                	mov    %esp,%ebp
    1a53:	53                   	push   %ebx
    1a54:	52                   	push   %edx
    1a55:	8b 55 08             	mov    0x8(%ebp),%edx
    1a58:	81 fa ff ff 00 00    	cmp    $0xffff,%edx
    1a5e:	76 18                	jbe    1a78 <pio_read_8+0x28>
    1a60:	8a 1a                	mov    (%edx),%bl
    1a62:	50                   	push   %eax
    1a63:	31 c0                	xor    %eax,%eax
    1a65:	88 d8                	mov    %bl,%al
    1a67:	6a 00                	push   $0x0
    1a69:	50                   	push   %eax
    1a6a:	52                   	push   %edx
    1a6b:	e8 20 e5 01 00       	call   1ff90 <pio_trace_log>
    1a70:	88 d8                	mov    %bl,%al
    1a72:	8b 5d fc             	mov    -0x4(%ebp),%ebx
    1a75:	c9                   	leave  
    1a76:	c3                   	ret    
    1a77:	90                   	nop
    1a78:	ec                   	in     (%dx),%al
    1a79:	88 c3                	mov    %al,%bl
    1a7b:	eb e5                	jmp    1a62 <pio_read_8+0x12>
    1a7d:	8d 76 00             	lea    0x0(%esi),%esi

00001a80 <pio_read_16>:
    1a80:	55                   	push   %ebp
    1a81:	89 e5                	mov    %esp,%ebp
    1a83:	53                   	push   %ebx
    1a84:	52                   	push   %edx
    1a85:	8b 55 08             	mov    0x8(%ebp),%edx
    1a88:	81 fa ff ff 00 00    	cmp    $0xffff,%edx
    1a8e:	76 20                	jbe    1ab0 <pio_read_16+0x30>
    1a90:	66 8b 1a             	mov    (%edx),%bx
    1a93:	50                   	push   %eax
    1a94:	31 c0                	xor    %eax,%eax
    1a96:	66 89 d8             	mov    %bx,%ax
    1a99:	6a 00                	push   $0x0
    1a9b:	50                   	push   %eax
    1a9c:	52                   	push   %edx
    1a9d:	e8 ee e4 01 00       	call   1ff90 <pio_trace_log>
    1aa2:	89 d8                	mov    %ebx,%eax
    1aa4:	8b 5d fc             	mov    -0x4(%ebp),%ebx
    1aa7:	c9                   	leave  
    1aa8:	c3                   	ret    
    1aa9:	8d b4 26 00 00 00 00 	lea    0x0(%esi,%eiz,1),%esi
    1ab0:	66 ed                	in     (%dx),%ax
    1ab2:	89 c3                	mov    %eax,%ebx
    1ab4:	eb dd                	jmp    1a93 <pio_read_16+0x13>
    1ab6:	8d 76 00             	lea    0x0(%esi),%esi
    1ab9:	8d bc 27 00 00 00 00 	lea    0x0(%edi,%eiz,1),%edi

00001ac0 <pio_read_32>:
    1ac0:	55                   	push   %ebp
    1ac1:	89 e5                	mov    %esp,%ebp
    1ac3:	53                   	push   %ebx
    1ac4:	52                   	push   %edx
    1ac5:	8b 55 08             	mov    0x8(%ebp),%edx
    1ac8:	81 fa ff ff 00 00    	cmp    $0xffff,%edx
    1ace:	76 18                	jbe    1ae8 <pio_read_32+0x28>
    1ad0:	8b 1a                	mov    (%edx),%ebx
    1ad2:	50                   	push   %eax
    1ad3:	6a 00                	push   $0x0
    1ad5:	53                   	push   %ebx
    1ad6:	52                   	push   %edx
    1ad7:	e8 b4 e4 01 00       	call   1ff90 <pio_trace_log>
    1adc:	89 d8                	mov    %ebx,%eax
    1ade:	8b 5d fc             	mov    -0x4(%ebp),%ebx
    1ae1:	c9                   	leave  
    1ae2:	c3                   	ret    
    1ae3:	90                   	nop
    1ae4:	8d 74 26 00          	lea    0x0(%esi,%eiz,1),%esi
    1ae8:	ed                   	in     (%dx),%eax
    1ae9:	89 c3                	mov    %eax,%ebx
    1aeb:	eb e5                	jmp    1ad2 <pio_read_32+0x12>
    1aed:	66 90                	xchg   %ax,%ax
    1aef:	90                   	nop

00001af0 <bd_srvs_init>:
    1af0:	55                   	push   %ebp
    1af1:	89 e5                	mov    %esp,%ebp
    1af3:	8b 45 08             	mov    0x8(%ebp),%eax
    1af6:	c7 00 00 00 00 00    	movl   $0x0,(%eax)
    1afc:	c7 40 04 00 00 00 00 	movl   $0x0,0x4(%eax)
    1b03:	5d                   	pop    %ebp
    1b04:	c3                   	ret    
    1b05:	8d 74 26 00          	lea    0x0(%esi,%eiz,1),%esi
    1b09:	8d bc 27 00 00 00 00 	lea    0x0(%edi,%eiz,1),%edi

00001b10 <bd_conn>:
    1b10:	55                   	push   %ebp
    1b11:	89 e5                	mov    %esp,%ebp
    1b13:	57                   	push   %edi
    1b14:	56                   	push   %esi
    1b15:	53                   	push   %ebx
    1b16:	83 ec 64             	sub    $0x64,%esp
    1b19:	8b 4d 08             	mov    0x8(%ebp),%ecx
    1b1c:	6a 00                	push   $0x0
    1b1e:	51                   	push   %ecx
    1b1f:	e8 2c 65 01 00       	call   18050 <async_answer_0>
    1b24:	5b                   	pop    %ebx
    1b25:	5e                   	pop    %esi
    1b26:	6a 0c                	push   $0xc
    1b28:	6a 01                	push   $0x1
    1b2a:	e8 21 1f 01 00       	call   13a50 <calloc>
    1b2f:	83 c4 10             	add    $0x10,%esp
    1b32:	85 c0                	test   %eax,%eax
    1b34:	0f 84 c6 02 00 00    	je     1e00 <bd_conn+0x2f0>
    1b3a:	89 c7                	mov    %eax,%edi
    1b3c:	83 ec 0c             	sub    $0xc,%esp
    1b3f:	8b 45 10             	mov    0x10(%ebp),%eax
    1b42:	89 07                	mov    %eax,(%edi)
    1b44:	6a 01                	push   $0x1
    1b46:	e8 e5 86 01 00       	call   1a230 <async_callback_receive>
    1b4b:	83 c4 10             	add    $0x10,%esp
    1b4e:	85 c0                	test   %eax,%eax
    1b50:	0f 84 aa 02 00 00    	je     1e00 <bd_conn+0x2f0>
    1b56:	89 47 04             	mov    %eax,0x4(%edi)
    1b59:	50                   	push   %eax
    1b5a:	50                   	push   %eax
    1b5b:	8b 45 10             	mov    0x10(%ebp),%eax
    1b5e:	8b 55 10             	mov    0x10(%ebp),%edx
    1b61:	8b 00                	mov    (%eax),%eax
    1b63:	57                   	push   %edi
    1b64:	52                   	push   %edx
    1b65:	ff 10                	call   *(%eax)
    1b67:	83 c4 10             	add    $0x10,%esp
    1b6a:	85 c0                	test   %eax,%eax
    1b6c:	0f 85 93 02 00 00    	jne    1e05 <bd_conn+0x2f5>
    1b72:	8d b6 00 00 00 00    	lea    0x0(%esi),%esi
    1b78:	50                   	push   %eax
    1b79:	50                   	push   %eax
    1b7a:	8d 45 c4             	lea    -0x3c(%ebp),%eax
    1b7d:	6a 00                	push   $0x0
    1b7f:	50                   	push   %eax
    1b80:	e8 4b 4c 01 00       	call   167d0 <async_get_call_timeout>
    1b85:	89 c6                	mov    %eax,%esi
    1b87:	8b 45 c4             	mov    -0x3c(%ebp),%eax
    1b8a:	83 c4 10             	add    $0x10,%esp
    1b8d:	85 c0                	test   %eax,%eax
    1b8f:	0f 84 7b 02 00 00    	je     1e10 <bd_conn+0x300>
    1b95:	2d 00 04 00 00       	sub    $0x400,%eax
    1b9a:	83 f8 05             	cmp    $0x5,%eax
    1b9d:	0f 87 45 02 00 00    	ja     1de8 <bd_conn+0x2d8>
    1ba3:	ff 24 85 a0 37 02 00 	jmp    *0x237a0(,%eax,4)
    1baa:	8d b6 00 00 00 00    	lea    0x0(%esi),%esi
    1bb0:	8b 45 c8             	mov    -0x38(%ebp),%eax
    1bb3:	8b 55 cc             	mov    -0x34(%ebp),%edx
    1bb6:	89 45 a0             	mov    %eax,-0x60(%ebp)
    1bb9:	50                   	push   %eax
    1bba:	50                   	push   %eax
    1bbb:	8d 45 b8             	lea    -0x48(%ebp),%eax
    1bbe:	50                   	push   %eax
    1bbf:	8d 45 b4             	lea    -0x4c(%ebp),%eax
    1bc2:	6a 00                	push   $0x0
    1bc4:	89 55 a4             	mov    %edx,-0x5c(%ebp)
    1bc7:	6a 00                	push   $0x0
    1bc9:	8b 5d d0             	mov    -0x30(%ebp),%ebx
    1bcc:	6a 00                	push   $0x0
    1bce:	6a 00                	push   $0x0
    1bd0:	50                   	push   %eax
    1bd1:	e8 ea 80 01 00       	call   19cc0 <async_data_write_accept>
    1bd6:	83 c4 20             	add    $0x20,%esp
    1bd9:	85 c0                	test   %eax,%eax
    1bdb:	0f 85 77 02 00 00    	jne    1e58 <bd_conn+0x348>
    1be1:	8b 07                	mov    (%edi),%eax
    1be3:	8b 00                	mov    (%eax),%eax
    1be5:	8b 40 14             	mov    0x14(%eax),%eax
    1be8:	85 c0                	test   %eax,%eax
    1bea:	0f 84 50 02 00 00    	je     1e40 <bd_conn+0x330>
    1bf0:	8b 4d b8             	mov    -0x48(%ebp),%ecx
    1bf3:	52                   	push   %edx
    1bf4:	52                   	push   %edx
    1bf5:	8b 55 b4             	mov    -0x4c(%ebp),%edx
    1bf8:	51                   	push   %ecx
    1bf9:	8b 4d a4             	mov    -0x5c(%ebp),%ecx
    1bfc:	52                   	push   %edx
    1bfd:	53                   	push   %ebx
    1bfe:	8b 5d a0             	mov    -0x60(%ebp),%ebx
    1c01:	51                   	push   %ecx
    1c02:	53                   	push   %ebx
    1c03:	57                   	push   %edi
    1c04:	ff d0                	call   *%eax
    1c06:	83 c4 14             	add    $0x14,%esp
    1c09:	89 c3                	mov    %eax,%ebx
    1c0b:	8b 45 b4             	mov    -0x4c(%ebp),%eax
    1c0e:	50                   	push   %eax
    1c0f:	e8 8c 20 01 00       	call   13ca0 <free>
    1c14:	58                   	pop    %eax
    1c15:	5a                   	pop    %edx
    1c16:	53                   	push   %ebx
    1c17:	56                   	push   %esi
    1c18:	e8 33 64 01 00       	call   18050 <async_answer_0>
    1c1d:	83 c4 10             	add    $0x10,%esp
    1c20:	e9 53 ff ff ff       	jmp    1b78 <bd_conn+0x68>
    1c25:	8d 76 00             	lea    0x0(%esi),%esi
    1c28:	8b 0f                	mov    (%edi),%ecx
    1c2a:	8b 45 c8             	mov    -0x38(%ebp),%eax
    1c2d:	8b 55 cc             	mov    -0x34(%ebp),%edx
    1c30:	8b 5d d0             	mov    -0x30(%ebp),%ebx
    1c33:	8b 09                	mov    (%ecx),%ecx
    1c35:	8b 49 10             	mov    0x10(%ecx),%ecx
    1c38:	85 c9                	test   %ecx,%ecx
    1c3a:	0f 84 00 02 00 00    	je     1e40 <bd_conn+0x330>
    1c40:	53                   	push   %ebx
    1c41:	52                   	push   %edx
    1c42:	50                   	push   %eax
    1c43:	57                   	push   %edi
    1c44:	ff d1                	call   *%ecx
    1c46:	5a                   	pop    %edx
    1c47:	59                   	pop    %ecx
    1c48:	50                   	push   %eax
    1c49:	56                   	push   %esi
    1c4a:	e8 01 64 01 00       	call   18050 <async_answer_0>
    1c4f:	83 c4 10             	add    $0x10,%esp
    1c52:	e9 21 ff ff ff       	jmp    1b78 <bd_conn+0x68>
    1c57:	90                   	nop
    1c58:	8b 45 c8             	mov    -0x38(%ebp),%eax
    1c5b:	8b 55 cc             	mov    -0x34(%ebp),%edx
    1c5e:	89 45 a0             	mov    %eax,-0x60(%ebp)
    1c61:	8b 45 d0             	mov    -0x30(%ebp),%eax
    1c64:	89 45 9c             	mov    %eax,-0x64(%ebp)
    1c67:	8d 45 b4             	lea    -0x4c(%ebp),%eax
    1c6a:	53                   	push   %ebx
    1c6b:	53                   	push   %ebx
    1c6c:	50                   	push   %eax
    1c6d:	8d 45 b8             	lea    -0x48(%ebp),%eax
    1c70:	50                   	push   %eax
    1c71:	89 55 a4             	mov    %edx,-0x5c(%ebp)
    1c74:	e8 37 7b 01 00       	call   197b0 <async_data_read_receive>
    1c79:	83 c4 10             	add    $0x10,%esp
    1c7c:	84 c0                	test   %al,%al
    1c7e:	0f 84 64 01 00 00    	je     1de8 <bd_conn+0x2d8>
    1c84:	83 ec 0c             	sub    $0xc,%esp
    1c87:	8b 4d b4             	mov    -0x4c(%ebp),%ecx
    1c8a:	51                   	push   %ecx
    1c8b:	e8 60 1e 01 00       	call   13af0 <malloc>
    1c90:	83 c4 10             	add    $0x10,%esp
    1c93:	89 c3                	mov    %eax,%ebx
    1c95:	85 c0                	test   %eax,%eax
    1c97:	0f 84 4c 02 00 00    	je     1ee9 <bd_conn+0x3d9>
    1c9d:	8b 07                	mov    (%edi),%eax
    1c9f:	8b 00                	mov    (%eax),%eax
    1ca1:	8b 40 08             	mov    0x8(%eax),%eax
    1ca4:	85 c0                	test   %eax,%eax
    1ca6:	0f 84 0e 02 00 00    	je     1eba <bd_conn+0x3aa>
    1cac:	8b 4d b4             	mov    -0x4c(%ebp),%ecx
    1caf:	52                   	push   %edx
    1cb0:	52                   	push   %edx
    1cb1:	8b 55 9c             	mov    -0x64(%ebp),%edx
    1cb4:	51                   	push   %ecx
    1cb5:	8b 4d a4             	mov    -0x5c(%ebp),%ecx
    1cb8:	53                   	push   %ebx
    1cb9:	52                   	push   %edx
    1cba:	8b 55 a0             	mov    -0x60(%ebp),%edx
    1cbd:	51                   	push   %ecx
    1cbe:	52                   	push   %edx
    1cbf:	57                   	push   %edi
    1cc0:	ff d0                	call   *%eax
    1cc2:	83 c4 20             	add    $0x20,%esp
    1cc5:	85 c0                	test   %eax,%eax
    1cc7:	0f 84 a3 01 00 00    	je     1e70 <bd_conn+0x360>
    1ccd:	50                   	push   %eax
    1cce:	50                   	push   %eax
    1ccf:	8b 45 b8             	mov    -0x48(%ebp),%eax
    1cd2:	6a fe                	push   $0xfffffffe
    1cd4:	50                   	push   %eax
    1cd5:	e8 76 63 01 00       	call   18050 <async_answer_0>
    1cda:	5a                   	pop    %edx
    1cdb:	59                   	pop    %ecx
    1cdc:	6a fe                	push   $0xfffffffe
    1cde:	56                   	push   %esi
    1cdf:	e8 6c 63 01 00       	call   18050 <async_answer_0>
    1ce4:	89 1c 24             	mov    %ebx,(%esp)
    1ce7:	e8 b4 1f 01 00       	call   13ca0 <free>
    1cec:	83 c4 10             	add    $0x10,%esp
    1cef:	e9 84 fe ff ff       	jmp    1b78 <bd_conn+0x68>
    1cf4:	8d 74 26 00          	lea    0x0(%esi,%eiz,1),%esi
    1cf8:	8b 07                	mov    (%edi),%eax
    1cfa:	8b 00                	mov    (%eax),%eax
    1cfc:	8b 40 1c             	mov    0x1c(%eax),%eax
    1cff:	85 c0                	test   %eax,%eax
    1d01:	0f 84 39 01 00 00    	je     1e40 <bd_conn+0x330>
    1d07:	52                   	push   %edx
    1d08:	52                   	push   %edx
    1d09:	8d 55 b8             	lea    -0x48(%ebp),%edx
    1d0c:	52                   	push   %edx
    1d0d:	57                   	push   %edi
    1d0e:	ff d0                	call   *%eax
    1d10:	8b 4d bc             	mov    -0x44(%ebp),%ecx
    1d13:	8b 5d b8             	mov    -0x48(%ebp),%ebx
    1d16:	51                   	push   %ecx
    1d17:	53                   	push   %ebx
    1d18:	50                   	push   %eax
    1d19:	56                   	push   %esi
    1d1a:	e8 71 63 01 00       	call   18090 <async_answer_2>
    1d1f:	83 c4 20             	add    $0x20,%esp
    1d22:	e9 51 fe ff ff       	jmp    1b78 <bd_conn+0x68>
    1d27:	90                   	nop
    1d28:	8b 07                	mov    (%edi),%eax
    1d2a:	8b 00                	mov    (%eax),%eax
    1d2c:	8b 40 18             	mov    0x18(%eax),%eax
    1d2f:	85 c0                	test   %eax,%eax
    1d31:	0f 84 09 01 00 00    	je     1e40 <bd_conn+0x330>
    1d37:	8d 4d b8             	lea    -0x48(%ebp),%ecx
    1d3a:	52                   	push   %edx
    1d3b:	52                   	push   %edx
    1d3c:	51                   	push   %ecx
    1d3d:	57                   	push   %edi
    1d3e:	ff d0                	call   *%eax
    1d40:	83 c4 0c             	add    $0xc,%esp
    1d43:	8b 4d b8             	mov    -0x48(%ebp),%ecx
    1d46:	51                   	push   %ecx
    1d47:	50                   	push   %eax
    1d48:	56                   	push   %esi
    1d49:	e8 22 63 01 00       	call   18070 <async_answer_1>
    1d4e:	83 c4 10             	add    $0x10,%esp
    1d51:	e9 22 fe ff ff       	jmp    1b78 <bd_conn+0x68>
    1d56:	66 90                	xchg   %ax,%ax
    1d58:	50                   	push   %eax
    1d59:	50                   	push   %eax
    1d5a:	8d 45 b4             	lea    -0x4c(%ebp),%eax
    1d5d:	8b 5d c8             	mov    -0x38(%ebp),%ebx
    1d60:	50                   	push   %eax
    1d61:	8d 45 b8             	lea    -0x48(%ebp),%eax
    1d64:	50                   	push   %eax
    1d65:	e8 46 7a 01 00       	call   197b0 <async_data_read_receive>
    1d6a:	83 c4 10             	add    $0x10,%esp
    1d6d:	84 c0                	test   %al,%al
    1d6f:	74 77                	je     1de8 <bd_conn+0x2d8>
    1d71:	83 ec 0c             	sub    $0xc,%esp
    1d74:	8b 4d b4             	mov    -0x4c(%ebp),%ecx
    1d77:	51                   	push   %ecx
    1d78:	e8 73 1d 01 00       	call   13af0 <malloc>
    1d7d:	83 c4 10             	add    $0x10,%esp
    1d80:	89 c2                	mov    %eax,%edx
    1d82:	85 c0                	test   %eax,%eax
    1d84:	0f 84 5f 01 00 00    	je     1ee9 <bd_conn+0x3d9>
    1d8a:	8b 07                	mov    (%edi),%eax
    1d8c:	8b 00                	mov    (%eax),%eax
    1d8e:	8b 40 0c             	mov    0xc(%eax),%eax
    1d91:	85 c0                	test   %eax,%eax
    1d93:	0f 84 37 01 00 00    	je     1ed0 <bd_conn+0x3c0>
    1d99:	8b 4d b4             	mov    -0x4c(%ebp),%ecx
    1d9c:	81 e3 ff 00 00 00    	and    $0xff,%ebx
    1da2:	51                   	push   %ecx
    1da3:	89 55 a0             	mov    %edx,-0x60(%ebp)
    1da6:	52                   	push   %edx
    1da7:	53                   	push   %ebx
    1da8:	57                   	push   %edi
    1da9:	ff d0                	call   *%eax
    1dab:	83 c4 10             	add    $0x10,%esp
    1dae:	8b 55 a0             	mov    -0x60(%ebp),%edx
    1db1:	85 c0                	test   %eax,%eax
    1db3:	0f 84 e7 00 00 00    	je     1ea0 <bd_conn+0x390>
    1db9:	50                   	push   %eax
    1dba:	50                   	push   %eax
    1dbb:	8b 45 b8             	mov    -0x48(%ebp),%eax
    1dbe:	6a fe                	push   $0xfffffffe
    1dc0:	50                   	push   %eax
    1dc1:	e8 8a 62 01 00       	call   18050 <async_answer_0>
    1dc6:	5a                   	pop    %edx
    1dc7:	59                   	pop    %ecx
    1dc8:	6a fe                	push   $0xfffffffe
    1dca:	56                   	push   %esi
    1dcb:	e8 80 62 01 00       	call   18050 <async_answer_0>
    1dd0:	8b 55 a0             	mov    -0x60(%ebp),%edx
    1dd3:	89 14 24             	mov    %edx,(%esp)
    1dd6:	e8 c5 1e 01 00       	call   13ca0 <free>
    1ddb:	83 c4 10             	add    $0x10,%esp
    1dde:	e9 95 fd ff ff       	jmp    1b78 <bd_conn+0x68>
    1de3:	90                   	nop
    1de4:	8d 74 26 00          	lea    0x0(%esi,%eiz,1),%esi
    1de8:	50                   	push   %eax
    1de9:	50                   	push   %eax
    1dea:	6a f2                	push   $0xfffffff2
    1dec:	56                   	push   %esi
    1ded:	e8 5e 62 01 00       	call   18050 <async_answer_0>
    1df2:	83 c4 10             	add    $0x10,%esp
    1df5:	e9 7e fd ff ff       	jmp    1b78 <bd_conn+0x68>
    1dfa:	8d b6 00 00 00 00    	lea    0x0(%esi),%esi
    1e00:	b8 fe ff ff ff       	mov    $0xfffffffe,%eax
    1e05:	8d 65 f4             	lea    -0xc(%ebp),%esp
    1e08:	5b                   	pop    %ebx
    1e09:	5e                   	pop    %esi
    1e0a:	5f                   	pop    %edi
    1e0b:	5d                   	pop    %ebp
    1e0c:	c3                   	ret    
    1e0d:	8d 76 00             	lea    0x0(%esi),%esi
    1e10:	50                   	push   %eax
    1e11:	50                   	push   %eax
    1e12:	6a 00                	push   $0x0
    1e14:	56                   	push   %esi
    1e15:	e8 36 62 01 00       	call   18050 <async_answer_0>
    1e1a:	8b 45 10             	mov    0x10(%ebp),%eax
    1e1d:	8b 00                	mov    (%eax),%eax
    1e1f:	89 3c 24             	mov    %edi,(%esp)
    1e22:	ff 50 04             	call   *0x4(%eax)
    1e25:	89 3c 24             	mov    %edi,(%esp)
    1e28:	89 45 a0             	mov    %eax,-0x60(%ebp)
    1e2b:	e8 70 1e 01 00       	call   13ca0 <free>
    1e30:	8b 45 a0             	mov    -0x60(%ebp),%eax
    1e33:	83 c4 10             	add    $0x10,%esp
    1e36:	8d 65 f4             	lea    -0xc(%ebp),%esp
    1e39:	5b                   	pop    %ebx
    1e3a:	5e                   	pop    %esi
    1e3b:	5f                   	pop    %edi
    1e3c:	5d                   	pop    %ebp
    1e3d:	c3                   	ret    
    1e3e:	66 90                	xchg   %ax,%ax
    1e40:	50                   	push   %eax
    1e41:	50                   	push   %eax
    1e42:	6a f5                	push   $0xfffffff5
    1e44:	56                   	push   %esi
    1e45:	e8 06 62 01 00       	call   18050 <async_answer_0>
    1e4a:	83 c4 10             	add    $0x10,%esp
    1e4d:	e9 26 fd ff ff       	jmp    1b78 <bd_conn+0x68>
    1e52:	8d b6 00 00 00 00    	lea    0x0(%esi),%esi
    1e58:	51                   	push   %ecx
    1e59:	51                   	push   %ecx
    1e5a:	50                   	push   %eax
    1e5b:	56                   	push   %esi
    1e5c:	e8 ef 61 01 00       	call   18050 <async_answer_0>
    1e61:	83 c4 10             	add    $0x10,%esp
    1e64:	e9 0f fd ff ff       	jmp    1b78 <bd_conn+0x68>
    1e69:	8d b4 26 00 00 00 00 	lea    0x0(%esi,%eiz,1),%esi
    1e70:	50                   	push   %eax
    1e71:	8b 45 b4             	mov    -0x4c(%ebp),%eax
    1e74:	50                   	push   %eax
    1e75:	8b 45 b8             	mov    -0x48(%ebp),%eax
    1e78:	53                   	push   %ebx
    1e79:	50                   	push   %eax
    1e7a:	e8 11 7a 01 00       	call   19890 <async_data_read_finalize>
    1e7f:	89 1c 24             	mov    %ebx,(%esp)
    1e82:	e8 19 1e 01 00       	call   13ca0 <free>
    1e87:	5b                   	pop    %ebx
    1e88:	58                   	pop    %eax
    1e89:	6a 00                	push   $0x0
    1e8b:	56                   	push   %esi
    1e8c:	e8 bf 61 01 00       	call   18050 <async_answer_0>
    1e91:	83 c4 10             	add    $0x10,%esp
    1e94:	e9 df fc ff ff       	jmp    1b78 <bd_conn+0x68>
    1e99:	8d b4 26 00 00 00 00 	lea    0x0(%esi,%eiz,1),%esi
    1ea0:	50                   	push   %eax
    1ea1:	8b 45 b4             	mov    -0x4c(%ebp),%eax
    1ea4:	50                   	push   %eax
    1ea5:	8b 45 b8             	mov    -0x48(%ebp),%eax
    1ea8:	52                   	push   %edx
    1ea9:	89 55 a0             	mov    %edx,-0x60(%ebp)
    1eac:	50                   	push   %eax
    1ead:	e8 de 79 01 00       	call   19890 <async_data_read_finalize>
    1eb2:	8b 55 a0             	mov    -0x60(%ebp),%edx
    1eb5:	89 14 24             	mov    %edx,(%esp)
    1eb8:	eb c8                	jmp    1e82 <bd_conn+0x372>
    1eba:	8b 45 b8             	mov    -0x48(%ebp),%eax
    1ebd:	51                   	push   %ecx
    1ebe:	51                   	push   %ecx
    1ebf:	6a f5                	push   $0xfffffff5
    1ec1:	50                   	push   %eax
    1ec2:	e8 89 61 01 00       	call   18050 <async_answer_0>
    1ec7:	58                   	pop    %eax
    1ec8:	5a                   	pop    %edx
    1ec9:	6a f5                	push   $0xfffffff5
    1ecb:	e9 0e fe ff ff       	jmp    1cde <bd_conn+0x1ce>
    1ed0:	8b 45 b8             	mov    -0x48(%ebp),%eax
    1ed3:	89 55 a0             	mov    %edx,-0x60(%ebp)
    1ed6:	53                   	push   %ebx
    1ed7:	53                   	push   %ebx
    1ed8:	6a f5                	push   $0xfffffff5
    1eda:	50                   	push   %eax
    1edb:	e8 70 61 01 00       	call   18050 <async_answer_0>
    1ee0:	58                   	pop    %eax
    1ee1:	5a                   	pop    %edx
    1ee2:	6a f5                	push   $0xfffffff5
    1ee4:	e9 e1 fe ff ff       	jmp    1dca <bd_conn+0x2ba>
    1ee9:	8b 5d b8             	mov    -0x48(%ebp),%ebx
    1eec:	51                   	push   %ecx
    1eed:	51                   	push   %ecx
    1eee:	6a fe                	push   $0xfffffffe
    1ef0:	53                   	push   %ebx
    1ef1:	e8 5a 61 01 00       	call   18050 <async_answer_0>
    1ef6:	58                   	pop    %eax
    1ef7:	5a                   	pop    %edx
    1ef8:	6a fe                	push   $0xfffffffe
    1efa:	56                   	push   %esi
    1efb:	e8 50 61 01 00       	call   18050 <async_answer_0>
    1f00:	83 c4 10             	add    $0x10,%esp
    1f03:	e9 70 fc ff ff       	jmp    1b78 <bd_conn+0x68>
    1f08:	66 90                	xchg   %ax,%ax
    1f0a:	66 90                	xchg   %ax,%ax
    1f0c:	66 90                	xchg   %ax,%ax
    1f0e:	66 90                	xchg   %ax,%ax

00001f10 <loc_cb_conn>:
    1f10:	55                   	push   %ebp
    1f11:	89 e5                	mov    %esp,%ebp
    1f13:	56                   	push   %esi
    1f14:	53                   	push   %ebx
    1f15:	83 ec 40             	sub    $0x40,%esp
    1f18:	8d 5d d4             	lea    -0x2c(%ebp),%ebx
    1f1b:	90                   	nop
    1f1c:	8d 74 26 00          	lea    0x0(%esi,%eiz,1),%esi
    1f20:	50                   	push   %eax
    1f21:	50                   	push   %eax
    1f22:	6a 00                	push   $0x0
    1f24:	53                   	push   %ebx
    1f25:	e8 a6 48 01 00       	call   167d0 <async_get_call_timeout>
    1f2a:	8b 55 d4             	mov    -0x2c(%ebp),%edx
    1f2d:	83 c4 10             	add    $0x10,%esp
    1f30:	85 d2                	test   %edx,%edx
    1f32:	74 54                	je     1f88 <loc_cb_conn+0x78>
    1f34:	81 fa 00 04 00 00    	cmp    $0x400,%edx
    1f3a:	75 3c                	jne    1f78 <loc_cb_conn+0x68>
    1f3c:	83 ec 0c             	sub    $0xc,%esp
    1f3f:	89 45 c4             	mov    %eax,-0x3c(%ebp)
    1f42:	68 c4 6e 02 00       	push   $0x26ec4
    1f47:	e8 c4 75 00 00       	call   9510 <fibril_mutex_lock>
    1f4c:	c7 04 24 c4 6e 02 00 	movl   $0x26ec4,(%esp)
    1f53:	8b 35 80 71 02 00    	mov    0x27180,%esi
    1f59:	e8 32 77 00 00       	call   9690 <fibril_mutex_unlock>
    1f5e:	59                   	pop    %ecx
    1f5f:	58                   	pop    %eax
    1f60:	8b 45 c4             	mov    -0x3c(%ebp),%eax
    1f63:	6a 00                	push   $0x0
    1f65:	50                   	push   %eax
    1f66:	e8 e5 60 01 00       	call   18050 <async_answer_0>
    1f6b:	83 c4 10             	add    $0x10,%esp
    1f6e:	85 f6                	test   %esi,%esi
    1f70:	74 ae                	je     1f20 <loc_cb_conn+0x10>
    1f72:	ff d6                	call   *%esi
    1f74:	eb aa                	jmp    1f20 <loc_cb_conn+0x10>
    1f76:	66 90                	xchg   %ax,%ax
    1f78:	52                   	push   %edx
    1f79:	52                   	push   %edx
    1f7a:	6a f5                	push   $0xfffffff5
    1f7c:	50                   	push   %eax
    1f7d:	e8 ce 60 01 00       	call   18050 <async_answer_0>
    1f82:	83 c4 10             	add    $0x10,%esp
    1f85:	eb 99                	jmp    1f20 <loc_cb_conn+0x10>
    1f87:	90                   	nop
    1f88:	8d 65 f8             	lea    -0x8(%ebp),%esp
    1f8b:	5b                   	pop    %ebx
    1f8c:	5e                   	pop    %esi
    1f8d:	5d                   	pop    %ebp
    1f8e:	c3                   	ret    
    1f8f:	90                   	nop

00001f90 <loc_get_ids_internal>:
    1f90:	55                   	push   %ebp
    1f91:	89 e5                	mov    %esp,%ebp
    1f93:	57                   	push   %edi
    1f94:	56                   	push   %esi
    1f95:	53                   	push   %ebx
    1f96:	83 ec 68             	sub    $0x68,%esp
    1f99:	89 45 ac             	mov    %eax,-0x54(%ebp)
    1f9c:	8b 45 08             	mov    0x8(%ebp),%eax
    1f9f:	c7 01 00 00 00 00    	movl   $0x0,(%ecx)
    1fa5:	89 55 a8             	mov    %edx,-0x58(%ebp)
    1fa8:	89 4d a4             	mov    %ecx,-0x5c(%ebp)
    1fab:	c7 00 00 00 00 00    	movl   $0x0,(%eax)
    1fb1:	68 f4 6e 02 00       	push   $0x26ef4
    1fb6:	e8 55 75 00 00       	call   9510 <fibril_mutex_lock>
    1fbb:	a1 78 71 02 00       	mov    0x27178,%eax
    1fc0:	83 c4 10             	add    $0x10,%esp
    1fc3:	85 c0                	test   %eax,%eax
    1fc5:	75 46                	jne    200d <loc_get_ids_internal+0x7d>
    1fc7:	83 ec 0c             	sub    $0xc,%esp
    1fca:	8b 1d 70 71 02 00    	mov    0x27170,%ebx
    1fd0:	68 d4 6e 02 00       	push   $0x26ed4
    1fd5:	e8 36 75 00 00       	call   9510 <fibril_mutex_lock>
    1fda:	a1 78 71 02 00       	mov    0x27178,%eax
    1fdf:	83 c4 10             	add    $0x10,%esp
    1fe2:	85 c0                	test   %eax,%eax
    1fe4:	75 0a                	jne    1ff0 <loc_get_ids_internal+0x60>
    1fe6:	85 db                	test   %ebx,%ebx
    1fe8:	74 06                	je     1ff0 <loc_get_ids_internal+0x60>
    1fea:	89 1d 78 71 02 00    	mov    %ebx,0x27178
    1ff0:	83 ec 0c             	sub    $0xc,%esp
    1ff3:	68 d4 6e 02 00       	push   $0x26ed4
    1ff8:	e8 93 76 00 00       	call   9690 <fibril_mutex_unlock>
    1ffd:	a1 78 71 02 00       	mov    0x27178,%eax
    2002:	83 c4 10             	add    $0x10,%esp
    2005:	85 c0                	test   %eax,%eax
    2007:	0f 84 43 02 00 00    	je     2250 <loc_get_ids_internal+0x2c0>
    200d:	83 ec 0c             	sub    $0xc,%esp
    2010:	68 f4 6e 02 00       	push   $0x26ef4
    2015:	e8 76 76 00 00       	call   9690 <fibril_mutex_unlock>
    201a:	c7 04 24 d4 6e 02 00 	movl   $0x26ed4,(%esp)
    2021:	8b 1d 78 71 02 00    	mov    0x27178,%ebx
    2027:	e8 e4 74 00 00       	call   9510 <fibril_mutex_lock>
    202c:	a1 70 71 02 00       	mov    0x27170,%eax
    2031:	83 c4 10             	add    $0x10,%esp
    2034:	85 c0                	test   %eax,%eax
    2036:	75 0a                	jne    2042 <loc_get_ids_internal+0xb2>
    2038:	85 db                	test   %ebx,%ebx
    203a:	74 06                	je     2042 <loc_get_ids_internal+0xb2>
    203c:	89 1d 70 71 02 00    	mov    %ebx,0x27170
    2042:	83 ec 0c             	sub    $0xc,%esp
    2045:	68 d4 6e 02 00       	push   $0x26ed4
    204a:	e8 41 76 00 00       	call   9690 <fibril_mutex_unlock>
    204f:	8b 35 78 71 02 00    	mov    0x27178,%esi
    2055:	5b                   	pop    %ebx
    2056:	56                   	push   %esi
    2057:	e8 44 6c 01 00       	call   18ca0 <async_exchange_begin>
    205c:	83 c4 0c             	add    $0xc,%esp
    205f:	89 c3                	mov    %eax,%ebx
    2061:	8d 45 c4             	lea    -0x3c(%ebp),%eax
    2064:	8b 7d a8             	mov    -0x58(%ebp),%edi
    2067:	50                   	push   %eax
    2068:	8b 45 ac             	mov    -0x54(%ebp),%eax
    206b:	6a 00                	push   $0x0
    206d:	6a 00                	push   $0x0
    206f:	6a 00                	push   $0x0
    2071:	57                   	push   %edi
    2072:	50                   	push   %eax
    2073:	53                   	push   %ebx
    2074:	e8 67 4f 01 00       	call   16fe0 <async_send_fast>
    2079:	83 c4 1c             	add    $0x1c,%esp
    207c:	89 c6                	mov    %eax,%esi
    207e:	6a 00                	push   $0x0
    2080:	6a 00                	push   $0x0
    2082:	53                   	push   %ebx
    2083:	e8 68 75 01 00       	call   195f0 <async_data_read_start>
    2088:	89 1c 24             	mov    %ebx,(%esp)
    208b:	89 45 b4             	mov    %eax,-0x4c(%ebp)
    208e:	e8 fd 6e 01 00       	call   18f90 <async_exchange_end>
    2093:	8b 45 b4             	mov    -0x4c(%ebp),%eax
    2096:	83 c4 10             	add    $0x10,%esp
    2099:	85 c0                	test   %eax,%eax
    209b:	0f 85 f3 01 00 00    	jne    2294 <loc_get_ids_internal+0x304>
    20a1:	8d 45 c0             	lea    -0x40(%ebp),%eax
    20a4:	51                   	push   %ecx
    20a5:	51                   	push   %ecx
    20a6:	50                   	push   %eax
    20a7:	56                   	push   %esi
    20a8:	e8 b3 50 01 00       	call   17160 <async_wait_for>
    20ad:	8b 45 c0             	mov    -0x40(%ebp),%eax
    20b0:	83 c4 10             	add    $0x10,%esp
    20b3:	85 c0                	test   %eax,%eax
    20b5:	0f 85 8a 01 00 00    	jne    2245 <loc_get_ids_internal+0x2b5>
    20bb:	83 ec 0c             	sub    $0xc,%esp
    20be:	8b 75 c8             	mov    -0x38(%ebp),%esi
    20c1:	56                   	push   %esi
    20c2:	e8 29 1a 01 00       	call   13af0 <malloc>
    20c7:	83 c4 10             	add    $0x10,%esp
    20ca:	89 c3                	mov    %eax,%ebx
    20cc:	85 c0                	test   %eax,%eax
    20ce:	0f 85 e4 00 00 00    	jne    21b8 <loc_get_ids_internal+0x228>
    20d4:	e9 cc 01 00 00       	jmp    22a5 <loc_get_ids_internal+0x315>
    20d9:	8d b4 26 00 00 00 00 	lea    0x0(%esi,%eiz,1),%esi
    20e0:	83 ec 0c             	sub    $0xc,%esp
    20e3:	68 f4 6e 02 00       	push   $0x26ef4
    20e8:	e8 a3 75 00 00       	call   9690 <fibril_mutex_unlock>
    20ed:	c7 04 24 d4 6e 02 00 	movl   $0x26ed4,(%esp)
    20f4:	8b 3d 78 71 02 00    	mov    0x27178,%edi
    20fa:	e8 11 74 00 00       	call   9510 <fibril_mutex_lock>
    20ff:	a1 70 71 02 00       	mov    0x27170,%eax
    2104:	83 c4 10             	add    $0x10,%esp
    2107:	85 c0                	test   %eax,%eax
    2109:	75 0a                	jne    2115 <loc_get_ids_internal+0x185>
    210b:	85 ff                	test   %edi,%edi
    210d:	74 06                	je     2115 <loc_get_ids_internal+0x185>
    210f:	89 3d 70 71 02 00    	mov    %edi,0x27170
    2115:	83 ec 0c             	sub    $0xc,%esp
    2118:	68 d4 6e 02 00       	push   $0x26ed4
    211d:	e8 6e 75 00 00       	call   9690 <fibril_mutex_unlock>
    2122:	a1 78 71 02 00       	mov    0x27178,%eax
    2127:	5f                   	pop    %edi
    2128:	50                   	push   %eax
    2129:	e8 72 6b 01 00       	call   18ca0 <async_exchange_begin>
    212e:	83 c4 0c             	add    $0xc,%esp
    2131:	89 c7                	mov    %eax,%edi
    2133:	8d 45 c4             	lea    -0x3c(%ebp),%eax
    2136:	50                   	push   %eax
    2137:	8b 45 a8             	mov    -0x58(%ebp),%eax
    213a:	6a 00                	push   $0x0
    213c:	6a 00                	push   $0x0
    213e:	6a 00                	push   $0x0
    2140:	50                   	push   %eax
    2141:	8b 45 ac             	mov    -0x54(%ebp),%eax
    2144:	50                   	push   %eax
    2145:	57                   	push   %edi
    2146:	e8 95 4e 01 00       	call   16fe0 <async_send_fast>
    214b:	83 c4 1c             	add    $0x1c,%esp
    214e:	89 45 b0             	mov    %eax,-0x50(%ebp)
    2151:	56                   	push   %esi
    2152:	53                   	push   %ebx
    2153:	57                   	push   %edi
    2154:	e8 97 74 01 00       	call   195f0 <async_data_read_start>
    2159:	89 3c 24             	mov    %edi,(%esp)
    215c:	89 45 b4             	mov    %eax,-0x4c(%ebp)
    215f:	e8 2c 6e 01 00       	call   18f90 <async_exchange_end>
    2164:	8b 45 b4             	mov    -0x4c(%ebp),%eax
    2167:	83 c4 10             	add    $0x10,%esp
    216a:	85 c0                	test   %eax,%eax
    216c:	0f 85 fe 00 00 00    	jne    2270 <loc_get_ids_internal+0x2e0>
    2172:	89 45 b4             	mov    %eax,-0x4c(%ebp)
    2175:	8b 4d b0             	mov    -0x50(%ebp),%ecx
    2178:	8d 45 c0             	lea    -0x40(%ebp),%eax
    217b:	52                   	push   %edx
    217c:	52                   	push   %edx
    217d:	50                   	push   %eax
    217e:	51                   	push   %ecx
    217f:	e8 dc 4f 01 00       	call   17160 <async_wait_for>
    2184:	8b 55 c0             	mov    -0x40(%ebp),%edx
    2187:	83 c4 10             	add    $0x10,%esp
    218a:	8b 45 b4             	mov    -0x4c(%ebp),%eax
    218d:	85 d2                	test   %edx,%edx
    218f:	0f 85 fb 00 00 00    	jne    2290 <loc_get_ids_internal+0x300>
    2195:	8b 7d c8             	mov    -0x38(%ebp),%edi
    2198:	39 fe                	cmp    %edi,%esi
    219a:	0f 83 98 00 00 00    	jae    2238 <loc_get_ids_internal+0x2a8>
    21a0:	50                   	push   %eax
    21a1:	50                   	push   %eax
    21a2:	57                   	push   %edi
    21a3:	53                   	push   %ebx
    21a4:	e8 07 21 01 00       	call   142b0 <realloc>
    21a9:	89 fe                	mov    %edi,%esi
    21ab:	83 c4 10             	add    $0x10,%esp
    21ae:	89 c3                	mov    %eax,%ebx
    21b0:	85 c0                	test   %eax,%eax
    21b2:	0f 84 ed 00 00 00    	je     22a5 <loc_get_ids_internal+0x315>
    21b8:	83 ec 0c             	sub    $0xc,%esp
    21bb:	68 f4 6e 02 00       	push   $0x26ef4
    21c0:	e8 4b 73 00 00       	call   9510 <fibril_mutex_lock>
    21c5:	a1 78 71 02 00       	mov    0x27178,%eax
    21ca:	83 c4 10             	add    $0x10,%esp
    21cd:	85 c0                	test   %eax,%eax
    21cf:	0f 85 0b ff ff ff    	jne    20e0 <loc_get_ids_internal+0x150>
    21d5:	83 ec 0c             	sub    $0xc,%esp
    21d8:	8b 3d 70 71 02 00    	mov    0x27170,%edi
    21de:	68 d4 6e 02 00       	push   $0x26ed4
    21e3:	e8 28 73 00 00       	call   9510 <fibril_mutex_lock>
    21e8:	8b 15 78 71 02 00    	mov    0x27178,%edx
    21ee:	83 c4 10             	add    $0x10,%esp
    21f1:	85 d2                	test   %edx,%edx
    21f3:	75 0a                	jne    21ff <loc_get_ids_internal+0x26f>
    21f5:	85 ff                	test   %edi,%edi
    21f7:	74 06                	je     21ff <loc_get_ids_internal+0x26f>
    21f9:	89 3d 78 71 02 00    	mov    %edi,0x27178
    21ff:	83 ec 0c             	sub    $0xc,%esp
    2202:	68 d4 6e 02 00       	push   $0x26ed4
    2207:	e8 84 74 00 00       	call   9690 <fibril_mutex_unlock>
    220c:	a1 78 71 02 00       	mov    0x27178,%eax
    2211:	83 c4 10             	add    $0x10,%esp
    2214:	85 c0                	test   %eax,%eax
    2216:	0f 85 c4 fe ff ff    	jne    20e0 <loc_get_ids_internal+0x150>
    221c:	50                   	push   %eax
    221d:	6a 00                	push   $0x0
    221f:	68 c1 7e 8f c7       	push   $0xc78f7ec1
    2224:	68 6c 6f 63 20       	push   $0x20636f6c
    2229:	e8 22 2e 01 00       	call   15050 <service_connect_blocking>
    222e:	83 c4 10             	add    $0x10,%esp
    2231:	a3 78 71 02 00       	mov    %eax,0x27178
    2236:	eb 95                	jmp    21cd <loc_get_ids_internal+0x23d>
    2238:	c1 ef 02             	shr    $0x2,%edi
    223b:	8b 4d 08             	mov    0x8(%ebp),%ecx
    223e:	89 39                	mov    %edi,(%ecx)
    2240:	8b 4d a4             	mov    -0x5c(%ebp),%ecx
    2243:	89 19                	mov    %ebx,(%ecx)
    2245:	8d 65 f4             	lea    -0xc(%ebp),%esp
    2248:	5b                   	pop    %ebx
    2249:	5e                   	pop    %esi
    224a:	5f                   	pop    %edi
    224b:	5d                   	pop    %ebp
    224c:	c3                   	ret    
    224d:	8d 76 00             	lea    0x0(%esi),%esi
    2250:	50                   	push   %eax
    2251:	6a 00                	push   $0x0
    2253:	68 c1 7e 8f c7       	push   $0xc78f7ec1
    2258:	68 6c 6f 63 20       	push   $0x20636f6c
    225d:	e8 ee 2d 01 00       	call   15050 <service_connect_blocking>
    2262:	83 c4 10             	add    $0x10,%esp
    2265:	a3 78 71 02 00       	mov    %eax,0x27178
    226a:	e9 54 fd ff ff       	jmp    1fc3 <loc_get_ids_internal+0x33>
    226f:	90                   	nop
    2270:	83 ec 0c             	sub    $0xc,%esp
    2273:	8b 5d b0             	mov    -0x50(%ebp),%ebx
    2276:	53                   	push   %ebx
    2277:	e8 b4 55 01 00       	call   17830 <async_forget>
    227c:	8b 45 b4             	mov    -0x4c(%ebp),%eax
    227f:	83 c4 10             	add    $0x10,%esp
    2282:	8d 65 f4             	lea    -0xc(%ebp),%esp
    2285:	5b                   	pop    %ebx
    2286:	5e                   	pop    %esi
    2287:	5f                   	pop    %edi
    2288:	5d                   	pop    %ebp
    2289:	c3                   	ret    
    228a:	8d b6 00 00 00 00    	lea    0x0(%esi),%esi
    2290:	89 d0                	mov    %edx,%eax
    2292:	eb b1                	jmp    2245 <loc_get_ids_internal+0x2b5>
    2294:	83 ec 0c             	sub    $0xc,%esp
    2297:	56                   	push   %esi
    2298:	e8 93 55 01 00       	call   17830 <async_forget>
    229d:	83 c4 10             	add    $0x10,%esp
    22a0:	8b 45 b4             	mov    -0x4c(%ebp),%eax
    22a3:	eb a0                	jmp    2245 <loc_get_ids_internal+0x2b5>
    22a5:	b8 fe ff ff ff       	mov    $0xfffffffe,%eax
    22aa:	eb 99                	jmp    2245 <loc_get_ids_internal+0x2b5>
    22ac:	8d 74 26 00          	lea    0x0(%esi,%eiz,1),%esi

000022b0 <loc_get_name_internal>:
    22b0:	55                   	push   %ebp
    22b1:	89 e5                	mov    %esp,%ebp
    22b3:	57                   	push   %edi
    22b4:	56                   	push   %esi
    22b5:	53                   	push   %ebx
    22b6:	81 ec 78 01 00 00    	sub    $0x178,%esp
    22bc:	c7 01 00 00 00 00    	movl   $0x0,(%ecx)
    22c2:	89 c6                	mov    %eax,%esi
    22c4:	89 d7                	mov    %edx,%edi
    22c6:	68 f4 6e 02 00       	push   $0x26ef4
    22cb:	89 8d 94 fe ff ff    	mov    %ecx,-0x16c(%ebp)
    22d1:	e8 3a 72 00 00       	call   9510 <fibril_mutex_lock>
    22d6:	a1 78 71 02 00       	mov    0x27178,%eax
    22db:	83 c4 10             	add    $0x10,%esp
    22de:	85 c0                	test   %eax,%eax
    22e0:	75 46                	jne    2328 <loc_get_name_internal+0x78>
    22e2:	83 ec 0c             	sub    $0xc,%esp
    22e5:	8b 1d 70 71 02 00    	mov    0x27170,%ebx
    22eb:	68 d4 6e 02 00       	push   $0x26ed4
    22f0:	e8 1b 72 00 00       	call   9510 <fibril_mutex_lock>
    22f5:	a1 78 71 02 00       	mov    0x27178,%eax
    22fa:	83 c4 10             	add    $0x10,%esp
    22fd:	85 c0                	test   %eax,%eax
    22ff:	75 0a                	jne    230b <loc_get_name_internal+0x5b>
    2301:	85 db                	test   %ebx,%ebx
    2303:	74 06                	je     230b <loc_get_name_internal+0x5b>
    2305:	89 1d 78 71 02 00    	mov    %ebx,0x27178
    230b:	83 ec 0c             	sub    $0xc,%esp
    230e:	68 d4 6e 02 00       	push   $0x26ed4
    2313:	e8 78 73 00 00       	call   9690 <fibril_mutex_unlock>
    2318:	a1 78 71 02 00       	mov    0x27178,%eax
    231d:	83 c4 10             	add    $0x10,%esp
    2320:	85 c0                	test   %eax,%eax
    2322:	0f 84 00 01 00 00    	je     2428 <loc_get_name_internal+0x178>
    2328:	83 ec 0c             	sub    $0xc,%esp
    232b:	68 f4 6e 02 00       	push   $0x26ef4
    2330:	e8 5b 73 00 00       	call   9690 <fibril_mutex_unlock>
    2335:	c7 04 24 d4 6e 02 00 	movl   $0x26ed4,(%esp)
    233c:	8b 1d 78 71 02 00    	mov    0x27178,%ebx
    2342:	e8 c9 71 00 00       	call   9510 <fibril_mutex_lock>
    2347:	a1 70 71 02 00       	mov    0x27170,%eax
    234c:	83 c4 10             	add    $0x10,%esp
    234f:	85 c0                	test   %eax,%eax
    2351:	75 0a                	jne    235d <loc_get_name_internal+0xad>
    2353:	85 db                	test   %ebx,%ebx
    2355:	74 06                	je     235d <loc_get_name_internal+0xad>
    2357:	89 1d 70 71 02 00    	mov    %ebx,0x27170
    235d:	83 ec 0c             	sub    $0xc,%esp
    2360:	68 d4 6e 02 00       	push   $0x26ed4
    2365:	e8 26 73 00 00       	call   9690 <fibril_mutex_unlock>
    236a:	8b 1d 78 71 02 00    	mov    0x27178,%ebx
    2370:	59                   	pop    %ecx
    2371:	53                   	push   %ebx
    2372:	e8 29 69 01 00       	call   18ca0 <async_exchange_begin>
    2377:	83 c4 0c             	add    $0xc,%esp
    237a:	89 c3                	mov    %eax,%ebx
    237c:	8d 85 c4 fe ff ff    	lea    -0x13c(%ebp),%eax
    2382:	50                   	push   %eax
    2383:	6a 00                	push   $0x0
    2385:	6a 00                	push   $0x0
    2387:	6a 00                	push   $0x0
    2389:	57                   	push   %edi
    238a:	56                   	push   %esi
    238b:	53                   	push   %ebx
    238c:	e8 4f 4c 01 00       	call   16fe0 <async_send_fast>
    2391:	83 c4 20             	add    $0x20,%esp
    2394:	89 c7                	mov    %eax,%edi
    2396:	8d b5 e8 fe ff ff    	lea    -0x118(%ebp),%esi
    239c:	8d 85 a0 fe ff ff    	lea    -0x160(%ebp),%eax
    23a2:	50                   	push   %eax
    23a3:	68 ff 00 00 00       	push   $0xff
    23a8:	56                   	push   %esi
    23a9:	53                   	push   %ebx
    23aa:	e8 81 71 01 00       	call   19530 <async_data_read>
    23af:	5a                   	pop    %edx
    23b0:	59                   	pop    %ecx
    23b1:	8d 8d 98 fe ff ff    	lea    -0x168(%ebp),%ecx
    23b7:	51                   	push   %ecx
    23b8:	50                   	push   %eax
    23b9:	e8 a2 4d 01 00       	call   17160 <async_wait_for>
    23be:	89 1c 24             	mov    %ebx,(%esp)
    23c1:	e8 ca 6b 01 00       	call   18f90 <async_exchange_end>
    23c6:	8b 9d 98 fe ff ff    	mov    -0x168(%ebp),%ebx
    23cc:	83 c4 10             	add    $0x10,%esp
    23cf:	85 db                	test   %ebx,%ebx
    23d1:	75 75                	jne    2448 <loc_get_name_internal+0x198>
    23d3:	8d 85 9c fe ff ff    	lea    -0x164(%ebp),%eax
    23d9:	52                   	push   %edx
    23da:	52                   	push   %edx
    23db:	50                   	push   %eax
    23dc:	57                   	push   %edi
    23dd:	e8 7e 4d 01 00       	call   17160 <async_wait_for>
    23e2:	8b 85 9c fe ff ff    	mov    -0x164(%ebp),%eax
    23e8:	83 c4 10             	add    $0x10,%esp
    23eb:	85 c0                	test   %eax,%eax
    23ed:	75 31                	jne    2420 <loc_get_name_internal+0x170>
    23ef:	8b 85 a8 fe ff ff    	mov    -0x158(%ebp),%eax
    23f5:	3d ff 00 00 00       	cmp    $0xff,%eax
    23fa:	77 66                	ja     2462 <loc_get_name_internal+0x1b2>
    23fc:	83 ec 0c             	sub    $0xc,%esp
    23ff:	c6 84 05 e8 fe ff ff 	movb   $0x0,-0x118(%ebp,%eax,1)
    2406:	00 
    2407:	56                   	push   %esi
    2408:	e8 f3 4a 00 00       	call   6f00 <str_dup>
    240d:	8b 95 94 fe ff ff    	mov    -0x16c(%ebp),%edx
    2413:	83 c4 10             	add    $0x10,%esp
    2416:	83 f8 01             	cmp    $0x1,%eax
    2419:	89 02                	mov    %eax,(%edx)
    241b:	19 c0                	sbb    %eax,%eax
    241d:	83 e0 fe             	and    $0xfffffffe,%eax
    2420:	8d 65 f4             	lea    -0xc(%ebp),%esp
    2423:	5b                   	pop    %ebx
    2424:	5e                   	pop    %esi
    2425:	5f                   	pop    %edi
    2426:	5d                   	pop    %ebp
    2427:	c3                   	ret    
    2428:	50                   	push   %eax
    2429:	6a 00                	push   $0x0
    242b:	68 c1 7e 8f c7       	push   $0xc78f7ec1
    2430:	68 6c 6f 63 20       	push   $0x20636f6c
    2435:	e8 16 2c 01 00       	call   15050 <service_connect_blocking>
    243a:	83 c4 10             	add    $0x10,%esp
    243d:	a3 78 71 02 00       	mov    %eax,0x27178
    2442:	e9 97 fe ff ff       	jmp    22de <loc_get_name_internal+0x2e>
    2447:	90                   	nop
    2448:	83 ec 0c             	sub    $0xc,%esp
    244b:	57                   	push   %edi
    244c:	e8 df 53 01 00       	call   17830 <async_forget>
    2451:	8b 85 98 fe ff ff    	mov    -0x168(%ebp),%eax
    2457:	83 c4 10             	add    $0x10,%esp
    245a:	8d 65 f4             	lea    -0xc(%ebp),%esp
    245d:	5b                   	pop    %ebx
    245e:	5e                   	pop    %esi
    245f:	5f                   	pop    %edi
    2460:	5d                   	pop    %ebp
    2461:	c3                   	ret    
    2462:	50                   	push   %eax
    2463:	68 8d 01 00 00       	push   $0x18d
    2468:	68 b8 37 02 00       	push   $0x237b8
    246d:	68 c6 37 02 00       	push   $0x237c6
    2472:	e8 c9 da 01 00       	call   1ff40 <assert_abort>
    2477:	89 f6                	mov    %esi,%esi
    2479:	8d bc 27 00 00 00 00 	lea    0x0(%edi,%eiz,1),%edi

00002480 <loc_exchange_begin_blocking>:
    2480:	55                   	push   %ebp
    2481:	89 e5                	mov    %esp,%ebp
    2483:	53                   	push   %ebx
    2484:	50                   	push   %eax
    2485:	8b 45 08             	mov    0x8(%ebp),%eax
    2488:	3d c1 7e 8f c7       	cmp    $0xc78f7ec1,%eax
    248d:	0f 84 cd 00 00 00    	je     2560 <loc_exchange_begin_blocking+0xe0>
    2493:	3d c1 7e 8f e7       	cmp    $0xe78f7ec1,%eax
    2498:	0f 85 ba 00 00 00    	jne    2558 <loc_exchange_begin_blocking+0xd8>
    249e:	83 ec 0c             	sub    $0xc,%esp
    24a1:	68 04 6f 02 00       	push   $0x26f04
    24a6:	e8 65 70 00 00       	call   9510 <fibril_mutex_lock>
    24ab:	a1 7c 71 02 00       	mov    0x2717c,%eax
    24b0:	83 c4 10             	add    $0x10,%esp
    24b3:	85 c0                	test   %eax,%eax
    24b5:	75 46                	jne    24fd <loc_exchange_begin_blocking+0x7d>
    24b7:	83 ec 0c             	sub    $0xc,%esp
    24ba:	8b 1d 74 71 02 00    	mov    0x27174,%ebx
    24c0:	68 e4 6e 02 00       	push   $0x26ee4
    24c5:	e8 46 70 00 00       	call   9510 <fibril_mutex_lock>
    24ca:	a1 7c 71 02 00       	mov    0x2717c,%eax
    24cf:	83 c4 10             	add    $0x10,%esp
    24d2:	85 c0                	test   %eax,%eax
    24d4:	75 0a                	jne    24e0 <loc_exchange_begin_blocking+0x60>
    24d6:	85 db                	test   %ebx,%ebx
    24d8:	74 06                	je     24e0 <loc_exchange_begin_blocking+0x60>
    24da:	89 1d 7c 71 02 00    	mov    %ebx,0x2717c
    24e0:	83 ec 0c             	sub    $0xc,%esp
    24e3:	68 e4 6e 02 00       	push   $0x26ee4
    24e8:	e8 a3 71 00 00       	call   9690 <fibril_mutex_unlock>
    24ed:	a1 7c 71 02 00       	mov    0x2717c,%eax
    24f2:	83 c4 10             	add    $0x10,%esp
    24f5:	85 c0                	test   %eax,%eax
    24f7:	0f 84 1b 01 00 00    	je     2618 <loc_exchange_begin_blocking+0x198>
    24fd:	83 ec 0c             	sub    $0xc,%esp
    2500:	68 04 6f 02 00       	push   $0x26f04
    2505:	e8 86 71 00 00       	call   9690 <fibril_mutex_unlock>
    250a:	c7 04 24 e4 6e 02 00 	movl   $0x26ee4,(%esp)
    2511:	8b 1d 7c 71 02 00    	mov    0x2717c,%ebx
    2517:	e8 f4 6f 00 00       	call   9510 <fibril_mutex_lock>
    251c:	a1 74 71 02 00       	mov    0x27174,%eax
    2521:	83 c4 10             	add    $0x10,%esp
    2524:	85 c0                	test   %eax,%eax
    2526:	75 0a                	jne    2532 <loc_exchange_begin_blocking+0xb2>
    2528:	85 db                	test   %ebx,%ebx
    252a:	74 06                	je     2532 <loc_exchange_begin_blocking+0xb2>
    252c:	89 1d 74 71 02 00    	mov    %ebx,0x27174
    2532:	83 ec 0c             	sub    $0xc,%esp
    2535:	68 e4 6e 02 00       	push   $0x26ee4
    253a:	e8 51 71 00 00       	call   9690 <fibril_mutex_unlock>
    253f:	a1 7c 71 02 00       	mov    0x2717c,%eax
    2544:	83 c4 10             	add    $0x10,%esp
    2547:	8b 5d fc             	mov    -0x4(%ebp),%ebx
    254a:	89 45 08             	mov    %eax,0x8(%ebp)
    254d:	c9                   	leave  
    254e:	e9 4d 67 01 00       	jmp    18ca0 <async_exchange_begin>
    2553:	90                   	nop
    2554:	8d 74 26 00          	lea    0x0(%esi,%eiz,1),%esi
    2558:	31 c0                	xor    %eax,%eax
    255a:	8b 5d fc             	mov    -0x4(%ebp),%ebx
    255d:	c9                   	leave  
    255e:	c3                   	ret    
    255f:	90                   	nop
    2560:	83 ec 0c             	sub    $0xc,%esp
    2563:	68 f4 6e 02 00       	push   $0x26ef4
    2568:	e8 a3 6f 00 00       	call   9510 <fibril_mutex_lock>
    256d:	a1 78 71 02 00       	mov    0x27178,%eax
    2572:	83 c4 10             	add    $0x10,%esp
    2575:	85 c0                	test   %eax,%eax
    2577:	75 43                	jne    25bc <loc_exchange_begin_blocking+0x13c>
    2579:	83 ec 0c             	sub    $0xc,%esp
    257c:	8b 1d 70 71 02 00    	mov    0x27170,%ebx
    2582:	68 d4 6e 02 00       	push   $0x26ed4
    2587:	e8 84 6f 00 00       	call   9510 <fibril_mutex_lock>
    258c:	a1 78 71 02 00       	mov    0x27178,%eax
    2591:	83 c4 10             	add    $0x10,%esp
    2594:	85 c0                	test   %eax,%eax
    2596:	75 0a                	jne    25a2 <loc_exchange_begin_blocking+0x122>
    2598:	85 db                	test   %ebx,%ebx
    259a:	74 06                	je     25a2 <loc_exchange_begin_blocking+0x122>
    259c:	89 1d 78 71 02 00    	mov    %ebx,0x27178
    25a2:	83 ec 0c             	sub    $0xc,%esp
    25a5:	68 d4 6e 02 00       	push   $0x26ed4
    25aa:	e8 e1 70 00 00       	call   9690 <fibril_mutex_unlock>
    25af:	8b 0d 78 71 02 00    	mov    0x27178,%ecx
    25b5:	83 c4 10             	add    $0x10,%esp
    25b8:	85 c9                	test   %ecx,%ecx
    25ba:	74 7c                	je     2638 <loc_exchange_begin_blocking+0x1b8>
    25bc:	83 ec 0c             	sub    $0xc,%esp
    25bf:	68 f4 6e 02 00       	push   $0x26ef4
    25c4:	e8 c7 70 00 00       	call   9690 <fibril_mutex_unlock>
    25c9:	c7 04 24 d4 6e 02 00 	movl   $0x26ed4,(%esp)
    25d0:	8b 1d 78 71 02 00    	mov    0x27178,%ebx
    25d6:	e8 35 6f 00 00       	call   9510 <fibril_mutex_lock>
    25db:	a1 70 71 02 00       	mov    0x27170,%eax
    25e0:	83 c4 10             	add    $0x10,%esp
    25e3:	85 c0                	test   %eax,%eax
    25e5:	75 0a                	jne    25f1 <loc_exchange_begin_blocking+0x171>
    25e7:	85 db                	test   %ebx,%ebx
    25e9:	74 06                	je     25f1 <loc_exchange_begin_blocking+0x171>
    25eb:	89 1d 70 71 02 00    	mov    %ebx,0x27170
    25f1:	83 ec 0c             	sub    $0xc,%esp
    25f4:	68 d4 6e 02 00       	push   $0x26ed4
    25f9:	e8 92 70 00 00       	call   9690 <fibril_mutex_unlock>
    25fe:	a1 78 71 02 00       	mov    0x27178,%eax
    2603:	83 c4 10             	add    $0x10,%esp
    2606:	8b 5d fc             	mov    -0x4(%ebp),%ebx
    2609:	89 45 08             	mov    %eax,0x8(%ebp)
    260c:	c9                   	leave  
    260d:	e9 8e 66 01 00       	jmp    18ca0 <async_exchange_begin>
    2612:	8d b6 00 00 00 00    	lea    0x0(%esi),%esi
    2618:	50                   	push   %eax
    2619:	6a 00                	push   $0x0
    261b:	68 c1 7e 8f e7       	push   $0xe78f7ec1
    2620:	68 6c 6f 63 20       	push   $0x20636f6c
    2625:	e8 26 2a 01 00       	call   15050 <service_connect_blocking>
    262a:	83 c4 10             	add    $0x10,%esp
    262d:	a3 7c 71 02 00       	mov    %eax,0x2717c
    2632:	e9 7c fe ff ff       	jmp    24b3 <loc_exchange_begin_blocking+0x33>
    2637:	90                   	nop
    2638:	52                   	push   %edx
    2639:	6a 00                	push   $0x0
    263b:	68 c1 7e 8f c7       	push   $0xc78f7ec1
    2640:	68 6c 6f 63 20       	push   $0x20636f6c
    2645:	e8 06 2a 01 00       	call   15050 <service_connect_blocking>
    264a:	83 c4 10             	add    $0x10,%esp
    264d:	a3 78 71 02 00       	mov    %eax,0x27178
    2652:	e9 1e ff ff ff       	jmp    2575 <loc_exchange_begin_blocking+0xf5>
    2657:	89 f6                	mov    %esi,%esi
    2659:	8d bc 27 00 00 00 00 	lea    0x0(%edi,%eiz,1),%edi

00002660 <loc_exchange_begin>:
    2660:	55                   	push   %ebp
    2661:	89 e5                	mov    %esp,%ebp
    2663:	83 ec 08             	sub    $0x8,%esp
    2666:	8b 45 08             	mov    0x8(%ebp),%eax
    2669:	3d c1 7e 8f c7       	cmp    $0xc78f7ec1,%eax
    266e:	74 48                	je     26b8 <loc_exchange_begin+0x58>
    2670:	3d c1 7e 8f e7       	cmp    $0xe78f7ec1,%eax
    2675:	75 74                	jne    26eb <loc_exchange_begin+0x8b>
    2677:	83 ec 0c             	sub    $0xc,%esp
    267a:	68 e4 6e 02 00       	push   $0x26ee4
    267f:	e8 8c 6e 00 00       	call   9510 <fibril_mutex_lock>
    2684:	a1 74 71 02 00       	mov    0x27174,%eax
    2689:	83 c4 10             	add    $0x10,%esp
    268c:	85 c0                	test   %eax,%eax
    268e:	74 60                	je     26f0 <loc_exchange_begin+0x90>
    2690:	83 ec 0c             	sub    $0xc,%esp
    2693:	68 e4 6e 02 00       	push   $0x26ee4
    2698:	e8 f3 6f 00 00       	call   9690 <fibril_mutex_unlock>
    269d:	a1 74 71 02 00       	mov    0x27174,%eax
    26a2:	83 c4 10             	add    $0x10,%esp
    26a5:	85 c0                	test   %eax,%eax
    26a7:	74 42                	je     26eb <loc_exchange_begin+0x8b>
    26a9:	89 45 08             	mov    %eax,0x8(%ebp)
    26ac:	c9                   	leave  
    26ad:	e9 ee 65 01 00       	jmp    18ca0 <async_exchange_begin>
    26b2:	8d b6 00 00 00 00    	lea    0x0(%esi),%esi
    26b8:	83 ec 0c             	sub    $0xc,%esp
    26bb:	68 d4 6e 02 00       	push   $0x26ed4
    26c0:	e8 4b 6e 00 00       	call   9510 <fibril_mutex_lock>
    26c5:	8b 15 70 71 02 00    	mov    0x27170,%edx
    26cb:	83 c4 10             	add    $0x10,%esp
    26ce:	85 d2                	test   %edx,%edx
    26d0:	74 3e                	je     2710 <loc_exchange_begin+0xb0>
    26d2:	83 ec 0c             	sub    $0xc,%esp
    26d5:	68 d4 6e 02 00       	push   $0x26ed4
    26da:	e8 b1 6f 00 00       	call   9690 <fibril_mutex_unlock>
    26df:	a1 70 71 02 00       	mov    0x27170,%eax
    26e4:	83 c4 10             	add    $0x10,%esp
    26e7:	85 c0                	test   %eax,%eax
    26e9:	75 be                	jne    26a9 <loc_exchange_begin+0x49>
    26eb:	31 c0                	xor    %eax,%eax
    26ed:	c9                   	leave  
    26ee:	c3                   	ret    
    26ef:	90                   	nop
    26f0:	51                   	push   %ecx
    26f1:	6a 00                	push   $0x0
    26f3:	68 c1 7e 8f e7       	push   $0xe78f7ec1
    26f8:	68 6c 6f 63 20       	push   $0x20636f6c
    26fd:	e8 de 28 01 00       	call   14fe0 <service_connect>
    2702:	83 c4 10             	add    $0x10,%esp
    2705:	a3 74 71 02 00       	mov    %eax,0x27174
    270a:	eb 84                	jmp    2690 <loc_exchange_begin+0x30>
    270c:	8d 74 26 00          	lea    0x0(%esi,%eiz,1),%esi
    2710:	50                   	push   %eax
    2711:	6a 00                	push   $0x0
    2713:	68 c1 7e 8f c7       	push   $0xc78f7ec1
    2718:	68 6c 6f 63 20       	push   $0x20636f6c
    271d:	e8 be 28 01 00       	call   14fe0 <service_connect>
    2722:	83 c4 10             	add    $0x10,%esp
    2725:	a3 70 71 02 00       	mov    %eax,0x27170
    272a:	eb a6                	jmp    26d2 <loc_exchange_begin+0x72>
    272c:	8d 74 26 00          	lea    0x0(%esi,%eiz,1),%esi

00002730 <loc_exchange_end>:
    2730:	55                   	push   %ebp
    2731:	89 e5                	mov    %esp,%ebp
    2733:	5d                   	pop    %ebp
    2734:	e9 57 68 01 00       	jmp    18f90 <async_exchange_end>
    2739:	8d b4 26 00 00 00 00 	lea    0x0(%esi,%eiz,1),%esi

00002740 <loc_server_register>:
    2740:	55                   	push   %ebp
    2741:	89 e5                	mov    %esp,%ebp
    2743:	57                   	push   %edi
    2744:	56                   	push   %esi
    2745:	53                   	push   %ebx
    2746:	83 ec 48             	sub    $0x48,%esp
    2749:	8b 75 08             	mov    0x8(%ebp),%esi
    274c:	68 04 6f 02 00       	push   $0x26f04
    2751:	e8 ba 6d 00 00       	call   9510 <fibril_mutex_lock>
    2756:	a1 7c 71 02 00       	mov    0x2717c,%eax
    275b:	83 c4 10             	add    $0x10,%esp
    275e:	85 c0                	test   %eax,%eax
    2760:	75 46                	jne    27a8 <loc_server_register+0x68>
    2762:	83 ec 0c             	sub    $0xc,%esp
    2765:	8b 1d 74 71 02 00    	mov    0x27174,%ebx
    276b:	68 e4 6e 02 00       	push   $0x26ee4
    2770:	e8 9b 6d 00 00       	call   9510 <fibril_mutex_lock>
    2775:	a1 7c 71 02 00       	mov    0x2717c,%eax
    277a:	83 c4 10             	add    $0x10,%esp
    277d:	85 c0                	test   %eax,%eax
    277f:	75 0a                	jne    278b <loc_server_register+0x4b>
    2781:	85 db                	test   %ebx,%ebx
    2783:	74 06                	je     278b <loc_server_register+0x4b>
    2785:	89 1d 7c 71 02 00    	mov    %ebx,0x2717c
    278b:	83 ec 0c             	sub    $0xc,%esp
    278e:	68 e4 6e 02 00       	push   $0x26ee4
    2793:	e8 f8 6e 00 00       	call   9690 <fibril_mutex_unlock>
    2798:	a1 7c 71 02 00       	mov    0x2717c,%eax
    279d:	83 c4 10             	add    $0x10,%esp
    27a0:	85 c0                	test   %eax,%eax
    27a2:	0f 84 10 01 00 00    	je     28b8 <loc_server_register+0x178>
    27a8:	83 ec 0c             	sub    $0xc,%esp
    27ab:	68 04 6f 02 00       	push   $0x26f04
    27b0:	e8 db 6e 00 00       	call   9690 <fibril_mutex_unlock>
    27b5:	c7 04 24 e4 6e 02 00 	movl   $0x26ee4,(%esp)
    27bc:	8b 1d 7c 71 02 00    	mov    0x2717c,%ebx
    27c2:	e8 49 6d 00 00       	call   9510 <fibril_mutex_lock>
    27c7:	a1 74 71 02 00       	mov    0x27174,%eax
    27cc:	83 c4 10             	add    $0x10,%esp
    27cf:	85 c0                	test   %eax,%eax
    27d1:	75 0a                	jne    27dd <loc_server_register+0x9d>
    27d3:	85 db                	test   %ebx,%ebx
    27d5:	74 06                	je     27dd <loc_server_register+0x9d>
    27d7:	89 1d 74 71 02 00    	mov    %ebx,0x27174
    27dd:	83 ec 0c             	sub    $0xc,%esp
    27e0:	68 e4 6e 02 00       	push   $0x26ee4
    27e5:	e8 a6 6e 00 00       	call   9690 <fibril_mutex_unlock>
    27ea:	a1 7c 71 02 00       	mov    0x2717c,%eax
    27ef:	5f                   	pop    %edi
    27f0:	50                   	push   %eax
    27f1:	e8 aa 64 01 00       	call   18ca0 <async_exchange_begin>
    27f6:	83 c4 0c             	add    $0xc,%esp
    27f9:	89 c3                	mov    %eax,%ebx
    27fb:	8d 45 c4             	lea    -0x3c(%ebp),%eax
    27fe:	50                   	push   %eax
    27ff:	6a 00                	push   $0x0
    2801:	6a 00                	push   $0x0
    2803:	6a 00                	push   $0x0
    2805:	6a 00                	push   $0x0
    2807:	68 00 04 00 00       	push   $0x400
    280c:	53                   	push   %ebx
    280d:	e8 ce 47 01 00       	call   16fe0 <async_send_fast>
    2812:	83 c4 14             	add    $0x14,%esp
    2815:	89 c7                	mov    %eax,%edi
    2817:	56                   	push   %esi
    2818:	e8 33 21 00 00       	call   4950 <str_size>
    281d:	83 c4 0c             	add    $0xc,%esp
    2820:	50                   	push   %eax
    2821:	56                   	push   %esi
    2822:	53                   	push   %ebx
    2823:	e8 d8 71 01 00       	call   19a00 <async_data_write_start>
    2828:	89 1c 24             	mov    %ebx,(%esp)
    282b:	89 45 c0             	mov    %eax,-0x40(%ebp)
    282e:	e8 5d 67 01 00       	call   18f90 <async_exchange_end>
    2833:	8b 45 c0             	mov    -0x40(%ebp),%eax
    2836:	83 c4 10             	add    $0x10,%esp
    2839:	85 c0                	test   %eax,%eax
    283b:	0f 85 97 00 00 00    	jne    28d8 <loc_server_register+0x198>
    2841:	83 ec 0c             	sub    $0xc,%esp
    2844:	68 e4 6e 02 00       	push   $0x26ee4
    2849:	e8 c2 6c 00 00       	call   9510 <fibril_mutex_lock>
    284e:	8b 1d 74 71 02 00    	mov    0x27174,%ebx
    2854:	83 c4 10             	add    $0x10,%esp
    2857:	85 db                	test   %ebx,%ebx
    2859:	0f 84 90 00 00 00    	je     28ef <loc_server_register+0x1af>
    285f:	83 ec 0c             	sub    $0xc,%esp
    2862:	68 e4 6e 02 00       	push   $0x26ee4
    2867:	e8 24 6e 00 00       	call   9690 <fibril_mutex_unlock>
    286c:	a1 74 71 02 00       	mov    0x27174,%eax
    2871:	83 c4 10             	add    $0x10,%esp
    2874:	85 c0                	test   %eax,%eax
    2876:	0f 84 92 00 00 00    	je     290e <loc_server_register+0x1ce>
    287c:	83 ec 0c             	sub    $0xc,%esp
    287f:	50                   	push   %eax
    2880:	e8 1b 64 01 00       	call   18ca0 <async_exchange_begin>
    2885:	83 c4 10             	add    $0x10,%esp
    2888:	89 c3                	mov    %eax,%ebx
    288a:	6a 00                	push   $0x0
    288c:	6a 00                	push   $0x0
    288e:	6a 00                	push   $0x0
    2890:	53                   	push   %ebx
    2891:	e8 fa 58 01 00       	call   18190 <async_connect_to_me>
    2896:	89 1c 24             	mov    %ebx,(%esp)
    2899:	e8 f2 66 01 00       	call   18f90 <async_exchange_end>
    289e:	58                   	pop    %eax
    289f:	8d 45 c0             	lea    -0x40(%ebp),%eax
    28a2:	5a                   	pop    %edx
    28a3:	50                   	push   %eax
    28a4:	57                   	push   %edi
    28a5:	e8 b6 48 01 00       	call   17160 <async_wait_for>
    28aa:	8b 45 c0             	mov    -0x40(%ebp),%eax
    28ad:	83 c4 10             	add    $0x10,%esp
    28b0:	8d 65 f4             	lea    -0xc(%ebp),%esp
    28b3:	5b                   	pop    %ebx
    28b4:	5e                   	pop    %esi
    28b5:	5f                   	pop    %edi
    28b6:	5d                   	pop    %ebp
    28b7:	c3                   	ret    
    28b8:	50                   	push   %eax
    28b9:	6a 00                	push   $0x0
    28bb:	68 c1 7e 8f e7       	push   $0xe78f7ec1
    28c0:	68 6c 6f 63 20       	push   $0x20636f6c
    28c5:	e8 86 27 01 00       	call   15050 <service_connect_blocking>
    28ca:	83 c4 10             	add    $0x10,%esp
    28cd:	a3 7c 71 02 00       	mov    %eax,0x2717c
    28d2:	e9 87 fe ff ff       	jmp    275e <loc_server_register+0x1e>
    28d7:	90                   	nop
    28d8:	83 ec 0c             	sub    $0xc,%esp
    28db:	57                   	push   %edi
    28dc:	e8 4f 4f 01 00       	call   17830 <async_forget>
    28e1:	8b 45 c0             	mov    -0x40(%ebp),%eax
    28e4:	83 c4 10             	add    $0x10,%esp
    28e7:	8d 65 f4             	lea    -0xc(%ebp),%esp
    28ea:	5b                   	pop    %ebx
    28eb:	5e                   	pop    %esi
    28ec:	5f                   	pop    %edi
    28ed:	5d                   	pop    %ebp
    28ee:	c3                   	ret    
    28ef:	51                   	push   %ecx
    28f0:	6a 00                	push   $0x0
    28f2:	68 c1 7e 8f e7       	push   $0xe78f7ec1
    28f7:	68 6c 6f 63 20       	push   $0x20636f6c
    28fc:	e8 df 26 01 00       	call   14fe0 <service_connect>
    2901:	83 c4 10             	add    $0x10,%esp
    2904:	a3 74 71 02 00       	mov    %eax,0x27174
    2909:	e9 51 ff ff ff       	jmp    285f <loc_server_register+0x11f>
    290e:	31 db                	xor    %ebx,%ebx
    2910:	e9 75 ff ff ff       	jmp    288a <loc_server_register+0x14a>
    2915:	8d 74 26 00          	lea    0x0(%esi,%eiz,1),%esi
    2919:	8d bc 27 00 00 00 00 	lea    0x0(%edi,%eiz,1),%edi

00002920 <loc_service_register>:
    2920:	55                   	push   %ebp
    2921:	89 e5                	mov    %esp,%ebp
    2923:	57                   	push   %edi
    2924:	56                   	push   %esi
    2925:	53                   	push   %ebx
    2926:	83 ec 48             	sub    $0x48,%esp
    2929:	8b 75 08             	mov    0x8(%ebp),%esi
    292c:	68 04 6f 02 00       	push   $0x26f04
    2931:	e8 da 6b 00 00       	call   9510 <fibril_mutex_lock>
    2936:	a1 7c 71 02 00       	mov    0x2717c,%eax
    293b:	83 c4 10             	add    $0x10,%esp
    293e:	85 c0                	test   %eax,%eax
    2940:	75 46                	jne    2988 <loc_service_register+0x68>
    2942:	83 ec 0c             	sub    $0xc,%esp
    2945:	8b 1d 74 71 02 00    	mov    0x27174,%ebx
    294b:	68 e4 6e 02 00       	push   $0x26ee4
    2950:	e8 bb 6b 00 00       	call   9510 <fibril_mutex_lock>
    2955:	a1 7c 71 02 00       	mov    0x2717c,%eax
    295a:	83 c4 10             	add    $0x10,%esp
    295d:	85 c0                	test   %eax,%eax
    295f:	75 0a                	jne    296b <loc_service_register+0x4b>
    2961:	85 db                	test   %ebx,%ebx
    2963:	74 06                	je     296b <loc_service_register+0x4b>
    2965:	89 1d 7c 71 02 00    	mov    %ebx,0x2717c
    296b:	83 ec 0c             	sub    $0xc,%esp
    296e:	68 e4 6e 02 00       	push   $0x26ee4
    2973:	e8 18 6d 00 00       	call   9690 <fibril_mutex_unlock>
    2978:	a1 7c 71 02 00       	mov    0x2717c,%eax
    297d:	83 c4 10             	add    $0x10,%esp
    2980:	85 c0                	test   %eax,%eax
    2982:	0f 84 c8 00 00 00    	je     2a50 <loc_service_register+0x130>
    2988:	83 ec 0c             	sub    $0xc,%esp
    298b:	68 04 6f 02 00       	push   $0x26f04
    2990:	e8 fb 6c 00 00       	call   9690 <fibril_mutex_unlock>
    2995:	c7 04 24 e4 6e 02 00 	movl   $0x26ee4,(%esp)
    299c:	8b 1d 7c 71 02 00    	mov    0x2717c,%ebx
    29a2:	e8 69 6b 00 00       	call   9510 <fibril_mutex_lock>
    29a7:	a1 74 71 02 00       	mov    0x27174,%eax
    29ac:	83 c4 10             	add    $0x10,%esp
    29af:	85 c0                	test   %eax,%eax
    29b1:	75 0a                	jne    29bd <loc_service_register+0x9d>
    29b3:	85 db                	test   %ebx,%ebx
    29b5:	74 06                	je     29bd <loc_service_register+0x9d>
    29b7:	89 1d 74 71 02 00    	mov    %ebx,0x27174
    29bd:	83 ec 0c             	sub    $0xc,%esp
    29c0:	68 e4 6e 02 00       	push   $0x26ee4
    29c5:	e8 c6 6c 00 00       	call   9690 <fibril_mutex_unlock>
    29ca:	8b 3d 7c 71 02 00    	mov    0x2717c,%edi
    29d0:	5b                   	pop    %ebx
    29d1:	57                   	push   %edi
    29d2:	e8 c9 62 01 00       	call   18ca0 <async_exchange_begin>
    29d7:	83 c4 0c             	add    $0xc,%esp
    29da:	89 c7                	mov    %eax,%edi
    29dc:	8d 45 c4             	lea    -0x3c(%ebp),%eax
    29df:	50                   	push   %eax
    29e0:	6a 00                	push   $0x0
    29e2:	6a 00                	push   $0x0
    29e4:	6a 00                	push   $0x0
    29e6:	6a 00                	push   $0x0
    29e8:	68 03 04 00 00       	push   $0x403
    29ed:	57                   	push   %edi
    29ee:	e8 ed 45 01 00       	call   16fe0 <async_send_fast>
    29f3:	83 c4 14             	add    $0x14,%esp
    29f6:	89 c3                	mov    %eax,%ebx
    29f8:	56                   	push   %esi
    29f9:	e8 52 1f 00 00       	call   4950 <str_size>
    29fe:	83 c4 0c             	add    $0xc,%esp
    2a01:	50                   	push   %eax
    2a02:	56                   	push   %esi
    2a03:	57                   	push   %edi
    2a04:	e8 f7 6f 01 00       	call   19a00 <async_data_write_start>
    2a09:	89 3c 24             	mov    %edi,(%esp)
    2a0c:	89 45 c0             	mov    %eax,-0x40(%ebp)
    2a0f:	e8 7c 65 01 00       	call   18f90 <async_exchange_end>
    2a14:	8b 45 c0             	mov    -0x40(%ebp),%eax
    2a17:	83 c4 10             	add    $0x10,%esp
    2a1a:	85 c0                	test   %eax,%eax
    2a1c:	75 6a                	jne    2a88 <loc_service_register+0x168>
    2a1e:	8d 45 c0             	lea    -0x40(%ebp),%eax
    2a21:	51                   	push   %ecx
    2a22:	51                   	push   %ecx
    2a23:	50                   	push   %eax
    2a24:	53                   	push   %ebx
    2a25:	e8 36 47 01 00       	call   17160 <async_wait_for>
    2a2a:	8b 45 c0             	mov    -0x40(%ebp),%eax
    2a2d:	83 c4 10             	add    $0x10,%esp
    2a30:	85 c0                	test   %eax,%eax
    2a32:	75 3c                	jne    2a70 <loc_service_register+0x150>
    2a34:	8b 45 0c             	mov    0xc(%ebp),%eax
    2a37:	85 c0                	test   %eax,%eax
    2a39:	74 64                	je     2a9f <loc_service_register+0x17f>
    2a3b:	8b 4d 0c             	mov    0xc(%ebp),%ecx
    2a3e:	8b 45 c8             	mov    -0x38(%ebp),%eax
    2a41:	89 01                	mov    %eax,(%ecx)
    2a43:	31 c0                	xor    %eax,%eax
    2a45:	8d 65 f4             	lea    -0xc(%ebp),%esp
    2a48:	5b                   	pop    %ebx
    2a49:	5e                   	pop    %esi
    2a4a:	5f                   	pop    %edi
    2a4b:	5d                   	pop    %ebp
    2a4c:	c3                   	ret    
    2a4d:	8d 76 00             	lea    0x0(%esi),%esi
    2a50:	50                   	push   %eax
    2a51:	6a 00                	push   $0x0
    2a53:	68 c1 7e 8f e7       	push   $0xe78f7ec1
    2a58:	68 6c 6f 63 20       	push   $0x20636f6c
    2a5d:	e8 ee 25 01 00       	call   15050 <service_connect_blocking>
    2a62:	83 c4 10             	add    $0x10,%esp
    2a65:	a3 7c 71 02 00       	mov    %eax,0x2717c
    2a6a:	e9 cf fe ff ff       	jmp    293e <loc_service_register+0x1e>
    2a6f:	90                   	nop
    2a70:	8b 55 0c             	mov    0xc(%ebp),%edx
    2a73:	85 d2                	test   %edx,%edx
    2a75:	74 ce                	je     2a45 <loc_service_register+0x125>
    2a77:	8b 55 0c             	mov    0xc(%ebp),%edx
    2a7a:	c7 02 ff ff ff ff    	movl   $0xffffffff,(%edx)
    2a80:	8d 65 f4             	lea    -0xc(%ebp),%esp
    2a83:	5b                   	pop    %ebx
    2a84:	5e                   	pop    %esi
    2a85:	5f                   	pop    %edi
    2a86:	5d                   	pop    %ebp
    2a87:	c3                   	ret    
    2a88:	83 ec 0c             	sub    $0xc,%esp
    2a8b:	53                   	push   %ebx
    2a8c:	e8 9f 4d 01 00       	call   17830 <async_forget>
    2a91:	8b 45 c0             	mov    -0x40(%ebp),%eax
    2a94:	83 c4 10             	add    $0x10,%esp
    2a97:	8d 65 f4             	lea    -0xc(%ebp),%esp
    2a9a:	5b                   	pop    %ebx
    2a9b:	5e                   	pop    %esi
    2a9c:	5f                   	pop    %edi
    2a9d:	5d                   	pop    %ebp
    2a9e:	c3                   	ret    
    2a9f:	31 c0                	xor    %eax,%eax
    2aa1:	eb a2                	jmp    2a45 <loc_service_register+0x125>
    2aa3:	8d b6 00 00 00 00    	lea    0x0(%esi),%esi
    2aa9:	8d bc 27 00 00 00 00 	lea    0x0(%edi,%eiz,1),%edi

00002ab0 <loc_service_unregister>:
    2ab0:	55                   	push   %ebp
    2ab1:	89 e5                	mov    %esp,%ebp
    2ab3:	53                   	push   %ebx
    2ab4:	83 ec 20             	sub    $0x20,%esp
    2ab7:	68 04 6f 02 00       	push   $0x26f04
    2abc:	e8 4f 6a 00 00       	call   9510 <fibril_mutex_lock>
    2ac1:	a1 7c 71 02 00       	mov    0x2717c,%eax
    2ac6:	83 c4 10             	add    $0x10,%esp
    2ac9:	85 c0                	test   %eax,%eax
    2acb:	75 46                	jne    2b13 <loc_service_unregister+0x63>
    2acd:	83 ec 0c             	sub    $0xc,%esp
    2ad0:	8b 1d 74 71 02 00    	mov    0x27174,%ebx
    2ad6:	68 e4 6e 02 00       	push   $0x26ee4
    2adb:	e8 30 6a 00 00       	call   9510 <fibril_mutex_lock>
    2ae0:	a1 7c 71 02 00       	mov    0x2717c,%eax
    2ae5:	83 c4 10             	add    $0x10,%esp
    2ae8:	85 c0                	test   %eax,%eax
    2aea:	75 0a                	jne    2af6 <loc_service_unregister+0x46>
    2aec:	85 db                	test   %ebx,%ebx
    2aee:	74 06                	je     2af6 <loc_service_unregister+0x46>
    2af0:	89 1d 7c 71 02 00    	mov    %ebx,0x2717c
    2af6:	83 ec 0c             	sub    $0xc,%esp
    2af9:	68 e4 6e 02 00       	push   $0x26ee4
    2afe:	e8 8d 6b 00 00       	call   9690 <fibril_mutex_unlock>
    2b03:	a1 7c 71 02 00       	mov    0x2717c,%eax
    2b08:	83 c4 10             	add    $0x10,%esp
    2b0b:	85 c0                	test   %eax,%eax
    2b0d:	0f 84 8d 00 00 00    	je     2ba0 <loc_service_unregister+0xf0>
    2b13:	83 ec 0c             	sub    $0xc,%esp
    2b16:	68 04 6f 02 00       	push   $0x26f04
    2b1b:	e8 70 6b 00 00       	call   9690 <fibril_mutex_unlock>
    2b20:	c7 04 24 e4 6e 02 00 	movl   $0x26ee4,(%esp)
    2b27:	8b 1d 7c 71 02 00    	mov    0x2717c,%ebx
    2b2d:	e8 de 69 00 00       	call   9510 <fibril_mutex_lock>
    2b32:	a1 74 71 02 00       	mov    0x27174,%eax
    2b37:	83 c4 10             	add    $0x10,%esp
    2b3a:	85 c0                	test   %eax,%eax
    2b3c:	75 0a                	jne    2b48 <loc_service_unregister+0x98>
    2b3e:	85 db                	test   %ebx,%ebx
    2b40:	74 06                	je     2b48 <loc_service_unregister+0x98>
    2b42:	89 1d 74 71 02 00    	mov    %ebx,0x27174
    2b48:	83 ec 0c             	sub    $0xc,%esp
    2b4b:	68 e4 6e 02 00       	push   $0x26ee4
    2b50:	e8 3b 6b 00 00       	call   9690 <fibril_mutex_unlock>
    2b55:	8b 15 7c 71 02 00    	mov    0x2717c,%edx
    2b5b:	58                   	pop    %eax
    2b5c:	52                   	push   %edx
    2b5d:	e8 3e 61 01 00       	call   18ca0 <async_exchange_begin>
    2b62:	83 c4 0c             	add    $0xc,%esp
    2b65:	8b 4d 08             	mov    0x8(%ebp),%ecx
    2b68:	89 c3                	mov    %eax,%ebx
    2b6a:	6a 00                	push   $0x0
    2b6c:	6a 00                	push   $0x0
    2b6e:	6a 00                	push   $0x0
    2b70:	6a 00                	push   $0x0
    2b72:	6a 00                	push   $0x0
    2b74:	6a 00                	push   $0x0
    2b76:	6a 00                	push   $0x0
    2b78:	6a 00                	push   $0x0
    2b7a:	51                   	push   %ecx
    2b7b:	68 04 04 00 00       	push   $0x404
    2b80:	50                   	push   %eax
    2b81:	e8 1a 4f 01 00       	call   17aa0 <async_req_fast>
    2b86:	83 c4 24             	add    $0x24,%esp
    2b89:	89 45 f4             	mov    %eax,-0xc(%ebp)
    2b8c:	53                   	push   %ebx
    2b8d:	e8 fe 63 01 00       	call   18f90 <async_exchange_end>
    2b92:	8b 45 f4             	mov    -0xc(%ebp),%eax
    2b95:	8b 5d fc             	mov    -0x4(%ebp),%ebx
    2b98:	c9                   	leave  
    2b99:	c3                   	ret    
    2b9a:	8d b6 00 00 00 00    	lea    0x0(%esi),%esi
    2ba0:	50                   	push   %eax
    2ba1:	6a 00                	push   $0x0
    2ba3:	68 c1 7e 8f e7       	push   $0xe78f7ec1
    2ba8:	68 6c 6f 63 20       	push   $0x20636f6c
    2bad:	e8 9e 24 01 00       	call   15050 <service_connect_blocking>
    2bb2:	83 c4 10             	add    $0x10,%esp
    2bb5:	a3 7c 71 02 00       	mov    %eax,0x2717c
    2bba:	e9 0a ff ff ff       	jmp    2ac9 <loc_service_unregister+0x19>
    2bbf:	90                   	nop

00002bc0 <loc_service_get_id>:
    2bc0:	55                   	push   %ebp
    2bc1:	89 e5                	mov    %esp,%ebp
    2bc3:	57                   	push   %edi
    2bc4:	56                   	push   %esi
    2bc5:	53                   	push   %ebx
    2bc6:	83 ec 3c             	sub    $0x3c,%esp
    2bc9:	8b 5d 10             	mov    0x10(%ebp),%ebx
    2bcc:	8b 75 08             	mov    0x8(%ebp),%esi
    2bcf:	f6 c3 01             	test   $0x1,%bl
    2bd2:	0f 84 30 01 00 00    	je     2d08 <loc_service_get_id+0x148>
    2bd8:	83 ec 0c             	sub    $0xc,%esp
    2bdb:	68 f4 6e 02 00       	push   $0x26ef4
    2be0:	e8 2b 69 00 00       	call   9510 <fibril_mutex_lock>
    2be5:	a1 78 71 02 00       	mov    0x27178,%eax
    2bea:	83 c4 10             	add    $0x10,%esp
    2bed:	85 c0                	test   %eax,%eax
    2bef:	75 47                	jne    2c38 <loc_service_get_id+0x78>
    2bf1:	83 ec 0c             	sub    $0xc,%esp
    2bf4:	8b 3d 70 71 02 00    	mov    0x27170,%edi
    2bfa:	68 d4 6e 02 00       	push   $0x26ed4
    2bff:	e8 0c 69 00 00       	call   9510 <fibril_mutex_lock>
    2c04:	a1 78 71 02 00       	mov    0x27178,%eax
    2c09:	83 c4 10             	add    $0x10,%esp
    2c0c:	85 c0                	test   %eax,%eax
    2c0e:	75 0a                	jne    2c1a <loc_service_get_id+0x5a>
    2c10:	85 ff                	test   %edi,%edi
    2c12:	74 06                	je     2c1a <loc_service_get_id+0x5a>
    2c14:	89 3d 78 71 02 00    	mov    %edi,0x27178
    2c1a:	83 ec 0c             	sub    $0xc,%esp
    2c1d:	68 d4 6e 02 00       	push   $0x26ed4
    2c22:	e8 69 6a 00 00       	call   9690 <fibril_mutex_unlock>
    2c27:	8b 3d 78 71 02 00    	mov    0x27178,%edi
    2c2d:	83 c4 10             	add    $0x10,%esp
    2c30:	85 ff                	test   %edi,%edi
    2c32:	0f 84 40 01 00 00    	je     2d78 <loc_service_get_id+0x1b8>
    2c38:	83 ec 0c             	sub    $0xc,%esp
    2c3b:	68 f4 6e 02 00       	push   $0x26ef4
    2c40:	e8 4b 6a 00 00       	call   9690 <fibril_mutex_unlock>
    2c45:	c7 04 24 d4 6e 02 00 	movl   $0x26ed4,(%esp)
    2c4c:	8b 3d 78 71 02 00    	mov    0x27178,%edi
    2c52:	e8 b9 68 00 00       	call   9510 <fibril_mutex_lock>
    2c57:	8b 15 70 71 02 00    	mov    0x27170,%edx
    2c5d:	83 c4 10             	add    $0x10,%esp
    2c60:	85 d2                	test   %edx,%edx
    2c62:	75 0a                	jne    2c6e <loc_service_get_id+0xae>
    2c64:	85 ff                	test   %edi,%edi
    2c66:	74 06                	je     2c6e <loc_service_get_id+0xae>
    2c68:	89 3d 70 71 02 00    	mov    %edi,0x27170
    2c6e:	83 ec 0c             	sub    $0xc,%esp
    2c71:	68 d4 6e 02 00       	push   $0x26ed4
    2c76:	e8 15 6a 00 00       	call   9690 <fibril_mutex_unlock>
    2c7b:	58                   	pop    %eax
    2c7c:	a1 78 71 02 00       	mov    0x27178,%eax
    2c81:	50                   	push   %eax
    2c82:	e8 19 60 01 00       	call   18ca0 <async_exchange_begin>
    2c87:	83 c4 10             	add    $0x10,%esp
    2c8a:	89 c7                	mov    %eax,%edi
    2c8c:	50                   	push   %eax
    2c8d:	8d 45 c4             	lea    -0x3c(%ebp),%eax
    2c90:	50                   	push   %eax
    2c91:	6a 00                	push   $0x0
    2c93:	6a 00                	push   $0x0
    2c95:	6a 00                	push   $0x0
    2c97:	53                   	push   %ebx
    2c98:	68 05 04 00 00       	push   $0x405
    2c9d:	57                   	push   %edi
    2c9e:	e8 3d 43 01 00       	call   16fe0 <async_send_fast>
    2ca3:	83 c4 14             	add    $0x14,%esp
    2ca6:	89 c3                	mov    %eax,%ebx
    2ca8:	56                   	push   %esi
    2ca9:	e8 a2 1c 00 00       	call   4950 <str_size>
    2cae:	83 c4 0c             	add    $0xc,%esp
    2cb1:	50                   	push   %eax
    2cb2:	56                   	push   %esi
    2cb3:	57                   	push   %edi
    2cb4:	e8 47 6d 01 00       	call   19a00 <async_data_write_start>
    2cb9:	89 3c 24             	mov    %edi,(%esp)
    2cbc:	89 45 c0             	mov    %eax,-0x40(%ebp)
    2cbf:	e8 cc 62 01 00       	call   18f90 <async_exchange_end>
    2cc4:	8b 45 c0             	mov    -0x40(%ebp),%eax
    2cc7:	83 c4 10             	add    $0x10,%esp
    2cca:	85 c0                	test   %eax,%eax
    2ccc:	0f 85 c6 00 00 00    	jne    2d98 <loc_service_get_id+0x1d8>
    2cd2:	8d 45 c0             	lea    -0x40(%ebp),%eax
    2cd5:	51                   	push   %ecx
    2cd6:	51                   	push   %ecx
    2cd7:	50                   	push   %eax
    2cd8:	53                   	push   %ebx
    2cd9:	e8 82 44 01 00       	call   17160 <async_wait_for>
    2cde:	8b 45 c0             	mov    -0x40(%ebp),%eax
    2ce1:	83 c4 10             	add    $0x10,%esp
    2ce4:	85 c0                	test   %eax,%eax
    2ce6:	75 78                	jne    2d60 <loc_service_get_id+0x1a0>
    2ce8:	8b 45 0c             	mov    0xc(%ebp),%eax
    2ceb:	85 c0                	test   %eax,%eax
    2ced:	0f 84 db 00 00 00    	je     2dce <loc_service_get_id+0x20e>
    2cf3:	8b 4d 0c             	mov    0xc(%ebp),%ecx
    2cf6:	8b 45 c8             	mov    -0x38(%ebp),%eax
    2cf9:	89 01                	mov    %eax,(%ecx)
    2cfb:	31 c0                	xor    %eax,%eax
    2cfd:	8d 65 f4             	lea    -0xc(%ebp),%esp
    2d00:	5b                   	pop    %ebx
    2d01:	5e                   	pop    %esi
    2d02:	5f                   	pop    %edi
    2d03:	5d                   	pop    %ebp
    2d04:	c3                   	ret    
    2d05:	8d 76 00             	lea    0x0(%esi),%esi
    2d08:	83 ec 0c             	sub    $0xc,%esp
    2d0b:	68 d4 6e 02 00       	push   $0x26ed4
    2d10:	e8 fb 67 00 00       	call   9510 <fibril_mutex_lock>
    2d15:	a1 70 71 02 00       	mov    0x27170,%eax
    2d1a:	83 c4 10             	add    $0x10,%esp
    2d1d:	85 c0                	test   %eax,%eax
    2d1f:	0f 84 8a 00 00 00    	je     2daf <loc_service_get_id+0x1ef>
    2d25:	83 ec 0c             	sub    $0xc,%esp
    2d28:	68 d4 6e 02 00       	push   $0x26ed4
    2d2d:	e8 5e 69 00 00       	call   9690 <fibril_mutex_unlock>
    2d32:	a1 70 71 02 00       	mov    0x27170,%eax
    2d37:	83 c4 10             	add    $0x10,%esp
    2d3a:	85 c0                	test   %eax,%eax
    2d3c:	74 16                	je     2d54 <loc_service_get_id+0x194>
    2d3e:	83 ec 0c             	sub    $0xc,%esp
    2d41:	50                   	push   %eax
    2d42:	e8 59 5f 01 00       	call   18ca0 <async_exchange_begin>
    2d47:	83 c4 10             	add    $0x10,%esp
    2d4a:	89 c7                	mov    %eax,%edi
    2d4c:	85 c0                	test   %eax,%eax
    2d4e:	0f 85 38 ff ff ff    	jne    2c8c <loc_service_get_id+0xcc>
    2d54:	e8 07 ec 01 00       	call   21960 <__errno>
    2d59:	8b 00                	mov    (%eax),%eax
    2d5b:	eb a0                	jmp    2cfd <loc_service_get_id+0x13d>
    2d5d:	8d 76 00             	lea    0x0(%esi),%esi
    2d60:	8b 55 0c             	mov    0xc(%ebp),%edx
    2d63:	85 d2                	test   %edx,%edx
    2d65:	74 96                	je     2cfd <loc_service_get_id+0x13d>
    2d67:	8b 55 0c             	mov    0xc(%ebp),%edx
    2d6a:	c7 02 ff ff ff ff    	movl   $0xffffffff,(%edx)
    2d70:	8d 65 f4             	lea    -0xc(%ebp),%esp
    2d73:	5b                   	pop    %ebx
    2d74:	5e                   	pop    %esi
    2d75:	5f                   	pop    %edi
    2d76:	5d                   	pop    %ebp
    2d77:	c3                   	ret    
    2d78:	51                   	push   %ecx
    2d79:	6a 00                	push   $0x0
    2d7b:	68 c1 7e 8f c7       	push   $0xc78f7ec1
    2d80:	68 6c 6f 63 20       	push   $0x20636f6c
    2d85:	e8 c6 22 01 00       	call   15050 <service_connect_blocking>
    2d8a:	83 c4 10             	add    $0x10,%esp
    2d8d:	a3 78 71 02 00       	mov    %eax,0x27178
    2d92:	e9 56 fe ff ff       	jmp    2bed <loc_service_get_id+0x2d>
    2d97:	90                   	nop
    2d98:	83 ec 0c             	sub    $0xc,%esp
    2d9b:	53                   	push   %ebx
    2d9c:	e8 8f 4a 01 00       	call   17830 <async_forget>
    2da1:	8b 45 c0             	mov    -0x40(%ebp),%eax
    2da4:	83 c4 10             	add    $0x10,%esp
    2da7:	8d 65 f4             	lea    -0xc(%ebp),%esp
    2daa:	5b                   	pop    %ebx
    2dab:	5e                   	pop    %esi
    2dac:	5f                   	pop    %edi
    2dad:	5d                   	pop    %ebp
    2dae:	c3                   	ret    
    2daf:	50                   	push   %eax
    2db0:	6a 00                	push   $0x0
    2db2:	68 c1 7e 8f c7       	push   $0xc78f7ec1
    2db7:	68 6c 6f 63 20       	push   $0x20636f6c
    2dbc:	e8 1f 22 01 00       	call   14fe0 <service_connect>
    2dc1:	83 c4 10             	add    $0x10,%esp
    2dc4:	a3 70 71 02 00       	mov    %eax,0x27170
    2dc9:	e9 57 ff ff ff       	jmp    2d25 <loc_service_get_id+0x165>
    2dce:	31 c0                	xor    %eax,%eax
    2dd0:	e9 28 ff ff ff       	jmp    2cfd <loc_service_get_id+0x13d>
    2dd5:	8d 74 26 00          	lea    0x0(%esi,%eiz,1),%esi
    2dd9:	8d bc 27 00 00 00 00 	lea    0x0(%edi,%eiz,1),%edi

00002de0 <loc_category_get_name>:
    2de0:	55                   	push   %ebp
    2de1:	b8 0b 04 00 00       	mov    $0x40b,%eax
    2de6:	89 e5                	mov    %esp,%ebp
    2de8:	8b 4d 0c             	mov    0xc(%ebp),%ecx
    2deb:	8b 55 08             	mov    0x8(%ebp),%edx
    2dee:	5d                   	pop    %ebp
    2def:	e9 bc f4 ff ff       	jmp    22b0 <loc_get_name_internal>
    2df4:	8d b6 00 00 00 00    	lea    0x0(%esi),%esi
    2dfa:	8d bf 00 00 00 00    	lea    0x0(%edi),%edi

00002e00 <loc_service_get_name>:
    2e00:	55                   	push   %ebp
    2e01:	b8 06 04 00 00       	mov    $0x406,%eax
    2e06:	89 e5                	mov    %esp,%ebp
    2e08:	8b 4d 0c             	mov    0xc(%ebp),%ecx
    2e0b:	8b 55 08             	mov    0x8(%ebp),%edx
    2e0e:	5d                   	pop    %ebp
    2e0f:	e9 9c f4 ff ff       	jmp    22b0 <loc_get_name_internal>
    2e14:	8d b6 00 00 00 00    	lea    0x0(%esi),%esi
    2e1a:	8d bf 00 00 00 00    	lea    0x0(%edi),%edi

00002e20 <loc_service_get_server_name>:
    2e20:	55                   	push   %ebp
    2e21:	b8 07 04 00 00       	mov    $0x407,%eax
    2e26:	89 e5                	mov    %esp,%ebp
    2e28:	8b 4d 0c             	mov    0xc(%ebp),%ecx
    2e2b:	8b 55 08             	mov    0x8(%ebp),%edx
    2e2e:	5d                   	pop    %ebp
    2e2f:	e9 7c f4 ff ff       	jmp    22b0 <loc_get_name_internal>
    2e34:	8d b6 00 00 00 00    	lea    0x0(%esi),%esi
    2e3a:	8d bf 00 00 00 00    	lea    0x0(%edi),%edi

00002e40 <loc_namespace_get_id>:
    2e40:	55                   	push   %ebp
    2e41:	89 e5                	mov    %esp,%ebp
    2e43:	57                   	push   %edi
    2e44:	56                   	push   %esi
    2e45:	53                   	push   %ebx
    2e46:	83 ec 3c             	sub    $0x3c,%esp
    2e49:	8b 5d 10             	mov    0x10(%ebp),%ebx
    2e4c:	8b 75 08             	mov    0x8(%ebp),%esi
    2e4f:	f6 c3 01             	test   $0x1,%bl
    2e52:	0f 84 30 01 00 00    	je     2f88 <loc_namespace_get_id+0x148>
    2e58:	83 ec 0c             	sub    $0xc,%esp
    2e5b:	68 f4 6e 02 00       	push   $0x26ef4
    2e60:	e8 ab 66 00 00       	call   9510 <fibril_mutex_lock>
    2e65:	a1 78 71 02 00       	mov    0x27178,%eax
    2e6a:	83 c4 10             	add    $0x10,%esp
    2e6d:	85 c0                	test   %eax,%eax
    2e6f:	75 47                	jne    2eb8 <loc_namespace_get_id+0x78>
    2e71:	83 ec 0c             	sub    $0xc,%esp
    2e74:	8b 3d 70 71 02 00    	mov    0x27170,%edi
    2e7a:	68 d4 6e 02 00       	push   $0x26ed4
    2e7f:	e8 8c 66 00 00       	call   9510 <fibril_mutex_lock>
    2e84:	a1 78 71 02 00       	mov    0x27178,%eax
    2e89:	83 c4 10             	add    $0x10,%esp
    2e8c:	85 c0                	test   %eax,%eax
    2e8e:	75 0a                	jne    2e9a <loc_namespace_get_id+0x5a>
    2e90:	85 ff                	test   %edi,%edi
    2e92:	74 06                	je     2e9a <loc_namespace_get_id+0x5a>
    2e94:	89 3d 78 71 02 00    	mov    %edi,0x27178
    2e9a:	83 ec 0c             	sub    $0xc,%esp
    2e9d:	68 d4 6e 02 00       	push   $0x26ed4
    2ea2:	e8 e9 67 00 00       	call   9690 <fibril_mutex_unlock>
    2ea7:	8b 3d 78 71 02 00    	mov    0x27178,%edi
    2ead:	83 c4 10             	add    $0x10,%esp
    2eb0:	85 ff                	test   %edi,%edi
    2eb2:	0f 84 40 01 00 00    	je     2ff8 <loc_namespace_get_id+0x1b8>
    2eb8:	83 ec 0c             	sub    $0xc,%esp
    2ebb:	68 f4 6e 02 00       	push   $0x26ef4
    2ec0:	e8 cb 67 00 00       	call   9690 <fibril_mutex_unlock>
    2ec5:	c7 04 24 d4 6e 02 00 	movl   $0x26ed4,(%esp)
    2ecc:	8b 3d 78 71 02 00    	mov    0x27178,%edi
    2ed2:	e8 39 66 00 00       	call   9510 <fibril_mutex_lock>
    2ed7:	8b 15 70 71 02 00    	mov    0x27170,%edx
    2edd:	83 c4 10             	add    $0x10,%esp
    2ee0:	85 d2                	test   %edx,%edx
    2ee2:	75 0a                	jne    2eee <loc_namespace_get_id+0xae>
    2ee4:	85 ff                	test   %edi,%edi
    2ee6:	74 06                	je     2eee <loc_namespace_get_id+0xae>
    2ee8:	89 3d 70 71 02 00    	mov    %edi,0x27170
    2eee:	83 ec 0c             	sub    $0xc,%esp
    2ef1:	68 d4 6e 02 00       	push   $0x26ed4
    2ef6:	e8 95 67 00 00       	call   9690 <fibril_mutex_unlock>
    2efb:	58                   	pop    %eax
    2efc:	a1 78 71 02 00       	mov    0x27178,%eax
    2f01:	50                   	push   %eax
    2f02:	e8 99 5d 01 00       	call   18ca0 <async_exchange_begin>
    2f07:	83 c4 10             	add    $0x10,%esp
    2f0a:	89 c7                	mov    %eax,%edi
    2f0c:	50                   	push   %eax
    2f0d:	8d 45 c4             	lea    -0x3c(%ebp),%eax
    2f10:	50                   	push   %eax
    2f11:	6a 00                	push   $0x0
    2f13:	6a 00                	push   $0x0
    2f15:	6a 00                	push   $0x0
    2f17:	53                   	push   %ebx
    2f18:	68 08 04 00 00       	push   $0x408
    2f1d:	57                   	push   %edi
    2f1e:	e8 bd 40 01 00       	call   16fe0 <async_send_fast>
    2f23:	83 c4 14             	add    $0x14,%esp
    2f26:	89 c3                	mov    %eax,%ebx
    2f28:	56                   	push   %esi
    2f29:	e8 22 1a 00 00       	call   4950 <str_size>
    2f2e:	83 c4 0c             	add    $0xc,%esp
    2f31:	50                   	push   %eax
    2f32:	56                   	push   %esi
    2f33:	57                   	push   %edi
    2f34:	e8 c7 6a 01 00       	call   19a00 <async_data_write_start>
    2f39:	89 3c 24             	mov    %edi,(%esp)
    2f3c:	89 45 c0             	mov    %eax,-0x40(%ebp)
    2f3f:	e8 4c 60 01 00       	call   18f90 <async_exchange_end>
    2f44:	8b 45 c0             	mov    -0x40(%ebp),%eax
    2f47:	83 c4 10             	add    $0x10,%esp
    2f4a:	85 c0                	test   %eax,%eax
    2f4c:	0f 85 c6 00 00 00    	jne    3018 <loc_namespace_get_id+0x1d8>
    2f52:	8d 45 c0             	lea    -0x40(%ebp),%eax
    2f55:	51                   	push   %ecx
    2f56:	51                   	push   %ecx
    2f57:	50                   	push   %eax
    2f58:	53                   	push   %ebx
    2f59:	e8 02 42 01 00       	call   17160 <async_wait_for>
    2f5e:	8b 45 c0             	mov    -0x40(%ebp),%eax
    2f61:	83 c4 10             	add    $0x10,%esp
    2f64:	85 c0                	test   %eax,%eax
    2f66:	75 78                	jne    2fe0 <loc_namespace_get_id+0x1a0>
    2f68:	8b 45 0c             	mov    0xc(%ebp),%eax
    2f6b:	85 c0                	test   %eax,%eax
    2f6d:	0f 84 db 00 00 00    	je     304e <loc_namespace_get_id+0x20e>
    2f73:	8b 4d 0c             	mov    0xc(%ebp),%ecx
    2f76:	8b 45 c8             	mov    -0x38(%ebp),%eax
    2f79:	89 01                	mov    %eax,(%ecx)
    2f7b:	31 c0                	xor    %eax,%eax
    2f7d:	8d 65 f4             	lea    -0xc(%ebp),%esp
    2f80:	5b                   	pop    %ebx
    2f81:	5e                   	pop    %esi
    2f82:	5f                   	pop    %edi
    2f83:	5d                   	pop    %ebp
    2f84:	c3                   	ret    
    2f85:	8d 76 00             	lea    0x0(%esi),%esi
    2f88:	83 ec 0c             	sub    $0xc,%esp
    2f8b:	68 d4 6e 02 00       	push   $0x26ed4
    2f90:	e8 7b 65 00 00       	call   9510 <fibril_mutex_lock>
    2f95:	a1 70 71 02 00       	mov    0x27170,%eax
    2f9a:	83 c4 10             	add    $0x10,%esp
    2f9d:	85 c0                	test   %eax,%eax
    2f9f:	0f 84 8a 00 00 00    	je     302f <loc_namespace_get_id+0x1ef>
    2fa5:	83 ec 0c             	sub    $0xc,%esp
    2fa8:	68 d4 6e 02 00       	push   $0x26ed4
    2fad:	e8 de 66 00 00       	call   9690 <fibril_mutex_unlock>
    2fb2:	a1 70 71 02 00       	mov    0x27170,%eax
    2fb7:	83 c4 10             	add    $0x10,%esp
    2fba:	85 c0                	test   %eax,%eax
    2fbc:	74 16                	je     2fd4 <loc_namespace_get_id+0x194>
    2fbe:	83 ec 0c             	sub    $0xc,%esp
    2fc1:	50                   	push   %eax
    2fc2:	e8 d9 5c 01 00       	call   18ca0 <async_exchange_begin>
    2fc7:	83 c4 10             	add    $0x10,%esp
    2fca:	89 c7                	mov    %eax,%edi
    2fcc:	85 c0                	test   %eax,%eax
    2fce:	0f 85 38 ff ff ff    	jne    2f0c <loc_namespace_get_id+0xcc>
    2fd4:	e8 87 e9 01 00       	call   21960 <__errno>
    2fd9:	8b 00                	mov    (%eax),%eax
    2fdb:	eb a0                	jmp    2f7d <loc_namespace_get_id+0x13d>
    2fdd:	8d 76 00             	lea    0x0(%esi),%esi
    2fe0:	8b 55 0c             	mov    0xc(%ebp),%edx
    2fe3:	85 d2                	test   %edx,%edx
    2fe5:	74 96                	je     2f7d <loc_namespace_get_id+0x13d>
    2fe7:	8b 55 0c             	mov    0xc(%ebp),%edx
    2fea:	c7 02 ff ff ff ff    	movl   $0xffffffff,(%edx)
    2ff0:	8d 65 f4             	lea    -0xc(%ebp),%esp
    2ff3:	5b                   	pop    %ebx
    2ff4:	5e                   	pop    %esi
    2ff5:	5f                   	pop    %edi
    2ff6:	5d                   	pop    %ebp
    2ff7:	c3                   	ret    
    2ff8:	51                   	push   %ecx
    2ff9:	6a 00                	push   $0x0
    2ffb:	68 c1 7e 8f c7       	push   $0xc78f7ec1
    3000:	68 6c 6f 63 20       	push   $0x20636f6c
    3005:	e8 46 20 01 00       	call   15050 <service_connect_blocking>
    300a:	83 c4 10             	add    $0x10,%esp
    300d:	a3 78 71 02 00       	mov    %eax,0x27178
    3012:	e9 56 fe ff ff       	jmp    2e6d <loc_namespace_get_id+0x2d>
    3017:	90                   	nop
    3018:	83 ec 0c             	sub    $0xc,%esp
    301b:	53                   	push   %ebx
    301c:	e8 0f 48 01 00       	call   17830 <async_forget>
    3021:	8b 45 c0             	mov    -0x40(%ebp),%eax
    3024:	83 c4 10             	add    $0x10,%esp
    3027:	8d 65 f4             	lea    -0xc(%ebp),%esp
    302a:	5b                   	pop    %ebx
    302b:	5e                   	pop    %esi
    302c:	5f                   	pop    %edi
    302d:	5d                   	pop    %ebp
    302e:	c3                   	ret    
    302f:	50                   	push   %eax
    3030:	6a 00                	push   $0x0
    3032:	68 c1 7e 8f c7       	push   $0xc78f7ec1
    3037:	68 6c 6f 63 20       	push   $0x20636f6c
    303c:	e8 9f 1f 01 00       	call   14fe0 <service_connect>
    3041:	83 c4 10             	add    $0x10,%esp
    3044:	a3 70 71 02 00       	mov    %eax,0x27170
    3049:	e9 57 ff ff ff       	jmp    2fa5 <loc_namespace_get_id+0x165>
    304e:	31 c0                	xor    %eax,%eax
    3050:	e9 28 ff ff ff       	jmp    2f7d <loc_namespace_get_id+0x13d>
    3055:	8d 74 26 00          	lea    0x0(%esi,%eiz,1),%esi
    3059:	8d bc 27 00 00 00 00 	lea    0x0(%edi,%eiz,1),%edi

00003060 <loc_category_get_id>:
    3060:	55                   	push   %ebp
    3061:	89 e5                	mov    %esp,%ebp
    3063:	57                   	push   %edi
    3064:	56                   	push   %esi
    3065:	53                   	push   %ebx
    3066:	83 ec 3c             	sub    $0x3c,%esp
    3069:	8b 75 08             	mov    0x8(%ebp),%esi
    306c:	f6 45 10 01          	testb  $0x1,0x10(%ebp)
    3070:	0f 84 32 01 00 00    	je     31a8 <loc_category_get_id+0x148>
    3076:	83 ec 0c             	sub    $0xc,%esp
    3079:	68 f4 6e 02 00       	push   $0x26ef4
    307e:	e8 8d 64 00 00       	call   9510 <fibril_mutex_lock>
    3083:	a1 78 71 02 00       	mov    0x27178,%eax
    3088:	83 c4 10             	add    $0x10,%esp
    308b:	85 c0                	test   %eax,%eax
    308d:	75 48                	jne    30d7 <loc_category_get_id+0x77>
    308f:	83 ec 0c             	sub    $0xc,%esp
    3092:	8b 1d 70 71 02 00    	mov    0x27170,%ebx
    3098:	68 d4 6e 02 00       	push   $0x26ed4
    309d:	e8 6e 64 00 00       	call   9510 <fibril_mutex_lock>
    30a2:	8b 3d 78 71 02 00    	mov    0x27178,%edi
    30a8:	83 c4 10             	add    $0x10,%esp
    30ab:	85 ff                	test   %edi,%edi
    30ad:	75 0a                	jne    30b9 <loc_category_get_id+0x59>
    30af:	85 db                	test   %ebx,%ebx
    30b1:	74 06                	je     30b9 <loc_category_get_id+0x59>
    30b3:	89 1d 78 71 02 00    	mov    %ebx,0x27178
    30b9:	83 ec 0c             	sub    $0xc,%esp
    30bc:	68 d4 6e 02 00       	push   $0x26ed4
    30c1:	e8 ca 65 00 00       	call   9690 <fibril_mutex_unlock>
    30c6:	8b 0d 78 71 02 00    	mov    0x27178,%ecx
    30cc:	83 c4 10             	add    $0x10,%esp
    30cf:	85 c9                	test   %ecx,%ecx
    30d1:	0f 84 41 01 00 00    	je     3218 <loc_category_get_id+0x1b8>
    30d7:	83 ec 0c             	sub    $0xc,%esp
    30da:	68 f4 6e 02 00       	push   $0x26ef4
    30df:	e8 ac 65 00 00       	call   9690 <fibril_mutex_unlock>
    30e4:	c7 04 24 d4 6e 02 00 	movl   $0x26ed4,(%esp)
    30eb:	8b 1d 78 71 02 00    	mov    0x27178,%ebx
    30f1:	e8 1a 64 00 00       	call   9510 <fibril_mutex_lock>
    30f6:	a1 70 71 02 00       	mov    0x27170,%eax
    30fb:	83 c4 10             	add    $0x10,%esp
    30fe:	85 c0                	test   %eax,%eax
    3100:	75 0a                	jne    310c <loc_category_get_id+0xac>
    3102:	85 db                	test   %ebx,%ebx
    3104:	74 06                	je     310c <loc_category_get_id+0xac>
    3106:	89 1d 70 71 02 00    	mov    %ebx,0x27170
    310c:	83 ec 0c             	sub    $0xc,%esp
    310f:	68 d4 6e 02 00       	push   $0x26ed4
    3114:	e8 77 65 00 00       	call   9690 <fibril_mutex_unlock>
    3119:	58                   	pop    %eax
    311a:	a1 78 71 02 00       	mov    0x27178,%eax
    311f:	50                   	push   %eax
    3120:	e8 7b 5b 01 00       	call   18ca0 <async_exchange_begin>
    3125:	83 c4 10             	add    $0x10,%esp
    3128:	89 c3                	mov    %eax,%ebx
    312a:	8d 45 c4             	lea    -0x3c(%ebp),%eax
    312d:	57                   	push   %edi
    312e:	50                   	push   %eax
    312f:	6a 00                	push   $0x0
    3131:	6a 00                	push   $0x0
    3133:	6a 00                	push   $0x0
    3135:	6a 00                	push   $0x0
    3137:	68 0a 04 00 00       	push   $0x40a
    313c:	53                   	push   %ebx
    313d:	e8 9e 3e 01 00       	call   16fe0 <async_send_fast>
    3142:	83 c4 14             	add    $0x14,%esp
    3145:	89 c7                	mov    %eax,%edi
    3147:	56                   	push   %esi
    3148:	e8 03 18 00 00       	call   4950 <str_size>
    314d:	83 c4 0c             	add    $0xc,%esp
    3150:	50                   	push   %eax
    3151:	56                   	push   %esi
    3152:	53                   	push   %ebx
    3153:	e8 a8 68 01 00       	call   19a00 <async_data_write_start>
    3158:	89 1c 24             	mov    %ebx,(%esp)
    315b:	89 45 c0             	mov    %eax,-0x40(%ebp)
    315e:	e8 2d 5e 01 00       	call   18f90 <async_exchange_end>
    3163:	8b 45 c0             	mov    -0x40(%ebp),%eax
    3166:	83 c4 10             	add    $0x10,%esp
    3169:	85 c0                	test   %eax,%eax
    316b:	0f 85 c7 00 00 00    	jne    3238 <loc_category_get_id+0x1d8>
    3171:	8d 45 c0             	lea    -0x40(%ebp),%eax
    3174:	51                   	push   %ecx
    3175:	51                   	push   %ecx
    3176:	50                   	push   %eax
    3177:	57                   	push   %edi
    3178:	e8 e3 3f 01 00       	call   17160 <async_wait_for>
    317d:	8b 45 c0             	mov    -0x40(%ebp),%eax
    3180:	83 c4 10             	add    $0x10,%esp
    3183:	85 c0                	test   %eax,%eax
    3185:	75 79                	jne    3200 <loc_category_get_id+0x1a0>
    3187:	8b 45 0c             	mov    0xc(%ebp),%eax
    318a:	85 c0                	test   %eax,%eax
    318c:	0f 84 dc 00 00 00    	je     326e <loc_category_get_id+0x20e>
    3192:	8b 4d 0c             	mov    0xc(%ebp),%ecx
    3195:	8b 45 c8             	mov    -0x38(%ebp),%eax
    3198:	89 01                	mov    %eax,(%ecx)
    319a:	31 c0                	xor    %eax,%eax
    319c:	8d 65 f4             	lea    -0xc(%ebp),%esp
    319f:	5b                   	pop    %ebx
    31a0:	5e                   	pop    %esi
    31a1:	5f                   	pop    %edi
    31a2:	5d                   	pop    %ebp
    31a3:	c3                   	ret    
    31a4:	8d 74 26 00          	lea    0x0(%esi,%eiz,1),%esi
    31a8:	83 ec 0c             	sub    $0xc,%esp
    31ab:	68 d4 6e 02 00       	push   $0x26ed4
    31b0:	e8 5b 63 00 00       	call   9510 <fibril_mutex_lock>
    31b5:	a1 70 71 02 00       	mov    0x27170,%eax
    31ba:	83 c4 10             	add    $0x10,%esp
    31bd:	85 c0                	test   %eax,%eax
    31bf:	0f 84 8a 00 00 00    	je     324f <loc_category_get_id+0x1ef>
    31c5:	83 ec 0c             	sub    $0xc,%esp
    31c8:	68 d4 6e 02 00       	push   $0x26ed4
    31cd:	e8 be 64 00 00       	call   9690 <fibril_mutex_unlock>
    31d2:	a1 70 71 02 00       	mov    0x27170,%eax
    31d7:	83 c4 10             	add    $0x10,%esp
    31da:	85 c0                	test   %eax,%eax
    31dc:	74 16                	je     31f4 <loc_category_get_id+0x194>
    31de:	83 ec 0c             	sub    $0xc,%esp
    31e1:	50                   	push   %eax
    31e2:	e8 b9 5a 01 00       	call   18ca0 <async_exchange_begin>
    31e7:	83 c4 10             	add    $0x10,%esp
    31ea:	89 c3                	mov    %eax,%ebx
    31ec:	85 c0                	test   %eax,%eax
    31ee:	0f 85 36 ff ff ff    	jne    312a <loc_category_get_id+0xca>
    31f4:	e8 67 e7 01 00       	call   21960 <__errno>
    31f9:	8b 00                	mov    (%eax),%eax
    31fb:	eb 9f                	jmp    319c <loc_category_get_id+0x13c>
    31fd:	8d 76 00             	lea    0x0(%esi),%esi
    3200:	8b 55 0c             	mov    0xc(%ebp),%edx
    3203:	85 d2                	test   %edx,%edx
    3205:	74 95                	je     319c <loc_category_get_id+0x13c>
    3207:	8b 55 0c             	mov    0xc(%ebp),%edx
    320a:	c7 02 ff ff ff ff    	movl   $0xffffffff,(%edx)
    3210:	8d 65 f4             	lea    -0xc(%ebp),%esp
    3213:	5b                   	pop    %ebx
    3214:	5e                   	pop    %esi
    3215:	5f                   	pop    %edi
    3216:	5d                   	pop    %ebp
    3217:	c3                   	ret    
    3218:	52                   	push   %edx
    3219:	6a 00                	push   $0x0
    321b:	68 c1 7e 8f c7       	push   $0xc78f7ec1
    3220:	68 6c 6f 63 20       	push   $0x20636f6c
    3225:	e8 26 1e 01 00       	call   15050 <service_connect_blocking>
    322a:	83 c4 10             	add    $0x10,%esp
    322d:	a3 78 71 02 00       	mov    %eax,0x27178
    3232:	e9 54 fe ff ff       	jmp    308b <loc_category_get_id+0x2b>
    3237:	90                   	nop
    3238:	83 ec 0c             	sub    $0xc,%esp
    323b:	57                   	push   %edi
    323c:	e8 ef 45 01 00       	call   17830 <async_forget>
    3241:	8b 45 c0             	mov    -0x40(%ebp),%eax
    3244:	83 c4 10             	add    $0x10,%esp
    3247:	8d 65 f4             	lea    -0xc(%ebp),%esp
    324a:	5b                   	pop    %ebx
    324b:	5e                   	pop    %esi
    324c:	5f                   	pop    %edi
    324d:	5d                   	pop    %ebp
    324e:	c3                   	ret    
    324f:	50                   	push   %eax
    3250:	6a 00                	push   $0x0
    3252:	68 c1 7e 8f c7       	push   $0xc78f7ec1
    3257:	68 6c 6f 63 20       	push   $0x20636f6c
    325c:	e8 7f 1d 01 00       	call   14fe0 <service_connect>
    3261:	83 c4 10             	add    $0x10,%esp
    3264:	a3 70 71 02 00       	mov    %eax,0x27170
    3269:	e9 57 ff ff ff       	jmp    31c5 <loc_category_get_id+0x165>
    326e:	31 c0                	xor    %eax,%eax
    3270:	e9 27 ff ff ff       	jmp    319c <loc_category_get_id+0x13c>
    3275:	8d 74 26 00          	lea    0x0(%esi,%eiz,1),%esi
    3279:	8d bc 27 00 00 00 00 	lea    0x0(%edi,%eiz,1),%edi

00003280 <loc_id_probe>:
    3280:	55                   	push   %ebp
    3281:	89 e5                	mov    %esp,%ebp
    3283:	56                   	push   %esi
    3284:	53                   	push   %ebx
    3285:	83 ec 1c             	sub    $0x1c,%esp
    3288:	68 f4 6e 02 00       	push   $0x26ef4
    328d:	e8 7e 62 00 00       	call   9510 <fibril_mutex_lock>
    3292:	a1 78 71 02 00       	mov    0x27178,%eax
    3297:	83 c4 10             	add    $0x10,%esp
    329a:	85 c0                	test   %eax,%eax
    329c:	75 46                	jne    32e4 <loc_id_probe+0x64>
    329e:	83 ec 0c             	sub    $0xc,%esp
    32a1:	8b 1d 70 71 02 00    	mov    0x27170,%ebx
    32a7:	68 d4 6e 02 00       	push   $0x26ed4
    32ac:	e8 5f 62 00 00       	call   9510 <fibril_mutex_lock>
    32b1:	a1 78 71 02 00       	mov    0x27178,%eax
    32b6:	83 c4 10             	add    $0x10,%esp
    32b9:	85 c0                	test   %eax,%eax
    32bb:	75 0a                	jne    32c7 <loc_id_probe+0x47>
    32bd:	85 db                	test   %ebx,%ebx
    32bf:	74 06                	je     32c7 <loc_id_probe+0x47>
    32c1:	89 1d 78 71 02 00    	mov    %ebx,0x27178
    32c7:	83 ec 0c             	sub    $0xc,%esp
    32ca:	68 d4 6e 02 00       	push   $0x26ed4
    32cf:	e8 bc 63 00 00       	call   9690 <fibril_mutex_unlock>
    32d4:	a1 78 71 02 00       	mov    0x27178,%eax
    32d9:	83 c4 10             	add    $0x10,%esp
    32dc:	85 c0                	test   %eax,%eax
    32de:	0f 84 94 00 00 00    	je     3378 <loc_id_probe+0xf8>
    32e4:	83 ec 0c             	sub    $0xc,%esp
    32e7:	68 f4 6e 02 00       	push   $0x26ef4
    32ec:	e8 9f 63 00 00       	call   9690 <fibril_mutex_unlock>
    32f1:	c7 04 24 d4 6e 02 00 	movl   $0x26ed4,(%esp)
    32f8:	8b 1d 78 71 02 00    	mov    0x27178,%ebx
    32fe:	e8 0d 62 00 00       	call   9510 <fibril_mutex_lock>
    3303:	8b 35 70 71 02 00    	mov    0x27170,%esi
    3309:	83 c4 10             	add    $0x10,%esp
    330c:	85 f6                	test   %esi,%esi
    330e:	75 0a                	jne    331a <loc_id_probe+0x9a>
    3310:	85 db                	test   %ebx,%ebx
    3312:	74 06                	je     331a <loc_id_probe+0x9a>
    3314:	89 1d 70 71 02 00    	mov    %ebx,0x27170
    331a:	83 ec 0c             	sub    $0xc,%esp
    331d:	68 d4 6e 02 00       	push   $0x26ed4
    3322:	e8 69 63 00 00       	call   9690 <fibril_mutex_unlock>
    3327:	8b 15 78 71 02 00    	mov    0x27178,%edx
    332d:	58                   	pop    %eax
    332e:	52                   	push   %edx
    332f:	e8 6c 59 01 00       	call   18ca0 <async_exchange_begin>
    3334:	83 c4 0c             	add    $0xc,%esp
    3337:	89 c3                	mov    %eax,%ebx
    3339:	8b 4d 08             	mov    0x8(%ebp),%ecx
    333c:	8d 45 f4             	lea    -0xc(%ebp),%eax
    333f:	6a 00                	push   $0x0
    3341:	6a 00                	push   $0x0
    3343:	6a 00                	push   $0x0
    3345:	6a 00                	push   $0x0
    3347:	50                   	push   %eax
    3348:	6a 00                	push   $0x0
    334a:	6a 00                	push   $0x0
    334c:	6a 00                	push   $0x0
    334e:	51                   	push   %ecx
    334f:	68 0d 04 00 00       	push   $0x40d
    3354:	53                   	push   %ebx
    3355:	e8 46 47 01 00       	call   17aa0 <async_req_fast>
    335a:	83 c4 24             	add    $0x24,%esp
    335d:	89 c6                	mov    %eax,%esi
    335f:	53                   	push   %ebx
    3360:	e8 2b 5c 01 00       	call   18f90 <async_exchange_end>
    3365:	83 c4 10             	add    $0x10,%esp
    3368:	31 c0                	xor    %eax,%eax
    336a:	85 f6                	test   %esi,%esi
    336c:	75 03                	jne    3371 <loc_id_probe+0xf1>
    336e:	8b 45 f4             	mov    -0xc(%ebp),%eax
    3371:	8d 65 f8             	lea    -0x8(%ebp),%esp
    3374:	5b                   	pop    %ebx
    3375:	5e                   	pop    %esi
    3376:	5d                   	pop    %ebp
    3377:	c3                   	ret    
    3378:	50                   	push   %eax
    3379:	6a 00                	push   $0x0
    337b:	68 c1 7e 8f c7       	push   $0xc78f7ec1
    3380:	68 6c 6f 63 20       	push   $0x20636f6c
    3385:	e8 c6 1c 01 00       	call   15050 <service_connect_blocking>
    338a:	83 c4 10             	add    $0x10,%esp
    338d:	a3 78 71 02 00       	mov    %eax,0x27178
    3392:	e9 03 ff ff ff       	jmp    329a <loc_id_probe+0x1a>
    3397:	89 f6                	mov    %esi,%esi
    3399:	8d bc 27 00 00 00 00 	lea    0x0(%edi,%eiz,1),%edi

000033a0 <loc_service_connect>:
    33a0:	55                   	push   %ebp
    33a1:	89 e5                	mov    %esp,%ebp
    33a3:	8b 55 08             	mov    0x8(%ebp),%edx
    33a6:	f6 45 10 01          	testb  $0x1,0x10(%ebp)
    33aa:	8b 45 0c             	mov    0xc(%ebp),%eax
    33ad:	89 55 10             	mov    %edx,0x10(%ebp)
    33b0:	75 16                	jne    33c8 <loc_service_connect+0x28>
    33b2:	89 45 0c             	mov    %eax,0xc(%ebp)
    33b5:	c7 45 08 6c 6f 63 20 	movl   $0x20636f6c,0x8(%ebp)
    33bc:	5d                   	pop    %ebp
    33bd:	e9 1e 1c 01 00       	jmp    14fe0 <service_connect>
    33c2:	8d b6 00 00 00 00    	lea    0x0(%esi),%esi
    33c8:	c7 45 08 6c 6f 63 20 	movl   $0x20636f6c,0x8(%ebp)
    33cf:	5d                   	pop    %ebp
    33d0:	e9 7b 1c 01 00       	jmp    15050 <service_connect_blocking>
    33d5:	8d 74 26 00          	lea    0x0(%esi,%eiz,1),%esi
    33d9:	8d bc 27 00 00 00 00 	lea    0x0(%edi,%eiz,1),%edi

000033e0 <loc_null_create>:
    33e0:	55                   	push   %ebp
    33e1:	89 e5                	mov    %esp,%ebp
    33e3:	56                   	push   %esi
    33e4:	53                   	push   %ebx
    33e5:	83 ec 1c             	sub    $0x1c,%esp
    33e8:	68 f4 6e 02 00       	push   $0x26ef4
    33ed:	e8 1e 61 00 00       	call   9510 <fibril_mutex_lock>
    33f2:	a1 78 71 02 00       	mov    0x27178,%eax
    33f7:	83 c4 10             	add    $0x10,%esp
    33fa:	85 c0                	test   %eax,%eax
    33fc:	75 47                	jne    3445 <loc_null_create+0x65>
    33fe:	83 ec 0c             	sub    $0xc,%esp
    3401:	8b 1d 70 71 02 00    	mov    0x27170,%ebx
    3407:	68 d4 6e 02 00       	push   $0x26ed4
    340c:	e8 ff 60 00 00       	call   9510 <fibril_mutex_lock>
    3411:	a1 78 71 02 00       	mov    0x27178,%eax
    3416:	83 c4 10             	add    $0x10,%esp
    3419:	85 c0                	test   %eax,%eax
    341b:	75 0a                	jne    3427 <loc_null_create+0x47>
    341d:	85 db                	test   %ebx,%ebx
    341f:	74 06                	je     3427 <loc_null_create+0x47>
    3421:	89 1d 78 71 02 00    	mov    %ebx,0x27178
    3427:	83 ec 0c             	sub    $0xc,%esp
    342a:	68 d4 6e 02 00       	push   $0x26ed4
    342f:	e8 5c 62 00 00       	call   9690 <fibril_mutex_unlock>
    3434:	8b 35 78 71 02 00    	mov    0x27178,%esi
    343a:	83 c4 10             	add    $0x10,%esp
    343d:	85 f6                	test   %esi,%esi
    343f:	0f 84 93 00 00 00    	je     34d8 <loc_null_create+0xf8>
    3445:	83 ec 0c             	sub    $0xc,%esp
    3448:	68 f4 6e 02 00       	push   $0x26ef4
    344d:	e8 3e 62 00 00       	call   9690 <fibril_mutex_unlock>
    3452:	c7 04 24 d4 6e 02 00 	movl   $0x26ed4,(%esp)
    3459:	8b 1d 78 71 02 00    	mov    0x27178,%ebx
    345f:	e8 ac 60 00 00       	call   9510 <fibril_mutex_lock>
    3464:	8b 0d 70 71 02 00    	mov    0x27170,%ecx
    346a:	83 c4 10             	add    $0x10,%esp
    346d:	85 c9                	test   %ecx,%ecx
    346f:	75 0a                	jne    347b <loc_null_create+0x9b>
    3471:	85 db                	test   %ebx,%ebx
    3473:	74 06                	je     347b <loc_null_create+0x9b>
    3475:	89 1d 70 71 02 00    	mov    %ebx,0x27170
    347b:	83 ec 0c             	sub    $0xc,%esp
    347e:	68 d4 6e 02 00       	push   $0x26ed4
    3483:	e8 08 62 00 00       	call   9690 <fibril_mutex_unlock>
    3488:	8b 15 78 71 02 00    	mov    0x27178,%edx
    348e:	58                   	pop    %eax
    348f:	52                   	push   %edx
    3490:	e8 0b 58 01 00       	call   18ca0 <async_exchange_begin>
    3495:	83 c4 0c             	add    $0xc,%esp
    3498:	89 c3                	mov    %eax,%ebx
    349a:	8d 45 f4             	lea    -0xc(%ebp),%eax
    349d:	6a 00                	push   $0x0
    349f:	6a 00                	push   $0x0
    34a1:	6a 00                	push   $0x0
    34a3:	6a 00                	push   $0x0
    34a5:	50                   	push   %eax
    34a6:	6a 00                	push   $0x0
    34a8:	6a 00                	push   $0x0
    34aa:	6a 00                	push   $0x0
    34ac:	6a 00                	push   $0x0
    34ae:	68 0e 04 00 00       	push   $0x40e
    34b3:	53                   	push   %ebx
    34b4:	e8 e7 45 01 00       	call   17aa0 <async_req_fast>
    34b9:	83 c4 24             	add    $0x24,%esp
    34bc:	89 c6                	mov    %eax,%esi
    34be:	53                   	push   %ebx
    34bf:	e8 cc 5a 01 00       	call   18f90 <async_exchange_end>
    34c4:	83 c4 10             	add    $0x10,%esp
    34c7:	85 f6                	test   %esi,%esi
    34c9:	75 2c                	jne    34f7 <loc_null_create+0x117>
    34cb:	8b 45 f4             	mov    -0xc(%ebp),%eax
    34ce:	8d 65 f8             	lea    -0x8(%ebp),%esp
    34d1:	5b                   	pop    %ebx
    34d2:	5e                   	pop    %esi
    34d3:	5d                   	pop    %ebp
    34d4:	c3                   	ret    
    34d5:	8d 76 00             	lea    0x0(%esi),%esi
    34d8:	53                   	push   %ebx
    34d9:	6a 00                	push   $0x0
    34db:	68 c1 7e 8f c7       	push   $0xc78f7ec1
    34e0:	68 6c 6f 63 20       	push   $0x20636f6c
    34e5:	e8 66 1b 01 00       	call   15050 <service_connect_blocking>
    34ea:	83 c4 10             	add    $0x10,%esp
    34ed:	a3 78 71 02 00       	mov    %eax,0x27178
    34f2:	e9 03 ff ff ff       	jmp    33fa <loc_null_create+0x1a>
    34f7:	83 c8 ff             	or     $0xffffffff,%eax
    34fa:	eb d2                	jmp    34ce <loc_null_create+0xee>
    34fc:	8d 74 26 00          	lea    0x0(%esi,%eiz,1),%esi

00003500 <loc_null_destroy>:
    3500:	55                   	push   %ebp
    3501:	89 e5                	mov    %esp,%ebp
    3503:	56                   	push   %esi
    3504:	53                   	push   %ebx
    3505:	83 ec 0c             	sub    $0xc,%esp
    3508:	8b 75 08             	mov    0x8(%ebp),%esi
    350b:	68 f4 6e 02 00       	push   $0x26ef4
    3510:	e8 fb 5f 00 00       	call   9510 <fibril_mutex_lock>
    3515:	a1 78 71 02 00       	mov    0x27178,%eax
    351a:	83 c4 10             	add    $0x10,%esp
    351d:	85 c0                	test   %eax,%eax
    351f:	75 46                	jne    3567 <loc_null_destroy+0x67>
    3521:	83 ec 0c             	sub    $0xc,%esp
    3524:	8b 1d 70 71 02 00    	mov    0x27170,%ebx
    352a:	68 d4 6e 02 00       	push   $0x26ed4
    352f:	e8 dc 5f 00 00       	call   9510 <fibril_mutex_lock>
    3534:	a1 78 71 02 00       	mov    0x27178,%eax
    3539:	83 c4 10             	add    $0x10,%esp
    353c:	85 c0                	test   %eax,%eax
    353e:	75 0a                	jne    354a <loc_null_destroy+0x4a>
    3540:	85 db                	test   %ebx,%ebx
    3542:	74 06                	je     354a <loc_null_destroy+0x4a>
    3544:	89 1d 78 71 02 00    	mov    %ebx,0x27178
    354a:	83 ec 0c             	sub    $0xc,%esp
    354d:	68 d4 6e 02 00       	push   $0x26ed4
    3552:	e8 39 61 00 00       	call   9690 <fibril_mutex_unlock>
    3557:	a1 78 71 02 00       	mov    0x27178,%eax
    355c:	83 c4 10             	add    $0x10,%esp
    355f:	85 c0                	test   %eax,%eax
    3561:	0f 84 89 00 00 00    	je     35f0 <loc_null_destroy+0xf0>
    3567:	83 ec 0c             	sub    $0xc,%esp
    356a:	68 f4 6e 02 00       	push   $0x26ef4
    356f:	e8 1c 61 00 00       	call   9690 <fibril_mutex_unlock>
    3574:	c7 04 24 d4 6e 02 00 	movl   $0x26ed4,(%esp)
    357b:	8b 1d 78 71 02 00    	mov    0x27178,%ebx
    3581:	e8 8a 5f 00 00       	call   9510 <fibril_mutex_lock>
    3586:	8b 0d 70 71 02 00    	mov    0x27170,%ecx
    358c:	83 c4 10             	add    $0x10,%esp
    358f:	85 c9                	test   %ecx,%ecx
    3591:	75 0a                	jne    359d <loc_null_destroy+0x9d>
    3593:	85 db                	test   %ebx,%ebx
    3595:	74 06                	je     359d <loc_null_destroy+0x9d>
    3597:	89 1d 70 71 02 00    	mov    %ebx,0x27170
    359d:	83 ec 0c             	sub    $0xc,%esp
    35a0:	68 d4 6e 02 00       	push   $0x26ed4
    35a5:	e8 e6 60 00 00       	call   9690 <fibril_mutex_unlock>
    35aa:	8b 15 78 71 02 00    	mov    0x27178,%edx
    35b0:	58                   	pop    %eax
    35b1:	52                   	push   %edx
    35b2:	e8 e9 56 01 00       	call   18ca0 <async_exchange_begin>
    35b7:	83 c4 0c             	add    $0xc,%esp
    35ba:	89 c3                	mov    %eax,%ebx
    35bc:	6a 00                	push   $0x0
    35be:	6a 00                	push   $0x0
    35c0:	6a 00                	push   $0x0
    35c2:	6a 00                	push   $0x0
    35c4:	6a 00                	push   $0x0
    35c6:	6a 00                	push   $0x0
    35c8:	6a 00                	push   $0x0
    35ca:	6a 00                	push   $0x0
    35cc:	56                   	push   %esi
    35cd:	68 0f 04 00 00       	push   $0x40f
    35d2:	50                   	push   %eax
    35d3:	e8 c8 44 01 00       	call   17aa0 <async_req_fast>
    35d8:	89 5d 08             	mov    %ebx,0x8(%ebp)
    35db:	83 c4 30             	add    $0x30,%esp
    35de:	8d 65 f8             	lea    -0x8(%ebp),%esp
    35e1:	5b                   	pop    %ebx
    35e2:	5e                   	pop    %esi
    35e3:	5d                   	pop    %ebp
    35e4:	e9 a7 59 01 00       	jmp    18f90 <async_exchange_end>
    35e9:	8d b4 26 00 00 00 00 	lea    0x0(%esi,%eiz,1),%esi
    35f0:	53                   	push   %ebx
    35f1:	6a 00                	push   $0x0
    35f3:	68 c1 7e 8f c7       	push   $0xc78f7ec1
    35f8:	68 6c 6f 63 20       	push   $0x20636f6c
    35fd:	e8 4e 1a 01 00       	call   15050 <service_connect_blocking>
    3602:	83 c4 10             	add    $0x10,%esp
    3605:	a3 78 71 02 00       	mov    %eax,0x27178
    360a:	e9 0e ff ff ff       	jmp    351d <loc_null_destroy+0x1d>
    360f:	90                   	nop

00003610 <loc_service_add_to_cat>:
    3610:	55                   	push   %ebp
    3611:	89 e5                	mov    %esp,%ebp
    3613:	53                   	push   %ebx
    3614:	83 ec 20             	sub    $0x20,%esp
    3617:	68 04 6f 02 00       	push   $0x26f04
    361c:	e8 ef 5e 00 00       	call   9510 <fibril_mutex_lock>
    3621:	a1 7c 71 02 00       	mov    0x2717c,%eax
    3626:	83 c4 10             	add    $0x10,%esp
    3629:	85 c0                	test   %eax,%eax
    362b:	75 46                	jne    3673 <loc_service_add_to_cat+0x63>
    362d:	83 ec 0c             	sub    $0xc,%esp
    3630:	8b 1d 74 71 02 00    	mov    0x27174,%ebx
    3636:	68 e4 6e 02 00       	push   $0x26ee4
    363b:	e8 d0 5e 00 00       	call   9510 <fibril_mutex_lock>
    3640:	a1 7c 71 02 00       	mov    0x2717c,%eax
    3645:	83 c4 10             	add    $0x10,%esp
    3648:	85 c0                	test   %eax,%eax
    364a:	75 0a                	jne    3656 <loc_service_add_to_cat+0x46>
    364c:	85 db                	test   %ebx,%ebx
    364e:	74 06                	je     3656 <loc_service_add_to_cat+0x46>
    3650:	89 1d 7c 71 02 00    	mov    %ebx,0x2717c
    3656:	83 ec 0c             	sub    $0xc,%esp
    3659:	68 e4 6e 02 00       	push   $0x26ee4
    365e:	e8 2d 60 00 00       	call   9690 <fibril_mutex_unlock>
    3663:	a1 7c 71 02 00       	mov    0x2717c,%eax
    3668:	83 c4 10             	add    $0x10,%esp
    366b:	85 c0                	test   %eax,%eax
    366d:	0f 84 8d 00 00 00    	je     3700 <loc_service_add_to_cat+0xf0>
    3673:	83 ec 0c             	sub    $0xc,%esp
    3676:	68 04 6f 02 00       	push   $0x26f04
    367b:	e8 10 60 00 00       	call   9690 <fibril_mutex_unlock>
    3680:	c7 04 24 e4 6e 02 00 	movl   $0x26ee4,(%esp)
    3687:	8b 1d 7c 71 02 00    	mov    0x2717c,%ebx
    368d:	e8 7e 5e 00 00       	call   9510 <fibril_mutex_lock>
    3692:	a1 74 71 02 00       	mov    0x27174,%eax
    3697:	83 c4 10             	add    $0x10,%esp
    369a:	85 c0                	test   %eax,%eax
    369c:	75 0a                	jne    36a8 <loc_service_add_to_cat+0x98>
    369e:	85 db                	test   %ebx,%ebx
    36a0:	74 06                	je     36a8 <loc_service_add_to_cat+0x98>
    36a2:	89 1d 74 71 02 00    	mov    %ebx,0x27174
    36a8:	83 ec 0c             	sub    $0xc,%esp
    36ab:	68 e4 6e 02 00       	push   $0x26ee4
    36b0:	e8 db 5f 00 00       	call   9690 <fibril_mutex_unlock>
    36b5:	8b 15 7c 71 02 00    	mov    0x2717c,%edx
    36bb:	58                   	pop    %eax
    36bc:	52                   	push   %edx
    36bd:	e8 de 55 01 00       	call   18ca0 <async_exchange_begin>
    36c2:	83 c4 0c             	add    $0xc,%esp
    36c5:	89 c3                	mov    %eax,%ebx
    36c7:	8b 4d 0c             	mov    0xc(%ebp),%ecx
    36ca:	8b 45 08             	mov    0x8(%ebp),%eax
    36cd:	6a 00                	push   $0x0
    36cf:	6a 00                	push   $0x0
    36d1:	6a 00                	push   $0x0
    36d3:	6a 00                	push   $0x0
    36d5:	6a 00                	push   $0x0
    36d7:	6a 00                	push   $0x0
    36d9:	6a 00                	push   $0x0
    36db:	51                   	push   %ecx
    36dc:	50                   	push   %eax
    36dd:	68 02 04 00 00       	push   $0x402
    36e2:	53                   	push   %ebx
    36e3:	e8 b8 43 01 00       	call   17aa0 <async_req_fast>
    36e8:	83 c4 24             	add    $0x24,%esp
    36eb:	89 45 f4             	mov    %eax,-0xc(%ebp)
    36ee:	53                   	push   %ebx
    36ef:	e8 9c 58 01 00       	call   18f90 <async_exchange_end>
    36f4:	8b 45 f4             	mov    -0xc(%ebp),%eax
    36f7:	8b 5d fc             	mov    -0x4(%ebp),%ebx
    36fa:	c9                   	leave  
    36fb:	c3                   	ret    
    36fc:	8d 74 26 00          	lea    0x0(%esi,%eiz,1),%esi
    3700:	50                   	push   %eax
    3701:	6a 00                	push   $0x0
    3703:	68 c1 7e 8f e7       	push   $0xe78f7ec1
    3708:	68 6c 6f 63 20       	push   $0x20636f6c
    370d:	e8 3e 19 01 00       	call   15050 <service_connect_blocking>
    3712:	83 c4 10             	add    $0x10,%esp
    3715:	a3 7c 71 02 00       	mov    %eax,0x2717c
    371a:	e9 0a ff ff ff       	jmp    3629 <loc_service_add_to_cat+0x19>
    371f:	90                   	nop

00003720 <loc_count_namespaces>:
    3720:	55                   	push   %ebp
    3721:	89 e5                	mov    %esp,%ebp
    3723:	56                   	push   %esi
    3724:	53                   	push   %ebx
    3725:	83 ec 1c             	sub    $0x1c,%esp
    3728:	68 f4 6e 02 00       	push   $0x26ef4
    372d:	e8 de 5d 00 00       	call   9510 <fibril_mutex_lock>
    3732:	a1 78 71 02 00       	mov    0x27178,%eax
    3737:	83 c4 10             	add    $0x10,%esp
    373a:	85 c0                	test   %eax,%eax
    373c:	75 47                	jne    3785 <loc_count_namespaces+0x65>
    373e:	83 ec 0c             	sub    $0xc,%esp
    3741:	8b 1d 70 71 02 00    	mov    0x27170,%ebx
    3747:	68 d4 6e 02 00       	push   $0x26ed4
    374c:	e8 bf 5d 00 00       	call   9510 <fibril_mutex_lock>
    3751:	a1 78 71 02 00       	mov    0x27178,%eax
    3756:	83 c4 10             	add    $0x10,%esp
    3759:	85 c0                	test   %eax,%eax
    375b:	75 0a                	jne    3767 <loc_count_namespaces+0x47>
    375d:	85 db                	test   %ebx,%ebx
    375f:	74 06                	je     3767 <loc_count_namespaces+0x47>
    3761:	89 1d 78 71 02 00    	mov    %ebx,0x27178
    3767:	83 ec 0c             	sub    $0xc,%esp
    376a:	68 d4 6e 02 00       	push   $0x26ed4
    376f:	e8 1c 5f 00 00       	call   9690 <fibril_mutex_unlock>
    3774:	8b 35 78 71 02 00    	mov    0x27178,%esi
    377a:	83 c4 10             	add    $0x10,%esp
    377d:	85 f6                	test   %esi,%esi
    377f:	0f 84 93 00 00 00    	je     3818 <loc_count_namespaces+0xf8>
    3785:	83 ec 0c             	sub    $0xc,%esp
    3788:	68 f4 6e 02 00       	push   $0x26ef4
    378d:	e8 fe 5e 00 00       	call   9690 <fibril_mutex_unlock>
    3792:	c7 04 24 d4 6e 02 00 	movl   $0x26ed4,(%esp)
    3799:	8b 1d 78 71 02 00    	mov    0x27178,%ebx
    379f:	e8 6c 5d 00 00       	call   9510 <fibril_mutex_lock>
    37a4:	8b 0d 70 71 02 00    	mov    0x27170,%ecx
    37aa:	83 c4 10             	add    $0x10,%esp
    37ad:	85 c9                	test   %ecx,%ecx
    37af:	75 0a                	jne    37bb <loc_count_namespaces+0x9b>
    37b1:	85 db                	test   %ebx,%ebx
    37b3:	74 06                	je     37bb <loc_count_namespaces+0x9b>
    37b5:	89 1d 70 71 02 00    	mov    %ebx,0x27170
    37bb:	83 ec 0c             	sub    $0xc,%esp
    37be:	31 f6                	xor    %esi,%esi
    37c0:	68 d4 6e 02 00       	push   $0x26ed4
    37c5:	e8 c6 5e 00 00       	call   9690 <fibril_mutex_unlock>
    37ca:	8b 15 78 71 02 00    	mov    0x27178,%edx
    37d0:	58                   	pop    %eax
    37d1:	52                   	push   %edx
    37d2:	e8 c9 54 01 00       	call   18ca0 <async_exchange_begin>
    37d7:	83 c4 0c             	add    $0xc,%esp
    37da:	89 c3                	mov    %eax,%ebx
    37dc:	8d 45 f4             	lea    -0xc(%ebp),%eax
    37df:	6a 00                	push   $0x0
    37e1:	6a 00                	push   $0x0
    37e3:	6a 00                	push   $0x0
    37e5:	6a 00                	push   $0x0
    37e7:	50                   	push   %eax
    37e8:	6a 00                	push   $0x0
    37ea:	6a 00                	push   $0x0
    37ec:	6a 00                	push   $0x0
    37ee:	6a 00                	push   $0x0
    37f0:	68 10 04 00 00       	push   $0x410
    37f5:	53                   	push   %ebx
    37f6:	e8 a5 42 01 00       	call   17aa0 <async_req_fast>
    37fb:	83 c4 30             	add    $0x30,%esp
    37fe:	85 c0                	test   %eax,%eax
    3800:	75 03                	jne    3805 <loc_count_namespaces+0xe5>
    3802:	8b 75 f4             	mov    -0xc(%ebp),%esi
    3805:	83 ec 0c             	sub    $0xc,%esp
    3808:	53                   	push   %ebx
    3809:	e8 82 57 01 00       	call   18f90 <async_exchange_end>
    380e:	8d 65 f8             	lea    -0x8(%ebp),%esp
    3811:	89 f0                	mov    %esi,%eax
    3813:	5b                   	pop    %ebx
    3814:	5e                   	pop    %esi
    3815:	5d                   	pop    %ebp
    3816:	c3                   	ret    
    3817:	90                   	nop
    3818:	53                   	push   %ebx
    3819:	6a 00                	push   $0x0
    381b:	68 c1 7e 8f c7       	push   $0xc78f7ec1
    3820:	68 6c 6f 63 20       	push   $0x20636f6c
    3825:	e8 26 18 01 00       	call   15050 <service_connect_blocking>
    382a:	83 c4 10             	add    $0x10,%esp
    382d:	a3 78 71 02 00       	mov    %eax,0x27178
    3832:	e9 03 ff ff ff       	jmp    373a <loc_count_namespaces+0x1a>
    3837:	89 f6                	mov    %esi,%esi
    3839:	8d bc 27 00 00 00 00 	lea    0x0(%edi,%eiz,1),%edi

00003840 <loc_count_services>:
    3840:	55                   	push   %ebp
    3841:	89 e5                	mov    %esp,%ebp
    3843:	56                   	push   %esi
    3844:	53                   	push   %ebx
    3845:	83 ec 1c             	sub    $0x1c,%esp
    3848:	68 f4 6e 02 00       	push   $0x26ef4
    384d:	e8 be 5c 00 00       	call   9510 <fibril_mutex_lock>
    3852:	a1 78 71 02 00       	mov    0x27178,%eax
    3857:	83 c4 10             	add    $0x10,%esp
    385a:	85 c0                	test   %eax,%eax
    385c:	75 46                	jne    38a4 <loc_count_services+0x64>
    385e:	83 ec 0c             	sub    $0xc,%esp
    3861:	8b 1d 70 71 02 00    	mov    0x27170,%ebx
    3867:	68 d4 6e 02 00       	push   $0x26ed4
    386c:	e8 9f 5c 00 00       	call   9510 <fibril_mutex_lock>
    3871:	a1 78 71 02 00       	mov    0x27178,%eax
    3876:	83 c4 10             	add    $0x10,%esp
    3879:	85 c0                	test   %eax,%eax
    387b:	75 0a                	jne    3887 <loc_count_services+0x47>
    387d:	85 db                	test   %ebx,%ebx
    387f:	74 06                	je     3887 <loc_count_services+0x47>
    3881:	89 1d 78 71 02 00    	mov    %ebx,0x27178
    3887:	83 ec 0c             	sub    $0xc,%esp
    388a:	68 d4 6e 02 00       	push   $0x26ed4
    388f:	e8 fc 5d 00 00       	call   9690 <fibril_mutex_unlock>
    3894:	a1 78 71 02 00       	mov    0x27178,%eax
    3899:	83 c4 10             	add    $0x10,%esp
    389c:	85 c0                	test   %eax,%eax
    389e:	0f 84 94 00 00 00    	je     3938 <loc_count_services+0xf8>
    38a4:	83 ec 0c             	sub    $0xc,%esp
    38a7:	68 f4 6e 02 00       	push   $0x26ef4
    38ac:	e8 df 5d 00 00       	call   9690 <fibril_mutex_unlock>
    38b1:	c7 04 24 d4 6e 02 00 	movl   $0x26ed4,(%esp)
    38b8:	8b 1d 78 71 02 00    	mov    0x27178,%ebx
    38be:	e8 4d 5c 00 00       	call   9510 <fibril_mutex_lock>
    38c3:	8b 35 70 71 02 00    	mov    0x27170,%esi
    38c9:	83 c4 10             	add    $0x10,%esp
    38cc:	85 f6                	test   %esi,%esi
    38ce:	75 0a                	jne    38da <loc_count_services+0x9a>
    38d0:	85 db                	test   %ebx,%ebx
    38d2:	74 06                	je     38da <loc_count_services+0x9a>
    38d4:	89 1d 70 71 02 00    	mov    %ebx,0x27170
    38da:	83 ec 0c             	sub    $0xc,%esp
    38dd:	31 f6                	xor    %esi,%esi
    38df:	68 d4 6e 02 00       	push   $0x26ed4
    38e4:	e8 a7 5d 00 00       	call   9690 <fibril_mutex_unlock>
    38e9:	8b 15 78 71 02 00    	mov    0x27178,%edx
    38ef:	58                   	pop    %eax
    38f0:	52                   	push   %edx
    38f1:	e8 aa 53 01 00       	call   18ca0 <async_exchange_begin>
    38f6:	83 c4 0c             	add    $0xc,%esp
    38f9:	89 c3                	mov    %eax,%ebx
    38fb:	8b 4d 08             	mov    0x8(%ebp),%ecx
    38fe:	8d 45 f4             	lea    -0xc(%ebp),%eax
    3901:	6a 00                	push   $0x0
    3903:	6a 00                	push   $0x0
    3905:	6a 00                	push   $0x0
    3907:	6a 00                	push   $0x0
    3909:	50                   	push   %eax
    390a:	6a 00                	push   $0x0
    390c:	6a 00                	push   $0x0
    390e:	6a 00                	push   $0x0
    3910:	51                   	push   %ecx
    3911:	68 11 04 00 00       	push   $0x411
    3916:	53                   	push   %ebx
    3917:	e8 84 41 01 00       	call   17aa0 <async_req_fast>
    391c:	83 c4 30             	add    $0x30,%esp
    391f:	85 c0                	test   %eax,%eax
    3921:	75 03                	jne    3926 <loc_count_services+0xe6>
    3923:	8b 75 f4             	mov    -0xc(%ebp),%esi
    3926:	83 ec 0c             	sub    $0xc,%esp
    3929:	53                   	push   %ebx
    392a:	e8 61 56 01 00       	call   18f90 <async_exchange_end>
    392f:	8d 65 f8             	lea    -0x8(%ebp),%esp
    3932:	89 f0                	mov    %esi,%eax
    3934:	5b                   	pop    %ebx
    3935:	5e                   	pop    %esi
    3936:	5d                   	pop    %ebp
    3937:	c3                   	ret    
    3938:	50                   	push   %eax
    3939:	6a 00                	push   $0x0
    393b:	68 c1 7e 8f c7       	push   $0xc78f7ec1
    3940:	68 6c 6f 63 20       	push   $0x20636f6c
    3945:	e8 06 17 01 00       	call   15050 <service_connect_blocking>
    394a:	83 c4 10             	add    $0x10,%esp
    394d:	a3 78 71 02 00       	mov    %eax,0x27178
    3952:	e9 03 ff ff ff       	jmp    385a <loc_count_services+0x1a>
    3957:	89 f6                	mov    %esi,%esi
    3959:	8d bc 27 00 00 00 00 	lea    0x0(%edi,%eiz,1),%edi

00003960 <loc_get_namespaces>:
    3960:	55                   	push   %ebp
    3961:	89 e5                	mov    %esp,%ebp
    3963:	57                   	push   %edi
    3964:	56                   	push   %esi
    3965:	53                   	push   %ebx
    3966:	83 ec 4c             	sub    $0x4c,%esp
    3969:	83 ec 0c             	sub    $0xc,%esp
    396c:	68 f4 6e 02 00       	push   $0x26ef4
    3971:	e8 9a 5b 00 00       	call   9510 <fibril_mutex_lock>
    3976:	a1 78 71 02 00       	mov    0x27178,%eax
    397b:	83 c4 10             	add    $0x10,%esp
    397e:	85 c0                	test   %eax,%eax
    3980:	75 48                	jne    39ca <loc_get_namespaces+0x6a>
    3982:	83 ec 0c             	sub    $0xc,%esp
    3985:	8b 1d 70 71 02 00    	mov    0x27170,%ebx
    398b:	68 d4 6e 02 00       	push   $0x26ed4
    3990:	e8 7b 5b 00 00       	call   9510 <fibril_mutex_lock>
    3995:	8b 35 78 71 02 00    	mov    0x27178,%esi
    399b:	83 c4 10             	add    $0x10,%esp
    399e:	85 f6                	test   %esi,%esi
    39a0:	75 0a                	jne    39ac <loc_get_namespaces+0x4c>
    39a2:	85 db                	test   %ebx,%ebx
    39a4:	74 06                	je     39ac <loc_get_namespaces+0x4c>
    39a6:	89 1d 78 71 02 00    	mov    %ebx,0x27178
    39ac:	83 ec 0c             	sub    $0xc,%esp
    39af:	68 d4 6e 02 00       	push   $0x26ed4
    39b4:	e8 d7 5c 00 00       	call   9690 <fibril_mutex_unlock>
    39b9:	8b 1d 78 71 02 00    	mov    0x27178,%ebx
    39bf:	83 c4 10             	add    $0x10,%esp
    39c2:	85 db                	test   %ebx,%ebx
    39c4:	0f 84 96 01 00 00    	je     3b60 <loc_get_namespaces+0x200>
    39ca:	83 ec 0c             	sub    $0xc,%esp
    39cd:	68 f4 6e 02 00       	push   $0x26ef4
    39d2:	e8 b9 5c 00 00       	call   9690 <fibril_mutex_unlock>
    39d7:	c7 04 24 d4 6e 02 00 	movl   $0x26ed4,(%esp)
    39de:	8b 1d 78 71 02 00    	mov    0x27178,%ebx
    39e4:	e8 27 5b 00 00       	call   9510 <fibril_mutex_lock>
    39e9:	8b 15 70 71 02 00    	mov    0x27170,%edx
    39ef:	83 c4 10             	add    $0x10,%esp
    39f2:	85 d2                	test   %edx,%edx
    39f4:	75 0a                	jne    3a00 <loc_get_namespaces+0xa0>
    39f6:	85 db                	test   %ebx,%ebx
    39f8:	74 06                	je     3a00 <loc_get_namespaces+0xa0>
    39fa:	89 1d 70 71 02 00    	mov    %ebx,0x27170
    3a00:	83 ec 0c             	sub    $0xc,%esp
    3a03:	68 d4 6e 02 00       	push   $0x26ed4
    3a08:	e8 83 5c 00 00       	call   9690 <fibril_mutex_unlock>
    3a0d:	8b 15 78 71 02 00    	mov    0x27178,%edx
    3a13:	58                   	pop    %eax
    3a14:	52                   	push   %edx
    3a15:	e8 86 52 01 00       	call   18ca0 <async_exchange_begin>
    3a1a:	83 c4 0c             	add    $0xc,%esp
    3a1d:	89 c6                	mov    %eax,%esi
    3a1f:	8d 45 c4             	lea    -0x3c(%ebp),%eax
    3a22:	6a 00                	push   $0x0
    3a24:	6a 00                	push   $0x0
    3a26:	6a 00                	push   $0x0
    3a28:	6a 00                	push   $0x0
    3a2a:	50                   	push   %eax
    3a2b:	6a 00                	push   $0x0
    3a2d:	6a 00                	push   $0x0
    3a2f:	6a 00                	push   $0x0
    3a31:	6a 00                	push   $0x0
    3a33:	68 10 04 00 00       	push   $0x410
    3a38:	56                   	push   %esi
    3a39:	e8 62 40 01 00       	call   17aa0 <async_req_fast>
    3a3e:	83 c4 30             	add    $0x30,%esp
    3a41:	85 c0                	test   %eax,%eax
    3a43:	0f 85 6d 01 00 00    	jne    3bb6 <loc_get_namespaces+0x256>
    3a49:	83 ec 0c             	sub    $0xc,%esp
    3a4c:	8b 5d c4             	mov    -0x3c(%ebp),%ebx
    3a4f:	56                   	push   %esi
    3a50:	e8 3b 55 01 00       	call   18f90 <async_exchange_end>
    3a55:	83 c4 10             	add    $0x10,%esp
    3a58:	85 db                	test   %ebx,%ebx
    3a5a:	0f 84 ef 00 00 00    	je     3b4f <loc_get_namespaces+0x1ef>
    3a60:	50                   	push   %eax
    3a61:	50                   	push   %eax
    3a62:	68 04 01 00 00       	push   $0x104
    3a67:	53                   	push   %ebx
    3a68:	e8 e3 ff 00 00       	call   13a50 <calloc>
    3a6d:	83 c4 10             	add    $0x10,%esp
    3a70:	89 c7                	mov    %eax,%edi
    3a72:	85 c0                	test   %eax,%eax
    3a74:	0f 84 d5 00 00 00    	je     3b4f <loc_get_namespaces+0x1ef>
    3a7a:	83 ec 0c             	sub    $0xc,%esp
    3a7d:	68 d4 6e 02 00       	push   $0x26ed4
    3a82:	e8 89 5a 00 00       	call   9510 <fibril_mutex_lock>
    3a87:	a1 70 71 02 00       	mov    0x27170,%eax
    3a8c:	83 c4 10             	add    $0x10,%esp
    3a8f:	85 c0                	test   %eax,%eax
    3a91:	0f 84 f9 00 00 00    	je     3b90 <loc_get_namespaces+0x230>
    3a97:	83 ec 0c             	sub    $0xc,%esp
    3a9a:	68 d4 6e 02 00       	push   $0x26ed4
    3a9f:	e8 ec 5b 00 00       	call   9690 <fibril_mutex_unlock>
    3aa4:	a1 70 71 02 00       	mov    0x27170,%eax
    3aa9:	83 c4 10             	add    $0x10,%esp
    3aac:	85 c0                	test   %eax,%eax
    3aae:	0f 84 fb 00 00 00    	je     3baf <loc_get_namespaces+0x24f>
    3ab4:	83 ec 0c             	sub    $0xc,%esp
    3ab7:	50                   	push   %eax
    3ab8:	e8 e3 51 01 00       	call   18ca0 <async_exchange_begin>
    3abd:	83 c4 10             	add    $0x10,%esp
    3ac0:	89 c6                	mov    %eax,%esi
    3ac2:	50                   	push   %eax
    3ac3:	8d 45 c4             	lea    -0x3c(%ebp),%eax
    3ac6:	50                   	push   %eax
    3ac7:	6a 00                	push   $0x0
    3ac9:	6a 00                	push   $0x0
    3acb:	6a 00                	push   $0x0
    3acd:	6a 00                	push   $0x0
    3acf:	68 13 04 00 00       	push   $0x413
    3ad4:	56                   	push   %esi
    3ad5:	e8 06 35 01 00       	call   16fe0 <async_send_fast>
    3ada:	89 45 b0             	mov    %eax,-0x50(%ebp)
    3add:	89 d8                	mov    %ebx,%eax
    3adf:	c1 e0 06             	shl    $0x6,%eax
    3ae2:	83 c4 1c             	add    $0x1c,%esp
    3ae5:	01 d8                	add    %ebx,%eax
    3ae7:	c1 e0 02             	shl    $0x2,%eax
    3aea:	50                   	push   %eax
    3aeb:	57                   	push   %edi
    3aec:	56                   	push   %esi
    3aed:	e8 fe 5a 01 00       	call   195f0 <async_data_read_start>
    3af2:	89 34 24             	mov    %esi,(%esp)
    3af5:	89 45 b4             	mov    %eax,-0x4c(%ebp)
    3af8:	e8 93 54 01 00       	call   18f90 <async_exchange_end>
    3afd:	8b 45 b4             	mov    -0x4c(%ebp),%eax
    3b00:	83 c4 10             	add    $0x10,%esp
    3b03:	83 f8 f0             	cmp    $0xfffffff0,%eax
    3b06:	74 77                	je     3b7f <loc_get_namespaces+0x21f>
    3b08:	85 c0                	test   %eax,%eax
    3b0a:	75 2c                	jne    3b38 <loc_get_namespaces+0x1d8>
    3b0c:	8d 45 c0             	lea    -0x40(%ebp),%eax
    3b0f:	8b 75 b0             	mov    -0x50(%ebp),%esi
    3b12:	51                   	push   %ecx
    3b13:	51                   	push   %ecx
    3b14:	50                   	push   %eax
    3b15:	56                   	push   %esi
    3b16:	e8 45 36 01 00       	call   17160 <async_wait_for>
    3b1b:	8b 45 c0             	mov    -0x40(%ebp),%eax
    3b1e:	83 c4 10             	add    $0x10,%esp
    3b21:	85 c0                	test   %eax,%eax
    3b23:	75 2a                	jne    3b4f <loc_get_namespaces+0x1ef>
    3b25:	8b 45 08             	mov    0x8(%ebp),%eax
    3b28:	89 38                	mov    %edi,(%eax)
    3b2a:	8d 65 f4             	lea    -0xc(%ebp),%esp
    3b2d:	89 d8                	mov    %ebx,%eax
    3b2f:	5b                   	pop    %ebx
    3b30:	5e                   	pop    %esi
    3b31:	5f                   	pop    %edi
    3b32:	5d                   	pop    %ebp
    3b33:	c3                   	ret    
    3b34:	8d 74 26 00          	lea    0x0(%esi,%eiz,1),%esi
    3b38:	83 ec 0c             	sub    $0xc,%esp
    3b3b:	8b 45 b0             	mov    -0x50(%ebp),%eax
    3b3e:	50                   	push   %eax
    3b3f:	e8 ec 3c 01 00       	call   17830 <async_forget>
    3b44:	89 3c 24             	mov    %edi,(%esp)
    3b47:	e8 54 01 01 00       	call   13ca0 <free>
    3b4c:	83 c4 10             	add    $0x10,%esp
    3b4f:	31 db                	xor    %ebx,%ebx
    3b51:	8d 65 f4             	lea    -0xc(%ebp),%esp
    3b54:	89 d8                	mov    %ebx,%eax
    3b56:	5b                   	pop    %ebx
    3b57:	5e                   	pop    %esi
    3b58:	5f                   	pop    %edi
    3b59:	5d                   	pop    %ebp
    3b5a:	c3                   	ret    
    3b5b:	90                   	nop
    3b5c:	8d 74 26 00          	lea    0x0(%esi,%eiz,1),%esi
    3b60:	51                   	push   %ecx
    3b61:	6a 00                	push   $0x0
    3b63:	68 c1 7e 8f c7       	push   $0xc78f7ec1
    3b68:	68 6c 6f 63 20       	push   $0x20636f6c
    3b6d:	e8 de 14 01 00       	call   15050 <service_connect_blocking>
    3b72:	83 c4 10             	add    $0x10,%esp
    3b75:	a3 78 71 02 00       	mov    %eax,0x27178
    3b7a:	e9 ff fd ff ff       	jmp    397e <loc_get_namespaces+0x1e>
    3b7f:	83 ec 0c             	sub    $0xc,%esp
    3b82:	57                   	push   %edi
    3b83:	e8 18 01 01 00       	call   13ca0 <free>
    3b88:	83 c4 10             	add    $0x10,%esp
    3b8b:	e9 d9 fd ff ff       	jmp    3969 <loc_get_namespaces+0x9>
    3b90:	50                   	push   %eax
    3b91:	6a 00                	push   $0x0
    3b93:	68 c1 7e 8f c7       	push   $0xc78f7ec1
    3b98:	68 6c 6f 63 20       	push   $0x20636f6c
    3b9d:	e8 3e 14 01 00       	call   14fe0 <service_connect>
    3ba2:	83 c4 10             	add    $0x10,%esp
    3ba5:	a3 70 71 02 00       	mov    %eax,0x27170
    3baa:	e9 e8 fe ff ff       	jmp    3a97 <loc_get_namespaces+0x137>
    3baf:	31 f6                	xor    %esi,%esi
    3bb1:	e9 0c ff ff ff       	jmp    3ac2 <loc_get_namespaces+0x162>
    3bb6:	83 ec 0c             	sub    $0xc,%esp
    3bb9:	31 db                	xor    %ebx,%ebx
    3bbb:	56                   	push   %esi
    3bbc:	e8 cf 53 01 00       	call   18f90 <async_exchange_end>
    3bc1:	83 c4 10             	add    $0x10,%esp
    3bc4:	eb 8b                	jmp    3b51 <loc_get_namespaces+0x1f1>
    3bc6:	8d 76 00             	lea    0x0(%esi),%esi
    3bc9:	8d bc 27 00 00 00 00 	lea    0x0(%edi,%eiz,1),%edi

00003bd0 <loc_get_services>:
    3bd0:	55                   	push   %ebp
    3bd1:	89 e5                	mov    %esp,%ebp
    3bd3:	57                   	push   %edi
    3bd4:	56                   	push   %esi
    3bd5:	53                   	push   %ebx
    3bd6:	83 ec 4c             	sub    $0x4c,%esp
    3bd9:	83 ec 0c             	sub    $0xc,%esp
    3bdc:	68 f4 6e 02 00       	push   $0x26ef4
    3be1:	e8 2a 59 00 00       	call   9510 <fibril_mutex_lock>
    3be6:	a1 78 71 02 00       	mov    0x27178,%eax
    3beb:	83 c4 10             	add    $0x10,%esp
    3bee:	85 c0                	test   %eax,%eax
    3bf0:	75 46                	jne    3c38 <loc_get_services+0x68>
    3bf2:	83 ec 0c             	sub    $0xc,%esp
    3bf5:	8b 1d 70 71 02 00    	mov    0x27170,%ebx
    3bfb:	68 d4 6e 02 00       	push   $0x26ed4
    3c00:	e8 0b 59 00 00       	call   9510 <fibril_mutex_lock>
    3c05:	a1 78 71 02 00       	mov    0x27178,%eax
    3c0a:	83 c4 10             	add    $0x10,%esp
    3c0d:	85 c0                	test   %eax,%eax
    3c0f:	75 0a                	jne    3c1b <loc_get_services+0x4b>
    3c11:	85 db                	test   %ebx,%ebx
    3c13:	74 06                	je     3c1b <loc_get_services+0x4b>
    3c15:	89 1d 78 71 02 00    	mov    %ebx,0x27178
    3c1b:	83 ec 0c             	sub    $0xc,%esp
    3c1e:	68 d4 6e 02 00       	push   $0x26ed4
    3c23:	e8 68 5a 00 00       	call   9690 <fibril_mutex_unlock>
    3c28:	a1 78 71 02 00       	mov    0x27178,%eax
    3c2d:	83 c4 10             	add    $0x10,%esp
    3c30:	85 c0                	test   %eax,%eax
    3c32:	0f 84 98 01 00 00    	je     3dd0 <loc_get_services+0x200>
    3c38:	83 ec 0c             	sub    $0xc,%esp
    3c3b:	68 f4 6e 02 00       	push   $0x26ef4
    3c40:	e8 4b 5a 00 00       	call   9690 <fibril_mutex_unlock>
    3c45:	c7 04 24 d4 6e 02 00 	movl   $0x26ed4,(%esp)
    3c4c:	8b 1d 78 71 02 00    	mov    0x27178,%ebx
    3c52:	e8 b9 58 00 00       	call   9510 <fibril_mutex_lock>
    3c57:	8b 35 70 71 02 00    	mov    0x27170,%esi
    3c5d:	83 c4 10             	add    $0x10,%esp
    3c60:	85 f6                	test   %esi,%esi
    3c62:	75 0a                	jne    3c6e <loc_get_services+0x9e>
    3c64:	85 db                	test   %ebx,%ebx
    3c66:	74 06                	je     3c6e <loc_get_services+0x9e>
    3c68:	89 1d 70 71 02 00    	mov    %ebx,0x27170
    3c6e:	83 ec 0c             	sub    $0xc,%esp
    3c71:	68 d4 6e 02 00       	push   $0x26ed4
    3c76:	e8 15 5a 00 00       	call   9690 <fibril_mutex_unlock>
    3c7b:	8b 15 78 71 02 00    	mov    0x27178,%edx
    3c81:	58                   	pop    %eax
    3c82:	52                   	push   %edx
    3c83:	e8 18 50 01 00       	call   18ca0 <async_exchange_begin>
    3c88:	83 c4 0c             	add    $0xc,%esp
    3c8b:	89 c6                	mov    %eax,%esi
    3c8d:	8b 4d 08             	mov    0x8(%ebp),%ecx
    3c90:	8d 45 c4             	lea    -0x3c(%ebp),%eax
    3c93:	6a 00                	push   $0x0
    3c95:	6a 00                	push   $0x0
    3c97:	6a 00                	push   $0x0
    3c99:	6a 00                	push   $0x0
    3c9b:	50                   	push   %eax
    3c9c:	6a 00                	push   $0x0
    3c9e:	6a 00                	push   $0x0
    3ca0:	6a 00                	push   $0x0
    3ca2:	51                   	push   %ecx
    3ca3:	68 11 04 00 00       	push   $0x411
    3ca8:	56                   	push   %esi
    3ca9:	e8 f2 3d 01 00       	call   17aa0 <async_req_fast>
    3cae:	83 c4 30             	add    $0x30,%esp
    3cb1:	85 c0                	test   %eax,%eax
    3cb3:	0f 85 6d 01 00 00    	jne    3e26 <loc_get_services+0x256>
    3cb9:	83 ec 0c             	sub    $0xc,%esp
    3cbc:	8b 5d c4             	mov    -0x3c(%ebp),%ebx
    3cbf:	56                   	push   %esi
    3cc0:	e8 cb 52 01 00       	call   18f90 <async_exchange_end>
    3cc5:	83 c4 10             	add    $0x10,%esp
    3cc8:	85 db                	test   %ebx,%ebx
    3cca:	0f 84 ef 00 00 00    	je     3dbf <loc_get_services+0x1ef>
    3cd0:	51                   	push   %ecx
    3cd1:	51                   	push   %ecx
    3cd2:	68 04 01 00 00       	push   $0x104
    3cd7:	53                   	push   %ebx
    3cd8:	e8 73 fd 00 00       	call   13a50 <calloc>
    3cdd:	83 c4 10             	add    $0x10,%esp
    3ce0:	89 c7                	mov    %eax,%edi
    3ce2:	85 c0                	test   %eax,%eax
    3ce4:	0f 84 d5 00 00 00    	je     3dbf <loc_get_services+0x1ef>
    3cea:	83 ec 0c             	sub    $0xc,%esp
    3ced:	68 d4 6e 02 00       	push   $0x26ed4
    3cf2:	e8 19 58 00 00       	call   9510 <fibril_mutex_lock>
    3cf7:	8b 15 70 71 02 00    	mov    0x27170,%edx
    3cfd:	83 c4 10             	add    $0x10,%esp
    3d00:	85 d2                	test   %edx,%edx
    3d02:	0f 84 f8 00 00 00    	je     3e00 <loc_get_services+0x230>
    3d08:	83 ec 0c             	sub    $0xc,%esp
    3d0b:	68 d4 6e 02 00       	push   $0x26ed4
    3d10:	e8 7b 59 00 00       	call   9690 <fibril_mutex_unlock>
    3d15:	a1 70 71 02 00       	mov    0x27170,%eax
    3d1a:	83 c4 10             	add    $0x10,%esp
    3d1d:	85 c0                	test   %eax,%eax
    3d1f:	0f 84 fa 00 00 00    	je     3e1f <loc_get_services+0x24f>
    3d25:	83 ec 0c             	sub    $0xc,%esp
    3d28:	50                   	push   %eax
    3d29:	e8 72 4f 01 00       	call   18ca0 <async_exchange_begin>
    3d2e:	83 c4 10             	add    $0x10,%esp
    3d31:	89 c6                	mov    %eax,%esi
    3d33:	50                   	push   %eax
    3d34:	8d 45 c4             	lea    -0x3c(%ebp),%eax
    3d37:	50                   	push   %eax
    3d38:	8b 45 08             	mov    0x8(%ebp),%eax
    3d3b:	6a 00                	push   $0x0
    3d3d:	6a 00                	push   $0x0
    3d3f:	6a 00                	push   $0x0
    3d41:	50                   	push   %eax
    3d42:	68 14 04 00 00       	push   $0x414
    3d47:	56                   	push   %esi
    3d48:	e8 93 32 01 00       	call   16fe0 <async_send_fast>
    3d4d:	83 c4 1c             	add    $0x1c,%esp
    3d50:	89 45 b0             	mov    %eax,-0x50(%ebp)
    3d53:	89 d8                	mov    %ebx,%eax
    3d55:	c1 e0 06             	shl    $0x6,%eax
    3d58:	01 d8                	add    %ebx,%eax
    3d5a:	c1 e0 02             	shl    $0x2,%eax
    3d5d:	50                   	push   %eax
    3d5e:	57                   	push   %edi
    3d5f:	56                   	push   %esi
    3d60:	e8 8b 58 01 00       	call   195f0 <async_data_read_start>
    3d65:	89 34 24             	mov    %esi,(%esp)
    3d68:	89 45 b4             	mov    %eax,-0x4c(%ebp)
    3d6b:	e8 20 52 01 00       	call   18f90 <async_exchange_end>
    3d70:	8b 45 b4             	mov    -0x4c(%ebp),%eax
    3d73:	83 c4 10             	add    $0x10,%esp
    3d76:	83 f8 f0             	cmp    $0xfffffff0,%eax
    3d79:	74 74                	je     3def <loc_get_services+0x21f>
    3d7b:	85 c0                	test   %eax,%eax
    3d7d:	75 29                	jne    3da8 <loc_get_services+0x1d8>
    3d7f:	8d 45 c0             	lea    -0x40(%ebp),%eax
    3d82:	56                   	push   %esi
    3d83:	56                   	push   %esi
    3d84:	50                   	push   %eax
    3d85:	8b 45 b0             	mov    -0x50(%ebp),%eax
    3d88:	50                   	push   %eax
    3d89:	e8 d2 33 01 00       	call   17160 <async_wait_for>
    3d8e:	8b 45 c0             	mov    -0x40(%ebp),%eax
    3d91:	83 c4 10             	add    $0x10,%esp
    3d94:	85 c0                	test   %eax,%eax
    3d96:	75 27                	jne    3dbf <loc_get_services+0x1ef>
    3d98:	8b 45 0c             	mov    0xc(%ebp),%eax
    3d9b:	89 38                	mov    %edi,(%eax)
    3d9d:	8d 65 f4             	lea    -0xc(%ebp),%esp
    3da0:	89 d8                	mov    %ebx,%eax
    3da2:	5b                   	pop    %ebx
    3da3:	5e                   	pop    %esi
    3da4:	5f                   	pop    %edi
    3da5:	5d                   	pop    %ebp
    3da6:	c3                   	ret    
    3da7:	90                   	nop
    3da8:	83 ec 0c             	sub    $0xc,%esp
    3dab:	8b 45 b0             	mov    -0x50(%ebp),%eax
    3dae:	50                   	push   %eax
    3daf:	e8 7c 3a 01 00       	call   17830 <async_forget>
    3db4:	89 3c 24             	mov    %edi,(%esp)
    3db7:	e8 e4 fe 00 00       	call   13ca0 <free>
    3dbc:	83 c4 10             	add    $0x10,%esp
    3dbf:	31 db                	xor    %ebx,%ebx
    3dc1:	8d 65 f4             	lea    -0xc(%ebp),%esp
    3dc4:	89 d8                	mov    %ebx,%eax
    3dc6:	5b                   	pop    %ebx
    3dc7:	5e                   	pop    %esi
    3dc8:	5f                   	pop    %edi
    3dc9:	5d                   	pop    %ebp
    3dca:	c3                   	ret    
    3dcb:	90                   	nop
    3dcc:	8d 74 26 00          	lea    0x0(%esi,%eiz,1),%esi
    3dd0:	57                   	push   %edi
    3dd1:	6a 00                	push   $0x0
    3dd3:	68 c1 7e 8f c7       	push   $0xc78f7ec1
    3dd8:	68 6c 6f 63 20       	push   $0x20636f6c
    3ddd:	e8 6e 12 01 00       	call   15050 <service_connect_blocking>
    3de2:	83 c4 10             	add    $0x10,%esp
    3de5:	a3 78 71 02 00       	mov    %eax,0x27178
    3dea:	e9 ff fd ff ff       	jmp    3bee <loc_get_services+0x1e>
    3def:	83 ec 0c             	sub    $0xc,%esp
    3df2:	57                   	push   %edi
    3df3:	e8 a8 fe 00 00       	call   13ca0 <free>
    3df8:	83 c4 10             	add    $0x10,%esp
    3dfb:	e9 d9 fd ff ff       	jmp    3bd9 <loc_get_services+0x9>
    3e00:	50                   	push   %eax
    3e01:	6a 00                	push   $0x0
    3e03:	68 c1 7e 8f c7       	push   $0xc78f7ec1
    3e08:	68 6c 6f 63 20       	push   $0x20636f6c
    3e0d:	e8 ce 11 01 00       	call   14fe0 <service_connect>
    3e12:	83 c4 10             	add    $0x10,%esp
    3e15:	a3 70 71 02 00       	mov    %eax,0x27170
    3e1a:	e9 e9 fe ff ff       	jmp    3d08 <loc_get_services+0x138>
    3e1f:	31 f6                	xor    %esi,%esi
    3e21:	e9 0d ff ff ff       	jmp    3d33 <loc_get_services+0x163>
    3e26:	83 ec 0c             	sub    $0xc,%esp
    3e29:	31 db                	xor    %ebx,%ebx
    3e2b:	56                   	push   %esi
    3e2c:	e8 5f 51 01 00       	call   18f90 <async_exchange_end>
    3e31:	83 c4 10             	add    $0x10,%esp
    3e34:	eb 8b                	jmp    3dc1 <loc_get_services+0x1f1>
    3e36:	8d 76 00             	lea    0x0(%esi),%esi
    3e39:	8d bc 27 00 00 00 00 	lea    0x0(%edi,%eiz,1),%edi

00003e40 <loc_category_get_svcs>:
    3e40:	55                   	push   %ebp
    3e41:	89 e5                	mov    %esp,%ebp
    3e43:	8b 45 10             	mov    0x10(%ebp),%eax
    3e46:	8b 55 08             	mov    0x8(%ebp),%edx
    3e49:	8b 4d 0c             	mov    0xc(%ebp),%ecx
    3e4c:	89 45 08             	mov    %eax,0x8(%ebp)
    3e4f:	b8 0c 04 00 00       	mov    $0x40c,%eax
    3e54:	5d                   	pop    %ebp
    3e55:	e9 36 e1 ff ff       	jmp    1f90 <loc_get_ids_internal>
    3e5a:	8d b6 00 00 00 00    	lea    0x0(%esi),%esi

00003e60 <loc_get_categories>:
    3e60:	55                   	push   %ebp
    3e61:	31 d2                	xor    %edx,%edx
    3e63:	89 e5                	mov    %esp,%ebp
    3e65:	8b 45 0c             	mov    0xc(%ebp),%eax
    3e68:	8b 4d 08             	mov    0x8(%ebp),%ecx
    3e6b:	89 45 08             	mov    %eax,0x8(%ebp)
    3e6e:	b8 12 04 00 00       	mov    $0x412,%eax
    3e73:	5d                   	pop    %ebp
    3e74:	e9 17 e1 ff ff       	jmp    1f90 <loc_get_ids_internal>
    3e79:	8d b4 26 00 00 00 00 	lea    0x0(%esi,%eiz,1),%esi

00003e80 <loc_register_cat_change_cb>:
    3e80:	55                   	push   %ebp
    3e81:	89 e5                	mov    %esp,%ebp
    3e83:	57                   	push   %edi
    3e84:	56                   	push   %esi
    3e85:	53                   	push   %ebx
    3e86:	83 ec 48             	sub    $0x48,%esp
    3e89:	68 c4 6e 02 00       	push   $0x26ec4
    3e8e:	e8 7d 56 00 00       	call   9510 <fibril_mutex_lock>
    3e93:	83 c4 10             	add    $0x10,%esp
    3e96:	80 3d 84 71 02 00 00 	cmpb   $0x0,0x27184
    3e9d:	74 29                	je     3ec8 <loc_register_cat_change_cb+0x48>
    3e9f:	83 ec 0c             	sub    $0xc,%esp
    3ea2:	8b 45 08             	mov    0x8(%ebp),%eax
    3ea5:	a3 80 71 02 00       	mov    %eax,0x27180
    3eaa:	68 c4 6e 02 00       	push   $0x26ec4
    3eaf:	e8 dc 57 00 00       	call   9690 <fibril_mutex_unlock>
    3eb4:	83 c4 10             	add    $0x10,%esp
    3eb7:	8d 65 f4             	lea    -0xc(%ebp),%esp
    3eba:	31 c0                	xor    %eax,%eax
    3ebc:	5b                   	pop    %ebx
    3ebd:	5e                   	pop    %esi
    3ebe:	5f                   	pop    %edi
    3ebf:	5d                   	pop    %ebp
    3ec0:	c3                   	ret    
    3ec1:	8d b4 26 00 00 00 00 	lea    0x0(%esi,%eiz,1),%esi
    3ec8:	83 ec 0c             	sub    $0xc,%esp
    3ecb:	68 f4 6e 02 00       	push   $0x26ef4
    3ed0:	e8 3b 56 00 00       	call   9510 <fibril_mutex_lock>
    3ed5:	a1 78 71 02 00       	mov    0x27178,%eax
    3eda:	83 c4 10             	add    $0x10,%esp
    3edd:	85 c0                	test   %eax,%eax
    3edf:	75 46                	jne    3f27 <loc_register_cat_change_cb+0xa7>
    3ee1:	83 ec 0c             	sub    $0xc,%esp
    3ee4:	8b 1d 70 71 02 00    	mov    0x27170,%ebx
    3eea:	68 d4 6e 02 00       	push   $0x26ed4
    3eef:	e8 1c 56 00 00       	call   9510 <fibril_mutex_lock>
    3ef4:	a1 78 71 02 00       	mov    0x27178,%eax
    3ef9:	83 c4 10             	add    $0x10,%esp
    3efc:	85 c0                	test   %eax,%eax
    3efe:	75 0a                	jne    3f0a <loc_register_cat_change_cb+0x8a>
    3f00:	85 db                	test   %ebx,%ebx
    3f02:	74 06                	je     3f0a <loc_register_cat_change_cb+0x8a>
    3f04:	89 1d 78 71 02 00    	mov    %ebx,0x27178
    3f0a:	83 ec 0c             	sub    $0xc,%esp
    3f0d:	68 d4 6e 02 00       	push   $0x26ed4
    3f12:	e8 79 57 00 00       	call   9690 <fibril_mutex_unlock>
    3f17:	a1 78 71 02 00       	mov    0x27178,%eax
    3f1c:	83 c4 10             	add    $0x10,%esp
    3f1f:	85 c0                	test   %eax,%eax
    3f21:	0f 84 c1 00 00 00    	je     3fe8 <loc_register_cat_change_cb+0x168>
    3f27:	83 ec 0c             	sub    $0xc,%esp
    3f2a:	68 f4 6e 02 00       	push   $0x26ef4
    3f2f:	e8 5c 57 00 00       	call   9690 <fibril_mutex_unlock>
    3f34:	c7 04 24 d4 6e 02 00 	movl   $0x26ed4,(%esp)
    3f3b:	8b 1d 78 71 02 00    	mov    0x27178,%ebx
    3f41:	e8 ca 55 00 00       	call   9510 <fibril_mutex_lock>
    3f46:	8b 35 70 71 02 00    	mov    0x27170,%esi
    3f4c:	83 c4 10             	add    $0x10,%esp
    3f4f:	85 f6                	test   %esi,%esi
    3f51:	75 0a                	jne    3f5d <loc_register_cat_change_cb+0xdd>
    3f53:	85 db                	test   %ebx,%ebx
    3f55:	74 06                	je     3f5d <loc_register_cat_change_cb+0xdd>
    3f57:	89 1d 70 71 02 00    	mov    %ebx,0x27170
    3f5d:	83 ec 0c             	sub    $0xc,%esp
    3f60:	68 d4 6e 02 00       	push   $0x26ed4
    3f65:	e8 26 57 00 00       	call   9690 <fibril_mutex_unlock>
    3f6a:	8b 1d 78 71 02 00    	mov    0x27178,%ebx
    3f70:	59                   	pop    %ecx
    3f71:	53                   	push   %ebx
    3f72:	e8 29 4d 01 00       	call   18ca0 <async_exchange_begin>
    3f77:	83 c4 0c             	add    $0xc,%esp
    3f7a:	89 c3                	mov    %eax,%ebx
    3f7c:	8d 45 c4             	lea    -0x3c(%ebp),%eax
    3f7f:	50                   	push   %eax
    3f80:	6a 00                	push   $0x0
    3f82:	6a 00                	push   $0x0
    3f84:	6a 00                	push   $0x0
    3f86:	6a 00                	push   $0x0
    3f88:	68 09 04 00 00       	push   $0x409
    3f8d:	53                   	push   %ebx
    3f8e:	e8 4d 30 01 00       	call   16fe0 <async_send_fast>
    3f93:	83 c4 1c             	add    $0x1c,%esp
    3f96:	89 c7                	mov    %eax,%edi
    3f98:	8d 45 bc             	lea    -0x44(%ebp),%eax
    3f9b:	50                   	push   %eax
    3f9c:	6a 00                	push   $0x0
    3f9e:	68 10 1f 00 00       	push   $0x1f10
    3fa3:	6a 00                	push   $0x0
    3fa5:	6a 00                	push   $0x0
    3fa7:	68 c5 7e 8f 41       	push   $0x418f7ec5
    3fac:	53                   	push   %ebx
    3fad:	e8 ce 32 01 00       	call   17280 <async_create_callback_port>
    3fb2:	83 c4 14             	add    $0x14,%esp
    3fb5:	89 c6                	mov    %eax,%esi
    3fb7:	53                   	push   %ebx
    3fb8:	e8 d3 4f 01 00       	call   18f90 <async_exchange_end>
    3fbd:	83 c4 10             	add    $0x10,%esp
    3fc0:	85 f6                	test   %esi,%esi
    3fc2:	74 44                	je     4008 <loc_register_cat_change_cb+0x188>
    3fc4:	83 ec 0c             	sub    $0xc,%esp
    3fc7:	68 c4 6e 02 00       	push   $0x26ec4
    3fcc:	e8 bf 56 00 00       	call   9690 <fibril_mutex_unlock>
    3fd1:	83 c4 10             	add    $0x10,%esp
    3fd4:	8d 65 f4             	lea    -0xc(%ebp),%esp
    3fd7:	b8 f6 fe ff ff       	mov    $0xfffffef6,%eax
    3fdc:	5b                   	pop    %ebx
    3fdd:	5e                   	pop    %esi
    3fde:	5f                   	pop    %edi
    3fdf:	5d                   	pop    %ebp
    3fe0:	c3                   	ret    
    3fe1:	8d b4 26 00 00 00 00 	lea    0x0(%esi,%eiz,1),%esi
    3fe8:	57                   	push   %edi
    3fe9:	6a 00                	push   $0x0
    3feb:	68 c1 7e 8f c7       	push   $0xc78f7ec1
    3ff0:	68 6c 6f 63 20       	push   $0x20636f6c
    3ff5:	e8 56 10 01 00       	call   15050 <service_connect_blocking>
    3ffa:	83 c4 10             	add    $0x10,%esp
    3ffd:	a3 78 71 02 00       	mov    %eax,0x27178
    4002:	e9 d6 fe ff ff       	jmp    3edd <loc_register_cat_change_cb+0x5d>
    4007:	90                   	nop
    4008:	50                   	push   %eax
    4009:	50                   	push   %eax
    400a:	8d 45 c0             	lea    -0x40(%ebp),%eax
    400d:	50                   	push   %eax
    400e:	57                   	push   %edi
    400f:	e8 4c 31 01 00       	call   17160 <async_wait_for>
    4014:	8b 55 c0             	mov    -0x40(%ebp),%edx
    4017:	83 c4 10             	add    $0x10,%esp
    401a:	85 d2                	test   %edx,%edx
    401c:	75 a6                	jne    3fc4 <loc_register_cat_change_cb+0x144>
    401e:	c6 05 84 71 02 00 01 	movb   $0x1,0x27184
    4025:	e9 75 fe ff ff       	jmp    3e9f <loc_register_cat_change_cb+0x1f>
    402a:	66 90                	xchg   %ax,%ax
    402c:	66 90                	xchg   %ax,%ax
    402e:	66 90                	xchg   %ax,%ax

00004030 <memset>:
    4030:	55                   	push   %ebp
    4031:	89 e5                	mov    %esp,%ebp
    4033:	57                   	push   %edi
    4034:	56                   	push   %esi
    4035:	53                   	push   %ebx
    4036:	51                   	push   %ecx
    4037:	b9 04 00 00 00       	mov    $0x4,%ecx
    403c:	8b 45 08             	mov    0x8(%ebp),%eax
    403f:	8b 75 10             	mov    0x10(%ebp),%esi
    4042:	89 c2                	mov    %eax,%edx
    4044:	8b 5d 0c             	mov    0xc(%ebp),%ebx
    4047:	83 e2 03             	and    $0x3,%edx
    404a:	29 d1                	sub    %edx,%ecx
    404c:	39 f1                	cmp    %esi,%ecx
    404e:	76 02                	jbe    4052 <memset+0x22>
    4050:	89 f1                	mov    %esi,%ecx
    4052:	85 c9                	test   %ecx,%ecx
    4054:	74 7a                	je     40d0 <memset+0xa0>
    4056:	88 18                	mov    %bl,(%eax)
    4058:	83 f9 01             	cmp    $0x1,%ecx
    405b:	74 13                	je     4070 <memset+0x40>
    405d:	88 58 01             	mov    %bl,0x1(%eax)
    4060:	83 f9 02             	cmp    $0x2,%ecx
    4063:	74 0b                	je     4070 <memset+0x40>
    4065:	88 58 02             	mov    %bl,0x2(%eax)
    4068:	83 f9 04             	cmp    $0x4,%ecx
    406b:	75 03                	jne    4070 <memset+0x40>
    406d:	88 58 03             	mov    %bl,0x3(%eax)
    4070:	8d 14 08             	lea    (%eax,%ecx,1),%edx
    4073:	29 ce                	sub    %ecx,%esi
    4075:	74 4c                	je     40c3 <memset+0x93>
    4077:	89 f7                	mov    %esi,%edi
    4079:	83 e7 03             	and    $0x3,%edi
    407c:	89 7d f0             	mov    %edi,-0x10(%ebp)
    407f:	89 df                	mov    %ebx,%edi
    4081:	81 e7 ff 00 00 00    	and    $0xff,%edi
    4087:	89 f9                	mov    %edi,%ecx
    4089:	c1 e1 08             	shl    $0x8,%ecx
    408c:	09 f9                	or     %edi,%ecx
    408e:	c1 e1 08             	shl    $0x8,%ecx
    4091:	09 f9                	or     %edi,%ecx
    4093:	c1 e1 08             	shl    $0x8,%ecx
    4096:	09 f9                	or     %edi,%ecx
    4098:	c1 ee 02             	shr    $0x2,%esi
    409b:	74 37                	je     40d4 <memset+0xa4>
    409d:	8d 34 b2             	lea    (%edx,%esi,4),%esi
    40a0:	83 c2 04             	add    $0x4,%edx
    40a3:	89 4a fc             	mov    %ecx,-0x4(%edx)
    40a6:	39 f2                	cmp    %esi,%edx
    40a8:	75 f6                	jne    40a0 <memset+0x70>
    40aa:	8b 7d f0             	mov    -0x10(%ebp),%edi
    40ad:	85 ff                	test   %edi,%edi
    40af:	74 12                	je     40c3 <memset+0x93>
    40b1:	88 1e                	mov    %bl,(%esi)
    40b3:	83 ff 01             	cmp    $0x1,%edi
    40b6:	74 0b                	je     40c3 <memset+0x93>
    40b8:	88 5e 01             	mov    %bl,0x1(%esi)
    40bb:	83 ff 02             	cmp    $0x2,%edi
    40be:	74 03                	je     40c3 <memset+0x93>
    40c0:	88 5e 02             	mov    %bl,0x2(%esi)
    40c3:	5a                   	pop    %edx
    40c4:	5b                   	pop    %ebx
    40c5:	5e                   	pop    %esi
    40c6:	5f                   	pop    %edi
    40c7:	5d                   	pop    %ebp
    40c8:	c3                   	ret    
    40c9:	8d b4 26 00 00 00 00 	lea    0x0(%esi,%eiz,1),%esi
    40d0:	89 c2                	mov    %eax,%edx
    40d2:	eb 9f                	jmp    4073 <memset+0x43>
    40d4:	89 d6                	mov    %edx,%esi
    40d6:	eb d2                	jmp    40aa <memset+0x7a>
    40d8:	90                   	nop
    40d9:	8d b4 26 00 00 00 00 	lea    0x0(%esi,%eiz,1),%esi

000040e0 <memcpy>:
    40e0:	55                   	push   %ebp
    40e1:	89 e5                	mov    %esp,%ebp
    40e3:	57                   	push   %edi
    40e4:	56                   	push   %esi
    40e5:	53                   	push   %ebx
    40e6:	8b 4d 0c             	mov    0xc(%ebp),%ecx
    40e9:	8b 45 08             	mov    0x8(%ebp),%eax
    40ec:	89 ca                	mov    %ecx,%edx
    40ee:	8b 5d 10             	mov    0x10(%ebp),%ebx
    40f1:	31 c2                	xor    %eax,%edx
    40f3:	83 e2 03             	and    $0x3,%edx
    40f6:	74 50                	je     4148 <memcpy+0x68>
    40f8:	89 df                	mov    %ebx,%edi
    40fa:	31 d2                	xor    %edx,%edx
    40fc:	c1 ef 02             	shr    $0x2,%edi
    40ff:	74 12                	je     4113 <memcpy+0x33>
    4101:	8d b4 26 00 00 00 00 	lea    0x0(%esi,%eiz,1),%esi
    4108:	8b 34 91             	mov    (%ecx,%edx,4),%esi
    410b:	89 34 90             	mov    %esi,(%eax,%edx,4)
    410e:	42                   	inc    %edx
    410f:	39 fa                	cmp    %edi,%edx
    4111:	75 f5                	jne    4108 <memcpy+0x28>
    4113:	89 df                	mov    %ebx,%edi
    4115:	83 e7 03             	and    $0x3,%edi
    4118:	74 23                	je     413d <memcpy+0x5d>
    411a:	c1 e2 02             	shl    $0x2,%edx
    411d:	83 ff 01             	cmp    $0x1,%edi
    4120:	8a 1c 11             	mov    (%ecx,%edx,1),%bl
    4123:	88 1c 10             	mov    %bl,(%eax,%edx,1)
    4126:	74 15                	je     413d <memcpy+0x5d>
    4128:	8a 5c 11 01          	mov    0x1(%ecx,%edx,1),%bl
    412c:	83 ff 03             	cmp    $0x3,%edi
    412f:	88 5c 10 01          	mov    %bl,0x1(%eax,%edx,1)
    4133:	75 08                	jne    413d <memcpy+0x5d>
    4135:	8a 5c 11 02          	mov    0x2(%ecx,%edx,1),%bl
    4139:	88 5c 10 02          	mov    %bl,0x2(%eax,%edx,1)
    413d:	5b                   	pop    %ebx
    413e:	5e                   	pop    %esi
    413f:	5f                   	pop    %edi
    4140:	5d                   	pop    %ebp
    4141:	c3                   	ret    
    4142:	8d b6 00 00 00 00    	lea    0x0(%esi),%esi
    4148:	89 c2                	mov    %eax,%edx
    414a:	be 04 00 00 00       	mov    $0x4,%esi
    414f:	83 e2 03             	and    $0x3,%edx
    4152:	29 d6                	sub    %edx,%esi
    4154:	89 da                	mov    %ebx,%edx
    4156:	39 f3                	cmp    %esi,%ebx
    4158:	77 6e                	ja     41c8 <memcpy+0xe8>
    415a:	31 f6                	xor    %esi,%esi
    415c:	89 df                	mov    %ebx,%edi
    415e:	85 d2                	test   %edx,%edx
    4160:	74 70                	je     41d2 <memcpy+0xf2>
    4162:	8d b6 00 00 00 00    	lea    0x0(%esi),%esi
    4168:	8a 1c 31             	mov    (%ecx,%esi,1),%bl
    416b:	88 1c 30             	mov    %bl,(%eax,%esi,1)
    416e:	46                   	inc    %esi
    416f:	39 f2                	cmp    %esi,%edx
    4171:	75 f5                	jne    4168 <memcpy+0x88>
    4173:	89 fb                	mov    %edi,%ebx
    4175:	8d 34 10             	lea    (%eax,%edx,1),%esi
    4178:	01 d1                	add    %edx,%ecx
    417a:	29 d3                	sub    %edx,%ebx
    417c:	74 bf                	je     413d <memcpy+0x5d>
    417e:	89 df                	mov    %ebx,%edi
    4180:	83 e7 03             	and    $0x3,%edi
    4183:	c1 eb 02             	shr    $0x2,%ebx
    4186:	74 1c                	je     41a4 <memcpy+0xc4>
    4188:	c1 e3 02             	shl    $0x2,%ebx
    418b:	31 d2                	xor    %edx,%edx
    418d:	89 45 08             	mov    %eax,0x8(%ebp)
    4190:	8b 04 11             	mov    (%ecx,%edx,1),%eax
    4193:	89 04 16             	mov    %eax,(%esi,%edx,1)
    4196:	83 c2 04             	add    $0x4,%edx
    4199:	39 d3                	cmp    %edx,%ebx
    419b:	75 f3                	jne    4190 <memcpy+0xb0>
    419d:	8b 45 08             	mov    0x8(%ebp),%eax
    41a0:	01 de                	add    %ebx,%esi
    41a2:	01 d9                	add    %ebx,%ecx
    41a4:	85 ff                	test   %edi,%edi
    41a6:	74 95                	je     413d <memcpy+0x5d>
    41a8:	8a 19                	mov    (%ecx),%bl
    41aa:	83 ff 01             	cmp    $0x1,%edi
    41ad:	88 1e                	mov    %bl,(%esi)
    41af:	74 8c                	je     413d <memcpy+0x5d>
    41b1:	8a 59 01             	mov    0x1(%ecx),%bl
    41b4:	83 ff 02             	cmp    $0x2,%edi
    41b7:	88 5e 01             	mov    %bl,0x1(%esi)
    41ba:	74 81                	je     413d <memcpy+0x5d>
    41bc:	8a 59 02             	mov    0x2(%ecx),%bl
    41bf:	88 5e 02             	mov    %bl,0x2(%esi)
    41c2:	5b                   	pop    %ebx
    41c3:	5e                   	pop    %esi
    41c4:	5f                   	pop    %edi
    41c5:	5d                   	pop    %ebp
    41c6:	c3                   	ret    
    41c7:	90                   	nop
    41c8:	89 f2                	mov    %esi,%edx
    41ca:	89 df                	mov    %ebx,%edi
    41cc:	31 f6                	xor    %esi,%esi
    41ce:	85 d2                	test   %edx,%edx
    41d0:	75 96                	jne    4168 <memcpy+0x88>
    41d2:	89 c6                	mov    %eax,%esi
    41d4:	eb a4                	jmp    417a <memcpy+0x9a>
    41d6:	8d 76 00             	lea    0x0(%esi),%esi
    41d9:	8d bc 27 00 00 00 00 	lea    0x0(%edi,%eiz,1),%edi

000041e0 <memmove>:
    41e0:	55                   	push   %ebp
    41e1:	89 e5                	mov    %esp,%ebp
    41e3:	57                   	push   %edi
    41e4:	56                   	push   %esi
    41e5:	53                   	push   %ebx
    41e6:	83 ec 08             	sub    $0x8,%esp
    41e9:	8b 45 08             	mov    0x8(%ebp),%eax
    41ec:	8b 55 0c             	mov    0xc(%ebp),%edx
    41ef:	8b 7d 10             	mov    0x10(%ebp),%edi
    41f2:	39 c2                	cmp    %eax,%edx
    41f4:	89 7d f0             	mov    %edi,-0x10(%ebp)
    41f7:	0f 84 a1 00 00 00    	je     429e <memmove+0xbe>
    41fd:	8d 1c 3a             	lea    (%edx,%edi,1),%ebx
    4200:	39 d8                	cmp    %ebx,%eax
    4202:	0f 83 a0 00 00 00    	jae    42a8 <memmove+0xc8>
    4208:	8d 1c 38             	lea    (%eax,%edi,1),%ebx
    420b:	39 da                	cmp    %ebx,%edx
    420d:	0f 83 95 00 00 00    	jae    42a8 <memmove+0xc8>
    4213:	89 f9                	mov    %edi,%ecx
    4215:	8d 77 ff             	lea    -0x1(%edi),%esi
    4218:	39 c2                	cmp    %eax,%edx
    421a:	0f 86 a0 00 00 00    	jbe    42c0 <memmove+0xe0>
    4220:	85 ff                	test   %edi,%edi
    4222:	74 7a                	je     429e <memmove+0xbe>
    4224:	8d 58 04             	lea    0x4(%eax),%ebx
    4227:	8d 7a 04             	lea    0x4(%edx),%edi
    422a:	39 da                	cmp    %ebx,%edx
    422c:	0f 93 c1             	setae  %cl
    422f:	39 f8                	cmp    %edi,%eax
    4231:	0f 93 c3             	setae  %bl
    4234:	89 df                	mov    %ebx,%edi
    4236:	09 cf                	or     %ecx,%edi
    4238:	89 f9                	mov    %edi,%ecx
    423a:	83 7d f0 09          	cmpl   $0x9,-0x10(%ebp)
    423e:	0f 97 c3             	seta   %bl
    4241:	84 d9                	test   %bl,%cl
    4243:	0f 84 a7 00 00 00    	je     42f0 <memmove+0x110>
    4249:	89 c3                	mov    %eax,%ebx
    424b:	09 d3                	or     %edx,%ebx
    424d:	83 e3 03             	and    $0x3,%ebx
    4250:	0f 85 9a 00 00 00    	jne    42f0 <memmove+0x110>
    4256:	8b 4d f0             	mov    -0x10(%ebp),%ecx
    4259:	8d 59 fc             	lea    -0x4(%ecx),%ebx
    425c:	c1 eb 02             	shr    $0x2,%ebx
    425f:	8d 7b 01             	lea    0x1(%ebx),%edi
    4262:	89 7d ec             	mov    %edi,-0x14(%ebp)
    4265:	c1 e7 02             	shl    $0x2,%edi
    4268:	83 fe 02             	cmp    $0x2,%esi
    426b:	76 7b                	jbe    42e8 <memmove+0x108>
    426d:	31 db                	xor    %ebx,%ebx
    426f:	8b 0c 9a             	mov    (%edx,%ebx,4),%ecx
    4272:	89 0c 98             	mov    %ecx,(%eax,%ebx,4)
    4275:	43                   	inc    %ebx
    4276:	39 5d ec             	cmp    %ebx,-0x14(%ebp)
    4279:	77 f4                	ja     426f <memmove+0x8f>
    427b:	01 fa                	add    %edi,%edx
    427d:	29 fe                	sub    %edi,%esi
    427f:	8d 1c 38             	lea    (%eax,%edi,1),%ebx
    4282:	39 7d f0             	cmp    %edi,-0x10(%ebp)
    4285:	74 17                	je     429e <memmove+0xbe>
    4287:	8a 0a                	mov    (%edx),%cl
    4289:	85 f6                	test   %esi,%esi
    428b:	88 0b                	mov    %cl,(%ebx)
    428d:	74 0f                	je     429e <memmove+0xbe>
    428f:	8a 4a 01             	mov    0x1(%edx),%cl
    4292:	4e                   	dec    %esi
    4293:	88 4b 01             	mov    %cl,0x1(%ebx)
    4296:	74 06                	je     429e <memmove+0xbe>
    4298:	8a 4a 02             	mov    0x2(%edx),%cl
    429b:	88 4b 02             	mov    %cl,0x2(%ebx)
    429e:	5a                   	pop    %edx
    429f:	59                   	pop    %ecx
    42a0:	5b                   	pop    %ebx
    42a1:	5e                   	pop    %esi
    42a2:	5f                   	pop    %edi
    42a3:	5d                   	pop    %ebp
    42a4:	c3                   	ret    
    42a5:	8d 76 00             	lea    0x0(%esi),%esi
    42a8:	8b 75 f0             	mov    -0x10(%ebp),%esi
    42ab:	89 55 0c             	mov    %edx,0xc(%ebp)
    42ae:	89 75 10             	mov    %esi,0x10(%ebp)
    42b1:	89 45 08             	mov    %eax,0x8(%ebp)
    42b4:	5b                   	pop    %ebx
    42b5:	5e                   	pop    %esi
    42b6:	5b                   	pop    %ebx
    42b7:	5e                   	pop    %esi
    42b8:	5f                   	pop    %edi
    42b9:	5d                   	pop    %ebp
    42ba:	e9 21 fe ff ff       	jmp    40e0 <memcpy>
    42bf:	90                   	nop
    42c0:	01 f2                	add    %esi,%edx
    42c2:	01 c6                	add    %eax,%esi
    42c4:	85 ff                	test   %edi,%edi
    42c6:	74 d6                	je     429e <memmove+0xbe>
    42c8:	f7 d9                	neg    %ecx
    42ca:	31 db                	xor    %ebx,%ebx
    42cc:	89 c7                	mov    %eax,%edi
    42ce:	66 90                	xchg   %ax,%ax
    42d0:	8a 04 1a             	mov    (%edx,%ebx,1),%al
    42d3:	88 04 1e             	mov    %al,(%esi,%ebx,1)
    42d6:	4b                   	dec    %ebx
    42d7:	39 cb                	cmp    %ecx,%ebx
    42d9:	75 f5                	jne    42d0 <memmove+0xf0>
    42db:	5a                   	pop    %edx
    42dc:	89 f8                	mov    %edi,%eax
    42de:	59                   	pop    %ecx
    42df:	5b                   	pop    %ebx
    42e0:	5e                   	pop    %esi
    42e1:	5f                   	pop    %edi
    42e2:	5d                   	pop    %ebp
    42e3:	c3                   	ret    
    42e4:	8d 74 26 00          	lea    0x0(%esi,%eiz,1),%esi
    42e8:	89 c3                	mov    %eax,%ebx
    42ea:	eb 9b                	jmp    4287 <memmove+0xa7>
    42ec:	8d 74 26 00          	lea    0x0(%esi,%eiz,1),%esi
    42f0:	31 db                	xor    %ebx,%ebx
    42f2:	8b 7d f0             	mov    -0x10(%ebp),%edi
    42f5:	8d 76 00             	lea    0x0(%esi),%esi
    42f8:	8a 0c 1a             	mov    (%edx,%ebx,1),%cl
    42fb:	88 0c 18             	mov    %cl,(%eax,%ebx,1)
    42fe:	43                   	inc    %ebx
    42ff:	39 df                	cmp    %ebx,%edi
    4301:	75 f5                	jne    42f8 <memmove+0x118>
    4303:	eb 99                	jmp    429e <memmove+0xbe>
    4305:	8d 74 26 00          	lea    0x0(%esi,%eiz,1),%esi
    4309:	8d bc 27 00 00 00 00 	lea    0x0(%edi,%eiz,1),%edi

00004310 <memcmp>:
    4310:	55                   	push   %ebp
    4311:	89 e5                	mov    %esp,%ebp
    4313:	57                   	push   %edi
    4314:	56                   	push   %esi
    4315:	53                   	push   %ebx
    4316:	8b 5d 10             	mov    0x10(%ebp),%ebx
    4319:	8b 75 08             	mov    0x8(%ebp),%esi
    431c:	8b 7d 0c             	mov    0xc(%ebp),%edi
    431f:	85 db                	test   %ebx,%ebx
    4321:	74 1c                	je     433f <memcmp+0x2f>
    4323:	8a 16                	mov    (%esi),%dl
    4325:	8a 0f                	mov    (%edi),%cl
    4327:	38 d1                	cmp    %dl,%cl
    4329:	75 1d                	jne    4348 <memcmp+0x38>
    432b:	31 c0                	xor    %eax,%eax
    432d:	eb 0b                	jmp    433a <memcmp+0x2a>
    432f:	90                   	nop
    4330:	8a 14 06             	mov    (%esi,%eax,1),%dl
    4333:	8a 0c 07             	mov    (%edi,%eax,1),%cl
    4336:	38 ca                	cmp    %cl,%dl
    4338:	75 0e                	jne    4348 <memcmp+0x38>
    433a:	40                   	inc    %eax
    433b:	39 c3                	cmp    %eax,%ebx
    433d:	75 f1                	jne    4330 <memcmp+0x20>
    433f:	5b                   	pop    %ebx
    4340:	31 c0                	xor    %eax,%eax
    4342:	5e                   	pop    %esi
    4343:	5f                   	pop    %edi
    4344:	5d                   	pop    %ebp
    4345:	c3                   	ret    
    4346:	66 90                	xchg   %ax,%ax
    4348:	31 c0                	xor    %eax,%eax
    434a:	81 e1 ff 00 00 00    	and    $0xff,%ecx
    4350:	88 d0                	mov    %dl,%al
    4352:	5b                   	pop    %ebx
    4353:	29 c8                	sub    %ecx,%eax
    4355:	5e                   	pop    %esi
    4356:	5f                   	pop    %edi
    4357:	5d                   	pop    %ebp
    4358:	c3                   	ret    
    4359:	66 90                	xchg   %ax,%ax
    435b:	66 90                	xchg   %ax,%ax
    435d:	66 90                	xchg   %ax,%ax
    435f:	90                   	nop

00004360 <_strtoul.constprop.4>:
    4360:	55                   	push   %ebp
    4361:	89 e5                	mov    %esp,%ebp
    4363:	57                   	push   %edi
    4364:	56                   	push   %esi
    4365:	53                   	push   %ebx
    4366:	83 ec 0c             	sub    $0xc,%esp
    4369:	89 c6                	mov    %eax,%esi
    436b:	89 45 e8             	mov    %eax,-0x18(%ebp)
    436e:	89 55 ec             	mov    %edx,-0x14(%ebp)
    4371:	8a 06                	mov    (%esi),%al
    4373:	3c 09                	cmp    $0x9,%al
    4375:	7c 10                	jl     4387 <_strtoul.constprop.4+0x27>
    4377:	3c 0d                	cmp    $0xd,%al
    4379:	0f 8e a9 00 00 00    	jle    4428 <_strtoul.constprop.4+0xc8>
    437f:	3c 20                	cmp    $0x20,%al
    4381:	0f 84 a1 00 00 00    	je     4428 <_strtoul.constprop.4+0xc8>
    4387:	3c 2d                	cmp    $0x2d,%al
    4389:	0f 84 11 01 00 00    	je     44a0 <_strtoul.constprop.4+0x140>
    438f:	3c 2b                	cmp    $0x2b,%al
    4391:	0f 94 c0             	sete   %al
    4394:	25 ff 00 00 00       	and    $0xff,%eax
    4399:	01 c6                	add    %eax,%esi
    439b:	85 c9                	test   %ecx,%ecx
    439d:	0f 84 8d 00 00 00    	je     4430 <_strtoul.constprop.4+0xd0>
    43a3:	83 f9 01             	cmp    $0x1,%ecx
    43a6:	0f 84 e4 00 00 00    	je     4490 <_strtoul.constprop.4+0x130>
    43ac:	83 f9 24             	cmp    $0x24,%ecx
    43af:	0f 8f db 00 00 00    	jg     4490 <_strtoul.constprop.4+0x130>
    43b5:	8a 16                	mov    (%esi),%dl
    43b7:	83 f9 10             	cmp    $0x10,%ecx
    43ba:	0f 84 fb 00 00 00    	je     44bb <_strtoul.constprop.4+0x15b>
    43c0:	84 d2                	test   %dl,%dl
    43c2:	0f 84 11 01 00 00    	je     44d9 <_strtoul.constprop.4+0x179>
    43c8:	89 f3                	mov    %esi,%ebx
    43ca:	31 c0                	xor    %eax,%eax
    43cc:	eb 48                	jmp    4416 <_strtoul.constprop.4+0xb6>
    43ce:	66 90                	xchg   %ax,%ax
    43d0:	83 ea 57             	sub    $0x57,%edx
    43d3:	89 d7                	mov    %edx,%edi
    43d5:	81 e7 ff 00 00 00    	and    $0xff,%edi
    43db:	39 cf                	cmp    %ecx,%edi
    43dd:	0f 8d 82 00 00 00    	jge    4465 <_strtoul.constprop.4+0x105>
    43e3:	31 d2                	xor    %edx,%edx
    43e5:	88 c2                	mov    %al,%dl
    43e7:	0f af d1             	imul   %ecx,%edx
    43ea:	c1 e8 08             	shr    $0x8,%eax
    43ed:	01 d7                	add    %edx,%edi
    43ef:	0f af c1             	imul   %ecx,%eax
    43f2:	89 7d f0             	mov    %edi,-0x10(%ebp)
    43f5:	c1 ef 08             	shr    $0x8,%edi
    43f8:	01 f8                	add    %edi,%eax
    43fa:	3d ff ff ff 00       	cmp    $0xffffff,%eax
    43ff:	0f 87 ab 00 00 00    	ja     44b0 <_strtoul.constprop.4+0x150>
    4405:	31 d2                	xor    %edx,%edx
    4407:	43                   	inc    %ebx
    4408:	c1 e0 08             	shl    $0x8,%eax
    440b:	8a 55 f0             	mov    -0x10(%ebp),%dl
    440e:	01 d0                	add    %edx,%eax
    4410:	8a 13                	mov    (%ebx),%dl
    4412:	84 d2                	test   %dl,%dl
    4414:	74 4f                	je     4465 <_strtoul.constprop.4+0x105>
    4416:	80 fa 60             	cmp    $0x60,%dl
    4419:	77 b5                	ja     43d0 <_strtoul.constprop.4+0x70>
    441b:	80 fa 40             	cmp    $0x40,%dl
    441e:	76 40                	jbe    4460 <_strtoul.constprop.4+0x100>
    4420:	83 ea 37             	sub    $0x37,%edx
    4423:	eb ae                	jmp    43d3 <_strtoul.constprop.4+0x73>
    4425:	8d 76 00             	lea    0x0(%esi),%esi
    4428:	46                   	inc    %esi
    4429:	e9 43 ff ff ff       	jmp    4371 <_strtoul.constprop.4+0x11>
    442e:	66 90                	xchg   %ax,%ax
    4430:	8a 16                	mov    (%esi),%dl
    4432:	b9 0a 00 00 00       	mov    $0xa,%ecx
    4437:	80 fa 30             	cmp    $0x30,%dl
    443a:	75 84                	jne    43c0 <_strtoul.constprop.4+0x60>
    443c:	8a 46 01             	mov    0x1(%esi),%al
    443f:	83 e0 df             	and    $0xffffffdf,%eax
    4442:	3c 58                	cmp    $0x58,%al
    4444:	0f 85 9d 00 00 00    	jne    44e7 <_strtoul.constprop.4+0x187>
    444a:	8a 56 02             	mov    0x2(%esi),%dl
    444d:	b9 10 00 00 00       	mov    $0x10,%ecx
    4452:	83 c6 02             	add    $0x2,%esi
    4455:	e9 66 ff ff ff       	jmp    43c0 <_strtoul.constprop.4+0x60>
    445a:	8d b6 00 00 00 00    	lea    0x0(%esi),%esi
    4460:	80 fa 39             	cmp    $0x39,%dl
    4463:	76 23                	jbe    4488 <_strtoul.constprop.4+0x128>
    4465:	39 de                	cmp    %ebx,%esi
    4467:	74 70                	je     44d9 <_strtoul.constprop.4+0x179>
    4469:	8b 55 ec             	mov    -0x14(%ebp),%edx
    446c:	85 d2                	test   %edx,%edx
    446e:	74 05                	je     4475 <_strtoul.constprop.4+0x115>
    4470:	8b 75 ec             	mov    -0x14(%ebp),%esi
    4473:	89 1e                	mov    %ebx,(%esi)
    4475:	39 5d e8             	cmp    %ebx,-0x18(%ebp)
    4478:	74 16                	je     4490 <_strtoul.constprop.4+0x130>
    447a:	83 c4 0c             	add    $0xc,%esp
    447d:	5b                   	pop    %ebx
    447e:	5e                   	pop    %esi
    447f:	5f                   	pop    %edi
    4480:	5d                   	pop    %ebp
    4481:	c3                   	ret    
    4482:	8d b6 00 00 00 00    	lea    0x0(%esi),%esi
    4488:	83 ea 30             	sub    $0x30,%edx
    448b:	e9 43 ff ff ff       	jmp    43d3 <_strtoul.constprop.4+0x73>
    4490:	83 c4 0c             	add    $0xc,%esp
    4493:	31 c0                	xor    %eax,%eax
    4495:	5b                   	pop    %ebx
    4496:	5e                   	pop    %esi
    4497:	5f                   	pop    %edi
    4498:	5d                   	pop    %ebp
    4499:	c3                   	ret    
    449a:	8d b6 00 00 00 00    	lea    0x0(%esi),%esi
    44a0:	8b 45 08             	mov    0x8(%ebp),%eax
    44a3:	46                   	inc    %esi
    44a4:	c6 00 01             	movb   $0x1,(%eax)
    44a7:	e9 ef fe ff ff       	jmp    439b <_strtoul.constprop.4+0x3b>
    44ac:	8d 74 26 00          	lea    0x0(%esi,%eiz,1),%esi
    44b0:	83 c4 0c             	add    $0xc,%esp
    44b3:	83 c8 ff             	or     $0xffffffff,%eax
    44b6:	5b                   	pop    %ebx
    44b7:	5e                   	pop    %esi
    44b8:	5f                   	pop    %edi
    44b9:	5d                   	pop    %ebp
    44ba:	c3                   	ret    
    44bb:	80 fa 30             	cmp    $0x30,%dl
    44be:	0f 85 fc fe ff ff    	jne    43c0 <_strtoul.constprop.4+0x60>
    44c4:	8a 46 01             	mov    0x1(%esi),%al
    44c7:	83 e0 df             	and    $0xffffffdf,%eax
    44ca:	3c 58                	cmp    $0x58,%al
    44cc:	75 1e                	jne    44ec <_strtoul.constprop.4+0x18c>
    44ce:	8a 56 02             	mov    0x2(%esi),%dl
    44d1:	83 c6 02             	add    $0x2,%esi
    44d4:	e9 e7 fe ff ff       	jmp    43c0 <_strtoul.constprop.4+0x60>
    44d9:	8b 45 ec             	mov    -0x14(%ebp),%eax
    44dc:	85 c0                	test   %eax,%eax
    44de:	74 b0                	je     4490 <_strtoul.constprop.4+0x130>
    44e0:	8b 5d e8             	mov    -0x18(%ebp),%ebx
    44e3:	31 c0                	xor    %eax,%eax
    44e5:	eb 89                	jmp    4470 <_strtoul.constprop.4+0x110>
    44e7:	b9 08 00 00 00       	mov    $0x8,%ecx
    44ec:	b2 30                	mov    $0x30,%dl
    44ee:	e9 d5 fe ff ff       	jmp    43c8 <_strtoul.constprop.4+0x68>
    44f3:	8d b6 00 00 00 00    	lea    0x0(%esi),%esi
    44f9:	8d bc 27 00 00 00 00 	lea    0x0(%edi,%eiz,1),%edi

00004500 <str_decode>:
    4500:	55                   	push   %ebp
    4501:	31 c0                	xor    %eax,%eax
    4503:	89 e5                	mov    %esp,%ebp
    4505:	57                   	push   %edi
    4506:	56                   	push   %esi
    4507:	53                   	push   %ebx
    4508:	83 ec 08             	sub    $0x8,%esp
    450b:	8b 5d 0c             	mov    0xc(%ebp),%ebx
    450e:	8b 7d 08             	mov    0x8(%ebp),%edi
    4511:	8b 13                	mov    (%ebx),%edx
    4513:	8d 72 01             	lea    0x1(%edx),%esi
    4516:	3b 75 10             	cmp    0x10(%ebp),%esi
    4519:	77 13                	ja     452e <str_decode+0x2e>
    451b:	89 33                	mov    %esi,(%ebx)
    451d:	8a 04 17             	mov    (%edi,%edx,1),%al
    4520:	88 c1                	mov    %al,%cl
    4522:	88 45 ec             	mov    %al,-0x14(%ebp)
    4525:	89 c8                	mov    %ecx,%eax
    4527:	83 e0 7f             	and    $0x7f,%eax
    452a:	84 c9                	test   %cl,%cl
    452c:	78 0a                	js     4538 <str_decode+0x38>
    452e:	5a                   	pop    %edx
    452f:	59                   	pop    %ecx
    4530:	5b                   	pop    %ebx
    4531:	5e                   	pop    %esi
    4532:	5f                   	pop    %edi
    4533:	5d                   	pop    %ebp
    4534:	c3                   	ret    
    4535:	8d 76 00             	lea    0x0(%esi),%esi
    4538:	88 c8                	mov    %cl,%al
    453a:	83 e0 e0             	and    $0xffffffe0,%eax
    453d:	3c c0                	cmp    $0xc0,%al
    453f:	74 27                	je     4568 <str_decode+0x68>
    4541:	88 c8                	mov    %cl,%al
    4543:	83 e0 f0             	and    $0xfffffff0,%eax
    4546:	3c e0                	cmp    $0xe0,%al
    4548:	0f 84 8a 00 00 00    	je     45d8 <str_decode+0xd8>
    454e:	88 c8                	mov    %cl,%al
    4550:	83 e0 f8             	and    $0xfffffff8,%eax
    4553:	3c f0                	cmp    $0xf0,%al
    4555:	0f 84 89 00 00 00    	je     45e4 <str_decode+0xe4>
    455b:	5a                   	pop    %edx
    455c:	b8 3f 00 00 00       	mov    $0x3f,%eax
    4561:	59                   	pop    %ecx
    4562:	5b                   	pop    %ebx
    4563:	5e                   	pop    %esi
    4564:	5f                   	pop    %edi
    4565:	5d                   	pop    %ebp
    4566:	c3                   	ret    
    4567:	90                   	nop
    4568:	b8 01 00 00 00       	mov    $0x1,%eax
    456d:	b9 05 00 00 00       	mov    $0x5,%ecx
    4572:	01 f0                	add    %esi,%eax
    4574:	89 45 f0             	mov    %eax,-0x10(%ebp)
    4577:	39 45 10             	cmp    %eax,0x10(%ebp)
    457a:	72 df                	jb     455b <str_decode+0x5b>
    457c:	b8 01 00 00 00       	mov    $0x1,%eax
    4581:	83 c2 02             	add    $0x2,%edx
    4584:	d3 e0                	shl    %cl,%eax
    4586:	48                   	dec    %eax
    4587:	8b 4d ec             	mov    -0x14(%ebp),%ecx
    458a:	89 13                	mov    %edx,(%ebx)
    458c:	21 c8                	and    %ecx,%eax
    458e:	8a 0c 37             	mov    (%edi,%esi,1),%cl
    4591:	89 55 ec             	mov    %edx,-0x14(%ebp)
    4594:	89 ce                	mov    %ecx,%esi
    4596:	25 ff 00 00 00       	and    $0xff,%eax
    459b:	83 e6 c0             	and    $0xffffffc0,%esi
    459e:	89 f2                	mov    %esi,%edx
    45a0:	80 fa 80             	cmp    $0x80,%dl
    45a3:	75 b6                	jne    455b <str_decode+0x5b>
    45a5:	8b 55 ec             	mov    -0x14(%ebp),%edx
    45a8:	89 de                	mov    %ebx,%esi
    45aa:	eb 15                	jmp    45c1 <str_decode+0xc1>
    45ac:	8d 74 26 00          	lea    0x0(%esi,%eiz,1),%esi
    45b0:	42                   	inc    %edx
    45b1:	89 16                	mov    %edx,(%esi)
    45b3:	8a 4c 17 ff          	mov    -0x1(%edi,%edx,1),%cl
    45b7:	88 cb                	mov    %cl,%bl
    45b9:	83 e3 c0             	and    $0xffffffc0,%ebx
    45bc:	80 fb 80             	cmp    $0x80,%bl
    45bf:	75 9a                	jne    455b <str_decode+0x5b>
    45c1:	c1 e0 06             	shl    $0x6,%eax
    45c4:	83 e1 3f             	and    $0x3f,%ecx
    45c7:	09 c8                	or     %ecx,%eax
    45c9:	3b 55 f0             	cmp    -0x10(%ebp),%edx
    45cc:	75 e2                	jne    45b0 <str_decode+0xb0>
    45ce:	e9 5b ff ff ff       	jmp    452e <str_decode+0x2e>
    45d3:	90                   	nop
    45d4:	8d 74 26 00          	lea    0x0(%esi,%eiz,1),%esi
    45d8:	b8 02 00 00 00       	mov    $0x2,%eax
    45dd:	b9 04 00 00 00       	mov    $0x4,%ecx
    45e2:	eb 8e                	jmp    4572 <str_decode+0x72>
    45e4:	b8 03 00 00 00       	mov    $0x3,%eax
    45e9:	b9 03 00 00 00       	mov    $0x3,%ecx
    45ee:	eb 82                	jmp    4572 <str_decode+0x72>

000045f0 <str_decode_reverse>:
    45f0:	55                   	push   %ebp
    45f1:	89 e5                	mov    %esp,%ebp
    45f3:	57                   	push   %edi
    45f4:	56                   	push   %esi
    45f5:	53                   	push   %ebx
    45f6:	83 ec 08             	sub    $0x8,%esp
    45f9:	8b 7d 0c             	mov    0xc(%ebp),%edi
    45fc:	8b 07                	mov    (%edi),%eax
    45fe:	89 45 f0             	mov    %eax,-0x10(%ebp)
    4601:	85 c0                	test   %eax,%eax
    4603:	0f 84 25 01 00 00    	je     472e <str_decode_reverse+0x13e>
    4609:	8d 58 ff             	lea    -0x1(%eax),%ebx
    460c:	8b 45 08             	mov    0x8(%ebp),%eax
    460f:	89 1f                	mov    %ebx,(%edi)
    4611:	8a 04 18             	mov    (%eax,%ebx,1),%al
    4614:	84 c0                	test   %al,%al
    4616:	0f 89 ec 01 00 00    	jns    4808 <str_decode_reverse+0x218>
    461c:	88 c1                	mov    %al,%cl
    461e:	83 e1 e0             	and    $0xffffffe0,%ecx
    4621:	88 4d ef             	mov    %cl,-0x11(%ebp)
    4624:	80 f9 c0             	cmp    $0xc0,%cl
    4627:	0f 84 bd 01 00 00    	je     47ea <str_decode_reverse+0x1fa>
    462d:	88 c1                	mov    %al,%cl
    462f:	83 e1 f0             	and    $0xfffffff0,%ecx
    4632:	80 f9 e0             	cmp    $0xe0,%cl
    4635:	0f 84 dc 01 00 00    	je     4817 <str_decode_reverse+0x227>
    463b:	89 c6                	mov    %eax,%esi
    463d:	83 e6 f8             	and    $0xfffffff8,%esi
    4640:	89 f2                	mov    %esi,%edx
    4642:	80 fa f0             	cmp    $0xf0,%dl
    4645:	0f 84 d6 01 00 00    	je     4821 <str_decode_reverse+0x231>
    464b:	83 e0 c0             	and    $0xffffffc0,%eax
    464e:	3c 80                	cmp    $0x80,%al
    4650:	0f 85 c3 00 00 00    	jne    4719 <str_decode_reverse+0x129>
    4656:	85 db                	test   %ebx,%ebx
    4658:	0f 84 bb 00 00 00    	je     4719 <str_decode_reverse+0x129>
    465e:	8b 55 f0             	mov    -0x10(%ebp),%edx
    4661:	8b 45 08             	mov    0x8(%ebp),%eax
    4664:	8d 72 fe             	lea    -0x2(%edx),%esi
    4667:	89 37                	mov    %esi,(%edi)
    4669:	8a 04 30             	mov    (%eax,%esi,1),%al
    466c:	88 c1                	mov    %al,%cl
    466e:	83 e1 e0             	and    $0xffffffe0,%ecx
    4671:	88 4d ef             	mov    %cl,-0x11(%ebp)
    4674:	80 f9 c0             	cmp    $0xc0,%cl
    4677:	0f 84 93 01 00 00    	je     4810 <str_decode_reverse+0x220>
    467d:	88 c1                	mov    %al,%cl
    467f:	83 e1 f0             	and    $0xfffffff0,%ecx
    4682:	80 f9 e0             	cmp    $0xe0,%cl
    4685:	0f 84 9c 00 00 00    	je     4727 <str_decode_reverse+0x137>
    468b:	88 c2                	mov    %al,%dl
    468d:	83 e2 f8             	and    $0xfffffff8,%edx
    4690:	80 fa f0             	cmp    $0xf0,%dl
    4693:	0f 84 90 00 00 00    	je     4729 <str_decode_reverse+0x139>
    4699:	83 e0 c0             	and    $0xffffffc0,%eax
    469c:	3c 80                	cmp    $0x80,%al
    469e:	75 79                	jne    4719 <str_decode_reverse+0x129>
    46a0:	85 f6                	test   %esi,%esi
    46a2:	74 75                	je     4719 <str_decode_reverse+0x129>
    46a4:	8b 55 f0             	mov    -0x10(%ebp),%edx
    46a7:	8b 45 08             	mov    0x8(%ebp),%eax
    46aa:	8d 5a fd             	lea    -0x3(%edx),%ebx
    46ad:	89 1f                	mov    %ebx,(%edi)
    46af:	8a 04 18             	mov    (%eax,%ebx,1),%al
    46b2:	88 c1                	mov    %al,%cl
    46b4:	83 e1 e0             	and    $0xffffffe0,%ecx
    46b7:	88 4d ef             	mov    %cl,-0x11(%ebp)
    46ba:	80 f9 c0             	cmp    $0xc0,%cl
    46bd:	0f 84 6d 01 00 00    	je     4830 <str_decode_reverse+0x240>
    46c3:	88 c1                	mov    %al,%cl
    46c5:	83 e1 f0             	and    $0xfffffff0,%ecx
    46c8:	80 f9 e0             	cmp    $0xe0,%cl
    46cb:	74 58                	je     4725 <str_decode_reverse+0x135>
    46cd:	88 c2                	mov    %al,%dl
    46cf:	83 e2 f8             	and    $0xfffffff8,%edx
    46d2:	80 fa f0             	cmp    $0xf0,%dl
    46d5:	0f 84 4e 01 00 00    	je     4829 <str_decode_reverse+0x239>
    46db:	83 e0 c0             	and    $0xffffffc0,%eax
    46de:	3c 80                	cmp    $0x80,%al
    46e0:	75 37                	jne    4719 <str_decode_reverse+0x129>
    46e2:	85 db                	test   %ebx,%ebx
    46e4:	74 33                	je     4719 <str_decode_reverse+0x129>
    46e6:	8b 55 f0             	mov    -0x10(%ebp),%edx
    46e9:	8b 45 08             	mov    0x8(%ebp),%eax
    46ec:	83 ea 04             	sub    $0x4,%edx
    46ef:	89 17                	mov    %edx,(%edi)
    46f1:	8a 04 10             	mov    (%eax,%edx,1),%al
    46f4:	88 c2                	mov    %al,%dl
    46f6:	83 e2 e0             	and    $0xffffffe0,%edx
    46f9:	88 55 ef             	mov    %dl,-0x11(%ebp)
    46fc:	80 fa c0             	cmp    $0xc0,%dl
    46ff:	0f 84 0b 01 00 00    	je     4810 <str_decode_reverse+0x220>
    4705:	88 c1                	mov    %al,%cl
    4707:	83 e1 f0             	and    $0xfffffff0,%ecx
    470a:	80 f9 e0             	cmp    $0xe0,%cl
    470d:	74 18                	je     4727 <str_decode_reverse+0x137>
    470f:	88 c2                	mov    %al,%dl
    4711:	83 e2 f8             	and    $0xfffffff8,%edx
    4714:	80 fa f0             	cmp    $0xf0,%dl
    4717:	74 10                	je     4729 <str_decode_reverse+0x139>
    4719:	b8 3f 00 00 00       	mov    $0x3f,%eax
    471e:	5a                   	pop    %edx
    471f:	59                   	pop    %ecx
    4720:	5b                   	pop    %ebx
    4721:	5e                   	pop    %esi
    4722:	5f                   	pop    %edi
    4723:	5d                   	pop    %ebp
    4724:	c3                   	ret    
    4725:	89 f3                	mov    %esi,%ebx
    4727:	b1 e0                	mov    $0xe0,%cl
    4729:	39 5d 10             	cmp    %ebx,0x10(%ebp)
    472c:	73 0a                	jae    4738 <str_decode_reverse+0x148>
    472e:	5a                   	pop    %edx
    472f:	31 c0                	xor    %eax,%eax
    4731:	59                   	pop    %ecx
    4732:	5b                   	pop    %ebx
    4733:	5e                   	pop    %esi
    4734:	5f                   	pop    %edi
    4735:	5d                   	pop    %ebp
    4736:	c3                   	ret    
    4737:	90                   	nop
    4738:	80 7d ef c0          	cmpb   $0xc0,-0x11(%ebp)
    473c:	0f 84 b6 00 00 00    	je     47f8 <str_decode_reverse+0x208>
