
devman:     file format elf32-i386


Disassembly of section .init:

000010b4 <__entry>:
    10b4:	66 8c d0             	mov    %ss,%ax
    10b7:	8e d8                	mov    %eax,%ds
    10b9:	8e c0                	mov    %eax,%es
    10bb:	8e e0                	mov    %eax,%fs
    10bd:	b8 01 00 00 00       	mov    $0x1,%eax
    10c2:	0f a2                	cpuid  
    10c4:	0f ba e2 0b          	bt     $0xb,%edx
    10c8:	73 0c                	jae    10d6 <__entry+0x22>
    10ca:	8d 05 18 cb 02 00    	lea    0x2cb18,%eax
    10d0:	c7 00 4d 53 02 00    	movl   $0x2534d,(%eax)
    10d6:	6a 00                	push   $0x0
    10d8:	6a 00                	push   $0x0
    10da:	89 e5                	mov    %esp,%ebp
    10dc:	57                   	push   %edi
    10dd:	e8 ee 4d 00 00       	call   5ed0 <__main>

Disassembly of section .text:

00001100 <devman_connection_client>:
    1100:	55                   	push   %ebp
    1101:	89 e5                	mov    %esp,%ebp
    1103:	57                   	push   %edi
    1104:	56                   	push   %esi
    1105:	53                   	push   %ebx
    1106:	83 ec 54             	sub    $0x54,%esp
    1109:	8b 45 08             	mov    0x8(%ebp),%eax
    110c:	6a 00                	push   $0x0
    110e:	50                   	push   %eax
    110f:	e8 1c b4 01 00       	call   1c530 <async_answer_0>
    1114:	83 c4 10             	add    $0x10,%esp
    1117:	90                   	nop
    1118:	50                   	push   %eax
    1119:	50                   	push   %eax
    111a:	8d 45 c4             	lea    -0x3c(%ebp),%eax
    111d:	6a 00                	push   $0x0
    111f:	50                   	push   %eax
    1120:	e8 8b 9b 01 00       	call   1acb0 <async_get_call_timeout>
    1125:	89 c3                	mov    %eax,%ebx
    1127:	8b 45 c4             	mov    -0x3c(%ebp),%eax
    112a:	83 c4 10             	add    $0x10,%esp
    112d:	85 c0                	test   %eax,%eax
    112f:	0f 84 eb 08 00 00    	je     1a20 <devman_connection_client+0x920>
    1135:	2d 00 04 00 00       	sub    $0x400,%eax
    113a:	83 f8 11             	cmp    $0x11,%eax
    113d:	0f 87 c5 08 00 00    	ja     1a08 <devman_connection_client+0x908>
    1143:	ff 24 85 f8 81 02 00 	jmp    *0x281f8(,%eax,4)
    114a:	8d b6 00 00 00 00    	lea    0x0(%esi),%esi
    1150:	50                   	push   %eax
    1151:	50                   	push   %eax
    1152:	8b 45 c8             	mov    -0x38(%ebp),%eax
    1155:	50                   	push   %eax
    1156:	68 d0 cb 02 00       	push   $0x2cbd0
    115b:	e8 30 26 00 00       	call   3790 <driver_find>
    1160:	83 c4 10             	add    $0x10,%esp
    1163:	85 c0                	test   %eax,%eax
    1165:	0f 84 9d 08 00 00    	je     1a08 <devman_connection_client+0x908>
    116b:	57                   	push   %edi
    116c:	8b 40 0c             	mov    0xc(%eax),%eax
    116f:	50                   	push   %eax
    1170:	6a 00                	push   $0x0
    1172:	53                   	push   %ebx
    1173:	e8 d8 b3 01 00       	call   1c550 <async_answer_1>
    1178:	83 c4 10             	add    $0x10,%esp
    117b:	eb 9b                	jmp    1118 <devman_connection_client+0x18>
    117d:	8d 76 00             	lea    0x0(%esi),%esi
    1180:	8b 75 c8             	mov    -0x38(%ebp),%esi
    1183:	51                   	push   %ecx
    1184:	51                   	push   %ecx
    1185:	56                   	push   %esi
    1186:	68 d0 cb 02 00       	push   $0x2cbd0
    118b:	e8 00 26 00 00       	call   3790 <driver_find>
    1190:	83 c4 10             	add    $0x10,%esp
    1193:	89 c7                	mov    %eax,%edi
    1195:	85 c0                	test   %eax,%eax
    1197:	0f 84 ab 08 00 00    	je     1a48 <devman_connection_client+0x948>
    119d:	50                   	push   %eax
    119e:	50                   	push   %eax
    119f:	8d 45 c0             	lea    -0x40(%ebp),%eax
    11a2:	50                   	push   %eax
    11a3:	8d 45 bc             	lea    -0x44(%ebp),%eax
    11a6:	50                   	push   %eax
    11a7:	e8 e4 ca 01 00       	call   1dc90 <async_data_read_receive>
    11ac:	83 c4 10             	add    $0x10,%esp
    11af:	84 c0                	test   %al,%al
    11b1:	0f 84 c9 08 00 00    	je     1a80 <devman_connection_client+0x980>
    11b7:	83 ec 0c             	sub    $0xc,%esp
    11ba:	8b 45 c0             	mov    -0x40(%ebp),%eax
    11bd:	50                   	push   %eax
    11be:	e8 1d 71 01 00       	call   182e0 <malloc>
    11c3:	83 c4 10             	add    $0x10,%esp
    11c6:	89 c6                	mov    %eax,%esi
    11c8:	85 c0                	test   %eax,%eax
    11ca:	0f 84 da 09 00 00    	je     1baa <devman_connection_client+0xaaa>
    11d0:	83 ec 0c             	sub    $0xc,%esp
    11d3:	8d 47 2c             	lea    0x2c(%edi),%eax
    11d6:	89 45 b4             	mov    %eax,-0x4c(%ebp)
    11d9:	50                   	push   %eax
    11da:	e8 31 c4 00 00       	call   d610 <fibril_mutex_lock>
    11df:	58                   	pop    %eax
    11e0:	8b 47 14             	mov    0x14(%edi),%eax
    11e3:	50                   	push   %eax
    11e4:	e8 d7 77 00 00       	call   89c0 <str_size>
    11e9:	8b 55 c0             	mov    -0x40(%ebp),%edx
    11ec:	83 c4 0c             	add    $0xc,%esp
    11ef:	39 c2                	cmp    %eax,%edx
    11f1:	76 02                	jbe    11f5 <devman_connection_client+0xf5>
    11f3:	89 c2                	mov    %eax,%edx
    11f5:	8b 47 14             	mov    0x14(%edi),%eax
    11f8:	52                   	push   %edx
    11f9:	50                   	push   %eax
    11fa:	8b 45 bc             	mov    -0x44(%ebp),%eax
    11fd:	50                   	push   %eax
    11fe:	e8 6d cb 01 00       	call   1dd70 <async_data_read_finalize>
    1203:	58                   	pop    %eax
    1204:	5a                   	pop    %edx
    1205:	6a 00                	push   $0x0
    1207:	53                   	push   %ebx
    1208:	e8 23 b3 01 00       	call   1c530 <async_answer_0>
    120d:	8b 5d b4             	mov    -0x4c(%ebp),%ebx
    1210:	59                   	pop    %ecx
    1211:	53                   	push   %ebx
    1212:	e8 79 c5 00 00       	call   d790 <fibril_mutex_unlock>
    1217:	89 34 24             	mov    %esi,(%esp)
    121a:	e8 71 72 01 00       	call   18490 <free>
    121f:	83 c4 10             	add    $0x10,%esp
    1222:	e9 f1 fe ff ff       	jmp    1118 <devman_connection_client+0x18>
    1227:	90                   	nop
    1228:	50                   	push   %eax
    1229:	50                   	push   %eax
    122a:	8b 45 c8             	mov    -0x38(%ebp),%eax
    122d:	8b 7d cc             	mov    -0x34(%ebp),%edi
    1230:	50                   	push   %eax
    1231:	68 d0 cb 02 00       	push   $0x2cbd0
    1236:	e8 55 25 00 00       	call   3790 <driver_find>
    123b:	83 c4 10             	add    $0x10,%esp
    123e:	89 c6                	mov    %eax,%esi
    1240:	85 c0                	test   %eax,%eax
    1242:	0f 84 00 08 00 00    	je     1a48 <devman_connection_client+0x948>
    1248:	50                   	push   %eax
    1249:	50                   	push   %eax
    124a:	8d 45 c0             	lea    -0x40(%ebp),%eax
    124d:	50                   	push   %eax
    124e:	8d 45 bc             	lea    -0x44(%ebp),%eax
    1251:	50                   	push   %eax
    1252:	e8 39 ca 01 00       	call   1dc90 <async_data_read_receive>
    1257:	83 c4 10             	add    $0x10,%esp
    125a:	84 c0                	test   %al,%al
    125c:	0f 84 1e 08 00 00    	je     1a80 <devman_connection_client+0x980>
    1262:	83 ec 0c             	sub    $0xc,%esp
    1265:	8b 45 c0             	mov    -0x40(%ebp),%eax
    1268:	50                   	push   %eax
    1269:	e8 72 70 01 00       	call   182e0 <malloc>
    126e:	83 c4 10             	add    $0x10,%esp
    1271:	89 45 b4             	mov    %eax,-0x4c(%ebp)
    1274:	85 c0                	test   %eax,%eax
    1276:	0f 84 2e 09 00 00    	je     1baa <devman_connection_client+0xaaa>
    127c:	83 ec 0c             	sub    $0xc,%esp
    127f:	8d 46 2c             	lea    0x2c(%esi),%eax
    1282:	89 45 b0             	mov    %eax,-0x50(%ebp)
    1285:	83 c6 1c             	add    $0x1c,%esi
    1288:	50                   	push   %eax
    1289:	e8 82 c3 00 00       	call   d610 <fibril_mutex_lock>
    128e:	8b 56 04             	mov    0x4(%esi),%edx
    1291:	83 c4 10             	add    $0x10,%esp
    1294:	39 f2                	cmp    %esi,%edx
    1296:	74 2c                	je     12c4 <devman_connection_client+0x1c4>
    1298:	85 d2                	test   %edx,%edx
    129a:	74 28                	je     12c4 <devman_connection_client+0x1c4>
    129c:	85 ff                	test   %edi,%edi
    129e:	0f 84 0d 09 00 00    	je     1bb1 <devman_connection_client+0xab1>
    12a4:	8b 52 04             	mov    0x4(%edx),%edx
    12a7:	b8 01 00 00 00       	mov    $0x1,%eax
    12ac:	39 d6                	cmp    %edx,%esi
    12ae:	74 14                	je     12c4 <devman_connection_client+0x1c4>
    12b0:	85 d2                	test   %edx,%edx
    12b2:	74 10                	je     12c4 <devman_connection_client+0x1c4>
    12b4:	39 c7                	cmp    %eax,%edi
    12b6:	0f 84 f5 08 00 00    	je     1bb1 <devman_connection_client+0xab1>
    12bc:	8b 52 04             	mov    0x4(%edx),%edx
    12bf:	40                   	inc    %eax
    12c0:	39 d6                	cmp    %edx,%esi
    12c2:	75 ec                	jne    12b0 <devman_connection_client+0x1b0>
    12c4:	83 ec 0c             	sub    $0xc,%esp
    12c7:	8b 75 b0             	mov    -0x50(%ebp),%esi
    12ca:	56                   	push   %esi
    12cb:	e8 c0 c4 00 00       	call   d790 <fibril_mutex_unlock>
    12d0:	8b 45 b4             	mov    -0x4c(%ebp),%eax
    12d3:	5f                   	pop    %edi
    12d4:	50                   	push   %eax
    12d5:	e8 b6 71 01 00       	call   18490 <free>
    12da:	58                   	pop    %eax
    12db:	5a                   	pop    %edx
    12dc:	8b 4d bc             	mov    -0x44(%ebp),%ecx
    12df:	6a fe                	push   $0xfffffffe
    12e1:	51                   	push   %ecx
    12e2:	e8 49 b2 01 00       	call   1c530 <async_answer_0>
    12e7:	58                   	pop    %eax
    12e8:	5a                   	pop    %edx
    12e9:	6a fe                	push   $0xfffffffe
    12eb:	53                   	push   %ebx
    12ec:	e8 3f b2 01 00       	call   1c530 <async_answer_0>
    12f1:	83 c4 10             	add    $0x10,%esp
    12f4:	e9 1f fe ff ff       	jmp    1118 <devman_connection_client+0x18>
    12f9:	8d b4 26 00 00 00 00 	lea    0x0(%esi,%eiz,1),%esi
    1300:	8d 45 c0             	lea    -0x40(%ebp),%eax
    1303:	51                   	push   %ecx
    1304:	51                   	push   %ecx
    1305:	6a 00                	push   $0x0
    1307:	6a 00                	push   $0x0
    1309:	6a 00                	push   $0x0
    130b:	6a 00                	push   $0x0
    130d:	6a 01                	push   $0x1
    130f:	50                   	push   %eax
    1310:	e8 8b ce 01 00       	call   1e1a0 <async_data_write_accept>
    1315:	83 c4 20             	add    $0x20,%esp
    1318:	85 c0                	test   %eax,%eax
    131a:	0f 85 b0 06 00 00    	jne    19d0 <devman_connection_client+0x8d0>
    1320:	8b 4d c0             	mov    -0x40(%ebp),%ecx
    1323:	52                   	push   %edx
    1324:	52                   	push   %edx
    1325:	51                   	push   %ecx
    1326:	68 d0 cb 02 00       	push   $0x2cbd0
    132b:	e8 c0 24 00 00       	call   37f0 <driver_find_by_name>
    1330:	89 c6                	mov    %eax,%esi
    1332:	8b 45 c0             	mov    -0x40(%ebp),%eax
    1335:	5f                   	pop    %edi
    1336:	50                   	push   %eax
    1337:	e8 54 71 01 00       	call   18490 <free>
    133c:	83 c4 10             	add    $0x10,%esp
    133f:	85 f6                	test   %esi,%esi
    1341:	0f 84 c1 06 00 00    	je     1a08 <devman_connection_client+0x908>
    1347:	50                   	push   %eax
    1348:	8b 46 08             	mov    0x8(%esi),%eax
    134b:	50                   	push   %eax
    134c:	6a 00                	push   $0x0
    134e:	53                   	push   %ebx
    134f:	e8 fc b1 01 00       	call   1c550 <async_answer_1>
    1354:	83 c4 10             	add    $0x10,%esp
    1357:	e9 bc fd ff ff       	jmp    1118 <devman_connection_client+0x18>
    135c:	8d 74 26 00          	lea    0x0(%esi,%eiz,1),%esi
    1360:	8d 45 bc             	lea    -0x44(%ebp),%eax
    1363:	57                   	push   %edi
    1364:	57                   	push   %edi
    1365:	50                   	push   %eax
    1366:	8d 45 b8             	lea    -0x48(%ebp),%eax
    1369:	50                   	push   %eax
    136a:	e8 21 c9 01 00       	call   1dc90 <async_data_read_receive>
    136f:	83 c4 10             	add    $0x10,%esp
    1372:	84 c0                	test   %al,%al
    1374:	0f 84 3e 06 00 00    	je     19b8 <devman_connection_client+0x8b8>
    137a:	8b 4d c8             	mov    -0x38(%ebp),%ecx
    137d:	52                   	push   %edx
    137e:	52                   	push   %edx
    137f:	51                   	push   %ecx
    1380:	68 d0 cb 02 00       	push   $0x2cbd0
    1385:	e8 06 24 00 00       	call   3790 <driver_find>
    138a:	83 c4 10             	add    $0x10,%esp
    138d:	89 c7                	mov    %eax,%edi
    138f:	85 c0                	test   %eax,%eax
    1391:	0f 84 8b 09 00 00    	je     1d22 <devman_connection_client+0xc22>
    1397:	83 ec 0c             	sub    $0xc,%esp
    139a:	8b 45 bc             	mov    -0x44(%ebp),%eax
    139d:	50                   	push   %eax
    139e:	e8 3d 6f 01 00       	call   182e0 <malloc>
    13a3:	83 c4 10             	add    $0x10,%esp
    13a6:	89 c6                	mov    %eax,%esi
    13a8:	85 c0                	test   %eax,%eax
    13aa:	0f 84 ed 07 00 00    	je     1b9d <devman_connection_client+0xa9d>
    13b0:	8d 45 c0             	lea    -0x40(%ebp),%eax
    13b3:	50                   	push   %eax
    13b4:	8b 45 bc             	mov    -0x44(%ebp),%eax
    13b7:	50                   	push   %eax
    13b8:	56                   	push   %esi
    13b9:	57                   	push   %edi
    13ba:	e8 81 31 00 00       	call   4540 <driver_get_devices>
    13bf:	83 c4 10             	add    $0x10,%esp
    13c2:	89 c7                	mov    %eax,%edi
    13c4:	85 c0                	test   %eax,%eax
    13c6:	0f 84 8c 07 00 00    	je     1b58 <devman_connection_client+0xa58>
    13cc:	83 ec 0c             	sub    $0xc,%esp
    13cf:	68 68 cb 02 00       	push   $0x2cb68
    13d4:	e8 f7 c7 00 00       	call   dbd0 <fibril_rwlock_read_unlock>
    13d9:	5e                   	pop    %esi
    13da:	58                   	pop    %eax
    13db:	8b 4d b8             	mov    -0x48(%ebp),%ecx
    13de:	57                   	push   %edi
    13df:	51                   	push   %ecx
    13e0:	e8 4b b1 01 00       	call   1c530 <async_answer_0>
    13e5:	e9 ca 00 00 00       	jmp    14b4 <devman_connection_client+0x3b4>
    13ea:	8d b6 00 00 00 00    	lea    0x0(%esi),%esi
    13f0:	50                   	push   %eax
    13f1:	50                   	push   %eax
    13f2:	8b 45 c8             	mov    -0x38(%ebp),%eax
    13f5:	8b 75 cc             	mov    -0x34(%ebp),%esi
    13f8:	50                   	push   %eax
    13f9:	68 60 cb 02 00       	push   $0x2cb60
    13fe:	e8 7d 36 00 00       	call   4a80 <find_fun_node>
    1403:	83 c4 10             	add    $0x10,%esp
    1406:	89 c7                	mov    %eax,%edi
    1408:	85 c0                	test   %eax,%eax
    140a:	0f 84 38 06 00 00    	je     1a48 <devman_connection_client+0x948>
    1410:	50                   	push   %eax
    1411:	50                   	push   %eax
    1412:	8d 45 c0             	lea    -0x40(%ebp),%eax
    1415:	50                   	push   %eax
    1416:	8d 45 bc             	lea    -0x44(%ebp),%eax
    1419:	50                   	push   %eax
    141a:	e8 71 c8 01 00       	call   1dc90 <async_data_read_receive>
    141f:	83 c4 10             	add    $0x10,%esp
    1422:	84 c0                	test   %al,%al
    1424:	0f 85 6e 06 00 00    	jne    1a98 <devman_connection_client+0x998>
    142a:	56                   	push   %esi
    142b:	56                   	push   %esi
    142c:	6a f2                	push   $0xfffffff2
    142e:	53                   	push   %ebx
    142f:	e8 fc b0 01 00       	call   1c530 <async_answer_0>
    1434:	89 3c 24             	mov    %edi,(%esp)
    1437:	e8 84 35 00 00       	call   49c0 <fun_del_ref>
    143c:	83 c4 10             	add    $0x10,%esp
    143f:	e9 d4 fc ff ff       	jmp    1118 <devman_connection_client+0x18>
    1444:	8d 74 26 00          	lea    0x0(%esi,%eiz,1),%esi
    1448:	50                   	push   %eax
    1449:	50                   	push   %eax
    144a:	8b 45 c8             	mov    -0x38(%ebp),%eax
    144d:	50                   	push   %eax
    144e:	68 60 cb 02 00       	push   $0x2cb60
    1453:	e8 28 36 00 00       	call   4a80 <find_fun_node>
    1458:	83 c4 10             	add    $0x10,%esp
    145b:	89 c6                	mov    %eax,%esi
    145d:	85 c0                	test   %eax,%eax
    145f:	0f 84 a3 05 00 00    	je     1a08 <devman_connection_client+0x908>
    1465:	57                   	push   %edi
    1466:	57                   	push   %edi
    1467:	50                   	push   %eax
    1468:	68 60 cb 02 00       	push   $0x2cb60
    146d:	e8 9e 2f 00 00       	call   4410 <driver_fun_offline>
    1472:	89 34 24             	mov    %esi,(%esp)
    1475:	89 c7                	mov    %eax,%edi
    1477:	e8 44 35 00 00       	call   49c0 <fun_del_ref>
    147c:	eb 36                	jmp    14b4 <devman_connection_client+0x3b4>
    147e:	66 90                	xchg   %ax,%ax
    1480:	50                   	push   %eax
    1481:	50                   	push   %eax
    1482:	8b 45 c8             	mov    -0x38(%ebp),%eax
    1485:	50                   	push   %eax
    1486:	68 60 cb 02 00       	push   $0x2cb60
    148b:	e8 f0 35 00 00       	call   4a80 <find_fun_node>
    1490:	83 c4 10             	add    $0x10,%esp
    1493:	89 c6                	mov    %eax,%esi
    1495:	85 c0                	test   %eax,%eax
    1497:	0f 84 6b 05 00 00    	je     1a08 <devman_connection_client+0x908>
    149d:	50                   	push   %eax
    149e:	50                   	push   %eax
    149f:	56                   	push   %esi
    14a0:	68 60 cb 02 00       	push   $0x2cb60
    14a5:	e8 c6 2e 00 00       	call   4370 <driver_fun_online>
    14aa:	89 34 24             	mov    %esi,(%esp)
    14ad:	89 c7                	mov    %eax,%edi
    14af:	e8 0c 35 00 00       	call   49c0 <fun_del_ref>
    14b4:	58                   	pop    %eax
    14b5:	5a                   	pop    %edx
    14b6:	57                   	push   %edi
    14b7:	53                   	push   %ebx
    14b8:	e8 73 b0 01 00       	call   1c530 <async_answer_0>
    14bd:	83 c4 10             	add    $0x10,%esp
    14c0:	e9 53 fc ff ff       	jmp    1118 <devman_connection_client+0x18>
    14c5:	8d 76 00             	lea    0x0(%esi),%esi
    14c8:	50                   	push   %eax
    14c9:	50                   	push   %eax
    14ca:	8b 45 c8             	mov    -0x38(%ebp),%eax
    14cd:	50                   	push   %eax
    14ce:	68 60 cb 02 00       	push   $0x2cb60
    14d3:	e8 a8 35 00 00       	call   4a80 <find_fun_node>
    14d8:	83 c4 10             	add    $0x10,%esp
    14db:	89 c6                	mov    %eax,%esi
    14dd:	85 c0                	test   %eax,%eax
    14df:	0f 84 63 05 00 00    	je     1a48 <devman_connection_client+0x948>
    14e5:	8d 45 c0             	lea    -0x40(%ebp),%eax
    14e8:	57                   	push   %edi
    14e9:	57                   	push   %edi
    14ea:	50                   	push   %eax
    14eb:	8d 45 bc             	lea    -0x44(%ebp),%eax
    14ee:	50                   	push   %eax
    14ef:	e8 9c c7 01 00       	call   1dc90 <async_data_read_receive>
    14f4:	83 c4 10             	add    $0x10,%esp
    14f7:	84 c0                	test   %al,%al
    14f9:	0f 84 61 05 00 00    	je     1a60 <devman_connection_client+0x960>
    14ff:	83 ec 0c             	sub    $0xc,%esp
    1502:	8b 4d c0             	mov    -0x40(%ebp),%ecx
    1505:	51                   	push   %ecx
    1506:	e8 d5 6d 01 00       	call   182e0 <malloc>
    150b:	83 c4 10             	add    $0x10,%esp
    150e:	89 c7                	mov    %eax,%edi
    1510:	85 c0                	test   %eax,%eax
    1512:	0f 84 6f 06 00 00    	je     1b87 <devman_connection_client+0xa87>
    1518:	83 ec 0c             	sub    $0xc,%esp
    151b:	68 68 cb 02 00       	push   $0x2cb68
    1520:	e8 cb c4 00 00       	call   d9f0 <fibril_rwlock_read_lock>
    1525:	83 c4 10             	add    $0x10,%esp
    1528:	83 7e 04 03          	cmpl   $0x3,0x4(%esi)
    152c:	0f 84 46 07 00 00    	je     1c78 <devman_connection_client+0xb78>
    1532:	8b 46 34             	mov    0x34(%esi),%eax
    1535:	85 c0                	test   %eax,%eax
    1537:	0f 84 66 07 00 00    	je     1ca3 <devman_connection_client+0xba3>
    153d:	8b 40 14             	mov    0x14(%eax),%eax
    1540:	85 c0                	test   %eax,%eax
    1542:	0f 84 5b 07 00 00    	je     1ca3 <devman_connection_client+0xba3>
    1548:	83 ec 0c             	sub    $0xc,%esp
    154b:	8b 48 14             	mov    0x14(%eax),%ecx
    154e:	51                   	push   %ecx
    154f:	e8 6c 74 00 00       	call   89c0 <str_size>
    1554:	8b 55 c0             	mov    -0x40(%ebp),%edx
    1557:	83 c4 0c             	add    $0xc,%esp
    155a:	39 c2                	cmp    %eax,%edx
    155c:	76 02                	jbe    1560 <devman_connection_client+0x460>
    155e:	89 c2                	mov    %eax,%edx
    1560:	8b 46 34             	mov    0x34(%esi),%eax
    1563:	52                   	push   %edx
    1564:	8b 40 14             	mov    0x14(%eax),%eax
    1567:	8b 50 14             	mov    0x14(%eax),%edx
    156a:	52                   	push   %edx
    156b:	e9 87 00 00 00       	jmp    15f7 <devman_connection_client+0x4f7>
    1570:	50                   	push   %eax
    1571:	50                   	push   %eax
    1572:	8b 45 c8             	mov    -0x38(%ebp),%eax
    1575:	50                   	push   %eax
    1576:	68 60 cb 02 00       	push   $0x2cb60
    157b:	e8 00 35 00 00       	call   4a80 <find_fun_node>
    1580:	83 c4 10             	add    $0x10,%esp
    1583:	89 c6                	mov    %eax,%esi
    1585:	85 c0                	test   %eax,%eax
    1587:	0f 84 bb 04 00 00    	je     1a48 <devman_connection_client+0x948>
    158d:	50                   	push   %eax
    158e:	50                   	push   %eax
    158f:	8d 45 c0             	lea    -0x40(%ebp),%eax
    1592:	50                   	push   %eax
    1593:	8d 45 bc             	lea    -0x44(%ebp),%eax
    1596:	50                   	push   %eax
    1597:	e8 f4 c6 01 00       	call   1dc90 <async_data_read_receive>
    159c:	83 c4 10             	add    $0x10,%esp
    159f:	84 c0                	test   %al,%al
    15a1:	0f 84 b9 04 00 00    	je     1a60 <devman_connection_client+0x960>
    15a7:	83 ec 0c             	sub    $0xc,%esp
    15aa:	8b 7d c0             	mov    -0x40(%ebp),%edi
    15ad:	57                   	push   %edi
    15ae:	e8 2d 6d 01 00       	call   182e0 <malloc>
    15b3:	83 c4 10             	add    $0x10,%esp
    15b6:	89 c7                	mov    %eax,%edi
    15b8:	85 c0                	test   %eax,%eax
    15ba:	0f 84 c7 05 00 00    	je     1b87 <devman_connection_client+0xa87>
    15c0:	83 ec 0c             	sub    $0xc,%esp
    15c3:	68 68 cb 02 00       	push   $0x2cb68
    15c8:	e8 23 c4 00 00       	call   d9f0 <fibril_rwlock_read_lock>
    15cd:	83 c4 10             	add    $0x10,%esp
    15d0:	83 7e 04 03          	cmpl   $0x3,0x4(%esi)
    15d4:	0f 84 9e 06 00 00    	je     1c78 <devman_connection_client+0xb78>
    15da:	83 ec 0c             	sub    $0xc,%esp
    15dd:	8b 46 1c             	mov    0x1c(%esi),%eax
    15e0:	50                   	push   %eax
    15e1:	e8 da 73 00 00       	call   89c0 <str_size>
    15e6:	8b 55 c0             	mov    -0x40(%ebp),%edx
    15e9:	83 c4 0c             	add    $0xc,%esp
    15ec:	39 c2                	cmp    %eax,%edx
    15ee:	76 02                	jbe    15f2 <devman_connection_client+0x4f2>
    15f0:	89 c2                	mov    %eax,%edx
    15f2:	8b 46 1c             	mov    0x1c(%esi),%eax
    15f5:	52                   	push   %edx
    15f6:	50                   	push   %eax
    15f7:	8b 45 bc             	mov    -0x44(%ebp),%eax
    15fa:	50                   	push   %eax
    15fb:	e8 70 c7 01 00       	call   1dd70 <async_data_read_finalize>
    1600:	5a                   	pop    %edx
    1601:	59                   	pop    %ecx
    1602:	6a 00                	push   $0x0
    1604:	53                   	push   %ebx
    1605:	e8 26 af 01 00       	call   1c530 <async_answer_0>
    160a:	c7 04 24 68 cb 02 00 	movl   $0x2cb68,(%esp)
    1611:	e8 ba c5 00 00       	call   dbd0 <fibril_rwlock_read_unlock>
    1616:	89 34 24             	mov    %esi,(%esp)
    1619:	e8 a2 33 00 00       	call   49c0 <fun_del_ref>
    161e:	89 3c 24             	mov    %edi,(%esp)
    1621:	e8 6a 6e 01 00       	call   18490 <free>
    1626:	83 c4 10             	add    $0x10,%esp
    1629:	e9 ea fa ff ff       	jmp    1118 <devman_connection_client+0x18>
    162e:	66 90                	xchg   %ax,%ax
    1630:	8b 4d c8             	mov    -0x38(%ebp),%ecx
    1633:	52                   	push   %edx
    1634:	52                   	push   %edx
    1635:	51                   	push   %ecx
    1636:	68 60 cb 02 00       	push   $0x2cb60
    163b:	e8 10 31 00 00       	call   4750 <find_loc_tree_function>
    1640:	83 c4 10             	add    $0x10,%esp
    1643:	89 c6                	mov    %eax,%esi
    1645:	85 c0                	test   %eax,%eax
    1647:	0f 84 bb 03 00 00    	je     1a08 <devman_connection_client+0x908>
    164d:	83 ec 0c             	sub    $0xc,%esp
    1650:	68 68 cb 02 00       	push   $0x2cb68
    1655:	e8 96 c3 00 00       	call   d9f0 <fibril_rwlock_read_lock>
    165a:	83 c4 10             	add    $0x10,%esp
    165d:	83 7e 04 03          	cmpl   $0x3,0x4(%esi)
    1661:	0f 84 81 03 00 00    	je     19e8 <devman_connection_client+0x8e8>
    1667:	50                   	push   %eax
    1668:	8b 46 18             	mov    0x18(%esi),%eax
    166b:	50                   	push   %eax
    166c:	6a 00                	push   $0x0
    166e:	53                   	push   %ebx
    166f:	e8 dc ae 01 00       	call   1c550 <async_answer_1>
    1674:	c7 04 24 68 cb 02 00 	movl   $0x2cb68,(%esp)
    167b:	e8 50 c5 00 00       	call   dbd0 <fibril_rwlock_read_unlock>
    1680:	89 34 24             	mov    %esi,(%esp)
    1683:	e8 38 33 00 00       	call   49c0 <fun_del_ref>
    1688:	83 c4 10             	add    $0x10,%esp
    168b:	e9 88 fa ff ff       	jmp    1118 <devman_connection_client+0x18>
    1690:	50                   	push   %eax
    1691:	50                   	push   %eax
    1692:	8b 45 c8             	mov    -0x38(%ebp),%eax
    1695:	50                   	push   %eax
    1696:	68 60 cb 02 00       	push   $0x2cb60
    169b:	e8 e0 33 00 00       	call   4a80 <find_fun_node>
    16a0:	83 c4 10             	add    $0x10,%esp
    16a3:	89 c6                	mov    %eax,%esi
    16a5:	85 c0                	test   %eax,%eax
    16a7:	0f 84 9b 03 00 00    	je     1a48 <devman_connection_client+0x948>
    16ad:	50                   	push   %eax
    16ae:	50                   	push   %eax
    16af:	8d 45 c0             	lea    -0x40(%ebp),%eax
    16b2:	50                   	push   %eax
    16b3:	8d 45 bc             	lea    -0x44(%ebp),%eax
    16b6:	50                   	push   %eax
    16b7:	e8 d4 c5 01 00       	call   1dc90 <async_data_read_receive>
    16bc:	83 c4 10             	add    $0x10,%esp
    16bf:	84 c0                	test   %al,%al
    16c1:	0f 84 99 03 00 00    	je     1a60 <devman_connection_client+0x960>
    16c7:	83 ec 0c             	sub    $0xc,%esp
    16ca:	8b 45 c0             	mov    -0x40(%ebp),%eax
    16cd:	50                   	push   %eax
    16ce:	e8 0d 6c 01 00       	call   182e0 <malloc>
    16d3:	83 c4 10             	add    $0x10,%esp
    16d6:	89 c7                	mov    %eax,%edi
    16d8:	85 c0                	test   %eax,%eax
    16da:	0f 84 a7 04 00 00    	je     1b87 <devman_connection_client+0xa87>
    16e0:	83 ec 0c             	sub    $0xc,%esp
    16e3:	68 68 cb 02 00       	push   $0x2cb68
    16e8:	e8 03 c3 00 00       	call   d9f0 <fibril_rwlock_read_lock>
    16ed:	83 c4 10             	add    $0x10,%esp
    16f0:	83 7e 04 03          	cmpl   $0x3,0x4(%esi)
    16f4:	0f 84 7e 05 00 00    	je     1c78 <devman_connection_client+0xb78>
    16fa:	83 ec 0c             	sub    $0xc,%esp
    16fd:	8b 46 24             	mov    0x24(%esi),%eax
    1700:	50                   	push   %eax
    1701:	e8 ba 72 00 00       	call   89c0 <str_size>
    1706:	8b 55 c0             	mov    -0x40(%ebp),%edx
    1709:	83 c4 0c             	add    $0xc,%esp
    170c:	39 c2                	cmp    %eax,%edx
    170e:	76 02                	jbe    1712 <devman_connection_client+0x612>
    1710:	89 c2                	mov    %eax,%edx
    1712:	8b 46 24             	mov    0x24(%esi),%eax
    1715:	52                   	push   %edx
    1716:	50                   	push   %eax
    1717:	e9 db fe ff ff       	jmp    15f7 <devman_connection_client+0x4f7>
    171c:	8d 74 26 00          	lea    0x0(%esi,%eiz,1),%esi
    1720:	50                   	push   %eax
    1721:	50                   	push   %eax
    1722:	8d 45 bc             	lea    -0x44(%ebp),%eax
    1725:	50                   	push   %eax
    1726:	8d 45 b8             	lea    -0x48(%ebp),%eax
    1729:	50                   	push   %eax
    172a:	e8 61 c5 01 00       	call   1dc90 <async_data_read_receive>
    172f:	83 c4 10             	add    $0x10,%esp
    1732:	84 c0                	test   %al,%al
    1734:	0f 84 7e 02 00 00    	je     19b8 <devman_connection_client+0x8b8>
    173a:	83 ec 0c             	sub    $0xc,%esp
    173d:	8b 45 bc             	mov    -0x44(%ebp),%eax
    1740:	50                   	push   %eax
    1741:	e8 9a 6b 01 00       	call   182e0 <malloc>
    1746:	83 c4 10             	add    $0x10,%esp
    1749:	89 c6                	mov    %eax,%esi
    174b:	85 c0                	test   %eax,%eax
    174d:	0f 84 4a 04 00 00    	je     1b9d <devman_connection_client+0xa9d>
    1753:	8d 45 c0             	lea    -0x40(%ebp),%eax
    1756:	50                   	push   %eax
    1757:	8b 45 bc             	mov    -0x44(%ebp),%eax
    175a:	50                   	push   %eax
    175b:	56                   	push   %esi
    175c:	68 d0 cb 02 00       	push   $0x2cbd0
    1761:	e8 4a 2d 00 00       	call   44b0 <driver_get_list>
    1766:	83 c4 10             	add    $0x10,%esp
    1769:	89 c7                	mov    %eax,%edi
    176b:	85 c0                	test   %eax,%eax
    176d:	0f 84 e5 03 00 00    	je     1b58 <devman_connection_client+0xa58>
    1773:	50                   	push   %eax
    1774:	50                   	push   %eax
    1775:	e9 61 fc ff ff       	jmp    13db <devman_connection_client+0x2db>
    177a:	8d b6 00 00 00 00    	lea    0x0(%esi),%esi
    1780:	50                   	push   %eax
    1781:	50                   	push   %eax
    1782:	8d 45 c0             	lea    -0x40(%ebp),%eax
    1785:	6a 00                	push   $0x0
    1787:	6a 00                	push   $0x0
    1789:	6a 00                	push   $0x0
    178b:	6a 00                	push   $0x0
    178d:	6a 01                	push   $0x1
    178f:	50                   	push   %eax
    1790:	e8 0b ca 01 00       	call   1e1a0 <async_data_write_accept>
    1795:	83 c4 20             	add    $0x20,%esp
    1798:	85 c0                	test   %eax,%eax
    179a:	0f 85 30 02 00 00    	jne    19d0 <devman_connection_client+0x8d0>
    17a0:	8b 7d c0             	mov    -0x40(%ebp),%edi
    17a3:	56                   	push   %esi
    17a4:	56                   	push   %esi
    17a5:	57                   	push   %edi
    17a6:	68 60 cb 02 00       	push   $0x2cb60
    17ab:	e8 70 34 00 00       	call   4c20 <find_fun_node_by_path>
    17b0:	89 c6                	mov    %eax,%esi
    17b2:	58                   	pop    %eax
    17b3:	8b 45 c0             	mov    -0x40(%ebp),%eax
    17b6:	50                   	push   %eax
    17b7:	e8 d4 6c 01 00       	call   18490 <free>
    17bc:	83 c4 10             	add    $0x10,%esp
    17bf:	85 f6                	test   %esi,%esi
    17c1:	0f 84 41 02 00 00    	je     1a08 <devman_connection_client+0x908>
    17c7:	83 ec 0c             	sub    $0xc,%esp
    17ca:	68 68 cb 02 00       	push   $0x2cb68
    17cf:	e8 1c c2 00 00       	call   d9f0 <fibril_rwlock_read_lock>
    17d4:	83 c4 10             	add    $0x10,%esp
    17d7:	83 7e 04 03          	cmpl   $0x3,0x4(%esi)
    17db:	0f 84 07 02 00 00    	je     19e8 <devman_connection_client+0x8e8>
    17e1:	83 ec 0c             	sub    $0xc,%esp
    17e4:	8b 7e 18             	mov    0x18(%esi),%edi
    17e7:	68 68 cb 02 00       	push   $0x2cb68
    17ec:	e8 df c3 00 00       	call   dbd0 <fibril_rwlock_read_unlock>
    17f1:	89 34 24             	mov    %esi,(%esp)
    17f4:	e8 c7 31 00 00       	call   49c0 <fun_del_ref>
    17f9:	83 c4 0c             	add    $0xc,%esp
    17fc:	57                   	push   %edi
    17fd:	6a 00                	push   $0x0
    17ff:	53                   	push   %ebx
    1800:	e8 4b ad 01 00       	call   1c550 <async_answer_1>
    1805:	83 c4 10             	add    $0x10,%esp
    1808:	e9 0b f9 ff ff       	jmp    1118 <devman_connection_client+0x18>
    180d:	8d 76 00             	lea    0x0(%esi),%esi
    1810:	8b 75 c8             	mov    -0x38(%ebp),%esi
    1813:	51                   	push   %ecx
    1814:	51                   	push   %ecx
    1815:	56                   	push   %esi
    1816:	68 d0 cb 02 00       	push   $0x2cbd0
    181b:	e8 70 1f 00 00       	call   3790 <driver_find>
    1820:	83 c4 10             	add    $0x10,%esp
    1823:	89 c6                	mov    %eax,%esi
    1825:	85 c0                	test   %eax,%eax
    1827:	0f 84 db 01 00 00    	je     1a08 <devman_connection_client+0x908>
    182d:	83 ec 0c             	sub    $0xc,%esp
    1830:	8d 78 2c             	lea    0x2c(%eax),%edi
    1833:	57                   	push   %edi
    1834:	e8 d7 bd 00 00       	call   d610 <fibril_mutex_lock>
    1839:	89 34 24             	mov    %esi,(%esp)
    183c:	e8 9f 1e 00 00       	call   36e0 <start_driver>
    1841:	3c 01                	cmp    $0x1,%al
    1843:	89 3c 24             	mov    %edi,(%esp)
    1846:	19 f6                	sbb    %esi,%esi
    1848:	81 e6 f6 fe ff ff    	and    $0xfffffef6,%esi
    184e:	e8 3d bf 00 00       	call   d790 <fibril_mutex_unlock>
    1853:	58                   	pop    %eax
    1854:	5a                   	pop    %edx
    1855:	56                   	push   %esi
    1856:	53                   	push   %ebx
    1857:	e8 d4 ac 01 00       	call   1c530 <async_answer_0>
    185c:	83 c4 10             	add    $0x10,%esp
    185f:	e9 b4 f8 ff ff       	jmp    1118 <devman_connection_client+0x18>
    1864:	8d 74 26 00          	lea    0x0(%esi,%eiz,1),%esi
    1868:	83 ec 0c             	sub    $0xc,%esp
    186b:	68 68 cb 02 00       	push   $0x2cb68
    1870:	e8 7b c1 00 00       	call   d9f0 <fibril_rwlock_read_lock>
    1875:	8b 4d c8             	mov    -0x38(%ebp),%ecx
    1878:	58                   	pop    %eax
    1879:	5a                   	pop    %edx
    187a:	51                   	push   %ecx
    187b:	68 60 cb 02 00       	push   $0x2cb60
    1880:	e8 eb 05 00 00       	call   1e70 <find_dev_node_no_lock>
    1885:	83 c4 10             	add    $0x10,%esp
    1888:	85 c0                	test   %eax,%eax
    188a:	0f 84 58 01 00 00    	je     19e8 <devman_connection_client+0x8e8>
    1890:	83 78 18 04          	cmpl   $0x4,0x18(%eax)
    1894:	0f 84 4e 01 00 00    	je     19e8 <devman_connection_client+0x8e8>
    189a:	8b 40 08             	mov    0x8(%eax),%eax
    189d:	85 c0                	test   %eax,%eax
    189f:	0f 84 43 01 00 00    	je     19e8 <devman_connection_client+0x8e8>
    18a5:	56                   	push   %esi
    18a6:	8b 78 18             	mov    0x18(%eax),%edi
    18a9:	57                   	push   %edi
    18aa:	e9 e7 00 00 00       	jmp    1996 <devman_connection_client+0x896>
    18af:	90                   	nop
    18b0:	8d 45 bc             	lea    -0x44(%ebp),%eax
    18b3:	51                   	push   %ecx
    18b4:	51                   	push   %ecx
    18b5:	50                   	push   %eax
    18b6:	8d 45 b8             	lea    -0x48(%ebp),%eax
    18b9:	50                   	push   %eax
    18ba:	e8 d1 c3 01 00       	call   1dc90 <async_data_read_receive>
    18bf:	83 c4 10             	add    $0x10,%esp
    18c2:	84 c0                	test   %al,%al
    18c4:	0f 84 5e 01 00 00    	je     1a28 <devman_connection_client+0x928>
    18ca:	83 ec 0c             	sub    $0xc,%esp
    18cd:	68 68 cb 02 00       	push   $0x2cb68
    18d2:	e8 19 c1 00 00       	call   d9f0 <fibril_rwlock_read_lock>
    18d7:	8b 4d c8             	mov    -0x38(%ebp),%ecx
    18da:	58                   	pop    %eax
    18db:	5a                   	pop    %edx
    18dc:	51                   	push   %ecx
    18dd:	68 60 cb 02 00       	push   $0x2cb60
    18e2:	e8 89 05 00 00       	call   1e70 <find_dev_node_no_lock>
    18e7:	83 c4 10             	add    $0x10,%esp
    18ea:	89 c6                	mov    %eax,%esi
    18ec:	85 c0                	test   %eax,%eax
    18ee:	0f 84 44 02 00 00    	je     1b38 <devman_connection_client+0xa38>
    18f4:	83 78 18 04          	cmpl   $0x4,0x18(%eax)
    18f8:	0f 84 3a 02 00 00    	je     1b38 <devman_connection_client+0xa38>
    18fe:	83 ec 0c             	sub    $0xc,%esp
    1901:	8b 7d bc             	mov    -0x44(%ebp),%edi
    1904:	57                   	push   %edi
    1905:	e8 d6 69 01 00       	call   182e0 <malloc>
    190a:	83 c4 10             	add    $0x10,%esp
    190d:	89 c7                	mov    %eax,%edi
    190f:	85 c0                	test   %eax,%eax
    1911:	0f 84 12 04 00 00    	je     1d29 <devman_connection_client+0xc29>
    1917:	83 ec 0c             	sub    $0xc,%esp
    191a:	8d 45 c0             	lea    -0x40(%ebp),%eax
    191d:	50                   	push   %eax
    191e:	8b 45 bc             	mov    -0x44(%ebp),%eax
    1921:	50                   	push   %eax
    1922:	57                   	push   %edi
    1923:	56                   	push   %esi
    1924:	68 60 cb 02 00       	push   $0x2cb60
    1929:	e8 12 06 00 00       	call   1f40 <dev_get_functions>
    192e:	83 c4 20             	add    $0x20,%esp
    1931:	89 c6                	mov    %eax,%esi
    1933:	85 c0                	test   %eax,%eax
    1935:	0f 84 a9 03 00 00    	je     1ce4 <devman_connection_client+0xbe4>
    193b:	83 ec 0c             	sub    $0xc,%esp
    193e:	68 68 cb 02 00       	push   $0x2cb68
    1943:	e8 88 c2 00 00       	call   dbd0 <fibril_rwlock_read_unlock>
    1948:	8b 4d b8             	mov    -0x48(%ebp),%ecx
    194b:	58                   	pop    %eax
    194c:	5a                   	pop    %edx
    194d:	56                   	push   %esi
    194e:	51                   	push   %ecx
    194f:	e8 dc ab 01 00       	call   1c530 <async_answer_0>
    1954:	e9 fa fe ff ff       	jmp    1853 <devman_connection_client+0x753>
    1959:	8d b4 26 00 00 00 00 	lea    0x0(%esi,%eiz,1),%esi
    1960:	83 ec 0c             	sub    $0xc,%esp
    1963:	68 68 cb 02 00       	push   $0x2cb68
    1968:	e8 83 c0 00 00       	call   d9f0 <fibril_rwlock_read_lock>
    196d:	8b 45 c8             	mov    -0x38(%ebp),%eax
    1970:	5e                   	pop    %esi
    1971:	5f                   	pop    %edi
    1972:	50                   	push   %eax
    1973:	68 60 cb 02 00       	push   $0x2cb60
    1978:	e8 a3 30 00 00       	call   4a20 <find_fun_node_no_lock>
    197d:	83 c4 10             	add    $0x10,%esp
    1980:	85 c0                	test   %eax,%eax
    1982:	74 64                	je     19e8 <devman_connection_client+0x8e8>
    1984:	83 78 04 03          	cmpl   $0x3,0x4(%eax)
    1988:	74 5e                	je     19e8 <devman_connection_client+0x8e8>
    198a:	8b 40 34             	mov    0x34(%eax),%eax
    198d:	85 c0                	test   %eax,%eax
    198f:	74 57                	je     19e8 <devman_connection_client+0x8e8>
    1991:	52                   	push   %edx
    1992:	8b 48 04             	mov    0x4(%eax),%ecx
    1995:	51                   	push   %ecx
    1996:	6a 00                	push   $0x0
    1998:	53                   	push   %ebx
    1999:	e8 b2 ab 01 00       	call   1c550 <async_answer_1>
    199e:	c7 04 24 68 cb 02 00 	movl   $0x2cb68,(%esp)
    19a5:	e8 26 c2 00 00       	call   dbd0 <fibril_rwlock_read_unlock>
    19aa:	83 c4 10             	add    $0x10,%esp
    19ad:	e9 66 f7 ff ff       	jmp    1118 <devman_connection_client+0x18>
    19b2:	8d b6 00 00 00 00    	lea    0x0(%esi),%esi
    19b8:	56                   	push   %esi
    19b9:	56                   	push   %esi
    19ba:	6a fc                	push   $0xfffffffc
    19bc:	53                   	push   %ebx
    19bd:	e8 6e ab 01 00       	call   1c530 <async_answer_0>
    19c2:	83 c4 10             	add    $0x10,%esp
    19c5:	e9 4e f7 ff ff       	jmp    1118 <devman_connection_client+0x18>
    19ca:	8d b6 00 00 00 00    	lea    0x0(%esi),%esi
    19d0:	52                   	push   %edx
    19d1:	52                   	push   %edx
    19d2:	50                   	push   %eax
    19d3:	53                   	push   %ebx
    19d4:	e8 57 ab 01 00       	call   1c530 <async_answer_0>
    19d9:	83 c4 10             	add    $0x10,%esp
    19dc:	e9 37 f7 ff ff       	jmp    1118 <devman_connection_client+0x18>
    19e1:	8d b4 26 00 00 00 00 	lea    0x0(%esi,%eiz,1),%esi
    19e8:	83 ec 0c             	sub    $0xc,%esp
    19eb:	68 68 cb 02 00       	push   $0x2cb68
    19f0:	e8 db c1 00 00       	call   dbd0 <fibril_rwlock_read_unlock>
    19f5:	58                   	pop    %eax
    19f6:	5a                   	pop    %edx
    19f7:	6a ff                	push   $0xffffffff
    19f9:	53                   	push   %ebx
    19fa:	e8 31 ab 01 00       	call   1c530 <async_answer_0>
    19ff:	83 c4 10             	add    $0x10,%esp
    1a02:	e9 11 f7 ff ff       	jmp    1118 <devman_connection_client+0x18>
    1a07:	90                   	nop
    1a08:	50                   	push   %eax
    1a09:	50                   	push   %eax
    1a0a:	6a ff                	push   $0xffffffff
    1a0c:	53                   	push   %ebx
    1a0d:	e8 1e ab 01 00       	call   1c530 <async_answer_0>
    1a12:	83 c4 10             	add    $0x10,%esp
    1a15:	e9 fe f6 ff ff       	jmp    1118 <devman_connection_client+0x18>
    1a1a:	8d b6 00 00 00 00    	lea    0x0(%esi),%esi
    1a20:	8d 65 f4             	lea    -0xc(%ebp),%esp
    1a23:	5b                   	pop    %ebx
    1a24:	5e                   	pop    %esi
    1a25:	5f                   	pop    %edi
    1a26:	5d                   	pop    %ebp
    1a27:	c3                   	ret    
    1a28:	8b 7d b8             	mov    -0x48(%ebp),%edi
    1a2b:	56                   	push   %esi
    1a2c:	56                   	push   %esi
    1a2d:	6a fc                	push   $0xfffffffc
    1a2f:	57                   	push   %edi
    1a30:	e8 fb aa 01 00       	call   1c530 <async_answer_0>
    1a35:	58                   	pop    %eax
    1a36:	5a                   	pop    %edx
    1a37:	6a fc                	push   $0xfffffffc
    1a39:	53                   	push   %ebx
    1a3a:	e8 f1 aa 01 00       	call   1c530 <async_answer_0>
    1a3f:	83 c4 10             	add    $0x10,%esp
    1a42:	e9 d1 f6 ff ff       	jmp    1118 <devman_connection_client+0x18>
    1a47:	90                   	nop
    1a48:	52                   	push   %edx
    1a49:	52                   	push   %edx
    1a4a:	6a fe                	push   $0xfffffffe
    1a4c:	53                   	push   %ebx
    1a4d:	e8 de aa 01 00       	call   1c530 <async_answer_0>
    1a52:	83 c4 10             	add    $0x10,%esp
    1a55:	e9 be f6 ff ff       	jmp    1118 <devman_connection_client+0x18>
    1a5a:	8d b6 00 00 00 00    	lea    0x0(%esi),%esi
    1a60:	50                   	push   %eax
    1a61:	50                   	push   %eax
    1a62:	6a f2                	push   $0xfffffff2
    1a64:	53                   	push   %ebx
    1a65:	e8 c6 aa 01 00       	call   1c530 <async_answer_0>
    1a6a:	89 34 24             	mov    %esi,(%esp)
    1a6d:	e8 4e 2f 00 00       	call   49c0 <fun_del_ref>
    1a72:	83 c4 10             	add    $0x10,%esp
    1a75:	e9 9e f6 ff ff       	jmp    1118 <devman_connection_client+0x18>
    1a7a:	8d b6 00 00 00 00    	lea    0x0(%esi),%esi
    1a80:	50                   	push   %eax
    1a81:	50                   	push   %eax
    1a82:	6a f2                	push   $0xfffffff2
    1a84:	53                   	push   %ebx
    1a85:	e8 a6 aa 01 00       	call   1c530 <async_answer_0>
    1a8a:	83 c4 10             	add    $0x10,%esp
    1a8d:	e9 86 f6 ff ff       	jmp    1118 <devman_connection_client+0x18>
    1a92:	8d b6 00 00 00 00    	lea    0x0(%esi),%esi
    1a98:	83 ec 0c             	sub    $0xc,%esp
    1a9b:	8b 4d c0             	mov    -0x40(%ebp),%ecx
    1a9e:	51                   	push   %ecx
    1a9f:	e8 3c 68 01 00       	call   182e0 <malloc>
    1aa4:	83 c4 10             	add    $0x10,%esp
    1aa7:	89 45 b4             	mov    %eax,-0x4c(%ebp)
    1aaa:	85 c0                	test   %eax,%eax
    1aac:	0f 84 1c 02 00 00    	je     1cce <devman_connection_client+0xbce>
    1ab2:	83 ec 0c             	sub    $0xc,%esp
    1ab5:	68 68 cb 02 00       	push   $0x2cb68
    1aba:	e8 31 bf 00 00       	call   d9f0 <fibril_rwlock_read_lock>
    1abf:	83 c4 10             	add    $0x10,%esp
    1ac2:	83 7f 04 03          	cmpl   $0x3,0x4(%edi)
    1ac6:	74 3c                	je     1b04 <devman_connection_client+0xa04>
    1ac8:	8b 57 3c             	mov    0x3c(%edi),%edx
    1acb:	8d 4f 38             	lea    0x38(%edi),%ecx
    1ace:	39 ca                	cmp    %ecx,%edx
    1ad0:	74 32                	je     1b04 <devman_connection_client+0xa04>
    1ad2:	85 d2                	test   %edx,%edx
    1ad4:	74 2e                	je     1b04 <devman_connection_client+0xa04>
    1ad6:	85 f6                	test   %esi,%esi
    1ad8:	0f 84 30 01 00 00    	je     1c0e <devman_connection_client+0xb0e>
    1ade:	8b 52 04             	mov    0x4(%edx),%edx
    1ae1:	b8 01 00 00 00       	mov    $0x1,%eax
    1ae6:	39 d1                	cmp    %edx,%ecx
    1ae8:	74 1a                	je     1b04 <devman_connection_client+0xa04>
    1aea:	8d b6 00 00 00 00    	lea    0x0(%esi),%esi
    1af0:	85 d2                	test   %edx,%edx
    1af2:	74 10                	je     1b04 <devman_connection_client+0xa04>
    1af4:	39 c6                	cmp    %eax,%esi
    1af6:	0f 84 12 01 00 00    	je     1c0e <devman_connection_client+0xb0e>
    1afc:	8b 52 04             	mov    0x4(%edx),%edx
    1aff:	40                   	inc    %eax
    1b00:	39 d1                	cmp    %edx,%ecx
    1b02:	75 ec                	jne    1af0 <devman_connection_client+0x9f0>
    1b04:	83 ec 0c             	sub    $0xc,%esp
    1b07:	68 68 cb 02 00       	push   $0x2cb68
    1b0c:	e8 bf c0 00 00       	call   dbd0 <fibril_rwlock_read_unlock>
    1b11:	58                   	pop    %eax
    1b12:	8b 45 b4             	mov    -0x4c(%ebp),%eax
    1b15:	50                   	push   %eax
    1b16:	e8 75 69 01 00       	call   18490 <free>
    1b1b:	8b 4d bc             	mov    -0x44(%ebp),%ecx
    1b1e:	58                   	pop    %eax
    1b1f:	5a                   	pop    %edx
    1b20:	6a ff                	push   $0xffffffff
    1b22:	51                   	push   %ecx
    1b23:	e8 08 aa 01 00       	call   1c530 <async_answer_0>
    1b28:	5e                   	pop    %esi
    1b29:	58                   	pop    %eax
    1b2a:	6a ff                	push   $0xffffffff
    1b2c:	e9 fd f8 ff ff       	jmp    142e <devman_connection_client+0x32e>
    1b31:	8d b4 26 00 00 00 00 	lea    0x0(%esi,%eiz,1),%esi
    1b38:	83 ec 0c             	sub    $0xc,%esp
    1b3b:	68 68 cb 02 00       	push   $0x2cb68
    1b40:	e8 8b c0 00 00       	call   dbd0 <fibril_rwlock_read_unlock>
    1b45:	5e                   	pop    %esi
    1b46:	5f                   	pop    %edi
    1b47:	8b 4d b8             	mov    -0x48(%ebp),%ecx
    1b4a:	6a ff                	push   $0xffffffff
    1b4c:	51                   	push   %ecx
    1b4d:	e8 de a9 01 00       	call   1c530 <async_answer_0>
    1b52:	e9 9e fe ff ff       	jmp    19f5 <devman_connection_client+0x8f5>
    1b57:	90                   	nop
    1b58:	8b 45 bc             	mov    -0x44(%ebp),%eax
    1b5b:	57                   	push   %edi
    1b5c:	50                   	push   %eax
    1b5d:	8b 45 b8             	mov    -0x48(%ebp),%eax
    1b60:	56                   	push   %esi
    1b61:	50                   	push   %eax
    1b62:	e8 09 c2 01 00       	call   1dd70 <async_data_read_finalize>
    1b67:	89 34 24             	mov    %esi,(%esp)
    1b6a:	89 c7                	mov    %eax,%edi
    1b6c:	e8 1f 69 01 00       	call   18490 <free>
    1b71:	83 c4 0c             	add    $0xc,%esp
    1b74:	8b 45 c0             	mov    -0x40(%ebp),%eax
    1b77:	50                   	push   %eax
    1b78:	57                   	push   %edi
    1b79:	53                   	push   %ebx
    1b7a:	e8 d1 a9 01 00       	call   1c550 <async_answer_1>
    1b7f:	83 c4 10             	add    $0x10,%esp
    1b82:	e9 91 f5 ff ff       	jmp    1118 <devman_connection_client+0x18>
    1b87:	50                   	push   %eax
    1b88:	50                   	push   %eax
    1b89:	8b 45 bc             	mov    -0x44(%ebp),%eax
    1b8c:	6a fe                	push   $0xfffffffe
    1b8e:	50                   	push   %eax
    1b8f:	e8 9c a9 01 00       	call   1c530 <async_answer_0>
    1b94:	5a                   	pop    %edx
    1b95:	59                   	pop    %ecx
    1b96:	6a fe                	push   $0xfffffffe
    1b98:	e9 c7 fe ff ff       	jmp    1a64 <devman_connection_client+0x964>
    1b9d:	50                   	push   %eax
    1b9e:	50                   	push   %eax
    1b9f:	8b 45 b8             	mov    -0x48(%ebp),%eax
    1ba2:	6a fe                	push   $0xfffffffe
    1ba4:	50                   	push   %eax
    1ba5:	e9 38 f7 ff ff       	jmp    12e2 <devman_connection_client+0x1e2>
    1baa:	50                   	push   %eax
    1bab:	50                   	push   %eax
    1bac:	e9 2b f7 ff ff       	jmp    12dc <devman_connection_client+0x1dc>
    1bb1:	83 ec 0c             	sub    $0xc,%esp
    1bb4:	8b 42 08             	mov    0x8(%edx),%eax
    1bb7:	89 55 ac             	mov    %edx,-0x54(%ebp)
    1bba:	50                   	push   %eax
    1bbb:	e8 00 6e 00 00       	call   89c0 <str_size>
    1bc0:	8b 4d c0             	mov    -0x40(%ebp),%ecx
    1bc3:	83 c4 0c             	add    $0xc,%esp
    1bc6:	8b 55 ac             	mov    -0x54(%ebp),%edx
    1bc9:	39 c1                	cmp    %eax,%ecx
    1bcb:	76 02                	jbe    1bcf <devman_connection_client+0xacf>
    1bcd:	89 c1                	mov    %eax,%ecx
    1bcf:	51                   	push   %ecx
    1bd0:	8b 75 bc             	mov    -0x44(%ebp),%esi
    1bd3:	8b 4a 08             	mov    0x8(%edx),%ecx
    1bd6:	89 55 ac             	mov    %edx,-0x54(%ebp)
    1bd9:	51                   	push   %ecx
    1bda:	56                   	push   %esi
    1bdb:	e8 90 c1 01 00       	call   1dd70 <async_data_read_finalize>
    1be0:	8b 55 ac             	mov    -0x54(%ebp),%edx
    1be3:	83 c4 0c             	add    $0xc,%esp
    1be6:	8b 7a 0c             	mov    0xc(%edx),%edi
    1be9:	57                   	push   %edi
    1bea:	6a 00                	push   $0x0
    1bec:	53                   	push   %ebx
    1bed:	e8 5e a9 01 00       	call   1c550 <async_answer_1>
    1bf2:	58                   	pop    %eax
    1bf3:	8b 45 b0             	mov    -0x50(%ebp),%eax
    1bf6:	50                   	push   %eax
    1bf7:	e8 94 bb 00 00       	call   d790 <fibril_mutex_unlock>
    1bfc:	58                   	pop    %eax
    1bfd:	8b 45 b4             	mov    -0x4c(%ebp),%eax
    1c00:	50                   	push   %eax
    1c01:	e8 8a 68 01 00       	call   18490 <free>
    1c06:	83 c4 10             	add    $0x10,%esp
    1c09:	e9 0a f5 ff ff       	jmp    1118 <devman_connection_client+0x18>
    1c0e:	83 ec 0c             	sub    $0xc,%esp
    1c11:	8b 42 08             	mov    0x8(%edx),%eax
    1c14:	89 55 b0             	mov    %edx,-0x50(%ebp)
    1c17:	50                   	push   %eax
    1c18:	e8 a3 6d 00 00       	call   89c0 <str_size>
    1c1d:	8b 4d c0             	mov    -0x40(%ebp),%ecx
    1c20:	83 c4 0c             	add    $0xc,%esp
    1c23:	8b 55 b0             	mov    -0x50(%ebp),%edx
    1c26:	39 c1                	cmp    %eax,%ecx
    1c28:	76 02                	jbe    1c2c <devman_connection_client+0xb2c>
    1c2a:	89 c1                	mov    %eax,%ecx
    1c2c:	8b 42 08             	mov    0x8(%edx),%eax
    1c2f:	89 55 b0             	mov    %edx,-0x50(%ebp)
    1c32:	8b 55 bc             	mov    -0x44(%ebp),%edx
    1c35:	51                   	push   %ecx
    1c36:	50                   	push   %eax
    1c37:	52                   	push   %edx
    1c38:	e8 33 c1 01 00       	call   1dd70 <async_data_read_finalize>
    1c3d:	8b 55 b0             	mov    -0x50(%ebp),%edx
    1c40:	83 c4 0c             	add    $0xc,%esp
    1c43:	8b 4a 0c             	mov    0xc(%edx),%ecx
    1c46:	51                   	push   %ecx
    1c47:	6a 00                	push   $0x0
    1c49:	53                   	push   %ebx
    1c4a:	e8 01 a9 01 00       	call   1c550 <async_answer_1>
    1c4f:	c7 04 24 68 cb 02 00 	movl   $0x2cb68,(%esp)
    1c56:	e8 75 bf 00 00       	call   dbd0 <fibril_rwlock_read_unlock>
    1c5b:	89 3c 24             	mov    %edi,(%esp)
    1c5e:	e8 5d 2d 00 00       	call   49c0 <fun_del_ref>
    1c63:	8b 75 b4             	mov    -0x4c(%ebp),%esi
    1c66:	5b                   	pop    %ebx
    1c67:	56                   	push   %esi
    1c68:	e8 23 68 01 00       	call   18490 <free>
    1c6d:	83 c4 10             	add    $0x10,%esp
    1c70:	e9 a3 f4 ff ff       	jmp    1118 <devman_connection_client+0x18>
    1c75:	8d 76 00             	lea    0x0(%esi),%esi
    1c78:	83 ec 0c             	sub    $0xc,%esp
    1c7b:	68 68 cb 02 00       	push   $0x2cb68
    1c80:	e8 4b bf 00 00       	call   dbd0 <fibril_rwlock_read_unlock>
    1c85:	89 3c 24             	mov    %edi,(%esp)
    1c88:	e8 03 68 01 00       	call   18490 <free>
    1c8d:	8b 4d bc             	mov    -0x44(%ebp),%ecx
    1c90:	58                   	pop    %eax
    1c91:	5a                   	pop    %edx
    1c92:	6a ff                	push   $0xffffffff
    1c94:	51                   	push   %ecx
    1c95:	e8 96 a8 01 00       	call   1c530 <async_answer_0>
    1c9a:	5f                   	pop    %edi
    1c9b:	58                   	pop    %eax
    1c9c:	6a ff                	push   $0xffffffff
    1c9e:	e9 c1 fd ff ff       	jmp    1a64 <devman_connection_client+0x964>
    1ca3:	83 ec 0c             	sub    $0xc,%esp
    1ca6:	68 68 cb 02 00       	push   $0x2cb68
    1cab:	e8 20 bf 00 00       	call   dbd0 <fibril_rwlock_read_unlock>
    1cb0:	89 3c 24             	mov    %edi,(%esp)
    1cb3:	e8 d8 67 01 00       	call   18490 <free>
    1cb8:	5f                   	pop    %edi
    1cb9:	58                   	pop    %eax
    1cba:	8b 45 bc             	mov    -0x44(%ebp),%eax
    1cbd:	6a f2                	push   $0xfffffff2
    1cbf:	50                   	push   %eax
    1cc0:	e8 6b a8 01 00       	call   1c530 <async_answer_0>
    1cc5:	58                   	pop    %eax
    1cc6:	5a                   	pop    %edx
    1cc7:	6a f2                	push   $0xfffffff2
    1cc9:	e9 96 fd ff ff       	jmp    1a64 <devman_connection_client+0x964>
    1cce:	50                   	push   %eax
    1ccf:	50                   	push   %eax
    1cd0:	8b 45 bc             	mov    -0x44(%ebp),%eax
    1cd3:	6a fe                	push   $0xfffffffe
    1cd5:	50                   	push   %eax
    1cd6:	e8 55 a8 01 00       	call   1c530 <async_answer_0>
    1cdb:	58                   	pop    %eax
    1cdc:	5a                   	pop    %edx
    1cdd:	6a fe                	push   $0xfffffffe
    1cdf:	e9 4a f7 ff ff       	jmp    142e <devman_connection_client+0x32e>
    1ce4:	83 ec 0c             	sub    $0xc,%esp
    1ce7:	68 68 cb 02 00       	push   $0x2cb68
    1cec:	e8 df be 00 00       	call   dbd0 <fibril_rwlock_read_unlock>
    1cf1:	83 c4 0c             	add    $0xc,%esp
    1cf4:	8b 45 bc             	mov    -0x44(%ebp),%eax
    1cf7:	50                   	push   %eax
    1cf8:	8b 45 b8             	mov    -0x48(%ebp),%eax
    1cfb:	57                   	push   %edi
    1cfc:	50                   	push   %eax
    1cfd:	e8 6e c0 01 00       	call   1dd70 <async_data_read_finalize>
    1d02:	89 3c 24             	mov    %edi,(%esp)
    1d05:	89 c6                	mov    %eax,%esi
    1d07:	e8 84 67 01 00       	call   18490 <free>
    1d0c:	83 c4 0c             	add    $0xc,%esp
    1d0f:	8b 45 c0             	mov    -0x40(%ebp),%eax
    1d12:	50                   	push   %eax
    1d13:	56                   	push   %esi
    1d14:	53                   	push   %ebx
    1d15:	e8 36 a8 01 00       	call   1c550 <async_answer_1>
    1d1a:	83 c4 10             	add    $0x10,%esp
    1d1d:	e9 f6 f3 ff ff       	jmp    1118 <devman_connection_client+0x18>
    1d22:	50                   	push   %eax
    1d23:	50                   	push   %eax
    1d24:	e9 1e fe ff ff       	jmp    1b47 <devman_connection_client+0xa47>
    1d29:	83 ec 0c             	sub    $0xc,%esp
    1d2c:	68 68 cb 02 00       	push   $0x2cb68
    1d31:	e8 9a be 00 00       	call   dbd0 <fibril_rwlock_read_unlock>
    1d36:	8b 4d b8             	mov    -0x48(%ebp),%ecx
    1d39:	58                   	pop    %eax
    1d3a:	5a                   	pop    %edx
    1d3b:	6a fe                	push   $0xfffffffe
    1d3d:	51                   	push   %ecx
    1d3e:	e9 9f f5 ff ff       	jmp    12e2 <devman_connection_client+0x1e2>
    1d43:	66 90                	xchg   %ax,%ax
    1d45:	66 90                	xchg   %ax,%ax
    1d47:	66 90                	xchg   %ax,%ax
    1d49:	66 90                	xchg   %ax,%ax
    1d4b:	66 90                	xchg   %ax,%ax
    1d4d:	66 90                	xchg   %ax,%ax
    1d4f:	90                   	nop

00001d50 <create_dev_node>:
    1d50:	55                   	push   %ebp
    1d51:	89 e5                	mov    %esp,%ebp
    1d53:	83 ec 10             	sub    $0x10,%esp
    1d56:	6a 30                	push   $0x30
    1d58:	6a 01                	push   $0x1
    1d5a:	e8 e1 64 01 00       	call   18240 <calloc>
    1d5f:	83 c4 10             	add    $0x10,%esp
    1d62:	85 c0                	test   %eax,%eax
    1d64:	74 1d                	je     1d83 <create_dev_node+0x33>
    1d66:	8d 50 0c             	lea    0xc(%eax),%edx
    1d69:	c7 00 00 00 00 00    	movl   $0x0,(%eax)
    1d6f:	89 50 0c             	mov    %edx,0xc(%eax)
    1d72:	89 50 10             	mov    %edx,0x10(%eax)
    1d75:	c7 40 1c 00 00 00 00 	movl   $0x0,0x1c(%eax)
    1d7c:	c7 40 20 00 00 00 00 	movl   $0x0,0x20(%eax)
    1d83:	c9                   	leave  
    1d84:	c3                   	ret    
    1d85:	8d 74 26 00          	lea    0x0(%esi,%eiz,1),%esi
    1d89:	8d bc 27 00 00 00 00 	lea    0x0(%edi,%eiz,1),%edi

00001d90 <delete_dev_node>:
    1d90:	55                   	push   %ebp
    1d91:	89 e5                	mov    %esp,%ebp
    1d93:	83 ec 08             	sub    $0x8,%esp
    1d96:	8b 45 08             	mov    0x8(%ebp),%eax
    1d99:	8d 50 0c             	lea    0xc(%eax),%edx
    1d9c:	39 50 10             	cmp    %edx,0x10(%eax)
    1d9f:	75 17                	jne    1db8 <delete_dev_node+0x28>
    1da1:	8b 50 08             	mov    0x8(%eax),%edx
    1da4:	85 d2                	test   %edx,%edx
    1da6:	75 34                	jne    1ddc <delete_dev_node+0x4c>
    1da8:	8b 50 14             	mov    0x14(%eax),%edx
    1dab:	85 d2                	test   %edx,%edx
    1dad:	75 1b                	jne    1dca <delete_dev_node+0x3a>
    1daf:	89 45 08             	mov    %eax,0x8(%ebp)
    1db2:	c9                   	leave  
    1db3:	e9 d8 66 01 00       	jmp    18490 <free>
    1db8:	51                   	push   %ecx
    1db9:	6a 3f                	push   $0x3f
    1dbb:	68 40 82 02 00       	push   $0x28240
    1dc0:	68 46 82 02 00       	push   $0x28246
    1dc5:	e8 f6 26 02 00       	call   244c0 <assert_abort>
    1dca:	50                   	push   %eax
    1dcb:	6a 41                	push   $0x41
    1dcd:	68 40 82 02 00       	push   $0x28240
    1dd2:	68 74 82 02 00       	push   $0x28274
    1dd7:	e8 e4 26 02 00       	call   244c0 <assert_abort>
    1ddc:	51                   	push   %ecx
    1ddd:	6a 40                	push   $0x40
    1ddf:	68 40 82 02 00       	push   $0x28240
    1de4:	68 62 82 02 00       	push   $0x28262
    1de9:	e8 d2 26 02 00       	call   244c0 <assert_abort>
    1dee:	66 90                	xchg   %ax,%ax

00001df0 <dev_add_ref>:
    1df0:	55                   	push   %ebp
    1df1:	89 e5                	mov    %esp,%ebp
    1df3:	8b 45 08             	mov    0x8(%ebp),%eax
    1df6:	f0 ff 00             	lock incl (%eax)
    1df9:	5d                   	pop    %ebp
    1dfa:	c3                   	ret    
    1dfb:	90                   	nop
    1dfc:	8d 74 26 00          	lea    0x0(%esi,%eiz,1),%esi

00001e00 <dev_del_ref>:
    1e00:	55                   	push   %ebp
    1e01:	83 c8 ff             	or     $0xffffffff,%eax
    1e04:	89 e5                	mov    %esp,%ebp
    1e06:	83 ec 08             	sub    $0x8,%esp
    1e09:	8b 55 08             	mov    0x8(%ebp),%edx
    1e0c:	f0 0f c1 02          	lock xadd %eax,(%edx)
    1e10:	48                   	dec    %eax
    1e11:	74 05                	je     1e18 <dev_del_ref+0x18>
    1e13:	c9                   	leave  
    1e14:	c3                   	ret    
    1e15:	8d 76 00             	lea    0x0(%esi),%esi
    1e18:	8d 42 0c             	lea    0xc(%edx),%eax
    1e1b:	39 42 10             	cmp    %eax,0x10(%edx)
    1e1e:	75 17                	jne    1e37 <dev_del_ref+0x37>
    1e20:	8b 42 08             	mov    0x8(%edx),%eax
    1e23:	85 c0                	test   %eax,%eax
    1e25:	75 34                	jne    1e5b <dev_del_ref+0x5b>
    1e27:	8b 4a 14             	mov    0x14(%edx),%ecx
    1e2a:	85 c9                	test   %ecx,%ecx
    1e2c:	75 1b                	jne    1e49 <dev_del_ref+0x49>
    1e2e:	89 55 08             	mov    %edx,0x8(%ebp)
    1e31:	c9                   	leave  
    1e32:	e9 59 66 01 00       	jmp    18490 <free>
    1e37:	50                   	push   %eax
    1e38:	6a 3f                	push   $0x3f
    1e3a:	68 40 82 02 00       	push   $0x28240
    1e3f:	68 46 82 02 00       	push   $0x28246
    1e44:	e8 77 26 02 00       	call   244c0 <assert_abort>
    1e49:	50                   	push   %eax
    1e4a:	6a 41                	push   $0x41
    1e4c:	68 40 82 02 00       	push   $0x28240
    1e51:	68 74 82 02 00       	push   $0x28274
    1e56:	e8 65 26 02 00       	call   244c0 <assert_abort>
    1e5b:	50                   	push   %eax
    1e5c:	6a 40                	push   $0x40
    1e5e:	68 40 82 02 00       	push   $0x28240
    1e63:	68 62 82 02 00       	push   $0x28262
    1e68:	e8 53 26 02 00       	call   244c0 <assert_abort>
    1e6d:	8d 76 00             	lea    0x0(%esi),%esi

00001e70 <find_dev_node_no_lock>:
    1e70:	55                   	push   %ebp
    1e71:	89 e5                	mov    %esp,%ebp
    1e73:	53                   	push   %ebx
    1e74:	83 ec 10             	sub    $0x10,%esp
    1e77:	8b 5d 08             	mov    0x8(%ebp),%ebx
    1e7a:	8d 43 08             	lea    0x8(%ebx),%eax
    1e7d:	50                   	push   %eax
    1e7e:	e8 dd bf 00 00       	call   de60 <fibril_rwlock_is_locked>
    1e83:	83 c4 10             	add    $0x10,%esp
    1e86:	84 c0                	test   %al,%al
    1e88:	74 22                	je     1eac <find_dev_node_no_lock+0x3c>
    1e8a:	83 c3 1c             	add    $0x1c,%ebx
    1e8d:	50                   	push   %eax
    1e8e:	50                   	push   %eax
    1e8f:	8d 45 0c             	lea    0xc(%ebp),%eax
    1e92:	50                   	push   %eax
    1e93:	53                   	push   %ebx
    1e94:	e8 07 dc 01 00       	call   1faa0 <hash_table_find>
    1e99:	83 c4 10             	add    $0x10,%esp
    1e9c:	85 c0                	test   %eax,%eax
    1e9e:	74 08                	je     1ea8 <find_dev_node_no_lock+0x38>
    1ea0:	83 e8 24             	sub    $0x24,%eax
    1ea3:	8b 5d fc             	mov    -0x4(%ebp),%ebx
    1ea6:	c9                   	leave  
    1ea7:	c3                   	ret    
    1ea8:	31 c0                	xor    %eax,%eax
    1eaa:	eb f7                	jmp    1ea3 <find_dev_node_no_lock+0x33>
    1eac:	52                   	push   %edx
    1ead:	6a 63                	push   $0x63
    1eaf:	68 40 82 02 00       	push   $0x28240
    1eb4:	68 88 82 02 00       	push   $0x28288
    1eb9:	e8 02 26 02 00       	call   244c0 <assert_abort>
    1ebe:	66 90                	xchg   %ax,%ax

00001ec0 <find_dev_node>:
    1ec0:	55                   	push   %ebp
    1ec1:	89 e5                	mov    %esp,%ebp
    1ec3:	56                   	push   %esi
    1ec4:	53                   	push   %ebx
    1ec5:	83 ec 1c             	sub    $0x1c,%esp
    1ec8:	8b 5d 08             	mov    0x8(%ebp),%ebx
    1ecb:	8d 73 08             	lea    0x8(%ebx),%esi
    1ece:	56                   	push   %esi
    1ecf:	e8 1c bb 00 00       	call   d9f0 <fibril_rwlock_read_lock>
    1ed4:	8b 45 0c             	mov    0xc(%ebp),%eax
    1ed7:	89 34 24             	mov    %esi,(%esp)
    1eda:	89 45 f4             	mov    %eax,-0xc(%ebp)
    1edd:	e8 7e bf 00 00       	call   de60 <fibril_rwlock_is_locked>
    1ee2:	83 c4 10             	add    $0x10,%esp
    1ee5:	84 c0                	test   %al,%al
    1ee7:	74 3b                	je     1f24 <find_dev_node+0x64>
    1ee9:	83 c3 1c             	add    $0x1c,%ebx
    1eec:	50                   	push   %eax
    1eed:	50                   	push   %eax
    1eee:	8d 45 f4             	lea    -0xc(%ebp),%eax
    1ef1:	50                   	push   %eax
    1ef2:	53                   	push   %ebx
    1ef3:	e8 a8 db 01 00       	call   1faa0 <hash_table_find>
    1ef8:	83 c4 10             	add    $0x10,%esp
    1efb:	85 c0                	test   %eax,%eax
    1efd:	74 21                	je     1f20 <find_dev_node+0x60>
    1eff:	89 c3                	mov    %eax,%ebx
    1f01:	83 eb 24             	sub    $0x24,%ebx
    1f04:	74 04                	je     1f0a <find_dev_node+0x4a>
    1f06:	f0 ff 40 dc          	lock incl -0x24(%eax)
    1f0a:	83 ec 0c             	sub    $0xc,%esp
    1f0d:	56                   	push   %esi
    1f0e:	e8 bd bc 00 00       	call   dbd0 <fibril_rwlock_read_unlock>
    1f13:	8d 65 f8             	lea    -0x8(%ebp),%esp
    1f16:	89 d8                	mov    %ebx,%eax
    1f18:	5b                   	pop    %ebx
    1f19:	5e                   	pop    %esi
    1f1a:	5d                   	pop    %ebp
    1f1b:	c3                   	ret    
    1f1c:	8d 74 26 00          	lea    0x0(%esi,%eiz,1),%esi
    1f20:	31 db                	xor    %ebx,%ebx
    1f22:	eb e6                	jmp    1f0a <find_dev_node+0x4a>
    1f24:	52                   	push   %edx
    1f25:	6a 63                	push   $0x63
    1f27:	68 40 82 02 00       	push   $0x28240
    1f2c:	68 88 82 02 00       	push   $0x28288
    1f31:	e8 8a 25 02 00       	call   244c0 <assert_abort>
    1f36:	8d 76 00             	lea    0x0(%esi),%esi
    1f39:	8d bc 27 00 00 00 00 	lea    0x0(%edi,%eiz,1),%edi

00001f40 <dev_get_functions>:
    1f40:	55                   	push   %ebp
    1f41:	89 e5                	mov    %esp,%ebp
    1f43:	57                   	push   %edi
    1f44:	56                   	push   %esi
    1f45:	53                   	push   %ebx
    1f46:	83 ec 28             	sub    $0x28,%esp
    1f49:	8b 45 08             	mov    0x8(%ebp),%eax
    1f4c:	8b 55 0c             	mov    0xc(%ebp),%edx
    1f4f:	83 c0 08             	add    $0x8,%eax
    1f52:	89 55 e4             	mov    %edx,-0x1c(%ebp)
    1f55:	50                   	push   %eax
    1f56:	8b 7d 10             	mov    0x10(%ebp),%edi
    1f59:	e8 02 bf 00 00       	call   de60 <fibril_rwlock_is_locked>
    1f5e:	83 c4 10             	add    $0x10,%esp
    1f61:	8b 55 e4             	mov    -0x1c(%ebp),%edx
    1f64:	84 c0                	test   %al,%al
    1f66:	74 5e                	je     1fc6 <dev_get_functions+0x86>
    1f68:	83 ec 0c             	sub    $0xc,%esp
    1f6b:	8d 5a 0c             	lea    0xc(%edx),%ebx
    1f6e:	8b 75 14             	mov    0x14(%ebp),%esi
    1f71:	89 55 e4             	mov    %edx,-0x1c(%ebp)
    1f74:	c1 ee 02             	shr    $0x2,%esi
    1f77:	53                   	push   %ebx
    1f78:	e8 c3 d3 01 00       	call   1f340 <list_count>
    1f7d:	8b 4d 18             	mov    0x18(%ebp),%ecx
    1f80:	c1 e0 02             	shl    $0x2,%eax
    1f83:	83 c4 10             	add    $0x10,%esp
    1f86:	89 01                	mov    %eax,(%ecx)
    1f88:	8b 4d 14             	mov    0x14(%ebp),%ecx
    1f8b:	83 e1 03             	and    $0x3,%ecx
    1f8e:	8b 55 e4             	mov    -0x1c(%ebp),%edx
    1f91:	75 2c                	jne    1fbf <dev_get_functions+0x7f>
    1f93:	8b 42 10             	mov    0x10(%edx),%eax
    1f96:	39 c3                	cmp    %eax,%ebx
    1f98:	8d 50 d4             	lea    -0x2c(%eax),%edx
    1f9b:	74 18                	je     1fb5 <dev_get_functions+0x75>
    1f9d:	8d 76 00             	lea    0x0(%esi),%esi
    1fa0:	39 ce                	cmp    %ecx,%esi
    1fa2:	76 06                	jbe    1faa <dev_get_functions+0x6a>
    1fa4:	8b 52 18             	mov    0x18(%edx),%edx
    1fa7:	89 14 8f             	mov    %edx,(%edi,%ecx,4)
    1faa:	8b 40 04             	mov    0x4(%eax),%eax
    1fad:	41                   	inc    %ecx
    1fae:	39 c3                	cmp    %eax,%ebx
    1fb0:	8d 50 d4             	lea    -0x2c(%eax),%edx
    1fb3:	75 eb                	jne    1fa0 <dev_get_functions+0x60>
    1fb5:	31 c0                	xor    %eax,%eax
    1fb7:	8d 65 f4             	lea    -0xc(%ebp),%esp
    1fba:	5b                   	pop    %ebx
    1fbb:	5e                   	pop    %esi
    1fbc:	5f                   	pop    %edi
    1fbd:	5d                   	pop    %ebp
    1fbe:	c3                   	ret    
    1fbf:	b8 f2 ff ff ff       	mov    $0xfffffff2,%eax
    1fc4:	eb f1                	jmp    1fb7 <dev_get_functions+0x77>
    1fc6:	50                   	push   %eax
    1fc7:	68 87 00 00 00       	push   $0x87
    1fcc:	68 40 82 02 00       	push   $0x28240
    1fd1:	68 88 82 02 00       	push   $0x28288
    1fd6:	e8 e5 24 02 00       	call   244c0 <assert_abort>
    1fdb:	66 90                	xchg   %ax,%ax
    1fdd:	66 90                	xchg   %ax,%ax
    1fdf:	90                   	nop

00001fe0 <devman_devices_hash>:
    1fe0:	55                   	push   %ebp
    1fe1:	89 e5                	mov    %esp,%ebp
    1fe3:	8b 45 08             	mov    0x8(%ebp),%eax
    1fe6:	5d                   	pop    %ebp
    1fe7:	8b 40 e0             	mov    -0x20(%eax),%eax
    1fea:	c3                   	ret    
    1feb:	90                   	nop
    1fec:	8d 74 26 00          	lea    0x0(%esi,%eiz,1),%esi

00001ff0 <devman_functions_hash>:
    1ff0:	55                   	push   %ebp
    1ff1:	89 e5                	mov    %esp,%ebp
    1ff3:	8b 45 08             	mov    0x8(%ebp),%eax
    1ff6:	5d                   	pop    %ebp
    1ff7:	8b 40 d4             	mov    -0x2c(%eax),%eax
    1ffa:	c3                   	ret    
    1ffb:	90                   	nop
    1ffc:	8d 74 26 00          	lea    0x0(%esi,%eiz,1),%esi

00002000 <devman_devices_key_equal>:
    2000:	55                   	push   %ebp
    2001:	89 e5                	mov    %esp,%ebp
    2003:	8b 45 08             	mov    0x8(%ebp),%eax
    2006:	8b 55 0c             	mov    0xc(%ebp),%edx
    2009:	5d                   	pop    %ebp
    200a:	8b 00                	mov    (%eax),%eax
    200c:	39 42 e0             	cmp    %eax,-0x20(%edx)
    200f:	0f 94 c0             	sete   %al
    2012:	c3                   	ret    
    2013:	8d b6 00 00 00 00    	lea    0x0(%esi),%esi
    2019:	8d bc 27 00 00 00 00 	lea    0x0(%edi,%eiz,1),%edi

00002020 <devman_functions_key_equal>:
    2020:	55                   	push   %ebp
    2021:	89 e5                	mov    %esp,%ebp
    2023:	8b 45 08             	mov    0x8(%ebp),%eax
    2026:	8b 55 0c             	mov    0xc(%ebp),%edx
    2029:	5d                   	pop    %ebp
    202a:	8b 00                	mov    (%eax),%eax
    202c:	39 42 d4             	cmp    %eax,-0x2c(%edx)
    202f:	0f 94 c0             	sete   %al
    2032:	c3                   	ret    
    2033:	8d b6 00 00 00 00    	lea    0x0(%esi),%esi
    2039:	8d bc 27 00 00 00 00 	lea    0x0(%edi,%eiz,1),%edi

00002040 <service_id_key_hash>:
    2040:	55                   	push   %ebp
    2041:	89 e5                	mov    %esp,%ebp
    2043:	8b 45 08             	mov    0x8(%ebp),%eax
    2046:	5d                   	pop    %ebp
    2047:	8b 00                	mov    (%eax),%eax
    2049:	c3                   	ret    
    204a:	8d b6 00 00 00 00    	lea    0x0(%esi),%esi

00002050 <loc_functions_hash>:
    2050:	55                   	push   %ebp
    2051:	89 e5                	mov    %esp,%ebp
    2053:	8b 45 08             	mov    0x8(%ebp),%eax
    2056:	5d                   	pop    %ebp
    2057:	8b 40 f4             	mov    -0xc(%eax),%eax
    205a:	c3                   	ret    
    205b:	90                   	nop
    205c:	8d 74 26 00          	lea    0x0(%esi,%eiz,1),%esi

00002060 <loc_functions_key_equal>:
    2060:	55                   	push   %ebp
    2061:	89 e5                	mov    %esp,%ebp
    2063:	8b 45 08             	mov    0x8(%ebp),%eax
    2066:	8b 55 0c             	mov    0xc(%ebp),%edx
    2069:	5d                   	pop    %ebp
    206a:	8b 00                	mov    (%eax),%eax
    206c:	39 42 f4             	cmp    %eax,-0xc(%edx)
    206f:	0f 94 c0             	sete   %al
    2072:	c3                   	ret    
    2073:	8d b6 00 00 00 00    	lea    0x0(%esi),%esi
    2079:	8d bc 27 00 00 00 00 	lea    0x0(%edi,%eiz,1),%edi

00002080 <handle_key_hash>:
    2080:	55                   	push   %ebp
    2081:	89 e5                	mov    %esp,%ebp
    2083:	8b 45 08             	mov    0x8(%ebp),%eax
    2086:	5d                   	pop    %ebp
    2087:	8b 00                	mov    (%eax),%eax
    2089:	c3                   	ret    
    208a:	8d b6 00 00 00 00    	lea    0x0(%esi),%esi

00002090 <create_root_nodes>:
    2090:	55                   	push   %ebp
    2091:	89 e5                	mov    %esp,%ebp
    2093:	57                   	push   %edi
    2094:	56                   	push   %esi
    2095:	53                   	push   %ebx
    2096:	83 ec 20             	sub    $0x20,%esp
    2099:	8b 75 08             	mov    0x8(%ebp),%esi
    209c:	68 af 82 02 00       	push   $0x282af
    20a1:	6a 04                	push   $0x4
    20a3:	6a ff                	push   $0xffffffff
    20a5:	e8 96 10 01 00       	call   13140 <log_msg>
    20aa:	8d 46 08             	lea    0x8(%esi),%eax
    20ad:	89 04 24             	mov    %eax,(%esp)
    20b0:	89 45 e4             	mov    %eax,-0x1c(%ebp)
    20b3:	e8 38 ba 00 00       	call   daf0 <fibril_rwlock_write_lock>
    20b8:	e8 c3 27 00 00       	call   4880 <create_fun_node>
    20bd:	83 c4 10             	add    $0x10,%esp
    20c0:	85 c0                	test   %eax,%eax
    20c2:	0f 84 48 01 00 00    	je     2210 <create_root_nodes+0x180>
    20c8:	83 ec 0c             	sub    $0xc,%esp
    20cb:	89 c3                	mov    %eax,%ebx
    20cd:	50                   	push   %eax
    20ce:	e8 dd 28 00 00       	call   49b0 <fun_add_ref>
    20d3:	c7 04 24 1b aa 02 00 	movl   $0x2aa1b,(%esp)
    20da:	e8 91 8e 00 00       	call   af70 <str_dup>
    20df:	83 c4 10             	add    $0x10,%esp
    20e2:	89 c7                	mov    %eax,%edi
    20e4:	85 c0                	test   %eax,%eax
    20e6:	0f 84 52 01 00 00    	je     223e <create_root_nodes+0x1ae>
    20ec:	83 ec 0c             	sub    $0xc,%esp
    20ef:	8b 55 e4             	mov    -0x1c(%ebp),%edx
    20f2:	52                   	push   %edx
    20f3:	e8 b8 bc 00 00       	call   ddb0 <fibril_rwlock_is_write_locked>
    20f8:	83 c4 10             	add    $0x10,%esp
    20fb:	84 c0                	test   %al,%al
    20fd:	0f 84 50 01 00 00    	je     2253 <create_root_nodes+0x1c3>
    2103:	89 7b 1c             	mov    %edi,0x1c(%ebx)
    2106:	50                   	push   %eax
    2107:	6a 00                	push   $0x0
    2109:	53                   	push   %ebx
    210a:	56                   	push   %esi
    210b:	e8 f0 29 00 00       	call   4b00 <set_fun_path>
    2110:	83 c4 10             	add    $0x10,%esp
    2113:	84 c0                	test   %al,%al
    2115:	74 23                	je     213a <create_root_nodes+0xaa>
    2117:	8b 46 04             	mov    0x4(%esi),%eax
    211a:	40                   	inc    %eax
    211b:	89 46 04             	mov    %eax,0x4(%esi)
    211e:	89 43 18             	mov    %eax,0x18(%ebx)
    2121:	50                   	push   %eax
    2122:	50                   	push   %eax
    2123:	8d 43 44             	lea    0x44(%ebx),%eax
    2126:	50                   	push   %eax
    2127:	8d 46 38             	lea    0x38(%esi),%eax
    212a:	50                   	push   %eax
    212b:	e8 80 d7 01 00       	call   1f8b0 <hash_table_insert>
    2130:	c7 43 28 00 00 00 00 	movl   $0x0,0x28(%ebx)
    2137:	83 c4 10             	add    $0x10,%esp
    213a:	83 ec 0c             	sub    $0xc,%esp
    213d:	6a 10                	push   $0x10
    213f:	e8 9c 61 01 00       	call   182e0 <malloc>
    2144:	83 c4 0c             	add    $0xc,%esp
    2147:	89 c7                	mov    %eax,%edi
    2149:	6a 10                	push   $0x10
    214b:	6a 00                	push   $0x0
    214d:	50                   	push   %eax
    214e:	e8 4d 5f 00 00       	call   80a0 <memset>
    2153:	c7 04 24 de 82 02 00 	movl   $0x282de,(%esp)
    215a:	e8 11 8e 00 00       	call   af70 <str_dup>
    215f:	8d 4b 38             	lea    0x38(%ebx),%ecx
    2162:	89 47 08             	mov    %eax,0x8(%edi)
    2165:	8b 43 3c             	mov    0x3c(%ebx),%eax
    2168:	83 c4 10             	add    $0x10,%esp
    216b:	c7 47 0c 64 00 00 00 	movl   $0x64,0xc(%edi)
    2172:	39 c8                	cmp    %ecx,%eax
    2174:	75 09                	jne    217f <create_root_nodes+0xef>
    2176:	eb 0f                	jmp    2187 <create_root_nodes+0xf7>
    2178:	8b 40 04             	mov    0x4(%eax),%eax
    217b:	39 c8                	cmp    %ecx,%eax
    217d:	74 08                	je     2187 <create_root_nodes+0xf7>
    217f:	83 78 0c 63          	cmpl   $0x63,0xc(%eax)
    2183:	77 f3                	ja     2178 <create_root_nodes+0xe8>
    2185:	89 c1                	mov    %eax,%ecx
    2187:	8b 01                	mov    (%ecx),%eax
    2189:	89 4f 04             	mov    %ecx,0x4(%edi)
    218c:	89 07                	mov    %eax,(%edi)
    218e:	8b 01                	mov    (%ecx),%eax
    2190:	89 78 04             	mov    %edi,0x4(%eax)
    2193:	89 39                	mov    %edi,(%ecx)
    2195:	89 1e                	mov    %ebx,(%esi)
    2197:	e8 b4 fb ff ff       	call   1d50 <create_dev_node>
    219c:	89 c7                	mov    %eax,%edi
    219e:	85 c0                	test   %eax,%eax
    21a0:	74 6e                	je     2210 <create_root_nodes+0x180>
    21a2:	83 ec 0c             	sub    $0xc,%esp
    21a5:	50                   	push   %eax
    21a6:	e8 45 fc ff ff       	call   1df0 <dev_add_ref>
    21ab:	58                   	pop    %eax
    21ac:	8b 45 e4             	mov    -0x1c(%ebp),%eax
    21af:	50                   	push   %eax
    21b0:	e8 fb bb 00 00       	call   ddb0 <fibril_rwlock_is_write_locked>
    21b5:	83 c4 10             	add    $0x10,%esp
    21b8:	84 c0                	test   %al,%al
    21ba:	74 6d                	je     2229 <create_root_nodes+0x199>
    21bc:	88 45 e3             	mov    %al,-0x1d(%ebp)
    21bf:	50                   	push   %eax
    21c0:	50                   	push   %eax
    21c1:	83 c6 1c             	add    $0x1c,%esi
    21c4:	8b 53 24             	mov    0x24(%ebx),%edx
    21c7:	52                   	push   %edx
    21c8:	53                   	push   %ebx
    21c9:	57                   	push   %edi
    21ca:	68 40 83 02 00       	push   $0x28340
    21cf:	6a 04                	push   $0x4
    21d1:	6a ff                	push   $0xffffffff
    21d3:	e8 68 0f 01 00       	call   13140 <log_msg>
    21d8:	8b 46 e8             	mov    -0x18(%esi),%eax
    21db:	83 c4 18             	add    $0x18,%esp
    21de:	8d 48 01             	lea    0x1(%eax),%ecx
    21e1:	89 4e e8             	mov    %ecx,-0x18(%esi)
    21e4:	89 4f 04             	mov    %ecx,0x4(%edi)
    21e7:	8d 4f 24             	lea    0x24(%edi),%ecx
    21ea:	51                   	push   %ecx
    21eb:	56                   	push   %esi
    21ec:	e8 bf d6 01 00       	call   1f8b0 <hash_table_insert>
    21f1:	89 5f 08             	mov    %ebx,0x8(%edi)
    21f4:	89 7b 34             	mov    %edi,0x34(%ebx)
    21f7:	8b 5d e4             	mov    -0x1c(%ebp),%ebx
    21fa:	59                   	pop    %ecx
    21fb:	53                   	push   %ebx
    21fc:	e8 6f ba 00 00       	call   dc70 <fibril_rwlock_write_unlock>
    2201:	8a 45 e3             	mov    -0x1d(%ebp),%al
    2204:	83 c4 10             	add    $0x10,%esp
    2207:	8d 65 f4             	lea    -0xc(%ebp),%esp
    220a:	5b                   	pop    %ebx
    220b:	5e                   	pop    %esi
    220c:	5f                   	pop    %edi
    220d:	5d                   	pop    %ebp
    220e:	c3                   	ret    
    220f:	90                   	nop
    2210:	83 ec 0c             	sub    $0xc,%esp
    2213:	8b 45 e4             	mov    -0x1c(%ebp),%eax
    2216:	50                   	push   %eax
    2217:	e8 54 ba 00 00       	call   dc70 <fibril_rwlock_write_unlock>
    221c:	83 c4 10             	add    $0x10,%esp
    221f:	8d 65 f4             	lea    -0xc(%ebp),%esp
    2222:	31 c0                	xor    %eax,%eax
    2224:	5b                   	pop    %ebx
    2225:	5e                   	pop    %esi
    2226:	5f                   	pop    %edi
    2227:	5d                   	pop    %ebp
    2228:	c3                   	ret    
    2229:	56                   	push   %esi
    222a:	68 d9 00 00 00       	push   $0xd9
    222f:	68 c3 82 02 00       	push   $0x282c3
    2234:	68 10 83 02 00       	push   $0x28310
    2239:	e8 82 22 02 00       	call   244c0 <assert_abort>
    223e:	51                   	push   %ecx
    223f:	68 0e 01 00 00       	push   $0x10e
    2244:	68 c3 82 02 00       	push   $0x282c3
    2249:	68 cd 82 02 00       	push   $0x282cd
    224e:	e8 6d 22 02 00       	call   244c0 <assert_abort>
    2253:	50                   	push   %eax
    2254:	68 0f 01 00 00       	push   $0x10f
    2259:	68 c3 82 02 00       	push   $0x282c3
    225e:	68 10 83 02 00       	push   $0x28310
    2263:	e8 58 22 02 00       	call   244c0 <assert_abort>
    2268:	90                   	nop
    2269:	8d b4 26 00 00 00 00 	lea    0x0(%esi,%eiz,1),%esi

00002270 <init_device_tree>:
    2270:	55                   	push   %ebp
    2271:	89 e5                	mov    %esp,%ebp
    2273:	56                   	push   %esi
    2274:	53                   	push   %ebx
    2275:	83 ec 14             	sub    $0x14,%esp
    2278:	8b 5d 08             	mov    0x8(%ebp),%ebx
    227b:	68 e3 82 02 00       	push   $0x282e3
    2280:	6a 04                	push   $0x4
    2282:	6a ff                	push   $0xffffffff
    2284:	e8 b7 0e 01 00       	call   13140 <log_msg>
    2289:	8d 43 1c             	lea    0x1c(%ebx),%eax
    228c:	c7 43 04 00 00 00 00 	movl   $0x0,0x4(%ebx)
    2293:	68 c8 c8 02 00       	push   $0x2c8c8
    2298:	6a 00                	push   $0x0
    229a:	6a 00                	push   $0x0
    229c:	50                   	push   %eax
    229d:	e8 5e d2 01 00       	call   1f500 <hash_table_create>
    22a2:	83 c4 20             	add    $0x20,%esp
    22a5:	8d 43 38             	lea    0x38(%ebx),%eax
    22a8:	68 b4 c8 02 00       	push   $0x2c8b4
    22ad:	6a 00                	push   $0x0
    22af:	6a 00                	push   $0x0
    22b1:	50                   	push   %eax
    22b2:	e8 49 d2 01 00       	call   1f500 <hash_table_create>
    22b7:	8d 43 54             	lea    0x54(%ebx),%eax
    22ba:	68 a0 c8 02 00       	push   $0x2c8a0
    22bf:	6a 00                	push   $0x0
    22c1:	6a 00                	push   $0x0
    22c3:	50                   	push   %eax
    22c4:	e8 37 d2 01 00       	call   1f500 <hash_table_create>
    22c9:	83 c4 14             	add    $0x14,%esp
    22cc:	8d 43 08             	lea    0x8(%ebx),%eax
    22cf:	50                   	push   %eax
    22d0:	e8 eb b6 00 00       	call   d9c0 <fibril_rwlock_initialize>
    22d5:	89 1c 24             	mov    %ebx,(%esp)
    22d8:	e8 b3 fd ff ff       	call   2090 <create_root_nodes>
    22dd:	83 c4 10             	add    $0x10,%esp
    22e0:	84 c0                	test   %al,%al
    22e2:	74 2d                	je     2311 <init_device_tree+0xa1>
    22e4:	8b 03                	mov    (%ebx),%eax
    22e6:	83 ec 0c             	sub    $0xc,%esp
    22e9:	8b 70 34             	mov    0x34(%eax),%esi
    22ec:	56                   	push   %esi
    22ed:	e8 fe fa ff ff       	call   1df0 <dev_add_ref>
    22f2:	83 c4 0c             	add    $0xc,%esp
    22f5:	8b 45 0c             	mov    0xc(%ebp),%eax
    22f8:	53                   	push   %ebx
    22f9:	50                   	push   %eax
    22fa:	56                   	push   %esi
    22fb:	e8 90 1c 00 00       	call   3f90 <assign_driver>
    2300:	89 34 24             	mov    %esi,(%esp)
    2303:	88 45 f7             	mov    %al,-0x9(%ebp)
    2306:	e8 f5 fa ff ff       	call   1e00 <dev_del_ref>
    230b:	83 c4 10             	add    $0x10,%esp
    230e:	8a 45 f7             	mov    -0x9(%ebp),%al
    2311:	8d 65 f8             	lea    -0x8(%ebp),%esp
    2314:	5b                   	pop    %ebx
    2315:	5e                   	pop    %esi
    2316:	5d                   	pop    %ebp
    2317:	c3                   	ret    
    2318:	90                   	nop
    2319:	8d b4 26 00 00 00 00 	lea    0x0(%esi,%eiz,1),%esi

00002320 <insert_dev_node>:
    2320:	55                   	push   %ebp
    2321:	89 e5                	mov    %esp,%ebp
    2323:	57                   	push   %edi
    2324:	56                   	push   %esi
    2325:	53                   	push   %ebx
    2326:	83 ec 18             	sub    $0x18,%esp
    2329:	8b 5d 08             	mov    0x8(%ebp),%ebx
    232c:	8b 75 0c             	mov    0xc(%ebp),%esi
    232f:	8b 7d 10             	mov    0x10(%ebp),%edi
    2332:	8d 43 08             	lea    0x8(%ebx),%eax
    2335:	50                   	push   %eax
    2336:	e8 75 ba 00 00       	call   ddb0 <fibril_rwlock_is_write_locked>
    233b:	83 c4 10             	add    $0x10,%esp
    233e:	84 c0                	test   %al,%al
    2340:	74 40                	je     2382 <insert_dev_node+0x62>
    2342:	50                   	push   %eax
    2343:	50                   	push   %eax
    2344:	8b 57 24             	mov    0x24(%edi),%edx
    2347:	83 c3 1c             	add    $0x1c,%ebx
    234a:	52                   	push   %edx
    234b:	57                   	push   %edi
    234c:	56                   	push   %esi
    234d:	68 40 83 02 00       	push   $0x28340
    2352:	6a 04                	push   $0x4
    2354:	6a ff                	push   $0xffffffff
    2356:	e8 e5 0d 01 00       	call   13140 <log_msg>
    235b:	8b 43 e8             	mov    -0x18(%ebx),%eax
    235e:	83 c4 18             	add    $0x18,%esp
    2361:	40                   	inc    %eax
    2362:	89 43 e8             	mov    %eax,-0x18(%ebx)
    2365:	89 46 04             	mov    %eax,0x4(%esi)
    2368:	8d 46 24             	lea    0x24(%esi),%eax
    236b:	50                   	push   %eax
    236c:	53                   	push   %ebx
    236d:	e8 3e d5 01 00       	call   1f8b0 <hash_table_insert>
    2372:	89 7e 08             	mov    %edi,0x8(%esi)
    2375:	89 77 34             	mov    %esi,0x34(%edi)
    2378:	8d 65 f4             	lea    -0xc(%ebp),%esp
    237b:	b0 01                	mov    $0x1,%al
    237d:	5b                   	pop    %ebx
    237e:	5e                   	pop    %esi
    237f:	5f                   	pop    %edi
    2380:	5d                   	pop    %ebp
    2381:	c3                   	ret    
    2382:	51                   	push   %ecx
    2383:	68 d9 00 00 00       	push   $0xd9
    2388:	68 c3 82 02 00       	push   $0x282c3
    238d:	68 10 83 02 00       	push   $0x28310
    2392:	e8 29 21 02 00       	call   244c0 <assert_abort>
    2397:	89 f6                	mov    %esi,%esi
    2399:	8d bc 27 00 00 00 00 	lea    0x0(%edi,%eiz,1),%edi

000023a0 <remove_dev_node>:
    23a0:	55                   	push   %ebp
    23a1:	89 e5                	mov    %esp,%ebp
    23a3:	56                   	push   %esi
    23a4:	53                   	push   %ebx
    23a5:	8b 75 08             	mov    0x8(%ebp),%esi
    23a8:	83 ec 0c             	sub    $0xc,%esp
    23ab:	8b 5d 0c             	mov    0xc(%ebp),%ebx
    23ae:	8d 46 08             	lea    0x8(%esi),%eax
    23b1:	50                   	push   %eax
    23b2:	e8 f9 b9 00 00       	call   ddb0 <fibril_rwlock_is_write_locked>
    23b7:	83 c4 10             	add    $0x10,%esp
    23ba:	84 c0                	test   %al,%al
    23bc:	74 40                	je     23fe <remove_dev_node+0x5e>
    23be:	53                   	push   %ebx
    23bf:	83 c6 1c             	add    $0x1c,%esi
    23c2:	68 f6 82 02 00       	push   $0x282f6
    23c7:	6a 04                	push   $0x4
    23c9:	6a ff                	push   $0xffffffff
    23cb:	e8 70 0d 01 00       	call   13140 <log_msg>
    23d0:	58                   	pop    %eax
    23d1:	8d 43 04             	lea    0x4(%ebx),%eax
    23d4:	5a                   	pop    %edx
    23d5:	50                   	push   %eax
    23d6:	56                   	push   %esi
    23d7:	e8 04 d8 01 00       	call   1fbe0 <hash_table_remove>
    23dc:	8b 43 08             	mov    0x8(%ebx),%eax
    23df:	83 c4 10             	add    $0x10,%esp
    23e2:	c7 40 34 00 00 00 00 	movl   $0x0,0x34(%eax)
    23e9:	c7 43 08 00 00 00 00 	movl   $0x0,0x8(%ebx)
    23f0:	c7 43 18 04 00 00 00 	movl   $0x4,0x18(%ebx)
    23f7:	8d 65 f8             	lea    -0x8(%ebp),%esp
    23fa:	5b                   	pop    %ebx
    23fb:	5e                   	pop    %esi
    23fc:	5d                   	pop    %ebp
    23fd:	c3                   	ret    
    23fe:	51                   	push   %ecx
    23ff:	68 f0 00 00 00       	push   $0xf0
    2404:	68 c3 82 02 00       	push   $0x282c3
    2409:	68 10 83 02 00       	push   $0x28310
    240e:	e8 ad 20 02 00       	call   244c0 <assert_abort>
    2413:	8d b6 00 00 00 00    	lea    0x0(%esi),%esi
    2419:	8d bc 27 00 00 00 00 	lea    0x0(%edi,%eiz,1),%edi

00002420 <insert_fun_node>:
    2420:	55                   	push   %ebp
    2421:	89 e5                	mov    %esp,%ebp
    2423:	57                   	push   %edi
    2424:	56                   	push   %esi
    2425:	53                   	push   %ebx
    2426:	83 ec 1c             	sub    $0x1c,%esp
    2429:	8b 45 10             	mov    0x10(%ebp),%eax
    242c:	8b 75 08             	mov    0x8(%ebp),%esi
    242f:	8b 5d 0c             	mov    0xc(%ebp),%ebx
    2432:	8b 7d 14             	mov    0x14(%ebp),%edi
    2435:	85 c0                	test   %eax,%eax
    2437:	0f 84 d2 00 00 00    	je     250f <insert_fun_node+0xef>
    243d:	83 ec 0c             	sub    $0xc,%esp
    2440:	8d 46 08             	lea    0x8(%esi),%eax
    2443:	50                   	push   %eax
    2444:	e8 67 b9 00 00       	call   ddb0 <fibril_rwlock_is_write_locked>
    2449:	83 c4 10             	add    $0x10,%esp
    244c:	84 c0                	test   %al,%al
    244e:	0f 84 d0 00 00 00    	je     2524 <insert_fun_node+0x104>
    2454:	85 ff                	test   %edi,%edi
    2456:	74 70                	je     24c8 <insert_fun_node+0xa8>
    2458:	8b 4d 10             	mov    0x10(%ebp),%ecx
    245b:	8b 47 08             	mov    0x8(%edi),%eax
    245e:	89 4b 1c             	mov    %ecx,0x1c(%ebx)
    2461:	52                   	push   %edx
    2462:	50                   	push   %eax
    2463:	53                   	push   %ebx
    2464:	56                   	push   %esi
    2465:	e8 96 26 00 00       	call   4b00 <set_fun_path>
    246a:	83 c4 10             	add    $0x10,%esp
    246d:	84 c0                	test   %al,%al
    246f:	75 0f                	jne    2480 <insert_fun_node+0x60>
    2471:	31 c0                	xor    %eax,%eax
    2473:	8d 65 f4             	lea    -0xc(%ebp),%esp
    2476:	5b                   	pop    %ebx
    2477:	5e                   	pop    %esi
    2478:	5f                   	pop    %edi
    2479:	5d                   	pop    %ebp
    247a:	c3                   	ret    
    247b:	90                   	nop
    247c:	8d 74 26 00          	lea    0x0(%esi,%eiz,1),%esi
    2480:	88 45 e7             	mov    %al,-0x19(%ebp)
    2483:	8b 46 04             	mov    0x4(%esi),%eax
    2486:	83 c6 38             	add    $0x38,%esi
    2489:	8d 50 01             	lea    0x1(%eax),%edx
    248c:	89 56 cc             	mov    %edx,-0x34(%esi)
    248f:	89 53 18             	mov    %edx,0x18(%ebx)
    2492:	8d 53 44             	lea    0x44(%ebx),%edx
    2495:	50                   	push   %eax
    2496:	50                   	push   %eax
    2497:	52                   	push   %edx
    2498:	56                   	push   %esi
    2499:	e8 12 d4 01 00       	call   1f8b0 <hash_table_insert>
    249e:	8d 4f 0c             	lea    0xc(%edi),%ecx
    24a1:	8d 53 2c             	lea    0x2c(%ebx),%edx
    24a4:	89 4b 30             	mov    %ecx,0x30(%ebx)
    24a7:	8b 4f 0c             	mov    0xc(%edi),%ecx
    24aa:	89 4b 2c             	mov    %ecx,0x2c(%ebx)
    24ad:	89 7b 28             	mov    %edi,0x28(%ebx)
    24b0:	8b 4f 0c             	mov    0xc(%edi),%ecx
    24b3:	8a 45 e7             	mov    -0x19(%ebp),%al
    24b6:	83 c4 10             	add    $0x10,%esp
    24b9:	89 51 04             	mov    %edx,0x4(%ecx)
    24bc:	89 57 0c             	mov    %edx,0xc(%edi)
    24bf:	8d 65 f4             	lea    -0xc(%ebp),%esp
    24c2:	5b                   	pop    %ebx
    24c3:	5e                   	pop    %esi
    24c4:	5f                   	pop    %edi
    24c5:	5d                   	pop    %ebp
    24c6:	c3                   	ret    
    24c7:	90                   	nop
    24c8:	8b 45 10             	mov    0x10(%ebp),%eax
    24cb:	89 43 1c             	mov    %eax,0x1c(%ebx)
    24ce:	51                   	push   %ecx
    24cf:	6a 00                	push   $0x0
    24d1:	53                   	push   %ebx
    24d2:	56                   	push   %esi
    24d3:	e8 28 26 00 00       	call   4b00 <set_fun_path>
    24d8:	83 c4 10             	add    $0x10,%esp
    24db:	84 c0                	test   %al,%al
    24dd:	74 92                	je     2471 <insert_fun_node+0x51>
    24df:	88 45 e7             	mov    %al,-0x19(%ebp)
    24e2:	8b 46 04             	mov    0x4(%esi),%eax
    24e5:	83 c6 38             	add    $0x38,%esi
    24e8:	8d 50 01             	lea    0x1(%eax),%edx
    24eb:	89 56 cc             	mov    %edx,-0x34(%esi)
    24ee:	89 53 18             	mov    %edx,0x18(%ebx)
    24f1:	52                   	push   %edx
    24f2:	52                   	push   %edx
    24f3:	8d 53 44             	lea    0x44(%ebx),%edx
    24f6:	52                   	push   %edx
    24f7:	56                   	push   %esi
    24f8:	e8 b3 d3 01 00       	call   1f8b0 <hash_table_insert>
    24fd:	c7 43 28 00 00 00 00 	movl   $0x0,0x28(%ebx)
    2504:	83 c4 10             	add    $0x10,%esp
    2507:	8a 45 e7             	mov    -0x19(%ebp),%al
    250a:	e9 64 ff ff ff       	jmp    2473 <insert_fun_node+0x53>
    250f:	53                   	push   %ebx
    2510:	68 0e 01 00 00       	push   $0x10e
    2515:	68 c3 82 02 00       	push   $0x282c3
    251a:	68 cd 82 02 00       	push   $0x282cd
    251f:	e8 9c 1f 02 00       	call   244c0 <assert_abort>
    2524:	51                   	push   %ecx
    2525:	68 0f 01 00 00       	push   $0x10f
    252a:	68 c3 82 02 00       	push   $0x282c3
    252f:	68 10 83 02 00       	push   $0x28310
    2534:	e8 87 1f 02 00       	call   244c0 <assert_abort>
    2539:	8d b4 26 00 00 00 00 	lea    0x0(%esi,%eiz,1),%esi

00002540 <remove_fun_node>:
    2540:	55                   	push   %ebp
    2541:	89 e5                	mov    %esp,%ebp
    2543:	56                   	push   %esi
    2544:	53                   	push   %ebx
    2545:	8b 75 08             	mov    0x8(%ebp),%esi
    2548:	83 ec 0c             	sub    $0xc,%esp
    254b:	8b 5d 0c             	mov    0xc(%ebp),%ebx
    254e:	8d 46 08             	lea    0x8(%esi),%eax
    2551:	50                   	push   %eax
    2552:	e8 59 b8 00 00       	call   ddb0 <fibril_rwlock_is_write_locked>
    2557:	83 c4 10             	add    $0x10,%esp
    255a:	84 c0                	test   %al,%al
    255c:	74 52                	je     25b0 <remove_fun_node+0x70>
    255e:	83 c6 38             	add    $0x38,%esi
    2561:	50                   	push   %eax
    2562:	50                   	push   %eax
    2563:	8d 43 18             	lea    0x18(%ebx),%eax
    2566:	50                   	push   %eax
    2567:	56                   	push   %esi
    2568:	e8 73 d6 01 00       	call   1fbe0 <hash_table_remove>
    256d:	8b 53 28             	mov    0x28(%ebx),%edx
    2570:	83 c4 10             	add    $0x10,%esp
    2573:	85 d2                	test   %edx,%edx
    2575:	74 24                	je     259b <remove_fun_node+0x5b>
    2577:	8b 53 2c             	mov    0x2c(%ebx),%edx
    257a:	85 d2                	test   %edx,%edx
    257c:	74 0f                	je     258d <remove_fun_node+0x4d>
    257e:	8b 43 30             	mov    0x30(%ebx),%eax
    2581:	85 c0                	test   %eax,%eax
    2583:	74 08                	je     258d <remove_fun_node+0x4d>
    2585:	89 10                	mov    %edx,(%eax)
    2587:	8b 53 2c             	mov    0x2c(%ebx),%edx
    258a:	89 42 04             	mov    %eax,0x4(%edx)
    258d:	c7 43 2c 00 00 00 00 	movl   $0x0,0x2c(%ebx)
    2594:	c7 43 30 00 00 00 00 	movl   $0x0,0x30(%ebx)
    259b:	c7 43 28 00 00 00 00 	movl   $0x0,0x28(%ebx)
    25a2:	c7 43 04 03 00 00 00 	movl   $0x3,0x4(%ebx)
    25a9:	8d 65 f8             	lea    -0x8(%ebp),%esp
    25ac:	5b                   	pop    %ebx
    25ad:	5e                   	pop    %esi
    25ae:	5d                   	pop    %ebp
    25af:	c3                   	ret    
    25b0:	51                   	push   %ecx
    25b1:	68 2f 01 00 00       	push   $0x12f
    25b6:	68 c3 82 02 00       	push   $0x282c3
    25bb:	68 10 83 02 00       	push   $0x28310
    25c0:	e8 fb 1e 02 00       	call   244c0 <assert_abort>
    25c5:	66 90                	xchg   %ax,%ax
    25c7:	66 90                	xchg   %ax,%ax
    25c9:	66 90                	xchg   %ax,%ax
    25cb:	66 90                	xchg   %ax,%ax
    25cd:	66 90                	xchg   %ax,%ax
    25cf:	90                   	nop

000025d0 <init_running_drv>:
    25d0:	55                   	push   %ebp
    25d1:	89 e5                	mov    %esp,%ebp
    25d3:	53                   	push   %ebx
    25d4:	83 ec 0c             	sub    $0xc,%esp
    25d7:	8b 5d 08             	mov    0x8(%ebp),%ebx
    25da:	68 60 cb 02 00       	push   $0x2cb60
    25df:	53                   	push   %ebx
    25e0:	e8 8b 18 00 00       	call   3e70 <initialize_running_driver>
    25e5:	8b 43 14             	mov    0x14(%ebx),%eax
    25e8:	50                   	push   %eax
    25e9:	68 68 83 02 00       	push   $0x28368
    25ee:	6a 04                	push   $0x4
    25f0:	6a ff                	push   $0xffffffff
    25f2:	e8 49 0b 01 00       	call   13140 <log_msg>
    25f7:	31 c0                	xor    %eax,%eax
    25f9:	8b 5d fc             	mov    -0x4(%ebp),%ebx
    25fc:	c9                   	leave  
    25fd:	c3                   	ret    
    25fe:	66 90                	xchg   %ax,%ax

00002600 <devman_connection_driver>:
    2600:	55                   	push   %ebp
    2601:	89 e5                	mov    %esp,%ebp
    2603:	57                   	push   %edi
    2604:	56                   	push   %esi
    2605:	53                   	push   %ebx
    2606:	81 ec 84 00 00 00    	sub    $0x84,%esp
    260c:	8b 45 08             	mov    0x8(%ebp),%eax
    260f:	6a 00                	push   $0x0
    2611:	50                   	push   %eax
    2612:	e8 19 9f 01 00       	call   1c530 <async_answer_0>
    2617:	e8 64 89 01 00       	call   1af80 <async_get_client_data>
    261c:	83 c4 10             	add    $0x10,%esp
    261f:	89 c3                	mov    %eax,%ebx
    2621:	85 c0                	test   %eax,%eax
    2623:	0f 84 f9 02 00 00    	je     2922 <devman_connection_driver+0x322>
    2629:	8d b4 26 00 00 00 00 	lea    0x0(%esi,%eiz,1),%esi
    2630:	50                   	push   %eax
    2631:	50                   	push   %eax
    2632:	8d 45 a0             	lea    -0x60(%ebp),%eax
    2635:	6a 00                	push   $0x0
    2637:	50                   	push   %eax
    2638:	e8 73 86 01 00       	call   1acb0 <async_get_call_timeout>
    263d:	89 c7                	mov    %eax,%edi
    263f:	8b 45 a0             	mov    -0x60(%ebp),%eax
    2642:	83 c4 10             	add    $0x10,%esp
    2645:	85 c0                	test   %eax,%eax
    2647:	0f 84 e7 02 00 00    	je     2934 <devman_connection_driver+0x334>
    264d:	3d 00 04 00 00       	cmp    $0x400,%eax
    2652:	75 34                	jne    2688 <devman_connection_driver+0x88>
    2654:	83 ec 0c             	sub    $0xc,%esp
    2657:	53                   	push   %ebx
    2658:	e8 b3 af 00 00       	call   d610 <fibril_mutex_lock>
    265d:	8b 43 10             	mov    0x10(%ebx),%eax
    2660:	83 c4 10             	add    $0x10,%esp
    2663:	85 c0                	test   %eax,%eax
    2665:	0f 84 c5 05 00 00    	je     2c30 <devman_connection_driver+0x630>
    266b:	83 ec 0c             	sub    $0xc,%esp
    266e:	53                   	push   %ebx
    266f:	e8 1c b1 00 00       	call   d790 <fibril_mutex_unlock>
    2674:	5e                   	pop    %esi
    2675:	58                   	pop    %eax
    2676:	6a f2                	push   $0xfffffff2
    2678:	57                   	push   %edi
    2679:	e8 b2 9e 01 00       	call   1c530 <async_answer_0>
    267e:	83 c4 10             	add    $0x10,%esp
    2681:	eb ad                	jmp    2630 <devman_connection_driver+0x30>
    2683:	90                   	nop
    2684:	8d 74 26 00          	lea    0x0(%esi,%eiz,1),%esi
    2688:	83 ec 0c             	sub    $0xc,%esp
    268b:	53                   	push   %ebx
    268c:	e8 7f af 00 00       	call   d610 <fibril_mutex_lock>
    2691:	8b 73 10             	mov    0x10(%ebx),%esi
    2694:	89 1c 24             	mov    %ebx,(%esp)
    2697:	e8 f4 b0 00 00       	call   d790 <fibril_mutex_unlock>
    269c:	83 c4 10             	add    $0x10,%esp
    269f:	85 f6                	test   %esi,%esi
    26a1:	0f 84 09 04 00 00    	je     2ab0 <devman_connection_driver+0x4b0>
    26a7:	8b 45 a0             	mov    -0x60(%ebp),%eax
    26aa:	2d 00 04 00 00       	sub    $0x400,%eax
    26af:	83 f8 06             	cmp    $0x6,%eax
    26b2:	0f 87 58 02 00 00    	ja     2910 <devman_connection_driver+0x310>
    26b8:	ff 24 85 18 87 02 00 	jmp    *0x28718(,%eax,4)
    26bf:	90                   	nop
    26c0:	8b 55 a4             	mov    -0x5c(%ebp),%edx
    26c3:	50                   	push   %eax
    26c4:	50                   	push   %eax
    26c5:	52                   	push   %edx
    26c6:	68 60 cb 02 00       	push   $0x2cb60
    26cb:	e8 b0 23 00 00       	call   4a80 <find_fun_node>
    26d0:	83 c4 10             	add    $0x10,%esp
    26d3:	89 c6                	mov    %eax,%esi
    26d5:	85 c0                	test   %eax,%eax
    26d7:	0f 84 fb 02 00 00    	je     29d8 <devman_connection_driver+0x3d8>
    26dd:	83 ec 0c             	sub    $0xc,%esp
    26e0:	50                   	push   %eax
    26e1:	e8 fa 22 00 00       	call   49e0 <fun_busy_lock>
    26e6:	c7 04 24 68 cb 02 00 	movl   $0x2cb68,(%esp)
    26ed:	e8 fe b3 00 00       	call   daf0 <fibril_rwlock_write_lock>
    26f2:	8b 46 24             	mov    0x24(%esi),%eax
    26f5:	50                   	push   %eax
    26f6:	68 f8 85 02 00       	push   $0x285f8
    26fb:	6a 04                	push   $0x4
    26fd:	6a ff                	push   $0xffffffff
    26ff:	e8 3c 0a 01 00       	call   13140 <log_msg>
    2704:	83 c4 20             	add    $0x20,%esp
    2707:	83 7e 04 03          	cmpl   $0x3,0x4(%esi)
    270b:	0f 84 ff 06 00 00    	je     2e10 <devman_connection_driver+0x810>
    2711:	83 7e 20 01          	cmpl   $0x1,0x20(%esi)
    2715:	0f 84 ad 03 00 00    	je     2ac8 <devman_connection_driver+0x4c8>
    271b:	8b 46 40             	mov    0x40(%esi),%eax
    271e:	85 c0                	test   %eax,%eax
    2720:	0f 85 4a 04 00 00    	jne    2b70 <devman_connection_driver+0x570>
    2726:	51                   	push   %ecx
    2727:	51                   	push   %ecx
    2728:	56                   	push   %esi
    2729:	68 60 cb 02 00       	push   $0x2cb60
    272e:	e8 0d fe ff ff       	call   2540 <remove_fun_node>
    2733:	c7 04 24 68 cb 02 00 	movl   $0x2cb68,(%esp)
    273a:	e8 31 b5 00 00       	call   dc70 <fibril_rwlock_write_unlock>
    273f:	89 34 24             	mov    %esi,(%esp)
    2742:	e8 b9 22 00 00       	call   4a00 <fun_busy_unlock>
    2747:	89 34 24             	mov    %esi,(%esp)
    274a:	e8 71 22 00 00       	call   49c0 <fun_del_ref>
    274f:	89 34 24             	mov    %esi,(%esp)
    2752:	e8 69 22 00 00       	call   49c0 <fun_del_ref>
    2757:	83 c4 0c             	add    $0xc,%esp
    275a:	68 40 86 02 00       	push   $0x28640
    275f:	6a 04                	push   $0x4
    2761:	6a ff                	push   $0xffffffff
    2763:	e8 d8 09 01 00       	call   13140 <log_msg>
    2768:	58                   	pop    %eax
    2769:	5a                   	pop    %edx
    276a:	6a 00                	push   $0x0
    276c:	57                   	push   %edi
    276d:	e8 be 9d 01 00       	call   1c530 <async_answer_0>
    2772:	83 c4 10             	add    $0x10,%esp
    2775:	e9 b6 fe ff ff       	jmp    2630 <devman_connection_driver+0x30>
    277a:	8d b6 00 00 00 00    	lea    0x0(%esi),%esi
    2780:	50                   	push   %eax
    2781:	50                   	push   %eax
    2782:	8b 45 a4             	mov    -0x5c(%ebp),%eax
    2785:	50                   	push   %eax
    2786:	68 60 cb 02 00       	push   $0x2cb60
    278b:	e8 f0 22 00 00       	call   4a80 <find_fun_node>
    2790:	83 c4 10             	add    $0x10,%esp
    2793:	85 c0                	test   %eax,%eax
    2795:	0f 84 3d 02 00 00    	je     29d8 <devman_connection_driver+0x3d8>
    279b:	83 ec 0c             	sub    $0xc,%esp
    279e:	89 45 94             	mov    %eax,-0x6c(%ebp)
    27a1:	50                   	push   %eax
    27a2:	e8 39 22 00 00       	call   49e0 <fun_busy_lock>
    27a7:	c7 04 24 68 cb 02 00 	movl   $0x2cb68,(%esp)
    27ae:	e8 3d b3 00 00       	call   daf0 <fibril_rwlock_write_lock>
    27b3:	8b 55 94             	mov    -0x6c(%ebp),%edx
    27b6:	83 c4 10             	add    $0x10,%esp
    27b9:	8b 42 28             	mov    0x28(%edx),%eax
    27bc:	85 c0                	test   %eax,%eax
    27be:	74 09                	je     27c9 <devman_connection_driver+0x1c9>
    27c0:	3b 70 14             	cmp    0x14(%eax),%esi
    27c3:	0f 84 f7 05 00 00    	je     2dc0 <devman_connection_driver+0x7c0>
    27c9:	83 ec 0c             	sub    $0xc,%esp
    27cc:	89 55 94             	mov    %edx,-0x6c(%ebp)
    27cf:	52                   	push   %edx
    27d0:	e8 2b 22 00 00       	call   4a00 <fun_busy_unlock>
    27d5:	8b 55 94             	mov    -0x6c(%ebp),%edx
    27d8:	89 14 24             	mov    %edx,(%esp)
    27db:	e8 e0 21 00 00       	call   49c0 <fun_del_ref>
    27e0:	58                   	pop    %eax
    27e1:	5a                   	pop    %edx
    27e2:	6a ff                	push   $0xffffffff
    27e4:	57                   	push   %edi
    27e5:	e8 46 9d 01 00       	call   1c530 <async_answer_0>
    27ea:	83 c4 10             	add    $0x10,%esp
    27ed:	e9 3e fe ff ff       	jmp    2630 <devman_connection_driver+0x30>
    27f2:	8d b6 00 00 00 00    	lea    0x0(%esi),%esi
    27f8:	50                   	push   %eax
    27f9:	68 ff 86 02 00       	push   $0x286ff
    27fe:	6a 04                	push   $0x4
    2800:	6a ff                	push   $0xffffffff
    2802:	e8 39 09 01 00       	call   13140 <log_msg>
    2807:	8b 4d a4             	mov    -0x5c(%ebp),%ecx
    280a:	58                   	pop    %eax
    280b:	5a                   	pop    %edx
    280c:	51                   	push   %ecx
    280d:	68 60 cb 02 00       	push   $0x2cb60
    2812:	e8 69 22 00 00       	call   4a80 <find_fun_node>
    2817:	83 c4 10             	add    $0x10,%esp
    281a:	85 c0                	test   %eax,%eax
    281c:	0f 84 b6 01 00 00    	je     29d8 <devman_connection_driver+0x3d8>
    2822:	83 ec 0c             	sub    $0xc,%esp
    2825:	89 45 94             	mov    %eax,-0x6c(%ebp)
    2828:	50                   	push   %eax
    2829:	e8 b2 21 00 00       	call   49e0 <fun_busy_lock>
    282e:	c7 04 24 68 cb 02 00 	movl   $0x2cb68,(%esp)
    2835:	e8 b6 b1 00 00       	call   d9f0 <fibril_rwlock_read_lock>
    283a:	8b 55 94             	mov    -0x6c(%ebp),%edx
    283d:	83 c4 10             	add    $0x10,%esp
    2840:	8b 42 28             	mov    0x28(%edx),%eax
    2843:	85 c0                	test   %eax,%eax
    2845:	74 09                	je     2850 <devman_connection_driver+0x250>
    2847:	3b 70 14             	cmp    0x14(%eax),%esi
    284a:	0f 84 28 05 00 00    	je     2d78 <devman_connection_driver+0x778>
    2850:	83 ec 0c             	sub    $0xc,%esp
    2853:	89 55 94             	mov    %edx,-0x6c(%ebp)
    2856:	68 68 cb 02 00       	push   $0x2cb68
    285b:	e8 70 b3 00 00       	call   dbd0 <fibril_rwlock_read_unlock>
    2860:	8b 55 94             	mov    -0x6c(%ebp),%edx
    2863:	89 14 24             	mov    %edx,(%esp)
    2866:	e8 95 21 00 00       	call   4a00 <fun_busy_unlock>
    286b:	8b 55 94             	mov    -0x6c(%ebp),%edx
    286e:	89 14 24             	mov    %edx,(%esp)
    2871:	e8 4a 21 00 00       	call   49c0 <fun_del_ref>
    2876:	e9 65 ff ff ff       	jmp    27e0 <devman_connection_driver+0x1e0>
    287b:	90                   	nop
    287c:	8d 74 26 00          	lea    0x0(%esi,%eiz,1),%esi
    2880:	8d 55 c4             	lea    -0x3c(%ebp),%edx
    2883:	8b 75 a4             	mov    -0x5c(%ebp),%esi
    2886:	50                   	push   %eax
    2887:	50                   	push   %eax
    2888:	6a 00                	push   $0x0
    288a:	6a 00                	push   $0x0
    288c:	6a 00                	push   $0x0
    288e:	6a 00                	push   $0x0
    2890:	6a 01                	push   $0x1
    2892:	52                   	push   %edx
    2893:	e8 08 b9 01 00       	call   1e1a0 <async_data_write_accept>
    2898:	83 c4 20             	add    $0x20,%esp
    289b:	85 c0                	test   %eax,%eax
    289d:	0f 84 9d 00 00 00    	je     2940 <devman_connection_driver+0x340>
    28a3:	56                   	push   %esi
    28a4:	56                   	push   %esi
    28a5:	50                   	push   %eax
    28a6:	57                   	push   %edi
    28a7:	e8 84 9c 01 00       	call   1c530 <async_answer_0>
    28ac:	83 c4 10             	add    $0x10,%esp
    28af:	e9 7c fd ff ff       	jmp    2630 <devman_connection_driver+0x30>
    28b4:	8d 74 26 00          	lea    0x0(%esi,%eiz,1),%esi
    28b8:	8b 45 ac             	mov    -0x54(%ebp),%eax
    28bb:	8b 75 a4             	mov    -0x5c(%ebp),%esi
    28be:	89 45 94             	mov    %eax,-0x6c(%ebp)
    28c1:	50                   	push   %eax
    28c2:	50                   	push   %eax
    28c3:	8b 45 a8             	mov    -0x58(%ebp),%eax
    28c6:	50                   	push   %eax
    28c7:	68 60 cb 02 00       	push   $0x2cb60
    28cc:	e8 ef f5 ff ff       	call   1ec0 <find_dev_node>
    28d1:	83 c4 10             	add    $0x10,%esp
    28d4:	89 c2                	mov    %eax,%edx
    28d6:	85 c0                	test   %eax,%eax
    28d8:	0f 84 fa 00 00 00    	je     29d8 <devman_connection_driver+0x3d8>
    28de:	8d 46 ff             	lea    -0x1(%esi),%eax
    28e1:	83 f8 01             	cmp    $0x1,%eax
    28e4:	0f 86 06 01 00 00    	jbe    29f0 <devman_connection_driver+0x3f0>
    28ea:	56                   	push   %esi
    28eb:	89 55 94             	mov    %edx,-0x6c(%ebp)
    28ee:	68 b8 84 02 00       	push   $0x284b8
    28f3:	6a 01                	push   $0x1
    28f5:	6a ff                	push   $0xffffffff
    28f7:	e8 44 08 01 00       	call   13140 <log_msg>
    28fc:	8b 55 94             	mov    -0x6c(%ebp),%edx
    28ff:	89 14 24             	mov    %edx,(%esp)
    2902:	e8 f9 f4 ff ff       	call   1e00 <dev_del_ref>
    2907:	e9 68 fd ff ff       	jmp    2674 <devman_connection_driver+0x74>
    290c:	8d 74 26 00          	lea    0x0(%esi,%eiz,1),%esi
    2910:	50                   	push   %eax
    2911:	50                   	push   %eax
    2912:	6a f2                	push   $0xfffffff2
    2914:	57                   	push   %edi
    2915:	e8 16 9c 01 00       	call   1c530 <async_answer_0>
    291a:	83 c4 10             	add    $0x10,%esp
    291d:	e9 0e fd ff ff       	jmp    2630 <devman_connection_driver+0x30>
    2922:	50                   	push   %eax
    2923:	68 98 83 02 00       	push   $0x28398
    2928:	6a 01                	push   $0x1
    292a:	6a ff                	push   $0xffffffff
    292c:	e8 0f 08 01 00       	call   13140 <log_msg>
    2931:	83 c4 10             	add    $0x10,%esp
    2934:	8d 65 f4             	lea    -0xc(%ebp),%esp
    2937:	5b                   	pop    %ebx
    2938:	5e                   	pop    %esi
    2939:	5f                   	pop    %edi
    293a:	5d                   	pop    %ebp
    293b:	c3                   	ret    
    293c:	8d 74 26 00          	lea    0x0(%esi,%eiz,1),%esi
    2940:	51                   	push   %ecx
    2941:	51                   	push   %ecx
    2942:	56                   	push   %esi
    2943:	68 60 cb 02 00       	push   $0x2cb60
    2948:	e8 33 21 00 00       	call   4a80 <find_fun_node>
    294d:	83 c4 10             	add    $0x10,%esp
    2950:	89 c6                	mov    %eax,%esi
    2952:	85 c0                	test   %eax,%eax
    2954:	0f 84 7e 00 00 00    	je     29d8 <devman_connection_driver+0x3d8>
    295a:	83 ec 0c             	sub    $0xc,%esp
    295d:	68 68 cb 02 00       	push   $0x2cb68
    2962:	e8 89 b0 00 00       	call   d9f0 <fibril_rwlock_read_lock>
    2967:	83 c4 10             	add    $0x10,%esp
    296a:	83 7e 04 03          	cmpl   $0x3,0x4(%esi)
    296e:	0f 84 a4 02 00 00    	je     2c18 <devman_connection_driver+0x618>
    2974:	50                   	push   %eax
    2975:	8d 45 9c             	lea    -0x64(%ebp),%eax
    2978:	6a 01                	push   $0x1
    297a:	50                   	push   %eax
    297b:	8b 45 c4             	mov    -0x3c(%ebp),%eax
    297e:	50                   	push   %eax
    297f:	e8 4c 47 00 00       	call   70d0 <loc_category_get_id>
    2984:	83 c4 10             	add    $0x10,%esp
    2987:	89 45 94             	mov    %eax,-0x6c(%ebp)
    298a:	85 c0                	test   %eax,%eax
    298c:	0f 84 36 02 00 00    	je     2bc8 <devman_connection_driver+0x5c8>
    2992:	83 ec 0c             	sub    $0xc,%esp
    2995:	8b 45 c4             	mov    -0x3c(%ebp),%eax
    2998:	50                   	push   %eax
    2999:	8b 46 24             	mov    0x24(%esi),%eax
    299c:	50                   	push   %eax
    299d:	68 c8 85 02 00       	push   $0x285c8
    29a2:	6a 01                	push   $0x1
    29a4:	6a ff                	push   $0xffffffff
    29a6:	e8 95 07 01 00       	call   13140 <log_msg>
    29ab:	83 c4 20             	add    $0x20,%esp
    29ae:	83 ec 0c             	sub    $0xc,%esp
    29b1:	68 68 cb 02 00       	push   $0x2cb68
    29b6:	e8 15 b2 00 00       	call   dbd0 <fibril_rwlock_read_unlock>
    29bb:	89 34 24             	mov    %esi,(%esp)
    29be:	e8 fd 1f 00 00       	call   49c0 <fun_del_ref>
    29c3:	8b 75 94             	mov    -0x6c(%ebp),%esi
    29c6:	5a                   	pop    %edx
    29c7:	59                   	pop    %ecx
    29c8:	56                   	push   %esi
    29c9:	57                   	push   %edi
    29ca:	e8 61 9b 01 00       	call   1c530 <async_answer_0>
    29cf:	83 c4 10             	add    $0x10,%esp
    29d2:	e9 59 fc ff ff       	jmp    2630 <devman_connection_driver+0x30>
    29d7:	90                   	nop
    29d8:	50                   	push   %eax
    29d9:	50                   	push   %eax
    29da:	6a ff                	push   $0xffffffff
    29dc:	57                   	push   %edi
    29dd:	e8 4e 9b 01 00       	call   1c530 <async_answer_0>
    29e2:	83 c4 10             	add    $0x10,%esp
    29e5:	e9 46 fc ff ff       	jmp    2630 <devman_connection_driver+0x30>
    29ea:	8d b6 00 00 00 00    	lea    0x0(%esi),%esi
    29f0:	8d 45 98             	lea    -0x68(%ebp),%eax
    29f3:	89 55 90             	mov    %edx,-0x70(%ebp)
    29f6:	c7 45 98 00 00 00 00 	movl   $0x0,-0x68(%ebp)
    29fd:	51                   	push   %ecx
    29fe:	51                   	push   %ecx
    29ff:	6a 00                	push   $0x0
    2a01:	6a 00                	push   $0x0
    2a03:	6a 00                	push   $0x0
    2a05:	6a 00                	push   $0x0
    2a07:	6a 01                	push   $0x1
    2a09:	50                   	push   %eax
    2a0a:	e8 91 b7 01 00       	call   1e1a0 <async_data_write_accept>
    2a0f:	83 c4 20             	add    $0x20,%esp
    2a12:	89 45 8c             	mov    %eax,-0x74(%ebp)
    2a15:	85 c0                	test   %eax,%eax
    2a17:	8b 55 90             	mov    -0x70(%ebp),%edx
    2a1a:	0f 85 d8 01 00 00    	jne    2bf8 <devman_connection_driver+0x5f8>
    2a20:	83 ec 0c             	sub    $0xc,%esp
    2a23:	89 55 90             	mov    %edx,-0x70(%ebp)
    2a26:	68 68 cb 02 00       	push   $0x2cb68
    2a2b:	e8 c0 b0 00 00       	call   daf0 <fibril_rwlock_write_lock>
    2a30:	8b 55 90             	mov    -0x70(%ebp),%edx
    2a33:	83 c4 10             	add    $0x10,%esp
    2a36:	83 7a 18 04          	cmpl   $0x4,0x18(%edx)
    2a3a:	0f 84 6e 04 00 00    	je     2eae <devman_connection_driver+0x8ae>
    2a40:	50                   	push   %eax
    2a41:	8b 45 98             	mov    -0x68(%ebp),%eax
    2a44:	50                   	push   %eax
    2a45:	89 55 90             	mov    %edx,-0x70(%ebp)
    2a48:	52                   	push   %edx
    2a49:	68 60 cb 02 00       	push   $0x2cb60
    2a4e:	e8 6d 23 00 00       	call   4dc0 <find_fun_node_in_device>
    2a53:	83 c4 10             	add    $0x10,%esp
    2a56:	8b 55 90             	mov    -0x70(%ebp),%edx
    2a59:	85 c0                	test   %eax,%eax
    2a5b:	0f 84 d1 04 00 00    	je     2f32 <devman_connection_driver+0x932>
    2a61:	83 ec 0c             	sub    $0xc,%esp
    2a64:	89 55 94             	mov    %edx,-0x6c(%ebp)
    2a67:	50                   	push   %eax
    2a68:	e8 53 1f 00 00       	call   49c0 <fun_del_ref>
    2a6d:	c7 04 24 68 cb 02 00 	movl   $0x2cb68,(%esp)
    2a74:	e8 f7 b1 00 00       	call   dc70 <fibril_rwlock_write_unlock>
    2a79:	8b 55 94             	mov    -0x6c(%ebp),%edx
    2a7c:	89 14 24             	mov    %edx,(%esp)
    2a7f:	e8 7c f3 ff ff       	call   1e00 <dev_del_ref>
    2a84:	58                   	pop    %eax
    2a85:	5a                   	pop    %edx
    2a86:	6a f7                	push   $0xfffffff7
    2a88:	57                   	push   %edi
    2a89:	e8 a2 9a 01 00       	call   1c530 <async_answer_0>
    2a8e:	8b 7d 98             	mov    -0x68(%ebp),%edi
    2a91:	59                   	pop    %ecx
    2a92:	5e                   	pop    %esi
    2a93:	57                   	push   %edi
    2a94:	68 e8 84 02 00       	push   $0x284e8
    2a99:	e8 52 04 01 00       	call   12ef0 <printf>
    2a9e:	58                   	pop    %eax
    2a9f:	8b 45 98             	mov    -0x68(%ebp),%eax
    2aa2:	50                   	push   %eax
    2aa3:	e8 e8 59 01 00       	call   18490 <free>
    2aa8:	83 c4 10             	add    $0x10,%esp
    2aab:	e9 80 fb ff ff       	jmp    2630 <devman_connection_driver+0x30>
    2ab0:	50                   	push   %eax
    2ab1:	50                   	push   %eax
    2ab2:	6a f5                	push   $0xfffffff5
    2ab4:	57                   	push   %edi
    2ab5:	e8 76 9a 01 00       	call   1c530 <async_answer_0>
    2aba:	83 c4 10             	add    $0x10,%esp
    2abd:	e9 6e fb ff ff       	jmp    2630 <devman_connection_driver+0x30>
    2ac2:	8d b6 00 00 00 00    	lea    0x0(%esi),%esi
    2ac8:	8b 46 34             	mov    0x34(%esi),%eax
    2acb:	85 c0                	test   %eax,%eax
    2acd:	0f 84 53 fc ff ff    	je     2726 <devman_connection_driver+0x126>
    2ad3:	83 ec 0c             	sub    $0xc,%esp
    2ad6:	89 45 94             	mov    %eax,-0x6c(%ebp)
    2ad9:	50                   	push   %eax
    2ada:	e8 11 f3 ff ff       	call   1df0 <dev_add_ref>
    2adf:	8b 45 94             	mov    -0x6c(%ebp),%eax
    2ae2:	8b 40 18             	mov    0x18(%eax),%eax
    2ae5:	c7 04 24 68 cb 02 00 	movl   $0x2cb68,(%esp)
    2aec:	89 45 90             	mov    %eax,-0x70(%ebp)
    2aef:	e8 7c b1 00 00       	call   dc70 <fibril_rwlock_write_unlock>
    2af4:	83 c4 10             	add    $0x10,%esp
    2af7:	83 7d 90 01          	cmpl   $0x1,-0x70(%ebp)
    2afb:	0f 84 43 03 00 00    	je     2e44 <devman_connection_driver+0x844>
    2b01:	83 ec 0c             	sub    $0xc,%esp
    2b04:	68 68 cb 02 00       	push   $0x2cb68
    2b09:	e8 e2 ae 00 00       	call   d9f0 <fibril_rwlock_read_lock>
    2b0e:	83 c4 10             	add    $0x10,%esp
    2b11:	8b 4d 94             	mov    -0x6c(%ebp),%ecx
    2b14:	89 c8                	mov    %ecx,%eax
    2b16:	83 c0 0c             	add    $0xc,%eax
    2b19:	39 41 10             	cmp    %eax,0x10(%ecx)
    2b1c:	0f 84 a4 04 00 00    	je     2fc6 <devman_connection_driver+0x9c6>
    2b22:	50                   	push   %eax
    2b23:	68 64 86 02 00       	push   $0x28664
    2b28:	6a 01                	push   $0x1
    2b2a:	6a ff                	push   $0xffffffff
    2b2c:	e8 0f 06 01 00       	call   13140 <log_msg>
    2b31:	8b 45 94             	mov    -0x6c(%ebp),%eax
    2b34:	c7 40 18 03 00 00 00 	movl   $0x3,0x18(%eax)
    2b3b:	c7 04 24 68 cb 02 00 	movl   $0x2cb68,(%esp)
    2b42:	e8 89 b0 00 00       	call   dbd0 <fibril_rwlock_read_unlock>
    2b47:	8b 4d 94             	mov    -0x6c(%ebp),%ecx
    2b4a:	5a                   	pop    %edx
    2b4b:	51                   	push   %ecx
    2b4c:	e8 af f2 ff ff       	call   1e00 <dev_del_ref>
    2b51:	83 c4 10             	add    $0x10,%esp
    2b54:	c7 45 94 f5 ff ff ff 	movl   $0xfffffff5,-0x6c(%ebp)
    2b5b:	83 ec 0c             	sub    $0xc,%esp
    2b5e:	56                   	push   %esi
    2b5f:	e8 9c 1e 00 00       	call   4a00 <fun_busy_unlock>
    2b64:	e9 52 fe ff ff       	jmp    29bb <devman_connection_driver+0x3bb>
    2b69:	8d b4 26 00 00 00 00 	lea    0x0(%esi,%eiz,1),%esi
    2b70:	51                   	push   %ecx
    2b71:	51                   	push   %ecx
    2b72:	68 60 cb 02 00       	push   $0x2cb60
    2b77:	56                   	push   %esi
    2b78:	e8 73 1b 00 00       	call   46f0 <loc_unregister_tree_function>
    2b7d:	83 c4 10             	add    $0x10,%esp
    2b80:	85 c0                	test   %eax,%eax
    2b82:	0f 84 9e fb ff ff    	je     2726 <devman_connection_driver+0x126>
    2b88:	50                   	push   %eax
    2b89:	68 1c 86 02 00       	push   $0x2861c
    2b8e:	6a 01                	push   $0x1
    2b90:	6a ff                	push   $0xffffffff
    2b92:	e8 a9 05 01 00       	call   13140 <log_msg>
    2b97:	c7 04 24 68 cb 02 00 	movl   $0x2cb68,(%esp)
    2b9e:	e8 cd b0 00 00       	call   dc70 <fibril_rwlock_write_unlock>
    2ba3:	89 34 24             	mov    %esi,(%esp)
    2ba6:	e8 55 1e 00 00       	call   4a00 <fun_busy_unlock>
    2bab:	89 34 24             	mov    %esi,(%esp)
    2bae:	e8 0d 1e 00 00       	call   49c0 <fun_del_ref>
    2bb3:	58                   	pop    %eax
    2bb4:	5a                   	pop    %edx
    2bb5:	68 f6 fe ff ff       	push   $0xfffffef6
    2bba:	57                   	push   %edi
    2bbb:	e8 70 99 01 00       	call   1c530 <async_answer_0>
    2bc0:	83 c4 10             	add    $0x10,%esp
    2bc3:	e9 68 fa ff ff       	jmp    2630 <devman_connection_driver+0x30>
    2bc8:	50                   	push   %eax
    2bc9:	50                   	push   %eax
    2bca:	8b 45 9c             	mov    -0x64(%ebp),%eax
    2bcd:	50                   	push   %eax
    2bce:	8b 46 40             	mov    0x40(%esi),%eax
    2bd1:	50                   	push   %eax
    2bd2:	e8 a9 4a 00 00       	call   7680 <loc_service_add_to_cat>
    2bd7:	8b 55 c4             	mov    -0x3c(%ebp),%edx
    2bda:	58                   	pop    %eax
    2bdb:	52                   	push   %edx
    2bdc:	8b 4e 24             	mov    0x24(%esi),%ecx
    2bdf:	51                   	push   %ecx
    2be0:	68 a0 85 02 00       	push   $0x285a0
    2be5:	6a 03                	push   $0x3
    2be7:	6a ff                	push   $0xffffffff
    2be9:	e8 52 05 01 00       	call   13140 <log_msg>
    2bee:	83 c4 20             	add    $0x20,%esp
    2bf1:	e9 b8 fd ff ff       	jmp    29ae <devman_connection_driver+0x3ae>
    2bf6:	66 90                	xchg   %ax,%ax
    2bf8:	83 ec 0c             	sub    $0xc,%esp
    2bfb:	52                   	push   %edx
    2bfc:	e8 ff f1 ff ff       	call   1e00 <dev_del_ref>
    2c01:	58                   	pop    %eax
    2c02:	8b 45 8c             	mov    -0x74(%ebp),%eax
    2c05:	5a                   	pop    %edx
    2c06:	50                   	push   %eax
    2c07:	57                   	push   %edi
    2c08:	e8 23 99 01 00       	call   1c530 <async_answer_0>
    2c0d:	83 c4 10             	add    $0x10,%esp
    2c10:	e9 1b fa ff ff       	jmp    2630 <devman_connection_driver+0x30>
    2c15:	8d 76 00             	lea    0x0(%esi),%esi
    2c18:	83 ec 0c             	sub    $0xc,%esp
    2c1b:	68 68 cb 02 00       	push   $0x2cb68
    2c20:	e8 ab af 00 00       	call   dbd0 <fibril_rwlock_read_unlock>
    2c25:	e9 b6 fb ff ff       	jmp    27e0 <devman_connection_driver+0x1e0>
    2c2a:	8d b6 00 00 00 00    	lea    0x0(%esi),%esi
    2c30:	c7 45 c4 00 00 00 00 	movl   $0x0,-0x3c(%ebp)
    2c37:	51                   	push   %ecx
    2c38:	68 b9 86 02 00       	push   $0x286b9
    2c3d:	6a 04                	push   $0x4
    2c3f:	6a ff                	push   $0xffffffff
    2c41:	e8 fa 04 01 00       	call   13140 <log_msg>
    2c46:	8d 55 c4             	lea    -0x3c(%ebp),%edx
    2c49:	5e                   	pop    %esi
    2c4a:	58                   	pop    %eax
    2c4b:	6a 00                	push   $0x0
    2c4d:	6a 00                	push   $0x0
    2c4f:	6a 00                	push   $0x0
    2c51:	6a 00                	push   $0x0
    2c53:	6a 01                	push   $0x1
    2c55:	52                   	push   %edx
    2c56:	e8 45 b5 01 00       	call   1e1a0 <async_data_write_accept>
    2c5b:	83 c4 20             	add    $0x20,%esp
    2c5e:	85 c0                	test   %eax,%eax
    2c60:	0f 85 b9 02 00 00    	jne    2f1f <devman_connection_driver+0x91f>
    2c66:	8b 4d c4             	mov    -0x3c(%ebp),%ecx
    2c69:	51                   	push   %ecx
    2c6a:	68 b8 83 02 00       	push   $0x283b8
    2c6f:	6a 04                	push   $0x4
    2c71:	6a ff                	push   $0xffffffff
    2c73:	e8 c8 04 01 00       	call   13140 <log_msg>
    2c78:	5e                   	pop    %esi
    2c79:	58                   	pop    %eax
    2c7a:	8b 45 c4             	mov    -0x3c(%ebp),%eax
    2c7d:	50                   	push   %eax
    2c7e:	68 d0 cb 02 00       	push   $0x2cbd0
    2c83:	e8 68 0b 00 00       	call   37f0 <driver_find_by_name>
    2c88:	83 c4 10             	add    $0x10,%esp
    2c8b:	89 c6                	mov    %eax,%esi
    2c8d:	85 c0                	test   %eax,%eax
    2c8f:	0f 84 c6 05 00 00    	je     325b <devman_connection_driver+0xc5b>
    2c95:	83 ec 0c             	sub    $0xc,%esp
    2c98:	8b 4d c4             	mov    -0x3c(%ebp),%ecx
    2c9b:	51                   	push   %ecx
    2c9c:	e8 ef 57 01 00       	call   18490 <free>
    2ca1:	8d 46 2c             	lea    0x2c(%esi),%eax
    2ca4:	c7 45 c4 00 00 00 00 	movl   $0x0,-0x3c(%ebp)
    2cab:	89 04 24             	mov    %eax,(%esp)
    2cae:	89 45 94             	mov    %eax,-0x6c(%ebp)
    2cb1:	e8 5a a9 00 00       	call   d610 <fibril_mutex_lock>
    2cb6:	8b 46 10             	mov    0x10(%esi),%eax
    2cb9:	83 c4 10             	add    $0x10,%esp
    2cbc:	85 c0                	test   %eax,%eax
    2cbe:	0f 85 2b 02 00 00    	jne    2eef <devman_connection_driver+0x8ef>
    2cc4:	8b 46 0c             	mov    0xc(%esi),%eax
    2cc7:	85 c0                	test   %eax,%eax
    2cc9:	0f 84 ff 01 00 00    	je     2ece <devman_connection_driver+0x8ce>
    2ccf:	83 f8 02             	cmp    $0x2,%eax
    2cd2:	0f 84 5a 01 00 00    	je     2e32 <devman_connection_driver+0x832>
    2cd8:	8b 4e 14             	mov    0x14(%esi),%ecx
    2cdb:	51                   	push   %ecx
    2cdc:	68 20 84 02 00       	push   $0x28420
    2ce1:	6a 04                	push   $0x4
    2ce3:	6a ff                	push   $0xffffffff
    2ce5:	e8 56 04 01 00       	call   13140 <log_msg>
    2cea:	c7 04 24 02 00 00 00 	movl   $0x2,(%esp)
    2cf1:	e8 1a ba 01 00       	call   1e710 <async_callback_receive>
    2cf6:	83 c4 10             	add    $0x10,%esp
    2cf9:	89 46 10             	mov    %eax,0x10(%esi)
    2cfc:	85 c0                	test   %eax,%eax
    2cfe:	0f 84 8c 05 00 00    	je     3290 <devman_connection_driver+0xc90>
    2d04:	6a 00                	push   $0x0
    2d06:	6a 00                	push   $0x0
    2d08:	68 41 26 9b db       	push   $0xdb9b2641
    2d0d:	50                   	push   %eax
    2d0e:	e8 9d 9f 01 00       	call   1ccb0 <async_sess_args_set>
    2d13:	8b 4e 14             	mov    0x14(%esi),%ecx
    2d16:	51                   	push   %ecx
    2d17:	68 48 84 02 00       	push   $0x28448
    2d1c:	6a 03                	push   $0x3
    2d1e:	6a ff                	push   $0xffffffff
    2d20:	e8 1b 04 01 00       	call   13140 <log_msg>
    2d25:	83 c4 1c             	add    $0x1c,%esp
    2d28:	6a 00                	push   $0x0
    2d2a:	56                   	push   %esi
    2d2b:	68 d0 25 00 00       	push   $0x25d0
    2d30:	e8 2b a1 00 00       	call   ce60 <fibril_create_generic>
    2d35:	83 c4 10             	add    $0x10,%esp
    2d38:	85 c0                	test   %eax,%eax
    2d3a:	0f 84 ef 02 00 00    	je     302f <devman_connection_driver+0xa2f>
    2d40:	83 ec 0c             	sub    $0xc,%esp
    2d43:	50                   	push   %eax
    2d44:	e8 77 a3 00 00       	call   d0c0 <fibril_add_ready>
    2d49:	58                   	pop    %eax
    2d4a:	8b 45 94             	mov    -0x6c(%ebp),%eax
    2d4d:	50                   	push   %eax
    2d4e:	e8 3d aa 00 00       	call   d790 <fibril_mutex_unlock>
    2d53:	58                   	pop    %eax
    2d54:	5a                   	pop    %edx
    2d55:	6a 00                	push   $0x0
    2d57:	57                   	push   %edi
    2d58:	e8 d3 97 01 00       	call   1c530 <async_answer_0>
    2d5d:	83 c4 10             	add    $0x10,%esp
    2d60:	83 ec 0c             	sub    $0xc,%esp
    2d63:	89 73 10             	mov    %esi,0x10(%ebx)
    2d66:	53                   	push   %ebx
    2d67:	e8 24 aa 00 00       	call   d790 <fibril_mutex_unlock>
    2d6c:	83 c4 10             	add    $0x10,%esp
    2d6f:	e9 bc f8 ff ff       	jmp    2630 <devman_connection_driver+0x30>
    2d74:	8d 74 26 00          	lea    0x0(%esi,%eiz,1),%esi
    2d78:	83 ec 0c             	sub    $0xc,%esp
    2d7b:	89 55 94             	mov    %edx,-0x6c(%ebp)
    2d7e:	68 68 cb 02 00       	push   $0x2cb68
    2d83:	e8 48 ae 00 00       	call   dbd0 <fibril_rwlock_read_unlock>
    2d88:	8b 55 94             	mov    -0x6c(%ebp),%edx
    2d8b:	89 14 24             	mov    %edx,(%esp)
    2d8e:	e8 dd 20 00 00       	call   4e70 <fun_online>
    2d93:	83 c4 10             	add    $0x10,%esp
    2d96:	8b 55 94             	mov    -0x6c(%ebp),%edx
    2d99:	85 c0                	test   %eax,%eax
    2d9b:	75 48                	jne    2de5 <devman_connection_driver+0x7e5>
    2d9d:	83 ec 0c             	sub    $0xc,%esp
    2da0:	89 55 94             	mov    %edx,-0x6c(%ebp)
    2da3:	52                   	push   %edx
    2da4:	e8 57 1c 00 00       	call   4a00 <fun_busy_unlock>
    2da9:	8b 55 94             	mov    -0x6c(%ebp),%edx
    2dac:	89 14 24             	mov    %edx,(%esp)
    2daf:	e8 0c 1c 00 00       	call   49c0 <fun_del_ref>
    2db4:	e9 af f9 ff ff       	jmp    2768 <devman_connection_driver+0x168>
    2db9:	8d b4 26 00 00 00 00 	lea    0x0(%esi,%eiz,1),%esi
    2dc0:	83 ec 0c             	sub    $0xc,%esp
    2dc3:	89 55 94             	mov    %edx,-0x6c(%ebp)
    2dc6:	68 68 cb 02 00       	push   $0x2cb68
    2dcb:	e8 a0 ae 00 00       	call   dc70 <fibril_rwlock_write_unlock>
    2dd0:	8b 55 94             	mov    -0x6c(%ebp),%edx
    2dd3:	89 14 24             	mov    %edx,(%esp)
    2dd6:	e8 05 22 00 00       	call   4fe0 <fun_offline>
    2ddb:	83 c4 10             	add    $0x10,%esp
    2dde:	8b 55 94             	mov    -0x6c(%ebp),%edx
    2de1:	85 c0                	test   %eax,%eax
    2de3:	74 b8                	je     2d9d <devman_connection_driver+0x79d>
    2de5:	83 ec 0c             	sub    $0xc,%esp
    2de8:	89 45 90             	mov    %eax,-0x70(%ebp)
    2deb:	52                   	push   %edx
    2dec:	e8 0f 1c 00 00       	call   4a00 <fun_busy_unlock>
    2df1:	8b 55 94             	mov    -0x6c(%ebp),%edx
    2df4:	89 14 24             	mov    %edx,(%esp)
    2df7:	e8 c4 1b 00 00       	call   49c0 <fun_del_ref>
    2dfc:	8b 45 90             	mov    -0x70(%ebp),%eax
    2dff:	59                   	pop    %ecx
    2e00:	5e                   	pop    %esi
    2e01:	50                   	push   %eax
    2e02:	57                   	push   %edi
    2e03:	e8 28 97 01 00       	call   1c530 <async_answer_0>
    2e08:	83 c4 10             	add    $0x10,%esp
    2e0b:	e9 20 f8 ff ff       	jmp    2630 <devman_connection_driver+0x30>
    2e10:	83 ec 0c             	sub    $0xc,%esp
    2e13:	68 68 cb 02 00       	push   $0x2cb68
    2e18:	e8 53 ae 00 00       	call   dc70 <fibril_rwlock_write_unlock>
    2e1d:	89 34 24             	mov    %esi,(%esp)
    2e20:	e8 db 1b 00 00       	call   4a00 <fun_busy_unlock>
    2e25:	89 34 24             	mov    %esi,(%esp)
    2e28:	e8 93 1b 00 00       	call   49c0 <fun_del_ref>
    2e2d:	e9 ae f9 ff ff       	jmp    27e0 <devman_connection_driver+0x1e0>
    2e32:	53                   	push   %ebx
    2e33:	6a 77                	push   $0x77
    2e35:	68 ee 86 02 00       	push   $0x286ee
    2e3a:	68 f9 86 02 00       	push   $0x286f9
    2e3f:	e8 7c 16 02 00       	call   244c0 <assert_abort>
    2e44:	50                   	push   %eax
    2e45:	50                   	push   %eax
    2e46:	8b 45 94             	mov    -0x6c(%ebp),%eax
    2e49:	50                   	push   %eax
    2e4a:	68 60 cb 02 00       	push   $0x2cb60
    2e4f:	e8 7c 14 00 00       	call   42d0 <driver_dev_gone>
    2e54:	c7 04 24 68 cb 02 00 	movl   $0x2cb68,(%esp)
    2e5b:	89 45 90             	mov    %eax,-0x70(%ebp)
    2e5e:	e8 8d ab 00 00       	call   d9f0 <fibril_rwlock_read_lock>
    2e63:	8b 45 90             	mov    -0x70(%ebp),%eax
    2e66:	83 c4 10             	add    $0x10,%esp
    2e69:	85 c0                	test   %eax,%eax
    2e6b:	0f 84 a0 fc ff ff    	je     2b11 <devman_connection_driver+0x511>
    2e71:	50                   	push   %eax
    2e72:	68 64 86 02 00       	push   $0x28664
    2e77:	6a 01                	push   $0x1
    2e79:	6a ff                	push   $0xffffffff
    2e7b:	e8 c0 02 01 00       	call   13140 <log_msg>
    2e80:	8b 45 94             	mov    -0x6c(%ebp),%eax
    2e83:	c7 40 18 03 00 00 00 	movl   $0x3,0x18(%eax)
    2e8a:	c7 04 24 68 cb 02 00 	movl   $0x2cb68,(%esp)
    2e91:	e8 3a ad 00 00       	call   dbd0 <fibril_rwlock_read_unlock>
    2e96:	58                   	pop    %eax
    2e97:	8b 45 94             	mov    -0x6c(%ebp),%eax
    2e9a:	50                   	push   %eax
    2e9b:	e8 60 ef ff ff       	call   1e00 <dev_del_ref>
    2ea0:	8b 45 90             	mov    -0x70(%ebp),%eax
    2ea3:	83 c4 10             	add    $0x10,%esp
    2ea6:	89 45 94             	mov    %eax,-0x6c(%ebp)
    2ea9:	e9 ad fc ff ff       	jmp    2b5b <devman_connection_driver+0x55b>
    2eae:	83 ec 0c             	sub    $0xc,%esp
    2eb1:	89 55 94             	mov    %edx,-0x6c(%ebp)
    2eb4:	68 68 cb 02 00       	push   $0x2cb68
    2eb9:	e8 b2 ad 00 00       	call   dc70 <fibril_rwlock_write_unlock>
    2ebe:	8b 55 94             	mov    -0x6c(%ebp),%edx
    2ec1:	89 14 24             	mov    %edx,(%esp)
    2ec4:	e8 37 ef ff ff       	call   1e00 <dev_del_ref>
    2ec9:	e9 12 f9 ff ff       	jmp    27e0 <devman_connection_driver+0x1e0>
    2ece:	8b 46 14             	mov    0x14(%esi),%eax
    2ed1:	50                   	push   %eax
    2ed2:	68 00 84 02 00       	push   $0x28400
    2ed7:	6a 03                	push   $0x3
    2ed9:	6a ff                	push   $0xffffffff
    2edb:	e8 60 02 01 00       	call   13140 <log_msg>
    2ee0:	c7 46 0c 01 00 00 00 	movl   $0x1,0xc(%esi)
    2ee7:	83 c4 10             	add    $0x10,%esp
    2eea:	e9 e9 fd ff ff       	jmp    2cd8 <devman_connection_driver+0x6d8>
    2eef:	8b 46 14             	mov    0x14(%esi),%eax
    2ef2:	31 f6                	xor    %esi,%esi
    2ef4:	50                   	push   %eax
    2ef5:	68 d0 86 02 00       	push   $0x286d0
    2efa:	6a 01                	push   $0x1
    2efc:	6a ff                	push   $0xffffffff
    2efe:	e8 3d 02 01 00       	call   13140 <log_msg>
    2f03:	58                   	pop    %eax
    2f04:	8b 45 94             	mov    -0x6c(%ebp),%eax
    2f07:	50                   	push   %eax
    2f08:	e8 83 a8 00 00       	call   d790 <fibril_mutex_unlock>
    2f0d:	58                   	pop    %eax
    2f0e:	5a                   	pop    %edx
    2f0f:	6a f7                	push   $0xfffffff7
    2f11:	57                   	push   %edi
    2f12:	e8 19 96 01 00       	call   1c530 <async_answer_0>
    2f17:	83 c4 10             	add    $0x10,%esp
    2f1a:	e9 41 fe ff ff       	jmp    2d60 <devman_connection_driver+0x760>
    2f1f:	52                   	push   %edx
    2f20:	52                   	push   %edx
    2f21:	50                   	push   %eax
    2f22:	57                   	push   %edi
    2f23:	31 f6                	xor    %esi,%esi
    2f25:	e8 06 96 01 00       	call   1c530 <async_answer_0>
    2f2a:	83 c4 10             	add    $0x10,%esp
    2f2d:	e9 2e fe ff ff       	jmp    2d60 <devman_connection_driver+0x760>
    2f32:	89 55 90             	mov    %edx,-0x70(%ebp)
    2f35:	e8 46 19 00 00       	call   4880 <create_fun_node>
    2f3a:	83 ec 0c             	sub    $0xc,%esp
    2f3d:	89 45 8c             	mov    %eax,-0x74(%ebp)
    2f40:	50                   	push   %eax
    2f41:	e8 6a 1a 00 00       	call   49b0 <fun_add_ref>
    2f46:	58                   	pop    %eax
    2f47:	8b 45 8c             	mov    -0x74(%ebp),%eax
    2f4a:	50                   	push   %eax
    2f4b:	e8 60 1a 00 00       	call   49b0 <fun_add_ref>
    2f50:	8b 45 8c             	mov    -0x74(%ebp),%eax
    2f53:	89 70 20             	mov    %esi,0x20(%eax)
    2f56:	89 04 24             	mov    %eax,(%esp)
    2f59:	89 c6                	mov    %eax,%esi
    2f5b:	e8 80 1a 00 00       	call   49e0 <fun_busy_lock>
    2f60:	8b 55 90             	mov    -0x70(%ebp),%edx
    2f63:	8b 45 98             	mov    -0x68(%ebp),%eax
    2f66:	52                   	push   %edx
    2f67:	50                   	push   %eax
    2f68:	56                   	push   %esi
    2f69:	68 60 cb 02 00       	push   $0x2cb60
    2f6e:	e8 ad f4 ff ff       	call   2420 <insert_fun_node>
    2f73:	83 c4 20             	add    $0x20,%esp
    2f76:	8b 55 90             	mov    -0x70(%ebp),%edx
    2f79:	84 c0                	test   %al,%al
    2f7b:	0f 85 de 00 00 00    	jne    305f <devman_connection_driver+0xa5f>
    2f81:	83 ec 0c             	sub    $0xc,%esp
    2f84:	89 55 94             	mov    %edx,-0x6c(%ebp)
    2f87:	68 68 cb 02 00       	push   $0x2cb68
    2f8c:	e8 df ac 00 00       	call   dc70 <fibril_rwlock_write_unlock>
    2f91:	8b 55 94             	mov    -0x6c(%ebp),%edx
    2f94:	89 14 24             	mov    %edx,(%esp)
    2f97:	e8 64 ee ff ff       	call   1e00 <dev_del_ref>
    2f9c:	89 34 24             	mov    %esi,(%esp)
    2f9f:	e8 5c 1a 00 00       	call   4a00 <fun_busy_unlock>
    2fa4:	89 34 24             	mov    %esi,(%esp)
    2fa7:	e8 14 1a 00 00       	call   49c0 <fun_del_ref>
    2fac:	89 34 24             	mov    %esi,(%esp)
    2faf:	e8 2c 19 00 00       	call   48e0 <delete_fun_node>
    2fb4:	5e                   	pop    %esi
    2fb5:	58                   	pop    %eax
    2fb6:	6a fe                	push   $0xfffffffe
    2fb8:	57                   	push   %edi
    2fb9:	e8 72 95 01 00       	call   1c530 <async_answer_0>
    2fbe:	83 c4 10             	add    $0x10,%esp
    2fc1:	e9 6a f6 ff ff       	jmp    2630 <devman_connection_driver+0x30>
    2fc6:	83 ec 0c             	sub    $0xc,%esp
    2fc9:	8b 41 14             	mov    0x14(%ecx),%eax
    2fcc:	89 45 90             	mov    %eax,-0x70(%ebp)
    2fcf:	68 68 cb 02 00       	push   $0x2cb68
    2fd4:	e8 f7 ab 00 00       	call   dbd0 <fibril_rwlock_read_unlock>
    2fd9:	8b 45 90             	mov    -0x70(%ebp),%eax
    2fdc:	83 c4 10             	add    $0x10,%esp
    2fdf:	85 c0                	test   %eax,%eax
    2fe1:	74 13                	je     2ff6 <devman_connection_driver+0x9f6>
    2fe3:	50                   	push   %eax
    2fe4:	50                   	push   %eax
    2fe5:	8b 45 94             	mov    -0x6c(%ebp),%eax
    2fe8:	50                   	push   %eax
    2fe9:	68 60 cb 02 00       	push   $0x2cb60
    2fee:	e8 3d 06 00 00       	call   3630 <detach_driver>
    2ff3:	83 c4 10             	add    $0x10,%esp
    2ff6:	83 ec 0c             	sub    $0xc,%esp
    2ff9:	68 68 cb 02 00       	push   $0x2cb68
    2ffe:	e8 ed aa 00 00       	call   daf0 <fibril_rwlock_write_lock>
    3003:	8b 4d 94             	mov    -0x6c(%ebp),%ecx
    3006:	58                   	pop    %eax
    3007:	5a                   	pop    %edx
    3008:	51                   	push   %ecx
    3009:	68 60 cb 02 00       	push   $0x2cb60
    300e:	e8 8d f3 ff ff       	call   23a0 <remove_dev_node>
    3013:	58                   	pop    %eax
    3014:	8b 45 94             	mov    -0x6c(%ebp),%eax
    3017:	50                   	push   %eax
    3018:	e8 e3 ed ff ff       	call   1e00 <dev_del_ref>
    301d:	58                   	pop    %eax
    301e:	8b 45 94             	mov    -0x6c(%ebp),%eax
    3021:	50                   	push   %eax
    3022:	e8 d9 ed ff ff       	call   1e00 <dev_del_ref>
    3027:	83 c4 10             	add    $0x10,%esp
    302a:	e9 f7 f6 ff ff       	jmp    2726 <devman_connection_driver+0x126>
    302f:	8b 4e 14             	mov    0x14(%esi),%ecx
    3032:	51                   	push   %ecx
    3033:	68 80 84 02 00       	push   $0x28480
    3038:	6a 01                	push   $0x1
    303a:	6a ff                	push   $0xffffffff
    303c:	e8 ff 00 01 00       	call   13140 <log_msg>
    3041:	8b 45 94             	mov    -0x6c(%ebp),%eax
    3044:	5e                   	pop    %esi
    3045:	50                   	push   %eax
    3046:	e8 45 a7 00 00       	call   d790 <fibril_mutex_unlock>
    304b:	58                   	pop    %eax
    304c:	5a                   	pop    %edx
    304d:	6a fe                	push   $0xfffffffe
    304f:	57                   	push   %edi
    3050:	31 f6                	xor    %esi,%esi
    3052:	e8 d9 94 01 00       	call   1c530 <async_answer_0>
    3057:	83 c4 10             	add    $0x10,%esp
    305a:	e9 01 fd ff ff       	jmp    2d60 <devman_connection_driver+0x760>
    305f:	83 ec 0c             	sub    $0xc,%esp
    3062:	89 55 90             	mov    %edx,-0x70(%ebp)
    3065:	68 68 cb 02 00       	push   $0x2cb68
    306a:	e8 01 ac 00 00       	call   dc70 <fibril_rwlock_write_unlock>
    306f:	8b 55 90             	mov    -0x70(%ebp),%edx
    3072:	89 14 24             	mov    %edx,(%esp)
    3075:	e8 86 ed ff ff       	call   1e00 <dev_del_ref>
    307a:	8b 45 8c             	mov    -0x74(%ebp),%eax
    307d:	83 c4 10             	add    $0x10,%esp
    3080:	c7 45 90 00 00 00 00 	movl   $0x0,-0x70(%ebp)
    3087:	8d 55 c4             	lea    -0x3c(%ebp),%edx
    308a:	8d 48 38             	lea    0x38(%eax),%ecx
    308d:	89 4d 88             	mov    %ecx,-0x78(%ebp)
    3090:	8b 4d 94             	mov    -0x6c(%ebp),%ecx
    3093:	85 c9                	test   %ecx,%ecx
    3095:	0f 84 fc 00 00 00    	je     3197 <devman_connection_driver+0xb97>
    309b:	89 5d 84             	mov    %ebx,-0x7c(%ebp)
    309e:	89 7d 80             	mov    %edi,-0x80(%ebp)
    30a1:	89 c3                	mov    %eax,%ebx
    30a3:	89 d6                	mov    %edx,%esi
    30a5:	eb 40                	jmp    30e7 <devman_connection_driver+0xae7>
    30a7:	8b 45 88             	mov    -0x78(%ebp),%eax
    30aa:	83 ec 0c             	sub    $0xc,%esp
    30ad:	89 47 04             	mov    %eax,0x4(%edi)
    30b0:	8b 43 38             	mov    0x38(%ebx),%eax
    30b3:	89 07                	mov    %eax,(%edi)
    30b5:	8b 43 38             	mov    0x38(%ebx),%eax
    30b8:	89 78 04             	mov    %edi,0x4(%eax)
    30bb:	89 7b 38             	mov    %edi,0x38(%ebx)
    30be:	8b 7f 0c             	mov    0xc(%edi),%edi
    30c1:	57                   	push   %edi
    30c2:	51                   	push   %ecx
    30c3:	68 7c 85 02 00       	push   $0x2857c
    30c8:	6a 04                	push   $0x4
    30ca:	6a ff                	push   $0xffffffff
    30cc:	e8 6f 00 01 00       	call   13140 <log_msg>
    30d1:	8b 45 90             	mov    -0x70(%ebp),%eax
    30d4:	83 c4 20             	add    $0x20,%esp
    30d7:	40                   	inc    %eax
    30d8:	89 45 90             	mov    %eax,-0x70(%ebp)
    30db:	8b 45 90             	mov    -0x70(%ebp),%eax
    30de:	39 45 94             	cmp    %eax,-0x6c(%ebp)
    30e1:	0f 84 3e 01 00 00    	je     3225 <devman_connection_driver+0xc25>
    30e7:	83 ec 0c             	sub    $0xc,%esp
    30ea:	6a 10                	push   $0x10
    30ec:	e8 ef 51 01 00       	call   182e0 <malloc>
    30f1:	83 c4 0c             	add    $0xc,%esp
    30f4:	89 c7                	mov    %eax,%edi
    30f6:	6a 10                	push   $0x10
    30f8:	6a 00                	push   $0x0
    30fa:	50                   	push   %eax
    30fb:	e8 a0 4f 00 00       	call   80a0 <memset>
    3100:	59                   	pop    %ecx
    3101:	58                   	pop    %eax
    3102:	6a 00                	push   $0x0
    3104:	56                   	push   %esi
    3105:	e8 a6 7b 01 00       	call   1acb0 <async_get_call_timeout>
    310a:	83 c4 10             	add    $0x10,%esp
    310d:	81 7d c4 02 04 00 00 	cmpl   $0x402,-0x3c(%ebp)
    3114:	0f 85 bd 00 00 00    	jne    31d7 <devman_connection_driver+0xbd7>
    311a:	52                   	push   %edx
    311b:	52                   	push   %edx
    311c:	6a 00                	push   $0x0
    311e:	50                   	push   %eax
    311f:	e8 0c 94 01 00       	call   1c530 <async_answer_0>
    3124:	8b 45 c8             	mov    -0x38(%ebp),%eax
    3127:	89 47 0c             	mov    %eax,0xc(%edi)
    312a:	59                   	pop    %ecx
    312b:	58                   	pop    %eax
    312c:	8d 45 9c             	lea    -0x64(%ebp),%eax
    312f:	6a 00                	push   $0x0
    3131:	6a 00                	push   $0x0
    3133:	6a 00                	push   $0x0
    3135:	6a 00                	push   $0x0
    3137:	6a 01                	push   $0x1
    3139:	50                   	push   %eax
    313a:	e8 61 b0 01 00       	call   1e1a0 <async_data_write_accept>
    313f:	8b 4d 9c             	mov    -0x64(%ebp),%ecx
    3142:	83 c4 20             	add    $0x20,%esp
    3145:	89 4f 08             	mov    %ecx,0x8(%edi)
    3148:	85 c0                	test   %eax,%eax
    314a:	0f 84 57 ff ff ff    	je     30a7 <devman_connection_driver+0xaa7>
    3150:	89 fe                	mov    %edi,%esi
    3152:	8b 5d 84             	mov    -0x7c(%ebp),%ebx
    3155:	8b 7d 80             	mov    -0x80(%ebp),%edi
    3158:	85 c9                	test   %ecx,%ecx
    315a:	74 12                	je     316e <devman_connection_driver+0xb6e>
    315c:	83 ec 0c             	sub    $0xc,%esp
    315f:	89 45 94             	mov    %eax,-0x6c(%ebp)
    3162:	51                   	push   %ecx
    3163:	e8 28 53 01 00       	call   18490 <free>
    3168:	83 c4 10             	add    $0x10,%esp
    316b:	8b 45 94             	mov    -0x6c(%ebp),%eax
    316e:	83 ec 0c             	sub    $0xc,%esp
    3171:	89 45 94             	mov    %eax,-0x6c(%ebp)
    3174:	56                   	push   %esi
    3175:	e8 16 53 01 00       	call   18490 <free>
    317a:	8b 45 94             	mov    -0x6c(%ebp),%eax
    317d:	89 04 24             	mov    %eax,(%esp)
    3180:	e8 fb 96 00 00       	call   c880 <str_error>
    3185:	50                   	push   %eax
    3186:	68 54 85 02 00       	push   $0x28554
    318b:	6a 01                	push   $0x1
    318d:	6a ff                	push   $0xffffffff
    318f:	e8 ac ff 00 00       	call   13140 <log_msg>
    3194:	83 c4 20             	add    $0x20,%esp
    3197:	83 ec 0c             	sub    $0xc,%esp
    319a:	8b 4d 8c             	mov    -0x74(%ebp),%ecx
    319d:	51                   	push   %ecx
    319e:	e8 cd 1c 00 00       	call   4e70 <fun_online>
    31a3:	83 c4 10             	add    $0x10,%esp
    31a6:	89 c6                	mov    %eax,%esi
    31a8:	85 c0                	test   %eax,%eax
    31aa:	0f 84 80 00 00 00    	je     3230 <devman_connection_driver+0xc30>
    31b0:	83 ec 0c             	sub    $0xc,%esp
    31b3:	8b 45 8c             	mov    -0x74(%ebp),%eax
    31b6:	50                   	push   %eax
    31b7:	e8 44 18 00 00       	call   4a00 <fun_busy_unlock>
    31bc:	58                   	pop    %eax
    31bd:	8b 45 8c             	mov    -0x74(%ebp),%eax
    31c0:	50                   	push   %eax
    31c1:	e8 fa 17 00 00       	call   49c0 <fun_del_ref>
    31c6:	58                   	pop    %eax
    31c7:	5a                   	pop    %edx
    31c8:	56                   	push   %esi
    31c9:	57                   	push   %edi
    31ca:	e8 61 93 01 00       	call   1c530 <async_answer_0>
    31cf:	83 c4 10             	add    $0x10,%esp
    31d2:	e9 59 f4 ff ff       	jmp    2630 <devman_connection_driver+0x30>
    31d7:	89 fe                	mov    %edi,%esi
    31d9:	89 45 94             	mov    %eax,-0x6c(%ebp)
    31dc:	8b 5d 84             	mov    -0x7c(%ebp),%ebx
    31df:	8b 7d 80             	mov    -0x80(%ebp),%edi
    31e2:	50                   	push   %eax
    31e3:	68 20 85 02 00       	push   $0x28520
    31e8:	6a 01                	push   $0x1
    31ea:	6a ff                	push   $0xffffffff
    31ec:	e8 4f ff 00 00       	call   13140 <log_msg>
    31f1:	58                   	pop    %eax
    31f2:	8b 45 94             	mov    -0x6c(%ebp),%eax
    31f5:	5a                   	pop    %edx
    31f6:	6a f2                	push   $0xfffffff2
    31f8:	50                   	push   %eax
    31f9:	e8 32 93 01 00       	call   1c530 <async_answer_0>
    31fe:	8b 46 08             	mov    0x8(%esi),%eax
    3201:	83 c4 10             	add    $0x10,%esp
    3204:	85 c0                	test   %eax,%eax
    3206:	74 0c                	je     3214 <devman_connection_driver+0xc14>
    3208:	83 ec 0c             	sub    $0xc,%esp
    320b:	50                   	push   %eax
    320c:	e8 7f 52 01 00       	call   18490 <free>
    3211:	83 c4 10             	add    $0x10,%esp
    3214:	83 ec 0c             	sub    $0xc,%esp
    3217:	56                   	push   %esi
    3218:	e8 73 52 01 00       	call   18490 <free>
    321d:	83 c4 10             	add    $0x10,%esp
    3220:	e9 72 ff ff ff       	jmp    3197 <devman_connection_driver+0xb97>
    3225:	8b 5d 84             	mov    -0x7c(%ebp),%ebx
    3228:	8b 7d 80             	mov    -0x80(%ebp),%edi
    322b:	e9 67 ff ff ff       	jmp    3197 <devman_connection_driver+0xb97>
    3230:	83 ec 0c             	sub    $0xc,%esp
    3233:	8b 75 8c             	mov    -0x74(%ebp),%esi
    3236:	56                   	push   %esi
    3237:	e8 c4 17 00 00       	call   4a00 <fun_busy_unlock>
    323c:	89 34 24             	mov    %esi,(%esp)
    323f:	e8 7c 17 00 00       	call   49c0 <fun_del_ref>
    3244:	83 c4 0c             	add    $0xc,%esp
    3247:	8b 46 18             	mov    0x18(%esi),%eax
    324a:	50                   	push   %eax
    324b:	6a 00                	push   $0x0
    324d:	57                   	push   %edi
    324e:	e8 fd 92 01 00       	call   1c550 <async_answer_1>
    3253:	83 c4 10             	add    $0x10,%esp
    3256:	e9 d5 f3 ff ff       	jmp    2630 <devman_connection_driver+0x30>
    325b:	8b 45 c4             	mov    -0x3c(%ebp),%eax
    325e:	50                   	push   %eax
    325f:	68 e0 83 02 00       	push   $0x283e0
    3264:	6a 01                	push   $0x1
    3266:	6a ff                	push   $0xffffffff
    3268:	e8 d3 fe 00 00       	call   13140 <log_msg>
    326d:	58                   	pop    %eax
    326e:	8b 45 c4             	mov    -0x3c(%ebp),%eax
    3271:	50                   	push   %eax
    3272:	e8 19 52 01 00       	call   18490 <free>
    3277:	58                   	pop    %eax
    3278:	5a                   	pop    %edx
    3279:	6a ff                	push   $0xffffffff
    327b:	57                   	push   %edi
    327c:	c7 45 c4 00 00 00 00 	movl   $0x0,-0x3c(%ebp)
    3283:	e8 a8 92 01 00       	call   1c530 <async_answer_0>
    3288:	83 c4 10             	add    $0x10,%esp
    328b:	e9 d0 fa ff ff       	jmp    2d60 <devman_connection_driver+0x760>
    3290:	83 ec 0c             	sub    $0xc,%esp
    3293:	8b 75 94             	mov    -0x6c(%ebp),%esi
    3296:	56                   	push   %esi
    3297:	e8 f4 a4 00 00       	call   d790 <fibril_mutex_unlock>
    329c:	58                   	pop    %eax
    329d:	5a                   	pop    %edx
    329e:	6a f5                	push   $0xfffffff5
    32a0:	57                   	push   %edi
    32a1:	31 f6                	xor    %esi,%esi
    32a3:	e8 88 92 01 00       	call   1c530 <async_answer_0>
    32a8:	83 c4 10             	add    $0x10,%esp
    32ab:	e9 b0 fa ff ff       	jmp    2d60 <devman_connection_driver+0x760>

000032b0 <init_driver_list>:
    32b0:	55                   	push   %ebp
    32b1:	89 e5                	mov    %esp,%ebp
    32b3:	53                   	push   %ebx
    32b4:	52                   	push   %edx
    32b5:	8b 5d 08             	mov    0x8(%ebp),%ebx
    32b8:	85 db                	test   %ebx,%ebx
    32ba:	74 20                	je     32dc <init_driver_list+0x2c>
    32bc:	83 ec 0c             	sub    $0xc,%esp
    32bf:	89 1b                	mov    %ebx,(%ebx)
    32c1:	89 5b 04             	mov    %ebx,0x4(%ebx)
    32c4:	8d 43 08             	lea    0x8(%ebx),%eax
    32c7:	50                   	push   %eax
    32c8:	e8 23 a3 00 00       	call   d5f0 <fibril_mutex_initialize>
    32cd:	c7 43 18 01 00 00 00 	movl   $0x1,0x18(%ebx)
    32d4:	83 c4 10             	add    $0x10,%esp
    32d7:	8b 5d fc             	mov    -0x4(%ebp),%ebx
    32da:	c9                   	leave  
    32db:	c3                   	ret    
    32dc:	50                   	push   %eax
    32dd:	6a 38                	push   $0x38
    32df:	68 34 87 02 00       	push   $0x28734
    32e4:	68 3d 87 02 00       	push   $0x2873d
    32e9:	e8 d2 11 02 00       	call   244c0 <assert_abort>
    32ee:	66 90                	xchg   %ax,%ax

000032f0 <create_driver>:
    32f0:	55                   	push   %ebp
    32f1:	89 e5                	mov    %esp,%ebp
    32f3:	53                   	push   %ebx
    32f4:	83 ec 10             	sub    $0x10,%esp
    32f7:	6a 3c                	push   $0x3c
    32f9:	e8 e2 4f 01 00       	call   182e0 <malloc>
    32fe:	83 c4 10             	add    $0x10,%esp
    3301:	89 c3                	mov    %eax,%ebx
    3303:	85 c0                	test   %eax,%eax
    3305:	74 32                	je     3339 <create_driver+0x49>
    3307:	50                   	push   %eax
    3308:	6a 3c                	push   $0x3c
    330a:	6a 00                	push   $0x0
    330c:	53                   	push   %ebx
    330d:	e8 8e 4d 00 00       	call   80a0 <memset>
    3312:	8d 43 1c             	lea    0x1c(%ebx),%eax
    3315:	89 43 1c             	mov    %eax,0x1c(%ebx)
    3318:	89 43 20             	mov    %eax,0x20(%ebx)
    331b:	8d 43 24             	lea    0x24(%ebx),%eax
    331e:	89 43 24             	mov    %eax,0x24(%ebx)
    3321:	89 43 28             	mov    %eax,0x28(%ebx)
    3324:	8d 43 2c             	lea    0x2c(%ebx),%eax
    3327:	89 04 24             	mov    %eax,(%esp)
    332a:	e8 c1 a2 00 00       	call   d5f0 <fibril_mutex_initialize>
    332f:	c7 43 10 00 00 00 00 	movl   $0x0,0x10(%ebx)
    3336:	83 c4 10             	add    $0x10,%esp
    3339:	89 d8                	mov    %ebx,%eax
    333b:	8b 5d fc             	mov    -0x4(%ebp),%ebx
    333e:	c9                   	leave  
    333f:	c3                   	ret    

00003340 <add_driver>:
    3340:	55                   	push   %ebp
    3341:	89 e5                	mov    %esp,%ebp
    3343:	57                   	push   %edi
    3344:	56                   	push   %esi
    3345:	53                   	push   %ebx
    3346:	83 ec 18             	sub    $0x18,%esp
    3349:	8b 5d 08             	mov    0x8(%ebp),%ebx
    334c:	8b 75 0c             	mov    0xc(%ebp),%esi
    334f:	8d 7b 08             	lea    0x8(%ebx),%edi
    3352:	57                   	push   %edi
    3353:	e8 b8 a2 00 00       	call   d610 <fibril_mutex_lock>
    3358:	8b 03                	mov    (%ebx),%eax
    335a:	89 5e 04             	mov    %ebx,0x4(%esi)
    335d:	89 06                	mov    %eax,(%esi)
    335f:	8b 03                	mov    (%ebx),%eax
    3361:	89 70 04             	mov    %esi,0x4(%eax)
    3364:	8b 43 18             	mov    0x18(%ebx),%eax
    3367:	89 33                	mov    %esi,(%ebx)
    3369:	8d 50 01             	lea    0x1(%eax),%edx
    336c:	89 53 18             	mov    %edx,0x18(%ebx)
    336f:	89 46 08             	mov    %eax,0x8(%esi)
    3372:	89 3c 24             	mov    %edi,(%esp)
    3375:	e8 16 a4 00 00       	call   d790 <fibril_mutex_unlock>
    337a:	8b 46 14             	mov    0x14(%esi),%eax
    337d:	50                   	push   %eax
    337e:	68 fc 87 02 00       	push   $0x287fc
    3383:	6a 04                	push   $0x4
    3385:	6a ff                	push   $0xffffffff
    3387:	e8 b4 fd 00 00       	call   13140 <log_msg>
    338c:	83 c4 20             	add    $0x20,%esp
    338f:	8d 65 f4             	lea    -0xc(%ebp),%esp
    3392:	5b                   	pop    %ebx
    3393:	5e                   	pop    %esi
    3394:	5f                   	pop    %edi
    3395:	5d                   	pop    %ebp
    3396:	c3                   	ret    
    3397:	89 f6                	mov    %esi,%esi
    3399:	8d bc 27 00 00 00 00 	lea    0x0(%edi,%eiz,1),%edi

000033a0 <get_driver_info>:
    33a0:	55                   	push   %ebp
    33a1:	89 e5                	mov    %esp,%ebp
    33a3:	57                   	push   %edi
    33a4:	56                   	push   %esi
    33a5:	53                   	push   %ebx
    33a6:	83 ec 48             	sub    $0x48,%esp
    33a9:	8b 4d 0c             	mov    0xc(%ebp),%ecx
    33ac:	8b 75 08             	mov    0x8(%ebp),%esi
    33af:	51                   	push   %ecx
    33b0:	8b 5d 10             	mov    0x10(%ebp),%ebx
    33b3:	56                   	push   %esi
    33b4:	68 34 88 02 00       	push   $0x28834
    33b9:	6a 04                	push   $0x4
    33bb:	6a ff                	push   $0xffffffff
    33bd:	e8 7e fd 00 00       	call   13140 <log_msg>
    33c2:	8b 7d 0c             	mov    0xc(%ebp),%edi
    33c5:	83 c4 20             	add    $0x20,%esp
    33c8:	85 ff                	test   %edi,%edi
    33ca:	0f 94 c0             	sete   %al
    33cd:	85 db                	test   %ebx,%ebx
    33cf:	0f 94 c2             	sete   %dl
    33d2:	09 d0                	or     %edx,%eax
    33d4:	8b 55 08             	mov    0x8(%ebp),%edx
    33d7:	85 d2                	test   %edx,%edx
    33d9:	0f 94 c2             	sete   %dl
    33dc:	08 d0                	or     %dl,%al
    33de:	88 45 c7             	mov    %al,-0x39(%ebp)
    33e1:	0f 85 36 01 00 00    	jne    351d <get_driver_info+0x17d>
    33e7:	50                   	push   %eax
    33e8:	8b 45 0c             	mov    0xc(%ebp),%eax
    33eb:	68 4e 87 02 00       	push   $0x2874e
    33f0:	50                   	push   %eax
    33f1:	8b 45 08             	mov    0x8(%ebp),%eax
    33f4:	8d 7b 1c             	lea    0x1c(%ebx),%edi
    33f7:	50                   	push   %eax
    33f8:	e8 93 28 00 00       	call   5c90 <get_abs_path>
    33fd:	83 c4 10             	add    $0x10,%esp
    3400:	89 c6                	mov    %eax,%esi
    3402:	85 c0                	test   %eax,%eax
    3404:	74 10                	je     3416 <get_driver_info+0x76>
    3406:	50                   	push   %eax
    3407:	50                   	push   %eax
    3408:	57                   	push   %edi
    3409:	56                   	push   %esi
    340a:	e8 21 27 00 00       	call   5b30 <read_match_ids>
    340f:	83 c4 10             	add    $0x10,%esp
    3412:	84 c0                	test   %al,%al
    3414:	75 62                	jne    3478 <get_driver_info+0xd8>
    3416:	8b 43 18             	mov    0x18(%ebx),%eax
    3419:	83 ec 0c             	sub    $0xc,%esp
    341c:	50                   	push   %eax
    341d:	e8 6e 50 01 00       	call   18490 <free>
    3422:	8b 53 14             	mov    0x14(%ebx),%edx
    3425:	58                   	pop    %eax
    3426:	52                   	push   %edx
    3427:	e8 64 50 01 00       	call   18490 <free>
    342c:	83 c4 0c             	add    $0xc,%esp
    342f:	6a 3c                	push   $0x3c
    3431:	6a 00                	push   $0x0
    3433:	53                   	push   %ebx
    3434:	e8 67 4c 00 00       	call   80a0 <memset>
    3439:	8d 43 24             	lea    0x24(%ebx),%eax
    343c:	89 7b 1c             	mov    %edi,0x1c(%ebx)
    343f:	89 43 24             	mov    %eax,0x24(%ebx)
    3442:	89 43 28             	mov    %eax,0x28(%ebx)
    3445:	89 7b 20             	mov    %edi,0x20(%ebx)
    3448:	8d 43 2c             	lea    0x2c(%ebx),%eax
    344b:	89 04 24             	mov    %eax,(%esp)
    344e:	e8 9d a1 00 00       	call   d5f0 <fibril_mutex_initialize>
    3453:	c7 43 10 00 00 00 00 	movl   $0x0,0x10(%ebx)
    345a:	83 c4 10             	add    $0x10,%esp
    345d:	83 ec 0c             	sub    $0xc,%esp
    3460:	56                   	push   %esi
    3461:	e8 2a 50 01 00       	call   18490 <free>
    3466:	8a 45 c7             	mov    -0x39(%ebp),%al
    3469:	8d 65 f4             	lea    -0xc(%ebp),%esp
    346c:	5b                   	pop    %ebx
    346d:	5e                   	pop    %esi
    346e:	5f                   	pop    %edi
    346f:	5d                   	pop    %ebp
    3470:	c3                   	ret    
    3471:	8d b4 26 00 00 00 00 	lea    0x0(%esi,%eiz,1),%esi
    3478:	83 ec 0c             	sub    $0xc,%esp
    347b:	88 45 c6             	mov    %al,-0x3a(%ebp)
    347e:	8b 45 0c             	mov    0xc(%ebp),%eax
    3481:	50                   	push   %eax
    3482:	e8 39 55 00 00       	call   89c0 <str_size>
    3487:	8d 48 01             	lea    0x1(%eax),%ecx
    348a:	89 0c 24             	mov    %ecx,(%esp)
    348d:	89 4d c0             	mov    %ecx,-0x40(%ebp)
    3490:	e8 4b 4e 01 00       	call   182e0 <malloc>
    3495:	83 c4 10             	add    $0x10,%esp
    3498:	89 43 14             	mov    %eax,0x14(%ebx)
    349b:	85 c0                	test   %eax,%eax
    349d:	8b 4d c0             	mov    -0x40(%ebp),%ecx
    34a0:	8a 55 c6             	mov    -0x3a(%ebp),%dl
    34a3:	0f 84 6d ff ff ff    	je     3416 <get_driver_info+0x76>
    34a9:	88 55 c0             	mov    %dl,-0x40(%ebp)
    34ac:	52                   	push   %edx
    34ad:	8b 55 0c             	mov    0xc(%ebp),%edx
    34b0:	52                   	push   %edx
    34b1:	51                   	push   %ecx
    34b2:	50                   	push   %eax
    34b3:	e8 c8 64 00 00       	call   9980 <str_cpy>
    34b8:	83 c4 0c             	add    $0xc,%esp
    34bb:	8b 4d 0c             	mov    0xc(%ebp),%ecx
    34be:	8b 45 08             	mov    0x8(%ebp),%eax
    34c1:	68 1b aa 02 00       	push   $0x2aa1b
    34c6:	51                   	push   %ecx
    34c7:	50                   	push   %eax
    34c8:	e8 c3 27 00 00       	call   5c90 <get_abs_path>
    34cd:	83 c4 10             	add    $0x10,%esp
    34d0:	89 43 18             	mov    %eax,0x18(%ebx)
    34d3:	85 c0                	test   %eax,%eax
    34d5:	74 21                	je     34f8 <get_driver_info+0x158>
    34d7:	8d 4d c8             	lea    -0x38(%ebp),%ecx
    34da:	52                   	push   %edx
    34db:	52                   	push   %edx
    34dc:	51                   	push   %ecx
    34dd:	50                   	push   %eax
    34de:	e8 3d f7 01 00       	call   22c20 <stat>
    34e3:	83 c4 10             	add    $0x10,%esp
    34e6:	8a 55 c0             	mov    -0x40(%ebp),%dl
    34e9:	85 c0                	test   %eax,%eax
    34eb:	75 13                	jne    3500 <get_driver_info+0x160>
    34ed:	88 55 c7             	mov    %dl,-0x39(%ebp)
    34f0:	e9 68 ff ff ff       	jmp    345d <get_driver_info+0xbd>
    34f5:	8d 76 00             	lea    0x0(%esi),%esi
    34f8:	31 c0                	xor    %eax,%eax
    34fa:	e9 1a ff ff ff       	jmp    3419 <get_driver_info+0x79>
    34ff:	90                   	nop
    3500:	8b 4b 18             	mov    0x18(%ebx),%ecx
    3503:	51                   	push   %ecx
    3504:	68 94 88 02 00       	push   $0x28894
    3509:	6a 01                	push   $0x1
    350b:	6a ff                	push   $0xffffffff
    350d:	e8 2e fc 00 00       	call   13140 <log_msg>
    3512:	8b 43 18             	mov    0x18(%ebx),%eax
    3515:	83 c4 10             	add    $0x10,%esp
    3518:	e9 fc fe ff ff       	jmp    3419 <get_driver_info+0x79>
    351d:	52                   	push   %edx
    351e:	6a 74                	push   $0x74
    3520:	68 34 87 02 00       	push   $0x28734
    3525:	68 60 88 02 00       	push   $0x28860
    352a:	e8 91 0f 02 00       	call   244c0 <assert_abort>
    352f:	90                   	nop

00003530 <find_best_match_driver>:
    3530:	55                   	push   %ebp
    3531:	89 e5                	mov    %esp,%ebp
    3533:	57                   	push   %edi
    3534:	56                   	push   %esi
    3535:	53                   	push   %ebx
    3536:	83 ec 28             	sub    $0x28,%esp
    3539:	8b 45 08             	mov    0x8(%ebp),%eax
    353c:	8b 75 0c             	mov    0xc(%ebp),%esi
    353f:	83 c0 08             	add    $0x8,%eax
    3542:	50                   	push   %eax
    3543:	89 45 e0             	mov    %eax,-0x20(%ebp)
    3546:	e8 c5 a0 00 00       	call   d610 <fibril_mutex_lock>
    354b:	8b 45 08             	mov    0x8(%ebp),%eax
    354e:	8b 78 04             	mov    0x4(%eax),%edi
    3551:	83 c4 10             	add    $0x10,%esp
    3554:	39 c7                	cmp    %eax,%edi
    3556:	74 4c                	je     35a4 <find_best_match_driver+0x74>
    3558:	89 75 0c             	mov    %esi,0xc(%ebp)
    355b:	31 db                	xor    %ebx,%ebx
    355d:	89 fe                	mov    %edi,%esi
    355f:	c7 45 e4 00 00 00 00 	movl   $0x0,-0x1c(%ebp)
    3566:	8b 7d 0c             	mov    0xc(%ebp),%edi
    3569:	8d b4 26 00 00 00 00 	lea    0x0(%esi,%eiz,1),%esi
    3570:	52                   	push   %edx
    3571:	52                   	push   %edx
    3572:	57                   	push   %edi
    3573:	56                   	push   %esi
    3574:	e8 87 23 00 00       	call   5900 <get_match_score>
    3579:	83 c4 10             	add    $0x10,%esp
    357c:	39 d8                	cmp    %ebx,%eax
    357e:	7e 05                	jle    3585 <find_best_match_driver+0x55>
    3580:	89 c3                	mov    %eax,%ebx
    3582:	89 75 e4             	mov    %esi,-0x1c(%ebp)
    3585:	8b 76 04             	mov    0x4(%esi),%esi
    3588:	3b 75 08             	cmp    0x8(%ebp),%esi
    358b:	75 e3                	jne    3570 <find_best_match_driver+0x40>
    358d:	83 ec 0c             	sub    $0xc,%esp
    3590:	8b 45 e0             	mov    -0x20(%ebp),%eax
    3593:	50                   	push   %eax
    3594:	e8 f7 a1 00 00       	call   d790 <fibril_mutex_unlock>
    3599:	8b 45 e4             	mov    -0x1c(%ebp),%eax
    359c:	8d 65 f4             	lea    -0xc(%ebp),%esp
    359f:	5b                   	pop    %ebx
    35a0:	5e                   	pop    %esi
    35a1:	5f                   	pop    %edi
    35a2:	5d                   	pop    %ebp
    35a3:	c3                   	ret    
    35a4:	c7 45 e4 00 00 00 00 	movl   $0x0,-0x1c(%ebp)
    35ab:	eb e0                	jmp    358d <find_best_match_driver+0x5d>
    35ad:	8d 76 00             	lea    0x0(%esi),%esi

000035b0 <attach_driver>:
    35b0:	55                   	push   %ebp
    35b1:	89 e5                	mov    %esp,%ebp
    35b3:	57                   	push   %edi
    35b4:	56                   	push   %esi
    35b5:	53                   	push   %ebx
    35b6:	83 ec 28             	sub    $0x28,%esp
    35b9:	8b 5d 10             	mov    0x10(%ebp),%ebx
    35bc:	8b 75 0c             	mov    0xc(%ebp),%esi
    35bf:	8b 7d 08             	mov    0x8(%ebp),%edi
    35c2:	8b 43 14             	mov    0x14(%ebx),%eax
    35c5:	83 c7 08             	add    $0x8,%edi
    35c8:	50                   	push   %eax
    35c9:	8b 46 08             	mov    0x8(%esi),%eax
    35cc:	8b 50 24             	mov    0x24(%eax),%edx
    35cf:	52                   	push   %edx
    35d0:	68 b4 88 02 00       	push   $0x288b4
    35d5:	6a 04                	push   $0x4
    35d7:	6a ff                	push   $0xffffffff
    35d9:	e8 62 fb 00 00       	call   13140 <log_msg>
    35de:	83 c4 14             	add    $0x14,%esp
    35e1:	8d 43 2c             	lea    0x2c(%ebx),%eax
    35e4:	50                   	push   %eax
    35e5:	89 45 e4             	mov    %eax,-0x1c(%ebp)
    35e8:	e8 23 a0 00 00       	call   d610 <fibril_mutex_lock>
    35ed:	89 3c 24             	mov    %edi,(%esp)
    35f0:	e8 fb a4 00 00       	call   daf0 <fibril_rwlock_write_lock>
    35f5:	8d 4b 24             	lea    0x24(%ebx),%ecx
    35f8:	89 4e 20             	mov    %ecx,0x20(%esi)
    35fb:	8b 4b 24             	mov    0x24(%ebx),%ecx
    35fe:	89 4e 1c             	mov    %ecx,0x1c(%esi)
    3601:	8d 56 1c             	lea    0x1c(%esi),%edx
    3604:	8b 4b 24             	mov    0x24(%ebx),%ecx
    3607:	89 5e 14             	mov    %ebx,0x14(%esi)
    360a:	89 51 04             	mov    %edx,0x4(%ecx)
    360d:	89 53 24             	mov    %edx,0x24(%ebx)
    3610:	89 3c 24             	mov    %edi,(%esp)
    3613:	e8 58 a6 00 00       	call   dc70 <fibril_rwlock_write_unlock>
    3618:	8b 45 e4             	mov    -0x1c(%ebp),%eax
    361b:	83 c4 10             	add    $0x10,%esp
    361e:	89 45 08             	mov    %eax,0x8(%ebp)
    3621:	8d 65 f4             	lea    -0xc(%ebp),%esp
    3624:	5b                   	pop    %ebx
    3625:	5e                   	pop    %esi
    3626:	5f                   	pop    %edi
    3627:	5d                   	pop    %ebp
    3628:	e9 63 a1 00 00       	jmp    d790 <fibril_mutex_unlock>
    362d:	8d 76 00             	lea    0x0(%esi),%esi

00003630 <detach_driver>:
    3630:	55                   	push   %ebp
    3631:	89 e5                	mov    %esp,%ebp
    3633:	57                   	push   %edi
    3634:	56                   	push   %esi
    3635:	53                   	push   %ebx
    3636:	83 ec 0c             	sub    $0xc,%esp
    3639:	8b 5d 0c             	mov    0xc(%ebp),%ebx
    363c:	8b 7d 08             	mov    0x8(%ebp),%edi
    363f:	8b 73 14             	mov    0x14(%ebx),%esi
    3642:	85 f6                	test   %esi,%esi
    3644:	74 7c                	je     36c2 <detach_driver+0x92>
    3646:	83 ec 0c             	sub    $0xc,%esp
    3649:	8b 46 14             	mov    0x14(%esi),%eax
    364c:	83 c6 2c             	add    $0x2c,%esi
    364f:	83 c7 08             	add    $0x8,%edi
    3652:	50                   	push   %eax
    3653:	8b 43 08             	mov    0x8(%ebx),%eax
    3656:	8b 50 24             	mov    0x24(%eax),%edx
    3659:	52                   	push   %edx
    365a:	68 d8 88 02 00       	push   $0x288d8
    365f:	6a 04                	push   $0x4
    3661:	6a ff                	push   $0xffffffff
    3663:	e8 d8 fa 00 00       	call   13140 <log_msg>
    3668:	83 c4 14             	add    $0x14,%esp
    366b:	56                   	push   %esi
    366c:	e8 9f 9f 00 00       	call   d610 <fibril_mutex_lock>
    3671:	89 3c 24             	mov    %edi,(%esp)
    3674:	e8 77 a4 00 00       	call   daf0 <fibril_rwlock_write_lock>
    3679:	8b 53 1c             	mov    0x1c(%ebx),%edx
    367c:	83 c4 10             	add    $0x10,%esp
    367f:	c7 43 14 00 00 00 00 	movl   $0x0,0x14(%ebx)
    3686:	85 d2                	test   %edx,%edx
    3688:	74 0f                	je     3699 <detach_driver+0x69>
    368a:	8b 43 20             	mov    0x20(%ebx),%eax
    368d:	85 c0                	test   %eax,%eax
    368f:	74 08                	je     3699 <detach_driver+0x69>
    3691:	89 10                	mov    %edx,(%eax)
    3693:	8b 53 1c             	mov    0x1c(%ebx),%edx
    3696:	89 42 04             	mov    %eax,0x4(%edx)
    3699:	83 ec 0c             	sub    $0xc,%esp
    369c:	c7 43 1c 00 00 00 00 	movl   $0x0,0x1c(%ebx)
    36a3:	c7 43 20 00 00 00 00 	movl   $0x0,0x20(%ebx)
    36aa:	57                   	push   %edi
    36ab:	e8 c0 a5 00 00       	call   dc70 <fibril_rwlock_write_unlock>
    36b0:	89 75 08             	mov    %esi,0x8(%ebp)
    36b3:	83 c4 10             	add    $0x10,%esp
    36b6:	8d 65 f4             	lea    -0xc(%ebp),%esp
    36b9:	5b                   	pop    %ebx
    36ba:	5e                   	pop    %esi
    36bb:	5f                   	pop    %edi
    36bc:	5d                   	pop    %ebp
    36bd:	e9 ce a0 00 00       	jmp    d790 <fibril_mutex_unlock>
    36c2:	51                   	push   %ecx
    36c3:	68 07 01 00 00       	push   $0x107
    36c8:	68 34 87 02 00       	push   $0x28734
    36cd:	68 52 87 02 00       	push   $0x28752
    36d2:	e8 e9 0d 02 00       	call   244c0 <assert_abort>
    36d7:	89 f6                	mov    %esi,%esi
    36d9:	8d bc 27 00 00 00 00 	lea    0x0(%edi,%eiz,1),%edi

000036e0 <start_driver>:
    36e0:	55                   	push   %ebp
    36e1:	89 e5                	mov    %esp,%ebp
    36e3:	56                   	push   %esi
    36e4:	53                   	push   %ebx
    36e5:	8b 5d 08             	mov    0x8(%ebp),%ebx
    36e8:	83 ec 0c             	sub    $0xc,%esp
    36eb:	8d 43 2c             	lea    0x2c(%ebx),%eax
    36ee:	50                   	push   %eax
    36ef:	e8 4c a2 00 00       	call   d940 <fibril_mutex_is_locked>
    36f4:	83 c4 10             	add    $0x10,%esp
    36f7:	89 c6                	mov    %eax,%esi
    36f9:	84 c0                	test   %al,%al
    36fb:	74 73                	je     3770 <start_driver+0x90>
    36fd:	8b 43 14             	mov    0x14(%ebx),%eax
    3700:	50                   	push   %eax
    3701:	68 5e 87 02 00       	push   $0x2875e
    3706:	6a 04                	push   $0x4
    3708:	6a ff                	push   $0xffffffff
    370a:	e8 31 fa 00 00       	call   13140 <log_msg>
    370f:	8b 43 18             	mov    0x18(%ebx),%eax
    3712:	c7 04 24 00 00 00 00 	movl   $0x0,(%esp)
    3719:	50                   	push   %eax
    371a:	50                   	push   %eax
    371b:	6a 00                	push   $0x0
    371d:	6a 00                	push   $0x0
    371f:	e8 ec c4 00 00       	call   fc10 <task_spawnl>
    3724:	83 c4 20             	add    $0x20,%esp
    3727:	85 c0                	test   %eax,%eax
    3729:	75 15                	jne    3740 <start_driver+0x60>
    372b:	c7 43 0c 01 00 00 00 	movl   $0x1,0xc(%ebx)
    3732:	8d 65 f8             	lea    -0x8(%ebp),%esp
    3735:	89 f0                	mov    %esi,%eax
    3737:	5b                   	pop    %ebx
    3738:	5e                   	pop    %esi
    3739:	5d                   	pop    %ebp
    373a:	c3                   	ret    
    373b:	90                   	nop
    373c:	8d 74 26 00          	lea    0x0(%esi,%eiz,1),%esi
    3740:	83 ec 0c             	sub    $0xc,%esp
    3743:	50                   	push   %eax
    3744:	e8 37 91 00 00       	call   c880 <str_error>
    3749:	5a                   	pop    %edx
    374a:	59                   	pop    %ecx
    374b:	50                   	push   %eax
    374c:	8b 73 18             	mov    0x18(%ebx),%esi
    374f:	56                   	push   %esi
    3750:	31 f6                	xor    %esi,%esi
    3752:	8b 43 14             	mov    0x14(%ebx),%eax
    3755:	50                   	push   %eax
    3756:	68 28 89 02 00       	push   $0x28928
    375b:	6a 01                	push   $0x1
    375d:	6a ff                	push   $0xffffffff
    375f:	e8 dc f9 00 00       	call   13140 <log_msg>
    3764:	83 c4 20             	add    $0x20,%esp
    3767:	8d 65 f8             	lea    -0x8(%ebp),%esp
    376a:	89 f0                	mov    %esi,%eax
    376c:	5b                   	pop    %ebx
    376d:	5e                   	pop    %esi
    376e:	5d                   	pop    %ebp
    376f:	c3                   	ret    
    3770:	50                   	push   %eax
    3771:	68 20 01 00 00       	push   $0x120
    3776:	68 34 87 02 00       	push   $0x28734
    377b:	68 fc 88 02 00       	push   $0x288fc
    3780:	e8 3b 0d 02 00       	call   244c0 <assert_abort>
    3785:	8d 74 26 00          	lea    0x0(%esi,%eiz,1),%esi
    3789:	8d bc 27 00 00 00 00 	lea    0x0(%edi,%eiz,1),%edi

00003790 <driver_find>:
    3790:	55                   	push   %ebp
    3791:	89 e5                	mov    %esp,%ebp
    3793:	57                   	push   %edi
    3794:	56                   	push   %esi
    3795:	53                   	push   %ebx
    3796:	83 ec 18             	sub    $0x18,%esp
    3799:	8b 75 08             	mov    0x8(%ebp),%esi
    379c:	8b 5d 0c             	mov    0xc(%ebp),%ebx
    379f:	8d 7e 08             	lea    0x8(%esi),%edi
    37a2:	57                   	push   %edi
    37a3:	e8 68 9e 00 00       	call   d610 <fibril_mutex_lock>
    37a8:	8b 46 04             	mov    0x4(%esi),%eax
    37ab:	83 c4 10             	add    $0x10,%esp
    37ae:	39 f0                	cmp    %esi,%eax
    37b0:	74 1a                	je     37cc <driver_find+0x3c>
    37b2:	3b 58 08             	cmp    0x8(%eax),%ebx
    37b5:	75 0e                	jne    37c5 <driver_find+0x35>
    37b7:	eb 2f                	jmp    37e8 <driver_find+0x58>
    37b9:	8d b4 26 00 00 00 00 	lea    0x0(%esi,%eiz,1),%esi
    37c0:	39 58 08             	cmp    %ebx,0x8(%eax)
    37c3:	74 23                	je     37e8 <driver_find+0x58>
    37c5:	8b 40 04             	mov    0x4(%eax),%eax
    37c8:	39 f0                	cmp    %esi,%eax
    37ca:	75 f4                	jne    37c0 <driver_find+0x30>
    37cc:	31 db                	xor    %ebx,%ebx
    37ce:	83 ec 0c             	sub    $0xc,%esp
    37d1:	57                   	push   %edi
    37d2:	e8 b9 9f 00 00       	call   d790 <fibril_mutex_unlock>
    37d7:	8d 65 f4             	lea    -0xc(%ebp),%esp
    37da:	89 d8                	mov    %ebx,%eax
    37dc:	5b                   	pop    %ebx
    37dd:	5e                   	pop    %esi
    37de:	5f                   	pop    %edi
    37df:	5d                   	pop    %ebp
    37e0:	c3                   	ret    
    37e1:	8d b4 26 00 00 00 00 	lea    0x0(%esi,%eiz,1),%esi
    37e8:	89 c3                	mov    %eax,%ebx
    37ea:	eb e2                	jmp    37ce <driver_find+0x3e>
    37ec:	8d 74 26 00          	lea    0x0(%esi,%eiz,1),%esi

000037f0 <driver_find_by_name>:
    37f0:	55                   	push   %ebp
    37f1:	89 e5                	mov    %esp,%ebp
    37f3:	57                   	push   %edi
    37f4:	56                   	push   %esi
    37f5:	53                   	push   %ebx
    37f6:	83 ec 28             	sub    $0x28,%esp
    37f9:	8b 75 08             	mov    0x8(%ebp),%esi
    37fc:	8b 5d 0c             	mov    0xc(%ebp),%ebx
    37ff:	8d 46 08             	lea    0x8(%esi),%eax
    3802:	50                   	push   %eax
    3803:	89 45 e4             	mov    %eax,-0x1c(%ebp)
    3806:	e8 05 9e 00 00       	call   d610 <fibril_mutex_lock>
    380b:	8b 7e 04             	mov    0x4(%esi),%edi
    380e:	83 c4 10             	add    $0x10,%esp
    3811:	39 f7                	cmp    %esi,%edi
    3813:	75 0a                	jne    381f <driver_find_by_name+0x2f>
    3815:	eb 39                	jmp    3850 <driver_find_by_name+0x60>
    3817:	90                   	nop
    3818:	8b 7f 04             	mov    0x4(%edi),%edi
    381b:	39 f7                	cmp    %esi,%edi
    381d:	74 31                	je     3850 <driver_find_by_name+0x60>
    381f:	52                   	push   %edx
    3820:	52                   	push   %edx
    3821:	53                   	push   %ebx
    3822:	8b 4f 14             	mov    0x14(%edi),%ecx
    3825:	51                   	push   %ecx
    3826:	e8 75 56 00 00       	call   8ea0 <str_cmp>
    382b:	83 c4 10             	add    $0x10,%esp
    382e:	85 c0                	test   %eax,%eax
    3830:	75 e6                	jne    3818 <driver_find_by_name+0x28>
    3832:	89 fa                	mov    %edi,%edx
    3834:	83 ec 0c             	sub    $0xc,%esp
    3837:	8b 45 e4             	mov    -0x1c(%ebp),%eax
    383a:	89 55 e0             	mov    %edx,-0x20(%ebp)
    383d:	50                   	push   %eax
    383e:	e8 4d 9f 00 00       	call   d790 <fibril_mutex_unlock>
    3843:	8b 55 e0             	mov    -0x20(%ebp),%edx
    3846:	8d 65 f4             	lea    -0xc(%ebp),%esp
    3849:	89 d0                	mov    %edx,%eax
    384b:	5b                   	pop    %ebx
    384c:	5e                   	pop    %esi
    384d:	5f                   	pop    %edi
    384e:	5d                   	pop    %ebp
    384f:	c3                   	ret    
    3850:	31 d2                	xor    %edx,%edx
    3852:	eb e0                	jmp    3834 <driver_find_by_name+0x44>
    3854:	8d b6 00 00 00 00    	lea    0x0(%esi),%esi
    385a:	8d bf 00 00 00 00    	lea    0x0(%edi),%edi

00003860 <init_driver>:
    3860:	55                   	push   %ebp
    3861:	89 e5                	mov    %esp,%ebp
    3863:	53                   	push   %ebx
    3864:	51                   	push   %ecx
    3865:	8b 5d 08             	mov    0x8(%ebp),%ebx
    3868:	85 db                	test   %ebx,%ebx
    386a:	74 37                	je     38a3 <init_driver+0x43>
    386c:	50                   	push   %eax
    386d:	6a 3c                	push   $0x3c
    386f:	6a 00                	push   $0x0
    3871:	53                   	push   %ebx
    3872:	e8 29 48 00 00       	call   80a0 <memset>
    3877:	8d 43 1c             	lea    0x1c(%ebx),%eax
    387a:	89 43 1c             	mov    %eax,0x1c(%ebx)
    387d:	89 43 20             	mov    %eax,0x20(%ebx)
    3880:	8d 43 24             	lea    0x24(%ebx),%eax
    3883:	89 43 24             	mov    %eax,0x24(%ebx)
    3886:	89 43 28             	mov    %eax,0x28(%ebx)
    3889:	8d 43 2c             	lea    0x2c(%ebx),%eax
    388c:	89 04 24             	mov    %eax,(%esp)
    388f:	e8 5c 9d 00 00       	call   d5f0 <fibril_mutex_initialize>
    3894:	c7 43 10 00 00 00 00 	movl   $0x0,0x10(%ebx)
    389b:	83 c4 10             	add    $0x10,%esp
    389e:	8b 5d fc             	mov    -0x4(%ebp),%ebx
    38a1:	c9                   	leave  
    38a2:	c3                   	ret    
    38a3:	52                   	push   %edx
    38a4:	68 c4 01 00 00       	push   $0x1c4
    38a9:	68 34 87 02 00       	push   $0x28734
    38ae:	68 52 87 02 00       	push   $0x28752
    38b3:	e8 08 0c 02 00       	call   244c0 <assert_abort>
    38b8:	90                   	nop
    38b9:	8d b4 26 00 00 00 00 	lea    0x0(%esi,%eiz,1),%esi

000038c0 <clean_driver>:
    38c0:	55                   	push   %ebp
    38c1:	89 e5                	mov    %esp,%ebp
    38c3:	57                   	push   %edi
    38c4:	56                   	push   %esi
    38c5:	53                   	push   %ebx
    38c6:	83 ec 0c             	sub    $0xc,%esp
    38c9:	8b 75 08             	mov    0x8(%ebp),%esi
    38cc:	85 f6                	test   %esi,%esi
    38ce:	0f 84 9f 00 00 00    	je     3973 <clean_driver+0xb3>
    38d4:	83 ec 0c             	sub    $0xc,%esp
    38d7:	8b 56 14             	mov    0x14(%esi),%edx
    38da:	8d 7e 1c             	lea    0x1c(%esi),%edi
    38dd:	52                   	push   %edx
    38de:	e8 ad 4b 01 00       	call   18490 <free>
    38e3:	8b 5e 18             	mov    0x18(%esi),%ebx
    38e6:	59                   	pop    %ecx
    38e7:	53                   	push   %ebx
    38e8:	e8 a3 4b 01 00       	call   18490 <free>
    38ed:	8b 5e 20             	mov    0x20(%esi),%ebx
    38f0:	83 c4 10             	add    $0x10,%esp
    38f3:	39 fb                	cmp    %edi,%ebx
    38f5:	74 48                	je     393f <clean_driver+0x7f>
    38f7:	90                   	nop
    38f8:	8b 13                	mov    (%ebx),%edx
    38fa:	85 d2                	test   %edx,%edx
    38fc:	74 0e                	je     390c <clean_driver+0x4c>
    38fe:	8b 43 04             	mov    0x4(%ebx),%eax
    3901:	85 c0                	test   %eax,%eax
    3903:	74 07                	je     390c <clean_driver+0x4c>
    3905:	89 10                	mov    %edx,(%eax)
    3907:	8b 13                	mov    (%ebx),%edx
    3909:	89 42 04             	mov    %eax,0x4(%edx)
    390c:	8b 43 08             	mov    0x8(%ebx),%eax
    390f:	c7 03 00 00 00 00    	movl   $0x0,(%ebx)
    3915:	c7 43 04 00 00 00 00 	movl   $0x0,0x4(%ebx)
    391c:	85 c0                	test   %eax,%eax
    391e:	74 0c                	je     392c <clean_driver+0x6c>
    3920:	83 ec 0c             	sub    $0xc,%esp
    3923:	50                   	push   %eax
    3924:	e8 67 4b 01 00       	call   18490 <free>
    3929:	83 c4 10             	add    $0x10,%esp
    392c:	83 ec 0c             	sub    $0xc,%esp
    392f:	53                   	push   %ebx
    3930:	e8 5b 4b 01 00       	call   18490 <free>
    3935:	8b 5e 20             	mov    0x20(%esi),%ebx
    3938:	83 c4 10             	add    $0x10,%esp
    393b:	39 fb                	cmp    %edi,%ebx
    393d:	75 b9                	jne    38f8 <clean_driver+0x38>
    393f:	50                   	push   %eax
    3940:	6a 3c                	push   $0x3c
    3942:	6a 00                	push   $0x0
    3944:	56                   	push   %esi
    3945:	e8 56 47 00 00       	call   80a0 <memset>
    394a:	8d 46 24             	lea    0x24(%esi),%eax
    394d:	89 7e 1c             	mov    %edi,0x1c(%esi)
    3950:	89 7e 20             	mov    %edi,0x20(%esi)
    3953:	89 46 24             	mov    %eax,0x24(%esi)
    3956:	89 46 28             	mov    %eax,0x28(%esi)
    3959:	8d 46 2c             	lea    0x2c(%esi),%eax
    395c:	89 04 24             	mov    %eax,(%esp)
    395f:	e8 8c 9c 00 00       	call   d5f0 <fibril_mutex_initialize>
    3964:	c7 46 10 00 00 00 00 	movl   $0x0,0x10(%esi)
    396b:	8d 65 f4             	lea    -0xc(%ebp),%esp
    396e:	5b                   	pop    %ebx
    396f:	5e                   	pop    %esi
    3970:	5f                   	pop    %edi
    3971:	5d                   	pop    %ebp
    3972:	c3                   	ret    
    3973:	56                   	push   %esi
    3974:	68 d3 01 00 00       	push   $0x1d3
    3979:	68 34 87 02 00       	push   $0x28734
    397e:	68 52 87 02 00       	push   $0x28752
    3983:	e8 38 0b 02 00       	call   244c0 <assert_abort>
    3988:	90                   	nop
    3989:	8d b4 26 00 00 00 00 	lea    0x0(%esi,%eiz,1),%esi

00003990 <lookup_available_drivers>:
    3990:	55                   	push   %ebp
    3991:	89 e5                	mov    %esp,%ebp
    3993:	57                   	push   %edi
    3994:	56                   	push   %esi
    3995:	53                   	push   %ebx
    3996:	83 ec 4c             	sub    $0x4c,%esp
    3999:	8b 4d 0c             	mov    0xc(%ebp),%ecx
    399c:	8b 75 08             	mov    0x8(%ebp),%esi
    399f:	51                   	push   %ecx
    39a0:	68 50 89 02 00       	push   $0x28950
    39a5:	6a 04                	push   $0x4
    39a7:	6a ff                	push   $0xffffffff
    39a9:	e8 92 f7 00 00       	call   13140 <log_msg>
    39ae:	8b 7d 0c             	mov    0xc(%ebp),%edi
    39b1:	5b                   	pop    %ebx
    39b2:	57                   	push   %edi
    39b3:	e8 f8 f3 01 00       	call   22db0 <opendir>
    39b8:	83 c4 10             	add    $0x10,%esp
    39bb:	89 45 c0             	mov    %eax,-0x40(%ebp)
    39be:	85 c0                	test   %eax,%eax
    39c0:	0f 84 8a 02 00 00    	je     3c50 <lookup_available_drivers+0x2c0>
    39c6:	83 ec 0c             	sub    $0xc,%esp
    39c9:	6a 3c                	push   $0x3c
    39cb:	e8 10 49 01 00       	call   182e0 <malloc>
    39d0:	83 c4 10             	add    $0x10,%esp
    39d3:	89 c7                	mov    %eax,%edi
    39d5:	85 c0                	test   %eax,%eax
    39d7:	74 32                	je     3a0b <lookup_available_drivers+0x7b>
    39d9:	52                   	push   %edx
    39da:	6a 3c                	push   $0x3c
    39dc:	6a 00                	push   $0x0
    39de:	50                   	push   %eax
    39df:	e8 bc 46 00 00       	call   80a0 <memset>
    39e4:	8d 47 1c             	lea    0x1c(%edi),%eax
    39e7:	89 47 1c             	mov    %eax,0x1c(%edi)
    39ea:	89 47 20             	mov    %eax,0x20(%edi)
    39ed:	8d 47 24             	lea    0x24(%edi),%eax
    39f0:	89 47 24             	mov    %eax,0x24(%edi)
    39f3:	89 47 28             	mov    %eax,0x28(%edi)
    39f6:	8d 47 2c             	lea    0x2c(%edi),%eax
    39f9:	89 04 24             	mov    %eax,(%esp)
    39fc:	e8 ef 9b 00 00       	call   d5f0 <fibril_mutex_initialize>
    3a01:	c7 47 10 00 00 00 00 	movl   $0x0,0x10(%edi)
    3a08:	83 c4 10             	add    $0x10,%esp
    3a0b:	c7 45 b4 00 00 00 00 	movl   $0x0,-0x4c(%ebp)
    3a12:	8b 45 0c             	mov    0xc(%ebp),%eax
    3a15:	89 75 08             	mov    %esi,0x8(%ebp)
    3a18:	85 c0                	test   %eax,%eax
    3a1a:	0f 94 c2             	sete   %dl
    3a1d:	85 ff                	test   %edi,%edi
    3a1f:	0f 94 c0             	sete   %al
    3a22:	09 c2                	or     %eax,%edx
    3a24:	8d 47 1c             	lea    0x1c(%edi),%eax
    3a27:	88 55 bf             	mov    %dl,-0x41(%ebp)
    3a2a:	89 45 c4             	mov    %eax,-0x3c(%ebp)
    3a2d:	eb 53                	jmp    3a82 <lookup_available_drivers+0xf2>
    3a2f:	90                   	nop
    3a30:	8b 47 18             	mov    0x18(%edi),%eax
    3a33:	83 ec 0c             	sub    $0xc,%esp
    3a36:	50                   	push   %eax
    3a37:	e8 54 4a 01 00       	call   18490 <free>
    3a3c:	8b 4f 14             	mov    0x14(%edi),%ecx
    3a3f:	5a                   	pop    %edx
    3a40:	51                   	push   %ecx
    3a41:	e8 4a 4a 01 00       	call   18490 <free>
    3a46:	83 c4 0c             	add    $0xc,%esp
    3a49:	6a 3c                	push   $0x3c
    3a4b:	6a 00                	push   $0x0
    3a4d:	57                   	push   %edi
    3a4e:	e8 4d 46 00 00       	call   80a0 <memset>
    3a53:	8b 45 c4             	mov    -0x3c(%ebp),%eax
    3a56:	89 47 1c             	mov    %eax,0x1c(%edi)
    3a59:	89 47 20             	mov    %eax,0x20(%edi)
    3a5c:	8d 47 24             	lea    0x24(%edi),%eax
    3a5f:	89 47 24             	mov    %eax,0x24(%edi)
    3a62:	89 47 28             	mov    %eax,0x28(%edi)
    3a65:	8d 47 2c             	lea    0x2c(%edi),%eax
    3a68:	89 04 24             	mov    %eax,(%esp)
    3a6b:	e8 80 9b 00 00       	call   d5f0 <fibril_mutex_initialize>
    3a70:	c7 47 10 00 00 00 00 	movl   $0x0,0x10(%edi)
    3a77:	89 34 24             	mov    %esi,(%esp)
    3a7a:	e8 11 4a 01 00       	call   18490 <free>
    3a7f:	83 c4 10             	add    $0x10,%esp
    3a82:	83 ec 0c             	sub    $0xc,%esp
    3a85:	8b 45 c0             	mov    -0x40(%ebp),%eax
    3a88:	50                   	push   %eax
    3a89:	e8 c2 f4 01 00       	call   22f50 <readdir>
    3a8e:	83 c4 10             	add    $0x10,%esp
    3a91:	89 c3                	mov    %eax,%ebx
    3a93:	85 c0                	test   %eax,%eax
    3a95:	0f 84 5d 01 00 00    	je     3bf8 <lookup_available_drivers+0x268>
    3a9b:	83 ec 0c             	sub    $0xc,%esp
    3a9e:	8b 45 0c             	mov    0xc(%ebp),%eax
    3aa1:	53                   	push   %ebx
    3aa2:	50                   	push   %eax
    3aa3:	68 34 88 02 00       	push   $0x28834
    3aa8:	6a 04                	push   $0x4
    3aaa:	6a ff                	push   $0xffffffff
    3aac:	e8 8f f6 00 00       	call   13140 <log_msg>
    3ab1:	83 c4 20             	add    $0x20,%esp
    3ab4:	80 7d bf 00          	cmpb   $0x0,-0x41(%ebp)
    3ab8:	0f 85 a4 01 00 00    	jne    3c62 <lookup_available_drivers+0x2d2>
    3abe:	50                   	push   %eax
    3abf:	8b 45 0c             	mov    0xc(%ebp),%eax
    3ac2:	68 4e 87 02 00       	push   $0x2874e
    3ac7:	53                   	push   %ebx
    3ac8:	50                   	push   %eax
    3ac9:	e8 c2 21 00 00       	call   5c90 <get_abs_path>
    3ace:	83 c4 10             	add    $0x10,%esp
    3ad1:	89 c6                	mov    %eax,%esi
    3ad3:	85 c0                	test   %eax,%eax
    3ad5:	0f 84 55 ff ff ff    	je     3a30 <lookup_available_drivers+0xa0>
    3adb:	50                   	push   %eax
    3adc:	50                   	push   %eax
    3add:	8b 45 c4             	mov    -0x3c(%ebp),%eax
    3ae0:	50                   	push   %eax
    3ae1:	56                   	push   %esi
    3ae2:	e8 49 20 00 00       	call   5b30 <read_match_ids>
    3ae7:	83 c4 10             	add    $0x10,%esp
    3aea:	84 c0                	test   %al,%al
    3aec:	0f 84 3e ff ff ff    	je     3a30 <lookup_available_drivers+0xa0>
    3af2:	83 ec 0c             	sub    $0xc,%esp
    3af5:	53                   	push   %ebx
    3af6:	e8 c5 4e 00 00       	call   89c0 <str_size>
    3afb:	8d 50 01             	lea    0x1(%eax),%edx
    3afe:	89 14 24             	mov    %edx,(%esp)
    3b01:	89 55 b8             	mov    %edx,-0x48(%ebp)
    3b04:	e8 d7 47 01 00       	call   182e0 <malloc>
    3b09:	83 c4 10             	add    $0x10,%esp
    3b0c:	89 47 14             	mov    %eax,0x14(%edi)
    3b0f:	85 c0                	test   %eax,%eax
    3b11:	8b 55 b8             	mov    -0x48(%ebp),%edx
    3b14:	0f 84 16 ff ff ff    	je     3a30 <lookup_available_drivers+0xa0>
    3b1a:	51                   	push   %ecx
    3b1b:	53                   	push   %ebx
    3b1c:	52                   	push   %edx
    3b1d:	50                   	push   %eax
    3b1e:	e8 5d 5e 00 00       	call   9980 <str_cpy>
    3b23:	83 c4 0c             	add    $0xc,%esp
    3b26:	68 1b aa 02 00       	push   $0x2aa1b
    3b2b:	53                   	push   %ebx
    3b2c:	8b 5d 0c             	mov    0xc(%ebp),%ebx
    3b2f:	53                   	push   %ebx
    3b30:	e8 5b 21 00 00       	call   5c90 <get_abs_path>
    3b35:	83 c4 10             	add    $0x10,%esp
    3b38:	89 47 18             	mov    %eax,0x18(%edi)
    3b3b:	85 c0                	test   %eax,%eax
    3b3d:	0f 84 e5 00 00 00    	je     3c28 <lookup_available_drivers+0x298>
    3b43:	8d 4d c8             	lea    -0x38(%ebp),%ecx
    3b46:	52                   	push   %edx
    3b47:	52                   	push   %edx
    3b48:	51                   	push   %ecx
    3b49:	50                   	push   %eax
    3b4a:	e8 d1 f0 01 00       	call   22c20 <stat>
    3b4f:	83 c4 10             	add    $0x10,%esp
    3b52:	85 c0                	test   %eax,%eax
    3b54:	0f 85 d6 00 00 00    	jne    3c30 <lookup_available_drivers+0x2a0>
    3b5a:	83 ec 0c             	sub    $0xc,%esp
    3b5d:	89 f2                	mov    %esi,%edx
    3b5f:	8b 75 08             	mov    0x8(%ebp),%esi
    3b62:	52                   	push   %edx
    3b63:	e8 28 49 01 00       	call   18490 <free>
    3b68:	8d 5e 08             	lea    0x8(%esi),%ebx
    3b6b:	89 1c 24             	mov    %ebx,(%esp)
    3b6e:	e8 9d 9a 00 00       	call   d610 <fibril_mutex_lock>
    3b73:	8b 06                	mov    (%esi),%eax
    3b75:	89 77 04             	mov    %esi,0x4(%edi)
    3b78:	89 07                	mov    %eax,(%edi)
    3b7a:	89 78 04             	mov    %edi,0x4(%eax)
    3b7d:	8b 46 18             	mov    0x18(%esi),%eax
    3b80:	89 47 08             	mov    %eax,0x8(%edi)
    3b83:	89 3e                	mov    %edi,(%esi)
    3b85:	8d 50 01             	lea    0x1(%eax),%edx
    3b88:	89 56 18             	mov    %edx,0x18(%esi)
    3b8b:	89 1c 24             	mov    %ebx,(%esp)
    3b8e:	e8 fd 9b 00 00       	call   d790 <fibril_mutex_unlock>
    3b93:	8b 47 14             	mov    0x14(%edi),%eax
    3b96:	50                   	push   %eax
    3b97:	68 fc 87 02 00       	push   $0x287fc
    3b9c:	6a 04                	push   $0x4
    3b9e:	6a ff                	push   $0xffffffff
    3ba0:	e8 9b f5 00 00       	call   13140 <log_msg>
    3ba5:	83 c4 14             	add    $0x14,%esp
    3ba8:	6a 3c                	push   $0x3c
    3baa:	e8 31 47 01 00       	call   182e0 <malloc>
    3baf:	83 c4 10             	add    $0x10,%esp
    3bb2:	89 c7                	mov    %eax,%edi
    3bb4:	85 c0                	test   %eax,%eax
    3bb6:	74 32                	je     3bea <lookup_available_drivers+0x25a>
    3bb8:	50                   	push   %eax
    3bb9:	6a 3c                	push   $0x3c
    3bbb:	6a 00                	push   $0x0
    3bbd:	57                   	push   %edi
    3bbe:	e8 dd 44 00 00       	call   80a0 <memset>
    3bc3:	8d 47 1c             	lea    0x1c(%edi),%eax
    3bc6:	89 47 1c             	mov    %eax,0x1c(%edi)
    3bc9:	89 47 20             	mov    %eax,0x20(%edi)
    3bcc:	8d 47 24             	lea    0x24(%edi),%eax
    3bcf:	89 47 24             	mov    %eax,0x24(%edi)
    3bd2:	89 47 28             	mov    %eax,0x28(%edi)
    3bd5:	8d 47 2c             	lea    0x2c(%edi),%eax
    3bd8:	89 04 24             	mov    %eax,(%esp)
    3bdb:	e8 10 9a 00 00       	call   d5f0 <fibril_mutex_initialize>
    3be0:	c7 47 10 00 00 00 00 	movl   $0x0,0x10(%edi)
    3be7:	83 c4 10             	add    $0x10,%esp
    3bea:	8b 45 b4             	mov    -0x4c(%ebp),%eax
    3bed:	40                   	inc    %eax
    3bee:	89 45 b4             	mov    %eax,-0x4c(%ebp)
    3bf1:	e9 1c fe ff ff       	jmp    3a12 <lookup_available_drivers+0x82>
    3bf6:	66 90                	xchg   %ax,%ax
    3bf8:	85 ff                	test   %edi,%edi
    3bfa:	74 78                	je     3c74 <lookup_available_drivers+0x2e4>
    3bfc:	83 ec 0c             	sub    $0xc,%esp
    3bff:	57                   	push   %edi
    3c00:	e8 bb fc ff ff       	call   38c0 <clean_driver>
    3c05:	89 3c 24             	mov    %edi,(%esp)
    3c08:	e8 83 48 01 00       	call   18490 <free>
    3c0d:	8b 75 c0             	mov    -0x40(%ebp),%esi
    3c10:	5b                   	pop    %ebx
    3c11:	56                   	push   %esi
    3c12:	e8 f9 f4 01 00       	call   23110 <closedir>
    3c17:	8b 45 b4             	mov    -0x4c(%ebp),%eax
    3c1a:	83 c4 10             	add    $0x10,%esp
    3c1d:	8d 65 f4             	lea    -0xc(%ebp),%esp
    3c20:	5b                   	pop    %ebx
    3c21:	5e                   	pop    %esi
    3c22:	5f                   	pop    %edi
    3c23:	5d                   	pop    %ebp
    3c24:	c3                   	ret    
    3c25:	8d 76 00             	lea    0x0(%esi),%esi
    3c28:	31 c0                	xor    %eax,%eax
    3c2a:	e9 04 fe ff ff       	jmp    3a33 <lookup_available_drivers+0xa3>
    3c2f:	90                   	nop
    3c30:	8b 47 18             	mov    0x18(%edi),%eax
    3c33:	50                   	push   %eax
    3c34:	68 94 88 02 00       	push   $0x28894
    3c39:	6a 01                	push   $0x1
    3c3b:	6a ff                	push   $0xffffffff
    3c3d:	e8 fe f4 00 00       	call   13140 <log_msg>
    3c42:	8b 47 18             	mov    0x18(%edi),%eax
    3c45:	83 c4 10             	add    $0x10,%esp
    3c48:	e9 e6 fd ff ff       	jmp    3a33 <lookup_available_drivers+0xa3>
    3c4d:	8d 76 00             	lea    0x0(%esi),%esi
    3c50:	c7 45 b4 00 00 00 00 	movl   $0x0,-0x4c(%ebp)
    3c57:	8b 45 b4             	mov    -0x4c(%ebp),%eax
    3c5a:	8d 65 f4             	lea    -0xc(%ebp),%esp
    3c5d:	5b                   	pop    %ebx
    3c5e:	5e                   	pop    %esi
    3c5f:	5f                   	pop    %edi
    3c60:	5d                   	pop    %ebp
    3c61:	c3                   	ret    
    3c62:	50                   	push   %eax
    3c63:	6a 74                	push   $0x74
    3c65:	68 34 87 02 00       	push   $0x28734
    3c6a:	68 60 88 02 00       	push   $0x28860
    3c6f:	e8 4c 08 02 00       	call   244c0 <assert_abort>
    3c74:	57                   	push   %edi
    3c75:	68 e3 01 00 00       	push   $0x1e3
    3c7a:	68 34 87 02 00       	push   $0x28734
    3c7f:	68 52 87 02 00       	push   $0x28752
    3c84:	e8 37 08 02 00       	call   244c0 <assert_abort>
    3c89:	8d b4 26 00 00 00 00 	lea    0x0(%esi,%eiz,1),%esi

00003c90 <delete_driver>:
    3c90:	55                   	push   %ebp
    3c91:	89 e5                	mov    %esp,%ebp
    3c93:	57                   	push   %edi
    3c94:	56                   	push   %esi
    3c95:	53                   	push   %ebx
    3c96:	83 ec 0c             	sub    $0xc,%esp
    3c99:	8b 75 08             	mov    0x8(%ebp),%esi
    3c9c:	85 f6                	test   %esi,%esi
    3c9e:	0f 84 a9 00 00 00    	je     3d4d <delete_driver+0xbd>
    3ca4:	83 ec 0c             	sub    $0xc,%esp
    3ca7:	8b 56 14             	mov    0x14(%esi),%edx
    3caa:	8d 7e 1c             	lea    0x1c(%esi),%edi
    3cad:	52                   	push   %edx
    3cae:	e8 dd 47 01 00       	call   18490 <free>
    3cb3:	8b 5e 18             	mov    0x18(%esi),%ebx
    3cb6:	59                   	pop    %ecx
    3cb7:	53                   	push   %ebx
    3cb8:	e8 d3 47 01 00       	call   18490 <free>
    3cbd:	8b 5e 20             	mov    0x20(%esi),%ebx
    3cc0:	83 c4 10             	add    $0x10,%esp
    3cc3:	39 fb                	cmp    %edi,%ebx
    3cc5:	74 48                	je     3d0f <delete_driver+0x7f>
    3cc7:	90                   	nop
    3cc8:	8b 13                	mov    (%ebx),%edx
    3cca:	85 d2                	test   %edx,%edx
    3ccc:	74 0e                	je     3cdc <delete_driver+0x4c>
    3cce:	8b 43 04             	mov    0x4(%ebx),%eax
    3cd1:	85 c0                	test   %eax,%eax
    3cd3:	74 07                	je     3cdc <delete_driver+0x4c>
    3cd5:	89 10                	mov    %edx,(%eax)
    3cd7:	8b 13                	mov    (%ebx),%edx
    3cd9:	89 42 04             	mov    %eax,0x4(%edx)
    3cdc:	8b 43 08             	mov    0x8(%ebx),%eax
    3cdf:	c7 03 00 00 00 00    	movl   $0x0,(%ebx)
    3ce5:	c7 43 04 00 00 00 00 	movl   $0x0,0x4(%ebx)
    3cec:	85 c0                	test   %eax,%eax
    3cee:	74 0c                	je     3cfc <delete_driver+0x6c>
    3cf0:	83 ec 0c             	sub    $0xc,%esp
    3cf3:	50                   	push   %eax
    3cf4:	e8 97 47 01 00       	call   18490 <free>
    3cf9:	83 c4 10             	add    $0x10,%esp
    3cfc:	83 ec 0c             	sub    $0xc,%esp
    3cff:	53                   	push   %ebx
    3d00:	e8 8b 47 01 00       	call   18490 <free>
    3d05:	8b 5e 20             	mov    0x20(%esi),%ebx
    3d08:	83 c4 10             	add    $0x10,%esp
    3d0b:	39 fb                	cmp    %edi,%ebx
    3d0d:	75 b9                	jne    3cc8 <delete_driver+0x38>
    3d0f:	50                   	push   %eax
    3d10:	6a 3c                	push   $0x3c
    3d12:	6a 00                	push   $0x0
    3d14:	56                   	push   %esi
    3d15:	e8 86 43 00 00       	call   80a0 <memset>
    3d1a:	8d 46 24             	lea    0x24(%esi),%eax
    3d1d:	89 7e 1c             	mov    %edi,0x1c(%esi)
    3d20:	89 7e 20             	mov    %edi,0x20(%esi)
    3d23:	89 46 24             	mov    %eax,0x24(%esi)
    3d26:	89 46 28             	mov    %eax,0x28(%esi)
    3d29:	8d 46 2c             	lea    0x2c(%esi),%eax
    3d2c:	89 04 24             	mov    %eax,(%esp)
    3d2f:	e8 bc 98 00 00       	call   d5f0 <fibril_mutex_initialize>
    3d34:	c7 46 10 00 00 00 00 	movl   $0x0,0x10(%esi)
    3d3b:	83 c4 10             	add    $0x10,%esp
    3d3e:	89 75 08             	mov    %esi,0x8(%ebp)
    3d41:	8d 65 f4             	lea    -0xc(%ebp),%esp
    3d44:	5b                   	pop    %ebx
    3d45:	5e                   	pop    %esi
    3d46:	5f                   	pop    %edi
    3d47:	5d                   	pop    %ebp
    3d48:	e9 43 47 01 00       	jmp    18490 <free>
    3d4d:	56                   	push   %esi
    3d4e:	68 e3 01 00 00       	push   $0x1e3
    3d53:	68 34 87 02 00       	push   $0x28734
    3d58:	68 52 87 02 00       	push   $0x28752
    3d5d:	e8 5e 07 02 00       	call   244c0 <assert_abort>
    3d62:	8d b4 26 00 00 00 00 	lea    0x0(%esi,%eiz,1),%esi
    3d69:	8d bc 27 00 00 00 00 	lea    0x0(%edi,%eiz,1),%edi

00003d70 <add_device>:
    3d70:	55                   	push   %ebp
    3d71:	89 e5                	mov    %esp,%ebp
    3d73:	57                   	push   %edi
    3d74:	56                   	push   %esi
    3d75:	53                   	push   %ebx
    3d76:	83 ec 48             	sub    $0x48,%esp
    3d79:	8b 5d 0c             	mov    0xc(%ebp),%ebx
    3d7c:	8b 75 08             	mov    0x8(%ebp),%esi
    3d7f:	8b 43 08             	mov    0x8(%ebx),%eax
    3d82:	8b 40 1c             	mov    0x1c(%eax),%eax
    3d85:	50                   	push   %eax
    3d86:	8b 46 14             	mov    0x14(%esi),%eax
    3d89:	50                   	push   %eax
    3d8a:	68 74 89 02 00       	push   $0x28974
    3d8f:	6a 04                	push   $0x4
    3d91:	6a ff                	push   $0xffffffff
    3d93:	e8 a8 f3 00 00       	call   13140 <log_msg>
    3d98:	8b 43 08             	mov    0x8(%ebx),%eax
    3d9b:	83 c4 20             	add    $0x20,%esp
    3d9e:	85 c0                	test   %eax,%eax
    3da0:	0f 84 c2 00 00 00    	je     3e68 <add_device+0xf8>
    3da6:	8b 78 18             	mov    0x18(%eax),%edi
    3da9:	83 ec 0c             	sub    $0xc,%esp
    3dac:	8b 56 10             	mov    0x10(%esi),%edx
    3daf:	52                   	push   %edx
    3db0:	e8 cb 93 01 00       	call   1d180 <async_exchange_begin>
    3db5:	83 c4 0c             	add    $0xc,%esp
    3db8:	89 c6                	mov    %eax,%esi
    3dba:	8d 45 c4             	lea    -0x3c(%ebp),%eax
    3dbd:	50                   	push   %eax
    3dbe:	6a 00                	push   $0x0
    3dc0:	6a 00                	push   $0x0
    3dc2:	57                   	push   %edi
    3dc3:	8b 4b 04             	mov    0x4(%ebx),%ecx
    3dc6:	51                   	push   %ecx
    3dc7:	68 00 04 00 00       	push   $0x400
    3dcc:	56                   	push   %esi
    3dcd:	e8 ee 76 01 00       	call   1b4c0 <async_send_fast>
    3dd2:	89 c7                	mov    %eax,%edi
    3dd4:	8b 43 08             	mov    0x8(%ebx),%eax
    3dd7:	83 c4 14             	add    $0x14,%esp
    3dda:	8b 40 1c             	mov    0x1c(%eax),%eax
    3ddd:	50                   	push   %eax
    3dde:	e8 dd 4b 00 00       	call   89c0 <str_size>
    3de3:	83 c4 0c             	add    $0xc,%esp
    3de6:	40                   	inc    %eax
    3de7:	50                   	push   %eax
    3de8:	8b 43 08             	mov    0x8(%ebx),%eax
    3deb:	8b 40 1c             	mov    0x1c(%eax),%eax
    3dee:	50                   	push   %eax
    3def:	56                   	push   %esi
    3df0:	e8 eb a0 01 00       	call   1dee0 <async_data_write_start>
    3df5:	89 34 24             	mov    %esi,(%esp)
    3df8:	89 45 c0             	mov    %eax,-0x40(%ebp)
    3dfb:	e8 70 96 01 00       	call   1d470 <async_exchange_end>
    3e00:	8b 45 c0             	mov    -0x40(%ebp),%eax
    3e03:	83 c4 10             	add    $0x10,%esp
    3e06:	85 c0                	test   %eax,%eax
    3e08:	74 2e                	je     3e38 <add_device+0xc8>
    3e0a:	83 ec 0c             	sub    $0xc,%esp
    3e0d:	57                   	push   %edi
    3e0e:	e8 fd 7e 01 00       	call   1bd10 <async_forget>
    3e13:	8b 45 c0             	mov    -0x40(%ebp),%eax
    3e16:	83 c4 10             	add    $0x10,%esp
    3e19:	85 c0                	test   %eax,%eax
    3e1b:	74 31                	je     3e4e <add_device+0xde>
    3e1d:	40                   	inc    %eax
    3e1e:	c6 43 2c 01          	movb   $0x1,0x2c(%ebx)
    3e22:	0f 95 c0             	setne  %al
    3e25:	25 ff 00 00 00       	and    $0xff,%eax
    3e2a:	83 c0 02             	add    $0x2,%eax
    3e2d:	89 43 18             	mov    %eax,0x18(%ebx)
    3e30:	8d 65 f4             	lea    -0xc(%ebp),%esp
    3e33:	5b                   	pop    %ebx
    3e34:	5e                   	pop    %esi
    3e35:	5f                   	pop    %edi
    3e36:	5d                   	pop    %ebp
    3e37:	c3                   	ret    
    3e38:	50                   	push   %eax
    3e39:	50                   	push   %eax
    3e3a:	8d 45 c0             	lea    -0x40(%ebp),%eax
    3e3d:	50                   	push   %eax
    3e3e:	57                   	push   %edi
    3e3f:	e8 fc 77 01 00       	call   1b640 <async_wait_for>
    3e44:	8b 45 c0             	mov    -0x40(%ebp),%eax
    3e47:	83 c4 10             	add    $0x10,%esp
    3e4a:	85 c0                	test   %eax,%eax
    3e4c:	75 cf                	jne    3e1d <add_device+0xad>
    3e4e:	c7 43 18 01 00 00 00 	movl   $0x1,0x18(%ebx)
    3e55:	c6 43 2c 01          	movb   $0x1,0x2c(%ebx)
    3e59:	8d 65 f4             	lea    -0xc(%ebp),%esp
    3e5c:	5b                   	pop    %ebx
    3e5d:	5e                   	pop    %esi
    3e5e:	5f                   	pop    %edi
    3e5f:	5d                   	pop    %ebp
    3e60:	c3                   	ret    
    3e61:	8d b4 26 00 00 00 00 	lea    0x0(%esi,%eiz,1),%esi
    3e68:	31 ff                	xor    %edi,%edi
    3e6a:	e9 3a ff ff ff       	jmp    3da9 <add_device+0x39>
    3e6f:	90                   	nop

00003e70 <initialize_running_driver>:
    3e70:	55                   	push   %ebp
    3e71:	89 e5                	mov    %esp,%ebp
    3e73:	57                   	push   %edi
    3e74:	56                   	push   %esi
    3e75:	53                   	push   %ebx
    3e76:	83 ec 1c             	sub    $0x1c,%esp
    3e79:	8b 45 08             	mov    0x8(%ebp),%eax
    3e7c:	8b 55 0c             	mov    0xc(%ebp),%edx
    3e7f:	89 c6                	mov    %eax,%esi
    3e81:	89 45 dc             	mov    %eax,-0x24(%ebp)
    3e84:	8b 40 14             	mov    0x14(%eax),%eax
    3e87:	89 d3                	mov    %edx,%ebx
    3e89:	50                   	push   %eax
    3e8a:	89 55 d8             	mov    %edx,-0x28(%ebp)
    3e8d:	68 94 89 02 00       	push   $0x28994
    3e92:	6a 04                	push   $0x4
    3e94:	6a ff                	push   $0xffffffff
    3e96:	e8 a5 f2 00 00       	call   13140 <log_msg>
    3e9b:	8b 46 14             	mov    0x14(%esi),%eax
    3e9e:	50                   	push   %eax
    3e9f:	68 bc 89 02 00       	push   $0x289bc
    3ea4:	6a 04                	push   $0x4
    3ea6:	6a ff                	push   $0xffffffff
    3ea8:	e8 93 f2 00 00       	call   13140 <log_msg>
    3ead:	83 c4 14             	add    $0x14,%esp
    3eb0:	89 f0                	mov    %esi,%eax
    3eb2:	83 c0 2c             	add    $0x2c,%eax
    3eb5:	50                   	push   %eax
    3eb6:	89 45 e4             	mov    %eax,-0x1c(%ebp)
    3eb9:	e8 52 97 00 00       	call   d610 <fibril_mutex_lock>
    3ebe:	89 f0                	mov    %esi,%eax
    3ec0:	83 c0 24             	add    $0x24,%eax
    3ec3:	8b 7e 28             	mov    0x28(%esi),%edi
    3ec6:	89 45 e0             	mov    %eax,-0x20(%ebp)
    3ec9:	83 c4 10             	add    $0x10,%esp
    3ecc:	8d 73 08             	lea    0x8(%ebx),%esi
    3ecf:	90                   	nop
    3ed0:	3b 7d e0             	cmp    -0x20(%ebp),%edi
    3ed3:	74 29                	je     3efe <initialize_running_driver+0x8e>
    3ed5:	83 ec 0c             	sub    $0xc,%esp
    3ed8:	8d 5f e4             	lea    -0x1c(%edi),%ebx
    3edb:	56                   	push   %esi
    3edc:	e8 0f 9c 00 00       	call   daf0 <fibril_rwlock_write_lock>
    3ee1:	83 c4 10             	add    $0x10,%esp
    3ee4:	80 7b 2c 00          	cmpb   $0x0,0x2c(%ebx)
    3ee8:	74 46                	je     3f30 <initialize_running_driver+0xc0>
    3eea:	83 ec 0c             	sub    $0xc,%esp
    3eed:	56                   	push   %esi
    3eee:	e8 7d 9d 00 00       	call   dc70 <fibril_rwlock_write_unlock>
    3ef3:	8b 7f 04             	mov    0x4(%edi),%edi
    3ef6:	83 c4 10             	add    $0x10,%esp
    3ef9:	3b 7d e0             	cmp    -0x20(%ebp),%edi
    3efc:	75 d7                	jne    3ed5 <initialize_running_driver+0x65>
    3efe:	8b 75 dc             	mov    -0x24(%ebp),%esi
    3f01:	8b 46 14             	mov    0x14(%esi),%eax
    3f04:	50                   	push   %eax
    3f05:	68 08 8a 02 00       	push   $0x28a08
    3f0a:	6a 04                	push   $0x4
    3f0c:	6a ff                	push   $0xffffffff
    3f0e:	e8 2d f2 00 00       	call   13140 <log_msg>
    3f13:	8b 45 e4             	mov    -0x1c(%ebp),%eax
    3f16:	c7 46 0c 02 00 00 00 	movl   $0x2,0xc(%esi)
    3f1d:	83 c4 10             	add    $0x10,%esp
    3f20:	89 45 08             	mov    %eax,0x8(%ebp)
    3f23:	8d 65 f4             	lea    -0xc(%ebp),%esp
    3f26:	5b                   	pop    %ebx
    3f27:	5e                   	pop    %esi
    3f28:	5f                   	pop    %edi
    3f29:	5d                   	pop    %ebp
    3f2a:	e9 61 98 00 00       	jmp    d790 <fibril_mutex_unlock>
    3f2f:	90                   	nop
    3f30:	8b 47 e4             	mov    -0x1c(%edi),%eax
    3f33:	50                   	push   %eax
    3f34:	68 e0 89 02 00       	push   $0x289e0
    3f39:	6a 04                	push   $0x4
    3f3b:	6a ff                	push   $0xffffffff
    3f3d:	e8 fe f1 00 00       	call   13140 <log_msg>
    3f42:	89 1c 24             	mov    %ebx,(%esp)
    3f45:	e8 a6 de ff ff       	call   1df0 <dev_add_ref>
    3f4a:	8b 4d e4             	mov    -0x1c(%ebp),%ecx
    3f4d:	5a                   	pop    %edx
    3f4e:	51                   	push   %ecx
    3f4f:	e8 3c 98 00 00       	call   d790 <fibril_mutex_unlock>
    3f54:	89 34 24             	mov    %esi,(%esp)
    3f57:	e8 14 9d 00 00       	call   dc70 <fibril_rwlock_write_unlock>
    3f5c:	83 c4 0c             	add    $0xc,%esp
    3f5f:	8b 7d d8             	mov    -0x28(%ebp),%edi
    3f62:	57                   	push   %edi
    3f63:	8b 7d dc             	mov    -0x24(%ebp),%edi
    3f66:	53                   	push   %ebx
    3f67:	57                   	push   %edi
    3f68:	e8 03 fe ff ff       	call   3d70 <add_device>
    3f6d:	89 1c 24             	mov    %ebx,(%esp)
    3f70:	e8 8b de ff ff       	call   1e00 <dev_del_ref>
    3f75:	58                   	pop    %eax
    3f76:	8b 45 e4             	mov    -0x1c(%ebp),%eax
    3f79:	50                   	push   %eax
    3f7a:	e8 91 96 00 00       	call   d610 <fibril_mutex_lock>
    3f7f:	8b 7f 28             	mov    0x28(%edi),%edi
    3f82:	83 c4 10             	add    $0x10,%esp
    3f85:	e9 46 ff ff ff       	jmp    3ed0 <initialize_running_driver+0x60>
    3f8a:	8d b6 00 00 00 00    	lea    0x0(%esi),%esi

00003f90 <assign_driver>:
    3f90:	55                   	push   %ebp
    3f91:	89 e5                	mov    %esp,%ebp
    3f93:	57                   	push   %edi
    3f94:	56                   	push   %esi
    3f95:	53                   	push   %ebx
    3f96:	83 ec 1c             	sub    $0x1c,%esp
    3f99:	8b 7d 08             	mov    0x8(%ebp),%edi
    3f9c:	85 ff                	test   %edi,%edi
    3f9e:	0f 84 76 02 00 00    	je     421a <assign_driver+0x28a>
    3fa4:	8b 45 0c             	mov    0xc(%ebp),%eax
    3fa7:	85 c0                	test   %eax,%eax
    3fa9:	0f 84 56 02 00 00    	je     4205 <assign_driver+0x275>
    3faf:	8b 75 10             	mov    0x10(%ebp),%esi
    3fb2:	85 f6                	test   %esi,%esi
    3fb4:	0f 84 36 02 00 00    	je     41f0 <assign_driver+0x260>
    3fba:	83 ec 0c             	sub    $0xc,%esp
    3fbd:	8b 45 0c             	mov    0xc(%ebp),%eax
    3fc0:	83 c0 08             	add    $0x8,%eax
    3fc3:	50                   	push   %eax
    3fc4:	89 45 e0             	mov    %eax,-0x20(%ebp)
    3fc7:	e8 44 96 00 00       	call   d610 <fibril_mutex_lock>
    3fcc:	8b 45 0c             	mov    0xc(%ebp),%eax
    3fcf:	8b 70 04             	mov    0x4(%eax),%esi
    3fd2:	83 c4 10             	add    $0x10,%esp
    3fd5:	39 c6                	cmp    %eax,%esi
    3fd7:	0f 84 20 01 00 00    	je     40fd <assign_driver+0x16d>
    3fdd:	c7 45 e4 00 00 00 00 	movl   $0x0,-0x1c(%ebp)
    3fe4:	31 db                	xor    %ebx,%ebx
    3fe6:	66 90                	xchg   %ax,%ax
    3fe8:	51                   	push   %ecx
    3fe9:	51                   	push   %ecx
    3fea:	57                   	push   %edi
    3feb:	56                   	push   %esi
    3fec:	e8 0f 19 00 00       	call   5900 <get_match_score>
    3ff1:	83 c4 10             	add    $0x10,%esp
    3ff4:	39 d8                	cmp    %ebx,%eax
    3ff6:	7e 05                	jle    3ffd <assign_driver+0x6d>
    3ff8:	89 c3                	mov    %eax,%ebx
    3ffa:	89 75 e4             	mov    %esi,-0x1c(%ebp)
    3ffd:	8b 76 04             	mov    0x4(%esi),%esi
    4000:	3b 75 0c             	cmp    0xc(%ebp),%esi
    4003:	75 e3                	jne    3fe8 <assign_driver+0x58>
    4005:	83 ec 0c             	sub    $0xc,%esp
    4008:	8b 45 e0             	mov    -0x20(%ebp),%eax
    400b:	50                   	push   %eax
    400c:	e8 7f 97 00 00       	call   d790 <fibril_mutex_unlock>
    4011:	8b 55 e4             	mov    -0x1c(%ebp),%edx
    4014:	83 c4 10             	add    $0x10,%esp
    4017:	85 d2                	test   %edx,%edx
    4019:	0f 84 ed 00 00 00    	je     410c <assign_driver+0x17c>
    401f:	8b 5d e4             	mov    -0x1c(%ebp),%ebx
    4022:	83 ec 0c             	sub    $0xc,%esp
    4025:	8b 43 14             	mov    0x14(%ebx),%eax
    4028:	50                   	push   %eax
    4029:	8b 47 08             	mov    0x8(%edi),%eax
    402c:	8b 40 24             	mov    0x24(%eax),%eax
    402f:	50                   	push   %eax
    4030:	68 b4 88 02 00       	push   $0x288b4
    4035:	6a 04                	push   $0x4
    4037:	6a ff                	push   $0xffffffff
    4039:	e8 02 f1 00 00       	call   13140 <log_msg>
    403e:	83 c4 14             	add    $0x14,%esp
    4041:	89 5d e4             	mov    %ebx,-0x1c(%ebp)
    4044:	8d 5b 2c             	lea    0x2c(%ebx),%ebx
    4047:	53                   	push   %ebx
    4048:	e8 c3 95 00 00       	call   d610 <fibril_mutex_lock>
    404d:	8b 55 10             	mov    0x10(%ebp),%edx
    4050:	8d 72 08             	lea    0x8(%edx),%esi
    4053:	89 34 24             	mov    %esi,(%esp)
    4056:	e8 95 9a 00 00       	call   daf0 <fibril_rwlock_write_lock>
    405b:	8b 4d e4             	mov    -0x1c(%ebp),%ecx
    405e:	8d 47 1c             	lea    0x1c(%edi),%eax
    4061:	89 4f 14             	mov    %ecx,0x14(%edi)
    4064:	8d 51 24             	lea    0x24(%ecx),%edx
    4067:	89 57 20             	mov    %edx,0x20(%edi)
    406a:	8b 51 24             	mov    0x24(%ecx),%edx
    406d:	89 57 1c             	mov    %edx,0x1c(%edi)
    4070:	8b 51 24             	mov    0x24(%ecx),%edx
    4073:	89 42 04             	mov    %eax,0x4(%edx)
    4076:	89 41 24             	mov    %eax,0x24(%ecx)
    4079:	89 34 24             	mov    %esi,(%esp)
    407c:	e8 ef 9b 00 00       	call   dc70 <fibril_rwlock_write_unlock>
    4081:	89 1c 24             	mov    %ebx,(%esp)
    4084:	e8 07 97 00 00       	call   d790 <fibril_mutex_unlock>
    4089:	89 1c 24             	mov    %ebx,(%esp)
    408c:	e8 7f 95 00 00       	call   d610 <fibril_mutex_lock>
    4091:	8b 4d e4             	mov    -0x1c(%ebp),%ecx
    4094:	83 c4 10             	add    $0x10,%esp
    4097:	8b 41 0c             	mov    0xc(%ecx),%eax
    409a:	85 c0                	test   %eax,%eax
    409c:	0f 84 8c 00 00 00    	je     412e <assign_driver+0x19e>
    40a2:	83 ec 0c             	sub    $0xc,%esp
    40a5:	89 45 e0             	mov    %eax,-0x20(%ebp)
    40a8:	53                   	push   %ebx
    40a9:	e8 e2 96 00 00       	call   d790 <fibril_mutex_unlock>
    40ae:	8b 45 e0             	mov    -0x20(%ebp),%eax
    40b1:	83 c4 10             	add    $0x10,%esp
    40b4:	83 f8 02             	cmp    $0x2,%eax
    40b7:	0f 84 d4 00 00 00    	je     4191 <assign_driver+0x201>
    40bd:	83 ec 0c             	sub    $0xc,%esp
    40c0:	53                   	push   %ebx
    40c1:	e8 4a 95 00 00       	call   d610 <fibril_mutex_lock>
    40c6:	89 1c 24             	mov    %ebx,(%esp)
    40c9:	e8 c2 96 00 00       	call   d790 <fibril_mutex_unlock>
    40ce:	89 34 24             	mov    %esi,(%esp)
    40d1:	e8 1a 9a 00 00       	call   daf0 <fibril_rwlock_write_lock>
    40d6:	8b 47 08             	mov    0x8(%edi),%eax
    40d9:	83 c4 10             	add    $0x10,%esp
    40dc:	85 c0                	test   %eax,%eax
    40de:	74 07                	je     40e7 <assign_driver+0x157>
    40e0:	c7 40 04 02 00 00 00 	movl   $0x2,0x4(%eax)
    40e7:	83 ec 0c             	sub    $0xc,%esp
    40ea:	56                   	push   %esi
    40eb:	e8 80 9b 00 00       	call   dc70 <fibril_rwlock_write_unlock>
    40f0:	83 c4 10             	add    $0x10,%esp
    40f3:	8d 65 f4             	lea    -0xc(%ebp),%esp
    40f6:	b0 01                	mov    $0x1,%al
    40f8:	5b                   	pop    %ebx
    40f9:	5e                   	pop    %esi
    40fa:	5f                   	pop    %edi
    40fb:	5d                   	pop    %ebp
    40fc:	c3                   	ret    
    40fd:	83 ec 0c             	sub    $0xc,%esp
    4100:	8b 45 e0             	mov    -0x20(%ebp),%eax
    4103:	50                   	push   %eax
    4104:	e8 87 96 00 00       	call   d790 <fibril_mutex_unlock>
    4109:	83 c4 10             	add    $0x10,%esp
    410c:	8b 47 08             	mov    0x8(%edi),%eax
    410f:	8b 40 24             	mov    0x24(%eax),%eax
    4112:	50                   	push   %eax
    4113:	68 2c 8a 02 00       	push   $0x28a2c
    4118:	6a 01                	push   $0x1
    411a:	6a ff                	push   $0xffffffff
    411c:	e8 1f f0 00 00       	call   13140 <log_msg>
    4121:	83 c4 10             	add    $0x10,%esp
    4124:	8d 65 f4             	lea    -0xc(%ebp),%esp
    4127:	31 c0                	xor    %eax,%eax
    4129:	5b                   	pop    %ebx
    412a:	5e                   	pop    %esi
    412b:	5f                   	pop    %edi
    412c:	5d                   	pop    %ebp
    412d:	c3                   	ret    
    412e:	83 ec 0c             	sub    $0xc,%esp
    4131:	53                   	push   %ebx
    4132:	e8 09 98 00 00       	call   d940 <fibril_mutex_is_locked>
    4137:	83 c4 10             	add    $0x10,%esp
    413a:	84 c0                	test   %al,%al
    413c:	0f 84 99 00 00 00    	je     41db <assign_driver+0x24b>
    4142:	8b 45 e4             	mov    -0x1c(%ebp),%eax
    4145:	8b 40 14             	mov    0x14(%eax),%eax
    4148:	50                   	push   %eax
    4149:	68 5e 87 02 00       	push   $0x2875e
    414e:	6a 04                	push   $0x4
    4150:	6a ff                	push   $0xffffffff
    4152:	e8 e9 ef 00 00       	call   13140 <log_msg>
    4157:	8b 45 e4             	mov    -0x1c(%ebp),%eax
    415a:	8b 40 18             	mov    0x18(%eax),%eax
    415d:	c7 04 24 00 00 00 00 	movl   $0x0,(%esp)
    4164:	50                   	push   %eax
    4165:	50                   	push   %eax
    4166:	6a 00                	push   $0x0
    4168:	6a 00                	push   $0x0
    416a:	e8 a1 ba 00 00       	call   fc10 <task_spawnl>
    416f:	83 c4 20             	add    $0x20,%esp
    4172:	85 c0                	test   %eax,%eax
    4174:	75 32                	jne    41a8 <assign_driver+0x218>
    4176:	83 ec 0c             	sub    $0xc,%esp
    4179:	8b 45 e4             	mov    -0x1c(%ebp),%eax
    417c:	c7 40 0c 01 00 00 00 	movl   $0x1,0xc(%eax)
    4183:	53                   	push   %ebx
    4184:	e8 07 96 00 00       	call   d790 <fibril_mutex_unlock>
    4189:	83 c4 10             	add    $0x10,%esp
    418c:	e9 2c ff ff ff       	jmp    40bd <assign_driver+0x12d>
    4191:	8b 4d 10             	mov    0x10(%ebp),%ecx
    4194:	8b 45 e4             	mov    -0x1c(%ebp),%eax
    4197:	52                   	push   %edx
    4198:	51                   	push   %ecx
    4199:	57                   	push   %edi
    419a:	50                   	push   %eax
    419b:	e8 d0 fb ff ff       	call   3d70 <add_device>
    41a0:	83 c4 10             	add    $0x10,%esp
    41a3:	e9 15 ff ff ff       	jmp    40bd <assign_driver+0x12d>
    41a8:	83 ec 0c             	sub    $0xc,%esp
    41ab:	50                   	push   %eax
    41ac:	e8 cf 86 00 00       	call   c880 <str_error>
    41b1:	5a                   	pop    %edx
    41b2:	59                   	pop    %ecx
    41b3:	50                   	push   %eax
    41b4:	8b 45 e4             	mov    -0x1c(%ebp),%eax
    41b7:	8b 50 18             	mov    0x18(%eax),%edx
    41ba:	52                   	push   %edx
    41bb:	8b 48 14             	mov    0x14(%eax),%ecx
    41be:	51                   	push   %ecx
    41bf:	68 28 89 02 00       	push   $0x28928
    41c4:	6a 01                	push   $0x1
    41c6:	6a ff                	push   $0xffffffff
    41c8:	e8 73 ef 00 00       	call   13140 <log_msg>
    41cd:	8b 45 e4             	mov    -0x1c(%ebp),%eax
    41d0:	83 c4 20             	add    $0x20,%esp
    41d3:	8b 40 0c             	mov    0xc(%eax),%eax
    41d6:	e9 c7 fe ff ff       	jmp    40a2 <assign_driver+0x112>
    41db:	50                   	push   %eax
    41dc:	68 20 01 00 00       	push   $0x120
    41e1:	68 34 87 02 00       	push   $0x28734
    41e6:	68 fc 88 02 00       	push   $0x288fc
    41eb:	e8 d0 02 02 00       	call   244c0 <assert_abort>
    41f0:	53                   	push   %ebx
    41f1:	68 f5 01 00 00       	push   $0x1f5
    41f6:	68 34 87 02 00       	push   $0x28734
    41fb:	68 96 87 02 00       	push   $0x28796
    4200:	e8 bb 02 02 00       	call   244c0 <assert_abort>
    4205:	57                   	push   %edi
    4206:	68 f4 01 00 00       	push   $0x1f4
    420b:	68 34 87 02 00       	push   $0x28734
    4210:	68 81 87 02 00       	push   $0x28781
    4215:	e8 a6 02 02 00       	call   244c0 <assert_abort>
    421a:	50                   	push   %eax
    421b:	68 f3 01 00 00       	push   $0x1f3
    4220:	68 34 87 02 00       	push   $0x28734
    4225:	68 75 87 02 00       	push   $0x28775
    422a:	e8 91 02 02 00       	call   244c0 <assert_abort>
    422f:	90                   	nop

00004230 <driver_dev_remove>:
    4230:	55                   	push   %ebp
    4231:	89 e5                	mov    %esp,%ebp
    4233:	57                   	push   %edi
    4234:	56                   	push   %esi
    4235:	53                   	push   %ebx
    4236:	83 ec 1c             	sub    $0x1c,%esp
    4239:	8b 5d 0c             	mov    0xc(%ebp),%ebx
    423c:	85 db                	test   %ebx,%ebx
    423e:	74 73                	je     42b3 <driver_dev_remove+0x83>
    4240:	53                   	push   %ebx
    4241:	68 a3 87 02 00       	push   $0x287a3
    4246:	6a 04                	push   $0x4
    4248:	6a ff                	push   $0xffffffff
    424a:	e8 f1 ee 00 00       	call   13140 <log_msg>
    424f:	8b 45 08             	mov    0x8(%ebp),%eax
    4252:	8d 70 08             	lea    0x8(%eax),%esi
    4255:	89 34 24             	mov    %esi,(%esp)
    4258:	e8 93 97 00 00       	call   d9f0 <fibril_rwlock_read_lock>
    425d:	8b 43 14             	mov    0x14(%ebx),%eax
    4260:	8b 7b 04             	mov    0x4(%ebx),%edi
    4263:	89 45 e4             	mov    %eax,-0x1c(%ebp)
    4266:	89 34 24             	mov    %esi,(%esp)
    4269:	e8 62 99 00 00       	call   dbd0 <fibril_rwlock_read_unlock>
    426e:	58                   	pop    %eax
    426f:	8b 45 e4             	mov    -0x1c(%ebp),%eax
    4272:	8b 50 10             	mov    0x10(%eax),%edx
    4275:	52                   	push   %edx
    4276:	e8 05 8f 01 00       	call   1d180 <async_exchange_begin>
    427b:	83 c4 0c             	add    $0xc,%esp
    427e:	89 c3                	mov    %eax,%ebx
    4280:	6a 00                	push   $0x0
    4282:	6a 00                	push   $0x0
    4284:	6a 00                	push   $0x0
    4286:	6a 00                	push   $0x0
    4288:	6a 00                	push   $0x0
    428a:	6a 00                	push   $0x0
    428c:	6a 00                	push   $0x0
    428e:	6a 00                	push   $0x0
    4290:	57                   	push   %edi
    4291:	68 01 04 00 00       	push   $0x401
    4296:	50                   	push   %eax
    4297:	e8 e4 7c 01 00       	call   1bf80 <async_req_fast>
    429c:	83 c4 24             	add    $0x24,%esp
    429f:	89 45 e4             	mov    %eax,-0x1c(%ebp)
    42a2:	53                   	push   %ebx
    42a3:	e8 c8 91 01 00       	call   1d470 <async_exchange_end>
    42a8:	8b 45 e4             	mov    -0x1c(%ebp),%eax
    42ab:	8d 65 f4             	lea    -0xc(%ebp),%esp
    42ae:	5b                   	pop    %ebx
    42af:	5e                   	pop    %esi
    42b0:	5f                   	pop    %edi
    42b1:	5d                   	pop    %ebp
    42b2:	c3                   	ret    
    42b3:	51                   	push   %ecx
    42b4:	68 5a 02 00 00       	push   $0x25a
    42b9:	68 34 87 02 00       	push   $0x28734
    42be:	68 75 87 02 00       	push   $0x28775
    42c3:	e8 f8 01 02 00       	call   244c0 <assert_abort>
    42c8:	90                   	nop
    42c9:	8d b4 26 00 00 00 00 	lea    0x0(%esi,%eiz,1),%esi

000042d0 <driver_dev_gone>:
    42d0:	55                   	push   %ebp
    42d1:	89 e5                	mov    %esp,%ebp
    42d3:	57                   	push   %edi
    42d4:	56                   	push   %esi
    42d5:	53                   	push   %ebx
    42d6:	83 ec 1c             	sub    $0x1c,%esp
    42d9:	8b 5d 0c             	mov    0xc(%ebp),%ebx
    42dc:	85 db                	test   %ebx,%ebx
    42de:	74 73                	je     4353 <driver_dev_gone+0x83>
    42e0:	53                   	push   %ebx
    42e1:	68 b9 87 02 00       	push   $0x287b9
    42e6:	6a 04                	push   $0x4
    42e8:	6a ff                	push   $0xffffffff
    42ea:	e8 51 ee 00 00       	call   13140 <log_msg>
    42ef:	8b 45 08             	mov    0x8(%ebp),%eax
    42f2:	8d 70 08             	lea    0x8(%eax),%esi
    42f5:	89 34 24             	mov    %esi,(%esp)
    42f8:	e8 f3 96 00 00       	call   d9f0 <fibril_rwlock_read_lock>
    42fd:	8b 43 14             	mov    0x14(%ebx),%eax
    4300:	8b 7b 04             	mov    0x4(%ebx),%edi
    4303:	89 45 e4             	mov    %eax,-0x1c(%ebp)
    4306:	89 34 24             	mov    %esi,(%esp)
    4309:	e8 c2 98 00 00       	call   dbd0 <fibril_rwlock_read_unlock>
    430e:	58                   	pop    %eax
    430f:	8b 45 e4             	mov    -0x1c(%ebp),%eax
    4312:	8b 50 10             	mov    0x10(%eax),%edx
    4315:	52                   	push   %edx
    4316:	e8 65 8e 01 00       	call   1d180 <async_exchange_begin>
    431b:	83 c4 0c             	add    $0xc,%esp
    431e:	89 c3                	mov    %eax,%ebx
    4320:	6a 00                	push   $0x0
    4322:	6a 00                	push   $0x0
    4324:	6a 00                	push   $0x0
    4326:	6a 00                	push   $0x0
    4328:	6a 00                	push   $0x0
    432a:	6a 00                	push   $0x0
    432c:	6a 00                	push   $0x0
    432e:	6a 00                	push   $0x0
    4330:	57                   	push   %edi
    4331:	68 02 04 00 00       	push   $0x402
    4336:	50                   	push   %eax
    4337:	e8 44 7c 01 00       	call   1bf80 <async_req_fast>
    433c:	83 c4 24             	add    $0x24,%esp
    433f:	89 45 e4             	mov    %eax,-0x1c(%ebp)
    4342:	53                   	push   %ebx
    4343:	e8 28 91 01 00       	call   1d470 <async_exchange_end>
    4348:	8b 45 e4             	mov    -0x1c(%ebp),%eax
    434b:	8d 65 f4             	lea    -0xc(%ebp),%esp
    434e:	5b                   	pop    %ebx
    434f:	5e                   	pop    %esi
    4350:	5f                   	pop    %edi
    4351:	5d                   	pop    %ebp
    4352:	c3                   	ret    
    4353:	51                   	push   %ecx
    4354:	68 71 02 00 00       	push   $0x271
    4359:	68 34 87 02 00       	push   $0x28734
    435e:	68 75 87 02 00       	push   $0x28775
    4363:	e8 58 01 02 00       	call   244c0 <assert_abort>
    4368:	90                   	nop
    4369:	8d b4 26 00 00 00 00 	lea    0x0(%esi,%eiz,1),%esi

00004370 <driver_fun_online>:
    4370:	55                   	push   %ebp
    4371:	89 e5                	mov    %esp,%ebp
    4373:	57                   	push   %edi
    4374:	56                   	push   %esi
    4375:	53                   	push   %ebx
    4376:	83 ec 1c             	sub    $0x1c,%esp
    4379:	8b 75 0c             	mov    0xc(%ebp),%esi
    437c:	56                   	push   %esi
    437d:	68 cd 87 02 00       	push   $0x287cd
    4382:	6a 04                	push   $0x4
    4384:	6a ff                	push   $0xffffffff
    4386:	e8 b5 ed 00 00       	call   13140 <log_msg>
    438b:	8b 45 08             	mov    0x8(%ebp),%eax
    438e:	8d 58 08             	lea    0x8(%eax),%ebx
    4391:	89 1c 24             	mov    %ebx,(%esp)
    4394:	e8 57 96 00 00       	call   d9f0 <fibril_rwlock_read_lock>
    4399:	8b 46 28             	mov    0x28(%esi),%eax
    439c:	83 c4 10             	add    $0x10,%esp
    439f:	85 c0                	test   %eax,%eax
    43a1:	74 54                	je     43f7 <driver_fun_online+0x87>
    43a3:	83 ec 0c             	sub    $0xc,%esp
    43a6:	8b 78 14             	mov    0x14(%eax),%edi
    43a9:	8b 76 18             	mov    0x18(%esi),%esi
    43ac:	53                   	push   %ebx
    43ad:	e8 1e 98 00 00       	call   dbd0 <fibril_rwlock_read_unlock>
    43b2:	8b 57 10             	mov    0x10(%edi),%edx
    43b5:	58                   	pop    %eax
    43b6:	52                   	push   %edx
    43b7:	e8 c4 8d 01 00       	call   1d180 <async_exchange_begin>
    43bc:	83 c4 0c             	add    $0xc,%esp
    43bf:	89 c3                	mov    %eax,%ebx
    43c1:	6a 00                	push   $0x0
    43c3:	6a 00                	push   $0x0
    43c5:	6a 00                	push   $0x0
    43c7:	6a 00                	push   $0x0
    43c9:	6a 00                	push   $0x0
    43cb:	6a 00                	push   $0x0
    43cd:	6a 00                	push   $0x0
    43cf:	6a 00                	push   $0x0
    43d1:	56                   	push   %esi
    43d2:	68 03 04 00 00       	push   $0x403
    43d7:	50                   	push   %eax
    43d8:	e8 a3 7b 01 00       	call   1bf80 <async_req_fast>
    43dd:	83 c4 24             	add    $0x24,%esp
    43e0:	89 45 e4             	mov    %eax,-0x1c(%ebp)
    43e3:	53                   	push   %ebx
    43e4:	e8 b7 23 00 00       	call   67a0 <loc_exchange_end>
    43e9:	8b 45 e4             	mov    -0x1c(%ebp),%eax
    43ec:	83 c4 10             	add    $0x10,%esp
    43ef:	8d 65 f4             	lea    -0xc(%ebp),%esp
    43f2:	5b                   	pop    %ebx
    43f3:	5e                   	pop    %esi
    43f4:	5f                   	pop    %edi
    43f5:	5d                   	pop    %ebp
    43f6:	c3                   	ret    
    43f7:	83 ec 0c             	sub    $0xc,%esp
    43fa:	53                   	push   %ebx
    43fb:	e8 d0 97 00 00       	call   dbd0 <fibril_rwlock_read_unlock>
    4400:	83 c4 10             	add    $0x10,%esp
    4403:	b8 f2 ff ff ff       	mov    $0xfffffff2,%eax
    4408:	eb e5                	jmp    43ef <driver_fun_online+0x7f>
    440a:	8d b6 00 00 00 00    	lea    0x0(%esi),%esi

00004410 <driver_fun_offline>:
    4410:	55                   	push   %ebp
    4411:	89 e5                	mov    %esp,%ebp
    4413:	57                   	push   %edi
    4414:	56                   	push   %esi
    4415:	53                   	push   %ebx
    4416:	83 ec 1c             	sub    $0x1c,%esp
    4419:	8b 75 0c             	mov    0xc(%ebp),%esi
    441c:	56                   	push   %esi
    441d:	68 e3 87 02 00       	push   $0x287e3
    4422:	6a 04                	push   $0x4
    4424:	6a ff                	push   $0xffffffff
    4426:	e8 15 ed 00 00       	call   13140 <log_msg>
    442b:	8b 45 08             	mov    0x8(%ebp),%eax
    442e:	8d 58 08             	lea    0x8(%eax),%ebx
    4431:	89 1c 24             	mov    %ebx,(%esp)
    4434:	e8 b7 95 00 00       	call   d9f0 <fibril_rwlock_read_lock>
    4439:	8b 46 28             	mov    0x28(%esi),%eax
    443c:	83 c4 10             	add    $0x10,%esp
    443f:	85 c0                	test   %eax,%eax
    4441:	74 54                	je     4497 <driver_fun_offline+0x87>
    4443:	83 ec 0c             	sub    $0xc,%esp
    4446:	8b 78 14             	mov    0x14(%eax),%edi
    4449:	8b 76 18             	mov    0x18(%esi),%esi
    444c:	53                   	push   %ebx
    444d:	e8 7e 97 00 00       	call   dbd0 <fibril_rwlock_read_unlock>
    4452:	8b 57 10             	mov    0x10(%edi),%edx
    4455:	58                   	pop    %eax
    4456:	52                   	push   %edx
    4457:	e8 24 8d 01 00       	call   1d180 <async_exchange_begin>
    445c:	83 c4 0c             	add    $0xc,%esp
    445f:	89 c3                	mov    %eax,%ebx
    4461:	6a 00                	push   $0x0
    4463:	6a 00                	push   $0x0
    4465:	6a 00                	push   $0x0
    4467:	6a 00                	push   $0x0
    4469:	6a 00                	push   $0x0
    446b:	6a 00                	push   $0x0
    446d:	6a 00                	push   $0x0
    446f:	6a 00                	push   $0x0
    4471:	56                   	push   %esi
    4472:	68 04 04 00 00       	push   $0x404
    4477:	50                   	push   %eax
    4478:	e8 03 7b 01 00       	call   1bf80 <async_req_fast>
    447d:	83 c4 24             	add    $0x24,%esp
    4480:	89 45 e4             	mov    %eax,-0x1c(%ebp)
    4483:	53                   	push   %ebx
    4484:	e8 17 23 00 00       	call   67a0 <loc_exchange_end>
    4489:	8b 45 e4             	mov    -0x1c(%ebp),%eax
    448c:	83 c4 10             	add    $0x10,%esp
    448f:	8d 65 f4             	lea    -0xc(%ebp),%esp
    4492:	5b                   	pop    %ebx
    4493:	5e                   	pop    %esi
    4494:	5f                   	pop    %edi
    4495:	5d                   	pop    %ebp
    4496:	c3                   	ret    
    4497:	83 ec 0c             	sub    $0xc,%esp
    449a:	53                   	push   %ebx
    449b:	e8 30 97 00 00       	call   dbd0 <fibril_rwlock_read_unlock>
    44a0:	83 c4 10             	add    $0x10,%esp
    44a3:	b8 f2 ff ff ff       	mov    $0xfffffff2,%eax
    44a8:	eb e5                	jmp    448f <driver_fun_offline+0x7f>
    44aa:	8d b6 00 00 00 00    	lea    0x0(%esi),%esi

000044b0 <driver_get_list>:
    44b0:	55                   	push   %ebp
    44b1:	89 e5                	mov    %esp,%ebp
    44b3:	57                   	push   %edi
    44b4:	56                   	push   %esi
    44b5:	53                   	push   %ebx
    44b6:	83 ec 28             	sub    $0x28,%esp
    44b9:	8b 5d 08             	mov    0x8(%ebp),%ebx
    44bc:	8b 7d 0c             	mov    0xc(%ebp),%edi
    44bf:	8d 53 08             	lea    0x8(%ebx),%edx
    44c2:	52                   	push   %edx
    44c3:	89 55 e4             	mov    %edx,-0x1c(%ebp)
    44c6:	e8 45 91 00 00       	call   d610 <fibril_mutex_lock>
    44cb:	8b 75 10             	mov    0x10(%ebp),%esi
    44ce:	c1 ee 02             	shr    $0x2,%esi
    44d1:	89 1c 24             	mov    %ebx,(%esp)
    44d4:	e8 67 ae 01 00       	call   1f340 <list_count>
    44d9:	8b 4d 14             	mov    0x14(%ebp),%ecx
    44dc:	c1 e0 02             	shl    $0x2,%eax
    44df:	83 c4 10             	add    $0x10,%esp
    44e2:	89 01                	mov    %eax,(%ecx)
    44e4:	8b 4d 10             	mov    0x10(%ebp),%ecx
    44e7:	83 e1 03             	and    $0x3,%ecx
    44ea:	8b 55 e4             	mov    -0x1c(%ebp),%edx
    44ed:	75 3c                	jne    452b <driver_get_list+0x7b>
    44ef:	8b 43 04             	mov    0x4(%ebx),%eax
    44f2:	39 c3                	cmp    %eax,%ebx
    44f4:	74 1f                	je     4515 <driver_get_list+0x65>
    44f6:	89 55 e4             	mov    %edx,-0x1c(%ebp)
    44f9:	8d b4 26 00 00 00 00 	lea    0x0(%esi,%eiz,1),%esi
    4500:	39 ce                	cmp    %ecx,%esi
    4502:	76 06                	jbe    450a <driver_get_list+0x5a>
    4504:	8b 50 08             	mov    0x8(%eax),%edx
    4507:	89 14 8f             	mov    %edx,(%edi,%ecx,4)
    450a:	8b 40 04             	mov    0x4(%eax),%eax
    450d:	41                   	inc    %ecx
    450e:	39 c3                	cmp    %eax,%ebx
    4510:	75 ee                	jne    4500 <driver_get_list+0x50>
    4512:	8b 55 e4             	mov    -0x1c(%ebp),%edx
    4515:	83 ec 0c             	sub    $0xc,%esp
    4518:	52                   	push   %edx
    4519:	e8 72 92 00 00       	call   d790 <fibril_mutex_unlock>
    451e:	83 c4 10             	add    $0x10,%esp
    4521:	31 c0                	xor    %eax,%eax
    4523:	8d 65 f4             	lea    -0xc(%ebp),%esp
    4526:	5b                   	pop    %ebx
    4527:	5e                   	pop    %esi
    4528:	5f                   	pop    %edi
    4529:	5d                   	pop    %ebp
    452a:	c3                   	ret    
    452b:	83 ec 0c             	sub    $0xc,%esp
    452e:	52                   	push   %edx
    452f:	e8 5c 92 00 00       	call   d790 <fibril_mutex_unlock>
    4534:	83 c4 10             	add    $0x10,%esp
    4537:	b8 f2 ff ff ff       	mov    $0xfffffff2,%eax
    453c:	eb e5                	jmp    4523 <driver_get_list+0x73>
    453e:	66 90                	xchg   %ax,%ax

00004540 <driver_get_devices>:
    4540:	55                   	push   %ebp
    4541:	89 e5                	mov    %esp,%ebp
    4543:	57                   	push   %edi
    4544:	56                   	push   %esi
    4545:	53                   	push   %ebx
    4546:	83 ec 28             	sub    $0x28,%esp
    4549:	8b 4d 08             	mov    0x8(%ebp),%ecx
    454c:	8b 7d 0c             	mov    0xc(%ebp),%edi
    454f:	89 4d e0             	mov    %ecx,-0x20(%ebp)
    4552:	8d 41 2c             	lea    0x2c(%ecx),%eax
    4555:	50                   	push   %eax
    4556:	89 45 e4             	mov    %eax,-0x1c(%ebp)
    4559:	e8 b2 90 00 00       	call   d610 <fibril_mutex_lock>
    455e:	8b 4d e0             	mov    -0x20(%ebp),%ecx
    4561:	8d 59 24             	lea    0x24(%ecx),%ebx
    4564:	8b 75 10             	mov    0x10(%ebp),%esi
    4567:	c1 ee 02             	shr    $0x2,%esi
    456a:	89 1c 24             	mov    %ebx,(%esp)
    456d:	e8 ce ad 01 00       	call   1f340 <list_count>
    4572:	83 c4 10             	add    $0x10,%esp
    4575:	8b 4d e0             	mov    -0x20(%ebp),%ecx
    4578:	8d 14 85 00 00 00 00 	lea    0x0(,%eax,4),%edx
    457f:	8b 45 14             	mov    0x14(%ebp),%eax
    4582:	89 10                	mov    %edx,(%eax)
    4584:	8b 55 10             	mov    0x10(%ebp),%edx
    4587:	83 e2 03             	and    $0x3,%edx
    458a:	75 3a                	jne    45c6 <driver_get_devices+0x86>
    458c:	8b 41 28             	mov    0x28(%ecx),%eax
    458f:	39 c3                	cmp    %eax,%ebx
    4591:	8d 48 e4             	lea    -0x1c(%eax),%ecx
    4594:	74 17                	je     45ad <driver_get_devices+0x6d>
    4596:	66 90                	xchg   %ax,%ax
    4598:	39 d6                	cmp    %edx,%esi
    459a:	76 06                	jbe    45a2 <driver_get_devices+0x62>
    459c:	8b 49 04             	mov    0x4(%ecx),%ecx
    459f:	89 0c 97             	mov    %ecx,(%edi,%edx,4)
    45a2:	8b 40 04             	mov    0x4(%eax),%eax
    45a5:	42                   	inc    %edx
    45a6:	39 c3                	cmp    %eax,%ebx
    45a8:	8d 48 e4             	lea    -0x1c(%eax),%ecx
    45ab:	75 eb                	jne    4598 <driver_get_devices+0x58>
    45ad:	83 ec 0c             	sub    $0xc,%esp
    45b0:	8b 45 e4             	mov    -0x1c(%ebp),%eax
    45b3:	50                   	push   %eax
    45b4:	e8 d7 91 00 00       	call   d790 <fibril_mutex_unlock>
    45b9:	83 c4 10             	add    $0x10,%esp
    45bc:	31 c0                	xor    %eax,%eax
    45be:	8d 65 f4             	lea    -0xc(%ebp),%esp
    45c1:	5b                   	pop    %ebx
    45c2:	5e                   	pop    %esi
    45c3:	5f                   	pop    %edi
    45c4:	5d                   	pop    %ebp
    45c5:	c3                   	ret    
    45c6:	83 ec 0c             	sub    $0xc,%esp
    45c9:	8b 55 e4             	mov    -0x1c(%ebp),%edx
    45cc:	52                   	push   %edx
    45cd:	e8 be 91 00 00       	call   d790 <fibril_mutex_unlock>
    45d2:	83 c4 10             	add    $0x10,%esp
    45d5:	b8 f2 ff ff ff       	mov    $0xfffffff2,%eax
    45da:	eb e2                	jmp    45be <driver_get_devices+0x7e>
    45dc:	66 90                	xchg   %ax,%ax
    45de:	66 90                	xchg   %ax,%ax

000045e0 <loc_register_tree_function>:
    45e0:	55                   	push   %ebp
    45e1:	89 e5                	mov    %esp,%ebp
    45e3:	57                   	push   %edi
    45e4:	56                   	push   %esi
    45e5:	53                   	push   %ebx
    45e6:	83 ec 28             	sub    $0x28,%esp
    45e9:	c7 45 e0 00 00 00 00 	movl   $0x0,-0x20(%ebp)
    45f0:	8b 75 0c             	mov    0xc(%ebp),%esi
    45f3:	8b 5d 08             	mov    0x8(%ebp),%ebx
    45f6:	c7 45 e4 00 00 00 00 	movl   $0x0,-0x1c(%ebp)
    45fd:	8d 7e 08             	lea    0x8(%esi),%edi
    4600:	57                   	push   %edi
    4601:	e8 5a 98 00 00       	call   de60 <fibril_rwlock_is_locked>
    4606:	83 c4 10             	add    $0x10,%esp
    4609:	84 c0                	test   %al,%al
    460b:	0f 84 ae 00 00 00    	je     46bf <loc_register_tree_function+0xdf>
    4611:	50                   	push   %eax
    4612:	8b 43 24             	mov    0x24(%ebx),%eax
    4615:	50                   	push   %eax
