Archive member included to satisfy reference by file (symbol)

../../../lib/drv/libdrv.a(remote_char_dev.o)
                              slip.o (char_dev_read)

Discarded input sections

 .debug_line    0x0000000000000000       0x53 /home/ayyuce/Desktop/HlnOS/HelenOS/uspace/lib/c/arch/ia32/src/entry.o
 .debug_info    0x0000000000000000       0x6c /home/ayyuce/Desktop/HlnOS/HelenOS/uspace/lib/c/arch/ia32/src/entry.o
 .debug_abbrev  0x0000000000000000       0x14 /home/ayyuce/Desktop/HlnOS/HelenOS/uspace/lib/c/arch/ia32/src/entry.o
 .debug_aranges
                0x0000000000000000       0x20 /home/ayyuce/Desktop/HlnOS/HelenOS/uspace/lib/c/arch/ia32/src/entry.o
 .debug_info    0x0000000000000000     0x172c slip.o
 .debug_abbrev  0x0000000000000000      0x38a slip.o
 .debug_loc     0x0000000000000000      0x88c slip.o
 .debug_aranges
                0x0000000000000000       0x28 slip.o
 .debug_ranges  0x0000000000000000      0x320 slip.o
 .debug_line    0x0000000000000000      0x4ca slip.o
 .debug_str     0x0000000000000000     0x10d7 slip.o
 .comment       0x0000000000000000       0x12 slip.o
 .note.GNU-stack
                0x0000000000000000        0x0 slip.o
 .eh_frame      0x0000000000000000      0x1b8 slip.o
 .debug_info    0x0000000000000000      0x9f8 ../../../lib/drv/libdrv.a(remote_char_dev.o)
 .debug_abbrev  0x0000000000000000      0x243 ../../../lib/drv/libdrv.a(remote_char_dev.o)
 .debug_loc     0x0000000000000000      0x304 ../../../lib/drv/libdrv.a(remote_char_dev.o)
 .debug_aranges
                0x0000000000000000       0x20 ../../../lib/drv/libdrv.a(remote_char_dev.o)
 .debug_ranges  0x0000000000000000       0x40 ../../../lib/drv/libdrv.a(remote_char_dev.o)
 .debug_line    0x0000000000000000      0x29f ../../../lib/drv/libdrv.a(remote_char_dev.o)
 .debug_str     0x0000000000000000      0xa95 ../../../lib/drv/libdrv.a(remote_char_dev.o)
 .comment       0x0000000000000000       0x12 ../../../lib/drv/libdrv.a(remote_char_dev.o)
 .note.GNU-stack
                0x0000000000000000        0x0 ../../../lib/drv/libdrv.a(remote_char_dev.o)
 .eh_frame      0x0000000000000000      0x120 ../../../lib/drv/libdrv.a(remote_char_dev.o)

Memory Configuration

Name             Origin             Length             Attributes
*default*        0x0000000000000000 0xffffffffffffffff

Linker script and memory map

LOAD /home/ayyuce/Desktop/HlnOS/HelenOS/uspace/lib/c/arch/ia32/src/entry.o
                0x00000000000010f4                . = (0x1000 + SIZEOF_HEADERS)

.init           0x00000000000010f4       0x2e
 *(.init)
 .init          0x00000000000010f4       0x2e /home/ayyuce/Desktop/HlnOS/HelenOS/uspace/lib/c/arch/ia32/src/entry.o
                0x00000000000010f4                __entry

.text           0x0000000000001130     0x1028
 *(.text .text.*)
 .text          0x0000000000001130        0x0 /home/ayyuce/Desktop/HlnOS/HelenOS/uspace/lib/c/arch/ia32/src/entry.o
 .text          0x0000000000001130      0x785 slip.o
 *fill*         0x00000000000018b5        0xb 
 .text.startup  0x00000000000018c0      0x2c9 slip.o
                0x00000000000018c0                main
 *fill*         0x0000000000001b89        0x7 
 .text          0x0000000000001b90      0x341 ../../../lib/drv/libdrv.a(remote_char_dev.o)
                0x0000000000001d80                char_dev_read
                0x0000000000001e30                char_dev_write
 *(.rodata .rodata.*)
 .rodata.str1.1
                0x0000000000001ed1      0x141 slip.o
 *fill*         0x0000000000002012        0x2 
 .rodata.str1.4
                0x0000000000002014      0x134 slip.o
                                        0x131 (size before relaxing)
 .rodata        0x0000000000002148       0x10 ../../../lib/drv/libdrv.a(remote_char_dev.o)
                0x0000000000002148                remote_char_dev_iface

.rel.plt        0x0000000000002158      0x100
 *(.rel.plt)
 .rel.plt       0x0000000000002158      0x100 /home/ayyuce/Desktop/HlnOS/HelenOS/uspace/lib/c/arch/ia32/src/entry.o

.rel.dyn        0x0000000000002258       0x10
 *(.rel.*)
 .rel.got       0x0000000000002258        0x0 /home/ayyuce/Desktop/HlnOS/HelenOS/uspace/lib/c/arch/ia32/src/entry.o
 .rel.bss       0x0000000000002258       0x10 /home/ayyuce/Desktop/HlnOS/HelenOS/uspace/lib/c/arch/ia32/src/entry.o
 .rel.init      0x0000000000002268        0x0 /home/ayyuce/Desktop/HlnOS/HelenOS/uspace/lib/c/arch/ia32/src/entry.o
 .rel.text      0x0000000000002268        0x0 /home/ayyuce/Desktop/HlnOS/HelenOS/uspace/lib/c/arch/ia32/src/entry.o
 .rel.text.startup
                0x0000000000002268        0x0 /home/ayyuce/Desktop/HlnOS/HelenOS/uspace/lib/c/arch/ia32/src/entry.o

.plt            0x0000000000002270      0x210
 *(.plt)
 .plt           0x0000000000002270      0x210 /home/ayyuce/Desktop/HlnOS/HelenOS/uspace/lib/c/arch/ia32/src/entry.o
                0x0000000000002280                __main
                0x0000000000002290                loc_category_get_id
                0x00000000000022a0                task_retval
                0x00000000000022b0                loc_service_connect
                0x00000000000022c0                printf
                0x00000000000022d0                async_hangup
                0x00000000000022e0                async_wait_for
                0x00000000000022f0                log_init
                0x0000000000002300                async_data_write_start
                0x0000000000002310                loc_service_register
                0x0000000000002320                async_data_read_finalize
                0x0000000000002330                iplink_ev_recv
                0x0000000000002340                loc_service_get_id
                0x0000000000002350                async_answer_0
                0x0000000000002360                async_send_fast
                0x0000000000002370                log_msg
                0x0000000000002380                async_exchange_end
                0x0000000000002390                iplink_conn
                0x00000000000023a0                loc_service_add_to_cat
                0x00000000000023b0                iplink_srv_init
                0x00000000000023c0                async_data_read_receive
                0x00000000000023d0                async_data_read_start
                0x00000000000023e0                loc_server_register
                0x00000000000023f0                async_answer_1
                0x0000000000002400                async_exchange_begin
                0x0000000000002410                async_data_write_finalize
                0x0000000000002420                fibril_create_generic
                0x0000000000002430                fibril_add_ready
                0x0000000000002440                fibril_switch
                0x0000000000002450                __syscall_fast
                0x0000000000002460                async_set_fallback_port_handler
                0x0000000000002470                async_data_write_receive

.dynsym         0x0000000000002480      0x250
 *(.dynsym)
 .dynsym        0x0000000000002480      0x250 /home/ayyuce/Desktop/HlnOS/HelenOS/uspace/lib/c/arch/ia32/src/entry.o

.dynstr         0x00000000000026d0      0x27b
 *(.dynstr)
 .dynstr        0x00000000000026d0      0x27b /home/ayyuce/Desktop/HlnOS/HelenOS/uspace/lib/c/arch/ia32/src/entry.o

.hash           0x000000000000294c       0xe0
 *(.hash)
 .hash          0x000000000000294c       0xe0 /home/ayyuce/Desktop/HlnOS/HelenOS/uspace/lib/c/arch/ia32/src/entry.o

.interp         0x0000000000002a2c       0x13
 *(.interp)
 .interp        0x0000000000002a2c       0x13 /home/ayyuce/Desktop/HlnOS/HelenOS/uspace/lib/c/arch/ia32/src/entry.o
                0x0000000000003a3f                . = (. + 0x1000)

.dynamic        0x0000000000003a40       0xa8
 *(.dynamic)
 .dynamic       0x0000000000003a40       0xa8 /home/ayyuce/Desktop/HlnOS/HelenOS/uspace/lib/c/arch/ia32/src/entry.o
                0x0000000000003a40                _DYNAMIC

.data           0x0000000000003b00       0x24
 *(.data)
 .data          0x0000000000003b00        0x0 /home/ayyuce/Desktop/HlnOS/HelenOS/uspace/lib/c/arch/ia32/src/entry.o
 .data          0x0000000000003b00       0x24 slip.o
 .data          0x0000000000003b24        0x0 ../../../lib/drv/libdrv.a(remote_char_dev.o)

.data.rel
 *(.data.rel .data.rel.*)

.got            0x0000000000003b24        0x0
 *(.got)
 .got           0x0000000000003b24        0x0 /home/ayyuce/Desktop/HlnOS/HelenOS/uspace/lib/c/arch/ia32/src/entry.o

.got.plt        0x0000000000003b24       0x8c
 *(.got.plt)
 .got.plt       0x0000000000003b24       0x8c /home/ayyuce/Desktop/HlnOS/HelenOS/uspace/lib/c/arch/ia32/src/entry.o
                0x0000000000003b24                _GLOBAL_OFFSET_TABLE_

.tdata
 *(.tdata)
 *(.gnu.linkonce.tb.*)

.tbss
 *(.tbss)

.bss            0x0000000000003bc0      0xc40
 *(.dynbss)
 .dynbss        0x0000000000003bc0        0x8 /home/ayyuce/Desktop/HlnOS/HelenOS/uspace/lib/c/arch/ia32/src/entry.o
                0x0000000000003bc0                __syscall_fast_func
                0x0000000000003bc4                async_futex
 *(COMMON)
 *(.bss)
 .bss           0x0000000000003bc8        0x0 /home/ayyuce/Desktop/HlnOS/HelenOS/uspace/lib/c/arch/ia32/src/entry.o
 *fill*         0x0000000000003bc8       0x18 
 .bss           0x0000000000003be0      0xc20 slip.o
 .bss           0x0000000000004800        0x0 ../../../lib/drv/libdrv.a(remote_char_dev.o)

/DISCARD/
 *(*)
LOAD slip.o
LOAD ../../../lib/drv/libdrv.a
LOAD ../../../lib/c/libc.so.0
LOAD ../../../lib/softint/libsoftint.so.0
OUTPUT(slip elf32-i386)
