
usbflbk:     file format elf32-i386


Disassembly of section .init:

000010f4 <__entry>:
    10f4:	66 8c d0             	mov    %ss,%ax
    10f7:	8e d8                	mov    %eax,%ds
    10f9:	8e c0                	mov    %eax,%es
    10fb:	8e e0                	mov    %eax,%fs
    10fd:	b8 01 00 00 00       	mov    $0x1,%eax
    1102:	0f a2                	cpuid  
    1104:	0f ba e2 0b          	bt     $0xb,%edx
    1108:	73 0c                	jae    1116 <__entry+0x22>
    110a:	8d 05 40 19 01 00    	lea    0x11940,%eax
    1110:	c7 00 70 f9 00 00    	movl   $0xf970,(%eax)
    1116:	6a 00                	push   $0x0
    1118:	6a 00                	push   $0x0
    111a:	89 e5                	mov    %esp,%ebp
    111c:	57                   	push   %edi
    111d:	e8 de e3 00 00       	call   f500 <__main@plt>

Disassembly of section .text:

00001140 <usbfallback_device_add>:
    1140:	55                   	push   %ebp
    1141:	89 e5                	mov    %esp,%ebp
    1143:	56                   	push   %esi
    1144:	53                   	push   %ebx
    1145:	83 ec 0c             	sub    $0xc,%esp
    1148:	8b 5d 08             	mov    0x8(%ebp),%ebx
    114b:	53                   	push   %ebx
    114c:	e8 ff 10 00 00       	call   2250 <usb_device_get_name>
    1151:	89 1c 24             	mov    %ebx,(%esp)
    1154:	89 c6                	mov    %eax,%esi
    1156:	e8 f5 07 00 00       	call   1950 <usb_device_get_iface_number>
    115b:	83 c4 10             	add    $0x10,%esp
    115e:	85 c0                	test   %eax,%eax
    1160:	78 26                	js     1188 <usbfallback_device_add+0x48>
    1162:	b8 b5 d4 00 00       	mov    $0xd4b5,%eax
    1167:	83 ec 0c             	sub    $0xc,%esp
    116a:	56                   	push   %esi
    116b:	50                   	push   %eax
    116c:	68 d0 d4 00 00       	push   $0xd4d0
    1171:	6a 03                	push   $0x3
    1173:	6a ff                	push   $0xffffffff
    1175:	e8 06 e5 00 00       	call   f680 <log_msg@plt>
    117a:	8d 65 f8             	lea    -0x8(%ebp),%esp
    117d:	31 c0                	xor    %eax,%eax
    117f:	5b                   	pop    %ebx
    1180:	5e                   	pop    %esi
    1181:	5d                   	pop    %ebp
    1182:	c3                   	ret    
    1183:	90                   	nop
    1184:	8d 74 26 00          	lea    0x0(%esi,%eiz,1),%esi
    1188:	b8 ae d4 00 00       	mov    $0xd4ae,%eax
    118d:	eb d8                	jmp    1167 <usbfallback_device_add+0x27>
    118f:	90                   	nop

00001190 <usbfallback_device_gone>:
    1190:	55                   	push   %ebp
    1191:	89 e5                	mov    %esp,%ebp
    1193:	83 ec 08             	sub    $0x8,%esp
    1196:	8b 4d 08             	mov    0x8(%ebp),%ecx
    1199:	85 c9                	test   %ecx,%ecx
    119b:	74 04                	je     11a1 <usbfallback_device_gone+0x11>
    119d:	31 c0                	xor    %eax,%eax
    119f:	c9                   	leave  
    11a0:	c3                   	ret    
    11a1:	50                   	push   %eax
    11a2:	6a 3f                	push   $0x3f
    11a4:	68 bf d4 00 00       	push   $0xd4bf
    11a9:	68 84 d5 00 00       	push   $0xd584
    11ae:	e8 1d e5 00 00       	call   f6d0 <assert_abort@plt>
    11b3:	66 90                	xchg   %ax,%ax
    11b5:	66 90                	xchg   %ax,%ax
    11b7:	66 90                	xchg   %ax,%ax
    11b9:	66 90                	xchg   %ax,%ax
    11bb:	66 90                	xchg   %ax,%ax
    11bd:	66 90                	xchg   %ax,%ax
    11bf:	90                   	nop

000011c0 <main>:
    11c0:	8d 4c 24 04          	lea    0x4(%esp),%ecx
    11c4:	83 e4 f0             	and    $0xfffffff0,%esp
    11c7:	ff 71 fc             	pushl  -0x4(%ecx)
    11ca:	55                   	push   %ebp
    11cb:	89 e5                	mov    %esp,%ebp
    11cd:	51                   	push   %ecx
    11ce:	83 ec 10             	sub    $0x10,%esp
    11d1:	68 c6 d4 00 00       	push   $0xd4c6
    11d6:	e8 d5 e3 00 00       	call   f5b0 <log_init@plt>
    11db:	c7 04 24 f0 d4 00 00 	movl   $0xd4f0,(%esp)
    11e2:	e8 29 02 00 00       	call   1410 <usb_driver_main>
    11e7:	8b 4d fc             	mov    -0x4(%ebp),%ecx
    11ea:	c9                   	leave  
    11eb:	8d 61 fc             	lea    -0x4(%ecx),%esp
    11ee:	c3                   	ret    
    11ef:	90                   	nop

000011f0 <generic_device_add>:
    11f0:	55                   	push   %ebp
    11f1:	89 e5                	mov    %esp,%ebp
    11f3:	57                   	push   %edi
    11f4:	56                   	push   %esi
    11f5:	53                   	push   %ebx
    11f6:	83 ec 2c             	sub    $0x2c,%esp
    11f9:	a1 50 19 01 00       	mov    0x11950,%eax
    11fe:	8b 75 08             	mov    0x8(%ebp),%esi
    1201:	85 c0                	test   %eax,%eax
    1203:	0f 84 d5 00 00 00    	je     12de <generic_device_add+0xee>
    1209:	8b 50 08             	mov    0x8(%eax),%edx
    120c:	85 d2                	test   %edx,%edx
    120e:	0f 84 b8 00 00 00    	je     12cc <generic_device_add+0xdc>
    1214:	8b 12                	mov    (%edx),%edx
    1216:	85 d2                	test   %edx,%edx
    1218:	0f 84 9c 00 00 00    	je     12ba <generic_device_add+0xca>
    121e:	53                   	push   %ebx
    121f:	8d 55 e4             	lea    -0x1c(%ebp),%edx
    1222:	8b 78 04             	mov    0x4(%eax),%edi
    1225:	52                   	push   %edx
    1226:	c7 45 e4 00 00 00 00 	movl   $0x0,-0x1c(%ebp)
    122d:	57                   	push   %edi
    122e:	56                   	push   %esi
    122f:	e8 dc 07 00 00       	call   1a10 <usb_device_create_ddf>
    1234:	83 c4 10             	add    $0x10,%esp
    1237:	89 c3                	mov    %eax,%ebx
    1239:	85 c0                	test   %eax,%eax
    123b:	75 43                	jne    1280 <generic_device_add+0x90>
    123d:	a1 50 19 01 00       	mov    0x11950,%eax
    1242:	83 ec 0c             	sub    $0xc,%esp
    1245:	8b 40 08             	mov    0x8(%eax),%eax
    1248:	8b 18                	mov    (%eax),%ebx
    124a:	56                   	push   %esi
    124b:	e8 90 3a 00 00       	call   4ce0 <ddf_dev_data_get>
    1250:	89 04 24             	mov    %eax,(%esp)
    1253:	ff d3                	call   *%ebx
    1255:	83 c4 10             	add    $0x10,%esp
    1258:	89 c3                	mov    %eax,%ebx
    125a:	85 c0                	test   %eax,%eax
    125c:	75 0a                	jne    1268 <generic_device_add+0x78>
    125e:	8d 65 f4             	lea    -0xc(%ebp),%esp
    1261:	89 d8                	mov    %ebx,%eax
    1263:	5b                   	pop    %ebx
    1264:	5e                   	pop    %esi
    1265:	5f                   	pop    %edi
    1266:	5d                   	pop    %ebp
    1267:	c3                   	ret    
    1268:	83 ec 0c             	sub    $0xc,%esp
    126b:	56                   	push   %esi
    126c:	e8 6f 0b 00 00       	call   1de0 <usb_device_destroy_ddf>
    1271:	83 c4 10             	add    $0x10,%esp
    1274:	8d 65 f4             	lea    -0xc(%ebp),%esp
    1277:	89 d8                	mov    %ebx,%eax
    1279:	5b                   	pop    %ebx
    127a:	5e                   	pop    %esi
    127b:	5f                   	pop    %edi
    127c:	5d                   	pop    %ebp
    127d:	c3                   	ret    
    127e:	66 90                	xchg   %ax,%ax
    1280:	83 ec 0c             	sub    $0xc,%esp
    1283:	50                   	push   %eax
    1284:	e8 37 e6 00 00       	call   f8c0 <str_error@plt>
    1289:	89 34 24             	mov    %esi,(%esp)
    128c:	8b 7d e4             	mov    -0x1c(%ebp),%edi
    128f:	89 45 d4             	mov    %eax,-0x2c(%ebp)
    1292:	e8 69 3a 00 00       	call   4d00 <ddf_dev_get_name>
    1297:	5a                   	pop    %edx
    1298:	8b 55 d4             	mov    -0x2c(%ebp),%edx
    129b:	59                   	pop    %ecx
    129c:	52                   	push   %edx
    129d:	57                   	push   %edi
    129e:	50                   	push   %eax
    129f:	68 4c d5 00 00       	push   $0xd54c
    12a4:	6a 01                	push   $0x1
    12a6:	6a ff                	push   $0xffffffff
    12a8:	e8 d3 e3 00 00       	call   f680 <log_msg@plt>
    12ad:	83 c4 20             	add    $0x20,%esp
    12b0:	8d 65 f4             	lea    -0xc(%ebp),%esp
    12b3:	89 d8                	mov    %ebx,%eax
    12b5:	5b                   	pop    %ebx
    12b6:	5e                   	pop    %esi
    12b7:	5f                   	pop    %edi
    12b8:	5d                   	pop    %ebp
    12b9:	c3                   	ret    
    12ba:	50                   	push   %eax
    12bb:	6a 3a                	push   $0x3a
    12bd:	68 08 d5 00 00       	push   $0xd508
    12c2:	68 28 d5 00 00       	push   $0xd528
    12c7:	e8 04 e4 00 00       	call   f6d0 <assert_abort@plt>
    12cc:	51                   	push   %ecx
    12cd:	6a 39                	push   $0x39
    12cf:	68 08 d5 00 00       	push   $0xd508
    12d4:	68 1c d5 00 00       	push   $0xd51c
    12d9:	e8 f2 e3 00 00       	call   f6d0 <assert_abort@plt>
    12de:	53                   	push   %ebx
    12df:	6a 38                	push   $0x38
    12e1:	68 08 d5 00 00       	push   $0xd508
    12e6:	68 15 d5 00 00       	push   $0xd515
    12eb:	e8 e0 e3 00 00       	call   f6d0 <assert_abort@plt>

000012f0 <generic_device_gone>:
    12f0:	55                   	push   %ebp
    12f1:	89 e5                	mov    %esp,%ebp
    12f3:	53                   	push   %ebx
    12f4:	83 ec 14             	sub    $0x14,%esp
    12f7:	a1 50 19 01 00       	mov    0x11950,%eax
    12fc:	8b 5d 08             	mov    0x8(%ebp),%ebx
    12ff:	85 c0                	test   %eax,%eax
    1301:	74 5e                	je     1361 <generic_device_gone+0x71>
    1303:	8b 40 08             	mov    0x8(%eax),%eax
    1306:	85 c0                	test   %eax,%eax
    1308:	74 45                	je     134f <generic_device_gone+0x5f>
    130a:	8b 40 08             	mov    0x8(%eax),%eax
    130d:	85 c0                	test   %eax,%eax
    130f:	74 37                	je     1348 <generic_device_gone+0x58>
    1311:	83 ec 0c             	sub    $0xc,%esp
    1314:	53                   	push   %ebx
    1315:	e8 c6 39 00 00       	call   4ce0 <ddf_dev_data_get>
    131a:	8b 15 50 19 01 00    	mov    0x11950,%edx
    1320:	8b 52 08             	mov    0x8(%edx),%edx
    1323:	89 04 24             	mov    %eax,(%esp)
    1326:	ff 52 08             	call   *0x8(%edx)
    1329:	83 c4 10             	add    $0x10,%esp
    132c:	85 c0                	test   %eax,%eax
    132e:	75 12                	jne    1342 <generic_device_gone+0x52>
    1330:	83 ec 0c             	sub    $0xc,%esp
    1333:	89 45 f4             	mov    %eax,-0xc(%ebp)
    1336:	53                   	push   %ebx
    1337:	e8 a4 0a 00 00       	call   1de0 <usb_device_destroy_ddf>
    133c:	83 c4 10             	add    $0x10,%esp
    133f:	8b 45 f4             	mov    -0xc(%ebp),%eax
    1342:	8b 5d fc             	mov    -0x4(%ebp),%ebx
    1345:	c9                   	leave  
    1346:	c3                   	ret    
    1347:	90                   	nop
    1348:	b8 f5 ff ff ff       	mov    $0xfffffff5,%eax
    134d:	eb f3                	jmp    1342 <generic_device_gone+0x52>
    134f:	52                   	push   %edx
    1350:	6a 6c                	push   $0x6c
    1352:	68 08 d5 00 00       	push   $0xd508
    1357:	68 1c d5 00 00       	push   $0xd51c
    135c:	e8 6f e3 00 00       	call   f6d0 <assert_abort@plt>
    1361:	51                   	push   %ecx
    1362:	6a 6b                	push   $0x6b
    1364:	68 08 d5 00 00       	push   $0xd508
    1369:	68 15 d5 00 00       	push   $0xd515
    136e:	e8 5d e3 00 00       	call   f6d0 <assert_abort@plt>
    1373:	8d b6 00 00 00 00    	lea    0x0(%esi),%esi
    1379:	8d bc 27 00 00 00 00 	lea    0x0(%edi,%eiz,1),%edi

00001380 <generic_device_remove>:
    1380:	55                   	push   %ebp
    1381:	89 e5                	mov    %esp,%ebp
    1383:	53                   	push   %ebx
    1384:	83 ec 14             	sub    $0x14,%esp
    1387:	a1 50 19 01 00       	mov    0x11950,%eax
    138c:	8b 5d 08             	mov    0x8(%ebp),%ebx
    138f:	85 c0                	test   %eax,%eax
    1391:	74 5e                	je     13f1 <generic_device_remove+0x71>
    1393:	8b 40 08             	mov    0x8(%eax),%eax
    1396:	85 c0                	test   %eax,%eax
    1398:	74 45                	je     13df <generic_device_remove+0x5f>
    139a:	8b 40 04             	mov    0x4(%eax),%eax
    139d:	85 c0                	test   %eax,%eax
    139f:	74 37                	je     13d8 <generic_device_remove+0x58>
    13a1:	83 ec 0c             	sub    $0xc,%esp
    13a4:	53                   	push   %ebx
    13a5:	e8 36 39 00 00       	call   4ce0 <ddf_dev_data_get>
    13aa:	8b 15 50 19 01 00    	mov    0x11950,%edx
    13b0:	8b 52 08             	mov    0x8(%edx),%edx
    13b3:	89 04 24             	mov    %eax,(%esp)
    13b6:	ff 52 04             	call   *0x4(%edx)
    13b9:	83 c4 10             	add    $0x10,%esp
    13bc:	85 c0                	test   %eax,%eax
    13be:	75 12                	jne    13d2 <generic_device_remove+0x52>
    13c0:	83 ec 0c             	sub    $0xc,%esp
    13c3:	89 45 f4             	mov    %eax,-0xc(%ebp)
    13c6:	53                   	push   %ebx
    13c7:	e8 14 0a 00 00       	call   1de0 <usb_device_destroy_ddf>
    13cc:	83 c4 10             	add    $0x10,%esp
    13cf:	8b 45 f4             	mov    -0xc(%ebp),%eax
    13d2:	8b 5d fc             	mov    -0x4(%ebp),%ebx
    13d5:	c9                   	leave  
    13d6:	c3                   	ret    
    13d7:	90                   	nop
    13d8:	b8 f5 ff ff ff       	mov    $0xfffffff5,%eax
    13dd:	eb f3                	jmp    13d2 <generic_device_remove+0x52>
    13df:	52                   	push   %edx
    13e0:	6a 56                	push   $0x56
    13e2:	68 08 d5 00 00       	push   $0xd508
    13e7:	68 1c d5 00 00       	push   $0xd51c
    13ec:	e8 df e2 00 00       	call   f6d0 <assert_abort@plt>
    13f1:	51                   	push   %ecx
    13f2:	6a 55                	push   $0x55
    13f4:	68 08 d5 00 00       	push   $0xd508
    13f9:	68 15 d5 00 00       	push   $0xd515
    13fe:	e8 cd e2 00 00       	call   f6d0 <assert_abort@plt>
    1403:	8d b6 00 00 00 00    	lea    0x0(%esi),%esi
    1409:	8d bc 27 00 00 00 00 	lea    0x0(%edi,%eiz,1),%edi

00001410 <usb_driver_main>:
    1410:	55                   	push   %ebp
    1411:	89 e5                	mov    %esp,%ebp
    1413:	83 ec 08             	sub    $0x8,%esp
    1416:	8b 45 08             	mov    0x8(%ebp),%eax
    1419:	85 c0                	test   %eax,%eax
    141b:	74 1a                	je     1437 <usb_driver_main+0x27>
    141d:	8b 10                	mov    (%eax),%edx
    141f:	a3 50 19 01 00       	mov    %eax,0x11950
    1424:	89 15 b4 17 01 00    	mov    %edx,0x117b4
    142a:	c7 45 08 b4 17 01 00 	movl   $0x117b4,0x8(%ebp)
    1431:	c9                   	leave  
    1432:	e9 f9 3f 00 00       	jmp    5430 <ddf_driver_main>
    1437:	50                   	push   %eax
    1438:	68 8a 00 00 00       	push   $0x8a
    143d:	68 08 d5 00 00       	push   $0xd508
    1442:	68 40 d5 00 00       	push   $0xd540
    1447:	e8 84 e2 00 00       	call   f6d0 <assert_abort@plt>
    144c:	66 90                	xchg   %ax,%ax
    144e:	66 90                	xchg   %ax,%ax

00001450 <usb_device_create_pipes>:
    1450:	55                   	push   %ebp
    1451:	89 e5                	mov    %esp,%ebp
    1453:	57                   	push   %edi
    1454:	56                   	push   %esi
    1455:	53                   	push   %ebx
    1456:	83 ec 1c             	sub    $0x1c,%esp
    1459:	8b 45 08             	mov    0x8(%ebp),%eax
    145c:	8b 55 0c             	mov    0xc(%ebp),%edx
    145f:	85 c0                	test   %eax,%eax
    1461:	0f 84 92 01 00 00    	je     15f9 <usb_device_create_pipes+0x1a9>
    1467:	8b 45 08             	mov    0x8(%ebp),%eax
    146a:	8b 70 50             	mov    0x50(%eax),%esi
    146d:	85 f6                	test   %esi,%esi
    146f:	0f 84 6f 01 00 00    	je     15e4 <usb_device_create_pipes+0x194>
    1475:	8b 48 24             	mov    0x24(%eax),%ecx
    1478:	85 c9                	test   %ecx,%ecx
    147a:	0f 85 a3 01 00 00    	jne    1623 <usb_device_create_pipes+0x1d3>
    1480:	8b 58 28             	mov    0x28(%eax),%ebx
    1483:	85 db                	test   %ebx,%ebx
    1485:	0f 85 83 01 00 00    	jne    160e <usb_device_create_pipes+0x1be>
    148b:	85 d2                	test   %edx,%edx
    148d:	0f 84 0c 01 00 00    	je     159f <usb_device_create_pipes+0x14f>
    1493:	8b 02                	mov    (%edx),%eax
    1495:	85 c0                	test   %eax,%eax
    1497:	0f 84 02 01 00 00    	je     159f <usb_device_create_pipes+0x14f>
    149d:	8d 76 00             	lea    0x0(%esi),%esi
    14a0:	43                   	inc    %ebx
    14a1:	8b 04 9a             	mov    (%edx,%ebx,4),%eax
    14a4:	85 c0                	test   %eax,%eax
    14a6:	75 f8                	jne    14a0 <usb_device_create_pipes+0x50>
    14a8:	89 55 e0             	mov    %edx,-0x20(%ebp)
    14ab:	50                   	push   %eax
    14ac:	50                   	push   %eax
    14ad:	6a 34                	push   $0x34
    14af:	53                   	push   %ebx
    14b0:	e8 3b e2 00 00       	call   f6f0 <calloc@plt>
    14b5:	83 c4 10             	add    $0x10,%esp
    14b8:	89 c1                	mov    %eax,%ecx
    14ba:	89 45 e4             	mov    %eax,-0x1c(%ebp)
    14bd:	85 c0                	test   %eax,%eax
    14bf:	0f 84 13 01 00 00    	je     15d8 <usb_device_create_pipes+0x188>
    14c5:	8b 45 08             	mov    0x8(%ebp),%eax
    14c8:	8b 55 e0             	mov    -0x20(%ebp),%edx
    14cb:	89 5d e0             	mov    %ebx,-0x20(%ebp)
    14ce:	8b 78 2c             	mov    0x2c(%eax),%edi
    14d1:	8b 70 38             	mov    0x38(%eax),%esi
    14d4:	89 d0                	mov    %edx,%eax
    14d6:	8d 51 1c             	lea    0x1c(%ecx),%edx
    14d9:	8d 0c 98             	lea    (%eax,%ebx,4),%ecx
    14dc:	8d 74 26 00          	lea    0x0(%esi,%eiz,1),%esi
    14e0:	8b 18                	mov    (%eax),%ebx
    14e2:	83 c0 04             	add    $0x4,%eax
    14e5:	89 1a                	mov    %ebx,(%edx)
    14e7:	89 7a 04             	mov    %edi,0x4(%edx)
    14ea:	89 72 08             	mov    %esi,0x8(%edx)
    14ed:	83 c2 34             	add    $0x34,%edx
    14f0:	39 c1                	cmp    %eax,%ecx
    14f2:	75 ec                	jne    14e0 <usb_device_create_pipes+0x90>
    14f4:	8b 45 08             	mov    0x8(%ebp),%eax
    14f7:	83 ec 0c             	sub    $0xc,%esp
    14fa:	8b 5d e0             	mov    -0x20(%ebp),%ebx
    14fd:	8b 30                	mov    (%eax),%esi
    14ff:	8b 78 54             	mov    0x54(%eax),%edi
    1502:	56                   	push   %esi
    1503:	57                   	push   %edi
    1504:	8b 40 50             	mov    0x50(%eax),%eax
    1507:	50                   	push   %eax
    1508:	8b 45 e4             	mov    -0x1c(%ebp),%eax
    150b:	53                   	push   %ebx
    150c:	50                   	push   %eax
    150d:	e8 4e 14 00 00       	call   2960 <usb_pipe_initialize_from_configuration>
    1512:	83 c4 20             	add    $0x20,%esp
    1515:	89 45 e0             	mov    %eax,-0x20(%ebp)
    1518:	85 c0                	test   %eax,%eax
    151a:	0f 85 8b 00 00 00    	jne    15ab <usb_device_create_pipes+0x15b>
    1520:	8d 04 5b             	lea    (%ebx,%ebx,2),%eax
    1523:	8b 7d e4             	mov    -0x1c(%ebp),%edi
    1526:	89 7d dc             	mov    %edi,-0x24(%ebp)
    1529:	8d 04 83             	lea    (%ebx,%eax,4),%eax
    152c:	8d 34 87             	lea    (%edi,%eax,4),%esi
    152f:	eb 0e                	jmp    153f <usb_device_create_pipes+0xef>
    1531:	8d b4 26 00 00 00 00 	lea    0x0(%esi,%eiz,1),%esi
    1538:	83 c7 34             	add    $0x34,%edi
    153b:	39 fe                	cmp    %edi,%esi
    153d:	74 49                	je     1588 <usb_device_create_pipes+0x138>
    153f:	80 7f 30 00          	cmpb   $0x0,0x30(%edi)
    1543:	74 f3                	je     1538 <usb_device_create_pipes+0xe8>
    1545:	52                   	push   %edx
    1546:	52                   	push   %edx
    1547:	8b 47 28             	mov    0x28(%edi),%eax
    154a:	8a 48 06             	mov    0x6(%eax),%cl
    154d:	81 e1 ff 00 00 00    	and    $0xff,%ecx
    1553:	51                   	push   %ecx
    1554:	57                   	push   %edi
    1555:	e8 d6 12 00 00       	call   2830 <usb_pipe_register>
    155a:	83 c4 10             	add    $0x10,%esp
    155d:	85 c0                	test   %eax,%eax
    155f:	74 d7                	je     1538 <usb_device_create_pipes+0xe8>
    1561:	89 c7                	mov    %eax,%edi
    1563:	8b 5d dc             	mov    -0x24(%ebp),%ebx
    1566:	eb 07                	jmp    156f <usb_device_create_pipes+0x11f>
    1568:	83 c3 34             	add    $0x34,%ebx
    156b:	39 de                	cmp    %ebx,%esi
    156d:	74 50                	je     15bf <usb_device_create_pipes+0x16f>
    156f:	80 7b 30 00          	cmpb   $0x0,0x30(%ebx)
    1573:	74 f3                	je     1568 <usb_device_create_pipes+0x118>
    1575:	83 ec 0c             	sub    $0xc,%esp
    1578:	53                   	push   %ebx
    1579:	e8 52 13 00 00       	call   28d0 <usb_pipe_unregister>
    157e:	83 c4 10             	add    $0x10,%esp
    1581:	eb e5                	jmp    1568 <usb_device_create_pipes+0x118>
    1583:	90                   	nop
    1584:	8d 74 26 00          	lea    0x0(%esi,%eiz,1),%esi
    1588:	8b 45 08             	mov    0x8(%ebp),%eax
    158b:	8b 75 e4             	mov    -0x1c(%ebp),%esi
    158e:	89 70 24             	mov    %esi,0x24(%eax)
    1591:	89 58 28             	mov    %ebx,0x28(%eax)
    1594:	8b 45 e0             	mov    -0x20(%ebp),%eax
    1597:	8d 65 f4             	lea    -0xc(%ebp),%esp
    159a:	5b                   	pop    %ebx
    159b:	5e                   	pop    %esi
    159c:	5f                   	pop    %edi
    159d:	5d                   	pop    %ebp
    159e:	c3                   	ret    
    159f:	c7 45 e0 00 00 00 00 	movl   $0x0,-0x20(%ebp)
    15a6:	8b 45 e0             	mov    -0x20(%ebp),%eax
    15a9:	eb ec                	jmp    1597 <usb_device_create_pipes+0x147>
    15ab:	83 ec 0c             	sub    $0xc,%esp
    15ae:	8b 4d e4             	mov    -0x1c(%ebp),%ecx
    15b1:	51                   	push   %ecx
    15b2:	e8 e9 e3 00 00       	call   f9a0 <free@plt>
    15b7:	83 c4 10             	add    $0x10,%esp
    15ba:	8b 45 e0             	mov    -0x20(%ebp),%eax
    15bd:	eb d8                	jmp    1597 <usb_device_create_pipes+0x147>
    15bf:	83 ec 0c             	sub    $0xc,%esp
    15c2:	8b 45 e4             	mov    -0x1c(%ebp),%eax
    15c5:	89 7d e0             	mov    %edi,-0x20(%ebp)
    15c8:	50                   	push   %eax
    15c9:	e8 d2 e3 00 00       	call   f9a0 <free@plt>
    15ce:	8b 55 e0             	mov    -0x20(%ebp),%edx
    15d1:	83 c4 10             	add    $0x10,%esp
    15d4:	89 d0                	mov    %edx,%eax
    15d6:	eb bf                	jmp    1597 <usb_device_create_pipes+0x147>
    15d8:	c7 45 e0 fe ff ff ff 	movl   $0xfffffffe,-0x20(%ebp)
    15df:	8b 45 e0             	mov    -0x20(%ebp),%eax
    15e2:	eb b3                	jmp    1597 <usb_device_create_pipes+0x147>
    15e4:	53                   	push   %ebx
    15e5:	68 df 00 00 00       	push   $0xdf
    15ea:	68 73 d5 00 00       	push   $0xd573
    15ef:	68 3c d6 00 00       	push   $0xd63c
    15f4:	e8 d7 e0 00 00       	call   f6d0 <assert_abort@plt>
    15f9:	57                   	push   %edi
    15fa:	68 de 00 00 00       	push   $0xde
    15ff:	68 73 d5 00 00       	push   $0xd573
    1604:	68 80 d5 00 00       	push   $0xd580
    1609:	e8 c2 e0 00 00       	call   f6d0 <assert_abort@plt>
    160e:	50                   	push   %eax
    160f:	68 e1 00 00 00       	push   $0xe1
    1614:	68 73 d5 00 00       	push   $0xd573
    1619:	68 9f d5 00 00       	push   $0xd59f
    161e:	e8 ad e0 00 00       	call   f6d0 <assert_abort@plt>
    1623:	52                   	push   %edx
    1624:	68 e0 00 00 00       	push   $0xe0
    1629:	68 73 d5 00 00       	push   $0xd573
    162e:	68 88 d5 00 00       	push   $0xd588
    1633:	e8 98 e0 00 00       	call   f6d0 <assert_abort@plt>
    1638:	90                   	nop
    1639:	8d b4 26 00 00 00 00 	lea    0x0(%esi,%eiz,1),%esi

00001640 <usb_device_select_interface>:
    1640:	55                   	push   %ebp
    1641:	89 e5                	mov    %esp,%ebp
    1643:	57                   	push   %edi
    1644:	56                   	push   %esi
    1645:	53                   	push   %ebx
    1646:	83 ec 1c             	sub    $0x1c,%esp
    1649:	8b 75 08             	mov    0x8(%ebp),%esi
    164c:	8b 45 10             	mov    0x10(%ebp),%eax
    164f:	8b 5d 0c             	mov    0xc(%ebp),%ebx
    1652:	89 45 e4             	mov    %eax,-0x1c(%ebp)
    1655:	85 f6                	test   %esi,%esi
    1657:	0f 84 05 01 00 00    	je     1762 <usb_device_select_interface+0x122>
    165d:	8b 46 2c             	mov    0x2c(%esi),%eax
    1660:	85 c0                	test   %eax,%eax
    1662:	0f 88 f0 00 00 00    	js     1758 <usb_device_select_interface+0x118>
    1668:	25 ff 00 00 00       	and    $0xff,%eax
    166d:	81 e3 ff 00 00 00    	and    $0xff,%ebx
    1673:	57                   	push   %edi
    1674:	53                   	push   %ebx
    1675:	50                   	push   %eax
    1676:	8d 46 08             	lea    0x8(%esi),%eax
    1679:	50                   	push   %eax
    167a:	e8 81 1f 00 00       	call   3600 <usb_request_set_interface>
    167f:	83 c4 10             	add    $0x10,%esp
    1682:	85 c0                	test   %eax,%eax
    1684:	74 0a                	je     1690 <usb_device_select_interface+0x50>
    1686:	8d 65 f4             	lea    -0xc(%ebp),%esp
    1689:	5b                   	pop    %ebx
    168a:	5e                   	pop    %esi
    168b:	5f                   	pop    %edi
    168c:	5d                   	pop    %ebp
    168d:	c3                   	ret    
    168e:	66 90                	xchg   %ax,%ax
    1690:	8b 46 24             	mov    0x24(%esi),%eax
    1693:	89 5e 38             	mov    %ebx,0x38(%esi)
    1696:	85 c0                	test   %eax,%eax
    1698:	0f 84 9a 00 00 00    	je     1738 <usb_device_select_interface+0xf8>
    169e:	8b 4e 28             	mov    0x28(%esi),%ecx
    16a1:	85 c9                	test   %ecx,%ecx
    16a3:	74 61                	je     1706 <usb_device_select_interface+0xc6>
    16a5:	31 ff                	xor    %edi,%edi
    16a7:	eb 0d                	jmp    16b6 <usb_device_select_interface+0x76>
    16a9:	8d b4 26 00 00 00 00 	lea    0x0(%esi,%eiz,1),%esi
    16b0:	47                   	inc    %edi
    16b1:	3b 7e 28             	cmp    0x28(%esi),%edi
    16b4:	73 50                	jae    1706 <usb_device_select_interface+0xc6>
    16b6:	8d 0c 7f             	lea    (%edi,%edi,2),%ecx
    16b9:	8d 1c 8f             	lea    (%edi,%ecx,4),%ebx
    16bc:	b9 b9 d5 00 00       	mov    $0xd5b9,%ecx
    16c1:	c1 e3 02             	shl    $0x2,%ebx
    16c4:	80 7c 18 30 00       	cmpb   $0x0,0x30(%eax,%ebx,1)
    16c9:	74 05                	je     16d0 <usb_device_select_interface+0x90>
    16cb:	b9 06 f2 00 00       	mov    $0xf206,%ecx
    16d0:	83 ec 0c             	sub    $0xc,%esp
    16d3:	51                   	push   %ecx
    16d4:	57                   	push   %edi
    16d5:	68 8c d6 00 00       	push   $0xd68c
    16da:	6a 05                	push   $0x5
    16dc:	6a ff                	push   $0xffffffff
    16de:	e8 9d df 00 00       	call   f680 <log_msg@plt>
    16e3:	8b 46 24             	mov    0x24(%esi),%eax
    16e6:	83 c4 20             	add    $0x20,%esp
    16e9:	01 c3                	add    %eax,%ebx
    16eb:	80 7b 30 00          	cmpb   $0x0,0x30(%ebx)
    16ef:	74 bf                	je     16b0 <usb_device_select_interface+0x70>
    16f1:	83 ec 0c             	sub    $0xc,%esp
    16f4:	47                   	inc    %edi
    16f5:	53                   	push   %ebx
    16f6:	e8 d5 11 00 00       	call   28d0 <usb_pipe_unregister>
    16fb:	83 c4 10             	add    $0x10,%esp
    16fe:	8b 46 24             	mov    0x24(%esi),%eax
    1701:	3b 7e 28             	cmp    0x28(%esi),%edi
    1704:	72 b0                	jb     16b6 <usb_device_select_interface+0x76>
    1706:	83 ec 0c             	sub    $0xc,%esp
    1709:	50                   	push   %eax
    170a:	e8 91 e2 00 00       	call   f9a0 <free@plt>
    170f:	8b 45 e4             	mov    -0x1c(%ebp),%eax
    1712:	c7 46 24 00 00 00 00 	movl   $0x0,0x24(%esi)
    1719:	c7 46 28 00 00 00 00 	movl   $0x0,0x28(%esi)
    1720:	83 c4 10             	add    $0x10,%esp
    1723:	89 75 08             	mov    %esi,0x8(%ebp)
    1726:	89 45 0c             	mov    %eax,0xc(%ebp)
    1729:	8d 65 f4             	lea    -0xc(%ebp),%esp
    172c:	5b                   	pop    %ebx
    172d:	5e                   	pop    %esi
    172e:	5f                   	pop    %edi
    172f:	5d                   	pop    %ebp
    1730:	e9 1b fd ff ff       	jmp    1450 <usb_device_create_pipes>
    1735:	8d 76 00             	lea    0x0(%esi),%esi
    1738:	8b 56 28             	mov    0x28(%esi),%edx
    173b:	85 d2                	test   %edx,%edx
    173d:	74 c7                	je     1706 <usb_device_select_interface+0xc6>
    173f:	50                   	push   %eax
    1740:	68 29 01 00 00       	push   $0x129
    1745:	68 73 d5 00 00       	push   $0xd573
    174a:	68 60 d6 00 00       	push   $0xd660
    174f:	e8 7c df 00 00       	call   f6d0 <assert_abort@plt>
    1754:	8d 74 26 00          	lea    0x0(%esi,%eiz,1),%esi
    1758:	b8 f2 ff ff ff       	mov    $0xfffffff2,%eax
    175d:	e9 24 ff ff ff       	jmp    1686 <usb_device_select_interface+0x46>
    1762:	50                   	push   %eax
    1763:	68 88 00 00 00       	push   $0x88
    1768:	68 73 d5 00 00       	push   $0xd573
    176d:	68 80 d5 00 00       	push   $0xd580
    1772:	e8 59 df 00 00       	call   f6d0 <assert_abort@plt>
    1777:	89 f6                	mov    %esi,%esi
    1779:	8d bc 27 00 00 00 00 	lea    0x0(%edi,%eiz,1),%edi

00001780 <usb_device_destroy_pipes>:
    1780:	55                   	push   %ebp
    1781:	89 e5                	mov    %esp,%ebp
    1783:	57                   	push   %edi
    1784:	56                   	push   %esi
    1785:	53                   	push   %ebx
    1786:	83 ec 0c             	sub    $0xc,%esp
    1789:	8b 75 08             	mov    0x8(%ebp),%esi
    178c:	85 f6                	test   %esi,%esi
    178e:	0f 84 b0 00 00 00    	je     1844 <usb_device_destroy_pipes+0xc4>
    1794:	8b 46 24             	mov    0x24(%esi),%eax
    1797:	85 c0                	test   %eax,%eax
    1799:	0f 84 89 00 00 00    	je     1828 <usb_device_destroy_pipes+0xa8>
    179f:	8b 56 28             	mov    0x28(%esi),%edx
    17a2:	85 d2                	test   %edx,%edx
    17a4:	74 60                	je     1806 <usb_device_destroy_pipes+0x86>
    17a6:	31 ff                	xor    %edi,%edi
    17a8:	eb 0c                	jmp    17b6 <usb_device_destroy_pipes+0x36>
    17aa:	8d b6 00 00 00 00    	lea    0x0(%esi),%esi
    17b0:	47                   	inc    %edi
    17b1:	39 7e 28             	cmp    %edi,0x28(%esi)
    17b4:	76 50                	jbe    1806 <usb_device_destroy_pipes+0x86>
    17b6:	8d 14 7f             	lea    (%edi,%edi,2),%edx
    17b9:	8d 1c 97             	lea    (%edi,%edx,4),%ebx
    17bc:	ba b9 d5 00 00       	mov    $0xd5b9,%edx
    17c1:	c1 e3 02             	shl    $0x2,%ebx
    17c4:	80 7c 18 30 00       	cmpb   $0x0,0x30(%eax,%ebx,1)
    17c9:	74 05                	je     17d0 <usb_device_destroy_pipes+0x50>
    17cb:	ba 06 f2 00 00       	mov    $0xf206,%edx
    17d0:	83 ec 0c             	sub    $0xc,%esp
    17d3:	52                   	push   %edx
    17d4:	57                   	push   %edi
    17d5:	68 8c d6 00 00       	push   $0xd68c
    17da:	6a 05                	push   $0x5
    17dc:	6a ff                	push   $0xffffffff
    17de:	e8 9d de 00 00       	call   f680 <log_msg@plt>
    17e3:	8b 46 24             	mov    0x24(%esi),%eax
    17e6:	83 c4 20             	add    $0x20,%esp
    17e9:	01 c3                	add    %eax,%ebx
    17eb:	80 7b 30 00          	cmpb   $0x0,0x30(%ebx)
    17ef:	74 bf                	je     17b0 <usb_device_destroy_pipes+0x30>
    17f1:	83 ec 0c             	sub    $0xc,%esp
    17f4:	47                   	inc    %edi
    17f5:	53                   	push   %ebx
    17f6:	e8 d5 10 00 00       	call   28d0 <usb_pipe_unregister>
    17fb:	83 c4 10             	add    $0x10,%esp
    17fe:	8b 46 24             	mov    0x24(%esi),%eax
    1801:	39 7e 28             	cmp    %edi,0x28(%esi)
    1804:	77 b0                	ja     17b6 <usb_device_destroy_pipes+0x36>
    1806:	83 ec 0c             	sub    $0xc,%esp
    1809:	50                   	push   %eax
    180a:	e8 91 e1 00 00       	call   f9a0 <free@plt>
    180f:	c7 46 24 00 00 00 00 	movl   $0x0,0x24(%esi)
    1816:	c7 46 28 00 00 00 00 	movl   $0x0,0x28(%esi)
    181d:	83 c4 10             	add    $0x10,%esp
    1820:	8d 65 f4             	lea    -0xc(%ebp),%esp
    1823:	5b                   	pop    %ebx
    1824:	5e                   	pop    %esi
    1825:	5f                   	pop    %edi
    1826:	5d                   	pop    %ebp
    1827:	c3                   	ret    
    1828:	8b 4e 28             	mov    0x28(%esi),%ecx
    182b:	85 c9                	test   %ecx,%ecx
    182d:	74 d7                	je     1806 <usb_device_destroy_pipes+0x86>
    182f:	50                   	push   %eax
    1830:	68 29 01 00 00       	push   $0x129
    1835:	68 73 d5 00 00       	push   $0xd573
    183a:	68 60 d6 00 00       	push   $0xd660
    183f:	e8 8c de 00 00       	call   f6d0 <assert_abort@plt>
    1844:	53                   	push   %ebx
    1845:	68 28 01 00 00       	push   $0x128
    184a:	68 73 d5 00 00       	push   $0xd573
    184f:	68 80 d5 00 00       	push   $0xd580
    1854:	e8 77 de 00 00       	call   f6d0 <assert_abort@plt>
    1859:	8d b4 26 00 00 00 00 	lea    0x0(%esi,%eiz,1),%esi

00001860 <usb_device_get_default_pipe>:
    1860:	55                   	push   %ebp
    1861:	89 e5                	mov    %esp,%ebp
    1863:	83 ec 08             	sub    $0x8,%esp
    1866:	8b 45 08             	mov    0x8(%ebp),%eax
    1869:	85 c0                	test   %eax,%eax
    186b:	74 05                	je     1872 <usb_device_get_default_pipe+0x12>
    186d:	83 c0 08             	add    $0x8,%eax
    1870:	c9                   	leave  
    1871:	c3                   	ret    
    1872:	50                   	push   %eax
    1873:	68 3a 01 00 00       	push   $0x13a
    1878:	68 73 d5 00 00       	push   $0xd573
    187d:	68 80 d5 00 00       	push   $0xd580
    1882:	e8 49 de 00 00       	call   f6d0 <assert_abort@plt>
    1887:	89 f6                	mov    %esi,%esi
    1889:	8d bc 27 00 00 00 00 	lea    0x0(%edi,%eiz,1),%edi

00001890 <usb_device_get_mapped_ep_desc>:
    1890:	55                   	push   %ebp
    1891:	89 e5                	mov    %esp,%ebp
    1893:	56                   	push   %esi
    1894:	53                   	push   %ebx
    1895:	8b 45 08             	mov    0x8(%ebp),%eax
    1898:	8b 75 0c             	mov    0xc(%ebp),%esi
    189b:	85 c0                	test   %eax,%eax
    189d:	74 31                	je     18d0 <usb_device_get_mapped_ep_desc+0x40>
    189f:	8b 58 28             	mov    0x28(%eax),%ebx
    18a2:	85 db                	test   %ebx,%ebx
    18a4:	74 21                	je     18c7 <usb_device_get_mapped_ep_desc+0x37>
    18a6:	8b 40 24             	mov    0x24(%eax),%eax
    18a9:	3b 70 1c             	cmp    0x1c(%eax),%esi
    18ac:	74 1b                	je     18c9 <usb_device_get_mapped_ep_desc+0x39>
    18ae:	8d 50 34             	lea    0x34(%eax),%edx
    18b1:	31 c9                	xor    %ecx,%ecx
    18b3:	eb 0d                	jmp    18c2 <usb_device_get_mapped_ep_desc+0x32>
    18b5:	8d 76 00             	lea    0x0(%esi),%esi
    18b8:	89 d0                	mov    %edx,%eax
    18ba:	83 c2 34             	add    $0x34,%edx
    18bd:	39 72 e8             	cmp    %esi,-0x18(%edx)
    18c0:	74 07                	je     18c9 <usb_device_get_mapped_ep_desc+0x39>
    18c2:	41                   	inc    %ecx
    18c3:	39 d9                	cmp    %ebx,%ecx
    18c5:	75 f1                	jne    18b8 <usb_device_get_mapped_ep_desc+0x28>
    18c7:	31 c0                	xor    %eax,%eax
    18c9:	8d 65 f8             	lea    -0x8(%ebp),%esp
    18cc:	5b                   	pop    %ebx
    18cd:	5e                   	pop    %esi
    18ce:	5d                   	pop    %ebp
    18cf:	c3                   	ret    
    18d0:	50                   	push   %eax
    18d1:	68 41 01 00 00       	push   $0x141
    18d6:	68 73 d5 00 00       	push   $0xd573
    18db:	68 80 d5 00 00       	push   $0xd580
    18e0:	e8 eb dd 00 00       	call   f6d0 <assert_abort@plt>
    18e5:	8d 74 26 00          	lea    0x0(%esi,%eiz,1),%esi
    18e9:	8d bc 27 00 00 00 00 	lea    0x0(%edi,%eiz,1),%edi

000018f0 <usb_device_get_mapped_ep>:
    18f0:	55                   	push   %ebp
    18f1:	89 e5                	mov    %esp,%ebp
    18f3:	56                   	push   %esi
    18f4:	53                   	push   %ebx
    18f5:	8b 45 08             	mov    0x8(%ebp),%eax
    18f8:	8b 55 0c             	mov    0xc(%ebp),%edx
    18fb:	85 c0                	test   %eax,%eax
    18fd:	74 32                	je     1931 <usb_device_get_mapped_ep+0x41>
    18ff:	8b 58 28             	mov    0x28(%eax),%ebx
    1902:	85 db                	test   %ebx,%ebx
    1904:	74 22                	je     1928 <usb_device_get_mapped_ep+0x38>
    1906:	8b 40 24             	mov    0x24(%eax),%eax
    1909:	66 3b 10             	cmp    (%eax),%dx
    190c:	74 1c                	je     192a <usb_device_get_mapped_ep+0x3a>
    190e:	89 d6                	mov    %edx,%esi
    1910:	31 c9                	xor    %ecx,%ecx
    1912:	8d 50 34             	lea    0x34(%eax),%edx
    1915:	eb 0c                	jmp    1923 <usb_device_get_mapped_ep+0x33>
    1917:	90                   	nop
    1918:	89 d0                	mov    %edx,%eax
    191a:	83 c2 34             	add    $0x34,%edx
    191d:	66 39 72 cc          	cmp    %si,-0x34(%edx)
    1921:	74 07                	je     192a <usb_device_get_mapped_ep+0x3a>
    1923:	41                   	inc    %ecx
    1924:	39 d9                	cmp    %ebx,%ecx
    1926:	75 f0                	jne    1918 <usb_device_get_mapped_ep+0x28>
    1928:	31 c0                	xor    %eax,%eax
    192a:	8d 65 f8             	lea    -0x8(%ebp),%esp
    192d:	5b                   	pop    %ebx
    192e:	5e                   	pop    %esi
    192f:	5d                   	pop    %ebp
    1930:	c3                   	ret    
    1931:	50                   	push   %eax
    1932:	68 4c 01 00 00       	push   $0x14c
    1937:	68 73 d5 00 00       	push   $0xd573
    193c:	68 80 d5 00 00       	push   $0xd580
    1941:	e8 8a dd 00 00       	call   f6d0 <assert_abort@plt>
    1946:	8d 76 00             	lea    0x0(%esi),%esi
    1949:	8d bc 27 00 00 00 00 	lea    0x0(%edi,%eiz,1),%edi

00001950 <usb_device_get_iface_number>:
    1950:	55                   	push   %ebp
    1951:	89 e5                	mov    %esp,%ebp
    1953:	83 ec 08             	sub    $0x8,%esp
    1956:	8b 45 08             	mov    0x8(%ebp),%eax
    1959:	85 c0                	test   %eax,%eax
    195b:	74 05                	je     1962 <usb_device_get_iface_number+0x12>
    195d:	8b 40 2c             	mov    0x2c(%eax),%eax
    1960:	c9                   	leave  
    1961:	c3                   	ret    
    1962:	50                   	push   %eax
    1963:	68 56 01 00 00       	push   $0x156
    1968:	68 73 d5 00 00       	push   $0xd573
    196d:	68 80 d5 00 00       	push   $0xd580
    1972:	e8 59 dd 00 00       	call   f6d0 <assert_abort@plt>
    1977:	89 f6                	mov    %esi,%esi
    1979:	8d bc 27 00 00 00 00 	lea    0x0(%edi,%eiz,1),%edi

00001980 <usb_device_get_devman_handle>:
    1980:	55                   	push   %ebp
    1981:	89 e5                	mov    %esp,%ebp
    1983:	83 ec 08             	sub    $0x8,%esp
    1986:	8b 45 08             	mov    0x8(%ebp),%eax
    1989:	85 c0                	test   %eax,%eax
    198b:	74 05                	je     1992 <usb_device_get_devman_handle+0x12>
    198d:	8b 40 04             	mov    0x4(%eax),%eax
    1990:	c9                   	leave  
    1991:	c3                   	ret    
    1992:	50                   	push   %eax
    1993:	68 5c 01 00 00       	push   $0x15c
    1998:	68 73 d5 00 00       	push   $0xd573
    199d:	68 80 d5 00 00       	push   $0xd580
    19a2:	e8 29 dd 00 00       	call   f6d0 <assert_abort@plt>
    19a7:	89 f6                	mov    %esi,%esi
    19a9:	8d bc 27 00 00 00 00 	lea    0x0(%edi,%eiz,1),%edi

000019b0 <usb_device_descriptors>:
    19b0:	55                   	push   %ebp
    19b1:	89 e5                	mov    %esp,%ebp
    19b3:	83 ec 08             	sub    $0x8,%esp
    19b6:	8b 45 08             	mov    0x8(%ebp),%eax
    19b9:	85 c0                	test   %eax,%eax
    19bb:	74 05                	je     19c2 <usb_device_descriptors+0x12>
    19bd:	83 c0 3c             	add    $0x3c,%eax
    19c0:	c9                   	leave  
    19c1:	c3                   	ret    
    19c2:	50                   	push   %eax
    19c3:	68 62 01 00 00       	push   $0x162
    19c8:	68 73 d5 00 00       	push   $0xd573
    19cd:	68 80 d5 00 00       	push   $0xd580
    19d2:	e8 f9 dc 00 00       	call   f6d0 <assert_abort@plt>
    19d7:	89 f6                	mov    %esi,%esi
    19d9:	8d bc 27 00 00 00 00 	lea    0x0(%edi,%eiz,1),%edi

000019e0 <usb_device_get_alternative_ifaces>:
    19e0:	55                   	push   %ebp
    19e1:	89 e5                	mov    %esp,%ebp
    19e3:	83 ec 08             	sub    $0x8,%esp
    19e6:	8b 45 08             	mov    0x8(%ebp),%eax
    19e9:	85 c0                	test   %eax,%eax
    19eb:	74 05                	je     19f2 <usb_device_get_alternative_ifaces+0x12>
    19ed:	83 c0 30             	add    $0x30,%eax
    19f0:	c9                   	leave  
    19f1:	c3                   	ret    
    19f2:	50                   	push   %eax
    19f3:	68 69 01 00 00       	push   $0x169
    19f8:	68 73 d5 00 00       	push   $0xd573
    19fd:	68 80 d5 00 00       	push   $0xd580
    1a02:	e8 c9 dc 00 00       	call   f6d0 <assert_abort@plt>
    1a07:	89 f6                	mov    %esi,%esi
    1a09:	8d bc 27 00 00 00 00 	lea    0x0(%edi,%eiz,1),%edi

00001a10 <usb_device_create_ddf>:
    1a10:	55                   	push   %ebp
    1a11:	89 e5                	mov    %esp,%ebp
    1a13:	57                   	push   %edi
    1a14:	56                   	push   %esi
    1a15:	53                   	push   %ebx
    1a16:	83 ec 2c             	sub    $0x2c,%esp
    1a19:	8b 45 08             	mov    0x8(%ebp),%eax
    1a1c:	85 c0                	test   %eax,%eax
    1a1e:	0f 84 78 03 00 00    	je     1d9c <usb_device_create_ddf+0x38c>
    1a24:	8b 75 10             	mov    0x10(%ebp),%esi
    1a27:	85 f6                	test   %esi,%esi
    1a29:	0f 84 82 03 00 00    	je     1db1 <usb_device_create_ddf+0x3a1>
    1a2f:	83 ec 0c             	sub    $0xc,%esp
    1a32:	8b 45 08             	mov    0x8(%ebp),%eax
    1a35:	c7 45 e0 00 00 00 00 	movl   $0x0,-0x20(%ebp)
    1a3c:	c7 45 e4 ff ff ff ff 	movl   $0xffffffff,-0x1c(%ebp)
    1a43:	50                   	push   %eax
    1a44:	e8 a7 32 00 00       	call   4cf0 <ddf_dev_get_handle>
    1a49:	5a                   	pop    %edx
    1a4a:	59                   	pop    %ecx
    1a4b:	6a 01                	push   $0x1
    1a4d:	50                   	push   %eax
    1a4e:	e8 4d db 00 00       	call   f5a0 <devman_parent_device_connect@plt>
    1a53:	83 c4 10             	add    $0x10,%esp
    1a56:	89 c3                	mov    %eax,%ebx
    1a58:	85 c0                	test   %eax,%eax
    1a5a:	0f 84 d0 02 00 00    	je     1d30 <usb_device_create_ddf+0x320>
    1a60:	83 ec 0c             	sub    $0xc,%esp
    1a63:	50                   	push   %eax
    1a64:	e8 47 de 00 00       	call   f8b0 <async_exchange_begin@plt>
    1a69:	83 c4 10             	add    $0x10,%esp
    1a6c:	89 c7                	mov    %eax,%edi
    1a6e:	85 c0                	test   %eax,%eax
    1a70:	0f 84 ca 02 00 00    	je     1d40 <usb_device_create_ddf+0x330>
    1a76:	50                   	push   %eax
    1a77:	50                   	push   %eax
    1a78:	8d 45 e0             	lea    -0x20(%ebp),%eax
    1a7b:	50                   	push   %eax
    1a7c:	57                   	push   %edi
    1a7d:	e8 1e 9b 00 00       	call   b5a0 <usb_get_my_device_handle>
    1a82:	83 c4 10             	add    $0x10,%esp
    1a85:	89 c6                	mov    %eax,%esi
    1a87:	85 c0                	test   %eax,%eax
    1a89:	74 25                	je     1ab0 <usb_device_create_ddf+0xa0>
    1a8b:	83 ec 0c             	sub    $0xc,%esp
    1a8e:	57                   	push   %edi
    1a8f:	e8 2c dc 00 00       	call   f6c0 <async_exchange_end@plt>
    1a94:	89 1c 24             	mov    %ebx,(%esp)
    1a97:	e8 d4 da 00 00       	call   f570 <async_hangup@plt>
    1a9c:	83 c4 10             	add    $0x10,%esp
    1a9f:	8d 65 f4             	lea    -0xc(%ebp),%esp
    1aa2:	89 f0                	mov    %esi,%eax
    1aa4:	5b                   	pop    %ebx
    1aa5:	5e                   	pop    %esi
    1aa6:	5f                   	pop    %edi
    1aa7:	5d                   	pop    %ebp
    1aa8:	c3                   	ret    
    1aa9:	8d b4 26 00 00 00 00 	lea    0x0(%esi,%eiz,1),%esi
    1ab0:	8d 45 e4             	lea    -0x1c(%ebp),%eax
    1ab3:	56                   	push   %esi
    1ab4:	56                   	push   %esi
    1ab5:	50                   	push   %eax
    1ab6:	57                   	push   %edi
    1ab7:	e8 94 9a 00 00       	call   b550 <usb_get_my_interface>
    1abc:	83 c4 10             	add    $0x10,%esp
    1abf:	89 c6                	mov    %eax,%esi
    1ac1:	83 f8 f5             	cmp    $0xfffffff5,%eax
    1ac4:	0f 84 d6 01 00 00    	je     1ca0 <usb_device_create_ddf+0x290>
    1aca:	83 ec 0c             	sub    $0xc,%esp
    1acd:	57                   	push   %edi
    1ace:	e8 ed db 00 00       	call   f6c0 <async_exchange_end@plt>
    1ad3:	89 1c 24             	mov    %ebx,(%esp)
    1ad6:	e8 95 da 00 00       	call   f570 <async_hangup@plt>
    1adb:	83 c4 10             	add    $0x10,%esp
    1ade:	85 f6                	test   %esi,%esi
    1ae0:	75 bd                	jne    1a9f <usb_device_create_ddf+0x8f>
    1ae2:	8b 5d 08             	mov    0x8(%ebp),%ebx
    1ae5:	51                   	push   %ecx
    1ae6:	51                   	push   %ecx
    1ae7:	6a 60                	push   $0x60
    1ae9:	53                   	push   %ebx
    1aea:	e8 b1 31 00 00       	call   4ca0 <ddf_dev_data_alloc>
    1aef:	83 c4 10             	add    $0x10,%esp
    1af2:	89 c3                	mov    %eax,%ebx
    1af4:	85 c0                	test   %eax,%eax
    1af6:	0f 84 5a 02 00 00    	je     1d56 <usb_device_create_ddf+0x346>
    1afc:	8b 4d 10             	mov    0x10(%ebp),%ecx
    1aff:	83 ec 0c             	sub    $0xc,%esp
    1b02:	8b 45 e0             	mov    -0x20(%ebp),%eax
    1b05:	8b 55 e4             	mov    -0x1c(%ebp),%edx
    1b08:	c7 01 00 00 00 00    	movl   $0x0,(%ecx)
    1b0e:	8b 4d 08             	mov    0x8(%ebp),%ecx
    1b11:	89 4b 58             	mov    %ecx,0x58(%ebx)
    1b14:	89 43 04             	mov    %eax,0x4(%ebx)
    1b17:	89 53 2c             	mov    %edx,0x2c(%ebx)
    1b1a:	c7 43 5c 00 00 00 00 	movl   $0x0,0x5c(%ebx)
    1b21:	c7 43 50 00 00 00 00 	movl   $0x0,0x50(%ebx)
    1b28:	c7 43 54 00 00 00 00 	movl   $0x0,0x54(%ebx)
    1b2f:	c7 43 28 00 00 00 00 	movl   $0x0,0x28(%ebx)
    1b36:	c7 43 24 00 00 00 00 	movl   $0x0,0x24(%ebx)
    1b3d:	50                   	push   %eax
    1b3e:	e8 ad 99 00 00       	call   b4f0 <usb_dev_connect>
    1b43:	83 c4 10             	add    $0x10,%esp
    1b46:	89 03                	mov    %eax,(%ebx)
    1b48:	85 c0                	test   %eax,%eax
    1b4a:	0f 84 19 02 00 00    	je     1d69 <usb_device_create_ddf+0x359>
    1b50:	8d 7b 08             	lea    0x8(%ebx),%edi
    1b53:	52                   	push   %edx
    1b54:	52                   	push   %edx
    1b55:	50                   	push   %eax
    1b56:	57                   	push   %edi
    1b57:	e8 74 0c 00 00       	call   27d0 <usb_pipe_initialize_default_control>
    1b5c:	83 c4 10             	add    $0x10,%esp
    1b5f:	89 c6                	mov    %eax,%esi
    1b61:	85 c0                	test   %eax,%eax
    1b63:	0f 85 0f 01 00 00    	jne    1c78 <usb_device_create_ddf+0x268>
    1b69:	8b 43 50             	mov    0x50(%ebx),%eax
    1b6c:	85 c0                	test   %eax,%eax
    1b6e:	0f 85 52 02 00 00    	jne    1dc6 <usb_device_create_ddf+0x3b6>
    1b74:	50                   	push   %eax
    1b75:	50                   	push   %eax
    1b76:	8d 43 3c             	lea    0x3c(%ebx),%eax
    1b79:	50                   	push   %eax
    1b7a:	57                   	push   %edi
    1b7b:	e8 70 15 00 00       	call   30f0 <usb_request_get_device_descriptor>
    1b80:	83 c4 10             	add    $0x10,%esp
    1b83:	89 c6                	mov    %eax,%esi
    1b85:	85 c0                	test   %eax,%eax
    1b87:	74 1f                	je     1ba8 <usb_device_create_ddf+0x198>
    1b89:	8b 45 10             	mov    0x10(%ebp),%eax
    1b8c:	83 ec 0c             	sub    $0xc,%esp
    1b8f:	c7 00 f3 d5 00 00    	movl   $0xd5f3,(%eax)
    1b95:	8b 03                	mov    (%ebx),%eax
    1b97:	50                   	push   %eax
    1b98:	e8 93 99 00 00       	call   b530 <usb_dev_disconnect>
    1b9d:	83 c4 10             	add    $0x10,%esp
    1ba0:	e9 fa fe ff ff       	jmp    1a9f <usb_device_create_ddf+0x8f>
    1ba5:	8d 76 00             	lea    0x0(%esi),%esi
    1ba8:	8d 43 54             	lea    0x54(%ebx),%eax
    1bab:	50                   	push   %eax
    1bac:	8d 43 50             	lea    0x50(%ebx),%eax
    1baf:	50                   	push   %eax
    1bb0:	6a 00                	push   $0x0
    1bb2:	57                   	push   %edi
    1bb3:	e8 e8 16 00 00       	call   32a0 <usb_request_get_full_configuration_descriptor_alloc>
    1bb8:	83 c4 10             	add    $0x10,%esp
    1bbb:	89 c6                	mov    %eax,%esi
    1bbd:	85 c0                	test   %eax,%eax
    1bbf:	75 c8                	jne    1b89 <usb_device_create_ddf+0x179>
    1bc1:	8b 53 2c             	mov    0x2c(%ebx),%edx
    1bc4:	8d 43 30             	lea    0x30(%ebx),%eax
    1bc7:	52                   	push   %edx
    1bc8:	8b 7b 50             	mov    0x50(%ebx),%edi
    1bcb:	8b 4b 54             	mov    0x54(%ebx),%ecx
    1bce:	89 45 d4             	mov    %eax,-0x2c(%ebp)
    1bd1:	51                   	push   %ecx
    1bd2:	57                   	push   %edi
    1bd3:	50                   	push   %eax
    1bd4:	e8 e7 20 00 00       	call   3cc0 <usb_alternate_interfaces_init>
    1bd9:	8b 45 0c             	mov    0xc(%ebp),%eax
    1bdc:	83 c4 10             	add    $0x10,%esp
    1bdf:	85 c0                	test   %eax,%eax
    1be1:	0f 84 b8 fe ff ff    	je     1a9f <usb_device_create_ddf+0x8f>
    1be7:	8b 45 0c             	mov    0xc(%ebp),%eax
    1bea:	57                   	push   %edi
    1beb:	57                   	push   %edi
    1bec:	50                   	push   %eax
    1bed:	53                   	push   %ebx
    1bee:	e8 5d f8 ff ff       	call   1450 <usb_device_create_pipes>
    1bf3:	83 c4 10             	add    $0x10,%esp
    1bf6:	89 45 d0             	mov    %eax,-0x30(%ebp)
    1bf9:	85 c0                	test   %eax,%eax
    1bfb:	0f 84 9e fe ff ff    	je     1a9f <usb_device_create_ddf+0x8f>
    1c01:	8b 43 24             	mov    0x24(%ebx),%eax
    1c04:	85 c0                	test   %eax,%eax
    1c06:	0f 84 70 01 00 00    	je     1d7c <usb_device_create_ddf+0x36c>
    1c0c:	8b 4b 28             	mov    0x28(%ebx),%ecx
    1c0f:	85 c9                	test   %ecx,%ecx
    1c11:	0f 84 a9 00 00 00    	je     1cc0 <usb_device_create_ddf+0x2b0>
    1c17:	31 f6                	xor    %esi,%esi
    1c19:	eb 0f                	jmp    1c2a <usb_device_create_ddf+0x21a>
    1c1b:	90                   	nop
    1c1c:	8d 74 26 00          	lea    0x0(%esi,%eiz,1),%esi
    1c20:	46                   	inc    %esi
    1c21:	3b 73 28             	cmp    0x28(%ebx),%esi
    1c24:	0f 83 96 00 00 00    	jae    1cc0 <usb_device_create_ddf+0x2b0>
    1c2a:	8d 14 76             	lea    (%esi,%esi,2),%edx
    1c2d:	8d 3c 96             	lea    (%esi,%edx,4),%edi
    1c30:	ba b9 d5 00 00       	mov    $0xd5b9,%edx
    1c35:	c1 e7 02             	shl    $0x2,%edi
    1c38:	80 7c 38 30 00       	cmpb   $0x0,0x30(%eax,%edi,1)
    1c3d:	74 05                	je     1c44 <usb_device_create_ddf+0x234>
    1c3f:	ba 06 f2 00 00       	mov    $0xf206,%edx
    1c44:	83 ec 0c             	sub    $0xc,%esp
    1c47:	52                   	push   %edx
    1c48:	56                   	push   %esi
    1c49:	68 8c d6 00 00       	push   $0xd68c
    1c4e:	6a 05                	push   $0x5
    1c50:	6a ff                	push   $0xffffffff
    1c52:	e8 29 da 00 00       	call   f680 <log_msg@plt>
    1c57:	8b 43 24             	mov    0x24(%ebx),%eax
    1c5a:	83 c4 20             	add    $0x20,%esp
    1c5d:	01 c7                	add    %eax,%edi
    1c5f:	80 7f 30 00          	cmpb   $0x0,0x30(%edi)
    1c63:	74 bb                	je     1c20 <usb_device_create_ddf+0x210>
    1c65:	83 ec 0c             	sub    $0xc,%esp
    1c68:	57                   	push   %edi
    1c69:	e8 62 0c 00 00       	call   28d0 <usb_pipe_unregister>
    1c6e:	8b 43 24             	mov    0x24(%ebx),%eax
    1c71:	83 c4 10             	add    $0x10,%esp
    1c74:	eb aa                	jmp    1c20 <usb_device_create_ddf+0x210>
    1c76:	66 90                	xchg   %ax,%ax
    1c78:	83 ec 0c             	sub    $0xc,%esp
    1c7b:	8b 03                	mov    (%ebx),%eax
    1c7d:	50                   	push   %eax
    1c7e:	e8 ad 98 00 00       	call   b530 <usb_dev_disconnect>
    1c83:	8b 45 10             	mov    0x10(%ebp),%eax
    1c86:	83 c4 10             	add    $0x10,%esp
    1c89:	c7 00 b0 d6 00 00    	movl   $0xd6b0,(%eax)
    1c8f:	8d 65 f4             	lea    -0xc(%ebp),%esp
    1c92:	89 f0                	mov    %esi,%eax
    1c94:	5b                   	pop    %ebx
    1c95:	5e                   	pop    %esi
    1c96:	5f                   	pop    %edi
    1c97:	5d                   	pop    %ebp
    1c98:	c3                   	ret    
    1c99:	8d b4 26 00 00 00 00 	lea    0x0(%esi,%eiz,1),%esi
    1ca0:	83 ec 0c             	sub    $0xc,%esp
    1ca3:	c7 45 e4 ff ff ff ff 	movl   $0xffffffff,-0x1c(%ebp)
    1caa:	57                   	push   %edi
    1cab:	e8 10 da 00 00       	call   f6c0 <async_exchange_end@plt>
    1cb0:	89 1c 24             	mov    %ebx,(%esp)
    1cb3:	e8 b8 d8 00 00       	call   f570 <async_hangup@plt>
    1cb8:	83 c4 10             	add    $0x10,%esp
    1cbb:	e9 22 fe ff ff       	jmp    1ae2 <usb_device_create_ddf+0xd2>
    1cc0:	83 ec 0c             	sub    $0xc,%esp
    1cc3:	50                   	push   %eax
    1cc4:	e8 d7 dc 00 00       	call   f9a0 <free@plt>
    1cc9:	8b 55 d4             	mov    -0x2c(%ebp),%edx
    1ccc:	c7 43 24 00 00 00 00 	movl   $0x0,0x24(%ebx)
    1cd3:	c7 43 28 00 00 00 00 	movl   $0x0,0x28(%ebx)
    1cda:	58                   	pop    %eax
    1cdb:	52                   	push   %edx
    1cdc:	e8 df 21 00 00       	call   3ec0 <usb_alternate_interfaces_deinit>
    1ce1:	8b 73 50             	mov    0x50(%ebx),%esi
    1ce4:	59                   	pop    %ecx
    1ce5:	56                   	push   %esi
    1ce6:	e8 b5 dc 00 00       	call   f9a0 <free@plt>
    1ceb:	c7 43 50 00 00 00 00 	movl   $0x0,0x50(%ebx)
    1cf2:	c7 43 54 00 00 00 00 	movl   $0x0,0x54(%ebx)
    1cf9:	8b 43 5c             	mov    0x5c(%ebx),%eax
    1cfc:	5f                   	pop    %edi
    1cfd:	50                   	push   %eax
    1cfe:	e8 9d dc 00 00       	call   f9a0 <free@plt>
    1d03:	c7 43 5c 00 00 00 00 	movl   $0x0,0x5c(%ebx)
    1d0a:	58                   	pop    %eax
    1d0b:	8b 03                	mov    (%ebx),%eax
    1d0d:	50                   	push   %eax
    1d0e:	e8 1d 98 00 00       	call   b530 <usb_dev_disconnect>
    1d13:	8b 45 10             	mov    0x10(%ebp),%eax
    1d16:	c7 03 00 00 00 00    	movl   $0x0,(%ebx)
    1d1c:	83 c4 10             	add    $0x10,%esp
    1d1f:	8b 75 d0             	mov    -0x30(%ebp),%esi
    1d22:	c7 00 08 d6 00 00    	movl   $0xd608,(%eax)
    1d28:	e9 72 fd ff ff       	jmp    1a9f <usb_device_create_ddf+0x8f>
    1d2d:	8d 76 00             	lea    0x0(%esi),%esi
    1d30:	be fe ff ff ff       	mov    $0xfffffffe,%esi
    1d35:	e9 65 fd ff ff       	jmp    1a9f <usb_device_create_ddf+0x8f>
    1d3a:	8d b6 00 00 00 00    	lea    0x0(%esi),%esi
    1d40:	83 ec 0c             	sub    $0xc,%esp
    1d43:	be f8 ff ff ff       	mov    $0xfffffff8,%esi
    1d48:	53                   	push   %ebx
    1d49:	e8 22 d8 00 00       	call   f570 <async_hangup@plt>
    1d4e:	83 c4 10             	add    $0x10,%esp
    1d51:	e9 49 fd ff ff       	jmp    1a9f <usb_device_create_ddf+0x8f>
    1d56:	8b 45 10             	mov    0x10(%ebp),%eax
    1d59:	be fe ff ff ff       	mov    $0xfffffffe,%esi
    1d5e:	c7 00 ca d5 00 00    	movl   $0xd5ca,(%eax)
    1d64:	e9 36 fd ff ff       	jmp    1a9f <usb_device_create_ddf+0x8f>
    1d69:	8b 45 10             	mov    0x10(%ebp),%eax
    1d6c:	be fe ff ff ff       	mov    $0xfffffffe,%esi
    1d71:	c7 00 d9 d5 00 00    	movl   $0xd5d9,(%eax)
    1d77:	e9 23 fd ff ff       	jmp    1a9f <usb_device_create_ddf+0x8f>
    1d7c:	8b 53 28             	mov    0x28(%ebx),%edx
    1d7f:	85 d2                	test   %edx,%edx
    1d81:	0f 84 39 ff ff ff    	je     1cc0 <usb_device_create_ddf+0x2b0>
    1d87:	50                   	push   %eax
    1d88:	68 29 01 00 00       	push   $0x129
    1d8d:	68 73 d5 00 00       	push   $0xd573
    1d92:	68 60 d6 00 00       	push   $0xd660
    1d97:	e8 34 d9 00 00       	call   f6d0 <assert_abort@plt>
    1d9c:	57                   	push   %edi
    1d9d:	68 e5 01 00 00       	push   $0x1e5
    1da2:	68 73 d5 00 00       	push   $0xd573
    1da7:	68 be d5 00 00       	push   $0xd5be
    1dac:	e8 1f d9 00 00       	call   f6d0 <assert_abort@plt>
    1db1:	53                   	push   %ebx
    1db2:	68 e6 01 00 00       	push   $0x1e6
    1db7:	68 73 d5 00 00       	push   $0xd573
    1dbc:	68 c6 d5 00 00       	push   $0xd5c6
    1dc1:	e8 0a d9 00 00       	call   f6d0 <assert_abort@plt>
    1dc6:	50                   	push   %eax
    1dc7:	68 aa 00 00 00       	push   $0xaa
    1dcc:	68 73 d5 00 00       	push   $0xd573
    1dd1:	68 d4 d6 00 00       	push   $0xd6d4
    1dd6:	e8 f5 d8 00 00       	call   f6d0 <assert_abort@plt>
    1ddb:	90                   	nop
    1ddc:	8d 74 26 00          	lea    0x0(%esi,%eiz,1),%esi

00001de0 <usb_device_destroy_ddf>:
    1de0:	55                   	push   %ebp
    1de1:	89 e5                	mov    %esp,%ebp
    1de3:	57                   	push   %edi
    1de4:	56                   	push   %esi
    1de5:	53                   	push   %ebx
    1de6:	83 ec 0c             	sub    $0xc,%esp
    1de9:	8b 45 08             	mov    0x8(%ebp),%eax
    1dec:	85 c0                	test   %eax,%eax
    1dee:	0f 84 1d 01 00 00    	je     1f11 <usb_device_destroy_ddf+0x131>
    1df4:	83 ec 0c             	sub    $0xc,%esp
    1df7:	50                   	push   %eax
    1df8:	e8 e3 2e 00 00       	call   4ce0 <ddf_dev_data_get>
    1dfd:	83 c4 10             	add    $0x10,%esp
    1e00:	89 c7                	mov    %eax,%edi
    1e02:	85 c0                	test   %eax,%eax
    1e04:	0f 84 f2 00 00 00    	je     1efc <usb_device_destroy_ddf+0x11c>
    1e0a:	8b 40 24             	mov    0x24(%eax),%eax
    1e0d:	85 c0                	test   %eax,%eax
    1e0f:	0f 84 cb 00 00 00    	je     1ee0 <usb_device_destroy_ddf+0x100>
    1e15:	8b 4f 28             	mov    0x28(%edi),%ecx
    1e18:	85 c9                	test   %ecx,%ecx
    1e1a:	74 5a                	je     1e76 <usb_device_destroy_ddf+0x96>
    1e1c:	31 f6                	xor    %esi,%esi
    1e1e:	eb 06                	jmp    1e26 <usb_device_destroy_ddf+0x46>
    1e20:	46                   	inc    %esi
    1e21:	3b 77 28             	cmp    0x28(%edi),%esi
    1e24:	73 50                	jae    1e76 <usb_device_destroy_ddf+0x96>
    1e26:	8d 14 76             	lea    (%esi,%esi,2),%edx
    1e29:	8d 1c 96             	lea    (%esi,%edx,4),%ebx
    1e2c:	ba b9 d5 00 00       	mov    $0xd5b9,%edx
    1e31:	c1 e3 02             	shl    $0x2,%ebx
    1e34:	80 7c 18 30 00       	cmpb   $0x0,0x30(%eax,%ebx,1)
    1e39:	74 05                	je     1e40 <usb_device_destroy_ddf+0x60>
    1e3b:	ba 06 f2 00 00       	mov    $0xf206,%edx
    1e40:	83 ec 0c             	sub    $0xc,%esp
    1e43:	52                   	push   %edx
    1e44:	56                   	push   %esi
    1e45:	68 8c d6 00 00       	push   $0xd68c
    1e4a:	6a 05                	push   $0x5
    1e4c:	6a ff                	push   $0xffffffff
    1e4e:	e8 2d d8 00 00       	call   f680 <log_msg@plt>
    1e53:	8b 47 24             	mov    0x24(%edi),%eax
    1e56:	83 c4 20             	add    $0x20,%esp
    1e59:	01 c3                	add    %eax,%ebx
    1e5b:	80 7b 30 00          	cmpb   $0x0,0x30(%ebx)
    1e5f:	74 bf                	je     1e20 <usb_device_destroy_ddf+0x40>
    1e61:	83 ec 0c             	sub    $0xc,%esp
    1e64:	46                   	inc    %esi
    1e65:	53                   	push   %ebx
    1e66:	e8 65 0a 00 00       	call   28d0 <usb_pipe_unregister>
    1e6b:	83 c4 10             	add    $0x10,%esp
    1e6e:	8b 47 24             	mov    0x24(%edi),%eax
    1e71:	3b 77 28             	cmp    0x28(%edi),%esi
    1e74:	72 b0                	jb     1e26 <usb_device_destroy_ddf+0x46>
    1e76:	83 ec 0c             	sub    $0xc,%esp
    1e79:	50                   	push   %eax
    1e7a:	e8 21 db 00 00       	call   f9a0 <free@plt>
    1e7f:	8d 47 30             	lea    0x30(%edi),%eax
    1e82:	c7 47 24 00 00 00 00 	movl   $0x0,0x24(%edi)
    1e89:	c7 47 28 00 00 00 00 	movl   $0x0,0x28(%edi)
    1e90:	89 04 24             	mov    %eax,(%esp)
    1e93:	e8 28 20 00 00       	call   3ec0 <usb_alternate_interfaces_deinit>
    1e98:	8b 57 50             	mov    0x50(%edi),%edx
    1e9b:	58                   	pop    %eax
    1e9c:	52                   	push   %edx
    1e9d:	e8 fe da 00 00       	call   f9a0 <free@plt>
    1ea2:	c7 47 50 00 00 00 00 	movl   $0x0,0x50(%edi)
    1ea9:	c7 47 54 00 00 00 00 	movl   $0x0,0x54(%edi)
    1eb0:	8b 5f 5c             	mov    0x5c(%edi),%ebx
    1eb3:	59                   	pop    %ecx
    1eb4:	53                   	push   %ebx
    1eb5:	e8 e6 da 00 00       	call   f9a0 <free@plt>
    1eba:	c7 47 5c 00 00 00 00 	movl   $0x0,0x5c(%edi)
    1ec1:	8b 07                	mov    (%edi),%eax
    1ec3:	5e                   	pop    %esi
    1ec4:	50                   	push   %eax
    1ec5:	e8 66 96 00 00       	call   b530 <usb_dev_disconnect>
    1eca:	c7 07 00 00 00 00    	movl   $0x0,(%edi)
    1ed0:	83 c4 10             	add    $0x10,%esp
    1ed3:	8d 65 f4             	lea    -0xc(%ebp),%esp
    1ed6:	5b                   	pop    %ebx
    1ed7:	5e                   	pop    %esi
    1ed8:	5f                   	pop    %edi
    1ed9:	5d                   	pop    %ebp
    1eda:	c3                   	ret    
    1edb:	90                   	nop
    1edc:	8d 74 26 00          	lea    0x0(%esi,%eiz,1),%esi
    1ee0:	8b 57 28             	mov    0x28(%edi),%edx
    1ee3:	85 d2                	test   %edx,%edx
    1ee5:	74 8f                	je     1e76 <usb_device_destroy_ddf+0x96>
    1ee7:	50                   	push   %eax
    1ee8:	68 29 01 00 00       	push   $0x129
    1eed:	68 73 d5 00 00       	push   $0xd573
    1ef2:	68 60 d6 00 00       	push   $0xd660
    1ef7:	e8 d4 d7 00 00       	call   f6d0 <assert_abort@plt>
    1efc:	53                   	push   %ebx
    1efd:	68 02 02 00 00       	push   $0x202
    1f02:	68 73 d5 00 00       	push   $0xd573
    1f07:	68 80 d5 00 00       	push   $0xd580
    1f0c:	e8 bf d7 00 00       	call   f6d0 <assert_abort@plt>
    1f11:	56                   	push   %esi
    1f12:	68 00 02 00 00       	push   $0x200
    1f17:	68 73 d5 00 00       	push   $0xd573
    1f1c:	68 be d5 00 00       	push   $0xd5be
    1f21:	e8 aa d7 00 00       	call   f6d0 <assert_abort@plt>
    1f26:	8d 76 00             	lea    0x0(%esi),%esi
    1f29:	8d bc 27 00 00 00 00 	lea    0x0(%edi,%eiz,1),%edi

00001f30 <usb_device_create>:
    1f30:	55                   	push   %ebp
    1f31:	89 e5                	mov    %esp,%ebp
    1f33:	57                   	push   %edi
    1f34:	56                   	push   %esi
    1f35:	53                   	push   %ebx
    1f36:	83 ec 34             	sub    $0x34,%esp
    1f39:	c7 45 e0 00 00 00 00 	movl   $0x0,-0x20(%ebp)
    1f40:	8b 45 08             	mov    0x8(%ebp),%eax
    1f43:	c7 45 e4 ff ff ff ff 	movl   $0xffffffff,-0x1c(%ebp)
    1f4a:	6a 01                	push   $0x1
    1f4c:	50                   	push   %eax
    1f4d:	e8 ce d5 00 00       	call   f520 <devman_device_connect@plt>
    1f52:	89 04 24             	mov    %eax,(%esp)
    1f55:	89 c3                	mov    %eax,%ebx
    1f57:	e8 54 d9 00 00       	call   f8b0 <async_exchange_begin@plt>
    1f5c:	83 c4 10             	add    $0x10,%esp
    1f5f:	85 c0                	test   %eax,%eax
    1f61:	0f 84 99 01 00 00    	je     2100 <usb_device_create+0x1d0>
    1f67:	89 c6                	mov    %eax,%esi
    1f69:	50                   	push   %eax
    1f6a:	50                   	push   %eax
    1f6b:	8d 45 e0             	lea    -0x20(%ebp),%eax
    1f6e:	50                   	push   %eax
    1f6f:	56                   	push   %esi
    1f70:	e8 2b 96 00 00       	call   b5a0 <usb_get_my_device_handle>
    1f75:	83 c4 10             	add    $0x10,%esp
    1f78:	89 c7                	mov    %eax,%edi
    1f7a:	85 c0                	test   %eax,%eax
    1f7c:	0f 84 e6 00 00 00    	je     2068 <usb_device_create+0x138>
    1f82:	83 ec 0c             	sub    $0xc,%esp
    1f85:	56                   	push   %esi
    1f86:	e8 35 d7 00 00       	call   f6c0 <async_exchange_end@plt>
    1f8b:	83 c4 10             	add    $0x10,%esp
    1f8e:	85 db                	test   %ebx,%ebx
    1f90:	0f 84 c1 00 00 00    	je     2057 <usb_device_create+0x127>
    1f96:	83 ec 0c             	sub    $0xc,%esp
    1f99:	53                   	push   %ebx
    1f9a:	e8 d1 d5 00 00       	call   f570 <async_hangup@plt>
    1f9f:	83 c4 10             	add    $0x10,%esp
    1fa2:	85 ff                	test   %edi,%edi
    1fa4:	0f 85 ad 00 00 00    	jne    2057 <usb_device_create+0x127>
    1faa:	83 ec 0c             	sub    $0xc,%esp
    1fad:	6a 60                	push   $0x60
    1faf:	e8 6c d6 00 00       	call   f620 <malloc@plt>
    1fb4:	83 c4 10             	add    $0x10,%esp
    1fb7:	89 c3                	mov    %eax,%ebx
    1fb9:	85 c0                	test   %eax,%eax
    1fbb:	0f 84 96 00 00 00    	je     2057 <usb_device_create+0x127>
    1fc1:	c7 40 58 00 00 00 00 	movl   $0x0,0x58(%eax)
    1fc8:	8b 45 08             	mov    0x8(%ebp),%eax
    1fcb:	83 ec 0c             	sub    $0xc,%esp
    1fce:	89 43 04             	mov    %eax,0x4(%ebx)
    1fd1:	8b 45 e4             	mov    -0x1c(%ebp),%eax
    1fd4:	c7 43 5c 00 00 00 00 	movl   $0x0,0x5c(%ebx)
    1fdb:	89 43 2c             	mov    %eax,0x2c(%ebx)
    1fde:	c7 43 50 00 00 00 00 	movl   $0x0,0x50(%ebx)
    1fe5:	c7 43 54 00 00 00 00 	movl   $0x0,0x54(%ebx)
    1fec:	c7 43 28 00 00 00 00 	movl   $0x0,0x28(%ebx)
    1ff3:	c7 43 24 00 00 00 00 	movl   $0x0,0x24(%ebx)
    1ffa:	8b 4d 08             	mov    0x8(%ebp),%ecx
    1ffd:	51                   	push   %ecx
    1ffe:	e8 ed 94 00 00       	call   b4f0 <usb_dev_connect>
    2003:	83 c4 10             	add    $0x10,%esp
    2006:	89 03                	mov    %eax,(%ebx)
    2008:	85 c0                	test   %eax,%eax
    200a:	74 3f                	je     204b <usb_device_create+0x11b>
    200c:	8d 73 08             	lea    0x8(%ebx),%esi
    200f:	52                   	push   %edx
    2010:	52                   	push   %edx
    2011:	50                   	push   %eax
    2012:	56                   	push   %esi
    2013:	e8 b8 07 00 00       	call   27d0 <usb_pipe_initialize_default_control>
    2018:	83 c4 10             	add    $0x10,%esp
    201b:	85 c0                	test   %eax,%eax
    201d:	75 1e                	jne    203d <usb_device_create+0x10d>
    201f:	8b 43 50             	mov    0x50(%ebx),%eax
    2022:	85 c0                	test   %eax,%eax
    2024:	0f 85 e8 00 00 00    	jne    2112 <usb_device_create+0x1e2>
    202a:	8d 43 3c             	lea    0x3c(%ebx),%eax
    202d:	57                   	push   %edi
    202e:	57                   	push   %edi
    202f:	50                   	push   %eax
    2030:	56                   	push   %esi
    2031:	e8 ba 10 00 00       	call   30f0 <usb_request_get_device_descriptor>
    2036:	83 c4 10             	add    $0x10,%esp
    2039:	85 c0                	test   %eax,%eax
    203b:	74 63                	je     20a0 <usb_device_create+0x170>
    203d:	83 ec 0c             	sub    $0xc,%esp
    2040:	8b 33                	mov    (%ebx),%esi
    2042:	56                   	push   %esi
    2043:	e8 e8 94 00 00       	call   b530 <usb_dev_disconnect>
    2048:	83 c4 10             	add    $0x10,%esp
    204b:	83 ec 0c             	sub    $0xc,%esp
    204e:	53                   	push   %ebx
    204f:	e8 4c d9 00 00       	call   f9a0 <free@plt>
    2054:	83 c4 10             	add    $0x10,%esp
    2057:	8d 65 f4             	lea    -0xc(%ebp),%esp
    205a:	31 db                	xor    %ebx,%ebx
    205c:	89 d8                	mov    %ebx,%eax
    205e:	5b                   	pop    %ebx
    205f:	5e                   	pop    %esi
    2060:	5f                   	pop    %edi
    2061:	5d                   	pop    %ebp
    2062:	c3                   	ret    
    2063:	90                   	nop
    2064:	8d 74 26 00          	lea    0x0(%esi,%eiz,1),%esi
    2068:	50                   	push   %eax
    2069:	50                   	push   %eax
    206a:	8d 45 e4             	lea    -0x1c(%ebp),%eax
    206d:	50                   	push   %eax
    206e:	56                   	push   %esi
    206f:	e8 dc 94 00 00       	call   b550 <usb_get_my_interface>
    2074:	83 c4 10             	add    $0x10,%esp
    2077:	83 f8 f5             	cmp    $0xfffffff5,%eax
    207a:	74 64                	je     20e0 <usb_device_create+0x1b0>
    207c:	83 ec 0c             	sub    $0xc,%esp
    207f:	89 45 d4             	mov    %eax,-0x2c(%ebp)
    2082:	56                   	push   %esi
    2083:	e8 38 d6 00 00       	call   f6c0 <async_exchange_end@plt>
    2088:	8b 45 d4             	mov    -0x2c(%ebp),%eax
    208b:	83 c4 10             	add    $0x10,%esp
    208e:	89 c7                	mov    %eax,%edi
    2090:	85 db                	test   %ebx,%ebx
    2092:	0f 85 fe fe ff ff    	jne    1f96 <usb_device_create+0x66>
    2098:	e9 05 ff ff ff       	jmp    1fa2 <usb_device_create+0x72>
    209d:	8d 76 00             	lea    0x0(%esi),%esi
    20a0:	8d 43 54             	lea    0x54(%ebx),%eax
    20a3:	50                   	push   %eax
    20a4:	8d 43 50             	lea    0x50(%ebx),%eax
    20a7:	50                   	push   %eax
    20a8:	6a 00                	push   $0x0
    20aa:	56                   	push   %esi
    20ab:	e8 f0 11 00 00       	call   32a0 <usb_request_get_full_configuration_descriptor_alloc>
    20b0:	83 c4 10             	add    $0x10,%esp
    20b3:	85 c0                	test   %eax,%eax
    20b5:	75 86                	jne    203d <usb_device_create+0x10d>
    20b7:	8b 43 2c             	mov    0x2c(%ebx),%eax
    20ba:	8b 4b 50             	mov    0x50(%ebx),%ecx
    20bd:	50                   	push   %eax
    20be:	8d 43 30             	lea    0x30(%ebx),%eax
    20c1:	8b 53 54             	mov    0x54(%ebx),%edx
    20c4:	52                   	push   %edx
    20c5:	51                   	push   %ecx
    20c6:	50                   	push   %eax
    20c7:	e8 f4 1b 00 00       	call   3cc0 <usb_alternate_interfaces_init>
    20cc:	83 c4 10             	add    $0x10,%esp
    20cf:	8d 65 f4             	lea    -0xc(%ebp),%esp
    20d2:	89 d8                	mov    %ebx,%eax
    20d4:	5b                   	pop    %ebx
    20d5:	5e                   	pop    %esi
    20d6:	5f                   	pop    %edi
    20d7:	5d                   	pop    %ebp
    20d8:	c3                   	ret    
    20d9:	8d b4 26 00 00 00 00 	lea    0x0(%esi,%eiz,1),%esi
    20e0:	83 ec 0c             	sub    $0xc,%esp
    20e3:	c7 45 e4 ff ff ff ff 	movl   $0xffffffff,-0x1c(%ebp)
    20ea:	56                   	push   %esi
    20eb:	e8 d0 d5 00 00       	call   f6c0 <async_exchange_end@plt>
    20f0:	83 c4 10             	add    $0x10,%esp
    20f3:	85 db                	test   %ebx,%ebx
    20f5:	0f 84 af fe ff ff    	je     1faa <usb_device_create+0x7a>
    20fb:	e9 96 fe ff ff       	jmp    1f96 <usb_device_create+0x66>
    2100:	bf f8 ff ff ff       	mov    $0xfffffff8,%edi
    2105:	85 db                	test   %ebx,%ebx
    2107:	0f 85 89 fe ff ff    	jne    1f96 <usb_device_create+0x66>
    210d:	e9 45 ff ff ff       	jmp    2057 <usb_device_create+0x127>
    2112:	50                   	push   %eax
    2113:	68 aa 00 00 00       	push   $0xaa
    2118:	68 73 d5 00 00       	push   $0xd573
    211d:	68 d4 d6 00 00       	push   $0xd6d4
    2122:	e8 a9 d5 00 00       	call   f6d0 <assert_abort@plt>
    2127:	89 f6                	mov    %esi,%esi
    2129:	8d bc 27 00 00 00 00 	lea    0x0(%edi,%eiz,1),%edi

00002130 <usb_device_destroy>:
    2130:	55                   	push   %ebp
    2131:	89 e5                	mov    %esp,%ebp
    2133:	57                   	push   %edi
    2134:	56                   	push   %esi
    2135:	53                   	push   %ebx
    2136:	83 ec 0c             	sub    $0xc,%esp
    2139:	8b 7d 08             	mov    0x8(%ebp),%edi
    213c:	85 ff                	test   %edi,%edi
    213e:	0f 84 e4 00 00 00    	je     2228 <usb_device_destroy+0xf8>
    2144:	8b 47 24             	mov    0x24(%edi),%eax
    2147:	85 c0                	test   %eax,%eax
    2149:	0f 84 e1 00 00 00    	je     2230 <usb_device_destroy+0x100>
    214f:	8b 4f 28             	mov    0x28(%edi),%ecx
    2152:	85 c9                	test   %ecx,%ecx
    2154:	74 60                	je     21b6 <usb_device_destroy+0x86>
    2156:	31 f6                	xor    %esi,%esi
    2158:	eb 0c                	jmp    2166 <usb_device_destroy+0x36>
    215a:	8d b6 00 00 00 00    	lea    0x0(%esi),%esi
    2160:	46                   	inc    %esi
    2161:	3b 77 28             	cmp    0x28(%edi),%esi
    2164:	73 50                	jae    21b6 <usb_device_destroy+0x86>
    2166:	8d 14 76             	lea    (%esi,%esi,2),%edx
    2169:	8d 1c 96             	lea    (%esi,%edx,4),%ebx
    216c:	ba b9 d5 00 00       	mov    $0xd5b9,%edx
    2171:	c1 e3 02             	shl    $0x2,%ebx
    2174:	80 7c 18 30 00       	cmpb   $0x0,0x30(%eax,%ebx,1)
    2179:	74 05                	je     2180 <usb_device_destroy+0x50>
    217b:	ba 06 f2 00 00       	mov    $0xf206,%edx
    2180:	83 ec 0c             	sub    $0xc,%esp
    2183:	52                   	push   %edx
    2184:	56                   	push   %esi
    2185:	68 8c d6 00 00       	push   $0xd68c
    218a:	6a 05                	push   $0x5
    218c:	6a ff                	push   $0xffffffff
    218e:	e8 ed d4 00 00       	call   f680 <log_msg@plt>
    2193:	8b 47 24             	mov    0x24(%edi),%eax
    2196:	83 c4 20             	add    $0x20,%esp
    2199:	01 c3                	add    %eax,%ebx
    219b:	80 7b 30 00          	cmpb   $0x0,0x30(%ebx)
    219f:	74 bf                	je     2160 <usb_device_destroy+0x30>
    21a1:	83 ec 0c             	sub    $0xc,%esp
    21a4:	46                   	inc    %esi
    21a5:	53                   	push   %ebx
    21a6:	e8 25 07 00 00       	call   28d0 <usb_pipe_unregister>
    21ab:	83 c4 10             	add    $0x10,%esp
    21ae:	8b 47 24             	mov    0x24(%edi),%eax
    21b1:	3b 77 28             	cmp    0x28(%edi),%esi
    21b4:	72 b0                	jb     2166 <usb_device_destroy+0x36>
    21b6:	83 ec 0c             	sub    $0xc,%esp
    21b9:	50                   	push   %eax
    21ba:	e8 e1 d7 00 00       	call   f9a0 <free@plt>
    21bf:	8d 47 30             	lea    0x30(%edi),%eax
    21c2:	c7 47 24 00 00 00 00 	movl   $0x0,0x24(%edi)
    21c9:	c7 47 28 00 00 00 00 	movl   $0x0,0x28(%edi)
    21d0:	89 04 24             	mov    %eax,(%esp)
    21d3:	e8 e8 1c 00 00       	call   3ec0 <usb_alternate_interfaces_deinit>
    21d8:	8b 57 50             	mov    0x50(%edi),%edx
    21db:	58                   	pop    %eax
    21dc:	52                   	push   %edx
    21dd:	e8 be d7 00 00       	call   f9a0 <free@plt>
    21e2:	c7 47 50 00 00 00 00 	movl   $0x0,0x50(%edi)
    21e9:	c7 47 54 00 00 00 00 	movl   $0x0,0x54(%edi)
    21f0:	8b 5f 5c             	mov    0x5c(%edi),%ebx
    21f3:	59                   	pop    %ecx
    21f4:	53                   	push   %ebx
    21f5:	e8 a6 d7 00 00       	call   f9a0 <free@plt>
    21fa:	c7 47 5c 00 00 00 00 	movl   $0x0,0x5c(%edi)
    2201:	8b 07                	mov    (%edi),%eax
    2203:	5e                   	pop    %esi
    2204:	50                   	push   %eax
    2205:	e8 26 93 00 00       	call   b530 <usb_dev_disconnect>
    220a:	c7 07 00 00 00 00    	movl   $0x0,(%edi)
    2210:	83 c4 10             	add    $0x10,%esp
    2213:	89 7d 08             	mov    %edi,0x8(%ebp)
    2216:	8d 65 f4             	lea    -0xc(%ebp),%esp
    2219:	5b                   	pop    %ebx
    221a:	5e                   	pop    %esi
    221b:	5f                   	pop    %edi
    221c:	5d                   	pop    %ebp
    221d:	e9 7e d7 00 00       	jmp    f9a0 <free@plt>
    2222:	8d b6 00 00 00 00    	lea    0x0(%esi),%esi
    2228:	8d 65 f4             	lea    -0xc(%ebp),%esp
    222b:	5b                   	pop    %ebx
    222c:	5e                   	pop    %esi
    222d:	5f                   	pop    %edi
    222e:	5d                   	pop    %ebp
    222f:	c3                   	ret    
    2230:	8b 57 28             	mov    0x28(%edi),%edx
    2233:	85 d2                	test   %edx,%edx
    2235:	0f 84 7b ff ff ff    	je     21b6 <usb_device_destroy+0x86>
    223b:	50                   	push   %eax
    223c:	68 29 01 00 00       	push   $0x129
    2241:	68 73 d5 00 00       	push   $0xd573
    2246:	68 60 d6 00 00       	push   $0xd660
    224b:	e8 80 d4 00 00       	call   f6d0 <assert_abort@plt>

00002250 <usb_device_get_name>:
    2250:	55                   	push   %ebp
    2251:	89 e5                	mov    %esp,%ebp
    2253:	83 ec 08             	sub    $0x8,%esp
    2256:	8b 45 08             	mov    0x8(%ebp),%eax
    2259:	85 c0                	test   %eax,%eax
    225b:	74 17                	je     2274 <usb_device_get_name+0x24>
    225d:	8b 40 58             	mov    0x58(%eax),%eax
    2260:	85 c0                	test   %eax,%eax
    2262:	74 0c                	je     2270 <usb_device_get_name+0x20>
    2264:	89 45 08             	mov    %eax,0x8(%ebp)
    2267:	c9                   	leave  
    2268:	e9 93 2a 00 00       	jmp    4d00 <ddf_dev_get_name>
    226d:	8d 76 00             	lea    0x0(%esi),%esi
    2270:	31 c0                	xor    %eax,%eax
    2272:	c9                   	leave  
    2273:	c3                   	ret    
    2274:	50                   	push   %eax
    2275:	68 2a 02 00 00       	push   $0x22a
    227a:	68 73 d5 00 00       	push   $0xd573
    227f:	68 80 d5 00 00       	push   $0xd580
    2284:	e8 47 d4 00 00       	call   f6d0 <assert_abort@plt>
    2289:	8d b4 26 00 00 00 00 	lea    0x0(%esi,%eiz,1),%esi

00002290 <usb_device_ddf_fun_create>:
    2290:	55                   	push   %ebp
    2291:	89 e5                	mov    %esp,%ebp
    2293:	83 ec 08             	sub    $0x8,%esp
    2296:	8b 45 08             	mov    0x8(%ebp),%eax
    2299:	8b 55 0c             	mov    0xc(%ebp),%edx
    229c:	8b 4d 10             	mov    0x10(%ebp),%ecx
    229f:	85 c0                	test   %eax,%eax
    22a1:	74 21                	je     22c4 <usb_device_ddf_fun_create+0x34>
    22a3:	8b 40 58             	mov    0x58(%eax),%eax
    22a6:	85 c0                	test   %eax,%eax
    22a8:	74 16                	je     22c0 <usb_device_ddf_fun_create+0x30>
    22aa:	89 4d 10             	mov    %ecx,0x10(%ebp)
    22ad:	89 55 0c             	mov    %edx,0xc(%ebp)
    22b0:	89 45 08             	mov    %eax,0x8(%ebp)
    22b3:	c9                   	leave  
    22b4:	e9 17 2b 00 00       	jmp    4dd0 <ddf_fun_create>
    22b9:	8d b4 26 00 00 00 00 	lea    0x0(%esi,%eiz,1),%esi
    22c0:	31 c0                	xor    %eax,%eax
    22c2:	c9                   	leave  
    22c3:	c3                   	ret    
    22c4:	50                   	push   %eax
    22c5:	68 33 02 00 00       	push   $0x233
    22ca:	68 73 d5 00 00       	push   $0xd573
    22cf:	68 80 d5 00 00       	push   $0xd580
    22d4:	e8 f7 d3 00 00       	call   f6d0 <assert_abort@plt>
    22d9:	8d b4 26 00 00 00 00 	lea    0x0(%esi,%eiz,1),%esi

000022e0 <usb_device_bus_exchange_begin>:
    22e0:	55                   	push   %ebp
    22e1:	89 e5                	mov    %esp,%ebp
    22e3:	83 ec 08             	sub    $0x8,%esp
    22e6:	8b 45 08             	mov    0x8(%ebp),%eax
    22e9:	85 c0                	test   %eax,%eax
    22eb:	74 0b                	je     22f8 <usb_device_bus_exchange_begin+0x18>
    22ed:	8b 00                	mov    (%eax),%eax
    22ef:	89 45 08             	mov    %eax,0x8(%ebp)
    22f2:	c9                   	leave  
    22f3:	e9 b8 d5 00 00       	jmp    f8b0 <async_exchange_begin@plt>
    22f8:	50                   	push   %eax
    22f9:	68 3b 02 00 00       	push   $0x23b
    22fe:	68 73 d5 00 00       	push   $0xd573
    2303:	68 80 d5 00 00       	push   $0xd580
    2308:	e8 c3 d3 00 00       	call   f6d0 <assert_abort@plt>
    230d:	8d 76 00             	lea    0x0(%esi),%esi

00002310 <usb_device_bus_exchange_end>:
    2310:	55                   	push   %ebp
    2311:	89 e5                	mov    %esp,%ebp
    2313:	5d                   	pop    %ebp
    2314:	e9 a7 d3 00 00       	jmp    f6c0 <async_exchange_end@plt>
    2319:	8d b4 26 00 00 00 00 	lea    0x0(%esi,%eiz,1),%esi

00002320 <usb_device_data_alloc>:
    2320:	55                   	push   %ebp
    2321:	89 e5                	mov    %esp,%ebp
    2323:	53                   	push   %ebx
    2324:	50                   	push   %eax
    2325:	8b 5d 08             	mov    0x8(%ebp),%ebx
    2328:	85 db                	test   %ebx,%ebx
    232a:	74 1c                	je     2348 <usb_device_data_alloc+0x28>
    232c:	8b 43 5c             	mov    0x5c(%ebx),%eax
    232f:	85 c0                	test   %eax,%eax
    2331:	75 2a                	jne    235d <usb_device_data_alloc+0x3d>
    2333:	8b 55 0c             	mov    0xc(%ebp),%edx
    2336:	50                   	push   %eax
    2337:	50                   	push   %eax
    2338:	52                   	push   %edx
    2339:	6a 01                	push   $0x1
    233b:	e8 b0 d3 00 00       	call   f6f0 <calloc@plt>
    2340:	89 43 5c             	mov    %eax,0x5c(%ebx)
    2343:	8b 5d fc             	mov    -0x4(%ebp),%ebx
    2346:	c9                   	leave  
    2347:	c3                   	ret    
    2348:	50                   	push   %eax
    2349:	68 4b 02 00 00       	push   $0x24b
    234e:	68 73 d5 00 00       	push   $0xd573
    2353:	68 80 d5 00 00       	push   $0xd580
    2358:	e8 73 d3 00 00       	call   f6d0 <assert_abort@plt>
    235d:	51                   	push   %ecx
    235e:	68 4c 02 00 00       	push   $0x24c
    2363:	68 73 d5 00 00       	push   $0xd573
    2368:	68 1d d6 00 00       	push   $0xd61d
    236d:	e8 5e d3 00 00       	call   f6d0 <assert_abort@plt>
    2372:	8d b4 26 00 00 00 00 	lea    0x0(%esi,%eiz,1),%esi
    2379:	8d bc 27 00 00 00 00 	lea    0x0(%edi,%eiz,1),%edi

00002380 <usb_device_data_get>:
    2380:	55                   	push   %ebp
    2381:	89 e5                	mov    %esp,%ebp
    2383:	83 ec 08             	sub    $0x8,%esp
    2386:	8b 45 08             	mov    0x8(%ebp),%eax
    2389:	85 c0                	test   %eax,%eax
    238b:	74 05                	je     2392 <usb_device_data_get+0x12>
    238d:	8b 40 5c             	mov    0x5c(%eax),%eax
    2390:	c9                   	leave  
    2391:	c3                   	ret    
    2392:	50                   	push   %eax
    2393:	68 53 02 00 00       	push   $0x253
    2398:	68 73 d5 00 00       	push   $0xd573
    239d:	68 80 d5 00 00       	push   $0xd580
    23a2:	e8 29 d3 00 00       	call   f6d0 <assert_abort@plt>
    23a7:	66 90                	xchg   %ax,%ax
    23a9:	66 90                	xchg   %ax,%ax
    23ab:	66 90                	xchg   %ax,%ax
    23ad:	66 90                	xchg   %ax,%ax
    23af:	90                   	nop

000023b0 <usb_pipe_control_read>:
    23b0:	55                   	push   %ebp
    23b1:	89 e5                	mov    %esp,%ebp
    23b3:	57                   	push   %edi
    23b4:	56                   	push   %esi
    23b5:	53                   	push   %ebx
    23b6:	83 ec 2c             	sub    $0x2c,%esp
    23b9:	8b 5d 08             	mov    0x8(%ebp),%ebx
    23bc:	8b 45 0c             	mov    0xc(%ebp),%eax
    23bf:	8b 75 14             	mov    0x14(%ebp),%esi
    23c2:	85 db                	test   %ebx,%ebx
    23c4:	0f 84 f5 00 00 00    	je     24bf <usb_pipe_control_read+0x10f>
    23ca:	85 c0                	test   %eax,%eax
    23cc:	0f 84 ce 00 00 00    	je     24a0 <usb_pipe_control_read+0xf0>
    23d2:	83 7d 10 08          	cmpl   $0x8,0x10(%ebp)
    23d6:	0f 85 c4 00 00 00    	jne    24a0 <usb_pipe_control_read+0xf0>
    23dc:	85 f6                	test   %esi,%esi
    23de:	0f 84 bc 00 00 00    	je     24a0 <usb_pipe_control_read+0xf0>
    23e4:	8b 4d 18             	mov    0x18(%ebp),%ecx
    23e7:	85 c9                	test   %ecx,%ecx
    23e9:	0f 84 b1 00 00 00    	je     24a0 <usb_pipe_control_read+0xf0>
    23ef:	83 7b 08 02          	cmpl   $0x2,0x8(%ebx)
    23f3:	75 7b                	jne    2470 <usb_pipe_control_read+0xc0>
    23f5:	8b 53 04             	mov    0x4(%ebx),%edx
    23f8:	85 d2                	test   %edx,%edx
    23fa:	75 74                	jne    2470 <usb_pipe_control_read+0xc0>
    23fc:	57                   	push   %edi
    23fd:	6a 08                	push   $0x8
    23ff:	50                   	push   %eax
    2400:	8d 45 e0             	lea    -0x20(%ebp),%eax
    2403:	50                   	push   %eax
    2404:	e8 07 d2 00 00       	call   f610 <memcpy@plt>
    2409:	58                   	pop    %eax
    240a:	8b 43 18             	mov    0x18(%ebx),%eax
    240d:	50                   	push   %eax
    240e:	e8 9d d4 00 00       	call   f8b0 <async_exchange_begin@plt>
    2413:	83 c4 0c             	add    $0xc,%esp
    2416:	89 c7                	mov    %eax,%edi
    2418:	8d 45 dc             	lea    -0x24(%ebp),%eax
    241b:	c7 45 dc 00 00 00 00 	movl   $0x0,-0x24(%ebp)
    2422:	50                   	push   %eax
    2423:	8b 45 18             	mov    0x18(%ebp),%eax
    2426:	50                   	push   %eax
    2427:	8b 45 e4             	mov    -0x1c(%ebp),%eax
    242a:	56                   	push   %esi
    242b:	50                   	push   %eax
    242c:	8b 45 e0             	mov    -0x20(%ebp),%eax
    242f:	50                   	push   %eax
    2430:	0f bf 03             	movswl (%ebx),%eax
    2433:	50                   	push   %eax
    2434:	57                   	push   %edi
    2435:	e8 66 93 00 00       	call   b7a0 <usb_read>
    243a:	83 c4 14             	add    $0x14,%esp
    243d:	89 45 d4             	mov    %eax,-0x2c(%ebp)
    2440:	57                   	push   %edi
    2441:	e8 7a d2 00 00       	call   f6c0 <async_exchange_end@plt>
    2446:	8b 45 d4             	mov    -0x2c(%ebp),%eax
    2449:	83 c4 10             	add    $0x10,%esp
    244c:	3d d3 fe ff ff       	cmp    $0xfffffed3,%eax
    2451:	74 2d                	je     2480 <usb_pipe_control_read+0xd0>
    2453:	85 c0                	test   %eax,%eax
    2455:	75 0f                	jne    2466 <usb_pipe_control_read+0xb6>
    2457:	8b 55 1c             	mov    0x1c(%ebp),%edx
    245a:	85 d2                	test   %edx,%edx
    245c:	74 08                	je     2466 <usb_pipe_control_read+0xb6>
    245e:	8b 4d 1c             	mov    0x1c(%ebp),%ecx
    2461:	8b 55 dc             	mov    -0x24(%ebp),%edx
    2464:	89 11                	mov    %edx,(%ecx)
    2466:	8d 65 f4             	lea    -0xc(%ebp),%esp
    2469:	5b                   	pop    %ebx
    246a:	5e                   	pop    %esi
    246b:	5f                   	pop    %edi
    246c:	5d                   	pop    %ebp
    246d:	c3                   	ret    
    246e:	66 90                	xchg   %ax,%ax
    2470:	8d 65 f4             	lea    -0xc(%ebp),%esp
    2473:	b8 fa fe ff ff       	mov    $0xfffffefa,%eax
    2478:	5b                   	pop    %ebx
    2479:	5e                   	pop    %esi
    247a:	5f                   	pop    %edi
    247b:	5d                   	pop    %ebp
    247c:	c3                   	ret    
    247d:	8d 76 00             	lea    0x0(%esi),%esi
    2480:	80 7b 14 00          	cmpb   $0x0,0x14(%ebx)
    2484:	74 06                	je     248c <usb_pipe_control_read+0xdc>
    2486:	66 83 3b 00          	cmpw   $0x0,(%ebx)
    248a:	74 1c                	je     24a8 <usb_pipe_control_read+0xf8>
    248c:	8d 65 f4             	lea    -0xc(%ebp),%esp
    248f:	b8 d3 fe ff ff       	mov    $0xfffffed3,%eax
    2494:	5b                   	pop    %ebx
    2495:	5e                   	pop    %esi
    2496:	5f                   	pop    %edi
    2497:	5d                   	pop    %ebp
    2498:	c3                   	ret    
    2499:	8d b4 26 00 00 00 00 	lea    0x0(%esi,%eiz,1),%esi
    24a0:	b8 f2 ff ff ff       	mov    $0xfffffff2,%eax
    24a5:	eb bf                	jmp    2466 <usb_pipe_control_read+0xb6>
    24a7:	90                   	nop
    24a8:	c6 43 14 00          	movb   $0x0,0x14(%ebx)
    24ac:	51                   	push   %ecx
    24ad:	51                   	push   %ecx
    24ae:	6a 00                	push   $0x0
    24b0:	53                   	push   %ebx
    24b1:	e8 2a 16 00 00       	call   3ae0 <usb_request_clear_endpoint_halt>
    24b6:	c6 43 14 01          	movb   $0x1,0x14(%ebx)
    24ba:	83 c4 10             	add    $0x10,%esp
    24bd:	eb cd                	jmp    248c <usb_pipe_control_read+0xdc>
    24bf:	53                   	push   %ebx
    24c0:	6a 50                	push   $0x50
    24c2:	68 fd d6 00 00       	push   $0xd6fd
    24c7:	68 09 d7 00 00       	push   $0xd709
    24cc:	e8 ff d1 00 00       	call   f6d0 <assert_abort@plt>
    24d1:	eb 0d                	jmp    24e0 <usb_pipe_control_write>
    24d3:	90                   	nop
    24d4:	90                   	nop
    24d5:	90                   	nop
    24d6:	90                   	nop
    24d7:	90                   	nop
    24d8:	90                   	nop
    24d9:	90                   	nop
    24da:	90                   	nop
    24db:	90                   	nop
    24dc:	90                   	nop
    24dd:	90                   	nop
    24de:	90                   	nop
    24df:	90                   	nop

000024e0 <usb_pipe_control_write>:
    24e0:	55                   	push   %ebp
    24e1:	89 e5                	mov    %esp,%ebp
    24e3:	57                   	push   %edi
    24e4:	56                   	push   %esi
    24e5:	53                   	push   %ebx
    24e6:	83 ec 1c             	sub    $0x1c,%esp
    24e9:	8b 5d 08             	mov    0x8(%ebp),%ebx
    24ec:	8b 45 0c             	mov    0xc(%ebp),%eax
    24ef:	8b 75 14             	mov    0x14(%ebp),%esi
    24f2:	85 db                	test   %ebx,%ebx
    24f4:	0f 84 c9 00 00 00    	je     25c3 <usb_pipe_control_write+0xe3>
    24fa:	85 c0                	test   %eax,%eax
    24fc:	0f 84 7e 00 00 00    	je     2580 <usb_pipe_control_write+0xa0>
    2502:	83 7d 10 08          	cmpl   $0x8,0x10(%ebp)
    2506:	75 78                	jne    2580 <usb_pipe_control_write+0xa0>
    2508:	85 f6                	test   %esi,%esi
    250a:	75 07                	jne    2513 <usb_pipe_control_write+0x33>
    250c:	8b 7d 18             	mov    0x18(%ebp),%edi
    250f:	85 ff                	test   %edi,%edi
    2511:	75 6d                	jne    2580 <usb_pipe_control_write+0xa0>
    2513:	85 f6                	test   %esi,%esi
    2515:	74 07                	je     251e <usb_pipe_control_write+0x3e>
    2517:	8b 4d 18             	mov    0x18(%ebp),%ecx
    251a:	85 c9                	test   %ecx,%ecx
    251c:	74 62                	je     2580 <usb_pipe_control_write+0xa0>
    251e:	83 7b 08 02          	cmpl   $0x2,0x8(%ebx)
    2522:	75 6c                	jne    2590 <usb_pipe_control_write+0xb0>
    2524:	8b 53 04             	mov    0x4(%ebx),%edx
    2527:	85 d2                	test   %edx,%edx
    2529:	75 65                	jne    2590 <usb_pipe_control_write+0xb0>
    252b:	52                   	push   %edx
    252c:	6a 08                	push   $0x8
    252e:	50                   	push   %eax
    252f:	8d 45 e0             	lea    -0x20(%ebp),%eax
    2532:	50                   	push   %eax
    2533:	e8 d8 d0 00 00       	call   f610 <memcpy@plt>
    2538:	8b 7b 18             	mov    0x18(%ebx),%edi
    253b:	59                   	pop    %ecx
    253c:	57                   	push   %edi
    253d:	e8 6e d3 00 00       	call   f8b0 <async_exchange_begin@plt>
    2542:	8b 4d 18             	mov    0x18(%ebp),%ecx
    2545:	89 c7                	mov    %eax,%edi
    2547:	58                   	pop    %eax
    2548:	8b 45 e0             	mov    -0x20(%ebp),%eax
    254b:	5a                   	pop    %edx
    254c:	51                   	push   %ecx
    254d:	56                   	push   %esi
    254e:	8b 75 e4             	mov    -0x1c(%ebp),%esi
    2551:	56                   	push   %esi
    2552:	50                   	push   %eax
    2553:	0f bf 03             	movswl (%ebx),%eax
    2556:	50                   	push   %eax
    2557:	57                   	push   %edi
    2558:	e8 33 93 00 00       	call   b890 <usb_write>
    255d:	83 c4 14             	add    $0x14,%esp
    2560:	89 c6                	mov    %eax,%esi
    2562:	57                   	push   %edi
    2563:	e8 58 d1 00 00       	call   f6c0 <async_exchange_end@plt>
    2568:	83 c4 10             	add    $0x10,%esp
    256b:	81 fe d3 fe ff ff    	cmp    $0xfffffed3,%esi
    2571:	74 2d                	je     25a0 <usb_pipe_control_write+0xc0>
    2573:	8d 65 f4             	lea    -0xc(%ebp),%esp
    2576:	89 f0                	mov    %esi,%eax
    2578:	5b                   	pop    %ebx
    2579:	5e                   	pop    %esi
    257a:	5f                   	pop    %edi
    257b:	5d                   	pop    %ebp
    257c:	c3                   	ret    
    257d:	8d 76 00             	lea    0x0(%esi),%esi
    2580:	8d 65 f4             	lea    -0xc(%ebp),%esp
    2583:	be f2 ff ff ff       	mov    $0xfffffff2,%esi
    2588:	89 f0                	mov    %esi,%eax
    258a:	5b                   	pop    %ebx
    258b:	5e                   	pop    %esi
    258c:	5f                   	pop    %edi
    258d:	5d                   	pop    %ebp
    258e:	c3                   	ret    
    258f:	90                   	nop
    2590:	8d 65 f4             	lea    -0xc(%ebp),%esp
    2593:	be fa fe ff ff       	mov    $0xfffffefa,%esi
    2598:	89 f0                	mov    %esi,%eax
    259a:	5b                   	pop    %ebx
    259b:	5e                   	pop    %esi
    259c:	5f                   	pop    %edi
    259d:	5d                   	pop    %ebp
    259e:	c3                   	ret    
    259f:	90                   	nop
    25a0:	80 7b 14 00          	cmpb   $0x0,0x14(%ebx)
    25a4:	74 cd                	je     2573 <usb_pipe_control_write+0x93>
    25a6:	66 83 3b 00          	cmpw   $0x0,(%ebx)
    25aa:	75 c7                	jne    2573 <usb_pipe_control_write+0x93>
    25ac:	c6 43 14 00          	movb   $0x0,0x14(%ebx)
    25b0:	50                   	push   %eax
    25b1:	50                   	push   %eax
    25b2:	6a 00                	push   $0x0
    25b4:	53                   	push   %ebx
    25b5:	e8 26 15 00 00       	call   3ae0 <usb_request_clear_endpoint_halt>
    25ba:	c6 43 14 01          	movb   $0x1,0x14(%ebx)
    25be:	83 c4 10             	add    $0x10,%esp
    25c1:	eb b0                	jmp    2573 <usb_pipe_control_write+0x93>
    25c3:	50                   	push   %eax
    25c4:	68 82 00 00 00       	push   $0x82
    25c9:	68 fd d6 00 00       	push   $0xd6fd
    25ce:	68 09 d7 00 00       	push   $0xd709
    25d3:	e8 f8 d0 00 00       	call   f6d0 <assert_abort@plt>
    25d8:	90                   	nop
    25d9:	8d b4 26 00 00 00 00 	lea    0x0(%esi,%eiz,1),%esi

000025e0 <usb_pipe_read>:
    25e0:	55                   	push   %ebp
    25e1:	89 e5                	mov    %esp,%ebp
    25e3:	57                   	push   %edi
    25e4:	56                   	push   %esi
    25e5:	53                   	push   %ebx
    25e6:	83 ec 2c             	sub    $0x2c,%esp
    25e9:	8b 5d 08             	mov    0x8(%ebp),%ebx
    25ec:	8b 75 0c             	mov    0xc(%ebp),%esi
    25ef:	85 db                	test   %ebx,%ebx
    25f1:	0f 84 a8 00 00 00    	je     269f <usb_pipe_read+0xbf>
    25f7:	85 f6                	test   %esi,%esi
    25f9:	0f 84 99 00 00 00    	je     2698 <usb_pipe_read+0xb8>
    25ff:	8b 45 10             	mov    0x10(%ebp),%eax
    2602:	85 c0                	test   %eax,%eax
    2604:	0f 84 8e 00 00 00    	je     2698 <usb_pipe_read+0xb8>
    260a:	8b 43 08             	mov    0x8(%ebx),%eax
    260d:	85 c0                	test   %eax,%eax
    260f:	75 7f                	jne    2690 <usb_pipe_read+0xb0>
    2611:	8b 43 04             	mov    0x4(%ebx),%eax
    2614:	85 c0                	test   %eax,%eax
    2616:	74 78                	je     2690 <usb_pipe_read+0xb0>
    2618:	83 e8 02             	sub    $0x2,%eax
    261b:	83 f8 01             	cmp    $0x1,%eax
    261e:	77 60                	ja     2680 <usb_pipe_read+0xa0>
    2620:	83 ec 0c             	sub    $0xc,%esp
    2623:	8b 4b 18             	mov    0x18(%ebx),%ecx
    2626:	51                   	push   %ecx
    2627:	e8 84 d2 00 00       	call   f8b0 <async_exchange_begin@plt>
    262c:	83 c4 0c             	add    $0xc,%esp
    262f:	89 c7                	mov    %eax,%edi
    2631:	8d 45 e4             	lea    -0x1c(%ebp),%eax
    2634:	c7 45 e4 00 00 00 00 	movl   $0x0,-0x1c(%ebp)
    263b:	50                   	push   %eax
    263c:	8b 45 10             	mov    0x10(%ebp),%eax
    263f:	50                   	push   %eax
    2640:	56                   	push   %esi
    2641:	0f bf 03             	movswl (%ebx),%eax
    2644:	6a 00                	push   $0x0
    2646:	6a 00                	push   $0x0
    2648:	50                   	push   %eax
    2649:	57                   	push   %edi
    264a:	e8 51 91 00 00       	call   b7a0 <usb_read>
    264f:	83 c4 14             	add    $0x14,%esp
    2652:	89 45 d4             	mov    %eax,-0x2c(%ebp)
    2655:	57                   	push   %edi
    2656:	e8 65 d0 00 00       	call   f6c0 <async_exchange_end@plt>
    265b:	8b 45 d4             	mov    -0x2c(%ebp),%eax
    265e:	83 c4 10             	add    $0x10,%esp
    2661:	85 c0                	test   %eax,%eax
    2663:	75 0f                	jne    2674 <usb_pipe_read+0x94>
    2665:	8b 55 14             	mov    0x14(%ebp),%edx
    2668:	85 d2                	test   %edx,%edx
    266a:	74 08                	je     2674 <usb_pipe_read+0x94>
    266c:	8b 4d 14             	mov    0x14(%ebp),%ecx
    266f:	8b 55 e4             	mov    -0x1c(%ebp),%edx
    2672:	89 11                	mov    %edx,(%ecx)
    2674:	8d 65 f4             	lea    -0xc(%ebp),%esp
    2677:	5b                   	pop    %ebx
    2678:	5e                   	pop    %esi
    2679:	5f                   	pop    %edi
    267a:	5d                   	pop    %ebp
    267b:	c3                   	ret    
    267c:	8d 74 26 00          	lea    0x0(%esi,%eiz,1),%esi
    2680:	8d 65 f4             	lea    -0xc(%ebp),%esp
    2683:	b8 f5 ff ff ff       	mov    $0xfffffff5,%eax
    2688:	5b                   	pop    %ebx
    2689:	5e                   	pop    %esi
    268a:	5f                   	pop    %edi
    268b:	5d                   	pop    %ebp
    268c:	c3                   	ret    
    268d:	8d 76 00             	lea    0x0(%esi),%esi
    2690:	b8 fa fe ff ff       	mov    $0xfffffefa,%eax
    2695:	eb dd                	jmp    2674 <usb_pipe_read+0x94>
    2697:	90                   	nop
    2698:	b8 f2 ff ff ff       	mov    $0xfffffff2,%eax
    269d:	eb d5                	jmp    2674 <usb_pipe_read+0x94>
    269f:	50                   	push   %eax
    26a0:	68 af 00 00 00       	push   $0xaf
    26a5:	68 fd d6 00 00       	push   $0xd6fd
    26aa:	68 09 d7 00 00       	push   $0xd709
    26af:	e8 1c d0 00 00       	call   f6d0 <assert_abort@plt>
    26b4:	8d b6 00 00 00 00    	lea    0x0(%esi),%esi
    26ba:	8d bf 00 00 00 00    	lea    0x0(%edi),%edi

000026c0 <usb_pipe_write>:
    26c0:	55                   	push   %ebp
    26c1:	89 e5                	mov    %esp,%ebp
    26c3:	57                   	push   %edi
    26c4:	56                   	push   %esi
    26c5:	53                   	push   %ebx
    26c6:	83 ec 1c             	sub    $0x1c,%esp
    26c9:	8b 5d 08             	mov    0x8(%ebp),%ebx
    26cc:	8b 75 0c             	mov    0xc(%ebp),%esi
    26cf:	85 db                	test   %ebx,%ebx
    26d1:	0f 84 88 00 00 00    	je     275f <usb_pipe_write+0x9f>
    26d7:	85 f6                	test   %esi,%esi
    26d9:	74 7d                	je     2758 <usb_pipe_write+0x98>
    26db:	8b 45 10             	mov    0x10(%ebp),%eax
    26de:	85 c0                	test   %eax,%eax
    26e0:	74 76                	je     2758 <usb_pipe_write+0x98>
    26e2:	83 7b 08 01          	cmpl   $0x1,0x8(%ebx)
    26e6:	75 60                	jne    2748 <usb_pipe_write+0x88>
    26e8:	8b 43 04             	mov    0x4(%ebx),%eax
    26eb:	85 c0                	test   %eax,%eax
    26ed:	74 59                	je     2748 <usb_pipe_write+0x88>
    26ef:	83 e8 02             	sub    $0x2,%eax
    26f2:	83 f8 01             	cmp    $0x1,%eax
    26f5:	77 41                	ja     2738 <usb_pipe_write+0x78>
    26f7:	83 ec 0c             	sub    $0xc,%esp
    26fa:	8b 43 18             	mov    0x18(%ebx),%eax
    26fd:	50                   	push   %eax
    26fe:	e8 ad d1 00 00       	call   f8b0 <async_exchange_begin@plt>
    2703:	89 c7                	mov    %eax,%edi
    2705:	8b 45 10             	mov    0x10(%ebp),%eax
    2708:	5a                   	pop    %edx
    2709:	59                   	pop    %ecx
    270a:	50                   	push   %eax
    270b:	56                   	push   %esi
    270c:	0f bf 03             	movswl (%ebx),%eax
    270f:	6a 00                	push   $0x0
    2711:	6a 00                	push   $0x0
    2713:	50                   	push   %eax
    2714:	57                   	push   %edi
    2715:	e8 76 91 00 00       	call   b890 <usb_write>
    271a:	83 c4 14             	add    $0x14,%esp
    271d:	57                   	push   %edi
    271e:	89 45 e4             	mov    %eax,-0x1c(%ebp)
    2721:	e8 9a cf 00 00       	call   f6c0 <async_exchange_end@plt>
    2726:	83 c4 10             	add    $0x10,%esp
    2729:	8b 45 e4             	mov    -0x1c(%ebp),%eax
    272c:	8d 65 f4             	lea    -0xc(%ebp),%esp
    272f:	5b                   	pop    %ebx
    2730:	5e                   	pop    %esi
    2731:	5f                   	pop    %edi
    2732:	5d                   	pop    %ebp
    2733:	c3                   	ret    
    2734:	8d 74 26 00          	lea    0x0(%esi,%eiz,1),%esi
    2738:	8d 65 f4             	lea    -0xc(%ebp),%esp
    273b:	b8 f5 ff ff ff       	mov    $0xfffffff5,%eax
    2740:	5b                   	pop    %ebx
    2741:	5e                   	pop    %esi
    2742:	5f                   	pop    %edi
    2743:	5d                   	pop    %ebp
    2744:	c3                   	ret    
    2745:	8d 76 00             	lea    0x0(%esi),%esi
    2748:	8d 65 f4             	lea    -0xc(%ebp),%esp
    274b:	b8 fa fe ff ff       	mov    $0xfffffefa,%eax
    2750:	5b                   	pop    %ebx
    2751:	5e                   	pop    %esi
    2752:	5f                   	pop    %edi
    2753:	5d                   	pop    %ebp
    2754:	c3                   	ret    
    2755:	8d 76 00             	lea    0x0(%esi),%esi
    2758:	b8 f2 ff ff ff       	mov    $0xfffffff2,%eax
    275d:	eb cd                	jmp    272c <usb_pipe_write+0x6c>
    275f:	50                   	push   %eax
    2760:	68 dc 00 00 00       	push   $0xdc
    2765:	68 fd d6 00 00       	push   $0xd6fd
    276a:	68 09 d7 00 00       	push   $0xd709
    276f:	e8 5c cf 00 00       	call   f6d0 <assert_abort@plt>
    2774:	8d b6 00 00 00 00    	lea    0x0(%esi),%esi
    277a:	8d bf 00 00 00 00    	lea    0x0(%edi),%edi

00002780 <usb_pipe_initialize>:
    2780:	55                   	push   %ebp
    2781:	89 e5                	mov    %esp,%ebp
    2783:	83 ec 08             	sub    $0x8,%esp
    2786:	8b 45 08             	mov    0x8(%ebp),%eax
    2789:	8b 55 0c             	mov    0xc(%ebp),%edx
    278c:	85 c0                	test   %eax,%eax
    278e:	74 29                	je     27b9 <usb_pipe_initialize+0x39>
    2790:	66 89 10             	mov    %dx,(%eax)
    2793:	8b 55 10             	mov    0x10(%ebp),%edx
    2796:	89 50 04             	mov    %edx,0x4(%eax)
    2799:	8b 55 1c             	mov    0x1c(%ebp),%edx
    279c:	89 50 10             	mov    %edx,0x10(%eax)
    279f:	8b 55 14             	mov    0x14(%ebp),%edx
    27a2:	89 50 0c             	mov    %edx,0xc(%eax)
    27a5:	8b 55 18             	mov    0x18(%ebp),%edx
    27a8:	89 50 08             	mov    %edx,0x8(%eax)
    27ab:	8b 55 20             	mov    0x20(%ebp),%edx
    27ae:	c6 40 14 00          	movb   $0x0,0x14(%eax)
    27b2:	89 50 18             	mov    %edx,0x18(%eax)
    27b5:	c9                   	leave  
    27b6:	31 c0                	xor    %eax,%eax
    27b8:	c3                   	ret    
    27b9:	50                   	push   %eax
    27ba:	68 02 01 00 00       	push   $0x102
    27bf:	68 fd d6 00 00       	push   $0xd6fd
    27c4:	68 09 d7 00 00       	push   $0xd709
    27c9:	e8 02 cf 00 00       	call   f6d0 <assert_abort@plt>
    27ce:	66 90                	xchg   %ax,%ax

000027d0 <usb_pipe_initialize_default_control>:
    27d0:	55                   	push   %ebp
    27d1:	89 e5                	mov    %esp,%ebp
    27d3:	83 ec 08             	sub    $0x8,%esp
    27d6:	8b 45 08             	mov    0x8(%ebp),%eax
    27d9:	85 c0                	test   %eax,%eax
    27db:	74 2f                	je     280c <usb_pipe_initialize_default_control+0x3c>
    27dd:	8b 55 0c             	mov    0xc(%ebp),%edx
    27e0:	66 c7 00 00 00       	movw   $0x0,(%eax)
    27e5:	c7 40 04 00 00 00 00 	movl   $0x0,0x4(%eax)
    27ec:	c7 40 10 01 00 00 00 	movl   $0x1,0x10(%eax)
    27f3:	c7 40 0c 08 00 00 00 	movl   $0x8,0xc(%eax)
    27fa:	c7 40 08 02 00 00 00 	movl   $0x2,0x8(%eax)
    2801:	89 50 18             	mov    %edx,0x18(%eax)
    2804:	c6 40 14 01          	movb   $0x1,0x14(%eax)
    2808:	c9                   	leave  
    2809:	31 c0                	xor    %eax,%eax
    280b:	c3                   	ret    
    280c:	50                   	push   %eax
    280d:	68 17 01 00 00       	push   $0x117
    2812:	68 fd d6 00 00       	push   $0xd6fd
    2817:	68 09 d7 00 00       	push   $0xd709
    281c:	e8 af ce 00 00       	call   f6d0 <assert_abort@plt>
    2821:	eb 0d                	jmp    2830 <usb_pipe_register>
    2823:	90                   	nop
    2824:	90                   	nop
    2825:	90                   	nop
    2826:	90                   	nop
    2827:	90                   	nop
    2828:	90                   	nop
    2829:	90                   	nop
    282a:	90                   	nop
    282b:	90                   	nop
    282c:	90                   	nop
    282d:	90                   	nop
    282e:	90                   	nop
    282f:	90                   	nop

00002830 <usb_pipe_register>:
    2830:	55                   	push   %ebp
    2831:	89 e5                	mov    %esp,%ebp
    2833:	56                   	push   %esi
    2834:	53                   	push   %ebx
    2835:	83 ec 10             	sub    $0x10,%esp
    2838:	8b 5d 08             	mov    0x8(%ebp),%ebx
    283b:	85 db                	test   %ebx,%ebx
    283d:	74 6d                	je     28ac <usb_pipe_register+0x7c>
    283f:	8b 43 18             	mov    0x18(%ebx),%eax
    2842:	85 c0                	test   %eax,%eax
    2844:	74 51                	je     2897 <usb_pipe_register+0x67>
    2846:	83 ec 0c             	sub    $0xc,%esp
    2849:	50                   	push   %eax
    284a:	e8 61 d0 00 00       	call   f8b0 <async_exchange_begin@plt>
    284f:	83 c4 10             	add    $0x10,%esp
    2852:	89 c6                	mov    %eax,%esi
    2854:	85 c0                	test   %eax,%eax
    2856:	74 38                	je     2890 <usb_pipe_register+0x60>
    2858:	8b 55 0c             	mov    0xc(%ebp),%edx
    285b:	50                   	push   %eax
    285c:	52                   	push   %edx
    285d:	8b 4b 10             	mov    0x10(%ebx),%ecx
    2860:	51                   	push   %ecx
    2861:	8b 43 0c             	mov    0xc(%ebx),%eax
    2864:	50                   	push   %eax
    2865:	8b 43 08             	mov    0x8(%ebx),%eax
    2868:	50                   	push   %eax
    2869:	8b 43 04             	mov    0x4(%ebx),%eax
    286c:	50                   	push   %eax
    286d:	0f bf 03             	movswl (%ebx),%eax
    2870:	50                   	push   %eax
    2871:	56                   	push   %esi
    2872:	e8 79 8e 00 00       	call   b6f0 <usb_register_endpoint>
    2877:	83 c4 14             	add    $0x14,%esp
    287a:	56                   	push   %esi
    287b:	89 45 f4             	mov    %eax,-0xc(%ebp)
    287e:	e8 3d ce 00 00       	call   f6c0 <async_exchange_end@plt>
    2883:	83 c4 10             	add    $0x10,%esp
    2886:	8b 45 f4             	mov    -0xc(%ebp),%eax
    2889:	8d 65 f8             	lea    -0x8(%ebp),%esp
    288c:	5b                   	pop    %ebx
    288d:	5e                   	pop    %esi
    288e:	5d                   	pop    %ebp
    288f:	c3                   	ret    
    2890:	b8 fe ff ff ff       	mov    $0xfffffffe,%eax
    2895:	eb f2                	jmp    2889 <usb_pipe_register+0x59>
    2897:	50                   	push   %eax
    2898:	68 2a 01 00 00       	push   $0x12a
    289d:	68 fd d6 00 00       	push   $0xd6fd
    28a2:	68 0e d7 00 00       	push   $0xd70e
    28a7:	e8 24 ce 00 00       	call   f6d0 <assert_abort@plt>
    28ac:	50                   	push   %eax
    28ad:	68 29 01 00 00       	push   $0x129
    28b2:	68 fd d6 00 00       	push   $0xd6fd
    28b7:	68 09 d7 00 00       	push   $0xd709
    28bc:	e8 0f ce 00 00       	call   f6d0 <assert_abort@plt>
    28c1:	eb 0d                	jmp    28d0 <usb_pipe_unregister>
    28c3:	90                   	nop
    28c4:	90                   	nop
    28c5:	90                   	nop
    28c6:	90                   	nop
    28c7:	90                   	nop
    28c8:	90                   	nop
    28c9:	90                   	nop
    28ca:	90                   	nop
    28cb:	90                   	nop
    28cc:	90                   	nop
    28cd:	90                   	nop
    28ce:	90                   	nop
    28cf:	90                   	nop

000028d0 <usb_pipe_unregister>:
    28d0:	55                   	push   %ebp
    28d1:	89 e5                	mov    %esp,%ebp
    28d3:	56                   	push   %esi
    28d4:	53                   	push   %ebx
    28d5:	83 ec 10             	sub    $0x10,%esp
    28d8:	8b 5d 08             	mov    0x8(%ebp),%ebx
    28db:	85 db                	test   %ebx,%ebx
    28dd:	74 5d                	je     293c <usb_pipe_unregister+0x6c>
    28df:	8b 43 18             	mov    0x18(%ebx),%eax
    28e2:	85 c0                	test   %eax,%eax
    28e4:	74 41                	je     2927 <usb_pipe_unregister+0x57>
    28e6:	83 ec 0c             	sub    $0xc,%esp
    28e9:	50                   	push   %eax
    28ea:	e8 c1 cf 00 00       	call   f8b0 <async_exchange_begin@plt>
    28ef:	83 c4 10             	add    $0x10,%esp
    28f2:	89 c6                	mov    %eax,%esi
    28f4:	85 c0                	test   %eax,%eax
    28f6:	74 28                	je     2920 <usb_pipe_unregister+0x50>
    28f8:	50                   	push   %eax
    28f9:	0f bf 03             	movswl (%ebx),%eax
    28fc:	8b 53 08             	mov    0x8(%ebx),%edx
    28ff:	52                   	push   %edx
    2900:	50                   	push   %eax
    2901:	56                   	push   %esi
    2902:	e8 59 8e 00 00       	call   b760 <usb_unregister_endpoint>
    2907:	89 34 24             	mov    %esi,(%esp)
    290a:	89 45 f4             	mov    %eax,-0xc(%ebp)
    290d:	e8 ae cd 00 00       	call   f6c0 <async_exchange_end@plt>
    2912:	83 c4 10             	add    $0x10,%esp
    2915:	8b 45 f4             	mov    -0xc(%ebp),%eax
    2918:	8d 65 f8             	lea    -0x8(%ebp),%esp
    291b:	5b                   	pop    %ebx
    291c:	5e                   	pop    %esi
    291d:	5d                   	pop    %ebp
    291e:	c3                   	ret    
    291f:	90                   	nop
    2920:	b8 fe ff ff ff       	mov    $0xfffffffe,%eax
    2925:	eb f1                	jmp    2918 <usb_pipe_unregister+0x48>
    2927:	51                   	push   %ecx
    2928:	68 3d 01 00 00       	push   $0x13d
    292d:	68 fd d6 00 00       	push   $0xd6fd
    2932:	68 0e d7 00 00       	push   $0xd70e
    2937:	e8 94 cd 00 00       	call   f6d0 <assert_abort@plt>
    293c:	53                   	push   %ebx
    293d:	68 3c 01 00 00       	push   $0x13c
    2942:	68 fd d6 00 00       	push   $0xd6fd
    2947:	68 09 d7 00 00       	push   $0xd709
    294c:	e8 7f cd 00 00       	call   f6d0 <assert_abort@plt>
    2951:	66 90                	xchg   %ax,%ax
    2953:	66 90                	xchg   %ax,%ax
    2955:	66 90                	xchg   %ax,%ax
    2957:	66 90                	xchg   %ax,%ax
    2959:	66 90                	xchg   %ax,%ax
    295b:	66 90                	xchg   %ax,%ax
    295d:	66 90                	xchg   %ax,%ax
    295f:	90                   	nop

00002960 <usb_pipe_initialize_from_configuration>:
    2960:	55                   	push   %ebp
    2961:	89 e5                	mov    %esp,%ebp
    2963:	57                   	push   %edi
    2964:	56                   	push   %esi
    2965:	53                   	push   %ebx
    2966:	83 ec 4c             	sub    $0x4c,%esp
    2969:	8b 75 10             	mov    0x10(%ebp),%esi
    296c:	8b 4d 14             	mov    0x14(%ebp),%ecx
    296f:	85 f6                	test   %esi,%esi
    2971:	0f 84 25 02 00 00    	je     2b9c <usb_pipe_initialize_from_configuration+0x23c>
    2977:	83 f9 08             	cmp    $0x8,%ecx
    297a:	0f 86 10 02 00 00    	jbe    2b90 <usb_pipe_initialize_from_configuration+0x230>
    2980:	8b 5d 0c             	mov    0xc(%ebp),%ebx
    2983:	85 db                	test   %ebx,%ebx
    2985:	74 31                	je     29b8 <usb_pipe_initialize_from_configuration+0x58>
    2987:	8b 7d 0c             	mov    0xc(%ebp),%edi
    298a:	8b 45 08             	mov    0x8(%ebp),%eax
    298d:	83 c0 28             	add    $0x28,%eax
    2990:	8d 14 7f             	lea    (%edi,%edi,2),%edx
    2993:	8d 14 97             	lea    (%edi,%edx,4),%edx
    2996:	8b 7d 08             	mov    0x8(%ebp),%edi
    2999:	8d 54 97 28          	lea    0x28(%edi,%edx,4),%edx
    299d:	8d 76 00             	lea    0x0(%esi),%esi
    29a0:	c6 40 08 00          	movb   $0x0,0x8(%eax)
    29a4:	c7 00 00 00 00 00    	movl   $0x0,(%eax)
    29aa:	c7 40 04 00 00 00 00 	movl   $0x0,0x4(%eax)
    29b1:	83 c0 34             	add    $0x34,%eax
    29b4:	39 d0                	cmp    %edx,%eax
    29b6:	75 e8                	jne    29a0 <usb_pipe_initialize_from_configuration+0x40>
    29b8:	8b 45 10             	mov    0x10(%ebp),%eax
    29bb:	52                   	push   %edx
    29bc:	89 45 dc             	mov    %eax,-0x24(%ebp)
    29bf:	50                   	push   %eax
    29c0:	8d 45 dc             	lea    -0x24(%ebp),%eax
    29c3:	c7 45 d8 40 d7 00 00 	movl   $0xd740,-0x28(%ebp)
    29ca:	50                   	push   %eax
    29cb:	8d 45 d8             	lea    -0x28(%ebp),%eax
    29ce:	50                   	push   %eax
    29cf:	c7 45 e4 00 00 00 00 	movl   $0x0,-0x1c(%ebp)
    29d6:	89 4d e0             	mov    %ecx,-0x20(%ebp)
    29d9:	e8 12 15 00 00       	call   3ef0 <usb_dp_get_nested_descriptor>
    29de:	83 c4 10             	add    $0x10,%esp
    29e1:	89 45 c8             	mov    %eax,-0x38(%ebp)
    29e4:	85 c0                	test   %eax,%eax
    29e6:	0f 84 ab 01 00 00    	je     2b97 <usb_pipe_initialize_from_configuration+0x237>
    29ec:	8d 74 26 00          	lea    0x0(%esi,%eiz,1),%esi
    29f0:	50                   	push   %eax
    29f1:	8b 45 c8             	mov    -0x38(%ebp),%eax
    29f4:	50                   	push   %eax
    29f5:	8d 45 dc             	lea    -0x24(%ebp),%eax
    29f8:	50                   	push   %eax
    29f9:	8d 45 d8             	lea    -0x28(%ebp),%eax
    29fc:	50                   	push   %eax
    29fd:	e8 ee 14 00 00       	call   3ef0 <usb_dp_get_nested_descriptor>
    2a02:	83 c4 10             	add    $0x10,%esp
    2a05:	89 c6                	mov    %eax,%esi
    2a07:	85 c0                	test   %eax,%eax
    2a09:	75 24                	jne    2a2f <usb_pipe_initialize_from_configuration+0xcf>
    2a0b:	e9 48 01 00 00       	jmp    2b58 <usb_pipe_initialize_from_configuration+0x1f8>
    2a10:	8b 45 c8             	mov    -0x38(%ebp),%eax
    2a13:	56                   	push   %esi
    2a14:	50                   	push   %eax
    2a15:	8d 45 dc             	lea    -0x24(%ebp),%eax
    2a18:	50                   	push   %eax
    2a19:	8d 45 d8             	lea    -0x28(%ebp),%eax
    2a1c:	50                   	push   %eax
    2a1d:	e8 2e 18 00 00       	call   4250 <usb_dp_get_sibling_descriptor>
    2a22:	83 c4 10             	add    $0x10,%esp
    2a25:	89 c6                	mov    %eax,%esi
    2a27:	85 c0                	test   %eax,%eax
    2a29:	0f 84 29 01 00 00    	je     2b58 <usb_pipe_initialize_from_configuration+0x1f8>
    2a2f:	80 7e 01 05          	cmpb   $0x5,0x1(%esi)
    2a33:	75 db                	jne    2a10 <usb_pipe_initialize_from_configuration+0xb0>
    2a35:	8a 46 02             	mov    0x2(%esi),%al
    2a38:	8b 5d c8             	mov    -0x38(%ebp),%ebx
    2a3b:	83 e0 0f             	and    $0xf,%eax
    2a3e:	88 45 ce             	mov    %al,-0x32(%ebp)
    2a41:	8a 46 03             	mov    0x3(%esi),%al
    2a44:	83 e0 03             	and    $0x3,%eax
    2a47:	89 45 c4             	mov    %eax,-0x3c(%ebp)
    2a4a:	0f be 46 02          	movsbl 0x2(%esi),%eax
    2a4e:	83 f0 ff             	xor    $0xffffffff,%eax
    2a51:	c1 e8 1f             	shr    $0x1f,%eax
    2a54:	89 c7                	mov    %eax,%edi
    2a56:	31 c0                	xor    %eax,%eax
    2a58:	8a 43 05             	mov    0x5(%ebx),%al
    2a5b:	89 45 c0             	mov    %eax,-0x40(%ebp)
    2a5e:	31 c0                	xor    %eax,%eax
    2a60:	8a 43 06             	mov    0x6(%ebx),%al
    2a63:	89 45 b4             	mov    %eax,-0x4c(%ebp)
    2a66:	31 c0                	xor    %eax,%eax
    2a68:	8a 43 07             	mov    0x7(%ebx),%al
    2a6b:	89 45 b0             	mov    %eax,-0x50(%ebp)
    2a6e:	31 c0                	xor    %eax,%eax
    2a70:	8a 43 03             	mov    0x3(%ebx),%al
    2a73:	89 45 d4             	mov    %eax,-0x2c(%ebp)
    2a76:	31 c0                	xor    %eax,%eax
    2a78:	8a 43 02             	mov    0x2(%ebx),%al
    2a7b:	8b 5d 08             	mov    0x8(%ebp),%ebx
    2a7e:	89 45 d0             	mov    %eax,-0x30(%ebp)
    2a81:	8b 45 0c             	mov    0xc(%ebp),%eax
    2a84:	85 c0                	test   %eax,%eax
    2a86:	74 88                	je     2a10 <usb_pipe_initialize_from_configuration+0xb0>
    2a88:	89 75 bc             	mov    %esi,-0x44(%ebp)
    2a8b:	89 c6                	mov    %eax,%esi
    2a8d:	eb 0b                	jmp    2a9a <usb_pipe_initialize_from_configuration+0x13a>
    2a8f:	90                   	nop
    2a90:	83 c3 34             	add    $0x34,%ebx
    2a93:	4e                   	dec    %esi
    2a94:	0f 84 ee 00 00 00    	je     2b88 <usb_pipe_initialize_from_configuration+0x228>
    2a9a:	8b 53 20             	mov    0x20(%ebx),%edx
    2a9d:	89 d0                	mov    %edx,%eax
    2a9f:	c1 e8 1f             	shr    $0x1f,%eax
    2aa2:	39 55 d0             	cmp    %edx,-0x30(%ebp)
    2aa5:	0f 94 c2             	sete   %dl
    2aa8:	09 c2                	or     %eax,%edx
    2aaa:	8b 43 24             	mov    0x24(%ebx),%eax
    2aad:	39 45 d4             	cmp    %eax,-0x2c(%ebp)
    2ab0:	88 55 cf             	mov    %dl,-0x31(%ebp)
    2ab3:	0f 94 c1             	sete   %cl
    2ab6:	c1 e8 1f             	shr    $0x1f,%eax
    2ab9:	09 c8                	or     %ecx,%eax
    2abb:	8b 4b 1c             	mov    0x1c(%ebx),%ecx
    2abe:	3b 79 04             	cmp    0x4(%ecx),%edi
    2ac1:	75 cd                	jne    2a90 <usb_pipe_initialize_from_configuration+0x130>
    2ac3:	8b 55 c4             	mov    -0x3c(%ebp),%edx
    2ac6:	3b 11                	cmp    (%ecx),%edx
    2ac8:	75 c6                	jne    2a90 <usb_pipe_initialize_from_configuration+0x130>
    2aca:	8b 51 08             	mov    0x8(%ecx),%edx
    2acd:	39 55 c0             	cmp    %edx,-0x40(%ebp)
    2ad0:	74 05                	je     2ad7 <usb_pipe_initialize_from_configuration+0x177>
    2ad2:	83 ea 00             	sub    $0x0,%edx
    2ad5:	79 b9                	jns    2a90 <usb_pipe_initialize_from_configuration+0x130>
    2ad7:	8b 51 0c             	mov    0xc(%ecx),%edx
    2ada:	89 55 b8             	mov    %edx,-0x48(%ebp)
    2add:	83 ea 00             	sub    $0x0,%edx
    2ae0:	78 08                	js     2aea <usb_pipe_initialize_from_configuration+0x18a>
    2ae2:	8b 55 b8             	mov    -0x48(%ebp),%edx
    2ae5:	39 55 b4             	cmp    %edx,-0x4c(%ebp)
    2ae8:	75 a6                	jne    2a90 <usb_pipe_initialize_from_configuration+0x130>
    2aea:	8b 49 10             	mov    0x10(%ecx),%ecx
    2aed:	39 4d b0             	cmp    %ecx,-0x50(%ebp)
    2af0:	74 05                	je     2af7 <usb_pipe_initialize_from_configuration+0x197>
    2af2:	83 e9 00             	sub    $0x0,%ecx
    2af5:	79 99                	jns    2a90 <usb_pipe_initialize_from_configuration+0x130>
    2af7:	84 c0                	test   %al,%al
    2af9:	74 95                	je     2a90 <usb_pipe_initialize_from_configuration+0x130>
    2afb:	80 7d cf 00          	cmpb   $0x0,-0x31(%ebp)
    2aff:	74 8f                	je     2a90 <usb_pipe_initialize_from_configuration+0x130>
    2b01:	8b 75 bc             	mov    -0x44(%ebp),%esi
    2b04:	80 7b 30 00          	cmpb   $0x0,0x30(%ebx)
    2b08:	0f 85 02 ff ff ff    	jne    2a10 <usb_pipe_initialize_from_configuration+0xb0>
    2b0e:	66 8b 56 04          	mov    0x4(%esi),%dx
    2b12:	8b 45 18             	mov    0x18(%ebp),%eax
    2b15:	51                   	push   %ecx
    2b16:	50                   	push   %eax
    2b17:	89 d0                	mov    %edx,%eax
    2b19:	81 e2 ff 03 00 00    	and    $0x3ff,%edx
    2b1f:	66 c1 e8 0a          	shr    $0xa,%ax
    2b23:	83 e0 03             	and    $0x3,%eax
    2b26:	40                   	inc    %eax
    2b27:	50                   	push   %eax
    2b28:	8b 45 c4             	mov    -0x3c(%ebp),%eax
    2b2b:	57                   	push   %edi
    2b2c:	52                   	push   %edx
    2b2d:	50                   	push   %eax
    2b2e:	31 c0                	xor    %eax,%eax
    2b30:	8a 45 ce             	mov    -0x32(%ebp),%al
    2b33:	50                   	push   %eax
    2b34:	53                   	push   %ebx
    2b35:	e8 46 fc ff ff       	call   2780 <usb_pipe_initialize>
    2b3a:	83 c4 20             	add    $0x20,%esp
    2b3d:	85 c0                	test   %eax,%eax
    2b3f:	0f 85 cb fe ff ff    	jne    2a10 <usb_pipe_initialize_from_configuration+0xb0>
    2b45:	8b 45 c8             	mov    -0x38(%ebp),%eax
    2b48:	c6 43 30 01          	movb   $0x1,0x30(%ebx)
    2b4c:	89 73 28             	mov    %esi,0x28(%ebx)
    2b4f:	89 43 2c             	mov    %eax,0x2c(%ebx)
    2b52:	e9 b9 fe ff ff       	jmp    2a10 <usb_pipe_initialize_from_configuration+0xb0>
    2b57:	90                   	nop
    2b58:	8b 45 c8             	mov    -0x38(%ebp),%eax
    2b5b:	50                   	push   %eax
    2b5c:	8b 45 10             	mov    0x10(%ebp),%eax
    2b5f:	50                   	push   %eax
    2b60:	8d 45 dc             	lea    -0x24(%ebp),%eax
    2b63:	50                   	push   %eax
    2b64:	8d 45 d8             	lea    -0x28(%ebp),%eax
    2b67:	50                   	push   %eax
    2b68:	e8 e3 16 00 00       	call   4250 <usb_dp_get_sibling_descriptor>
    2b6d:	83 c4 10             	add    $0x10,%esp
    2b70:	89 45 c8             	mov    %eax,-0x38(%ebp)
    2b73:	85 c0                	test   %eax,%eax
    2b75:	0f 85 75 fe ff ff    	jne    29f0 <usb_pipe_initialize_from_configuration+0x90>
    2b7b:	8d 65 f4             	lea    -0xc(%ebp),%esp
    2b7e:	5b                   	pop    %ebx
    2b7f:	5e                   	pop    %esi
    2b80:	5f                   	pop    %edi
    2b81:	5d                   	pop    %ebp
    2b82:	c3                   	ret    
    2b83:	90                   	nop
    2b84:	8d 74 26 00          	lea    0x0(%esi,%eiz,1),%esi
    2b88:	8b 75 bc             	mov    -0x44(%ebp),%esi
    2b8b:	e9 80 fe ff ff       	jmp    2a10 <usb_pipe_initialize_from_configuration+0xb0>
    2b90:	b8 f8 fe ff ff       	mov    $0xfffffef8,%eax
    2b95:	eb e4                	jmp    2b7b <usb_pipe_initialize_from_configuration+0x21b>
    2b97:	83 c8 ff             	or     $0xffffffff,%eax
    2b9a:	eb df                	jmp    2b7b <usb_pipe_initialize_from_configuration+0x21b>
    2b9c:	b8 f6 ff ff ff       	mov    $0xfffffff6,%eax
    2ba1:	eb d8                	jmp    2b7b <usb_pipe_initialize_from_configuration+0x21b>
    2ba3:	8d b6 00 00 00 00    	lea    0x0(%esi),%esi
    2ba9:	8d bc 27 00 00 00 00 	lea    0x0(%edi,%eiz,1),%edi

00002bb0 <usb_pipe_probe_default_control>:
    2bb0:	55                   	push   %ebp
    2bb1:	89 e5                	mov    %esp,%ebp
    2bb3:	57                   	push   %edi
    2bb4:	56                   	push   %esi
    2bb5:	53                   	push   %ebx
    2bb6:	83 ec 2c             	sub    $0x2c,%esp
    2bb9:	8b 5d 08             	mov    0x8(%ebp),%ebx
    2bbc:	85 db                	test   %ebx,%ebx
    2bbe:	74 75                	je     2c35 <usb_pipe_probe_default_control+0x85>
    2bc0:	83 7b 08 02          	cmpl   $0x2,0x8(%ebx)
    2bc4:	75 62                	jne    2c28 <usb_pipe_probe_default_control+0x78>
    2bc6:	8b 43 04             	mov    0x4(%ebx),%eax
    2bc9:	85 c0                	test   %eax,%eax
    2bcb:	75 5b                	jne    2c28 <usb_pipe_probe_default_control+0x78>
    2bcd:	66 83 3b 00          	cmpw   $0x0,(%ebx)
    2bd1:	75 55                	jne    2c28 <usb_pipe_probe_default_control+0x78>
    2bd3:	c7 45 d4 03 00 00 00 	movl   $0x3,-0x2c(%ebp)
    2bda:	8d 7d dc             	lea    -0x24(%ebp),%edi
    2bdd:	8d 75 e0             	lea    -0x20(%ebp),%esi
    2be0:	83 ec 0c             	sub    $0xc,%esp
    2be3:	57                   	push   %edi
    2be4:	6a 08                	push   $0x8
    2be6:	56                   	push   %esi
    2be7:	6a 00                	push   $0x0
    2be9:	6a 00                	push   $0x0
    2beb:	6a 01                	push   $0x1
    2bed:	6a 00                	push   $0x0
    2bef:	6a 00                	push   $0x0
    2bf1:	53                   	push   %ebx
    2bf2:	e8 f9 02 00 00       	call   2ef0 <usb_request_get_descriptor>
    2bf7:	83 c4 30             	add    $0x30,%esp
    2bfa:	85 c0                	test   %eax,%eax
    2bfc:	75 0b                	jne    2c09 <usb_pipe_probe_default_control+0x59>
    2bfe:	83 7d dc 08          	cmpl   $0x8,-0x24(%ebp)
    2c02:	74 14                	je     2c18 <usb_pipe_probe_default_control+0x68>
    2c04:	b8 fd ff ff ff       	mov    $0xfffffffd,%eax
    2c09:	ff 4d d4             	decl   -0x2c(%ebp)
    2c0c:	75 d2                	jne    2be0 <usb_pipe_probe_default_control+0x30>
    2c0e:	8d 65 f4             	lea    -0xc(%ebp),%esp
    2c11:	5b                   	pop    %ebx
    2c12:	5e                   	pop    %esi
    2c13:	5f                   	pop    %edi
    2c14:	5d                   	pop    %ebp
    2c15:	c3                   	ret    
    2c16:	66 90                	xchg   %ax,%ax
    2c18:	31 c9                	xor    %ecx,%ecx
    2c1a:	8a 4d e7             	mov    -0x19(%ebp),%cl
    2c1d:	89 4b 0c             	mov    %ecx,0xc(%ebx)
    2c20:	8d 65 f4             	lea    -0xc(%ebp),%esp
    2c23:	5b                   	pop    %ebx
    2c24:	5e                   	pop    %esi
    2c25:	5f                   	pop    %edi
    2c26:	5d                   	pop    %ebp
    2c27:	c3                   	ret    
    2c28:	8d 65 f4             	lea    -0xc(%ebp),%esp
    2c2b:	b8 f2 ff ff ff       	mov    $0xfffffff2,%eax
    2c30:	5b                   	pop    %ebx
    2c31:	5e                   	pop    %esi
    2c32:	5f                   	pop    %edi
    2c33:	5d                   	pop    %ebp
    2c34:	c3                   	ret    
    2c35:	52                   	push   %edx
    2c36:	68 56 01 00 00       	push   $0x156
    2c3b:	68 20 d7 00 00       	push   $0xd720
    2c40:	68 09 d7 00 00       	push   $0xd709
    2c45:	e8 86 ca 00 00       	call   f6d0 <assert_abort@plt>
    2c4a:	66 90                	xchg   %ax,%ax
    2c4c:	66 90                	xchg   %ax,%ax
    2c4e:	66 90                	xchg   %ax,%ax

00002c50 <usb_control_request_set>:
    2c50:	55                   	push   %ebp
    2c51:	89 e5                	mov    %esp,%ebp
    2c53:	57                   	push   %edi
    2c54:	56                   	push   %esi
    2c55:	53                   	push   %ebx
    2c56:	83 ec 1c             	sub    $0x1c,%esp
    2c59:	8b 4d 08             	mov    0x8(%ebp),%ecx
    2c5c:	8b 7d 14             	mov    0x14(%ebp),%edi
    2c5f:	8b 75 18             	mov    0x18(%ebp),%esi
    2c62:	8b 5d 1c             	mov    0x1c(%ebp),%ebx
    2c65:	8b 55 24             	mov    0x24(%ebp),%edx
    2c68:	85 c9                	test   %ecx,%ecx
    2c6a:	74 54                	je     2cc0 <usb_control_request_set+0x70>
    2c6c:	81 fa ff ff 00 00    	cmp    $0xffff,%edx
    2c72:	77 54                	ja     2cc8 <usb_control_request_set+0x78>
    2c74:	85 d2                	test   %edx,%edx
    2c76:	74 07                	je     2c7f <usb_control_request_set+0x2f>
    2c78:	8b 45 20             	mov    0x20(%ebp),%eax
    2c7b:	85 c0                	test   %eax,%eax
    2c7d:	74 41                	je     2cc0 <usb_control_request_set+0x70>
    2c7f:	8a 45 0c             	mov    0xc(%ebp),%al
    2c82:	83 ec 0c             	sub    $0xc,%esp
    2c85:	c1 e0 05             	shl    $0x5,%eax
    2c88:	66 89 75 e2          	mov    %si,-0x1e(%ebp)
    2c8c:	0b 45 10             	or     0x10(%ebp),%eax
    2c8f:	52                   	push   %edx
    2c90:	88 45 e0             	mov    %al,-0x20(%ebp)
    2c93:	89 f8                	mov    %edi,%eax
    2c95:	88 45 e1             	mov    %al,-0x1f(%ebp)
    2c98:	8b 45 20             	mov    0x20(%ebp),%eax
    2c9b:	50                   	push   %eax
    2c9c:	8d 45 e0             	lea    -0x20(%ebp),%eax
    2c9f:	6a 08                	push   $0x8
    2ca1:	50                   	push   %eax
    2ca2:	51                   	push   %ecx
    2ca3:	66 89 5d e4          	mov    %bx,-0x1c(%ebp)
    2ca7:	66 89 55 e6          	mov    %dx,-0x1a(%ebp)
    2cab:	e8 30 f8 ff ff       	call   24e0 <usb_pipe_control_write>
    2cb0:	83 c4 20             	add    $0x20,%esp
    2cb3:	8d 65 f4             	lea    -0xc(%ebp),%esp
    2cb6:	5b                   	pop    %ebx
    2cb7:	5e                   	pop    %esi
    2cb8:	5f                   	pop    %edi
    2cb9:	5d                   	pop    %ebp
    2cba:	c3                   	ret    
    2cbb:	90                   	nop
    2cbc:	8d 74 26 00          	lea    0x0(%esi,%eiz,1),%esi
    2cc0:	b8 f6 ff ff ff       	mov    $0xfffffff6,%eax
    2cc5:	eb ec                	jmp    2cb3 <usb_control_request_set+0x63>
    2cc7:	90                   	nop
    2cc8:	b8 f8 fe ff ff       	mov    $0xfffffef8,%eax
    2ccd:	eb e4                	jmp    2cb3 <usb_control_request_set+0x63>
    2ccf:	90                   	nop

00002cd0 <usb_control_request_get>:
    2cd0:	55                   	push   %ebp
    2cd1:	89 e5                	mov    %esp,%ebp
    2cd3:	57                   	push   %edi
    2cd4:	56                   	push   %esi
    2cd5:	53                   	push   %ebx
    2cd6:	83 ec 2c             	sub    $0x2c,%esp
    2cd9:	8b 4d 08             	mov    0x8(%ebp),%ecx
    2cdc:	8b 7d 14             	mov    0x14(%ebp),%edi
    2cdf:	8b 75 18             	mov    0x18(%ebp),%esi
    2ce2:	8b 5d 1c             	mov    0x1c(%ebp),%ebx
    2ce5:	8b 55 24             	mov    0x24(%ebp),%edx
    2ce8:	85 c9                	test   %ecx,%ecx
    2cea:	74 5c                	je     2d48 <usb_control_request_get+0x78>
    2cec:	81 fa ff ff 00 00    	cmp    $0xffff,%edx
    2cf2:	77 5c                	ja     2d50 <usb_control_request_get+0x80>
    2cf4:	85 d2                	test   %edx,%edx
    2cf6:	74 07                	je     2cff <usb_control_request_get+0x2f>
    2cf8:	8b 45 20             	mov    0x20(%ebp),%eax
    2cfb:	85 c0                	test   %eax,%eax
    2cfd:	74 49                	je     2d48 <usb_control_request_get+0x78>
    2cff:	8a 45 0c             	mov    0xc(%ebp),%al
    2d02:	66 89 75 e2          	mov    %si,-0x1e(%ebp)
    2d06:	c1 e0 05             	shl    $0x5,%eax
    2d09:	66 89 5d e4          	mov    %bx,-0x1c(%ebp)
    2d0d:	88 45 d7             	mov    %al,-0x29(%ebp)
    2d10:	8a 45 10             	mov    0x10(%ebp),%al
    2d13:	83 c8 80             	or     $0xffffff80,%eax
    2d16:	8b 5d 28             	mov    0x28(%ebp),%ebx
    2d19:	0a 45 d7             	or     -0x29(%ebp),%al
    2d1c:	8b 75 20             	mov    0x20(%ebp),%esi
    2d1f:	88 45 e0             	mov    %al,-0x20(%ebp)
    2d22:	89 f8                	mov    %edi,%eax
    2d24:	88 45 e1             	mov    %al,-0x1f(%ebp)
    2d27:	50                   	push   %eax
    2d28:	50                   	push   %eax
    2d29:	8d 45 e0             	lea    -0x20(%ebp),%eax
    2d2c:	53                   	push   %ebx
    2d2d:	52                   	push   %edx
    2d2e:	56                   	push   %esi
    2d2f:	6a 08                	push   $0x8
    2d31:	50                   	push   %eax
    2d32:	51                   	push   %ecx
    2d33:	66 89 55 e6          	mov    %dx,-0x1a(%ebp)
    2d37:	e8 74 f6 ff ff       	call   23b0 <usb_pipe_control_read>
    2d3c:	83 c4 20             	add    $0x20,%esp
    2d3f:	8d 65 f4             	lea    -0xc(%ebp),%esp
    2d42:	5b                   	pop    %ebx
    2d43:	5e                   	pop    %esi
    2d44:	5f                   	pop    %edi
    2d45:	5d                   	pop    %ebp
    2d46:	c3                   	ret    
    2d47:	90                   	nop
    2d48:	b8 f6 ff ff ff       	mov    $0xfffffff6,%eax
    2d4d:	eb f0                	jmp    2d3f <usb_control_request_get+0x6f>
    2d4f:	90                   	nop
    2d50:	b8 f8 fe ff ff       	mov    $0xfffffef8,%eax
    2d55:	eb e8                	jmp    2d3f <usb_control_request_get+0x6f>
    2d57:	89 f6                	mov    %esi,%esi
    2d59:	8d bc 27 00 00 00 00 	lea    0x0(%edi,%eiz,1),%edi

00002d60 <usb_request_get_status>:
    2d60:	55                   	push   %ebp
    2d61:	89 e5                	mov    %esp,%ebp
    2d63:	53                   	push   %ebx
    2d64:	83 ec 14             	sub    $0x14,%esp
    2d67:	8b 45 0c             	mov    0xc(%ebp),%eax
    2d6a:	8b 55 08             	mov    0x8(%ebp),%edx
    2d6d:	8b 4d 10             	mov    0x10(%ebp),%ecx
    2d70:	8b 5d 14             	mov    0x14(%ebp),%ebx
    2d73:	85 c0                	test   %eax,%eax
    2d75:	75 05                	jne    2d7c <usb_request_get_status+0x1c>
    2d77:	66 85 c9             	test   %cx,%cx
    2d7a:	75 6c                	jne    2de8 <usb_request_get_status+0x88>
    2d7c:	85 db                	test   %ebx,%ebx
    2d7e:	74 50                	je     2dd0 <usb_request_get_status+0x70>
    2d80:	85 d2                	test   %edx,%edx
    2d82:	74 4c                	je     2dd0 <usb_request_get_status+0x70>
    2d84:	83 c8 80             	or     $0xffffff80,%eax
    2d87:	c6 45 f1 00          	movb   $0x0,-0xf(%ebp)
    2d8b:	88 45 f0             	mov    %al,-0x10(%ebp)
    2d8e:	50                   	push   %eax
    2d8f:	50                   	push   %eax
    2d90:	8d 45 ec             	lea    -0x14(%ebp),%eax
    2d93:	50                   	push   %eax
    2d94:	8d 45 ea             	lea    -0x16(%ebp),%eax
    2d97:	6a 02                	push   $0x2
    2d99:	50                   	push   %eax
    2d9a:	8d 45 f0             	lea    -0x10(%ebp),%eax
    2d9d:	6a 08                	push   $0x8
    2d9f:	66 c7 45 f2 00 00    	movw   $0x0,-0xe(%ebp)
    2da5:	50                   	push   %eax
    2da6:	66 89 4d f4          	mov    %cx,-0xc(%ebp)
    2daa:	52                   	push   %edx
    2dab:	66 c7 45 f6 02 00    	movw   $0x2,-0xa(%ebp)
    2db1:	e8 fa f5 ff ff       	call   23b0 <usb_pipe_control_read>
    2db6:	83 c4 20             	add    $0x20,%esp
    2db9:	85 c0                	test   %eax,%eax
    2dbb:	75 0d                	jne    2dca <usb_request_get_status+0x6a>
    2dbd:	83 7d ec 02          	cmpl   $0x2,-0x14(%ebp)
    2dc1:	75 1d                	jne    2de0 <usb_request_get_status+0x80>
    2dc3:	66 8b 55 ea          	mov    -0x16(%ebp),%dx
    2dc7:	66 89 13             	mov    %dx,(%ebx)
    2dca:	8b 5d fc             	mov    -0x4(%ebp),%ebx
    2dcd:	c9                   	leave  
    2dce:	c3                   	ret    
    2dcf:	90                   	nop
    2dd0:	b8 f6 ff ff ff       	mov    $0xfffffff6,%eax
    2dd5:	8b 5d fc             	mov    -0x4(%ebp),%ebx
    2dd8:	c9                   	leave  
    2dd9:	c3                   	ret    
    2dda:	8d b6 00 00 00 00    	lea    0x0(%esi),%esi
    2de0:	b8 fd ff ff ff       	mov    $0xfffffffd,%eax
    2de5:	eb e3                	jmp    2dca <usb_request_get_status+0x6a>
    2de7:	90                   	nop
    2de8:	b8 f2 ff ff ff       	mov    $0xfffffff2,%eax
    2ded:	eb db                	jmp    2dca <usb_request_get_status+0x6a>
    2def:	90                   	nop

00002df0 <usb_request_clear_feature>:
    2df0:	55                   	push   %ebp
    2df1:	89 e5                	mov    %esp,%ebp
    2df3:	53                   	push   %ebx
    2df4:	83 ec 14             	sub    $0x14,%esp
    2df7:	8b 45 0c             	mov    0xc(%ebp),%eax
    2dfa:	8b 55 08             	mov    0x8(%ebp),%edx
    2dfd:	8b 5d 14             	mov    0x14(%ebp),%ebx
    2e00:	8b 4d 18             	mov    0x18(%ebp),%ecx
    2e03:	85 c0                	test   %eax,%eax
    2e05:	75 0b                	jne    2e12 <usb_request_clear_feature+0x22>
    2e07:	83 7d 10 00          	cmpl   $0x0,0x10(%ebp)
    2e0b:	75 05                	jne    2e12 <usb_request_clear_feature+0x22>
    2e0d:	66 85 c9             	test   %cx,%cx
    2e10:	75 4e                	jne    2e60 <usb_request_clear_feature+0x70>
    2e12:	85 d2                	test   %edx,%edx
    2e14:	74 3a                	je     2e50 <usb_request_clear_feature+0x60>
    2e16:	c1 e0 05             	shl    $0x5,%eax
    2e19:	83 ec 0c             	sub    $0xc,%esp
    2e1c:	0b 45 10             	or     0x10(%ebp),%eax
    2e1f:	c6 45 f1 01          	movb   $0x1,-0xf(%ebp)
    2e23:	88 45 f0             	mov    %al,-0x10(%ebp)
    2e26:	8d 45 f0             	lea    -0x10(%ebp),%eax
    2e29:	6a 00                	push   $0x0
    2e2b:	6a 00                	push   $0x0
    2e2d:	6a 08                	push   $0x8
    2e2f:	50                   	push   %eax
    2e30:	52                   	push   %edx
    2e31:	66 89 5d f2          	mov    %bx,-0xe(%ebp)
    2e35:	66 89 4d f4          	mov    %cx,-0xc(%ebp)
    2e39:	66 c7 45 f6 00 00    	movw   $0x0,-0xa(%ebp)
    2e3f:	e8 9c f6 ff ff       	call   24e0 <usb_pipe_control_write>
    2e44:	83 c4 20             	add    $0x20,%esp
    2e47:	8b 5d fc             	mov    -0x4(%ebp),%ebx
    2e4a:	c9                   	leave  
    2e4b:	c3                   	ret    
    2e4c:	8d 74 26 00          	lea    0x0(%esi,%eiz,1),%esi
    2e50:	b8 f6 ff ff ff       	mov    $0xfffffff6,%eax
    2e55:	8b 5d fc             	mov    -0x4(%ebp),%ebx
    2e58:	c9                   	leave  
    2e59:	c3                   	ret    
    2e5a:	8d b6 00 00 00 00    	lea    0x0(%esi),%esi
    2e60:	b8 f2 ff ff ff       	mov    $0xfffffff2,%eax
    2e65:	eb e0                	jmp    2e47 <usb_request_clear_feature+0x57>
    2e67:	89 f6                	mov    %esi,%esi
    2e69:	8d bc 27 00 00 00 00 	lea    0x0(%edi,%eiz,1),%edi

00002e70 <usb_request_set_feature>:
    2e70:	55                   	push   %ebp
    2e71:	89 e5                	mov    %esp,%ebp
    2e73:	53                   	push   %ebx
    2e74:	83 ec 14             	sub    $0x14,%esp
    2e77:	8b 45 0c             	mov    0xc(%ebp),%eax
    2e7a:	8b 55 08             	mov    0x8(%ebp),%edx
    2e7d:	8b 5d 14             	mov    0x14(%ebp),%ebx
    2e80:	8b 4d 18             	mov    0x18(%ebp),%ecx
    2e83:	85 c0                	test   %eax,%eax
    2e85:	75 0b                	jne    2e92 <usb_request_set_feature+0x22>
    2e87:	83 7d 10 00          	cmpl   $0x0,0x10(%ebp)
    2e8b:	75 05                	jne    2e92 <usb_request_set_feature+0x22>
    2e8d:	66 85 c9             	test   %cx,%cx
    2e90:	75 4e                	jne    2ee0 <usb_request_set_feature+0x70>
    2e92:	85 d2                	test   %edx,%edx
    2e94:	74 3a                	je     2ed0 <usb_request_set_feature+0x60>
    2e96:	c1 e0 05             	shl    $0x5,%eax
    2e99:	83 ec 0c             	sub    $0xc,%esp
    2e9c:	0b 45 10             	or     0x10(%ebp),%eax
    2e9f:	c6 45 f1 03          	movb   $0x3,-0xf(%ebp)
    2ea3:	88 45 f0             	mov    %al,-0x10(%ebp)
    2ea6:	8d 45 f0             	lea    -0x10(%ebp),%eax
    2ea9:	6a 00                	push   $0x0
    2eab:	6a 00                	push   $0x0
    2ead:	6a 08                	push   $0x8
    2eaf:	50                   	push   %eax
    2eb0:	52                   	push   %edx
    2eb1:	66 89 5d f2          	mov    %bx,-0xe(%ebp)
    2eb5:	66 89 4d f4          	mov    %cx,-0xc(%ebp)
    2eb9:	66 c7 45 f6 00 00    	movw   $0x0,-0xa(%ebp)
    2ebf:	e8 1c f6 ff ff       	call   24e0 <usb_pipe_control_write>
    2ec4:	83 c4 20             	add    $0x20,%esp
    2ec7:	8b 5d fc             	mov    -0x4(%ebp),%ebx
    2eca:	c9                   	leave  
    2ecb:	c3                   	ret    
    2ecc:	8d 74 26 00          	lea    0x0(%esi,%eiz,1),%esi
    2ed0:	b8 f6 ff ff ff       	mov    $0xfffffff6,%eax
    2ed5:	8b 5d fc             	mov    -0x4(%ebp),%ebx
    2ed8:	c9                   	leave  
    2ed9:	c3                   	ret    
    2eda:	8d b6 00 00 00 00    	lea    0x0(%esi),%esi
    2ee0:	b8 f2 ff ff ff       	mov    $0xfffffff2,%eax
    2ee5:	eb e0                	jmp    2ec7 <usb_request_set_feature+0x57>
    2ee7:	89 f6                	mov    %esi,%esi
    2ee9:	8d bc 27 00 00 00 00 	lea    0x0(%edi,%eiz,1),%edi

00002ef0 <usb_request_get_descriptor>:
    2ef0:	55                   	push   %ebp
    2ef1:	89 e5                	mov    %esp,%ebp
    2ef3:	57                   	push   %edi
    2ef4:	56                   	push   %esi
    2ef5:	53                   	push   %ebx
    2ef6:	83 ec 2c             	sub    $0x2c,%esp
    2ef9:	8b 5d 20             	mov    0x20(%ebp),%ebx
    2efc:	8b 75 08             	mov    0x8(%ebp),%esi
    2eff:	8b 45 14             	mov    0x14(%ebp),%eax
    2f02:	8b 55 18             	mov    0x18(%ebp),%edx
    2f05:	8b 7d 1c             	mov    0x1c(%ebp),%edi
    2f08:	8b 4d 24             	mov    0x24(%ebp),%ecx
    2f0b:	85 db                	test   %ebx,%ebx
    2f0d:	74 71                	je     2f80 <usb_request_get_descriptor+0x90>
    2f0f:	85 c9                	test   %ecx,%ecx
    2f11:	74 5d                	je     2f70 <usb_request_get_descriptor+0x80>
    2f13:	c1 e0 08             	shl    $0x8,%eax
    2f16:	81 e2 ff 00 00 00    	and    $0xff,%edx
    2f1c:	09 d0                	or     %edx,%eax
    2f1e:	85 f6                	test   %esi,%esi
    2f20:	74 5e                	je     2f80 <usb_request_get_descriptor+0x90>
    2f22:	81 f9 ff ff 00 00    	cmp    $0xffff,%ecx
    2f28:	77 4e                	ja     2f78 <usb_request_get_descriptor+0x88>
    2f2a:	8a 55 10             	mov    0x10(%ebp),%dl
    2f2d:	66 89 45 e2          	mov    %ax,-0x1e(%ebp)
    2f31:	83 ca 80             	or     $0xffffff80,%edx
    2f34:	50                   	push   %eax
    2f35:	88 55 d7             	mov    %dl,-0x29(%ebp)
    2f38:	8a 55 0c             	mov    0xc(%ebp),%dl
    2f3b:	c1 e2 05             	shl    $0x5,%edx
    2f3e:	50                   	push   %eax
    2f3f:	0a 55 d7             	or     -0x29(%ebp),%dl
    2f42:	8d 45 e0             	lea    -0x20(%ebp),%eax
    2f45:	88 55 e0             	mov    %dl,-0x20(%ebp)
    2f48:	8b 55 28             	mov    0x28(%ebp),%edx
    2f4b:	52                   	push   %edx
    2f4c:	51                   	push   %ecx
    2f4d:	53                   	push   %ebx
    2f4e:	6a 08                	push   $0x8
    2f50:	50                   	push   %eax
    2f51:	56                   	push   %esi
    2f52:	c6 45 e1 06          	movb   $0x6,-0x1f(%ebp)
    2f56:	66 89 7d e4          	mov    %di,-0x1c(%ebp)
    2f5a:	66 89 4d e6          	mov    %cx,-0x1a(%ebp)
    2f5e:	e8 4d f4 ff ff       	call   23b0 <usb_pipe_control_read>
    2f63:	83 c4 20             	add    $0x20,%esp
    2f66:	8d 65 f4             	lea    -0xc(%ebp),%esp
    2f69:	5b                   	pop    %ebx
    2f6a:	5e                   	pop    %esi
    2f6b:	5f                   	pop    %edi
    2f6c:	5d                   	pop    %ebp
    2f6d:	c3                   	ret    
    2f6e:	66 90                	xchg   %ax,%ax
    2f70:	b8 f2 ff ff ff       	mov    $0xfffffff2,%eax
    2f75:	eb ef                	jmp    2f66 <usb_request_get_descriptor+0x76>
    2f77:	90                   	nop
    2f78:	b8 f8 fe ff ff       	mov    $0xfffffef8,%eax
    2f7d:	eb e7                	jmp    2f66 <usb_request_get_descriptor+0x76>
    2f7f:	90                   	nop
    2f80:	b8 f6 ff ff ff       	mov    $0xfffffff6,%eax
    2f85:	eb df                	jmp    2f66 <usb_request_get_descriptor+0x76>
    2f87:	89 f6                	mov    %esi,%esi
    2f89:	8d bc 27 00 00 00 00 	lea    0x0(%edi,%eiz,1),%edi

00002f90 <usb_request_get_descriptor_alloc>:
    2f90:	55                   	push   %ebp
    2f91:	89 e5                	mov    %esp,%ebp
    2f93:	57                   	push   %edi
    2f94:	56                   	push   %esi
    2f95:	53                   	push   %ebx
    2f96:	83 ec 2c             	sub    $0x2c,%esp
    2f99:	8b 55 20             	mov    0x20(%ebp),%edx
    2f9c:	8b 5d 14             	mov    0x14(%ebp),%ebx
    2f9f:	8b 45 18             	mov    0x18(%ebp),%eax
    2fa2:	8b 75 1c             	mov    0x1c(%ebp),%esi
    2fa5:	85 d2                	test   %edx,%edx
    2fa7:	0f 84 1b 01 00 00    	je     30c8 <usb_request_get_descriptor_alloc+0x138>
    2fad:	c1 e3 08             	shl    $0x8,%ebx
    2fb0:	25 ff 00 00 00       	and    $0xff,%eax
    2fb5:	09 c3                	or     %eax,%ebx
    2fb7:	8b 45 08             	mov    0x8(%ebp),%eax
    2fba:	85 c0                	test   %eax,%eax
    2fbc:	0f 84 06 01 00 00    	je     30c8 <usb_request_get_descriptor_alloc+0x138>
    2fc2:	8a 55 0c             	mov    0xc(%ebp),%dl
    2fc5:	8a 45 10             	mov    0x10(%ebp),%al
    2fc8:	83 c8 80             	or     $0xffffff80,%eax
    2fcb:	57                   	push   %edi
    2fcc:	c1 e2 05             	shl    $0x5,%edx
    2fcf:	57                   	push   %edi
    2fd0:	09 c2                	or     %eax,%edx
    2fd2:	8d 45 dc             	lea    -0x24(%ebp),%eax
    2fd5:	50                   	push   %eax
    2fd6:	8d 45 db             	lea    -0x25(%ebp),%eax
    2fd9:	6a 01                	push   $0x1
    2fdb:	50                   	push   %eax
    2fdc:	8d 45 e0             	lea    -0x20(%ebp),%eax
    2fdf:	6a 08                	push   $0x8
    2fe1:	50                   	push   %eax
    2fe2:	8b 45 08             	mov    0x8(%ebp),%eax
    2fe5:	50                   	push   %eax
    2fe6:	88 55 d4             	mov    %dl,-0x2c(%ebp)
    2fe9:	88 55 e0             	mov    %dl,-0x20(%ebp)
    2fec:	c6 45 e1 06          	movb   $0x6,-0x1f(%ebp)
    2ff0:	66 89 5d e2          	mov    %bx,-0x1e(%ebp)
    2ff4:	66 89 75 e4          	mov    %si,-0x1c(%ebp)
    2ff8:	66 c7 45 e6 01 00    	movw   $0x1,-0x1a(%ebp)
    2ffe:	e8 ad f3 ff ff       	call   23b0 <usb_pipe_control_read>
    3003:	83 c4 20             	add    $0x20,%esp
    3006:	85 c0                	test   %eax,%eax
    3008:	0f 85 87 00 00 00    	jne    3095 <usb_request_get_descriptor_alloc+0x105>
    300e:	83 7d dc 01          	cmpl   $0x1,-0x24(%ebp)
    3012:	0f 85 88 00 00 00    	jne    30a0 <usb_request_get_descriptor_alloc+0x110>
    3018:	8a 45 db             	mov    -0x25(%ebp),%al
    301b:	89 c7                	mov    %eax,%edi
    301d:	88 45 d3             	mov    %al,-0x2d(%ebp)
    3020:	81 e7 ff 00 00 00    	and    $0xff,%edi
    3026:	85 ff                	test   %edi,%edi
    3028:	74 76                	je     30a0 <usb_request_get_descriptor_alloc+0x110>
    302a:	83 ec 0c             	sub    $0xc,%esp
    302d:	57                   	push   %edi
    302e:	e8 ed c5 00 00       	call   f620 <malloc@plt>
    3033:	83 c4 10             	add    $0x10,%esp
    3036:	89 c1                	mov    %eax,%ecx
    3038:	85 c0                	test   %eax,%eax
    303a:	0f 84 a3 00 00 00    	je     30e3 <usb_request_get_descriptor_alloc+0x153>
    3040:	31 c0                	xor    %eax,%eax
    3042:	8a 55 d4             	mov    -0x2c(%ebp),%dl
    3045:	8a 45 d3             	mov    -0x2d(%ebp),%al
    3048:	66 89 5d e2          	mov    %bx,-0x1e(%ebp)
    304c:	66 89 45 e6          	mov    %ax,-0x1a(%ebp)
    3050:	8d 45 dc             	lea    -0x24(%ebp),%eax
    3053:	66 89 75 e4          	mov    %si,-0x1c(%ebp)
    3057:	8b 75 08             	mov    0x8(%ebp),%esi
    305a:	53                   	push   %ebx
    305b:	53                   	push   %ebx
    305c:	50                   	push   %eax
    305d:	8d 45 e0             	lea    -0x20(%ebp),%eax
    3060:	57                   	push   %edi
    3061:	89 4d d4             	mov    %ecx,-0x2c(%ebp)
    3064:	51                   	push   %ecx
    3065:	88 55 e0             	mov    %dl,-0x20(%ebp)
    3068:	6a 08                	push   $0x8
    306a:	c6 45 e1 06          	movb   $0x6,-0x1f(%ebp)
    306e:	50                   	push   %eax
    306f:	56                   	push   %esi
    3070:	e8 3b f3 ff ff       	call   23b0 <usb_pipe_control_read>
    3075:	83 c4 20             	add    $0x20,%esp
    3078:	8b 4d d4             	mov    -0x2c(%ebp),%ecx
    307b:	85 c0                	test   %eax,%eax
    307d:	75 31                	jne    30b0 <usb_request_get_descriptor_alloc+0x120>
    307f:	3b 7d dc             	cmp    -0x24(%ebp),%edi
    3082:	75 4c                	jne    30d0 <usb_request_get_descriptor_alloc+0x140>
    3084:	8b 75 20             	mov    0x20(%ebp),%esi
    3087:	8b 55 24             	mov    0x24(%ebp),%edx
    308a:	85 d2                	test   %edx,%edx
    308c:	89 0e                	mov    %ecx,(%esi)
    308e:	74 05                	je     3095 <usb_request_get_descriptor_alloc+0x105>
    3090:	8b 4d 24             	mov    0x24(%ebp),%ecx
    3093:	89 39                	mov    %edi,(%ecx)
    3095:	8d 65 f4             	lea    -0xc(%ebp),%esp
    3098:	5b                   	pop    %ebx
    3099:	5e                   	pop    %esi
    309a:	5f                   	pop    %edi
    309b:	5d                   	pop    %ebp
    309c:	c3                   	ret    
    309d:	8d 76 00             	lea    0x0(%esi),%esi
    30a0:	8d 65 f4             	lea    -0xc(%ebp),%esp
    30a3:	b8 fd ff ff ff       	mov    $0xfffffffd,%eax
    30a8:	5b                   	pop    %ebx
    30a9:	5e                   	pop    %esi
    30aa:	5f                   	pop    %edi
    30ab:	5d                   	pop    %ebp
    30ac:	c3                   	ret    
    30ad:	8d 76 00             	lea    0x0(%esi),%esi
    30b0:	83 ec 0c             	sub    $0xc,%esp
    30b3:	89 45 d4             	mov    %eax,-0x2c(%ebp)
    30b6:	51                   	push   %ecx
    30b7:	e8 e4 c8 00 00       	call   f9a0 <free@plt>
    30bc:	83 c4 10             	add    $0x10,%esp
    30bf:	8b 45 d4             	mov    -0x2c(%ebp),%eax
    30c2:	eb d1                	jmp    3095 <usb_request_get_descriptor_alloc+0x105>
    30c4:	8d 74 26 00          	lea    0x0(%esi,%eiz,1),%esi
    30c8:	b8 f6 ff ff ff       	mov    $0xfffffff6,%eax
    30cd:	eb c6                	jmp    3095 <usb_request_get_descriptor_alloc+0x105>
    30cf:	90                   	nop
    30d0:	83 ec 0c             	sub    $0xc,%esp
    30d3:	51                   	push   %ecx
    30d4:	e8 c7 c8 00 00       	call   f9a0 <free@plt>
    30d9:	83 c4 10             	add    $0x10,%esp
    30dc:	b8 fd ff ff ff       	mov    $0xfffffffd,%eax
    30e1:	eb b2                	jmp    3095 <usb_request_get_descriptor_alloc+0x105>
    30e3:	b8 fe ff ff ff       	mov    $0xfffffffe,%eax
    30e8:	eb ab                	jmp    3095 <usb_request_get_descriptor_alloc+0x105>
    30ea:	8d b6 00 00 00 00    	lea    0x0(%esi),%esi

000030f0 <usb_request_get_device_descriptor>:
    30f0:	55                   	push   %ebp
    30f1:	89 e5                	mov    %esp,%ebp
    30f3:	57                   	push   %edi
    30f4:	56                   	push   %esi
    30f5:	53                   	push   %ebx
    30f6:	83 ec 2c             	sub    $0x2c,%esp
    30f9:	8b 75 0c             	mov    0xc(%ebp),%esi
    30fc:	8b 45 08             	mov    0x8(%ebp),%eax
    30ff:	85 f6                	test   %esi,%esi
    3101:	74 6d                	je     3170 <usb_request_get_device_descriptor+0x80>
    3103:	c7 45 c8 00 00 00 00 	movl   $0x0,-0x38(%ebp)
    310a:	85 c0                	test   %eax,%eax
    310c:	74 62                	je     3170 <usb_request_get_device_descriptor+0x80>
    310e:	52                   	push   %edx
    310f:	52                   	push   %edx
    3110:	8d 55 c8             	lea    -0x38(%ebp),%edx
    3113:	8d 7d d6             	lea    -0x2a(%ebp),%edi
    3116:	52                   	push   %edx
    3117:	8d 55 ce             	lea    -0x32(%ebp),%edx
    311a:	6a 12                	push   $0x12
    311c:	c6 45 ce 80          	movb   $0x80,-0x32(%ebp)
    3120:	57                   	push   %edi
    3121:	c6 45 cf 06          	movb   $0x6,-0x31(%ebp)
    3125:	6a 08                	push   $0x8
    3127:	66 c7 45 d0 00 01    	movw   $0x100,-0x30(%ebp)
    312d:	52                   	push   %edx
    312e:	66 c7 45 d2 00 00    	movw   $0x0,-0x2e(%ebp)
    3134:	50                   	push   %eax
    3135:	66 c7 45 d4 12 00    	movw   $0x12,-0x2c(%ebp)
    313b:	e8 70 f2 ff ff       	call   23b0 <usb_pipe_control_read>
    3140:	83 c4 20             	add    $0x20,%esp
    3143:	89 c3                	mov    %eax,%ebx
    3145:	85 c0                	test   %eax,%eax
    3147:	75 13                	jne    315c <usb_request_get_device_descriptor+0x6c>
    3149:	83 7d c8 11          	cmpl   $0x11,-0x38(%ebp)
    314d:	76 19                	jbe    3168 <usb_request_get_device_descriptor+0x78>
    314f:	50                   	push   %eax
    3150:	6a 12                	push   $0x12
    3152:	57                   	push   %edi
    3153:	56                   	push   %esi
    3154:	e8 b7 c4 00 00       	call   f610 <memcpy@plt>
    3159:	83 c4 10             	add    $0x10,%esp
    315c:	8d 65 f4             	lea    -0xc(%ebp),%esp
    315f:	89 d8                	mov    %ebx,%eax
    3161:	5b                   	pop    %ebx
    3162:	5e                   	pop    %esi
    3163:	5f                   	pop    %edi
    3164:	5d                   	pop    %ebp
    3165:	c3                   	ret    
    3166:	66 90                	xchg   %ax,%ax
    3168:	bb fd ff ff ff       	mov    $0xfffffffd,%ebx
    316d:	eb ed                	jmp    315c <usb_request_get_device_descriptor+0x6c>
    316f:	90                   	nop
    3170:	bb f6 ff ff ff       	mov    $0xfffffff6,%ebx
    3175:	eb e5                	jmp    315c <usb_request_get_device_descriptor+0x6c>
    3177:	89 f6                	mov    %esi,%esi
    3179:	8d bc 27 00 00 00 00 	lea    0x0(%edi,%eiz,1),%edi

00003180 <usb_request_get_bare_configuration_descriptor>:
    3180:	55                   	push   %ebp
    3181:	89 e5                	mov    %esp,%ebp
    3183:	57                   	push   %edi
    3184:	56                   	push   %esi
    3185:	53                   	push   %ebx
    3186:	83 ec 2c             	sub    $0x2c,%esp
    3189:	8b 5d 10             	mov    0x10(%ebp),%ebx
    318c:	8b 55 08             	mov    0x8(%ebp),%edx
    318f:	8b 45 0c             	mov    0xc(%ebp),%eax
    3192:	85 db                	test   %ebx,%ebx
    3194:	0f 84 7e 00 00 00    	je     3218 <usb_request_get_bare_configuration_descriptor+0x98>
    319a:	3d ff 00 00 00       	cmp    $0xff,%eax
    319f:	77 6f                	ja     3210 <usb_request_get_bare_configuration_descriptor+0x90>
    31a1:	80 cc 02             	or     $0x2,%ah
    31a4:	c7 45 d0 00 00 00 00 	movl   $0x0,-0x30(%ebp)
    31ab:	85 d2                	test   %edx,%edx
    31ad:	74 69                	je     3218 <usb_request_get_bare_configuration_descriptor+0x98>
    31af:	66 89 45 d9          	mov    %ax,-0x27(%ebp)
    31b3:	8d 45 d0             	lea    -0x30(%ebp),%eax
    31b6:	8d 7d df             	lea    -0x21(%ebp),%edi
    31b9:	51                   	push   %ecx
    31ba:	51                   	push   %ecx
    31bb:	50                   	push   %eax
    31bc:	8d 45 d7             	lea    -0x29(%ebp),%eax
    31bf:	6a 09                	push   $0x9
    31c1:	c6 45 d7 80          	movb   $0x80,-0x29(%ebp)
    31c5:	57                   	push   %edi
    31c6:	c6 45 d8 06          	movb   $0x6,-0x28(%ebp)
    31ca:	6a 08                	push   $0x8
    31cc:	66 c7 45 db 00 00    	movw   $0x0,-0x25(%ebp)
    31d2:	50                   	push   %eax
    31d3:	66 c7 45 dd 09 00    	movw   $0x9,-0x23(%ebp)
    31d9:	52                   	push   %edx
    31da:	e8 d1 f1 ff ff       	call   23b0 <usb_pipe_control_read>
    31df:	83 c4 20             	add    $0x20,%esp
    31e2:	89 c6                	mov    %eax,%esi
    31e4:	85 c0                	test   %eax,%eax
    31e6:	75 13                	jne    31fb <usb_request_get_bare_configuration_descriptor+0x7b>
    31e8:	83 7d d0 08          	cmpl   $0x8,-0x30(%ebp)
    31ec:	76 1a                	jbe    3208 <usb_request_get_bare_configuration_descriptor+0x88>
    31ee:	50                   	push   %eax
    31ef:	6a 09                	push   $0x9
    31f1:	57                   	push   %edi
    31f2:	53                   	push   %ebx
    31f3:	e8 18 c4 00 00       	call   f610 <memcpy@plt>
    31f8:	83 c4 10             	add    $0x10,%esp
    31fb:	8d 65 f4             	lea    -0xc(%ebp),%esp
    31fe:	89 f0                	mov    %esi,%eax
    3200:	5b                   	pop    %ebx
    3201:	5e                   	pop    %esi
    3202:	5f                   	pop    %edi
    3203:	5d                   	pop    %ebp
    3204:	c3                   	ret    
    3205:	8d 76 00             	lea    0x0(%esi),%esi
    3208:	be fd ff ff ff       	mov    $0xfffffffd,%esi
    320d:	eb ec                	jmp    31fb <usb_request_get_bare_configuration_descriptor+0x7b>
    320f:	90                   	nop
    3210:	be f8 fe ff ff       	mov    $0xfffffef8,%esi
    3215:	eb e4                	jmp    31fb <usb_request_get_bare_configuration_descriptor+0x7b>
    3217:	90                   	nop
    3218:	be f6 ff ff ff       	mov    $0xfffffff6,%esi
    321d:	eb dc                	jmp    31fb <usb_request_get_bare_configuration_descriptor+0x7b>
    321f:	90                   	nop

00003220 <usb_request_get_full_configuration_descriptor>:
    3220:	55                   	push   %ebp
    3221:	89 e5                	mov    %esp,%ebp
    3223:	53                   	push   %ebx
    3224:	83 ec 14             	sub    $0x14,%esp
    3227:	8b 45 0c             	mov    0xc(%ebp),%eax
    322a:	8b 5d 08             	mov    0x8(%ebp),%ebx
    322d:	8b 4d 10             	mov    0x10(%ebp),%ecx
    3230:	8b 55 14             	mov    0x14(%ebp),%edx
    3233:	3d ff 00 00 00       	cmp    $0xff,%eax
    3238:	77 56                	ja     3290 <usb_request_get_full_configuration_descriptor+0x70>
    323a:	85 c9                	test   %ecx,%ecx
    323c:	74 5a                	je     3298 <usb_request_get_full_configuration_descriptor+0x78>
    323e:	85 d2                	test   %edx,%edx
    3240:	74 46                	je     3288 <usb_request_get_full_configuration_descriptor+0x68>
    3242:	80 cc 02             	or     $0x2,%ah
    3245:	85 db                	test   %ebx,%ebx
    3247:	74 4f                	je     3298 <usb_request_get_full_configuration_descriptor+0x78>
    3249:	81 fa ff ff 00 00    	cmp    $0xffff,%edx
    324f:	77 3f                	ja     3290 <usb_request_get_full_configuration_descriptor+0x70>
    3251:	66 89 45 f2          	mov    %ax,-0xe(%ebp)
    3255:	50                   	push   %eax
    3256:	50                   	push   %eax
    3257:	8b 45 18             	mov    0x18(%ebp),%eax
    325a:	50                   	push   %eax
    325b:	8d 45 f0             	lea    -0x10(%ebp),%eax
    325e:	52                   	push   %edx
    325f:	51                   	push   %ecx
    3260:	6a 08                	push   $0x8
    3262:	50                   	push   %eax
    3263:	53                   	push   %ebx
    3264:	c6 45 f0 80          	movb   $0x80,-0x10(%ebp)
    3268:	c6 45 f1 06          	movb   $0x6,-0xf(%ebp)
    326c:	66 c7 45 f4 00 00    	movw   $0x0,-0xc(%ebp)
    3272:	66 89 55 f6          	mov    %dx,-0xa(%ebp)
    3276:	e8 35 f1 ff ff       	call   23b0 <usb_pipe_control_read>
    327b:	83 c4 20             	add    $0x20,%esp
    327e:	8b 5d fc             	mov    -0x4(%ebp),%ebx
    3281:	c9                   	leave  
    3282:	c3                   	ret    
    3283:	90                   	nop
    3284:	8d 74 26 00          	lea    0x0(%esi,%eiz,1),%esi
    3288:	b8 f2 ff ff ff       	mov    $0xfffffff2,%eax
    328d:	eb ef                	jmp    327e <usb_request_get_full_configuration_descriptor+0x5e>
    328f:	90                   	nop
    3290:	b8 f8 fe ff ff       	mov    $0xfffffef8,%eax
    3295:	eb e7                	jmp    327e <usb_request_get_full_configuration_descriptor+0x5e>
    3297:	90                   	nop
    3298:	b8 f6 ff ff ff       	mov    $0xfffffff6,%eax
    329d:	eb df                	jmp    327e <usb_request_get_full_configuration_descriptor+0x5e>
    329f:	90                   	nop

000032a0 <usb_request_get_full_configuration_descriptor_alloc>:
    32a0:	55                   	push   %ebp
    32a1:	89 e5                	mov    %esp,%ebp
    32a3:	57                   	push   %edi
    32a4:	56                   	push   %esi
    32a5:	53                   	push   %ebx
    32a6:	83 ec 3c             	sub    $0x3c,%esp
    32a9:	8b 45 10             	mov    0x10(%ebp),%eax
    32ac:	8b 5d 0c             	mov    0xc(%ebp),%ebx
    32af:	85 c0                	test   %eax,%eax
    32b1:	0f 84 41 01 00 00    	je     33f8 <usb_request_get_full_configuration_descriptor_alloc+0x158>
    32b7:	81 fb ff 00 00 00    	cmp    $0xff,%ebx
    32bd:	0f 87 25 01 00 00    	ja     33e8 <usb_request_get_full_configuration_descriptor_alloc+0x148>
    32c3:	8b 45 08             	mov    0x8(%ebp),%eax
    32c6:	80 cf 02             	or     $0x2,%bh
    32c9:	c7 45 d0 00 00 00 00 	movl   $0x0,-0x30(%ebp)
    32d0:	85 c0                	test   %eax,%eax
    32d2:	0f 84 20 01 00 00    	je     33f8 <usb_request_get_full_configuration_descriptor_alloc+0x158>
    32d8:	50                   	push   %eax
    32d9:	50                   	push   %eax
    32da:	8d 45 d0             	lea    -0x30(%ebp),%eax
    32dd:	8d 75 df             	lea    -0x21(%ebp),%esi
    32e0:	50                   	push   %eax
    32e1:	8d 7d d6             	lea    -0x2a(%ebp),%edi
    32e4:	8b 45 08             	mov    0x8(%ebp),%eax
    32e7:	6a 09                	push   $0x9
    32e9:	c6 45 d6 80          	movb   $0x80,-0x2a(%ebp)
    32ed:	56                   	push   %esi
    32ee:	c6 45 d7 06          	movb   $0x6,-0x29(%ebp)
    32f2:	6a 08                	push   $0x8
    32f4:	66 89 5d d8          	mov    %bx,-0x28(%ebp)
    32f8:	57                   	push   %edi
    32f9:	66 c7 45 da 00 00    	movw   $0x0,-0x26(%ebp)
    32ff:	50                   	push   %eax
    3300:	66 c7 45 dc 09 00    	movw   $0x9,-0x24(%ebp)
    3306:	e8 a5 f0 ff ff       	call   23b0 <usb_pipe_control_read>
    330b:	83 c4 20             	add    $0x20,%esp
    330e:	85 c0                	test   %eax,%eax
    3310:	0f 85 9e 00 00 00    	jne    33b4 <usb_request_get_full_configuration_descriptor_alloc+0x114>
    3316:	83 7d d0 08          	cmpl   $0x8,-0x30(%ebp)
    331a:	0f 86 a0 00 00 00    	jbe    33c0 <usb_request_get_full_configuration_descriptor_alloc+0x120>
    3320:	50                   	push   %eax
    3321:	6a 09                	push   $0x9
    3323:	56                   	push   %esi
    3324:	57                   	push   %edi
    3325:	e8 e6 c2 00 00       	call   f610 <memcpy@plt>
    332a:	83 c4 10             	add    $0x10,%esp
    332d:	80 7d d7 02          	cmpb   $0x2,-0x29(%ebp)
    3331:	0f 85 b9 00 00 00    	jne    33f0 <usb_request_get_full_configuration_descriptor_alloc+0x150>
    3337:	8b 4d d8             	mov    -0x28(%ebp),%ecx
    333a:	31 ff                	xor    %edi,%edi
    333c:	66 89 cf             	mov    %cx,%di
    333f:	89 4d c4             	mov    %ecx,-0x3c(%ebp)
    3342:	83 ff 08             	cmp    $0x8,%edi
    3345:	76 79                	jbe    33c0 <usb_request_get_full_configuration_descriptor_alloc+0x120>
    3347:	83 ec 0c             	sub    $0xc,%esp
    334a:	57                   	push   %edi
    334b:	e8 d0 c2 00 00       	call   f620 <malloc@plt>
    3350:	83 c4 10             	add    $0x10,%esp
    3353:	89 c2                	mov    %eax,%edx
    3355:	85 c0                	test   %eax,%eax
    3357:	0f 84 b6 00 00 00    	je     3413 <usb_request_get_full_configuration_descriptor_alloc+0x173>
    335d:	8b 4d c4             	mov    -0x3c(%ebp),%ecx
    3360:	66 89 5d e1          	mov    %bx,-0x1f(%ebp)
    3364:	8d 45 d0             	lea    -0x30(%ebp),%eax
    3367:	8b 5d 08             	mov    0x8(%ebp),%ebx
    336a:	66 89 4d e5          	mov    %cx,-0x1b(%ebp)
    336e:	89 55 c4             	mov    %edx,-0x3c(%ebp)
    3371:	c7 45 d0 00 00 00 00 	movl   $0x0,-0x30(%ebp)
    3378:	51                   	push   %ecx
    3379:	c6 45 df 80          	movb   $0x80,-0x21(%ebp)
    337d:	51                   	push   %ecx
    337e:	c6 45 e0 06          	movb   $0x6,-0x20(%ebp)
    3382:	50                   	push   %eax
    3383:	66 c7 45 e3 00 00    	movw   $0x0,-0x1d(%ebp)
    3389:	57                   	push   %edi
    338a:	52                   	push   %edx
    338b:	6a 08                	push   $0x8
    338d:	56                   	push   %esi
    338e:	53                   	push   %ebx
    338f:	e8 1c f0 ff ff       	call   23b0 <usb_pipe_control_read>
    3394:	83 c4 20             	add    $0x20,%esp
    3397:	8b 55 c4             	mov    -0x3c(%ebp),%edx
    339a:	85 c0                	test   %eax,%eax
    339c:	75 32                	jne    33d0 <usb_request_get_full_configuration_descriptor_alloc+0x130>
    339e:	3b 7d d0             	cmp    -0x30(%ebp),%edi
    33a1:	75 5d                	jne    3400 <usb_request_get_full_configuration_descriptor_alloc+0x160>
    33a3:	8b 4d 10             	mov    0x10(%ebp),%ecx
    33a6:	89 11                	mov    %edx,(%ecx)
    33a8:	8b 55 14             	mov    0x14(%ebp),%edx
    33ab:	85 d2                	test   %edx,%edx
    33ad:	74 05                	je     33b4 <usb_request_get_full_configuration_descriptor_alloc+0x114>
    33af:	8b 75 14             	mov    0x14(%ebp),%esi
    33b2:	89 3e                	mov    %edi,(%esi)
    33b4:	8d 65 f4             	lea    -0xc(%ebp),%esp
    33b7:	5b                   	pop    %ebx
    33b8:	5e                   	pop    %esi
    33b9:	5f                   	pop    %edi
    33ba:	5d                   	pop    %ebp
    33bb:	c3                   	ret    
    33bc:	8d 74 26 00          	lea    0x0(%esi,%eiz,1),%esi
    33c0:	8d 65 f4             	lea    -0xc(%ebp),%esp
    33c3:	b8 fd ff ff ff       	mov    $0xfffffffd,%eax
    33c8:	5b                   	pop    %ebx
    33c9:	5e                   	pop    %esi
    33ca:	5f                   	pop    %edi
    33cb:	5d                   	pop    %ebp
    33cc:	c3                   	ret    
    33cd:	8d 76 00             	lea    0x0(%esi),%esi
    33d0:	83 ec 0c             	sub    $0xc,%esp
    33d3:	89 45 c4             	mov    %eax,-0x3c(%ebp)
    33d6:	52                   	push   %edx
    33d7:	e8 c4 c5 00 00       	call   f9a0 <free@plt>
    33dc:	83 c4 10             	add    $0x10,%esp
    33df:	8b 45 c4             	mov    -0x3c(%ebp),%eax
    33e2:	eb d0                	jmp    33b4 <usb_request_get_full_configuration_descriptor_alloc+0x114>
    33e4:	8d 74 26 00          	lea    0x0(%esi,%eiz,1),%esi
    33e8:	b8 f8 fe ff ff       	mov    $0xfffffef8,%eax
    33ed:	eb c5                	jmp    33b4 <usb_request_get_full_configuration_descriptor_alloc+0x114>
    33ef:	90                   	nop
    33f0:	83 c8 ff             	or     $0xffffffff,%eax
    33f3:	eb bf                	jmp    33b4 <usb_request_get_full_configuration_descriptor_alloc+0x114>
    33f5:	8d 76 00             	lea    0x0(%esi),%esi
    33f8:	b8 f6 ff ff ff       	mov    $0xfffffff6,%eax
    33fd:	eb b5                	jmp    33b4 <usb_request_get_full_configuration_descriptor_alloc+0x114>
    33ff:	90                   	nop
    3400:	83 ec 0c             	sub    $0xc,%esp
    3403:	52                   	push   %edx
    3404:	e8 97 c5 00 00       	call   f9a0 <free@plt>
    3409:	83 c4 10             	add    $0x10,%esp
    340c:	b8 fd ff ff ff       	mov    $0xfffffffd,%eax
    3411:	eb a1                	jmp    33b4 <usb_request_get_full_configuration_descriptor_alloc+0x114>
    3413:	b8 fe ff ff ff       	mov    $0xfffffffe,%eax
    3418:	eb 9a                	jmp    33b4 <usb_request_get_full_configuration_descriptor_alloc+0x114>
    341a:	8d b6 00 00 00 00    	lea    0x0(%esi),%esi

00003420 <usb_request_set_descriptor>:
    3420:	55                   	push   %ebp
    3421:	89 e5                	mov    %esp,%ebp
    3423:	57                   	push   %edi
    3424:	56                   	push   %esi
    3425:	53                   	push   %ebx
    3426:	83 ec 1c             	sub    $0x1c,%esp
    3429:	8b 5d 20             	mov    0x20(%ebp),%ebx
    342c:	8b 75 08             	mov    0x8(%ebp),%esi
    342f:	8b 55 14             	mov    0x14(%ebp),%edx
    3432:	8b 45 18             	mov    0x18(%ebp),%eax
    3435:	8b 7d 1c             	mov    0x1c(%ebp),%edi
    3438:	8b 4d 24             	mov    0x24(%ebp),%ecx
    343b:	85 db                	test   %ebx,%ebx
    343d:	74 69                	je     34a8 <usb_request_set_descriptor+0x88>
    343f:	85 c9                	test   %ecx,%ecx
    3441:	74 55                	je     3498 <usb_request_set_descriptor+0x78>
    3443:	c1 e2 08             	shl    $0x8,%edx
    3446:	25 ff 00 00 00       	and    $0xff,%eax
    344b:	09 d0                	or     %edx,%eax
    344d:	85 f6                	test   %esi,%esi
    344f:	74 57                	je     34a8 <usb_request_set_descriptor+0x88>
    3451:	81 f9 ff ff 00 00    	cmp    $0xffff,%ecx
    3457:	77 47                	ja     34a0 <usb_request_set_descriptor+0x80>
    3459:	8a 55 0c             	mov    0xc(%ebp),%dl
    345c:	83 ec 0c             	sub    $0xc,%esp
    345f:	c1 e2 05             	shl    $0x5,%edx
    3462:	66 89 45 e2          	mov    %ax,-0x1e(%ebp)
    3466:	0b 55 10             	or     0x10(%ebp),%edx
    3469:	8d 45 e0             	lea    -0x20(%ebp),%eax
    346c:	51                   	push   %ecx
    346d:	53                   	push   %ebx
    346e:	6a 08                	push   $0x8
    3470:	50                   	push   %eax
    3471:	56                   	push   %esi
    3472:	88 55 e0             	mov    %dl,-0x20(%ebp)
    3475:	c6 45 e1 07          	movb   $0x7,-0x1f(%ebp)
    3479:	66 89 7d e4          	mov    %di,-0x1c(%ebp)
    347d:	66 89 4d e6          	mov    %cx,-0x1a(%ebp)
    3481:	e8 5a f0 ff ff       	call   24e0 <usb_pipe_control_write>
    3486:	83 c4 20             	add    $0x20,%esp
    3489:	8d 65 f4             	lea    -0xc(%ebp),%esp
    348c:	5b                   	pop    %ebx
    348d:	5e                   	pop    %esi
    348e:	5f                   	pop    %edi
    348f:	5d                   	pop    %ebp
    3490:	c3                   	ret    
    3491:	8d b4 26 00 00 00 00 	lea    0x0(%esi,%eiz,1),%esi
    3498:	b8 f2 ff ff ff       	mov    $0xfffffff2,%eax
    349d:	eb ea                	jmp    3489 <usb_request_set_descriptor+0x69>
    349f:	90                   	nop
    34a0:	b8 f8 fe ff ff       	mov    $0xfffffef8,%eax
    34a5:	eb e2                	jmp    3489 <usb_request_set_descriptor+0x69>
    34a7:	90                   	nop
    34a8:	b8 f6 ff ff ff       	mov    $0xfffffff6,%eax
    34ad:	eb da                	jmp    3489 <usb_request_set_descriptor+0x69>
    34af:	90                   	nop

000034b0 <usb_request_get_configuration>:
    34b0:	55                   	push   %ebp
    34b1:	89 e5                	mov    %esp,%ebp
    34b3:	53                   	push   %ebx
    34b4:	83 ec 14             	sub    $0x14,%esp
    34b7:	8b 45 08             	mov    0x8(%ebp),%eax
    34ba:	8b 5d 0c             	mov    0xc(%ebp),%ebx
    34bd:	85 c0                	test   %eax,%eax
    34bf:	74 4f                	je     3510 <usb_request_get_configuration+0x60>
    34c1:	52                   	push   %edx
    34c2:	52                   	push   %edx
    34c3:	8d 55 ec             	lea    -0x14(%ebp),%edx
    34c6:	c6 45 f0 80          	movb   $0x80,-0x10(%ebp)
    34ca:	52                   	push   %edx
    34cb:	8d 55 eb             	lea    -0x15(%ebp),%edx
    34ce:	6a 01                	push   $0x1
    34d0:	52                   	push   %edx
    34d1:	8d 55 f0             	lea    -0x10(%ebp),%edx
    34d4:	6a 08                	push   $0x8
    34d6:	c6 45 f1 08          	movb   $0x8,-0xf(%ebp)
    34da:	52                   	push   %edx
    34db:	66 c7 45 f2 00 00    	movw   $0x0,-0xe(%ebp)
    34e1:	50                   	push   %eax
    34e2:	66 c7 45 f4 00 00    	movw   $0x0,-0xc(%ebp)
    34e8:	66 c7 45 f6 01 00    	movw   $0x1,-0xa(%ebp)
    34ee:	e8 bd ee ff ff       	call   23b0 <usb_pipe_control_read>
    34f3:	83 c4 20             	add    $0x20,%esp
    34f6:	85 c0                	test   %eax,%eax
    34f8:	75 0f                	jne    3509 <usb_request_get_configuration+0x59>
    34fa:	83 7d ec 01          	cmpl   $0x1,-0x14(%ebp)
    34fe:	75 20                	jne    3520 <usb_request_get_configuration+0x70>
    3500:	85 db                	test   %ebx,%ebx
    3502:	74 05                	je     3509 <usb_request_get_configuration+0x59>
    3504:	8a 4d eb             	mov    -0x15(%ebp),%cl
    3507:	88 0b                	mov    %cl,(%ebx)
    3509:	8b 5d fc             	mov    -0x4(%ebp),%ebx
    350c:	c9                   	leave  
    350d:	c3                   	ret    
    350e:	66 90                	xchg   %ax,%ax
    3510:	b8 f6 ff ff ff       	mov    $0xfffffff6,%eax
    3515:	8b 5d fc             	mov    -0x4(%ebp),%ebx
    3518:	c9                   	leave  
    3519:	c3                   	ret    
    351a:	8d b6 00 00 00 00    	lea    0x0(%esi),%esi
    3520:	b8 fd ff ff ff       	mov    $0xfffffffd,%eax
    3525:	eb e2                	jmp    3509 <usb_request_get_configuration+0x59>
    3527:	89 f6                	mov    %esi,%esi
    3529:	8d bc 27 00 00 00 00 	lea    0x0(%edi,%eiz,1),%edi

00003530 <usb_request_set_configuration>:
    3530:	55                   	push   %ebp
    3531:	31 d2                	xor    %edx,%edx
    3533:	89 e5                	mov    %esp,%ebp
    3535:	83 ec 18             	sub    $0x18,%esp
    3538:	8b 45 08             	mov    0x8(%ebp),%eax
    353b:	8a 55 0c             	mov    0xc(%ebp),%dl
    353e:	85 c0                	test   %eax,%eax
    3540:	74 36                	je     3578 <usb_request_set_configuration+0x48>
    3542:	83 ec 0c             	sub    $0xc,%esp
    3545:	66 89 55 f2          	mov    %dx,-0xe(%ebp)
    3549:	8d 55 f0             	lea    -0x10(%ebp),%edx
    354c:	c6 45 f0 00          	movb   $0x0,-0x10(%ebp)
    3550:	6a 00                	push   $0x0
    3552:	6a 00                	push   $0x0
    3554:	6a 08                	push   $0x8
    3556:	52                   	push   %edx
    3557:	50                   	push   %eax
    3558:	c6 45 f1 09          	movb   $0x9,-0xf(%ebp)
    355c:	66 c7 45 f4 00 00    	movw   $0x0,-0xc(%ebp)
    3562:	66 c7 45 f6 00 00    	movw   $0x0,-0xa(%ebp)
    3568:	e8 73 ef ff ff       	call   24e0 <usb_pipe_control_write>
    356d:	83 c4 20             	add    $0x20,%esp
    3570:	c9                   	leave  
    3571:	c3                   	ret    
    3572:	8d b6 00 00 00 00    	lea    0x0(%esi),%esi
    3578:	b8 f6 ff ff ff       	mov    $0xfffffff6,%eax
    357d:	c9                   	leave  
    357e:	c3                   	ret    
    357f:	90                   	nop

00003580 <usb_request_get_interface>:
    3580:	55                   	push   %ebp
    3581:	89 e5                	mov    %esp,%ebp
    3583:	53                   	push   %ebx
    3584:	83 ec 14             	sub    $0x14,%esp
    3587:	8b 55 08             	mov    0x8(%ebp),%edx
    358a:	8b 45 0c             	mov    0xc(%ebp),%eax
    358d:	8b 5d 10             	mov    0x10(%ebp),%ebx
    3590:	85 d2                	test   %edx,%edx
    3592:	74 54                	je     35e8 <usb_request_get_interface+0x68>
    3594:	25 ff 00 00 00       	and    $0xff,%eax
    3599:	c6 45 f0 81          	movb   $0x81,-0x10(%ebp)
    359d:	66 89 45 f4          	mov    %ax,-0xc(%ebp)
    35a1:	50                   	push   %eax
    35a2:	50                   	push   %eax
    35a3:	8d 45 ec             	lea    -0x14(%ebp),%eax
    35a6:	50                   	push   %eax
    35a7:	8d 45 eb             	lea    -0x15(%ebp),%eax
    35aa:	6a 01                	push   $0x1
    35ac:	50                   	push   %eax
    35ad:	8d 45 f0             	lea    -0x10(%ebp),%eax
    35b0:	6a 08                	push   $0x8
    35b2:	c6 45 f1 0a          	movb   $0xa,-0xf(%ebp)
    35b6:	50                   	push   %eax
    35b7:	66 c7 45 f2 00 00    	movw   $0x0,-0xe(%ebp)
    35bd:	52                   	push   %edx
    35be:	66 c7 45 f6 01 00    	movw   $0x1,-0xa(%ebp)
    35c4:	e8 e7 ed ff ff       	call   23b0 <usb_pipe_control_read>
    35c9:	83 c4 20             	add    $0x20,%esp
    35cc:	85 c0                	test   %eax,%eax
    35ce:	75 0f                	jne    35df <usb_request_get_interface+0x5f>
    35d0:	83 7d ec 01          	cmpl   $0x1,-0x14(%ebp)
    35d4:	75 22                	jne    35f8 <usb_request_get_interface+0x78>
    35d6:	85 db                	test   %ebx,%ebx
    35d8:	74 05                	je     35df <usb_request_get_interface+0x5f>
    35da:	8a 4d eb             	mov    -0x15(%ebp),%cl
    35dd:	88 0b                	mov    %cl,(%ebx)
    35df:	8b 5d fc             	mov    -0x4(%ebp),%ebx
    35e2:	c9                   	leave  
    35e3:	c3                   	ret    
    35e4:	8d 74 26 00          	lea    0x0(%esi,%eiz,1),%esi
    35e8:	b8 f6 ff ff ff       	mov    $0xfffffff6,%eax
    35ed:	8b 5d fc             	mov    -0x4(%ebp),%ebx
    35f0:	c9                   	leave  
    35f1:	c3                   	ret    
    35f2:	8d b6 00 00 00 00    	lea    0x0(%esi),%esi
    35f8:	b8 fd ff ff ff       	mov    $0xfffffffd,%eax
    35fd:	eb e0                	jmp    35df <usb_request_get_interface+0x5f>
    35ff:	90                   	nop

00003600 <usb_request_set_interface>:
    3600:	55                   	push   %ebp
    3601:	31 c9                	xor    %ecx,%ecx
    3603:	89 e5                	mov    %esp,%ebp
    3605:	83 ec 18             	sub    $0x18,%esp
    3608:	31 d2                	xor    %edx,%edx
    360a:	8b 45 08             	mov    0x8(%ebp),%eax
    360d:	8a 4d 10             	mov    0x10(%ebp),%cl
    3610:	8a 55 0c             	mov    0xc(%ebp),%dl
    3613:	85 c0                	test   %eax,%eax
    3615:	74 31                	je     3648 <usb_request_set_interface+0x48>
    3617:	83 ec 0c             	sub    $0xc,%esp
    361a:	66 89 55 f4          	mov    %dx,-0xc(%ebp)
    361e:	8d 55 f0             	lea    -0x10(%ebp),%edx
    3621:	c6 45 f0 01          	movb   $0x1,-0x10(%ebp)
    3625:	6a 00                	push   $0x0
    3627:	6a 00                	push   $0x0
    3629:	6a 08                	push   $0x8
    362b:	52                   	push   %edx
    362c:	50                   	push   %eax
    362d:	c6 45 f1 0b          	movb   $0xb,-0xf(%ebp)
    3631:	66 89 4d f2          	mov    %cx,-0xe(%ebp)
    3635:	66 c7 45 f6 00 00    	movw   $0x0,-0xa(%ebp)
    363b:	e8 a0 ee ff ff       	call   24e0 <usb_pipe_control_write>
    3640:	83 c4 20             	add    $0x20,%esp
    3643:	c9                   	leave  
    3644:	c3                   	ret    
    3645:	8d 76 00             	lea    0x0(%esi),%esi
    3648:	b8 f6 ff ff ff       	mov    $0xfffffff6,%eax
    364d:	c9                   	leave  
    364e:	c3                   	ret    
    364f:	90                   	nop

00003650 <usb_request_get_supported_languages>:
    3650:	55                   	push   %ebp
    3651:	89 e5                	mov    %esp,%ebp
    3653:	57                   	push   %edi
    3654:	56                   	push   %esi
    3655:	53                   	push   %ebx
    3656:	83 ec 2c             	sub    $0x2c,%esp
    3659:	8b 45 0c             	mov    0xc(%ebp),%eax
    365c:	85 c0                	test   %eax,%eax
    365e:	0f 84 84 01 00 00    	je     37e8 <usb_request_get_supported_languages+0x198>
    3664:	8b 45 10             	mov    0x10(%ebp),%eax
    3667:	85 c0                	test   %eax,%eax
    3669:	0f 84 79 01 00 00    	je     37e8 <usb_request_get_supported_languages+0x198>
    366f:	8b 7d 08             	mov    0x8(%ebp),%edi
    3672:	85 ff                	test   %edi,%edi
    3674:	0f 84 6e 01 00 00    	je     37e8 <usb_request_get_supported_languages+0x198>
    367a:	8b 75 08             	mov    0x8(%ebp),%esi
    367d:	53                   	push   %ebx
    367e:	8d 45 db             	lea    -0x25(%ebp),%eax
    3681:	53                   	push   %ebx
    3682:	8d 7d dc             	lea    -0x24(%ebp),%edi
    3685:	8d 5d e0             	lea    -0x20(%ebp),%ebx
    3688:	57                   	push   %edi
    3689:	c6 45 e0 80          	movb   $0x80,-0x20(%ebp)
    368d:	6a 01                	push   $0x1
    368f:	c6 45 e1 06          	movb   $0x6,-0x1f(%ebp)
    3693:	50                   	push   %eax
    3694:	66 c7 45 e2 00 03    	movw   $0x300,-0x1e(%ebp)
    369a:	6a 08                	push   $0x8
    369c:	66 c7 45 e4 00 00    	movw   $0x0,-0x1c(%ebp)
    36a2:	53                   	push   %ebx
    36a3:	66 c7 45 e6 01 00    	movw   $0x1,-0x1a(%ebp)
    36a9:	56                   	push   %esi
    36aa:	e8 01 ed ff ff       	call   23b0 <usb_pipe_control_read>
    36af:	83 c4 20             	add    $0x20,%esp
    36b2:	89 c6                	mov    %eax,%esi
    36b4:	85 c0                	test   %eax,%eax
    36b6:	0f 85 0b 01 00 00    	jne    37c7 <usb_request_get_supported_languages+0x177>
    36bc:	83 7d dc 01          	cmpl   $0x1,-0x24(%ebp)
    36c0:	0f 85 12 01 00 00    	jne    37d8 <usb_request_get_supported_languages+0x188>
    36c6:	0f b6 75 db          	movzbl -0x25(%ebp),%esi
    36ca:	89 f2                	mov    %esi,%edx
    36cc:	81 e2 ff 00 00 00    	and    $0xff,%edx
    36d2:	85 d2                	test   %edx,%edx
    36d4:	0f 84 fe 00 00 00    	je     37d8 <usb_request_get_supported_languages+0x188>
    36da:	83 ec 0c             	sub    $0xc,%esp
    36dd:	89 55 d0             	mov    %edx,-0x30(%ebp)
    36e0:	52                   	push   %edx
    36e1:	e8 3a bf 00 00       	call   f620 <malloc@plt>
    36e6:	83 c4 10             	add    $0x10,%esp
    36e9:	89 45 d4             	mov    %eax,-0x2c(%ebp)
    36ec:	85 c0                	test   %eax,%eax
    36ee:	0f 84 4f 01 00 00    	je     3843 <usb_request_get_supported_languages+0x1f3>
    36f4:	81 e6 ff 00 00 00    	and    $0xff,%esi
    36fa:	8b 4d 08             	mov    0x8(%ebp),%ecx
    36fd:	52                   	push   %edx
    36fe:	52                   	push   %edx
    36ff:	8b 55 d0             	mov    -0x30(%ebp),%edx
    3702:	57                   	push   %edi
    3703:	66 89 75 e6          	mov    %si,-0x1a(%ebp)
    3707:	52                   	push   %edx
    3708:	c6 45 e0 80          	movb   $0x80,-0x20(%ebp)
    370c:	50                   	push   %eax
    370d:	c6 45 e1 06          	movb   $0x6,-0x1f(%ebp)
    3711:	6a 08                	push   $0x8
    3713:	66 c7 45 e2 00 03    	movw   $0x300,-0x1e(%ebp)
    3719:	53                   	push   %ebx
    371a:	66 c7 45 e4 00 00    	movw   $0x0,-0x1c(%ebp)
    3720:	51                   	push   %ecx
    3721:	e8 8a ec ff ff       	call   23b0 <usb_pipe_control_read>
    3726:	83 c4 20             	add    $0x20,%esp
    3729:	89 c6                	mov    %eax,%esi
    372b:	85 c0                	test   %eax,%eax
    372d:	8b 55 d0             	mov    -0x30(%ebp),%edx
    3730:	0f 85 ba 00 00 00    	jne    37f0 <usb_request_get_supported_languages+0x1a0>
    3736:	3b 55 dc             	cmp    -0x24(%ebp),%edx
    3739:	0f 85 d8 00 00 00    	jne    3817 <usb_request_get_supported_languages+0x1c7>
    373f:	83 fa 02             	cmp    $0x2,%edx
    3742:	0f 86 e5 00 00 00    	jbe    382d <usb_request_get_supported_languages+0x1dd>
    3748:	83 ea 02             	sub    $0x2,%edx
    374b:	f6 c2 01             	test   $0x1,%dl
    374e:	0f 85 ad 00 00 00    	jne    3801 <usb_request_get_supported_languages+0x1b1>
    3754:	d1 ea                	shr    %edx
    3756:	51                   	push   %ecx
    3757:	89 d7                	mov    %edx,%edi
    3759:	51                   	push   %ecx
    375a:	89 55 d0             	mov    %edx,-0x30(%ebp)
    375d:	6a 04                	push   $0x4
    375f:	52                   	push   %edx
    3760:	e8 8b bf 00 00       	call   f6f0 <calloc@plt>
    3765:	83 c4 10             	add    $0x10,%esp
    3768:	89 45 cc             	mov    %eax,-0x34(%ebp)
    376b:	85 c0                	test   %eax,%eax
    376d:	0f 84 da 00 00 00    	je     384d <usb_request_get_supported_languages+0x1fd>
    3773:	85 ff                	test   %edi,%edi
    3775:	74 31                	je     37a8 <usb_request_get_supported_languages+0x158>
    3777:	8b 7d d4             	mov    -0x2c(%ebp),%edi
    377a:	89 c3                	mov    %eax,%ebx
    377c:	8d 4f 03             	lea    0x3(%edi),%ecx
    377f:	8b 7d d0             	mov    -0x30(%ebp),%edi
    3782:	8d 3c b8             	lea    (%eax,%edi,4),%edi
    3785:	8d 76 00             	lea    0x0(%esi),%esi
    3788:	31 c0                	xor    %eax,%eax
    378a:	31 d2                	xor    %edx,%edx
    378c:	8a 01                	mov    (%ecx),%al
    378e:	8a 51 ff             	mov    -0x1(%ecx),%dl
    3791:	c1 e0 08             	shl    $0x8,%eax
    3794:	83 c3 04             	add    $0x4,%ebx
    3797:	01 d0                	add    %edx,%eax
    3799:	83 c1 02             	add    $0x2,%ecx
    379c:	25 ff ff 00 00       	and    $0xffff,%eax
    37a1:	89 43 fc             	mov    %eax,-0x4(%ebx)
    37a4:	39 df                	cmp    %ebx,%edi
    37a6:	75 e0                	jne    3788 <usb_request_get_supported_languages+0x138>
    37a8:	83 ec 0c             	sub    $0xc,%esp
    37ab:	8b 55 d4             	mov    -0x2c(%ebp),%edx
    37ae:	52                   	push   %edx
    37af:	e8 ec c1 00 00       	call   f9a0 <free@plt>
    37b4:	8b 45 0c             	mov    0xc(%ebp),%eax
    37b7:	8b 7d cc             	mov    -0x34(%ebp),%edi
    37ba:	83 c4 10             	add    $0x10,%esp
    37bd:	89 38                	mov    %edi,(%eax)
    37bf:	8b 45 10             	mov    0x10(%ebp),%eax
    37c2:	8b 7d d0             	mov    -0x30(%ebp),%edi
    37c5:	89 38                	mov    %edi,(%eax)
    37c7:	8d 65 f4             	lea    -0xc(%ebp),%esp
    37ca:	89 f0                	mov    %esi,%eax
    37cc:	5b                   	pop    %ebx
    37cd:	5e                   	pop    %esi
    37ce:	5f                   	pop    %edi
    37cf:	5d                   	pop    %ebp
    37d0:	c3                   	ret    
    37d1:	8d b4 26 00 00 00 00 	lea    0x0(%esi,%eiz,1),%esi
    37d8:	8d 65 f4             	lea    -0xc(%ebp),%esp
    37db:	be fd ff ff ff       	mov    $0xfffffffd,%esi
    37e0:	89 f0                	mov    %esi,%eax
    37e2:	5b                   	pop    %ebx
    37e3:	5e                   	pop    %esi
    37e4:	5f                   	pop    %edi
    37e5:	5d                   	pop    %ebp
    37e6:	c3                   	ret    
    37e7:	90                   	nop
    37e8:	be f6 ff ff ff       	mov    $0xfffffff6,%esi
    37ed:	eb d8                	jmp    37c7 <usb_request_get_supported_languages+0x177>
    37ef:	90                   	nop
    37f0:	83 ec 0c             	sub    $0xc,%esp
    37f3:	8b 45 d4             	mov    -0x2c(%ebp),%eax
    37f6:	50                   	push   %eax
    37f7:	e8 a4 c1 00 00       	call   f9a0 <free@plt>
    37fc:	83 c4 10             	add    $0x10,%esp
    37ff:	eb c6                	jmp    37c7 <usb_request_get_supported_languages+0x177>
    3801:	83 ec 0c             	sub    $0xc,%esp
    3804:	8b 5d d4             	mov    -0x2c(%ebp),%ebx
    3807:	be d3 fe ff ff       	mov    $0xfffffed3,%esi
    380c:	53                   	push   %ebx
    380d:	e8 8e c1 00 00       	call   f9a0 <free@plt>
    3812:	83 c4 10             	add    $0x10,%esp
    3815:	eb b0                	jmp    37c7 <usb_request_get_supported_languages+0x177>
    3817:	83 ec 0c             	sub    $0xc,%esp
    381a:	8b 7d d4             	mov    -0x2c(%ebp),%edi
    381d:	be fd ff ff ff       	mov    $0xfffffffd,%esi
    3822:	57                   	push   %edi
    3823:	e8 78 c1 00 00       	call   f9a0 <free@plt>
    3828:	83 c4 10             	add    $0x10,%esp
    382b:	eb 9a                	jmp    37c7 <usb_request_get_supported_languages+0x177>
    382d:	83 ec 0c             	sub    $0xc,%esp
    3830:	8b 75 d4             	mov    -0x2c(%ebp),%esi
    3833:	56                   	push   %esi
    3834:	be d2 fe ff ff       	mov    $0xfffffed2,%esi
    3839:	e8 62 c1 00 00       	call   f9a0 <free@plt>
    383e:	83 c4 10             	add    $0x10,%esp
    3841:	eb 84                	jmp    37c7 <usb_request_get_supported_languages+0x177>
    3843:	be fe ff ff ff       	mov    $0xfffffffe,%esi
    3848:	e9 7a ff ff ff       	jmp    37c7 <usb_request_get_supported_languages+0x177>
    384d:	83 ec 0c             	sub    $0xc,%esp
    3850:	8b 45 d4             	mov    -0x2c(%ebp),%eax
    3853:	be fe ff ff ff       	mov    $0xfffffffe,%esi
    3858:	50                   	push   %eax
    3859:	e8 42 c1 00 00       	call   f9a0 <free@plt>
    385e:	83 c4 10             	add    $0x10,%esp
    3861:	e9 61 ff ff ff       	jmp    37c7 <usb_request_get_supported_languages+0x177>
    3866:	8d 76 00             	lea    0x0(%esi),%esi
    3869:	8d bc 27 00 00 00 00 	lea    0x0(%edi,%eiz,1),%edi

00003870 <usb_request_get_string>:
    3870:	55                   	push   %ebp
    3871:	89 e5                	mov    %esp,%ebp
    3873:	57                   	push   %edi
    3874:	56                   	push   %esi
    3875:	53                   	push   %ebx
    3876:	83 ec 2c             	sub    $0x2c,%esp
    3879:	8b 45 14             	mov    0x14(%ebp),%eax
    387c:	8b 5d 0c             	mov    0xc(%ebp),%ebx
    387f:	85 c0                	test   %eax,%eax
    3881:	0f 84 44 02 00 00    	je     3acb <usb_request_get_string+0x25b>
    3887:	8d 43 ff             	lea    -0x1(%ebx),%eax
    388a:	3d fe 00 00 00       	cmp    $0xfe,%eax
    388f:	0f 87 f3 01 00 00    	ja     3a88 <usb_request_get_string+0x218>
    3895:	81 7d 10 ff ff 00 00 	cmpl   $0xffff,0x10(%ebp)
    389c:	0f 87 e6 01 00 00    	ja     3a88 <usb_request_get_string+0x218>
    38a2:	8b 45 08             	mov    0x8(%ebp),%eax
    38a5:	80 cf 03             	or     $0x3,%bh
    38a8:	85 c0                	test   %eax,%eax
    38aa:	0f 84 25 02 00 00    	je     3ad5 <usb_request_get_string+0x265>
    38b0:	8b 45 10             	mov    0x10(%ebp),%eax
    38b3:	8d 7d dc             	lea    -0x24(%ebp),%edi
    38b6:	66 89 45 e4          	mov    %ax,-0x1c(%ebp)
    38ba:	8d 45 db             	lea    -0x25(%ebp),%eax
    38bd:	56                   	push   %esi
    38be:	56                   	push   %esi
    38bf:	8d 75 e0             	lea    -0x20(%ebp),%esi
    38c2:	57                   	push   %edi
    38c3:	6a 01                	push   $0x1
    38c5:	50                   	push   %eax
    38c6:	8b 45 08             	mov    0x8(%ebp),%eax
    38c9:	6a 08                	push   $0x8
    38cb:	c6 45 e0 80          	movb   $0x80,-0x20(%ebp)
    38cf:	56                   	push   %esi
    38d0:	c6 45 e1 06          	movb   $0x6,-0x1f(%ebp)
    38d4:	50                   	push   %eax
    38d5:	66 89 5d e2          	mov    %bx,-0x1e(%ebp)
    38d9:	66 c7 45 e6 01 00    	movw   $0x1,-0x1a(%ebp)
    38df:	e8 cc ea ff ff       	call   23b0 <usb_pipe_control_read>
    38e4:	83 c4 20             	add    $0x20,%esp
    38e7:	89 c2                	mov    %eax,%edx
    38e9:	85 c0                	test   %eax,%eax
    38eb:	0f 85 af 00 00 00    	jne    39a0 <usb_request_get_string+0x130>
    38f1:	83 7d dc 01          	cmpl   $0x1,-0x24(%ebp)
    38f5:	0f 85 7d 01 00 00    	jne    3a78 <usb_request_get_string+0x208>
    38fb:	8a 55 db             	mov    -0x25(%ebp),%dl
    38fe:	31 c9                	xor    %ecx,%ecx
    3900:	88 d1                	mov    %dl,%cl
    3902:	88 55 d0             	mov    %dl,-0x30(%ebp)
    3905:	85 c9                	test   %ecx,%ecx
    3907:	0f 84 6b 01 00 00    	je     3a78 <usb_request_get_string+0x208>
    390d:	83 ec 0c             	sub    $0xc,%esp
    3910:	89 4d cc             	mov    %ecx,-0x34(%ebp)
    3913:	51                   	push   %ecx
    3914:	e8 07 bd 00 00       	call   f620 <malloc@plt>
    3919:	83 c4 10             	add    $0x10,%esp
    391c:	89 45 d4             	mov    %eax,-0x2c(%ebp)
    391f:	85 c0                	test   %eax,%eax
    3921:	0f 84 9a 01 00 00    	je     3ac1 <usb_request_get_string+0x251>
    3927:	8b 4d 10             	mov    0x10(%ebp),%ecx
    392a:	8a 55 d0             	mov    -0x30(%ebp),%dl
    392d:	81 e2 ff 00 00 00    	and    $0xff,%edx
    3933:	66 89 4d e4          	mov    %cx,-0x1c(%ebp)
    3937:	66 89 5d e2          	mov    %bx,-0x1e(%ebp)
    393b:	8b 5d 08             	mov    0x8(%ebp),%ebx
    393e:	51                   	push   %ecx
    393f:	51                   	push   %ecx
    3940:	8b 4d cc             	mov    -0x34(%ebp),%ecx
    3943:	57                   	push   %edi
    3944:	66 89 55 e6          	mov    %dx,-0x1a(%ebp)
    3948:	51                   	push   %ecx
    3949:	89 4d d0             	mov    %ecx,-0x30(%ebp)
    394c:	50                   	push   %eax
    394d:	c6 45 e0 80          	movb   $0x80,-0x20(%ebp)
    3951:	6a 08                	push   $0x8
    3953:	c6 45 e1 06          	movb   $0x6,-0x1f(%ebp)
    3957:	56                   	push   %esi
    3958:	53                   	push   %ebx
    3959:	e8 52 ea ff ff       	call   23b0 <usb_pipe_control_read>
    395e:	83 c4 20             	add    $0x20,%esp
    3961:	89 c2                	mov    %eax,%edx
    3963:	85 c0                	test   %eax,%eax
    3965:	8b 4d d0             	mov    -0x30(%ebp),%ecx
    3968:	75 1e                	jne    3988 <usb_request_get_string+0x118>
    396a:	3b 4d dc             	cmp    -0x24(%ebp),%ecx
    396d:	0f 85 35 01 00 00    	jne    3aa8 <usb_request_get_string+0x238>
    3973:	83 f9 02             	cmp    $0x2,%ecx
    3976:	77 50                	ja     39c8 <usb_request_get_string+0x158>
    3978:	8b 45 d4             	mov    -0x2c(%ebp),%eax
    397b:	31 f6                	xor    %esi,%esi
    397d:	ba d2 fe ff ff       	mov    $0xfffffed2,%edx
    3982:	eb 20                	jmp    39a4 <usb_request_get_string+0x134>
    3984:	8d 74 26 00          	lea    0x0(%esi,%eiz,1),%esi
    3988:	83 ec 0c             	sub    $0xc,%esp
    398b:	8b 55 d4             	mov    -0x2c(%ebp),%edx
    398e:	89 45 d0             	mov    %eax,-0x30(%ebp)
    3991:	52                   	push   %edx
    3992:	e8 09 c0 00 00       	call   f9a0 <free@plt>
    3997:	83 c4 10             	add    $0x10,%esp
    399a:	8b 55 d0             	mov    -0x30(%ebp),%edx
    399d:	8d 76 00             	lea    0x0(%esi),%esi
    39a0:	31 c0                	xor    %eax,%eax
    39a2:	31 f6                	xor    %esi,%esi
    39a4:	83 ec 0c             	sub    $0xc,%esp
    39a7:	89 55 d4             	mov    %edx,-0x2c(%ebp)
    39aa:	50                   	push   %eax
    39ab:	e8 f0 bf 00 00       	call   f9a0 <free@plt>
    39b0:	89 34 24             	mov    %esi,(%esp)
    39b3:	e8 e8 bf 00 00       	call   f9a0 <free@plt>
    39b8:	83 c4 10             	add    $0x10,%esp
    39bb:	8b 55 d4             	mov    -0x2c(%ebp),%edx
    39be:	8d 65 f4             	lea    -0xc(%ebp),%esp
    39c1:	89 d0                	mov    %edx,%eax
    39c3:	5b                   	pop    %ebx
    39c4:	5e                   	pop    %esi
    39c5:	5f                   	pop    %edi
    39c6:	5d                   	pop    %ebp
    39c7:	c3                   	ret    
    39c8:	8d 59 fe             	lea    -0x2(%ecx),%ebx
    39cb:	f6 c3 01             	test   $0x1,%bl
    39ce:	74 10                	je     39e0 <usb_request_get_string+0x170>
    39d0:	8b 45 d4             	mov    -0x2c(%ebp),%eax
    39d3:	31 f6                	xor    %esi,%esi
    39d5:	ba d3 fe ff ff       	mov    $0xfffffed3,%edx
    39da:	eb c8                	jmp    39a4 <usb_request_get_string+0x134>
    39dc:	8d 74 26 00          	lea    0x0(%esi,%eiz,1),%esi
    39e0:	d1 eb                	shr    %ebx
    39e2:	83 ec 0c             	sub    $0xc,%esp
    39e5:	89 55 cc             	mov    %edx,-0x34(%ebp)
    39e8:	8d 04 9d 04 00 00 00 	lea    0x4(,%ebx,4),%eax
    39ef:	50                   	push   %eax
    39f0:	89 45 d0             	mov    %eax,-0x30(%ebp)
    39f3:	e8 28 bc 00 00       	call   f620 <malloc@plt>
    39f8:	83 c4 10             	add    $0x10,%esp
    39fb:	89 c6                	mov    %eax,%esi
    39fd:	85 c0                	test   %eax,%eax
    39ff:	0f 84 93 00 00 00    	je     3a98 <usb_request_get_string+0x228>
    3a05:	85 db                	test   %ebx,%ebx
    3a07:	8b 55 cc             	mov    -0x34(%ebp),%edx
    3a0a:	74 37                	je     3a43 <usb_request_get_string+0x1d3>
    3a0c:	89 c7                	mov    %eax,%edi
    3a0e:	8b 45 d4             	mov    -0x2c(%ebp),%eax
    3a11:	89 55 cc             	mov    %edx,-0x34(%ebp)
    3a14:	8d 58 03             	lea    0x3(%eax),%ebx
    3a17:	8b 45 d0             	mov    -0x30(%ebp),%eax
    3a1a:	8d 44 06 fc          	lea    -0x4(%esi,%eax,1),%eax
    3a1e:	89 c2                	mov    %eax,%edx
    3a20:	31 c0                	xor    %eax,%eax
    3a22:	31 c9                	xor    %ecx,%ecx
    3a24:	8a 03                	mov    (%ebx),%al
    3a26:	8a 4b ff             	mov    -0x1(%ebx),%cl
    3a29:	c1 e0 08             	shl    $0x8,%eax
    3a2c:	83 c7 04             	add    $0x4,%edi
    3a2f:	01 c8                	add    %ecx,%eax
    3a31:	83 c3 02             	add    $0x2,%ebx
    3a34:	25 ff ff 00 00       	and    $0xffff,%eax
    3a39:	89 47 fc             	mov    %eax,-0x4(%edi)
    3a3c:	39 fa                	cmp    %edi,%edx
    3a3e:	75 e0                	jne    3a20 <usb_request_get_string+0x1b0>
    3a40:	8b 55 cc             	mov    -0x34(%ebp),%edx
    3a43:	8b 45 d0             	mov    -0x30(%ebp),%eax
    3a46:	83 ec 0c             	sub    $0xc,%esp
    3a49:	89 55 cc             	mov    %edx,-0x34(%ebp)
    3a4c:	c7 44 06 fc 00 00 00 	movl   $0x0,-0x4(%esi,%eax,1)
    3a53:	00 
    3a54:	56                   	push   %esi
    3a55:	e8 d6 bd 00 00       	call   f830 <wstr_to_astr@plt>
    3a5a:	83 c4 10             	add    $0x10,%esp
    3a5d:	8b 55 cc             	mov    -0x34(%ebp),%edx
    3a60:	85 c0                	test   %eax,%eax
    3a62:	74 34                	je     3a98 <usb_request_get_string+0x228>
    3a64:	8b 7d 14             	mov    0x14(%ebp),%edi
    3a67:	89 07                	mov    %eax,(%edi)
    3a69:	8b 45 d4             	mov    -0x2c(%ebp),%eax
    3a6c:	e9 33 ff ff ff       	jmp    39a4 <usb_request_get_string+0x134>
    3a71:	8d b4 26 00 00 00 00 	lea    0x0(%esi,%eiz,1),%esi
    3a78:	ba fd ff ff ff       	mov    $0xfffffffd,%edx
    3a7d:	e9 1e ff ff ff       	jmp    39a0 <usb_request_get_string+0x130>
    3a82:	8d b6 00 00 00 00    	lea    0x0(%esi),%esi
    3a88:	ba f8 fe ff ff       	mov    $0xfffffef8,%edx
    3a8d:	e9 2c ff ff ff       	jmp    39be <usb_request_get_string+0x14e>
    3a92:	8d b6 00 00 00 00    	lea    0x0(%esi),%esi
    3a98:	8b 45 d4             	mov    -0x2c(%ebp),%eax
    3a9b:	ba fe ff ff ff       	mov    $0xfffffffe,%edx
    3aa0:	e9 ff fe ff ff       	jmp    39a4 <usb_request_get_string+0x134>
    3aa5:	8d 76 00             	lea    0x0(%esi),%esi
    3aa8:	83 ec 0c             	sub    $0xc,%esp
    3aab:	8b 45 d4             	mov    -0x2c(%ebp),%eax
    3aae:	50                   	push   %eax
    3aaf:	e8 ec be 00 00       	call   f9a0 <free@plt>
    3ab4:	83 c4 10             	add    $0x10,%esp
    3ab7:	ba fd ff ff ff       	mov    $0xfffffffd,%edx
    3abc:	e9 df fe ff ff       	jmp    39a0 <usb_request_get_string+0x130>
    3ac1:	ba fe ff ff ff       	mov    $0xfffffffe,%edx
    3ac6:	e9 d5 fe ff ff       	jmp    39a0 <usb_request_get_string+0x130>
    3acb:	ba f6 ff ff ff       	mov    $0xfffffff6,%edx
    3ad0:	e9 e9 fe ff ff       	jmp    39be <usb_request_get_string+0x14e>
    3ad5:	ba f6 ff ff ff       	mov    $0xfffffff6,%edx
    3ada:	e9 c1 fe ff ff       	jmp    39a0 <usb_request_get_string+0x130>
    3adf:	90                   	nop

00003ae0 <usb_request_clear_endpoint_halt>:
    3ae0:	55                   	push   %ebp
    3ae1:	89 e5                	mov    %esp,%ebp
    3ae3:	83 ec 18             	sub    $0x18,%esp
    3ae6:	8b 45 08             	mov    0x8(%ebp),%eax
    3ae9:	8b 55 0c             	mov    0xc(%ebp),%edx
    3aec:	85 c0                	test   %eax,%eax
    3aee:	74 30                	je     3b20 <usb_request_clear_endpoint_halt+0x40>
    3af0:	83 ec 0c             	sub    $0xc,%esp
    3af3:	66 89 55 f4          	mov    %dx,-0xc(%ebp)
    3af7:	8d 55 f0             	lea    -0x10(%ebp),%edx
    3afa:	c6 45 f0 02          	movb   $0x2,-0x10(%ebp)
    3afe:	6a 00                	push   $0x0
    3b00:	6a 00                	push   $0x0
    3b02:	6a 08                	push   $0x8
    3b04:	52                   	push   %edx
    3b05:	50                   	push   %eax
    3b06:	c6 45 f1 01          	movb   $0x1,-0xf(%ebp)
    3b0a:	66 c7 45 f2 00 00    	movw   $0x0,-0xe(%ebp)
    3b10:	66 c7 45 f6 00 00    	movw   $0x0,-0xa(%ebp)
    3b16:	e8 c5 e9 ff ff       	call   24e0 <usb_pipe_control_write>
    3b1b:	83 c4 20             	add    $0x20,%esp
    3b1e:	c9                   	leave  
    3b1f:	c3                   	ret    
    3b20:	b8 f6 ff ff ff       	mov    $0xfffffff6,%eax
    3b25:	c9                   	leave  
    3b26:	c3                   	ret    
    3b27:	89 f6                	mov    %esi,%esi
    3b29:	8d bc 27 00 00 00 00 	lea    0x0(%edi,%eiz,1),%edi

00003b30 <usb_pipe_clear_halt>:
    3b30:	55                   	push   %ebp
    3b31:	89 e5                	mov    %esp,%ebp
    3b33:	83 ec 18             	sub    $0x18,%esp
    3b36:	8b 45 08             	mov    0x8(%ebp),%eax
    3b39:	8b 55 0c             	mov    0xc(%ebp),%edx
    3b3c:	85 c0                	test   %eax,%eax
    3b3e:	74 38                	je     3b78 <usb_pipe_clear_halt+0x48>
    3b40:	85 d2                	test   %edx,%edx
    3b42:	74 34                	je     3b78 <usb_pipe_clear_halt+0x48>
    3b44:	8b 12                	mov    (%edx),%edx
    3b46:	83 ec 0c             	sub    $0xc,%esp
    3b49:	66 89 55 f4          	mov    %dx,-0xc(%ebp)
    3b4d:	8d 55 f0             	lea    -0x10(%ebp),%edx
    3b50:	6a 00                	push   $0x0
    3b52:	6a 00                	push   $0x0
    3b54:	6a 08                	push   $0x8
    3b56:	52                   	push   %edx
    3b57:	50                   	push   %eax
    3b58:	c6 45 f0 02          	movb   $0x2,-0x10(%ebp)
    3b5c:	c6 45 f1 01          	movb   $0x1,-0xf(%ebp)
    3b60:	66 c7 45 f2 00 00    	movw   $0x0,-0xe(%ebp)
    3b66:	66 c7 45 f6 00 00    	movw   $0x0,-0xa(%ebp)
    3b6c:	e8 6f e9 ff ff       	call   24e0 <usb_pipe_control_write>
    3b71:	83 c4 20             	add    $0x20,%esp
    3b74:	c9                   	leave  
    3b75:	c3                   	ret    
    3b76:	66 90                	xchg   %ax,%ax
    3b78:	b8 f2 ff ff ff       	mov    $0xfffffff2,%eax
    3b7d:	c9                   	leave  
    3b7e:	c3                   	ret    
    3b7f:	90                   	nop

00003b80 <usb_request_get_endpoint_status>:
    3b80:	55                   	push   %ebp
    3b81:	89 e5                	mov    %esp,%ebp
    3b83:	53                   	push   %ebx
    3b84:	83 ec 14             	sub    $0x14,%esp
    3b87:	8b 45 08             	mov    0x8(%ebp),%eax
    3b8a:	8b 5d 10             	mov    0x10(%ebp),%ebx
    3b8d:	85 c0                	test   %eax,%eax
    3b8f:	74 57                	je     3be8 <usb_request_get_endpoint_status+0x68>
    3b91:	8b 55 0c             	mov    0xc(%ebp),%edx
    3b94:	c6 45 f0 82          	movb   $0x82,-0x10(%ebp)
    3b98:	c6 45 f1 00          	movb   $0x0,-0xf(%ebp)
    3b9c:	66 c7 45 f2 00 00    	movw   $0x0,-0xe(%ebp)
    3ba2:	8b 12                	mov    (%edx),%edx
    3ba4:	66 c7 45 f6 02 00    	movw   $0x2,-0xa(%ebp)
    3baa:	66 89 55 f4          	mov    %dx,-0xc(%ebp)
    3bae:	52                   	push   %edx
    3baf:	52                   	push   %edx
    3bb0:	8d 55 ec             	lea    -0x14(%ebp),%edx
    3bb3:	52                   	push   %edx
    3bb4:	8d 55 ea             	lea    -0x16(%ebp),%edx
    3bb7:	6a 02                	push   $0x2
    3bb9:	52                   	push   %edx
    3bba:	8d 55 f0             	lea    -0x10(%ebp),%edx
    3bbd:	6a 08                	push   $0x8
    3bbf:	52                   	push   %edx
    3bc0:	50                   	push   %eax
    3bc1:	e8 ea e7 ff ff       	call   23b0 <usb_pipe_control_read>
    3bc6:	83 c4 20             	add    $0x20,%esp
    3bc9:	85 c0                	test   %eax,%eax
    3bcb:	75 11                	jne    3bde <usb_request_get_endpoint_status+0x5e>
    3bcd:	83 7d ec 02          	cmpl   $0x2,-0x14(%ebp)
    3bd1:	75 25                	jne    3bf8 <usb_request_get_endpoint_status+0x78>
    3bd3:	66 8b 55 ea          	mov    -0x16(%ebp),%dx
    3bd7:	85 db                	test   %ebx,%ebx
    3bd9:	74 03                	je     3bde <usb_request_get_endpoint_status+0x5e>
    3bdb:	66 89 13             	mov    %dx,(%ebx)
    3bde:	8b 5d fc             	mov    -0x4(%ebp),%ebx
    3be1:	c9                   	leave  
    3be2:	c3                   	ret    
    3be3:	90                   	nop
    3be4:	8d 74 26 00          	lea    0x0(%esi,%eiz,1),%esi
    3be8:	b8 f6 ff ff ff       	mov    $0xfffffff6,%eax
    3bed:	8b 5d fc             	mov    -0x4(%ebp),%ebx
    3bf0:	c9                   	leave  
    3bf1:	c3                   	ret    
    3bf2:	8d b6 00 00 00 00    	lea    0x0(%esi),%esi
    3bf8:	b8 fd ff ff ff       	mov    $0xfffffffd,%eax
    3bfd:	eb df                	jmp    3bde <usb_request_get_endpoint_status+0x5e>
    3bff:	90                   	nop

00003c00 <usb_interface_count_alternates>:
    3c00:	55                   	push   %ebp
    3c01:	89 e5                	mov    %esp,%ebp
    3c03:	57                   	push   %edi
    3c04:	56                   	push   %esi
    3c05:	53                   	push   %ebx
    3c06:	83 ec 2c             	sub    $0x2c,%esp
    3c09:	8b 5d 08             	mov    0x8(%ebp),%ebx
    3c0c:	8a 55 10             	mov    0x10(%ebp),%dl
    3c0f:	8b 45 0c             	mov    0xc(%ebp),%eax
    3c12:	88 55 d3             	mov    %dl,-0x2d(%ebp)
    3c15:	85 db                	test   %ebx,%ebx
    3c17:	0f 84 7f 00 00 00    	je     3c9c <usb_interface_count_alternates+0x9c>
    3c1d:	85 c0                	test   %eax,%eax
    3c1f:	0f 84 89 00 00 00    	je     3cae <usb_interface_count_alternates+0xae>
    3c25:	8d 7d dc             	lea    -0x24(%ebp),%edi
    3c28:	56                   	push   %esi
    3c29:	8d 75 d8             	lea    -0x28(%ebp),%esi
    3c2c:	53                   	push   %ebx
    3c2d:	c7 45 d8 00 d8 00 00 	movl   $0xd800,-0x28(%ebp)
    3c34:	57                   	push   %edi
    3c35:	89 5d dc             	mov    %ebx,-0x24(%ebp)
    3c38:	56                   	push   %esi
    3c39:	89 45 e0             	mov    %eax,-0x20(%ebp)
    3c3c:	c7 45 e4 00 00 00 00 	movl   $0x0,-0x1c(%ebp)
    3c43:	e8 a8 02 00 00       	call   3ef0 <usb_dp_get_nested_descriptor>
    3c48:	83 c4 10             	add    $0x10,%esp
    3c4b:	c7 45 d4 00 00 00 00 	movl   $0x0,-0x2c(%ebp)
    3c52:	85 c0                	test   %eax,%eax
    3c54:	75 12                	jne    3c68 <usb_interface_count_alternates+0x68>
    3c56:	eb 39                	jmp    3c91 <usb_interface_count_alternates+0x91>
    3c58:	50                   	push   %eax
    3c59:	53                   	push   %ebx
    3c5a:	57                   	push   %edi
    3c5b:	56                   	push   %esi
    3c5c:	e8 ef 05 00 00       	call   4250 <usb_dp_get_sibling_descriptor>
    3c61:	83 c4 10             	add    $0x10,%esp
    3c64:	85 c0                	test   %eax,%eax
    3c66:	74 29                	je     3c91 <usb_interface_count_alternates+0x91>
    3c68:	80 78 01 04          	cmpb   $0x4,0x1(%eax)
    3c6c:	75 ea                	jne    3c58 <usb_interface_count_alternates+0x58>
    3c6e:	8a 4d d3             	mov    -0x2d(%ebp),%cl
    3c71:	31 d2                	xor    %edx,%edx
    3c73:	38 48 02             	cmp    %cl,0x2(%eax)
    3c76:	8b 4d d4             	mov    -0x2c(%ebp),%ecx
    3c79:	0f 94 c2             	sete   %dl
    3c7c:	01 d1                	add    %edx,%ecx
    3c7e:	50                   	push   %eax
    3c7f:	89 4d d4             	mov    %ecx,-0x2c(%ebp)
    3c82:	53                   	push   %ebx
    3c83:	57                   	push   %edi
    3c84:	56                   	push   %esi
    3c85:	e8 c6 05 00 00       	call   4250 <usb_dp_get_sibling_descriptor>
    3c8a:	83 c4 10             	add    $0x10,%esp
    3c8d:	85 c0                	test   %eax,%eax
    3c8f:	75 d7                	jne    3c68 <usb_interface_count_alternates+0x68>
    3c91:	8b 45 d4             	mov    -0x2c(%ebp),%eax
    3c94:	8d 65 f4             	lea    -0xc(%ebp),%esp
    3c97:	5b                   	pop    %ebx
    3c98:	5e                   	pop    %esi
    3c99:	5f                   	pop    %edi
    3c9a:	5d                   	pop    %ebp
    3c9b:	c3                   	ret    
    3c9c:	50                   	push   %eax
    3c9d:	6a 34                	push   $0x34
    3c9f:	68 70 d7 00 00       	push   $0xd770
    3ca4:	68 7f d7 00 00       	push   $0xd77f
    3ca9:	e8 22 ba 00 00       	call   f6d0 <assert_abort@plt>
    3cae:	57                   	push   %edi
    3caf:	6a 35                	push   $0x35
    3cb1:	68 70 d7 00 00       	push   $0xd770
    3cb6:	68 94 d7 00 00       	push   $0xd794
    3cbb:	e8 10 ba 00 00       	call   f6d0 <assert_abort@plt>

00003cc0 <usb_alternate_interfaces_init>:
    3cc0:	55                   	push   %ebp
    3cc1:	89 e5                	mov    %esp,%ebp
    3cc3:	57                   	push   %edi
    3cc4:	56                   	push   %esi
    3cc5:	53                   	push   %ebx
    3cc6:	83 ec 2c             	sub    $0x2c,%esp
    3cc9:	8b 45 08             	mov    0x8(%ebp),%eax
    3ccc:	8b 7d 0c             	mov    0xc(%ebp),%edi
    3ccf:	85 c0                	test   %eax,%eax
    3cd1:	0f 84 cd 01 00 00    	je     3ea4 <usb_alternate_interfaces_init+0x1e4>
    3cd7:	85 ff                	test   %edi,%edi
    3cd9:	0f 84 b3 01 00 00    	je     3e92 <usb_alternate_interfaces_init+0x1d2>
    3cdf:	8b 45 10             	mov    0x10(%ebp),%eax
    3ce2:	85 c0                	test   %eax,%eax
    3ce4:	0f 84 96 01 00 00    	je     3e80 <usb_alternate_interfaces_init+0x1c0>
    3cea:	8b 45 08             	mov    0x8(%ebp),%eax
    3ced:	8b 75 14             	mov    0x14(%ebp),%esi
    3cf0:	85 f6                	test   %esi,%esi
    3cf2:	c7 00 00 00 00 00    	movl   $0x0,(%eax)
    3cf8:	c7 40 04 00 00 00 00 	movl   $0x0,0x4(%eax)
    3cff:	c7 40 08 00 00 00 00 	movl   $0x0,0x8(%eax)
    3d06:	0f 88 54 01 00 00    	js     3e60 <usb_alternate_interfaces_init+0x1a0>
    3d0c:	8a 45 14             	mov    0x14(%ebp),%al
    3d0f:	8d 75 dc             	lea    -0x24(%ebp),%esi
    3d12:	53                   	push   %ebx
    3d13:	88 45 d4             	mov    %al,-0x2c(%ebp)
    3d16:	8d 5d d8             	lea    -0x28(%ebp),%ebx
    3d19:	8b 45 10             	mov    0x10(%ebp),%eax
    3d1c:	57                   	push   %edi
    3d1d:	c7 45 d8 00 d8 00 00 	movl   $0xd800,-0x28(%ebp)
    3d24:	56                   	push   %esi
    3d25:	89 7d dc             	mov    %edi,-0x24(%ebp)
    3d28:	53                   	push   %ebx
    3d29:	89 45 e0             	mov    %eax,-0x20(%ebp)
    3d2c:	c7 45 e4 00 00 00 00 	movl   $0x0,-0x1c(%ebp)
    3d33:	e8 b8 01 00 00       	call   3ef0 <usb_dp_get_nested_descriptor>
    3d38:	83 c4 10             	add    $0x10,%esp
    3d3b:	85 c0                	test   %eax,%eax
    3d3d:	0f 84 31 01 00 00    	je     3e74 <usb_alternate_interfaces_init+0x1b4>
    3d43:	c7 45 d0 00 00 00 00 	movl   $0x0,-0x30(%ebp)
    3d4a:	eb 14                	jmp    3d60 <usb_alternate_interfaces_init+0xa0>
    3d4c:	8d 74 26 00          	lea    0x0(%esi,%eiz,1),%esi
    3d50:	50                   	push   %eax
    3d51:	57                   	push   %edi
    3d52:	56                   	push   %esi
    3d53:	53                   	push   %ebx
    3d54:	e8 f7 04 00 00       	call   4250 <usb_dp_get_sibling_descriptor>
    3d59:	83 c4 10             	add    $0x10,%esp
    3d5c:	85 c0                	test   %eax,%eax
    3d5e:	74 29                	je     3d89 <usb_alternate_interfaces_init+0xc9>
    3d60:	80 78 01 04          	cmpb   $0x4,0x1(%eax)
    3d64:	75 ea                	jne    3d50 <usb_alternate_interfaces_init+0x90>
    3d66:	8a 4d d4             	mov    -0x2c(%ebp),%cl
    3d69:	31 d2                	xor    %edx,%edx
    3d6b:	3a 48 02             	cmp    0x2(%eax),%cl
    3d6e:	8b 4d d0             	mov    -0x30(%ebp),%ecx
    3d71:	0f 94 c2             	sete   %dl
    3d74:	01 d1                	add    %edx,%ecx
    3d76:	50                   	push   %eax
    3d77:	89 4d d0             	mov    %ecx,-0x30(%ebp)
    3d7a:	57                   	push   %edi
    3d7b:	56                   	push   %esi
    3d7c:	53                   	push   %ebx
    3d7d:	e8 ce 04 00 00       	call   4250 <usb_dp_get_sibling_descriptor>
    3d82:	83 c4 10             	add    $0x10,%esp
    3d85:	85 c0                	test   %eax,%eax
    3d87:	75 d7                	jne    3d60 <usb_alternate_interfaces_init+0xa0>
    3d89:	8b 45 d0             	mov    -0x30(%ebp),%eax
    3d8c:	85 c0                	test   %eax,%eax
    3d8e:	0f 84 e0 00 00 00    	je     3e74 <usb_alternate_interfaces_init+0x1b4>
    3d94:	52                   	push   %edx
    3d95:	52                   	push   %edx
    3d96:	6a 0c                	push   $0xc
    3d98:	50                   	push   %eax
    3d99:	e8 52 b9 00 00       	call   f6f0 <calloc@plt>
    3d9e:	83 c4 10             	add    $0x10,%esp
    3da1:	89 45 cc             	mov    %eax,-0x34(%ebp)
    3da4:	85 c0                	test   %eax,%eax
    3da6:	0f 84 cd 00 00 00    	je     3e79 <usb_alternate_interfaces_init+0x1b9>
    3dac:	8b 45 10             	mov    0x10(%ebp),%eax
    3daf:	c7 45 d8 00 d8 00 00 	movl   $0xd800,-0x28(%ebp)
    3db6:	89 45 e0             	mov    %eax,-0x20(%ebp)
    3db9:	89 7d dc             	mov    %edi,-0x24(%ebp)
    3dbc:	c7 45 e4 00 00 00 00 	movl   $0x0,-0x1c(%ebp)
    3dc3:	50                   	push   %eax
    3dc4:	57                   	push   %edi
    3dc5:	56                   	push   %esi
    3dc6:	53                   	push   %ebx
    3dc7:	e8 24 01 00 00       	call   3ef0 <usb_dp_get_nested_descriptor>
    3dcc:	83 c4 10             	add    $0x10,%esp
    3dcf:	85 c0                	test   %eax,%eax
    3dd1:	74 75                	je     3e48 <usb_alternate_interfaces_init+0x188>
    3dd3:	8b 55 d0             	mov    -0x30(%ebp),%edx
    3dd6:	8b 4d cc             	mov    -0x34(%ebp),%ecx
    3dd9:	8d 14 52             	lea    (%edx,%edx,2),%edx
    3ddc:	8d 14 91             	lea    (%ecx,%edx,4),%edx
    3ddf:	89 55 d4             	mov    %edx,-0x2c(%ebp)
    3de2:	39 d1                	cmp    %edx,%ecx
    3de4:	73 62                	jae    3e48 <usb_alternate_interfaces_init+0x188>
    3de6:	89 cf                	mov    %ecx,%edi
    3de8:	eb 21                	jmp    3e0b <usb_alternate_interfaces_init+0x14b>
    3dea:	8d b6 00 00 00 00    	lea    0x0(%esi),%esi
    3df0:	50                   	push   %eax
    3df1:	8b 45 dc             	mov    -0x24(%ebp),%eax
    3df4:	50                   	push   %eax
    3df5:	56                   	push   %esi
    3df6:	53                   	push   %ebx
    3df7:	e8 54 04 00 00       	call   4250 <usb_dp_get_sibling_descriptor>
    3dfc:	83 c7 0c             	add    $0xc,%edi
    3dff:	83 c4 10             	add    $0x10,%esp
    3e02:	85 c0                	test   %eax,%eax
    3e04:	74 42                	je     3e48 <usb_alternate_interfaces_init+0x188>
    3e06:	3b 7d d4             	cmp    -0x2c(%ebp),%edi
    3e09:	73 3d                	jae    3e48 <usb_alternate_interfaces_init+0x188>
    3e0b:	80 78 01 04          	cmpb   $0x4,0x1(%eax)
    3e0f:	75 df                	jne    3df0 <usb_alternate_interfaces_init+0x130>
    3e11:	31 d2                	xor    %edx,%edx
    3e13:	8a 50 02             	mov    0x2(%eax),%dl
    3e16:	39 55 14             	cmp    %edx,0x14(%ebp)
    3e19:	75 d5                	jne    3df0 <usb_alternate_interfaces_init+0x130>
    3e1b:	8d 50 09             	lea    0x9(%eax),%edx
    3e1e:	89 07                	mov    %eax,(%edi)
    3e20:	89 57 04             	mov    %edx,0x4(%edi)
    3e23:	50                   	push   %eax
    3e24:	8b 45 dc             	mov    -0x24(%ebp),%eax
    3e27:	50                   	push   %eax
    3e28:	56                   	push   %esi
    3e29:	53                   	push   %ebx
    3e2a:	e8 21 04 00 00       	call   4250 <usb_dp_get_sibling_descriptor>
    3e2f:	83 c4 10             	add    $0x10,%esp
    3e32:	89 c2                	mov    %eax,%edx
    3e34:	85 c0                	test   %eax,%eax
    3e36:	74 32                	je     3e6a <usb_alternate_interfaces_init+0x1aa>
    3e38:	8b 4f 04             	mov    0x4(%edi),%ecx
    3e3b:	83 c7 0c             	add    $0xc,%edi
    3e3e:	29 ca                	sub    %ecx,%edx
    3e40:	89 57 fc             	mov    %edx,-0x4(%edi)
    3e43:	85 c0                	test   %eax,%eax
    3e45:	75 bf                	jne    3e06 <usb_alternate_interfaces_init+0x146>
    3e47:	90                   	nop
    3e48:	8b 45 08             	mov    0x8(%ebp),%eax
    3e4b:	8b 5d cc             	mov    -0x34(%ebp),%ebx
    3e4e:	8b 75 d0             	mov    -0x30(%ebp),%esi
    3e51:	89 18                	mov    %ebx,(%eax)
    3e53:	89 70 04             	mov    %esi,0x4(%eax)
    3e56:	31 c0                	xor    %eax,%eax
    3e58:	8d 65 f4             	lea    -0xc(%ebp),%esp
    3e5b:	5b                   	pop    %ebx
    3e5c:	5e                   	pop    %esi
    3e5d:	5f                   	pop    %edi
    3e5e:	5d                   	pop    %ebp
    3e5f:	c3                   	ret    
    3e60:	8d 65 f4             	lea    -0xc(%ebp),%esp
    3e63:	31 c0                	xor    %eax,%eax
    3e65:	5b                   	pop    %ebx
    3e66:	5e                   	pop    %esi
    3e67:	5f                   	pop    %edi
    3e68:	5d                   	pop    %ebp
    3e69:	c3                   	ret    
    3e6a:	8b 55 e0             	mov    -0x20(%ebp),%edx
    3e6d:	8b 4d dc             	mov    -0x24(%ebp),%ecx
    3e70:	01 ca                	add    %ecx,%edx
    3e72:	eb c4                	jmp    3e38 <usb_alternate_interfaces_init+0x178>
    3e74:	83 c8 ff             	or     $0xffffffff,%eax
    3e77:	eb df                	jmp    3e58 <usb_alternate_interfaces_init+0x198>
    3e79:	b8 fe ff ff ff       	mov    $0xfffffffe,%eax
    3e7e:	eb d8                	jmp    3e58 <usb_alternate_interfaces_init+0x198>
    3e80:	57                   	push   %edi
    3e81:	6a 5e                	push   $0x5e
    3e83:	68 70 d7 00 00       	push   $0xd770
    3e88:	68 94 d7 00 00       	push   $0xd794
    3e8d:	e8 3e b8 00 00       	call   f6d0 <assert_abort@plt>
    3e92:	50                   	push   %eax
    3e93:	6a 5d                	push   $0x5d
    3e95:	68 70 d7 00 00       	push   $0xd770
    3e9a:	68 7f d7 00 00       	push   $0xd77f
    3e9f:	e8 2c b8 00 00       	call   f6d0 <assert_abort@plt>
    3ea4:	50                   	push   %eax
    3ea5:	6a 5c                	push   $0x5c
    3ea7:	68 70 d7 00 00       	push   $0xd770
    3eac:	68 aa d7 00 00       	push   $0xd7aa
    3eb1:	e8 1a b8 00 00       	call   f6d0 <assert_abort@plt>
    3eb6:	8d 76 00             	lea    0x0(%esi),%esi
    3eb9:	8d bc 27 00 00 00 00 	lea    0x0(%edi,%eiz,1),%edi

00003ec0 <usb_alternate_interfaces_deinit>:
    3ec0:	55                   	push   %ebp
    3ec1:	89 e5                	mov    %esp,%ebp
    3ec3:	53                   	push   %ebx
    3ec4:	52                   	push   %edx
    3ec5:	8b 5d 08             	mov    0x8(%ebp),%ebx
    3ec8:	85 db                	test   %ebx,%ebx
    3eca:	74 14                	je     3ee0 <usb_alternate_interfaces_deinit+0x20>
    3ecc:	83 ec 0c             	sub    $0xc,%esp
    3ecf:	8b 03                	mov    (%ebx),%eax
    3ed1:	50                   	push   %eax
    3ed2:	e8 c9 ba 00 00       	call   f9a0 <free@plt>
    3ed7:	c7 03 00 00 00 00    	movl   $0x0,(%ebx)
    3edd:	83 c4 10             	add    $0x10,%esp
    3ee0:	8b 5d fc             	mov    -0x4(%ebp),%ebx
    3ee3:	c9                   	leave  
    3ee4:	c3                   	ret    
    3ee5:	66 90                	xchg   %ax,%ax
    3ee7:	66 90                	xchg   %ax,%ax
    3ee9:	66 90                	xchg   %ax,%ax
    3eeb:	66 90                	xchg   %ax,%ax
    3eed:	66 90                	xchg   %ax,%ax
    3eef:	90                   	nop

00003ef0 <usb_dp_get_nested_descriptor>:
    3ef0:	55                   	push   %ebp
    3ef1:	89 e5                	mov    %esp,%ebp
    3ef3:	57                   	push   %edi
    3ef4:	56                   	push   %esi
    3ef5:	53                   	push   %ebx
    3ef6:	8b 55 10             	mov    0x10(%ebp),%edx
    3ef9:	8b 5d 0c             	mov    0xc(%ebp),%ebx
    3efc:	85 d2                	test   %edx,%edx
    3efe:	0f 84 9c 00 00 00    	je     3fa0 <usb_dp_get_nested_descriptor+0xb0>
    3f04:	8b 0b                	mov    (%ebx),%ecx
    3f06:	31 c0                	xor    %eax,%eax
    3f08:	39 ca                	cmp    %ecx,%edx
    3f0a:	0f 82 88 00 00 00    	jb     3f98 <usb_dp_get_nested_descriptor+0xa8>
    3f10:	89 d6                	mov    %edx,%esi
    3f12:	8b 5b 04             	mov    0x4(%ebx),%ebx
    3f15:	29 ce                	sub    %ecx,%esi
    3f17:	39 de                	cmp    %ebx,%esi
    3f19:	73 7d                	jae    3f98 <usb_dp_get_nested_descriptor+0xa8>
    3f1b:	31 c0                	xor    %eax,%eax
    3f1d:	8a 02                	mov    (%edx),%al
    3f1f:	01 d0                	add    %edx,%eax
    3f21:	74 75                	je     3f98 <usb_dp_get_nested_descriptor+0xa8>
    3f23:	39 c1                	cmp    %eax,%ecx
    3f25:	77 79                	ja     3fa0 <usb_dp_get_nested_descriptor+0xb0>
    3f27:	89 c6                	mov    %eax,%esi
    3f29:	29 ce                	sub    %ecx,%esi
    3f2b:	39 f3                	cmp    %esi,%ebx
    3f2d:	76 71                	jbe    3fa0 <usb_dp_get_nested_descriptor+0xb0>
    3f2f:	89 d7                	mov    %edx,%edi
    3f31:	47                   	inc    %edi
    3f32:	0f 84 8c 00 00 00    	je     3fc4 <usb_dp_get_nested_descriptor+0xd4>
    3f38:	83 ce ff             	or     $0xffffffff,%esi
    3f3b:	39 f9                	cmp    %edi,%ecx
    3f3d:	77 09                	ja     3f48 <usb_dp_get_nested_descriptor+0x58>
    3f3f:	29 cf                	sub    %ecx,%edi
    3f41:	39 fb                	cmp    %edi,%ebx
    3f43:	77 63                	ja     3fa8 <usb_dp_get_nested_descriptor+0xb8>
    3f45:	8d 76 00             	lea    0x0(%esi),%esi
    3f48:	89 c2                	mov    %eax,%edx
    3f4a:	83 cf ff             	or     $0xffffffff,%edi
    3f4d:	42                   	inc    %edx
    3f4e:	74 10                	je     3f60 <usb_dp_get_nested_descriptor+0x70>
    3f50:	39 d1                	cmp    %edx,%ecx
    3f52:	77 0c                	ja     3f60 <usb_dp_get_nested_descriptor+0x70>
    3f54:	29 ca                	sub    %ecx,%edx
    3f56:	39 d3                	cmp    %edx,%ebx
    3f58:	77 5e                	ja     3fb8 <usb_dp_get_nested_descriptor+0xc8>
    3f5a:	8d b6 00 00 00 00    	lea    0x0(%esi),%esi
    3f60:	8b 55 08             	mov    0x8(%ebp),%edx
    3f63:	8b 12                	mov    (%edx),%edx
    3f65:	8b 0a                	mov    (%edx),%ecx
    3f67:	85 c9                	test   %ecx,%ecx
    3f69:	7e 35                	jle    3fa0 <usb_dp_get_nested_descriptor+0xb0>
    3f6b:	8b 5a 04             	mov    0x4(%edx),%ebx
    3f6e:	85 db                	test   %ebx,%ebx
    3f70:	7e 2e                	jle    3fa0 <usb_dp_get_nested_descriptor+0xb0>
    3f72:	39 cf                	cmp    %ecx,%edi
    3f74:	75 0a                	jne    3f80 <usb_dp_get_nested_descriptor+0x90>
    3f76:	39 de                	cmp    %ebx,%esi
    3f78:	74 1e                	je     3f98 <usb_dp_get_nested_descriptor+0xa8>
    3f7a:	8d b6 00 00 00 00    	lea    0x0(%esi),%esi
    3f80:	83 c2 08             	add    $0x8,%edx
    3f83:	8b 0a                	mov    (%edx),%ecx
    3f85:	85 c9                	test   %ecx,%ecx
    3f87:	7e 17                	jle    3fa0 <usb_dp_get_nested_descriptor+0xb0>
    3f89:	8b 5a 04             	mov    0x4(%edx),%ebx
    3f8c:	85 db                	test   %ebx,%ebx
    3f8e:	7e 10                	jle    3fa0 <usb_dp_get_nested_descriptor+0xb0>
    3f90:	39 f9                	cmp    %edi,%ecx
    3f92:	75 ec                	jne    3f80 <usb_dp_get_nested_descriptor+0x90>
    3f94:	39 f3                	cmp    %esi,%ebx
    3f96:	75 e8                	jne    3f80 <usb_dp_get_nested_descriptor+0x90>
    3f98:	5b                   	pop    %ebx
    3f99:	5e                   	pop    %esi
    3f9a:	5f                   	pop    %edi
    3f9b:	5d                   	pop    %ebp
    3f9c:	c3                   	ret    
    3f9d:	8d 76 00             	lea    0x0(%esi),%esi
    3fa0:	5b                   	pop    %ebx
    3fa1:	31 c0                	xor    %eax,%eax
    3fa3:	5e                   	pop    %esi
    3fa4:	5f                   	pop    %edi
    3fa5:	5d                   	pop    %ebp
    3fa6:	c3                   	ret    
    3fa7:	90                   	nop
    3fa8:	0f b6 72 01          	movzbl 0x1(%edx),%esi
    3fac:	81 e6 ff 00 00 00    	and    $0xff,%esi
    3fb2:	eb 94                	jmp    3f48 <usb_dp_get_nested_descriptor+0x58>
    3fb4:	8d 74 26 00          	lea    0x0(%esi,%eiz,1),%esi
    3fb8:	0f b6 78 01          	movzbl 0x1(%eax),%edi
    3fbc:	81 e7 ff 00 00 00    	and    $0xff,%edi
    3fc2:	eb 9c                	jmp    3f60 <usb_dp_get_nested_descriptor+0x70>
    3fc4:	83 ce ff             	or     $0xffffffff,%esi
    3fc7:	e9 7c ff ff ff       	jmp    3f48 <usb_dp_get_nested_descriptor+0x58>
    3fcc:	8d 74 26 00          	lea    0x0(%esi,%eiz,1),%esi

00003fd0 <skip_nested_descriptors>:
    3fd0:	55                   	push   %ebp
    3fd1:	89 e5                	mov    %esp,%ebp
    3fd3:	57                   	push   %edi
    3fd4:	56                   	push   %esi
    3fd5:	53                   	push   %ebx
    3fd6:	83 ec 2c             	sub    $0x2c,%esp
    3fd9:	89 d7                	mov    %edx,%edi
    3fdb:	89 45 d4             	mov    %eax,-0x2c(%ebp)
    3fde:	89 4d e0             	mov    %ecx,-0x20(%ebp)
    3fe1:	51                   	push   %ecx
    3fe2:	52                   	push   %edx
    3fe3:	50                   	push   %eax
    3fe4:	e8 07 ff ff ff       	call   3ef0 <usb_dp_get_nested_descriptor>
    3fe9:	83 c4 0c             	add    $0xc,%esp
    3fec:	85 c0                	test   %eax,%eax
    3fee:	0f 84 e6 00 00 00    	je     40da <skip_nested_descriptors+0x10a>
    3ff4:	8b 75 d4             	mov    -0x2c(%ebp),%esi
    3ff7:	89 c1                	mov    %eax,%ecx
    3ff9:	89 fa                	mov    %edi,%edx
    3ffb:	89 f0                	mov    %esi,%eax
    3ffd:	e8 ce ff ff ff       	call   3fd0 <skip_nested_descriptors>
    4002:	8b 0e                	mov    (%esi),%ecx
    4004:	89 4d dc             	mov    %ecx,-0x24(%ebp)
    4007:	8b 09                	mov    (%ecx),%ecx
    4009:	89 4d d8             	mov    %ecx,-0x28(%ebp)
    400c:	8b 4d e0             	mov    -0x20(%ebp),%ecx
    400f:	41                   	inc    %ecx
    4010:	8b 55 e0             	mov    -0x20(%ebp),%edx
    4013:	89 4d d0             	mov    %ecx,-0x30(%ebp)
    4016:	85 d2                	test   %edx,%edx
    4018:	0f 84 9a 00 00 00    	je     40b8 <skip_nested_descriptors+0xe8>
    401e:	66 90                	xchg   %ax,%ax
    4020:	8b 4d d0             	mov    -0x30(%ebp),%ecx
    4023:	85 c9                	test   %ecx,%ecx
    4025:	0f 84 8d 00 00 00    	je     40b8 <skip_nested_descriptors+0xe8>
    402b:	8b 17                	mov    (%edi),%edx
    402d:	c7 45 e4 ff ff ff ff 	movl   $0xffffffff,-0x1c(%ebp)
    4034:	39 d1                	cmp    %edx,%ecx
    4036:	72 12                	jb     404a <skip_nested_descriptors+0x7a>
    4038:	29 d1                	sub    %edx,%ecx
    403a:	3b 4f 04             	cmp    0x4(%edi),%ecx
    403d:	73 0b                	jae    404a <skip_nested_descriptors+0x7a>
    403f:	8b 75 e0             	mov    -0x20(%ebp),%esi
    4042:	31 c9                	xor    %ecx,%ecx
    4044:	8a 4e 01             	mov    0x1(%esi),%cl
    4047:	89 4d e4             	mov    %ecx,-0x1c(%ebp)
    404a:	85 c0                	test   %eax,%eax
    404c:	74 7a                	je     40c8 <skip_nested_descriptors+0xf8>
    404e:	89 c2                	mov    %eax,%edx
    4050:	42                   	inc    %edx
    4051:	74 75                	je     40c8 <skip_nested_descriptors+0xf8>
    4053:	8b 1f                	mov    (%edi),%ebx
    4055:	83 c9 ff             	or     $0xffffffff,%ecx
    4058:	39 da                	cmp    %ebx,%edx
    405a:	72 0c                	jb     4068 <skip_nested_descriptors+0x98>
    405c:	29 da                	sub    %ebx,%edx
    405e:	3b 57 04             	cmp    0x4(%edi),%edx
    4061:	73 05                	jae    4068 <skip_nested_descriptors+0x98>
    4063:	31 c9                	xor    %ecx,%ecx
    4065:	8a 48 01             	mov    0x1(%eax),%cl
    4068:	8b 75 d8             	mov    -0x28(%ebp),%esi
    406b:	85 f6                	test   %esi,%esi
    406d:	7e 63                	jle    40d2 <skip_nested_descriptors+0x102>
    406f:	8b 5d dc             	mov    -0x24(%ebp),%ebx
    4072:	8b 53 04             	mov    0x4(%ebx),%edx
    4075:	85 d2                	test   %edx,%edx
    4077:	7e 59                	jle    40d2 <skip_nested_descriptors+0x102>
    4079:	39 ce                	cmp    %ecx,%esi
    407b:	75 05                	jne    4082 <skip_nested_descriptors+0xb2>
    407d:	39 55 e4             	cmp    %edx,-0x1c(%ebp)
    4080:	74 1f                	je     40a1 <skip_nested_descriptors+0xd1>
    4082:	8b 55 dc             	mov    -0x24(%ebp),%edx
    4085:	8d 76 00             	lea    0x0(%esi),%esi
    4088:	83 c2 08             	add    $0x8,%edx
    408b:	8b 1a                	mov    (%edx),%ebx
    408d:	85 db                	test   %ebx,%ebx
    408f:	7e 41                	jle    40d2 <skip_nested_descriptors+0x102>
    4091:	8b 72 04             	mov    0x4(%edx),%esi
    4094:	85 f6                	test   %esi,%esi
    4096:	7e 3a                	jle    40d2 <skip_nested_descriptors+0x102>
    4098:	39 cb                	cmp    %ecx,%ebx
    409a:	75 ec                	jne    4088 <skip_nested_descriptors+0xb8>
    409c:	3b 75 e4             	cmp    -0x1c(%ebp),%esi
    409f:	75 e7                	jne    4088 <skip_nested_descriptors+0xb8>
    40a1:	89 c1                	mov    %eax,%ecx
    40a3:	89 fa                	mov    %edi,%edx
    40a5:	8b 45 d4             	mov    -0x2c(%ebp),%eax
    40a8:	e8 23 ff ff ff       	call   3fd0 <skip_nested_descriptors>
    40ad:	8b 55 e0             	mov    -0x20(%ebp),%edx
    40b0:	85 d2                	test   %edx,%edx
    40b2:	0f 85 68 ff ff ff    	jne    4020 <skip_nested_descriptors+0x50>
    40b8:	c7 45 e4 ff ff ff ff 	movl   $0xffffffff,-0x1c(%ebp)
    40bf:	85 c0                	test   %eax,%eax
    40c1:	75 8b                	jne    404e <skip_nested_descriptors+0x7e>
    40c3:	90                   	nop
    40c4:	8d 74 26 00          	lea    0x0(%esi,%eiz,1),%esi
    40c8:	8b 75 d8             	mov    -0x28(%ebp),%esi
    40cb:	83 c9 ff             	or     $0xffffffff,%ecx
    40ce:	85 f6                	test   %esi,%esi
    40d0:	7f 9d                	jg     406f <skip_nested_descriptors+0x9f>
    40d2:	8d 65 f4             	lea    -0xc(%ebp),%esp
    40d5:	5b                   	pop    %ebx
    40d6:	5e                   	pop    %esi
    40d7:	5f                   	pop    %edi
    40d8:	5d                   	pop    %ebp
    40d9:	c3                   	ret    
    40da:	8b 75 e0             	mov    -0x20(%ebp),%esi
    40dd:	85 f6                	test   %esi,%esi
    40df:	74 29                	je     410a <skip_nested_descriptors+0x13a>
    40e1:	8b 0f                	mov    (%edi),%ecx
    40e3:	39 ce                	cmp    %ecx,%esi
    40e5:	72 23                	jb     410a <skip_nested_descriptors+0x13a>
    40e7:	89 f2                	mov    %esi,%edx
    40e9:	8b 5f 04             	mov    0x4(%edi),%ebx
    40ec:	29 ca                	sub    %ecx,%edx
    40ee:	39 da                	cmp    %ebx,%edx
    40f0:	73 18                	jae    410a <skip_nested_descriptors+0x13a>
    40f2:	31 d2                	xor    %edx,%edx
    40f4:	8a 16                	mov    (%esi),%dl
    40f6:	01 f2                	add    %esi,%edx
    40f8:	74 d8                	je     40d2 <skip_nested_descriptors+0x102>
    40fa:	39 d1                	cmp    %edx,%ecx
    40fc:	77 d4                	ja     40d2 <skip_nested_descriptors+0x102>
    40fe:	89 d7                	mov    %edx,%edi
    4100:	29 cf                	sub    %ecx,%edi
    4102:	39 fb                	cmp    %edi,%ebx
    4104:	76 cc                	jbe    40d2 <skip_nested_descriptors+0x102>
    4106:	89 d0                	mov    %edx,%eax
    4108:	eb c8                	jmp    40d2 <skip_nested_descriptors+0x102>
    410a:	50                   	push   %eax
    410b:	6a 6a                	push   $0x6a
    410d:	68 bd d7 00 00       	push   $0xd7bd
    4112:	68 c8 d7 00 00       	push   $0xd7c8
    4117:	e8 b4 b5 00 00       	call   f6d0 <assert_abort@plt>
    411c:	8d 74 26 00          	lea    0x0(%esi,%eiz,1),%esi

00004120 <usb_dp_browse_simple_internal>:
    4120:	55                   	push   %ebp
    4121:	89 e5                	mov    %esp,%ebp
    4123:	57                   	push   %edi
    4124:	56                   	push   %esi
    4125:	53                   	push   %ebx
    4126:	83 ec 2c             	sub    $0x2c,%esp
    4129:	85 c9                	test   %ecx,%ecx
    412b:	8b 75 08             	mov    0x8(%ebp),%esi
    412e:	74 5e                	je     418e <usb_dp_browse_simple_internal+0x6e>
    4130:	89 45 e4             	mov    %eax,-0x1c(%ebp)
    4133:	50                   	push   %eax
    4134:	8b 45 10             	mov    0x10(%ebp),%eax
    4137:	89 cf                	mov    %ecx,%edi
    4139:	50                   	push   %eax
    413a:	56                   	push   %esi
    413b:	51                   	push   %ecx
    413c:	89 d3                	mov    %edx,%ebx
    413e:	89 4d d8             	mov    %ecx,-0x28(%ebp)
    4141:	ff 55 0c             	call   *0xc(%ebp)
    4144:	83 c4 0c             	add    $0xc,%esp
    4147:	8b 45 e4             	mov    -0x1c(%ebp),%eax
    414a:	89 5d e0             	mov    %ebx,-0x20(%ebp)
    414d:	57                   	push   %edi
    414e:	53                   	push   %ebx
    414f:	50                   	push   %eax
    4150:	e8 9b fd ff ff       	call   3ef0 <usb_dp_get_nested_descriptor>
    4155:	89 c3                	mov    %eax,%ebx
    4157:	8d 46 01             	lea    0x1(%esi),%eax
    415a:	89 45 d4             	mov    %eax,-0x2c(%ebp)
    415d:	89 f8                	mov    %edi,%eax
    415f:	40                   	inc    %eax
    4160:	83 c4 10             	add    $0x10,%esp
    4163:	89 45 d0             	mov    %eax,-0x30(%ebp)
    4166:	8b 7d e0             	mov    -0x20(%ebp),%edi
    4169:	8b 55 10             	mov    0x10(%ebp),%edx
    416c:	8b 4d 0c             	mov    0xc(%ebp),%ecx
    416f:	8b 75 d4             	mov    -0x2c(%ebp),%esi
    4172:	50                   	push   %eax
    4173:	8b 45 e4             	mov    -0x1c(%ebp),%eax
    4176:	52                   	push   %edx
    4177:	89 fa                	mov    %edi,%edx
    4179:	51                   	push   %ecx
    417a:	89 d9                	mov    %ebx,%ecx
    417c:	56                   	push   %esi
    417d:	e8 9e ff ff ff       	call   4120 <usb_dp_browse_simple_internal>
    4182:	8b 37                	mov    (%edi),%esi
    4184:	8b 45 d8             	mov    -0x28(%ebp),%eax
    4187:	83 c4 10             	add    $0x10,%esp
    418a:	39 f0                	cmp    %esi,%eax
    418c:	73 0a                	jae    4198 <usb_dp_browse_simple_internal+0x78>
    418e:	8d 65 f4             	lea    -0xc(%ebp),%esp
    4191:	5b                   	pop    %ebx
    4192:	5e                   	pop    %esi
    4193:	5f                   	pop    %edi
    4194:	5d                   	pop    %ebp
    4195:	c3                   	ret    
    4196:	66 90                	xchg   %ax,%ax
    4198:	8b 4f 04             	mov    0x4(%edi),%ecx
    419b:	29 f0                	sub    %esi,%eax
    419d:	89 4d dc             	mov    %ecx,-0x24(%ebp)
    41a0:	39 c8                	cmp    %ecx,%eax
    41a2:	73 ea                	jae    418e <usb_dp_browse_simple_internal+0x6e>
    41a4:	85 db                	test   %ebx,%ebx
    41a6:	74 e6                	je     418e <usb_dp_browse_simple_internal+0x6e>
    41a8:	39 f3                	cmp    %esi,%ebx
    41aa:	72 e2                	jb     418e <usb_dp_browse_simple_internal+0x6e>
    41ac:	89 d8                	mov    %ebx,%eax
    41ae:	29 f0                	sub    %esi,%eax
    41b0:	39 c1                	cmp    %eax,%ecx
    41b2:	76 da                	jbe    418e <usb_dp_browse_simple_internal+0x6e>
    41b4:	89 d9                	mov    %ebx,%ecx
    41b6:	89 fa                	mov    %edi,%edx
    41b8:	8b 45 e4             	mov    -0x1c(%ebp),%eax
    41bb:	e8 10 fe ff ff       	call   3fd0 <skip_nested_descriptors>
    41c0:	89 c3                	mov    %eax,%ebx
    41c2:	85 c0                	test   %eax,%eax
    41c4:	74 c8                	je     418e <usb_dp_browse_simple_internal+0x6e>
    41c6:	8b 45 d0             	mov    -0x30(%ebp),%eax
    41c9:	c7 45 e0 ff ff ff ff 	movl   $0xffffffff,-0x20(%ebp)
    41d0:	85 c0                	test   %eax,%eax
    41d2:	74 16                	je     41ea <usb_dp_browse_simple_internal+0xca>
    41d4:	39 c6                	cmp    %eax,%esi
    41d6:	77 12                	ja     41ea <usb_dp_browse_simple_internal+0xca>
    41d8:	29 f0                	sub    %esi,%eax
    41da:	39 45 dc             	cmp    %eax,-0x24(%ebp)
    41dd:	76 0b                	jbe    41ea <usb_dp_browse_simple_internal+0xca>
    41df:	8b 4d d8             	mov    -0x28(%ebp),%ecx
    41e2:	31 c0                	xor    %eax,%eax
    41e4:	8a 41 01             	mov    0x1(%ecx),%al
    41e7:	89 45 e0             	mov    %eax,-0x20(%ebp)
    41ea:	89 d8                	mov    %ebx,%eax
    41ec:	83 c9 ff             	or     $0xffffffff,%ecx
    41ef:	40                   	inc    %eax
    41f0:	74 10                	je     4202 <usb_dp_browse_simple_internal+0xe2>
    41f2:	39 c6                	cmp    %eax,%esi
    41f4:	77 0c                	ja     4202 <usb_dp_browse_simple_internal+0xe2>
    41f6:	29 f0                	sub    %esi,%eax
    41f8:	39 45 dc             	cmp    %eax,-0x24(%ebp)
    41fb:	76 05                	jbe    4202 <usb_dp_browse_simple_internal+0xe2>
    41fd:	31 c9                	xor    %ecx,%ecx
    41ff:	8a 4b 01             	mov    0x1(%ebx),%cl
    4202:	8b 45 e4             	mov    -0x1c(%ebp),%eax
    4205:	8b 00                	mov    (%eax),%eax
    4207:	8b 10                	mov    (%eax),%edx
    4209:	85 d2                	test   %edx,%edx
    420b:	7e 81                	jle    418e <usb_dp_browse_simple_internal+0x6e>
    420d:	8b 70 04             	mov    0x4(%eax),%esi
    4210:	85 f6                	test   %esi,%esi
    4212:	0f 8e 76 ff ff ff    	jle    418e <usb_dp_browse_simple_internal+0x6e>
    4218:	39 ca                	cmp    %ecx,%edx
    421a:	75 0c                	jne    4228 <usb_dp_browse_simple_internal+0x108>
    421c:	39 75 e0             	cmp    %esi,-0x20(%ebp)
    421f:	0f 84 44 ff ff ff    	je     4169 <usb_dp_browse_simple_internal+0x49>
    4225:	8d 76 00             	lea    0x0(%esi),%esi
    4228:	83 c0 08             	add    $0x8,%eax
    422b:	8b 10                	mov    (%eax),%edx
    422d:	85 d2                	test   %edx,%edx
    422f:	0f 8e 59 ff ff ff    	jle    418e <usb_dp_browse_simple_internal+0x6e>
    4235:	8b 70 04             	mov    0x4(%eax),%esi
    4238:	85 f6                	test   %esi,%esi
    423a:	0f 8e 4e ff ff ff    	jle    418e <usb_dp_browse_simple_internal+0x6e>
    4240:	39 ca                	cmp    %ecx,%edx
    4242:	75 e4                	jne    4228 <usb_dp_browse_simple_internal+0x108>
    4244:	3b 75 e0             	cmp    -0x20(%ebp),%esi
    4247:	75 df                	jne    4228 <usb_dp_browse_simple_internal+0x108>
    4249:	e9 1b ff ff ff       	jmp    4169 <usb_dp_browse_simple_internal+0x49>
    424e:	66 90                	xchg   %ax,%ax

00004250 <usb_dp_get_sibling_descriptor>:
    4250:	55                   	push   %ebp
    4251:	89 e5                	mov    %esp,%ebp
    4253:	57                   	push   %edi
    4254:	56                   	push   %esi
    4255:	53                   	push   %ebx
    4256:	83 ec 0c             	sub    $0xc,%esp
    4259:	8b 7d 10             	mov    0x10(%ebp),%edi
    425c:	8b 4d 14             	mov    0x14(%ebp),%ecx
    425f:	85 ff                	test   %edi,%edi
    4261:	74 2d                	je     4290 <usb_dp_get_sibling_descriptor+0x40>
    4263:	8b 45 0c             	mov    0xc(%ebp),%eax
    4266:	8b 18                	mov    (%eax),%ebx
    4268:	31 c0                	xor    %eax,%eax
    426a:	39 df                	cmp    %ebx,%edi
    426c:	72 16                	jb     4284 <usb_dp_get_sibling_descriptor+0x34>
    426e:	8b 55 0c             	mov    0xc(%ebp),%edx
    4271:	8b 72 04             	mov    0x4(%edx),%esi
    4274:	89 fa                	mov    %edi,%edx
    4276:	29 da                	sub    %ebx,%edx
    4278:	39 d6                	cmp    %edx,%esi
    427a:	76 14                	jbe    4290 <usb_dp_get_sibling_descriptor+0x40>
    427c:	85 c9                	test   %ecx,%ecx
    427e:	74 10                	je     4290 <usb_dp_get_sibling_descriptor+0x40>
    4280:	39 d9                	cmp    %ebx,%ecx
    4282:	73 1c                	jae    42a0 <usb_dp_get_sibling_descriptor+0x50>
    4284:	83 c4 0c             	add    $0xc,%esp
    4287:	5b                   	pop    %ebx
    4288:	5e                   	pop    %esi
    4289:	5f                   	pop    %edi
    428a:	5d                   	pop    %ebp
    428b:	c3                   	ret    
    428c:	8d 74 26 00          	lea    0x0(%esi,%eiz,1),%esi
    4290:	83 c4 0c             	add    $0xc,%esp
    4293:	31 c0                	xor    %eax,%eax
    4295:	5b                   	pop    %ebx
    4296:	5e                   	pop    %esi
    4297:	5f                   	pop    %edi
    4298:	5d                   	pop    %ebp
    4299:	c3                   	ret    
    429a:	8d b6 00 00 00 00    	lea    0x0(%esi),%esi
    42a0:	89 ca                	mov    %ecx,%edx
    42a2:	29 da                	sub    %ebx,%edx
    42a4:	39 d6                	cmp    %edx,%esi
    42a6:	76 dc                	jbe    4284 <usb_dp_get_sibling_descriptor+0x34>
    42a8:	8b 55 0c             	mov    0xc(%ebp),%edx
    42ab:	8b 45 08             	mov    0x8(%ebp),%eax
    42ae:	e8 1d fd ff ff       	call   3fd0 <skip_nested_descriptors>
    42b3:	85 c0                	test   %eax,%eax
    42b5:	74 cd                	je     4284 <usb_dp_get_sibling_descriptor+0x34>
    42b7:	89 fa                	mov    %edi,%edx
    42b9:	83 c9 ff             	or     $0xffffffff,%ecx
    42bc:	42                   	inc    %edx
    42bd:	74 11                	je     42d0 <usb_dp_get_sibling_descriptor+0x80>
    42bf:	39 d3                	cmp    %edx,%ebx
    42c1:	77 0d                	ja     42d0 <usb_dp_get_sibling_descriptor+0x80>
    42c3:	29 da                	sub    %ebx,%edx
    42c5:	39 d6                	cmp    %edx,%esi
    42c7:	77 6f                	ja     4338 <usb_dp_get_sibling_descriptor+0xe8>
    42c9:	8d b4 26 00 00 00 00 	lea    0x0(%esi,%eiz,1),%esi
    42d0:	89 c7                	mov    %eax,%edi
    42d2:	83 ca ff             	or     $0xffffffff,%edx
    42d5:	47                   	inc    %edi
    42d6:	74 10                	je     42e8 <usb_dp_get_sibling_descriptor+0x98>
    42d8:	39 fb                	cmp    %edi,%ebx
    42da:	77 0c                	ja     42e8 <usb_dp_get_sibling_descriptor+0x98>
    42dc:	29 df                	sub    %ebx,%edi
    42de:	39 fe                	cmp    %edi,%esi
