Archive member included to satisfy reference by file (symbol)

../../lib/gui/libgui.a(button.o)
                              vdemo.o (create_button)
../../lib/gui/libgui.a(connection.o)
                              vdemo.o (sig_connect)
../../lib/gui/libgui.a(grid.o)
                              vdemo.o (create_grid)
../../lib/gui/libgui.a(label.o)
                              vdemo.o (deinit_label)
../../lib/gui/libgui.a(widget.o)
                              ../../lib/gui/libgui.a(button.o) (widget_init)
../../lib/gui/libgui.a(window.o)
                              vdemo.o (window_open)
../../lib/gui/libgui.a(common.o)
                              ../../lib/gui/libgui.a(window.o) (draw_icon_cross)
../../lib/draw/libdraw.a(embedded.o)
                              ../../lib/gui/libgui.a(button.o) (embedded_font_create)
../../lib/draw/libdraw.a(bitmap_backend.o)
                              ../../lib/draw/libdraw.a(embedded.o) (bitmap_font_create)
../../lib/draw/libdraw.a(font-8x16.o)
                              ../../lib/draw/libdraw.a(embedded.o) (fb_font_glyph)
../../lib/draw/libdraw.a(drawctx.o)
                              ../../lib/gui/libgui.a(button.o) (drawctx_init)
../../lib/draw/libdraw.a(font.o)
                              ../../lib/draw/libdraw.a(bitmap_backend.o) (font_create)
../../lib/draw/libdraw.a(source.o)
                              ../../lib/gui/libgui.a(button.o) (source_init)
../../lib/draw/libdraw.a(surface.o)
                              ../../lib/gui/libgui.a(window.o) (surface_create)
../../lib/softrend/libsoftrend.a(compose.o)
                              ../../lib/draw/libdraw.a(drawctx.o) (compose_src)
../../lib/softrend/libsoftrend.a(filter.o)
                              ../../lib/draw/libdraw.a(source.o) (filter_nearest)
../../lib/softrend/libsoftrend.a(transform.o)
                              ../../lib/draw/libdraw.a(source.o) (transform_invert)

Discarded input sections

 .debug_line    0x0000000000000000       0x53 /home/ayyuce/Desktop/HlnOS/HelenOS/uspace/lib/c/arch/ia32/src/entry.o
 .debug_info    0x0000000000000000       0x6c /home/ayyuce/Desktop/HlnOS/HelenOS/uspace/lib/c/arch/ia32/src/entry.o
 .debug_abbrev  0x0000000000000000       0x14 /home/ayyuce/Desktop/HlnOS/HelenOS/uspace/lib/c/arch/ia32/src/entry.o
 .debug_aranges
                0x0000000000000000       0x20 /home/ayyuce/Desktop/HlnOS/HelenOS/uspace/lib/c/arch/ia32/src/entry.o
 .debug_info    0x0000000000000000     0x174a vdemo.o
 .debug_abbrev  0x0000000000000000      0x2a5 vdemo.o
 .debug_loc     0x0000000000000000      0x3b6 vdemo.o
 .debug_aranges
                0x0000000000000000       0x28 vdemo.o
 .debug_ranges  0x0000000000000000       0x78 vdemo.o
 .debug_line    0x0000000000000000      0x35a vdemo.o
 .debug_str     0x0000000000000000     0x1283 vdemo.o
 .comment       0x0000000000000000       0x12 vdemo.o
 .note.GNU-stack
                0x0000000000000000        0x0 vdemo.o
 .eh_frame      0x0000000000000000       0xc4 vdemo.o
 .debug_info    0x0000000000000000     0x1829 ../../lib/gui/libgui.a(button.o)
 .debug_abbrev  0x0000000000000000      0x2a9 ../../lib/gui/libgui.a(button.o)
 .debug_loc     0x0000000000000000      0x30c ../../lib/gui/libgui.a(button.o)
 .debug_aranges
                0x0000000000000000       0x20 ../../lib/gui/libgui.a(button.o)
 .debug_ranges  0x0000000000000000       0x58 ../../lib/gui/libgui.a(button.o)
 .debug_line    0x0000000000000000      0x3f1 ../../lib/gui/libgui.a(button.o)
 .debug_str     0x0000000000000000     0x10f4 ../../lib/gui/libgui.a(button.o)
 .comment       0x0000000000000000       0x12 ../../lib/gui/libgui.a(button.o)
 .note.GNU-stack
                0x0000000000000000        0x0 ../../lib/gui/libgui.a(button.o)
 .eh_frame      0x0000000000000000      0x1b0 ../../lib/gui/libgui.a(button.o)
 .debug_info    0x0000000000000000     0x14db ../../lib/gui/libgui.a(connection.o)
 .debug_abbrev  0x0000000000000000      0x290 ../../lib/gui/libgui.a(connection.o)
 .debug_loc     0x0000000000000000      0x654 ../../lib/gui/libgui.a(connection.o)
 .debug_aranges
                0x0000000000000000       0x20 ../../lib/gui/libgui.a(connection.o)
 .debug_ranges  0x0000000000000000       0xe8 ../../lib/gui/libgui.a(connection.o)
 .debug_line    0x0000000000000000      0x39f ../../lib/gui/libgui.a(connection.o)
 .debug_str     0x0000000000000000     0x113f ../../lib/gui/libgui.a(connection.o)
 .comment       0x0000000000000000       0x12 ../../lib/gui/libgui.a(connection.o)
 .note.GNU-stack
                0x0000000000000000        0x0 ../../lib/gui/libgui.a(connection.o)
 .eh_frame      0x0000000000000000       0xd8 ../../lib/gui/libgui.a(connection.o)
 .debug_info    0x0000000000000000     0x1afc ../../lib/gui/libgui.a(grid.o)
 .debug_abbrev  0x0000000000000000      0x3b8 ../../lib/gui/libgui.a(grid.o)
 .debug_loc     0x0000000000000000      0xf29 ../../lib/gui/libgui.a(grid.o)
 .debug_aranges
                0x0000000000000000       0x20 ../../lib/gui/libgui.a(grid.o)
 .debug_ranges  0x0000000000000000      0x3f0 ../../lib/gui/libgui.a(grid.o)
 .debug_line    0x0000000000000000      0x4fc ../../lib/gui/libgui.a(grid.o)
 .debug_str     0x0000000000000000      0xf31 ../../lib/gui/libgui.a(grid.o)
 .comment       0x0000000000000000       0x12 ../../lib/gui/libgui.a(grid.o)
 .note.GNU-stack
                0x0000000000000000        0x0 ../../lib/gui/libgui.a(grid.o)
 .eh_frame      0x0000000000000000      0x1f0 ../../lib/gui/libgui.a(grid.o)
 .debug_info    0x0000000000000000     0x17a1 ../../lib/gui/libgui.a(label.o)
 .debug_abbrev  0x0000000000000000      0x2b6 ../../lib/gui/libgui.a(label.o)
 .debug_loc     0x0000000000000000      0x2a4 ../../lib/gui/libgui.a(label.o)
 .debug_aranges
                0x0000000000000000       0x20 ../../lib/gui/libgui.a(label.o)
 .debug_ranges  0x0000000000000000       0x58 ../../lib/gui/libgui.a(label.o)
 .debug_line    0x0000000000000000      0x3b5 ../../lib/gui/libgui.a(label.o)
 .debug_str     0x0000000000000000     0x10d0 ../../lib/gui/libgui.a(label.o)
 .comment       0x0000000000000000       0x12 ../../lib/gui/libgui.a(label.o)
 .note.GNU-stack
                0x0000000000000000        0x0 ../../lib/gui/libgui.a(label.o)
 .eh_frame      0x0000000000000000      0x1c4 ../../lib/gui/libgui.a(label.o)
 .debug_info    0x0000000000000000      0xa8e ../../lib/gui/libgui.a(widget.o)
 .debug_abbrev  0x0000000000000000      0x1ad ../../lib/gui/libgui.a(widget.o)
 .debug_loc     0x0000000000000000       0xf2 ../../lib/gui/libgui.a(widget.o)
 .debug_aranges
                0x0000000000000000       0x20 ../../lib/gui/libgui.a(widget.o)
 .debug_ranges  0x0000000000000000       0x30 ../../lib/gui/libgui.a(widget.o)
 .debug_line    0x0000000000000000      0x1dd ../../lib/gui/libgui.a(widget.o)
 .debug_str     0x0000000000000000      0xba1 ../../lib/gui/libgui.a(widget.o)
 .comment       0x0000000000000000       0x12 ../../lib/gui/libgui.a(widget.o)
 .note.GNU-stack
                0x0000000000000000        0x0 ../../lib/gui/libgui.a(widget.o)
 .eh_frame      0x0000000000000000       0x9c ../../lib/gui/libgui.a(widget.o)
 .debug_info    0x0000000000000000     0x2cea ../../lib/gui/libgui.a(window.o)
 .debug_abbrev  0x0000000000000000      0x4e4 ../../lib/gui/libgui.a(window.o)
 .debug_loc     0x0000000000000000     0x16d8 ../../lib/gui/libgui.a(window.o)
 .debug_aranges
                0x0000000000000000       0x20 ../../lib/gui/libgui.a(window.o)
 .debug_ranges  0x0000000000000000      0x2d8 ../../lib/gui/libgui.a(window.o)
 .debug_line    0x0000000000000000      0x832 ../../lib/gui/libgui.a(window.o)
 .debug_str     0x0000000000000000     0x1ca3 ../../lib/gui/libgui.a(window.o)
 .comment       0x0000000000000000       0x12 ../../lib/gui/libgui.a(window.o)
 .note.GNU-stack
                0x0000000000000000        0x0 ../../lib/gui/libgui.a(window.o)
 .eh_frame      0x0000000000000000      0x3cc ../../lib/gui/libgui.a(window.o)
 .debug_info    0x0000000000000000      0x764 ../../lib/gui/libgui.a(common.o)
 .debug_abbrev  0x0000000000000000      0x156 ../../lib/gui/libgui.a(common.o)
 .debug_loc     0x0000000000000000      0x6a8 ../../lib/gui/libgui.a(common.o)
 .debug_aranges
                0x0000000000000000       0x20 ../../lib/gui/libgui.a(common.o)
 .debug_ranges  0x0000000000000000       0x58 ../../lib/gui/libgui.a(common.o)
 .debug_line    0x0000000000000000      0x19c ../../lib/gui/libgui.a(common.o)
 .debug_str     0x0000000000000000      0x4d0 ../../lib/gui/libgui.a(common.o)
 .comment       0x0000000000000000       0x12 ../../lib/gui/libgui.a(common.o)
 .note.GNU-stack
                0x0000000000000000        0x0 ../../lib/gui/libgui.a(common.o)
 .eh_frame      0x0000000000000000       0x74 ../../lib/gui/libgui.a(common.o)
 .debug_info    0x0000000000000000      0x7d9 ../../lib/draw/libdraw.a(embedded.o)
 .debug_abbrev  0x0000000000000000      0x1c2 ../../lib/draw/libdraw.a(embedded.o)
 .debug_loc     0x0000000000000000       0xdd ../../lib/draw/libdraw.a(embedded.o)
 .debug_aranges
                0x0000000000000000       0x20 ../../lib/draw/libdraw.a(embedded.o)
 .debug_ranges  0x0000000000000000       0x18 ../../lib/draw/libdraw.a(embedded.o)
 .debug_line    0x0000000000000000      0x1a8 ../../lib/draw/libdraw.a(embedded.o)
 .debug_str     0x0000000000000000      0x571 ../../lib/draw/libdraw.a(embedded.o)
 .comment       0x0000000000000000       0x12 ../../lib/draw/libdraw.a(embedded.o)
 .note.GNU-stack
                0x0000000000000000        0x0 ../../lib/draw/libdraw.a(embedded.o)
 .eh_frame      0x0000000000000000       0xd0 ../../lib/draw/libdraw.a(embedded.o)
 .debug_info    0x0000000000000000      0xcc6 ../../lib/draw/libdraw.a(bitmap_backend.o)
 .debug_abbrev  0x0000000000000000      0x283 ../../lib/draw/libdraw.a(bitmap_backend.o)
 .debug_loc     0x0000000000000000      0x4e4 ../../lib/draw/libdraw.a(bitmap_backend.o)
 .debug_aranges
                0x0000000000000000       0x20 ../../lib/draw/libdraw.a(bitmap_backend.o)
 .debug_ranges  0x0000000000000000       0x50 ../../lib/draw/libdraw.a(bitmap_backend.o)
 .debug_line    0x0000000000000000      0x2bd ../../lib/draw/libdraw.a(bitmap_backend.o)
 .debug_str     0x0000000000000000      0x740 ../../lib/draw/libdraw.a(bitmap_backend.o)
 .comment       0x0000000000000000       0x12 ../../lib/draw/libdraw.a(bitmap_backend.o)
 .note.GNU-stack
                0x0000000000000000        0x0 ../../lib/draw/libdraw.a(bitmap_backend.o)
 .eh_frame      0x0000000000000000      0x120 ../../lib/draw/libdraw.a(bitmap_backend.o)
 .debug_info    0x0000000000000000       0xfb ../../lib/draw/libdraw.a(font-8x16.o)
 .debug_abbrev  0x0000000000000000       0xba ../../lib/draw/libdraw.a(font-8x16.o)
 .debug_loc     0x0000000000000000       0x3e ../../lib/draw/libdraw.a(font-8x16.o)
 .debug_aranges
                0x0000000000000000       0x20 ../../lib/draw/libdraw.a(font-8x16.o)
 .debug_line    0x0000000000000000      0x34e ../../lib/draw/libdraw.a(font-8x16.o)
 .debug_str     0x0000000000000000      0x1b8 ../../lib/draw/libdraw.a(font-8x16.o)
 .comment       0x0000000000000000       0x12 ../../lib/draw/libdraw.a(font-8x16.o)
 .note.GNU-stack
                0x0000000000000000        0x0 ../../lib/draw/libdraw.a(font-8x16.o)
 .eh_frame      0x0000000000000000      0x298 ../../lib/draw/libdraw.a(font-8x16.o)
 .debug_info    0x0000000000000000      0xcd2 ../../lib/draw/libdraw.a(drawctx.o)
 .debug_abbrev  0x0000000000000000      0x271 ../../lib/draw/libdraw.a(drawctx.o)
 .debug_loc     0x0000000000000000      0x3f1 ../../lib/draw/libdraw.a(drawctx.o)
 .debug_aranges
                0x0000000000000000       0x20 ../../lib/draw/libdraw.a(drawctx.o)
 .debug_ranges  0x0000000000000000      0x120 ../../lib/draw/libdraw.a(drawctx.o)
 .debug_line    0x0000000000000000      0x2f6 ../../lib/draw/libdraw.a(drawctx.o)
 .debug_str     0x0000000000000000      0x715 ../../lib/draw/libdraw.a(drawctx.o)
 .comment       0x0000000000000000       0x12 ../../lib/draw/libdraw.a(drawctx.o)
 .note.GNU-stack
                0x0000000000000000        0x0 ../../lib/draw/libdraw.a(drawctx.o)
 .eh_frame      0x0000000000000000      0x1d8 ../../lib/draw/libdraw.a(drawctx.o)
 .debug_info    0x0000000000000000      0xbf0 ../../lib/draw/libdraw.a(font.o)
 .debug_abbrev  0x0000000000000000      0x281 ../../lib/draw/libdraw.a(font.o)
 .debug_loc     0x0000000000000000      0x46a ../../lib/draw/libdraw.a(font.o)
 .debug_aranges
                0x0000000000000000       0x20 ../../lib/draw/libdraw.a(font.o)
 .debug_ranges  0x0000000000000000       0xd0 ../../lib/draw/libdraw.a(font.o)
 .debug_line    0x0000000000000000      0x243 ../../lib/draw/libdraw.a(font.o)
 .debug_str     0x0000000000000000      0x56d ../../lib/draw/libdraw.a(font.o)
 .comment       0x0000000000000000       0x12 ../../lib/draw/libdraw.a(font.o)
 .note.GNU-stack
                0x0000000000000000        0x0 ../../lib/draw/libdraw.a(font.o)
 .eh_frame      0x0000000000000000      0x154 ../../lib/draw/libdraw.a(font.o)
 .debug_info    0x0000000000000000      0x62b ../../lib/draw/libdraw.a(source.o)
 .debug_abbrev  0x0000000000000000      0x217 ../../lib/draw/libdraw.a(source.o)
 .debug_loc     0x0000000000000000      0x22f ../../lib/draw/libdraw.a(source.o)
 .debug_aranges
                0x0000000000000000       0x20 ../../lib/draw/libdraw.a(source.o)
 .debug_ranges  0x0000000000000000       0x58 ../../lib/draw/libdraw.a(source.o)
 .debug_line    0x0000000000000000      0x1b7 ../../lib/draw/libdraw.a(source.o)
 .debug_str     0x0000000000000000      0x457 ../../lib/draw/libdraw.a(source.o)
 .comment       0x0000000000000000       0x12 ../../lib/draw/libdraw.a(source.o)
 .note.GNU-stack
                0x0000000000000000        0x0 ../../lib/draw/libdraw.a(source.o)
 .eh_frame      0x0000000000000000      0x1c8 ../../lib/draw/libdraw.a(source.o)
 .debug_info    0x0000000000000000      0x712 ../../lib/draw/libdraw.a(surface.o)
 .debug_abbrev  0x0000000000000000      0x21c ../../lib/draw/libdraw.a(surface.o)
 .debug_loc     0x0000000000000000      0x32f ../../lib/draw/libdraw.a(surface.o)
 .debug_aranges
                0x0000000000000000       0x20 ../../lib/draw/libdraw.a(surface.o)
 .debug_ranges  0x0000000000000000       0x30 ../../lib/draw/libdraw.a(surface.o)
 .debug_line    0x0000000000000000      0x1eb ../../lib/draw/libdraw.a(surface.o)
 .debug_str     0x0000000000000000      0x3ee ../../lib/draw/libdraw.a(surface.o)
 .comment       0x0000000000000000       0x12 ../../lib/draw/libdraw.a(surface.o)
 .note.GNU-stack
                0x0000000000000000        0x0 ../../lib/draw/libdraw.a(surface.o)
 .eh_frame      0x0000000000000000      0x1bc ../../lib/draw/libdraw.a(surface.o)
 .debug_info    0x0000000000000000      0x277 ../../lib/softrend/libsoftrend.a(compose.o)
 .debug_abbrev  0x0000000000000000       0xce ../../lib/softrend/libsoftrend.a(compose.o)
 .debug_loc     0x0000000000000000      0x3d6 ../../lib/softrend/libsoftrend.a(compose.o)
 .debug_aranges
                0x0000000000000000       0x20 ../../lib/softrend/libsoftrend.a(compose.o)
 .debug_line    0x0000000000000000       0xc0 ../../lib/softrend/libsoftrend.a(compose.o)
 .debug_str     0x0000000000000000      0x218 ../../lib/softrend/libsoftrend.a(compose.o)
 .comment       0x0000000000000000       0x12 ../../lib/softrend/libsoftrend.a(compose.o)
 .note.GNU-stack
                0x0000000000000000        0x0 ../../lib/softrend/libsoftrend.a(compose.o)
 .eh_frame      0x0000000000000000      0x144 ../../lib/softrend/libsoftrend.a(compose.o)
 .debug_info    0x0000000000000000      0xabb ../../lib/softrend/libsoftrend.a(filter.o)
 .debug_abbrev  0x0000000000000000      0x1b4 ../../lib/softrend/libsoftrend.a(filter.o)
 .debug_loc     0x0000000000000000     0x164e ../../lib/softrend/libsoftrend.a(filter.o)
 .debug_aranges
                0x0000000000000000       0x20 ../../lib/softrend/libsoftrend.a(filter.o)
 .debug_ranges  0x0000000000000000      0x460 ../../lib/softrend/libsoftrend.a(filter.o)
 .debug_line    0x0000000000000000      0x396 ../../lib/softrend/libsoftrend.a(filter.o)
 .debug_str     0x0000000000000000      0x386 ../../lib/softrend/libsoftrend.a(filter.o)
 .comment       0x0000000000000000       0x12 ../../lib/softrend/libsoftrend.a(filter.o)
 .note.GNU-stack
                0x0000000000000000        0x0 ../../lib/softrend/libsoftrend.a(filter.o)
 .eh_frame      0x0000000000000000       0xb8 ../../lib/softrend/libsoftrend.a(filter.o)
 .debug_info    0x0000000000000000      0x6b7 ../../lib/softrend/libsoftrend.a(transform.o)
 .debug_abbrev  0x0000000000000000      0x1ea ../../lib/softrend/libsoftrend.a(transform.o)
 .debug_loc     0x0000000000000000      0xb81 ../../lib/softrend/libsoftrend.a(transform.o)
 .debug_aranges
                0x0000000000000000       0x20 ../../lib/softrend/libsoftrend.a(transform.o)
 .debug_ranges  0x0000000000000000      0x1c8 ../../lib/softrend/libsoftrend.a(transform.o)
 .debug_line    0x0000000000000000      0x207 ../../lib/softrend/libsoftrend.a(transform.o)
 .debug_str     0x0000000000000000      0x296 ../../lib/softrend/libsoftrend.a(transform.o)
 .comment       0x0000000000000000       0x12 ../../lib/softrend/libsoftrend.a(transform.o)
 .note.GNU-stack
                0x0000000000000000        0x0 ../../lib/softrend/libsoftrend.a(transform.o)
 .eh_frame      0x0000000000000000      0x144 ../../lib/softrend/libsoftrend.a(transform.o)

Memory Configuration

Name             Origin             Length             Attributes
*default*        0x0000000000000000 0xffffffffffffffff

Linker script and memory map

LOAD /home/ayyuce/Desktop/HlnOS/HelenOS/uspace/lib/c/arch/ia32/src/entry.o
                0x00000000000010f4                . = (0x1000 + SIZEOF_HEADERS)

.init           0x00000000000010f4       0x2e
 *(.init)
 .init          0x00000000000010f4       0x2e /home/ayyuce/Desktop/HlnOS/HelenOS/uspace/lib/c/arch/ia32/src/entry.o
                0x00000000000010f4                __entry

.text           0x0000000000001130     0x6e68
 *(.text .text.*)
 .text          0x0000000000001130        0x0 /home/ayyuce/Desktop/HlnOS/HelenOS/uspace/lib/c/arch/ia32/src/entry.o
 .text          0x0000000000001130       0x5f vdemo.o
 *fill*         0x000000000000118f        0x1 
 .text.startup  0x0000000000001190      0x2ac vdemo.o
                0x0000000000001190                main
 *fill*         0x000000000000143c        0x4 
 .text          0x0000000000001440      0x74f ../../lib/gui/libgui.a(button.o)
                0x0000000000001890                deinit_button
                0x00000000000018d0                init_button
                0x0000000000001a20                create_button
 *fill*         0x0000000000001b8f        0x1 
 .text          0x0000000000001b90      0x407 ../../lib/gui/libgui.a(connection.o)
                0x0000000000001b90                sig_connect
                0x0000000000001cb0                sig_disconnect
                0x0000000000001da0                sig_send
                0x0000000000001e20                sig_post
 *fill*         0x0000000000001f97        0x9 
 .text          0x0000000000001fa0      0xb78 ../../lib/gui/libgui.a(grid.o)
                0x0000000000002960                deinit_grid
                0x0000000000002990                init_grid
                0x0000000000002a50                create_grid
 *fill*         0x0000000000002b18        0x8 
 .text          0x0000000000002b20      0x607 ../../lib/gui/libgui.a(label.o)
                0x0000000000002e50                deinit_label
                0x0000000000002e90                init_label
                0x0000000000002fd0                create_label
 *fill*         0x0000000000003127        0x9 
 .text          0x0000000000003130      0x100 ../../lib/gui/libgui.a(widget.o)
                0x0000000000003130                widget_init
                0x00000000000031d0                widget_modify
                0x00000000000031f0                widget_get_data
                0x0000000000003200                widget_deinit
 .text          0x0000000000003230     0x1482 ../../lib/gui/libgui.a(window.o)
                0x0000000000004330                window_open
                0x00000000000044e0                window_resize
                0x0000000000004560                window_refresh
                0x00000000000045a0                window_damage
                0x00000000000045e0                window_root
                0x00000000000045f0                window_exec
                0x0000000000004650                window_claim
                0x0000000000004680                window_yield
                0x00000000000046a0                window_close
 *fill*         0x00000000000046b2        0xe 
 .text          0x00000000000046c0      0x457 ../../lib/gui/libgui.a(common.o)
                0x00000000000046c0                draw_icon_cross
                0x0000000000004a60                draw_bevel
 *fill*         0x0000000000004b17        0x9 
 .text          0x0000000000004b20      0x147 ../../lib/draw/libdraw.a(embedded.o)
                0x0000000000004c30                embedded_font_create
 *fill*         0x0000000000004c67        0x9 
 .text          0x0000000000004c70      0x7f7 ../../lib/draw/libdraw.a(bitmap_backend.o)
                0x00000000000052f0                bitmap_font_create
 *fill*         0x0000000000005467        0x9 
 .text          0x0000000000005470      0x8d4 ../../lib/draw/libdraw.a(font-8x16.o)
                0x0000000000005470                fb_font_glyph
 *fill*         0x0000000000005d44        0xc 
 .text          0x0000000000005d50      0x490 ../../lib/draw/libdraw.a(drawctx.o)
                0x0000000000005d50                drawctx_init
                0x0000000000005dc0                drawctx_save
                0x0000000000005e20                drawctx_restore
                0x0000000000005ea0                drawctx_set_compose
                0x0000000000005eb0                drawctx_set_clip
                0x0000000000005f10                drawctx_set_mask
                0x0000000000005f20                drawctx_set_source
                0x0000000000005f30                drawctx_set_font
                0x0000000000005f40                drawctx_transfer
                0x0000000000006170                drawctx_stroke
                0x00000000000061a0                drawctx_fill
                0x00000000000061b0                drawctx_print
 .text          0x00000000000061e0      0x2ff ../../lib/draw/libdraw.a(font.o)
                0x00000000000061e0                font_create
                0x0000000000006210                font_release
                0x0000000000006230                font_get_metrics
                0x0000000000006250                font_resolve_glyph
                0x0000000000006270                font_get_glyph_metrics
                0x0000000000006290                font_render_glyph
                0x00000000000062b0                font_get_box
                0x00000000000063a0                font_draw_text
 *fill*         0x00000000000064df        0x1 
 .text          0x00000000000064e0      0x360 ../../lib/draw/libdraw.a(source.o)
                0x00000000000064e0                source_init
                0x0000000000006530                source_set_transform
                0x0000000000006550                source_reset_transform
                0x0000000000006560                source_set_filter
                0x0000000000006570                source_set_color
                0x0000000000006580                source_set_texture
                0x00000000000065a0                source_set_alpha
                0x00000000000065b0                source_set_mask
                0x00000000000065d0                source_is_fast
                0x0000000000006610                source_direct_access
                0x00000000000066f0                source_determine_pixel
 .text          0x0000000000006840      0x363 ../../lib/draw/libdraw.a(surface.o)
                0x0000000000006840                surface_create
                0x0000000000006910                surface_destroy
                0x0000000000006950                surface_is_shared
                0x0000000000006960                surface_direct_access
                0x0000000000006970                surface_pixmap_access
                0x0000000000006980                surface_get_resolution
                0x00000000000069d0                surface_get_damaged_region
                0x0000000000006a90                surface_add_damaged_region
                0x0000000000006ae0                surface_reset_damaged_region
                0x0000000000006b10                surface_put_pixel
                0x0000000000006b70                surface_get_pixel
 *fill*         0x0000000000006ba3        0xd 
 .text          0x0000000000006bb0      0x147 ../../lib/softrend/libsoftrend.a(compose.o)
                0x0000000000006bb0                compose_clr
                0x0000000000006bc0                compose_src
                0x0000000000006bd0                compose_dst
                0x0000000000006be0                compose_over
                0x0000000000006cb0                compose_in
                0x0000000000006cc0                compose_out
                0x0000000000006cd0                compose_atop
                0x0000000000006ce0                compose_xor
                0x0000000000006cf0                compose_add
 *fill*         0x0000000000006cf7        0x9 
 .text          0x0000000000006d00      0xb17 ../../lib/softrend/libsoftrend.a(filter.o)
                0x0000000000006d00                filter_nearest
                0x0000000000006e90                filter_bilinear
                0x0000000000007810                filter_bicubic
 *fill*         0x0000000000007817        0x9 
 .text          0x0000000000007820      0x623 ../../lib/softrend/libsoftrend.a(transform.o)
                0x0000000000007820                transform_product
                0x0000000000007930                transform_invert
                0x0000000000007a10                transform_identity
                0x0000000000007a40                transform_translate
                0x0000000000007b00                transform_scale
                0x0000000000007bd0                transform_rotate
                0x0000000000007d10                transform_is_fast
                0x0000000000007de0                transform_apply_linear
                0x0000000000007e10                transform_apply_affine
 *(.rodata .rodata.*)
 .rodata.str1.1
                0x0000000000007e43       0x68 vdemo.o
 *fill*         0x0000000000007eab        0x1 
 .rodata.str1.4
                0x0000000000007eac       0x24 vdemo.o
                                         0x22 (size before relaxing)
 .rodata.str1.1
                0x0000000000007ed0        0xf ../../lib/gui/libgui.a(grid.o)
 *fill*         0x0000000000007edf        0x1 
 .rodata        0x0000000000007ee0       0x24 ../../lib/gui/libgui.a(window.o)
 .rodata        0x0000000000007f04       0x38 ../../lib/gui/libgui.a(common.o)
 .rodata.cst4   0x0000000000007f3c        0x4 ../../lib/draw/libdraw.a(bitmap_backend.o)
 .rodata.str1.1
                0x0000000000007f40       0x12 ../../lib/draw/libdraw.a(drawctx.o)
 .rodata.str1.1
                0x0000000000007f52       0x20 ../../lib/draw/libdraw.a(source.o)
 *fill*         0x0000000000007f72        0x2 
 .rodata.cst4   0x0000000000007f74        0x4 ../../lib/draw/libdraw.a(source.o)
 .rodata.str1.1
                0x0000000000007f78       0x1b ../../lib/draw/libdraw.a(surface.o)
 .rodata.cst4   0x0000000000007f93        0x4 ../../lib/softrend/libsoftrend.a(filter.o)
 *fill*         0x0000000000007f93        0x1 
 .rodata.cst4   0x0000000000007f94        0x4 ../../lib/softrend/libsoftrend.a(transform.o)

.rel.plt        0x0000000000007f98      0x148
 *(.rel.plt)
 .rel.plt       0x0000000000007f98      0x148 /home/ayyuce/Desktop/HlnOS/HelenOS/uspace/lib/c/arch/ia32/src/entry.o

.rel.dyn        0x00000000000080e0       0x10
 *(.rel.*)
 .rel.got       0x00000000000080e0        0x0 /home/ayyuce/Desktop/HlnOS/HelenOS/uspace/lib/c/arch/ia32/src/entry.o
 .rel.bss       0x00000000000080e0       0x10 /home/ayyuce/Desktop/HlnOS/HelenOS/uspace/lib/c/arch/ia32/src/entry.o
 .rel.init      0x00000000000080f0        0x0 /home/ayyuce/Desktop/HlnOS/HelenOS/uspace/lib/c/arch/ia32/src/entry.o
 .rel.text      0x00000000000080f0        0x0 /home/ayyuce/Desktop/HlnOS/HelenOS/uspace/lib/c/arch/ia32/src/entry.o
 .rel.text.startup
                0x00000000000080f0        0x0 /home/ayyuce/Desktop/HlnOS/HelenOS/uspace/lib/c/arch/ia32/src/entry.o

.plt            0x00000000000080f0      0x2a0
 *(.plt)
 .plt           0x00000000000080f0      0x2a0 /home/ayyuce/Desktop/HlnOS/HelenOS/uspace/lib/c/arch/ia32/src/entry.o
                0x0000000000008100                __main
                0x0000000000008110                cos_f64
                0x0000000000008120                win_grab
                0x0000000000008130                task_retval
                0x0000000000008140                loc_service_connect
                0x0000000000008150                printf
                0x0000000000008160                async_hangup
                0x0000000000008170                fibril_rwlock_read_unlock
                0x0000000000008180                str_decode
                0x0000000000008190                memcpy
                0x00000000000081a0                malloc
                0x00000000000081b0                trunc_f64
                0x00000000000081c0                loc_service_get_id
                0x00000000000081d0                as_area_destroy
                0x00000000000081e0                win_resize
                0x00000000000081f0                assert_abort
                0x0000000000008200                calloc
                0x0000000000008210                fibril_mutex_unlock
                0x0000000000008220                str_dup
                0x0000000000008230                fibril_mutex_initialize
                0x0000000000008240                win_get_event
                0x0000000000008250                prodcons_initialize
                0x0000000000008260                win_register
                0x0000000000008270                fibril_rwlock_write_unlock
                0x0000000000008280                prodcons_consume
                0x0000000000008290                memset
                0x00000000000082a0                sin_f64
                0x00000000000082b0                win_damage
                0x00000000000082c0                fibril_rwlock_write_lock
                0x00000000000082d0                win_close
                0x00000000000082e0                prodcons_produce
                0x00000000000082f0                exit
                0x0000000000008300                fibril_create_generic
                0x0000000000008310                fibril_add_ready
                0x0000000000008320                fibril_switch
                0x0000000000008330                as_area_create
                0x0000000000008340                __syscall_fast
                0x0000000000008350                fibril_rwlock_read_lock
                0x0000000000008360                win_close_request
                0x0000000000008370                free
                0x0000000000008380                fibril_mutex_lock

.dynsym         0x0000000000008390      0x2e0
 *(.dynsym)
 .dynsym        0x0000000000008390      0x2e0 /home/ayyuce/Desktop/HlnOS/HelenOS/uspace/lib/c/arch/ia32/src/entry.o

.dynstr         0x0000000000008670      0x291
 *(.dynstr)
 .dynstr        0x0000000000008670      0x291 /home/ayyuce/Desktop/HlnOS/HelenOS/uspace/lib/c/arch/ia32/src/entry.o

.hash           0x0000000000008904      0x154
 *(.hash)
 .hash          0x0000000000008904      0x154 /home/ayyuce/Desktop/HlnOS/HelenOS/uspace/lib/c/arch/ia32/src/entry.o

.interp         0x0000000000008a58       0x13
 *(.interp)
 .interp        0x0000000000008a58       0x13 /home/ayyuce/Desktop/HlnOS/HelenOS/uspace/lib/c/arch/ia32/src/entry.o
                0x0000000000009a6b                . = (. + 0x1000)

.dynamic        0x0000000000009a6c       0xb0
 *(.dynamic)
 .dynamic       0x0000000000009a6c       0xb0 /home/ayyuce/Desktop/HlnOS/HelenOS/uspace/lib/c/arch/ia32/src/entry.o
                0x0000000000009a6c                _DYNAMIC

.data           0x0000000000009b20     0xb590
 *(.data)
 .data          0x0000000000009b20        0x0 /home/ayyuce/Desktop/HlnOS/HelenOS/uspace/lib/c/arch/ia32/src/entry.o
 .data          0x0000000000009b20        0x0 vdemo.o
 .data          0x0000000000009b20        0x0 ../../lib/gui/libgui.a(button.o)
 .data          0x0000000000009b20       0x1c ../../lib/gui/libgui.a(connection.o)
 .data          0x0000000000009b3c        0x0 ../../lib/gui/libgui.a(grid.o)
 .data          0x0000000000009b3c        0x0 ../../lib/gui/libgui.a(label.o)
 .data          0x0000000000009b3c        0x0 ../../lib/gui/libgui.a(widget.o)
 .data          0x0000000000009b3c        0x0 ../../lib/gui/libgui.a(window.o)
 .data          0x0000000000009b3c        0x0 ../../lib/gui/libgui.a(common.o)
 .data          0x0000000000009b3c       0x1c ../../lib/draw/libdraw.a(embedded.o)
                0x0000000000009b3c                font_metrics
                0x0000000000009b48                fd_embedded
 .data          0x0000000000009b58       0x14 ../../lib/draw/libdraw.a(bitmap_backend.o)
                0x0000000000009b58                bitmap_backend
 *fill*         0x0000000000009b6c       0x14 
 .data          0x0000000000009b80     0xb530 ../../lib/draw/libdraw.a(font-8x16.o)
                0x0000000000009b80                fb_font
 .data          0x00000000000150b0        0x0 ../../lib/draw/libdraw.a(drawctx.o)
 .data          0x00000000000150b0        0x0 ../../lib/draw/libdraw.a(font.o)
 .data          0x00000000000150b0        0x0 ../../lib/draw/libdraw.a(source.o)
 .data          0x00000000000150b0        0x0 ../../lib/draw/libdraw.a(surface.o)
 .data          0x00000000000150b0        0x0 ../../lib/softrend/libsoftrend.a(compose.o)
 .data          0x00000000000150b0        0x0 ../../lib/softrend/libsoftrend.a(filter.o)
 .data          0x00000000000150b0        0x0 ../../lib/softrend/libsoftrend.a(transform.o)

.data.rel
 *(.data.rel .data.rel.*)

.got            0x00000000000150b0        0x0
 *(.got)
 .got           0x00000000000150b0        0x0 /home/ayyuce/Desktop/HlnOS/HelenOS/uspace/lib/c/arch/ia32/src/entry.o

.got.plt        0x00000000000150b0       0xb0
 *(.got.plt)
 .got.plt       0x00000000000150b0       0xb0 /home/ayyuce/Desktop/HlnOS/HelenOS/uspace/lib/c/arch/ia32/src/entry.o
                0x00000000000150b0                _GLOBAL_OFFSET_TABLE_

.tdata
 *(.tdata)
 *(.gnu.linkonce.tb.*)

.tbss
 *(.tbss)

.bss            0x0000000000015160        0x8
 *(.dynbss)
 .dynbss        0x0000000000015160        0x8 /home/ayyuce/Desktop/HlnOS/HelenOS/uspace/lib/c/arch/ia32/src/entry.o
                0x0000000000015160                __syscall_fast_func
                0x0000000000015164                async_futex
 *(COMMON)
 *(.bss)
 .bss           0x0000000000015168        0x0 /home/ayyuce/Desktop/HlnOS/HelenOS/uspace/lib/c/arch/ia32/src/entry.o
 .bss           0x0000000000015168        0x0 vdemo.o
 .bss           0x0000000000015168        0x0 ../../lib/gui/libgui.a(button.o)
 .bss           0x0000000000015168        0x0 ../../lib/gui/libgui.a(connection.o)
 .bss           0x0000000000015168        0x0 ../../lib/gui/libgui.a(grid.o)
 .bss           0x0000000000015168        0x0 ../../lib/gui/libgui.a(label.o)
 .bss           0x0000000000015168        0x0 ../../lib/gui/libgui.a(widget.o)
 .bss           0x0000000000015168        0x0 ../../lib/gui/libgui.a(window.o)
 .bss           0x0000000000015168        0x0 ../../lib/gui/libgui.a(common.o)
 .bss           0x0000000000015168        0x0 ../../lib/draw/libdraw.a(embedded.o)
 .bss           0x0000000000015168        0x0 ../../lib/draw/libdraw.a(bitmap_backend.o)
 .bss           0x0000000000015168        0x0 ../../lib/draw/libdraw.a(font-8x16.o)
 .bss           0x0000000000015168        0x0 ../../lib/draw/libdraw.a(drawctx.o)
 .bss           0x0000000000015168        0x0 ../../lib/draw/libdraw.a(font.o)
 .bss           0x0000000000015168        0x0 ../../lib/draw/libdraw.a(source.o)
 .bss           0x0000000000015168        0x0 ../../lib/draw/libdraw.a(surface.o)
 .bss           0x0000000000015168        0x0 ../../lib/softrend/libsoftrend.a(compose.o)
 .bss           0x0000000000015168        0x0 ../../lib/softrend/libsoftrend.a(filter.o)
 .bss           0x0000000000015168        0x0 ../../lib/softrend/libsoftrend.a(transform.o)

/DISCARD/
 *(*)
LOAD vdemo.o
LOAD ../../lib/gui/libgui.a
LOAD ../../lib/draw/libdraw.a
LOAD ../../lib/softrend/libsoftrend.a
LOAD ../../lib/softfloat/libsoftfloat.a
LOAD ../../lib/c/libc.so.0
LOAD ../../lib/softint/libsoftint.so.0
LOAD ../../lib/math/libmath.so.0
OUTPUT(vdemo elf32-i386)
