
vterm:     file format elf32-i386


Disassembly of section .init:

000010f4 <__entry>:
    10f4:	66 8c d0             	mov    %ss,%ax
    10f7:	8e d8                	mov    %eax,%ds
    10f9:	8e c0                	mov    %eax,%es
    10fb:	8e e0                	mov    %eax,%fs
    10fd:	b8 01 00 00 00       	mov    $0x1,%eax
    1102:	0f a2                	cpuid  
    1104:	0f ba e2 0b          	bt     $0xb,%edx
    1108:	73 0c                	jae    1116 <__entry+0x22>
    110a:	8d 05 b8 50 01 00    	lea    0x150b8,%eax
    1110:	c7 00 40 7e 00 00    	movl   $0x7e40,(%eax)
    1116:	6a 00                	push   $0x0
    1118:	6a 00                	push   $0x0
    111a:	89 e5                	mov    %esp,%ebp
    111c:	57                   	push   %edi
    111d:	e8 ae 69 00 00       	call   7ad0 <__main@plt>

Disassembly of section .text:

00001140 <main>:
    1140:	8d 4c 24 04          	lea    0x4(%esp),%ecx
    1144:	83 e4 f0             	and    $0xfffffff0,%esp
    1147:	ff 71 fc             	pushl  -0x4(%ecx)
    114a:	55                   	push   %ebp
    114b:	89 e5                	mov    %esp,%ebp
    114d:	53                   	push   %ebx
    114e:	51                   	push   %ecx
    114f:	8b 41 04             	mov    0x4(%ecx),%eax
    1152:	83 39 01             	cmpl   $0x1,(%ecx)
    1155:	0f 8e d3 00 00 00    	jle    122e <main+0xee>
    115b:	68 13 77 00 00       	push   $0x7713
    1160:	6a 03                	push   $0x3
    1162:	6a 00                	push   $0x0
    1164:	8b 40 04             	mov    0x4(%eax),%eax
    1167:	50                   	push   %eax
    1168:	e8 93 2a 00 00       	call   3c00 <window_open>
    116d:	83 c4 10             	add    $0x10,%esp
    1170:	89 c3                	mov    %eax,%ebx
    1172:	85 c0                	test   %eax,%eax
    1174:	74 79                	je     11ef <main+0xaf>
    1176:	50                   	push   %eax
    1177:	50                   	push   %eax
    1178:	6a 00                	push   $0x0
    117a:	68 fc 01 00 00       	push   $0x1fc
    117f:	68 88 02 00 00       	push   $0x288
    1184:	6a 00                	push   $0x0
    1186:	6a 00                	push   $0x0
    1188:	53                   	push   %ebx
    1189:	e8 22 2c 00 00       	call   3db0 <window_resize>
    118e:	83 c4 14             	add    $0x14,%esp
    1191:	53                   	push   %ebx
    1192:	e8 19 2d 00 00       	call   3eb0 <window_root>
    1197:	68 e0 01 00 00       	push   $0x1e0
    119c:	68 80 02 00 00       	push   $0x280
    11a1:	6a 00                	push   $0x0
    11a3:	50                   	push   %eax
    11a4:	e8 17 16 00 00       	call   27c0 <create_terminal>
    11a9:	83 c4 20             	add    $0x20,%esp
    11ac:	85 c0                	test   %eax,%eax
    11ae:	74 5a                	je     120a <main+0xca>
    11b0:	83 ec 0c             	sub    $0xc,%esp
    11b3:	53                   	push   %ebx
    11b4:	e8 07 2d 00 00       	call   3ec0 <window_exec>
    11b9:	c7 04 24 00 00 00 00 	movl   $0x0,(%esp)
    11c0:	e8 3b 69 00 00       	call   7b00 <task_retval@plt>
    11c5:	83 c8 ff             	or     $0xffffffff,%eax
    11c8:	f0 0f c1 05 bc 50 01 	lock xadd %eax,0x150bc
    11cf:	00 
    11d0:	83 c4 10             	add    $0x10,%esp
    11d3:	48                   	dec    %eax
    11d4:	78 73                	js     1249 <main+0x109>
    11d6:	83 ec 0c             	sub    $0xc,%esp
    11d9:	6a 03                	push   $0x3
    11db:	e8 40 6c 00 00       	call   7e20 <fibril_switch@plt>
    11e0:	83 c4 10             	add    $0x10,%esp
    11e3:	31 c0                	xor    %eax,%eax
    11e5:	8d 65 f8             	lea    -0x8(%ebp),%esp
    11e8:	59                   	pop    %ecx
    11e9:	5b                   	pop    %ebx
    11ea:	5d                   	pop    %ebp
    11eb:	8d 61 fc             	lea    -0x4(%ecx),%esp
    11ee:	c3                   	ret    
    11ef:	50                   	push   %eax
    11f0:	50                   	push   %eax
    11f1:	68 13 77 00 00       	push   $0x7713
    11f6:	68 19 77 00 00       	push   $0x7719
    11fb:	e8 20 69 00 00       	call   7b20 <printf@plt>
    1200:	83 c4 10             	add    $0x10,%esp
    1203:	b8 02 00 00 00       	mov    $0x2,%eax
    1208:	eb db                	jmp    11e5 <main+0xa5>
    120a:	83 ec 0c             	sub    $0xc,%esp
    120d:	53                   	push   %ebx
    120e:	e8 5d 2d 00 00       	call   3f70 <window_close>
    1213:	5a                   	pop    %edx
    1214:	59                   	pop    %ecx
    1215:	68 13 77 00 00       	push   $0x7713
    121a:	68 37 77 00 00       	push   $0x7737
    121f:	e8 fc 68 00 00       	call   7b20 <printf@plt>
    1224:	83 c4 10             	add    $0x10,%esp
    1227:	b8 03 00 00 00       	mov    $0x3,%eax
    122c:	eb b7                	jmp    11e5 <main+0xa5>
    122e:	50                   	push   %eax
    122f:	50                   	push   %eax
    1230:	68 13 77 00 00       	push   $0x7713
    1235:	68 54 77 00 00       	push   $0x7754
    123a:	e8 e1 68 00 00       	call   7b20 <printf@plt>
    123f:	83 c4 10             	add    $0x10,%esp
    1242:	b8 01 00 00 00       	mov    $0x1,%eax
    1247:	eb 9c                	jmp    11e5 <main+0xa5>
    1249:	50                   	push   %eax
    124a:	6a 0b                	push   $0xb
    124c:	6a 00                	push   $0x0
    124e:	6a 00                	push   $0x0
    1250:	6a 00                	push   $0x0
    1252:	6a 00                	push   $0x0
    1254:	6a 00                	push   $0x0
    1256:	68 bc 50 01 00       	push   $0x150bc
    125b:	ff 15 b8 50 01 00    	call   *0x150b8
    1261:	83 c4 20             	add    $0x20,%esp
    1264:	e9 6d ff ff ff       	jmp    11d6 <main+0x96>
    1269:	66 90                	xchg   %ax,%ax
    126b:	66 90                	xchg   %ax,%ax
    126d:	66 90                	xchg   %ax,%ax
    126f:	90                   	nop

00001270 <term_open>:
    1270:	55                   	push   %ebp
    1271:	31 c0                	xor    %eax,%eax
    1273:	89 e5                	mov    %esp,%ebp
    1275:	5d                   	pop    %ebp
    1276:	c3                   	ret    
    1277:	89 f6                	mov    %esi,%esi
    1279:	8d bc 27 00 00 00 00 	lea    0x0(%edi,%eiz,1),%edi

00001280 <term_close>:
    1280:	55                   	push   %ebp
    1281:	31 c0                	xor    %eax,%eax
    1283:	89 e5                	mov    %esp,%ebp
    1285:	5d                   	pop    %ebp
    1286:	c3                   	ret    
    1287:	89 f6                	mov    %esi,%esi
    1289:	8d bc 27 00 00 00 00 	lea    0x0(%edi,%eiz,1),%edi

00001290 <term_get_color_cap>:
    1290:	55                   	push   %ebp
    1291:	89 e5                	mov    %esp,%ebp
    1293:	8b 45 0c             	mov    0xc(%ebp),%eax
    1296:	c7 00 07 00 00 00    	movl   $0x7,(%eax)
    129c:	31 c0                	xor    %eax,%eax
    129e:	5d                   	pop    %ebp
    129f:	c3                   	ret    

000012a0 <terminal_reconfigure>:
    12a0:	55                   	push   %ebp
    12a1:	89 e5                	mov    %esp,%ebp
    12a3:	5d                   	pop    %ebp
    12a4:	c3                   	ret    
    12a5:	8d 74 26 00          	lea    0x0(%esi,%eiz,1),%esi
    12a9:	8d bc 27 00 00 00 00 	lea    0x0(%edi,%eiz,1),%edi

000012b0 <term_get_event>:
    12b0:	55                   	push   %ebp
    12b1:	89 e5                	mov    %esp,%ebp
    12b3:	57                   	push   %edi
    12b4:	56                   	push   %esi
    12b5:	8b 45 08             	mov    0x8(%ebp),%eax
    12b8:	83 ec 0c             	sub    $0xc,%esp
    12bb:	8b 00                	mov    (%eax),%eax
    12bd:	8b 40 04             	mov    0x4(%eax),%eax
    12c0:	83 c0 78             	add    $0x78,%eax
    12c3:	50                   	push   %eax
    12c4:	e8 47 6a 00 00       	call   7d10 <prodcons_consume@plt>
    12c9:	8b 7d 0c             	mov    0xc(%ebp),%edi
    12cc:	89 c6                	mov    %eax,%esi
    12ce:	b9 09 00 00 00       	mov    $0x9,%ecx
    12d3:	f3 a5                	rep movsl %ds:(%esi),%es:(%edi)
    12d5:	89 04 24             	mov    %eax,(%esp)
    12d8:	e8 c3 6b 00 00       	call   7ea0 <free@plt>
    12dd:	8d 65 f8             	lea    -0x8(%ebp),%esp
    12e0:	31 c0                	xor    %eax,%eax
    12e2:	5e                   	pop    %esi
    12e3:	5f                   	pop    %edi
    12e4:	5d                   	pop    %ebp
    12e5:	c3                   	ret    
    12e6:	8d 76 00             	lea    0x0(%esi),%esi
    12e9:	8d bc 27 00 00 00 00 	lea    0x0(%edi,%eiz,1),%edi

000012f0 <term_get_size>:
    12f0:	55                   	push   %ebp
    12f1:	89 e5                	mov    %esp,%ebp
    12f3:	56                   	push   %esi
    12f4:	53                   	push   %ebx
    12f5:	8b 45 08             	mov    0x8(%ebp),%eax
    12f8:	83 ec 0c             	sub    $0xc,%esp
    12fb:	8b 00                	mov    (%eax),%eax
    12fd:	8b 58 04             	mov    0x4(%eax),%ebx
    1300:	8d 73 5c             	lea    0x5c(%ebx),%esi
    1303:	56                   	push   %esi
    1304:	e8 a7 6b 00 00       	call   7eb0 <fibril_mutex_lock@plt>
    1309:	8b 45 0c             	mov    0xc(%ebp),%eax
    130c:	8b 93 a4 00 00 00    	mov    0xa4(%ebx),%edx
    1312:	89 10                	mov    %edx,(%eax)
    1314:	8b 45 10             	mov    0x10(%ebp),%eax
    1317:	8b 93 a8 00 00 00    	mov    0xa8(%ebx),%edx
    131d:	89 10                	mov    %edx,(%eax)
    131f:	89 34 24             	mov    %esi,(%esp)
    1322:	e8 59 69 00 00       	call   7c80 <fibril_mutex_unlock@plt>
    1327:	8d 65 f8             	lea    -0x8(%ebp),%esp
    132a:	31 c0                	xor    %eax,%eax
    132c:	5b                   	pop    %ebx
    132d:	5e                   	pop    %esi
    132e:	5d                   	pop    %ebp
    132f:	c3                   	ret    

00001330 <term_get_pos>:
    1330:	55                   	push   %ebp
    1331:	89 e5                	mov    %esp,%ebp
    1333:	56                   	push   %esi
    1334:	53                   	push   %ebx
    1335:	8b 45 08             	mov    0x8(%ebp),%eax
    1338:	83 ec 0c             	sub    $0xc,%esp
    133b:	8b 00                	mov    (%eax),%eax
    133d:	8b 70 04             	mov    0x4(%eax),%esi
    1340:	8d 5e 5c             	lea    0x5c(%esi),%ebx
    1343:	53                   	push   %ebx
    1344:	e8 67 6b 00 00       	call   7eb0 <fibril_mutex_lock@plt>
    1349:	83 c4 0c             	add    $0xc,%esp
    134c:	8b 45 10             	mov    0x10(%ebp),%eax
    134f:	8b 55 0c             	mov    0xc(%ebp),%edx
    1352:	8b 8e ac 00 00 00    	mov    0xac(%esi),%ecx
    1358:	50                   	push   %eax
    1359:	52                   	push   %edx
    135a:	51                   	push   %ecx
    135b:	e8 10 69 00 00       	call   7c70 <chargrid_get_cursor@plt>
    1360:	89 1c 24             	mov    %ebx,(%esp)
    1363:	e8 18 69 00 00       	call   7c80 <fibril_mutex_unlock@plt>
    1368:	8d 65 f8             	lea    -0x8(%ebp),%esp
    136b:	31 c0                	xor    %eax,%eax
    136d:	5b                   	pop    %ebx
    136e:	5e                   	pop    %esi
    136f:	5d                   	pop    %ebp
    1370:	c3                   	ret    
    1371:	eb 0d                	jmp    1380 <term_set_rgb_color>
    1373:	90                   	nop
    1374:	90                   	nop
    1375:	90                   	nop
    1376:	90                   	nop
    1377:	90                   	nop
    1378:	90                   	nop
    1379:	90                   	nop
    137a:	90                   	nop
    137b:	90                   	nop
    137c:	90                   	nop
    137d:	90                   	nop
    137e:	90                   	nop
    137f:	90                   	nop

00001380 <term_set_rgb_color>:
    1380:	55                   	push   %ebp
    1381:	89 e5                	mov    %esp,%ebp
    1383:	57                   	push   %edi
    1384:	56                   	push   %esi
    1385:	53                   	push   %ebx
    1386:	83 ec 28             	sub    $0x28,%esp
    1389:	8b 55 08             	mov    0x8(%ebp),%edx
    138c:	8b 45 10             	mov    0x10(%ebp),%eax
    138f:	8b 7d 0c             	mov    0xc(%ebp),%edi
    1392:	89 45 e4             	mov    %eax,-0x1c(%ebp)
    1395:	8b 12                	mov    (%edx),%edx
    1397:	8b 72 04             	mov    0x4(%edx),%esi
    139a:	8d 5e 5c             	lea    0x5c(%esi),%ebx
    139d:	53                   	push   %ebx
    139e:	e8 0d 6b 00 00       	call   7eb0 <fibril_mutex_lock@plt>
    13a3:	83 c4 0c             	add    $0xc,%esp
    13a6:	8b 45 e4             	mov    -0x1c(%ebp),%eax
    13a9:	50                   	push   %eax
    13aa:	57                   	push   %edi
    13ab:	8b 86 ac 00 00 00    	mov    0xac(%esi),%eax
    13b1:	50                   	push   %eax
    13b2:	e8 a9 6a 00 00       	call   7e60 <chargrid_set_rgb_color@plt>
    13b7:	89 5d 08             	mov    %ebx,0x8(%ebp)
    13ba:	83 c4 10             	add    $0x10,%esp
    13bd:	8d 65 f4             	lea    -0xc(%ebp),%esp
    13c0:	5b                   	pop    %ebx
    13c1:	5e                   	pop    %esi
    13c2:	5f                   	pop    %edi
    13c3:	5d                   	pop    %ebp
    13c4:	e9 b7 68 00 00       	jmp    7c80 <fibril_mutex_unlock@plt>
    13c9:	8d b4 26 00 00 00 00 	lea    0x0(%esi,%eiz,1),%esi

000013d0 <term_set_color>:
    13d0:	55                   	push   %ebp
    13d1:	89 e5                	mov    %esp,%ebp
    13d3:	57                   	push   %edi
    13d4:	56                   	push   %esi
    13d5:	53                   	push   %ebx
    13d6:	83 ec 28             	sub    $0x28,%esp
    13d9:	8b 4d 08             	mov    0x8(%ebp),%ecx
    13dc:	8b 45 10             	mov    0x10(%ebp),%eax
    13df:	8b 55 14             	mov    0x14(%ebp),%edx
    13e2:	8b 7d 0c             	mov    0xc(%ebp),%edi
    13e5:	8b 09                	mov    (%ecx),%ecx
    13e7:	89 45 e0             	mov    %eax,-0x20(%ebp)
    13ea:	89 55 e4             	mov    %edx,-0x1c(%ebp)
    13ed:	8b 71 04             	mov    0x4(%ecx),%esi
    13f0:	8d 5e 5c             	lea    0x5c(%esi),%ebx
    13f3:	53                   	push   %ebx
    13f4:	e8 b7 6a 00 00       	call   7eb0 <fibril_mutex_lock@plt>
    13f9:	8b 45 e0             	mov    -0x20(%ebp),%eax
    13fc:	8b 55 e4             	mov    -0x1c(%ebp),%edx
    13ff:	52                   	push   %edx
    1400:	50                   	push   %eax
    1401:	57                   	push   %edi
    1402:	8b 86 ac 00 00 00    	mov    0xac(%esi),%eax
    1408:	50                   	push   %eax
    1409:	e8 a2 68 00 00       	call   7cb0 <chargrid_set_color@plt>
    140e:	89 5d 08             	mov    %ebx,0x8(%ebp)
    1411:	83 c4 20             	add    $0x20,%esp
    1414:	8d 65 f4             	lea    -0xc(%ebp),%esp
    1417:	5b                   	pop    %ebx
    1418:	5e                   	pop    %esi
    1419:	5f                   	pop    %edi
    141a:	5d                   	pop    %ebp
    141b:	e9 60 68 00 00       	jmp    7c80 <fibril_mutex_unlock@plt>

00001420 <term_set_style>:
    1420:	55                   	push   %ebp
    1421:	89 e5                	mov    %esp,%ebp
    1423:	57                   	push   %edi
    1424:	56                   	push   %esi
    1425:	53                   	push   %ebx
    1426:	83 ec 18             	sub    $0x18,%esp
    1429:	8b 45 08             	mov    0x8(%ebp),%eax
    142c:	8b 7d 0c             	mov    0xc(%ebp),%edi
    142f:	8b 00                	mov    (%eax),%eax
    1431:	8b 70 04             	mov    0x4(%eax),%esi
    1434:	8d 5e 5c             	lea    0x5c(%esi),%ebx
    1437:	53                   	push   %ebx
    1438:	e8 73 6a 00 00       	call   7eb0 <fibril_mutex_lock@plt>
    143d:	58                   	pop    %eax
    143e:	5a                   	pop    %edx
    143f:	57                   	push   %edi
    1440:	8b 8e ac 00 00 00    	mov    0xac(%esi),%ecx
    1446:	51                   	push   %ecx
    1447:	e8 f4 66 00 00       	call   7b40 <chargrid_set_style@plt>
    144c:	89 5d 08             	mov    %ebx,0x8(%ebp)
    144f:	83 c4 10             	add    $0x10,%esp
    1452:	8d 65 f4             	lea    -0xc(%ebp),%esp
    1455:	5b                   	pop    %ebx
    1456:	5e                   	pop    %esi
    1457:	5f                   	pop    %edi
    1458:	5d                   	pop    %ebp
    1459:	e9 22 68 00 00       	jmp    7c80 <fibril_mutex_unlock@plt>
    145e:	66 90                	xchg   %ax,%ax

00001460 <term_read>:
    1460:	55                   	push   %ebp
    1461:	89 e5                	mov    %esp,%ebp
    1463:	57                   	push   %edi
    1464:	56                   	push   %esi
    1465:	53                   	push   %ebx
    1466:	83 ec 2c             	sub    $0x2c,%esp
    1469:	8b 45 08             	mov    0x8(%ebp),%eax
    146c:	8b 7d 10             	mov    0x10(%ebp),%edi
    146f:	85 ff                	test   %edi,%edi
    1471:	8b 00                	mov    (%eax),%eax
    1473:	8b 58 04             	mov    0x4(%eax),%ebx
    1476:	0f 84 87 00 00 00    	je     1503 <term_read+0xa3>
    147c:	8d 43 78             	lea    0x78(%ebx),%eax
    147f:	31 f6                	xor    %esi,%esi
    1481:	89 45 d4             	mov    %eax,-0x2c(%ebp)
    1484:	8d 83 98 00 00 00    	lea    0x98(%ebx),%eax
    148a:	89 45 d0             	mov    %eax,-0x30(%ebp)
    148d:	39 f7                	cmp    %esi,%edi
    148f:	76 72                	jbe    1503 <term_read+0xa3>
    1491:	8b 8b a0 00 00 00    	mov    0xa0(%ebx),%ecx
    1497:	8b 55 0c             	mov    0xc(%ebp),%edx
    149a:	85 c9                	test   %ecx,%ecx
    149c:	75 06                	jne    14a4 <term_read+0x44>
    149e:	eb 70                	jmp    1510 <term_read+0xb0>
    14a0:	85 c0                	test   %eax,%eax
    14a2:	74 6c                	je     1510 <term_read+0xb0>
    14a4:	8a 83 98 00 00 00    	mov    0x98(%ebx),%al
    14aa:	88 04 32             	mov    %al,(%edx,%esi,1)
    14ad:	46                   	inc    %esi
    14ae:	8b 83 a0 00 00 00    	mov    0xa0(%ebx),%eax
    14b4:	83 f8 01             	cmp    $0x1,%eax
    14b7:	76 3f                	jbe    14f8 <term_read+0x98>
    14b9:	8a 8b 99 00 00 00    	mov    0x99(%ebx),%cl
    14bf:	83 f8 02             	cmp    $0x2,%eax
    14c2:	88 8b 98 00 00 00    	mov    %cl,0x98(%ebx)
    14c8:	74 2e                	je     14f8 <term_read+0x98>
    14ca:	8a 8b 9a 00 00 00    	mov    0x9a(%ebx),%cl
    14d0:	83 f8 03             	cmp    $0x3,%eax
    14d3:	88 8b 99 00 00 00    	mov    %cl,0x99(%ebx)
    14d9:	74 1d                	je     14f8 <term_read+0x98>
    14db:	8a 8b 9b 00 00 00    	mov    0x9b(%ebx),%cl
    14e1:	83 f8 04             	cmp    $0x4,%eax
    14e4:	88 8b 9a 00 00 00    	mov    %cl,0x9a(%ebx)
    14ea:	74 0c                	je     14f8 <term_read+0x98>
    14ec:	8a 8b 9c 00 00 00    	mov    0x9c(%ebx),%cl
    14f2:	88 8b 9b 00 00 00    	mov    %cl,0x9b(%ebx)
    14f8:	48                   	dec    %eax
    14f9:	39 f7                	cmp    %esi,%edi
    14fb:	89 83 a0 00 00 00    	mov    %eax,0xa0(%ebx)
    1501:	75 9d                	jne    14a0 <term_read+0x40>
    1503:	8d 65 f4             	lea    -0xc(%ebp),%esp
    1506:	89 f8                	mov    %edi,%eax
    1508:	5b                   	pop    %ebx
    1509:	5e                   	pop    %esi
    150a:	5f                   	pop    %edi
    150b:	5d                   	pop    %ebp
    150c:	c3                   	ret    
    150d:	8d 76 00             	lea    0x0(%esi),%esi
    1510:	83 ec 0c             	sub    $0xc,%esp
    1513:	8b 45 d4             	mov    -0x2c(%ebp),%eax
    1516:	50                   	push   %eax
    1517:	e8 f4 67 00 00       	call   7d10 <prodcons_consume@plt>
    151c:	83 c4 10             	add    $0x10,%esp
    151f:	89 c1                	mov    %eax,%ecx
    1521:	8b 50 08             	mov    0x8(%eax),%edx
    1524:	85 d2                	test   %edx,%edx
    1526:	75 10                	jne    1538 <term_read+0xd8>
    1528:	8b 41 14             	mov    0x14(%ecx),%eax
    152b:	85 c0                	test   %eax,%eax
    152d:	75 09                	jne    1538 <term_read+0xd8>
    152f:	8b 41 20             	mov    0x20(%ecx),%eax
    1532:	85 c0                	test   %eax,%eax
    1534:	75 13                	jne    1549 <term_read+0xe9>
    1536:	66 90                	xchg   %ax,%ax
    1538:	83 ec 0c             	sub    $0xc,%esp
    153b:	51                   	push   %ecx
    153c:	e8 5f 69 00 00       	call   7ea0 <free@plt>
    1541:	83 c4 10             	add    $0x10,%esp
    1544:	e9 44 ff ff ff       	jmp    148d <term_read+0x2d>
    1549:	89 45 e0             	mov    %eax,-0x20(%ebp)
    154c:	50                   	push   %eax
    154d:	8d 45 e0             	lea    -0x20(%ebp),%eax
    1550:	89 4d cc             	mov    %ecx,-0x34(%ebp)
    1553:	50                   	push   %eax
    1554:	8b 45 d0             	mov    -0x30(%ebp),%eax
    1557:	6a 05                	push   $0x5
    1559:	c7 45 e4 00 00 00 00 	movl   $0x0,-0x1c(%ebp)
    1560:	50                   	push   %eax
    1561:	e8 fa 66 00 00       	call   7c60 <wstr_to_str@plt>
    1566:	58                   	pop    %eax
    1567:	8b 45 d0             	mov    -0x30(%ebp),%eax
    156a:	50                   	push   %eax
    156b:	e8 30 68 00 00       	call   7da0 <str_size@plt>
    1570:	83 c4 10             	add    $0x10,%esp
    1573:	89 83 a0 00 00 00    	mov    %eax,0xa0(%ebx)
    1579:	8b 4d cc             	mov    -0x34(%ebp),%ecx
    157c:	eb ba                	jmp    1538 <term_read+0xd8>
    157e:	66 90                	xchg   %ax,%ax

00001580 <term_connection>:
    1580:	55                   	push   %ebp
    1581:	89 e5                	mov    %esp,%ebp
    1583:	57                   	push   %edi
    1584:	56                   	push   %esi
    1585:	53                   	push   %ebx
    1586:	83 ec 0c             	sub    $0xc,%esp
    1589:	a1 40 9a 00 00       	mov    0x9a40,%eax
    158e:	8b 7d 08             	mov    0x8(%ebp),%edi
    1591:	8b 75 0c             	mov    0xc(%ebp),%esi
    1594:	3d 3c 9a 00 00       	cmp    $0x9a3c,%eax
    1599:	74 2a                	je     15c5 <term_connection+0x45>
    159b:	8d 58 94             	lea    -0x6c(%eax),%ebx
    159e:	8b 56 08             	mov    0x8(%esi),%edx
    15a1:	3b 93 b8 00 00 00    	cmp    0xb8(%ebx),%edx
    15a7:	75 0f                	jne    15b8 <term_connection+0x38>
    15a9:	eb 35                	jmp    15e0 <term_connection+0x60>
    15ab:	90                   	nop
    15ac:	8d 74 26 00          	lea    0x0(%esi,%eiz,1),%esi
    15b0:	39 93 b8 00 00 00    	cmp    %edx,0xb8(%ebx)
    15b6:	74 28                	je     15e0 <term_connection+0x60>
    15b8:	8b 40 04             	mov    0x4(%eax),%eax
    15bb:	3d 3c 9a 00 00       	cmp    $0x9a3c,%eax
    15c0:	8d 58 94             	lea    -0x6c(%eax),%ebx
    15c3:	75 eb                	jne    15b0 <term_connection+0x30>
    15c5:	89 7d 08             	mov    %edi,0x8(%ebp)
    15c8:	c7 45 0c ff ff ff ff 	movl   $0xffffffff,0xc(%ebp)
    15cf:	8d 65 f4             	lea    -0xc(%ebp),%esp
    15d2:	5b                   	pop    %ebx
    15d3:	5e                   	pop    %esi
    15d4:	5f                   	pop    %edi
    15d5:	5d                   	pop    %ebp
    15d6:	e9 25 66 00 00       	jmp    7c00 <async_answer_0@plt>
    15db:	90                   	nop
    15dc:	8d 74 26 00          	lea    0x0(%esi,%eiz,1),%esi
    15e0:	b8 01 00 00 00       	mov    $0x1,%eax
    15e5:	f0 0f c1 43 74       	lock xadd %eax,0x74(%ebx)
    15ea:	85 c0                	test   %eax,%eax
    15ec:	74 1b                	je     1609 <term_connection+0x89>
    15ee:	81 c3 bc 00 00 00    	add    $0xbc,%ebx
    15f4:	89 75 0c             	mov    %esi,0xc(%ebp)
    15f7:	89 5d 10             	mov    %ebx,0x10(%ebp)
    15fa:	89 7d 08             	mov    %edi,0x8(%ebp)
    15fd:	8d 65 f4             	lea    -0xc(%ebp),%esp
    1600:	5b                   	pop    %ebx
    1601:	5e                   	pop    %esi
    1602:	5f                   	pop    %edi
    1603:	5d                   	pop    %ebp
    1604:	e9 37 66 00 00       	jmp    7c40 <con_conn@plt>
    1609:	50                   	push   %eax
    160a:	50                   	push   %eax
    160b:	6a 01                	push   $0x1
    160d:	8b 93 ac 00 00 00    	mov    0xac(%ebx),%edx
    1613:	52                   	push   %edx
    1614:	e8 37 66 00 00       	call   7c50 <chargrid_set_cursor_visibility@plt>
    1619:	83 c4 10             	add    $0x10,%esp
    161c:	eb d0                	jmp    15ee <term_connection+0x6e>
    161e:	66 90                	xchg   %ax,%ax

00001620 <terminal_handle_position_event>:
    1620:	55                   	push   %ebp
    1621:	89 e5                	mov    %esp,%ebp
    1623:	57                   	push   %edi
    1624:	56                   	push   %esi
    1625:	53                   	push   %ebx
    1626:	83 ec 1c             	sub    $0x1c,%esp
    1629:	8b 75 08             	mov    0x8(%ebp),%esi
    162c:	83 7d 10 01          	cmpl   $0x1,0x10(%ebp)
    1630:	74 0e                	je     1640 <terminal_handle_position_event+0x20>
    1632:	8d 65 f4             	lea    -0xc(%ebp),%esp
    1635:	5b                   	pop    %ebx
    1636:	5e                   	pop    %esi
    1637:	5f                   	pop    %edi
    1638:	5d                   	pop    %ebp
    1639:	c3                   	ret    
    163a:	8d b6 00 00 00 00    	lea    0x0(%esi),%esi
    1640:	8b 45 14             	mov    0x14(%ebp),%eax
    1643:	8b 5d 18             	mov    0x18(%ebp),%ebx
    1646:	89 45 e4             	mov    %eax,-0x1c(%ebp)
    1649:	8b 46 1c             	mov    0x1c(%esi),%eax
    164c:	29 c3                	sub    %eax,%ebx
    164e:	8b 56 20             	mov    0x20(%esi),%edx
    1651:	8b 45 1c             	mov    0x1c(%ebp),%eax
    1654:	83 ec 0c             	sub    $0xc,%esp
    1657:	29 d0                	sub    %edx,%eax
    1659:	8b 7d 0c             	mov    0xc(%ebp),%edi
    165c:	c1 e8 04             	shr    $0x4,%eax
    165f:	6a 24                	push   $0x24
    1661:	c1 eb 03             	shr    $0x3,%ebx
    1664:	89 45 e0             	mov    %eax,-0x20(%ebp)
    1667:	e8 44 65 00 00       	call   7bb0 <malloc@plt>
    166c:	83 c4 10             	add    $0x10,%esp
    166f:	85 c0                	test   %eax,%eax
    1671:	74 bf                	je     1632 <terminal_handle_position_event+0x12>
    1673:	8b 55 e4             	mov    -0x1c(%ebp),%edx
    1676:	8b 4d e0             	mov    -0x20(%ebp),%ecx
    1679:	89 50 14             	mov    %edx,0x14(%eax)
    167c:	8d 56 78             	lea    0x78(%esi),%edx
    167f:	c7 40 08 01 00 00 00 	movl   $0x1,0x8(%eax)
    1686:	89 78 0c             	mov    %edi,0xc(%eax)
    1689:	c7 40 10 01 00 00 00 	movl   $0x1,0x10(%eax)
    1690:	89 58 18             	mov    %ebx,0x18(%eax)
    1693:	89 48 1c             	mov    %ecx,0x1c(%eax)
    1696:	c7 00 00 00 00 00    	movl   $0x0,(%eax)
    169c:	c7 40 04 00 00 00 00 	movl   $0x0,0x4(%eax)
    16a3:	89 45 0c             	mov    %eax,0xc(%ebp)
    16a6:	89 55 08             	mov    %edx,0x8(%ebp)
    16a9:	8d 65 f4             	lea    -0xc(%ebp),%esp
    16ac:	5b                   	pop    %ebx
    16ad:	5e                   	pop    %esi
    16ae:	5f                   	pop    %edi
    16af:	5d                   	pop    %ebp
    16b0:	e9 1b 67 00 00       	jmp    7dd0 <prodcons_produce@plt>
    16b5:	8d 74 26 00          	lea    0x0(%esi,%eiz,1),%esi
    16b9:	8d bc 27 00 00 00 00 	lea    0x0(%edi,%eiz,1),%edi

000016c0 <terminal_handle_keyboard_event>:
    16c0:	55                   	push   %ebp
    16c1:	b9 06 00 00 00       	mov    $0x6,%ecx
    16c6:	89 e5                	mov    %esp,%ebp
    16c8:	57                   	push   %edi
    16c9:	56                   	push   %esi
    16ca:	53                   	push   %ebx
    16cb:	83 ec 48             	sub    $0x48,%esp
    16ce:	8d 7d d0             	lea    -0x30(%ebp),%edi
    16d1:	8d 75 0c             	lea    0xc(%ebp),%esi
    16d4:	8b 5d 08             	mov    0x8(%ebp),%ebx
    16d7:	f3 a5                	rep movsl %ds:(%esi),%es:(%edi)
    16d9:	6a 24                	push   $0x24
    16db:	e8 d0 64 00 00       	call   7bb0 <malloc@plt>
    16e0:	83 c4 10             	add    $0x10,%esp
    16e3:	85 c0                	test   %eax,%eax
    16e5:	74 39                	je     1720 <terminal_handle_keyboard_event+0x60>
    16e7:	c7 45 cc 00 00 00 00 	movl   $0x0,-0x34(%ebp)
    16ee:	8d 75 c4             	lea    -0x3c(%ebp),%esi
    16f1:	b9 09 00 00 00       	mov    $0x9,%ecx
    16f6:	89 c7                	mov    %eax,%edi
    16f8:	f3 a5                	rep movsl %ds:(%esi),%es:(%edi)
    16fa:	83 c3 78             	add    $0x78,%ebx
    16fd:	c7 00 00 00 00 00    	movl   $0x0,(%eax)
    1703:	c7 40 04 00 00 00 00 	movl   $0x0,0x4(%eax)
    170a:	89 5d 08             	mov    %ebx,0x8(%ebp)
    170d:	89 45 0c             	mov    %eax,0xc(%ebp)
    1710:	8d 65 f4             	lea    -0xc(%ebp),%esp
    1713:	5b                   	pop    %ebx
    1714:	5e                   	pop    %esi
    1715:	5f                   	pop    %edi
    1716:	5d                   	pop    %ebp
    1717:	e9 b4 66 00 00       	jmp    7dd0 <prodcons_produce@plt>
    171c:	8d 74 26 00          	lea    0x0(%esi,%eiz,1),%esi
    1720:	8d 65 f4             	lea    -0xc(%ebp),%esp
    1723:	5b                   	pop    %ebx
    1724:	5e                   	pop    %esi
    1725:	5f                   	pop    %edi
    1726:	5d                   	pop    %ebp
    1727:	c3                   	ret    
    1728:	90                   	nop
    1729:	8d b4 26 00 00 00 00 	lea    0x0(%esi,%eiz,1),%esi

00001730 <terminal_destroy>:
    1730:	55                   	push   %ebp
    1731:	89 e5                	mov    %esp,%ebp
    1733:	53                   	push   %ebx
    1734:	50                   	push   %eax
    1735:	8b 5d 08             	mov    0x8(%ebp),%ebx
    1738:	8b 53 6c             	mov    0x6c(%ebx),%edx
    173b:	85 d2                	test   %edx,%edx
    173d:	74 0f                	je     174e <terminal_destroy+0x1e>
    173f:	8b 43 70             	mov    0x70(%ebx),%eax
    1742:	85 c0                	test   %eax,%eax
    1744:	74 08                	je     174e <terminal_destroy+0x1e>
    1746:	89 10                	mov    %edx,(%eax)
    1748:	8b 53 6c             	mov    0x6c(%ebx),%edx
    174b:	89 42 04             	mov    %eax,0x4(%edx)
    174e:	83 ec 0c             	sub    $0xc,%esp
    1751:	c7 43 6c 00 00 00 00 	movl   $0x0,0x6c(%ebx)
    1758:	c7 43 70 00 00 00 00 	movl   $0x0,0x70(%ebx)
    175f:	53                   	push   %ebx
    1760:	e8 6b 13 00 00       	call   2ad0 <widget_deinit>
    1765:	8b 83 ac 00 00 00    	mov    0xac(%ebx),%eax
    176b:	83 c4 10             	add    $0x10,%esp
    176e:	85 c0                	test   %eax,%eax
    1770:	74 0c                	je     177e <terminal_destroy+0x4e>
    1772:	83 ec 0c             	sub    $0xc,%esp
    1775:	50                   	push   %eax
    1776:	e8 35 66 00 00       	call   7db0 <chargrid_destroy@plt>
    177b:	83 c4 10             	add    $0x10,%esp
    177e:	8b 83 b0 00 00 00    	mov    0xb0(%ebx),%eax
    1784:	85 c0                	test   %eax,%eax
    1786:	74 0c                	je     1794 <terminal_destroy+0x64>
    1788:	83 ec 0c             	sub    $0xc,%esp
    178b:	50                   	push   %eax
    178c:	e8 1f 66 00 00       	call   7db0 <chargrid_destroy@plt>
    1791:	83 c4 10             	add    $0x10,%esp
    1794:	89 5d 08             	mov    %ebx,0x8(%ebp)
    1797:	8b 5d fc             	mov    -0x4(%ebp),%ebx
    179a:	c9                   	leave  
    179b:	e9 00 67 00 00       	jmp    7ea0 <free@plt>

000017a0 <term_update_char>:
    17a0:	55                   	push   %ebp
    17a1:	89 e5                	mov    %esp,%ebp
    17a3:	57                   	push   %edi
    17a4:	56                   	push   %esi
    17a5:	53                   	push   %ebx
    17a6:	83 ec 30             	sub    $0x30,%esp
    17a9:	89 55 e4             	mov    %edx,-0x1c(%ebp)
    17ac:	8b 98 b0 00 00 00    	mov    0xb0(%eax),%ebx
    17b2:	8b 75 10             	mov    0x10(%ebp),%esi
    17b5:	31 d2                	xor    %edx,%edx
    17b7:	8b 7d 0c             	mov    0xc(%ebp),%edi
    17ba:	8b 43 2c             	mov    0x2c(%ebx),%eax
    17bd:	89 4d dc             	mov    %ecx,-0x24(%ebp)
    17c0:	01 f0                	add    %esi,%eax
    17c2:	f7 73 0c             	divl   0xc(%ebx)
    17c5:	8b 43 08             	mov    0x8(%ebx),%eax
    17c8:	56                   	push   %esi
    17c9:	0f af d0             	imul   %eax,%edx
    17cc:	c1 e6 04             	shl    $0x4,%esi
    17cf:	57                   	push   %edi
    17d0:	8d 04 3a             	lea    (%edx,%edi,1),%eax
    17d3:	53                   	push   %ebx
    17d4:	8d 04 40             	lea    (%eax,%eax,2),%eax
    17d7:	8d 54 c3 30          	lea    0x30(%ebx,%eax,8),%edx
    17db:	89 55 e0             	mov    %edx,-0x20(%ebp)
    17de:	e8 7d 65 00 00       	call   7d60 <chargrid_cursor_at@plt>
    17e3:	8b 4d dc             	mov    -0x24(%ebp),%ecx
    17e6:	8b 55 08             	mov    0x8(%ebp),%edx
    17e9:	01 d6                	add    %edx,%esi
    17eb:	83 c4 10             	add    $0x10,%esp
    17ee:	8d 3c f9             	lea    (%ecx,%edi,8),%edi
    17f1:	89 75 c8             	mov    %esi,-0x38(%ebp)
    17f4:	89 7d dc             	mov    %edi,-0x24(%ebp)
    17f7:	84 c0                	test   %al,%al
    17f9:	8b 55 e0             	mov    -0x20(%ebp),%edx
    17fc:	0f 84 6e 01 00 00    	je     1970 <term_update_char+0x1d0>
    1802:	8b 4a 04             	mov    0x4(%edx),%ecx
    1805:	8b 42 08             	mov    0x8(%edx),%eax
    1808:	8b 7a 0c             	mov    0xc(%edx),%edi
    180b:	83 f9 01             	cmp    $0x1,%ecx
    180e:	0f 84 a0 01 00 00    	je     19b4 <term_update_char+0x214>
    1814:	0f 82 e8 01 00 00    	jb     1a02 <term_update_char+0x262>
    181a:	83 f9 02             	cmp    $0x2,%ecx
    181d:	0f 84 7e 01 00 00    	je     19a1 <term_update_char+0x201>
    1823:	c7 45 e0 00 00 00 00 	movl   $0x0,-0x20(%ebp)
    182a:	31 ff                	xor    %edi,%edi
    182c:	53                   	push   %ebx
    182d:	53                   	push   %ebx
    182e:	6a 00                	push   $0x0
    1830:	8b 32                	mov    (%edx),%esi
    1832:	56                   	push   %esi
    1833:	e8 08 35 00 00       	call   4d40 <fb_font_glyph>
    1838:	8b 75 dc             	mov    -0x24(%ebp),%esi
    183b:	83 c4 10             	add    $0x10,%esp
    183e:	83 c6 07             	add    $0x7,%esi
    1841:	89 75 d4             	mov    %esi,-0x2c(%ebp)
    1844:	31 f6                	xor    %esi,%esi
    1846:	66 89 c6             	mov    %ax,%si
    1849:	89 f2                	mov    %esi,%edx
    184b:	c1 e2 04             	shl    $0x4,%edx
    184e:	89 d0                	mov    %edx,%eax
    1850:	05 90 9a 00 00       	add    $0x9a90,%eax
    1855:	8d 9a 80 9a 00 00    	lea    0x9a80(%edx),%ebx
    185b:	89 45 d0             	mov    %eax,-0x30(%ebp)
    185e:	8b 45 c8             	mov    -0x38(%ebp),%eax
    1861:	29 d0                	sub    %edx,%eax
    1863:	2d 80 9a 00 00       	sub    $0x9a80,%eax
    1868:	89 45 cc             	mov    %eax,-0x34(%ebp)
    186b:	90                   	nop
    186c:	8d 74 26 00          	lea    0x0(%esi,%eiz,1),%esi
    1870:	83 ec 0c             	sub    $0xc,%esp
    1873:	8b 45 cc             	mov    -0x34(%ebp),%eax
    1876:	8b 4d e4             	mov    -0x1c(%ebp),%ecx
    1879:	51                   	push   %ecx
    187a:	8d 34 18             	lea    (%eax,%ebx,1),%esi
    187d:	e8 be 49 00 00       	call   6240 <surface_pixmap_access>
    1882:	83 c4 10             	add    $0x10,%esp
    1885:	31 d2                	xor    %edx,%edx
    1887:	8b 08                	mov    (%eax),%ecx
    1889:	39 4d dc             	cmp    %ecx,-0x24(%ebp)
    188c:	73 13                	jae    18a1 <term_update_char+0x101>
    188e:	39 70 04             	cmp    %esi,0x4(%eax)
    1891:	76 0e                	jbe    18a1 <term_update_char+0x101>
    1893:	0f af ce             	imul   %esi,%ecx
    1896:	8b 55 dc             	mov    -0x24(%ebp),%edx
    1899:	8b 40 08             	mov    0x8(%eax),%eax
    189c:	01 d1                	add    %edx,%ecx
    189e:	8d 14 88             	lea    (%eax,%ecx,4),%edx
    18a1:	83 ec 0c             	sub    $0xc,%esp
    18a4:	8b 45 e4             	mov    -0x1c(%ebp),%eax
    18a7:	89 55 d8             	mov    %edx,-0x28(%ebp)
    18aa:	50                   	push   %eax
    18ab:	e8 90 49 00 00       	call   6240 <surface_pixmap_access>
    18b0:	8b 55 d4             	mov    -0x2c(%ebp),%edx
    18b3:	83 c4 10             	add    $0x10,%esp
    18b6:	8b 08                	mov    (%eax),%ecx
    18b8:	39 d1                	cmp    %edx,%ecx
    18ba:	0f 86 83 00 00 00    	jbe    1943 <term_update_char+0x1a3>
    18c0:	39 70 04             	cmp    %esi,0x4(%eax)
    18c3:	76 7e                	jbe    1943 <term_update_char+0x1a3>
    18c5:	0f af f1             	imul   %ecx,%esi
    18c8:	8b 40 08             	mov    0x8(%eax),%eax
    18cb:	8d 0c 16             	lea    (%esi,%edx,1),%ecx
    18ce:	8d 04 88             	lea    (%eax,%ecx,4),%eax
    18d1:	85 c0                	test   %eax,%eax
    18d3:	74 6e                	je     1943 <term_update_char+0x1a3>
    18d5:	8b 55 d8             	mov    -0x28(%ebp),%edx
    18d8:	85 d2                	test   %edx,%edx
    18da:	74 67                	je     1943 <term_update_char+0x1a3>
    18dc:	89 f8                	mov    %edi,%eax
    18de:	80 3b 00             	cmpb   $0x0,(%ebx)
    18e1:	79 03                	jns    18e6 <term_update_char+0x146>
    18e3:	8b 45 e0             	mov    -0x20(%ebp),%eax
    18e6:	89 02                	mov    %eax,(%edx)
    18e8:	89 f8                	mov    %edi,%eax
    18ea:	f6 03 40             	testb  $0x40,(%ebx)
    18ed:	74 03                	je     18f2 <term_update_char+0x152>
    18ef:	8b 45 e0             	mov    -0x20(%ebp),%eax
    18f2:	89 42 04             	mov    %eax,0x4(%edx)
    18f5:	89 f8                	mov    %edi,%eax
    18f7:	f6 03 20             	testb  $0x20,(%ebx)
    18fa:	74 03                	je     18ff <term_update_char+0x15f>
    18fc:	8b 45 e0             	mov    -0x20(%ebp),%eax
    18ff:	89 42 08             	mov    %eax,0x8(%edx)
    1902:	89 f8                	mov    %edi,%eax
    1904:	f6 03 10             	testb  $0x10,(%ebx)
    1907:	74 03                	je     190c <term_update_char+0x16c>
    1909:	8b 45 e0             	mov    -0x20(%ebp),%eax
    190c:	89 42 0c             	mov    %eax,0xc(%edx)
    190f:	89 f8                	mov    %edi,%eax
    1911:	f6 03 08             	testb  $0x8,(%ebx)
    1914:	74 03                	je     1919 <term_update_char+0x179>
    1916:	8b 45 e0             	mov    -0x20(%ebp),%eax
    1919:	89 42 10             	mov    %eax,0x10(%edx)
    191c:	89 f8                	mov    %edi,%eax
    191e:	f6 03 04             	testb  $0x4,(%ebx)
    1921:	74 03                	je     1926 <term_update_char+0x186>
    1923:	8b 45 e0             	mov    -0x20(%ebp),%eax
    1926:	89 42 14             	mov    %eax,0x14(%edx)
    1929:	89 f8                	mov    %edi,%eax
    192b:	f6 03 02             	testb  $0x2,(%ebx)
    192e:	74 03                	je     1933 <term_update_char+0x193>
    1930:	8b 45 e0             	mov    -0x20(%ebp),%eax
    1933:	89 42 18             	mov    %eax,0x18(%edx)
    1936:	89 f8                	mov    %edi,%eax
    1938:	f6 03 01             	testb  $0x1,(%ebx)
    193b:	74 03                	je     1940 <term_update_char+0x1a0>
    193d:	8b 45 e0             	mov    -0x20(%ebp),%eax
    1940:	89 42 1c             	mov    %eax,0x1c(%edx)
    1943:	43                   	inc    %ebx
    1944:	3b 5d d0             	cmp    -0x30(%ebp),%ebx
    1947:	0f 85 23 ff ff ff    	jne    1870 <term_update_char+0xd0>
    194d:	83 ec 0c             	sub    $0xc,%esp
    1950:	8b 45 c8             	mov    -0x38(%ebp),%eax
    1953:	8b 55 dc             	mov    -0x24(%ebp),%edx
    1956:	8b 4d e4             	mov    -0x1c(%ebp),%ecx
    1959:	6a 10                	push   $0x10
    195b:	6a 08                	push   $0x8
    195d:	50                   	push   %eax
    195e:	52                   	push   %edx
    195f:	51                   	push   %ecx
    1960:	e8 fb 49 00 00       	call   6360 <surface_add_damaged_region>
    1965:	83 c4 20             	add    $0x20,%esp
    1968:	8d 65 f4             	lea    -0xc(%ebp),%esp
    196b:	5b                   	pop    %ebx
    196c:	5e                   	pop    %esi
    196d:	5f                   	pop    %edi
    196e:	5d                   	pop    %ebp
    196f:	c3                   	ret    
    1970:	8b 42 04             	mov    0x4(%edx),%eax
    1973:	8b 7a 08             	mov    0x8(%edx),%edi
    1976:	8b 4a 0c             	mov    0xc(%edx),%ecx
    1979:	83 f8 01             	cmp    $0x1,%eax
    197c:	74 5c                	je     19da <term_update_char+0x23a>
    197e:	0f 82 ba 00 00 00    	jb     1a3e <term_update_char+0x29e>
    1984:	83 f8 02             	cmp    $0x2,%eax
    1987:	0f 85 96 fe ff ff    	jne    1823 <term_update_char+0x83>
    198d:	81 c9 00 00 00 ff    	or     $0xff000000,%ecx
    1993:	81 cf 00 00 00 ff    	or     $0xff000000,%edi
    1999:	89 4d e0             	mov    %ecx,-0x20(%ebp)
    199c:	e9 8b fe ff ff       	jmp    182c <term_update_char+0x8c>
    19a1:	0d 00 00 00 ff       	or     $0xff000000,%eax
    19a6:	81 cf 00 00 00 ff    	or     $0xff000000,%edi
    19ac:	89 45 e0             	mov    %eax,-0x20(%ebp)
    19af:	e9 78 fe ff ff       	jmp    182c <term_update_char+0x8c>
    19b4:	8b 4a 10             	mov    0x10(%edx),%ecx
    19b7:	83 e0 07             	and    $0x7,%eax
    19ba:	83 e1 08             	and    $0x8,%ecx
    19bd:	83 e7 07             	and    $0x7,%edi
    19c0:	09 c8                	or     %ecx,%eax
    19c2:	09 f9                	or     %edi,%ecx
    19c4:	8b 04 85 c0 77 00 00 	mov    0x77c0(,%eax,4),%eax
    19cb:	8b 3c 8d c0 77 00 00 	mov    0x77c0(,%ecx,4),%edi
    19d2:	89 45 e0             	mov    %eax,-0x20(%ebp)
    19d5:	e9 52 fe ff ff       	jmp    182c <term_update_char+0x8c>
    19da:	83 e7 07             	and    $0x7,%edi
    19dd:	8b 5a 10             	mov    0x10(%edx),%ebx
    19e0:	83 e3 08             	and    $0x8,%ebx
    19e3:	89 f8                	mov    %edi,%eax
    19e5:	83 e1 07             	and    $0x7,%ecx
    19e8:	09 d8                	or     %ebx,%eax
    19ea:	09 cb                	or     %ecx,%ebx
    19ec:	8b 3c 85 c0 77 00 00 	mov    0x77c0(,%eax,4),%edi
    19f3:	8b 04 9d c0 77 00 00 	mov    0x77c0(,%ebx,4),%eax
    19fa:	89 45 e0             	mov    %eax,-0x20(%ebp)
    19fd:	e9 2a fe ff ff       	jmp    182c <term_update_char+0x8c>
    1a02:	83 f8 01             	cmp    $0x1,%eax
    1a05:	0f 84 8d 00 00 00    	je     1a98 <term_update_char+0x2f8>
    1a0b:	72 7a                	jb     1a87 <term_update_char+0x2e7>
    1a0d:	83 f8 02             	cmp    $0x2,%eax
    1a10:	74 64                	je     1a76 <term_update_char+0x2d6>
    1a12:	83 f8 03             	cmp    $0x3,%eax
    1a15:	0f 95 c0             	setne  %al
    1a18:	89 c6                	mov    %eax,%esi
    1a1a:	89 c7                	mov    %eax,%edi
    1a1c:	81 e6 ff 00 00 00    	and    $0xff,%esi
    1a22:	81 e7 ff 00 00 00    	and    $0xff,%edi
    1a28:	4e                   	dec    %esi
    1a29:	4f                   	dec    %edi
    1a2a:	81 e6 00 00 f0 ff    	and    $0xfff00000,%esi
    1a30:	81 e7 f0 f0 f0 ff    	and    $0xfff0f0f0,%edi
    1a36:	89 75 e0             	mov    %esi,-0x20(%ebp)
    1a39:	e9 ee fd ff ff       	jmp    182c <term_update_char+0x8c>
    1a3e:	83 ff 01             	cmp    $0x1,%edi
    1a41:	74 66                	je     1aa9 <term_update_char+0x309>
    1a43:	72 31                	jb     1a76 <term_update_char+0x2d6>
    1a45:	83 ff 02             	cmp    $0x2,%edi
    1a48:	74 3d                	je     1a87 <term_update_char+0x2e7>
    1a4a:	83 ff 03             	cmp    $0x3,%edi
    1a4d:	0f 95 c0             	setne  %al
    1a50:	89 c6                	mov    %eax,%esi
    1a52:	89 c7                	mov    %eax,%edi
    1a54:	81 e6 ff 00 00 00    	and    $0xff,%esi
    1a5a:	81 e7 ff 00 00 00    	and    $0xff,%edi
    1a60:	4e                   	dec    %esi
    1a61:	4f                   	dec    %edi
    1a62:	81 e6 f0 f0 f0 ff    	and    $0xfff0f0f0,%esi
    1a68:	81 e7 00 00 f0 ff    	and    $0xfff00000,%edi
    1a6e:	89 75 e0             	mov    %esi,-0x20(%ebp)
    1a71:	e9 b6 fd ff ff       	jmp    182c <term_update_char+0x8c>
    1a76:	c7 45 e0 00 00 00 ff 	movl   $0xff000000,-0x20(%ebp)
    1a7d:	bf f0 f0 f0 ff       	mov    $0xfff0f0f0,%edi
    1a82:	e9 a5 fd ff ff       	jmp    182c <term_update_char+0x8c>
    1a87:	c7 45 e0 f0 f0 f0 ff 	movl   $0xfff0f0f0,-0x20(%ebp)
    1a8e:	bf 00 00 00 ff       	mov    $0xff000000,%edi
    1a93:	e9 94 fd ff ff       	jmp    182c <term_update_char+0x8c>
    1a98:	c7 45 e0 f0 f0 f0 ff 	movl   $0xfff0f0f0,-0x20(%ebp)
    1a9f:	bf 00 00 f0 ff       	mov    $0xfff00000,%edi
    1aa4:	e9 83 fd ff ff       	jmp    182c <term_update_char+0x8c>
    1aa9:	c7 45 e0 00 00 f0 ff 	movl   $0xfff00000,-0x20(%ebp)
    1ab0:	bf f0 f0 f0 ff       	mov    $0xfff0f0f0,%edi
    1ab5:	e9 72 fd ff ff       	jmp    182c <term_update_char+0x8c>
    1aba:	8d b6 00 00 00 00    	lea    0x0(%esi),%esi

00001ac0 <term_update_scroll.part.1>:
    1ac0:	55                   	push   %ebp
    1ac1:	89 e5                	mov    %esp,%ebp
    1ac3:	57                   	push   %edi
    1ac4:	56                   	push   %esi
    1ac5:	53                   	push   %ebx
    1ac6:	83 ec 3c             	sub    $0x3c,%esp
    1ac9:	8b b0 a8 00 00 00    	mov    0xa8(%eax),%esi
    1acf:	85 f6                	test   %esi,%esi
    1ad1:	0f 84 85 01 00 00    	je     1c5c <term_update_scroll.part.1+0x19c>
    1ad7:	89 c7                	mov    %eax,%edi
    1ad9:	8b 80 a4 00 00 00    	mov    0xa4(%eax),%eax
    1adf:	89 45 dc             	mov    %eax,-0x24(%ebp)
    1ae2:	89 4d bc             	mov    %ecx,-0x44(%ebp)
    1ae5:	89 f0                	mov    %esi,%eax
    1ae7:	89 55 c0             	mov    %edx,-0x40(%ebp)
    1aea:	c7 45 e4 00 00 00 00 	movl   $0x0,-0x1c(%ebp)
    1af1:	89 fe                	mov    %edi,%esi
    1af3:	90                   	nop
    1af4:	8d 74 26 00          	lea    0x0(%esi,%eiz,1),%esi
    1af8:	8b 4d dc             	mov    -0x24(%ebp),%ecx
    1afb:	31 ff                	xor    %edi,%edi
    1afd:	85 c9                	test   %ecx,%ecx
    1aff:	0f 84 a5 01 00 00    	je     1caa <term_update_scroll.part.1+0x1ea>
    1b05:	89 75 e0             	mov    %esi,-0x20(%ebp)
    1b08:	e9 86 00 00 00       	jmp    1b93 <term_update_scroll.part.1+0xd3>
    1b0d:	8d 76 00             	lea    0x0(%esi),%esi
    1b10:	89 10                	mov    %edx,(%eax)
    1b12:	b3 01                	mov    $0x1,%bl
    1b14:	8b 51 04             	mov    0x4(%ecx),%edx
    1b17:	3b 50 04             	cmp    0x4(%eax),%edx
    1b1a:	0f 85 d0 00 00 00    	jne    1bf0 <term_update_scroll.part.1+0x130>
    1b20:	8b 71 08             	mov    0x8(%ecx),%esi
    1b23:	83 fa 01             	cmp    $0x1,%edx
    1b26:	89 75 d8             	mov    %esi,-0x28(%ebp)
    1b29:	8b 71 0c             	mov    0xc(%ecx),%esi
    1b2c:	89 75 d0             	mov    %esi,-0x30(%ebp)
    1b2f:	8b 71 10             	mov    0x10(%ecx),%esi
    1b32:	89 75 c8             	mov    %esi,-0x38(%ebp)
    1b35:	8b 70 08             	mov    0x8(%eax),%esi
    1b38:	89 75 d4             	mov    %esi,-0x2c(%ebp)
    1b3b:	8b 70 0c             	mov    0xc(%eax),%esi
    1b3e:	89 75 cc             	mov    %esi,-0x34(%ebp)
    1b41:	8b 70 10             	mov    0x10(%eax),%esi
    1b44:	89 75 c4             	mov    %esi,-0x3c(%ebp)
    1b47:	0f 84 2b 01 00 00    	je     1c78 <term_update_scroll.part.1+0x1b8>
    1b4d:	0f 82 15 01 00 00    	jb     1c68 <term_update_scroll.part.1+0x1a8>
    1b53:	83 fa 02             	cmp    $0x2,%edx
    1b56:	0f 85 94 00 00 00    	jne    1bf0 <term_update_scroll.part.1+0x130>
    1b5c:	8b 55 d4             	mov    -0x2c(%ebp),%edx
    1b5f:	39 55 d8             	cmp    %edx,-0x28(%ebp)
    1b62:	8b 55 cc             	mov    -0x34(%ebp),%edx
    1b65:	0f 94 45 d8          	sete   -0x28(%ebp)
    1b69:	39 55 d0             	cmp    %edx,-0x30(%ebp)
    1b6c:	8b 75 d8             	mov    -0x28(%ebp),%esi
    1b6f:	0f 94 c2             	sete   %dl
    1b72:	21 f2                	and    %esi,%edx
    1b74:	84 d2                	test   %dl,%dl
    1b76:	74 78                	je     1bf0 <term_update_scroll.part.1+0x130>
    1b78:	8b 41 14             	mov    0x14(%ecx),%eax
    1b7b:	83 e0 fe             	and    $0xfffffffe,%eax
    1b7e:	84 db                	test   %bl,%bl
    1b80:	89 41 14             	mov    %eax,0x14(%ecx)
    1b83:	0f 85 88 00 00 00    	jne    1c11 <term_update_scroll.part.1+0x151>
    1b89:	47                   	inc    %edi
    1b8a:	3b 7d dc             	cmp    -0x24(%ebp),%edi
    1b8d:	0f 83 ae 00 00 00    	jae    1c41 <term_update_scroll.part.1+0x181>
    1b93:	8b 5d e0             	mov    -0x20(%ebp),%ebx
    1b96:	8b 75 e4             	mov    -0x1c(%ebp),%esi
    1b99:	31 d2                	xor    %edx,%edx
    1b9b:	8b 8b ac 00 00 00    	mov    0xac(%ebx),%ecx
    1ba1:	8b 9b b0 00 00 00    	mov    0xb0(%ebx),%ebx
    1ba7:	8b 41 2c             	mov    0x2c(%ecx),%eax
    1baa:	01 f0                	add    %esi,%eax
    1bac:	f7 71 0c             	divl   0xc(%ecx)
    1baf:	8b 41 08             	mov    0x8(%ecx),%eax
    1bb2:	0f af d0             	imul   %eax,%edx
    1bb5:	01 fa                	add    %edi,%edx
    1bb7:	8d 04 52             	lea    (%edx,%edx,2),%eax
    1bba:	31 d2                	xor    %edx,%edx
    1bbc:	8d 4c c1 30          	lea    0x30(%ecx,%eax,8),%ecx
    1bc0:	8b 43 2c             	mov    0x2c(%ebx),%eax
    1bc3:	01 f0                	add    %esi,%eax
    1bc5:	f7 73 0c             	divl   0xc(%ebx)
    1bc8:	8b 43 08             	mov    0x8(%ebx),%eax
    1bcb:	0f af d0             	imul   %eax,%edx
    1bce:	01 fa                	add    %edi,%edx
    1bd0:	8d 04 52             	lea    (%edx,%edx,2),%eax
    1bd3:	8b 11                	mov    (%ecx),%edx
    1bd5:	8d 44 c3 30          	lea    0x30(%ebx,%eax,8),%eax
    1bd9:	3b 10                	cmp    (%eax),%edx
    1bdb:	0f 85 2f ff ff ff    	jne    1b10 <term_update_scroll.part.1+0x50>
    1be1:	8b 51 04             	mov    0x4(%ecx),%edx
    1be4:	31 db                	xor    %ebx,%ebx
    1be6:	3b 50 04             	cmp    0x4(%eax),%edx
    1be9:	0f 84 31 ff ff ff    	je     1b20 <term_update_scroll.part.1+0x60>
    1bef:	90                   	nop
    1bf0:	8b 51 04             	mov    0x4(%ecx),%edx
    1bf3:	89 50 04             	mov    %edx,0x4(%eax)
    1bf6:	8b 51 08             	mov    0x8(%ecx),%edx
    1bf9:	89 50 08             	mov    %edx,0x8(%eax)
    1bfc:	8b 51 0c             	mov    0xc(%ecx),%edx
    1bff:	89 50 0c             	mov    %edx,0xc(%eax)
    1c02:	8b 51 10             	mov    0x10(%ecx),%edx
    1c05:	89 50 10             	mov    %edx,0x10(%eax)
    1c08:	8b 41 14             	mov    0x14(%ecx),%eax
    1c0b:	83 e0 fe             	and    $0xfffffffe,%eax
    1c0e:	89 41 14             	mov    %eax,0x14(%ecx)
    1c11:	8b 45 e4             	mov    -0x1c(%ebp),%eax
    1c14:	56                   	push   %esi
    1c15:	8b 75 e0             	mov    -0x20(%ebp),%esi
    1c18:	50                   	push   %eax
    1c19:	8b 45 08             	mov    0x8(%ebp),%eax
    1c1c:	57                   	push   %edi
    1c1d:	8b 4d bc             	mov    -0x44(%ebp),%ecx
    1c20:	50                   	push   %eax
    1c21:	8b 55 c0             	mov    -0x40(%ebp),%edx
    1c24:	89 f0                	mov    %esi,%eax
    1c26:	e8 75 fb ff ff       	call   17a0 <term_update_char>
    1c2b:	8b 86 a4 00 00 00    	mov    0xa4(%esi),%eax
    1c31:	89 45 dc             	mov    %eax,-0x24(%ebp)
    1c34:	47                   	inc    %edi
    1c35:	83 c4 10             	add    $0x10,%esp
    1c38:	3b 7d dc             	cmp    -0x24(%ebp),%edi
    1c3b:	0f 82 52 ff ff ff    	jb     1b93 <term_update_scroll.part.1+0xd3>
    1c41:	8b 75 e0             	mov    -0x20(%ebp),%esi
    1c44:	8b 86 a8 00 00 00    	mov    0xa8(%esi),%eax
    1c4a:	8b 5d e4             	mov    -0x1c(%ebp),%ebx
    1c4d:	43                   	inc    %ebx
    1c4e:	89 5d e4             	mov    %ebx,-0x1c(%ebp)
    1c51:	8b 7d e4             	mov    -0x1c(%ebp),%edi
    1c54:	39 c7                	cmp    %eax,%edi
    1c56:	0f 82 9c fe ff ff    	jb     1af8 <term_update_scroll.part.1+0x38>
    1c5c:	8d 65 f4             	lea    -0xc(%ebp),%esp
    1c5f:	b0 01                	mov    $0x1,%al
    1c61:	5b                   	pop    %ebx
    1c62:	5e                   	pop    %esi
    1c63:	5f                   	pop    %edi
    1c64:	5d                   	pop    %ebp
    1c65:	c3                   	ret    
    1c66:	66 90                	xchg   %ax,%ax
    1c68:	8b 55 d4             	mov    -0x2c(%ebp),%edx
    1c6b:	39 55 d8             	cmp    %edx,-0x28(%ebp)
    1c6e:	0f 94 c2             	sete   %dl
    1c71:	e9 fe fe ff ff       	jmp    1b74 <term_update_scroll.part.1+0xb4>
    1c76:	66 90                	xchg   %ax,%ax
    1c78:	8b 55 d4             	mov    -0x2c(%ebp),%edx
    1c7b:	39 55 d8             	cmp    %edx,-0x28(%ebp)
    1c7e:	8b 55 cc             	mov    -0x34(%ebp),%edx
    1c81:	0f 94 45 d8          	sete   -0x28(%ebp)
    1c85:	39 55 d0             	cmp    %edx,-0x30(%ebp)
    1c88:	8b 75 d8             	mov    -0x28(%ebp),%esi
    1c8b:	0f 94 c2             	sete   %dl
    1c8e:	21 f2                	and    %esi,%edx
    1c90:	88 55 d8             	mov    %dl,-0x28(%ebp)
    1c93:	8b 55 c4             	mov    -0x3c(%ebp),%edx
    1c96:	39 55 c8             	cmp    %edx,-0x38(%ebp)
    1c99:	8b 75 d8             	mov    -0x28(%ebp),%esi
    1c9c:	0f 94 45 d4          	sete   -0x2c(%ebp)
    1ca0:	8a 55 d4             	mov    -0x2c(%ebp),%dl
    1ca3:	21 f2                	and    %esi,%edx
    1ca5:	e9 ca fe ff ff       	jmp    1b74 <term_update_scroll.part.1+0xb4>
    1caa:	8b 55 e4             	mov    -0x1c(%ebp),%edx
    1cad:	42                   	inc    %edx
    1cae:	89 55 e4             	mov    %edx,-0x1c(%ebp)
    1cb1:	8b 7d e4             	mov    -0x1c(%ebp),%edi
    1cb4:	39 f8                	cmp    %edi,%eax
    1cb6:	77 92                	ja     1c4a <term_update_scroll.part.1+0x18a>
    1cb8:	eb a2                	jmp    1c5c <term_update_scroll.part.1+0x19c>
    1cba:	8d b6 00 00 00 00    	lea    0x0(%esi),%esi

00001cc0 <term_update_cursor>:
    1cc0:	55                   	push   %ebp
    1cc1:	89 e5                	mov    %esp,%ebp
    1cc3:	57                   	push   %edi
    1cc4:	56                   	push   %esi
    1cc5:	53                   	push   %ebx
    1cc6:	83 ec 30             	sub    $0x30,%esp
    1cc9:	89 c3                	mov    %eax,%ebx
    1ccb:	8d 45 dc             	lea    -0x24(%ebp),%eax
    1cce:	89 d7                	mov    %edx,%edi
    1cd0:	50                   	push   %eax
    1cd1:	8b 93 ac 00 00 00    	mov    0xac(%ebx),%edx
    1cd7:	8d 45 d8             	lea    -0x28(%ebp),%eax
    1cda:	89 ce                	mov    %ecx,%esi
    1cdc:	50                   	push   %eax
    1cdd:	52                   	push   %edx
    1cde:	e8 8d 5f 00 00       	call   7c70 <chargrid_get_cursor@plt>
    1ce3:	83 c4 0c             	add    $0xc,%esp
    1ce6:	8d 45 e4             	lea    -0x1c(%ebp),%eax
    1ce9:	8b 8b b0 00 00 00    	mov    0xb0(%ebx),%ecx
    1cef:	50                   	push   %eax
    1cf0:	8d 45 e0             	lea    -0x20(%ebp),%eax
    1cf3:	50                   	push   %eax
    1cf4:	51                   	push   %ecx
    1cf5:	e8 76 5f 00 00       	call   7c70 <chargrid_get_cursor@plt>
    1cfa:	58                   	pop    %eax
    1cfb:	8b 83 ac 00 00 00    	mov    0xac(%ebx),%eax
    1d01:	50                   	push   %eax
    1d02:	e8 19 60 00 00       	call   7d20 <chargrid_get_cursor_visibility@plt>
    1d07:	83 c4 10             	add    $0x10,%esp
    1d0a:	c7 45 d4 00 00 00 00 	movl   $0x0,-0x2c(%ebp)
    1d11:	88 c2                	mov    %al,%dl
    1d13:	84 c0                	test   %al,%al
    1d15:	74 10                	je     1d27 <term_update_cursor+0x67>
    1d17:	8b 43 14             	mov    0x14(%ebx),%eax
    1d1a:	8a 50 02             	mov    0x2(%eax),%dl
    1d1d:	31 c0                	xor    %eax,%eax
    1d1f:	84 d2                	test   %dl,%dl
    1d21:	0f 95 c0             	setne  %al
    1d24:	89 45 d4             	mov    %eax,-0x2c(%ebp)
    1d27:	83 ec 0c             	sub    $0xc,%esp
    1d2a:	8b 83 b0 00 00 00    	mov    0xb0(%ebx),%eax
    1d30:	88 55 d3             	mov    %dl,-0x2d(%ebp)
    1d33:	50                   	push   %eax
    1d34:	e8 e7 5f 00 00       	call   7d20 <chargrid_get_cursor_visibility@plt>
    1d39:	8a 55 d3             	mov    -0x2d(%ebp),%dl
    1d3c:	83 c4 10             	add    $0x10,%esp
    1d3f:	31 c9                	xor    %ecx,%ecx
    1d41:	38 c2                	cmp    %al,%dl
    1d43:	74 31                	je     1d76 <term_update_cursor+0xb6>
    1d45:	8b 45 d4             	mov    -0x2c(%ebp),%eax
    1d48:	51                   	push   %ecx
    1d49:	51                   	push   %ecx
    1d4a:	50                   	push   %eax
    1d4b:	8b 83 b0 00 00 00    	mov    0xb0(%ebx),%eax
    1d51:	50                   	push   %eax
    1d52:	e8 f9 5e 00 00       	call   7c50 <chargrid_set_cursor_visibility@plt>
    1d57:	83 c4 0c             	add    $0xc,%esp
    1d5a:	8b 45 e4             	mov    -0x1c(%ebp),%eax
    1d5d:	89 f1                	mov    %esi,%ecx
    1d5f:	89 fa                	mov    %edi,%edx
    1d61:	50                   	push   %eax
    1d62:	8b 45 e0             	mov    -0x20(%ebp),%eax
    1d65:	50                   	push   %eax
    1d66:	8b 45 08             	mov    0x8(%ebp),%eax
    1d69:	50                   	push   %eax
    1d6a:	89 d8                	mov    %ebx,%eax
    1d6c:	e8 2f fa ff ff       	call   17a0 <term_update_char>
    1d71:	83 c4 10             	add    $0x10,%esp
    1d74:	b1 01                	mov    $0x1,%cl
    1d76:	8b 45 d8             	mov    -0x28(%ebp),%eax
    1d79:	8b 55 dc             	mov    -0x24(%ebp),%edx
    1d7c:	3b 45 e0             	cmp    -0x20(%ebp),%eax
    1d7f:	74 57                	je     1dd8 <term_update_cursor+0x118>
    1d81:	51                   	push   %ecx
    1d82:	52                   	push   %edx
    1d83:	50                   	push   %eax
    1d84:	8b 83 b0 00 00 00    	mov    0xb0(%ebx),%eax
    1d8a:	50                   	push   %eax
    1d8b:	e8 d0 5d 00 00       	call   7b60 <chargrid_set_cursor@plt>
    1d90:	83 c4 0c             	add    $0xc,%esp
    1d93:	8b 45 e4             	mov    -0x1c(%ebp),%eax
    1d96:	89 f1                	mov    %esi,%ecx
    1d98:	89 fa                	mov    %edi,%edx
    1d9a:	50                   	push   %eax
    1d9b:	8b 45 e0             	mov    -0x20(%ebp),%eax
    1d9e:	50                   	push   %eax
    1d9f:	8b 45 08             	mov    0x8(%ebp),%eax
    1da2:	50                   	push   %eax
    1da3:	89 d8                	mov    %ebx,%eax
    1da5:	e8 f6 f9 ff ff       	call   17a0 <term_update_char>
    1daa:	83 c4 0c             	add    $0xc,%esp
    1dad:	8b 45 dc             	mov    -0x24(%ebp),%eax
    1db0:	8b 55 08             	mov    0x8(%ebp),%edx
    1db3:	50                   	push   %eax
    1db4:	8b 45 d8             	mov    -0x28(%ebp),%eax
    1db7:	50                   	push   %eax
    1db8:	89 f1                	mov    %esi,%ecx
    1dba:	52                   	push   %edx
    1dbb:	89 d8                	mov    %ebx,%eax
    1dbd:	89 fa                	mov    %edi,%edx
    1dbf:	e8 dc f9 ff ff       	call   17a0 <term_update_char>
    1dc4:	83 c4 10             	add    $0x10,%esp
    1dc7:	b1 01                	mov    $0x1,%cl
    1dc9:	8d 65 f4             	lea    -0xc(%ebp),%esp
    1dcc:	88 c8                	mov    %cl,%al
    1dce:	5b                   	pop    %ebx
    1dcf:	5e                   	pop    %esi
    1dd0:	5f                   	pop    %edi
    1dd1:	5d                   	pop    %ebp
    1dd2:	c3                   	ret    
    1dd3:	90                   	nop
    1dd4:	8d 74 26 00          	lea    0x0(%esi,%eiz,1),%esi
    1dd8:	3b 55 e4             	cmp    -0x1c(%ebp),%edx
    1ddb:	75 a4                	jne    1d81 <term_update_cursor+0xc1>
    1ddd:	eb ea                	jmp    1dc9 <term_update_cursor+0x109>
    1ddf:	90                   	nop

00001de0 <term_update>:
    1de0:	55                   	push   %ebp
    1de1:	89 e5                	mov    %esp,%ebp
    1de3:	57                   	push   %edi
    1de4:	56                   	push   %esi
    1de5:	53                   	push   %ebx
    1de6:	83 ec 58             	sub    $0x58,%esp
    1de9:	89 c7                	mov    %eax,%edi
    1deb:	83 c0 5c             	add    $0x5c,%eax
    1dee:	50                   	push   %eax
    1def:	89 45 ac             	mov    %eax,-0x54(%ebp)
    1df2:	e8 b9 60 00 00       	call   7eb0 <fibril_mutex_lock@plt>
    1df7:	8b 5f 14             	mov    0x14(%edi),%ebx
    1dfa:	59                   	pop    %ecx
    1dfb:	53                   	push   %ebx
    1dfc:	e8 1f 21 00 00       	call   3f20 <window_claim>
    1e01:	83 c4 10             	add    $0x10,%esp
    1e04:	89 45 d4             	mov    %eax,-0x2c(%ebp)
    1e07:	85 c0                	test   %eax,%eax
    1e09:	0f 84 bb 02 00 00    	je     20ca <term_update+0x2ea>
    1e0f:	8b 47 1c             	mov    0x1c(%edi),%eax
    1e12:	83 ec 0c             	sub    $0xc,%esp
    1e15:	89 45 d0             	mov    %eax,-0x30(%ebp)
    1e18:	8b 47 20             	mov    0x20(%edi),%eax
    1e1b:	89 45 cc             	mov    %eax,-0x34(%ebp)
    1e1e:	8b 87 ac 00 00 00    	mov    0xac(%edi),%eax
    1e24:	50                   	push   %eax
    1e25:	e8 b6 5f 00 00       	call   7de0 <chargrid_get_top_row@plt>
    1e2a:	83 c4 10             	add    $0x10,%esp
    1e2d:	3b 87 b4 00 00 00    	cmp    0xb4(%edi),%eax
    1e33:	74 6d                	je     1ea2 <term_update+0xc2>
    1e35:	83 ec 0c             	sub    $0xc,%esp
    1e38:	89 87 b4 00 00 00    	mov    %eax,0xb4(%edi)
    1e3e:	8b 45 cc             	mov    -0x34(%ebp),%eax
    1e41:	8b 4d d0             	mov    -0x30(%ebp),%ecx
    1e44:	50                   	push   %eax
    1e45:	8b 55 d4             	mov    -0x2c(%ebp),%edx
    1e48:	89 f8                	mov    %edi,%eax
    1e4a:	e8 71 fc ff ff       	call   1ac0 <term_update_scroll.part.1>
    1e4f:	83 c4 10             	add    $0x10,%esp
    1e52:	84 c0                	test   %al,%al
    1e54:	74 4c                	je     1ea2 <term_update+0xc2>
    1e56:	83 ec 0c             	sub    $0xc,%esp
    1e59:	8b 4d cc             	mov    -0x34(%ebp),%ecx
    1e5c:	8b 55 d4             	mov    -0x2c(%ebp),%edx
    1e5f:	89 f8                	mov    %edi,%eax
    1e61:	51                   	push   %ecx
    1e62:	8b 4d d0             	mov    -0x30(%ebp),%ecx
    1e65:	e8 56 fe ff ff       	call   1cc0 <term_update_cursor>
    1e6a:	83 c4 10             	add    $0x10,%esp
    1e6d:	83 ec 0c             	sub    $0xc,%esp
    1e70:	8b 5f 14             	mov    0x14(%edi),%ebx
    1e73:	53                   	push   %ebx
    1e74:	e8 d7 20 00 00       	call   3f50 <window_yield>
    1e79:	83 c4 10             	add    $0x10,%esp
    1e7c:	83 ec 0c             	sub    $0xc,%esp
    1e7f:	8b 7f 14             	mov    0x14(%edi),%edi
    1e82:	57                   	push   %edi
    1e83:	e8 e8 1f 00 00       	call   3e70 <window_damage>
    1e88:	83 c4 10             	add    $0x10,%esp
    1e8b:	83 ec 0c             	sub    $0xc,%esp
    1e8e:	8b 75 ac             	mov    -0x54(%ebp),%esi
    1e91:	56                   	push   %esi
    1e92:	e8 e9 5d 00 00       	call   7c80 <fibril_mutex_unlock@plt>
    1e97:	83 c4 10             	add    $0x10,%esp
    1e9a:	8d 65 f4             	lea    -0xc(%ebp),%esp
    1e9d:	5b                   	pop    %ebx
    1e9e:	5e                   	pop    %esi
    1e9f:	5f                   	pop    %edi
    1ea0:	5d                   	pop    %ebp
    1ea1:	c3                   	ret    
    1ea2:	8b 87 a8 00 00 00    	mov    0xa8(%edi),%eax
    1ea8:	85 c0                	test   %eax,%eax
    1eaa:	0f 84 3b 02 00 00    	je     20eb <term_update+0x30b>
    1eb0:	8b b7 a4 00 00 00    	mov    0xa4(%edi),%esi
    1eb6:	c7 45 e0 00 00 00 00 	movl   $0x0,-0x20(%ebp)
    1ebd:	89 75 d8             	mov    %esi,-0x28(%ebp)
    1ec0:	c6 45 cb 00          	movb   $0x0,-0x35(%ebp)
    1ec4:	8d 74 26 00          	lea    0x0(%esi,%eiz,1),%esi
    1ec8:	8b 55 d8             	mov    -0x28(%ebp),%edx
    1ecb:	31 f6                	xor    %esi,%esi
    1ecd:	85 d2                	test   %edx,%edx
    1ecf:	0f 84 61 01 00 00    	je     2036 <term_update+0x256>
    1ed5:	89 7d e4             	mov    %edi,-0x1c(%ebp)
    1ed8:	e9 8a 00 00 00       	jmp    1f67 <term_update+0x187>
    1edd:	8d 76 00             	lea    0x0(%esi),%esi
    1ee0:	89 10                	mov    %edx,(%eax)
    1ee2:	b3 01                	mov    $0x1,%bl
    1ee4:	8b 51 04             	mov    0x4(%ecx),%edx
    1ee7:	3b 50 04             	cmp    0x4(%eax),%edx
    1eea:	0f 85 e8 00 00 00    	jne    1fd8 <term_update+0x1f8>
    1ef0:	8b 79 08             	mov    0x8(%ecx),%edi
    1ef3:	83 fa 01             	cmp    $0x1,%edx
    1ef6:	89 7d c4             	mov    %edi,-0x3c(%ebp)
    1ef9:	8b 79 0c             	mov    0xc(%ecx),%edi
    1efc:	89 7d bc             	mov    %edi,-0x44(%ebp)
    1eff:	8b 79 10             	mov    0x10(%ecx),%edi
    1f02:	89 7d b4             	mov    %edi,-0x4c(%ebp)
    1f05:	8b 78 08             	mov    0x8(%eax),%edi
    1f08:	89 7d c0             	mov    %edi,-0x40(%ebp)
    1f0b:	8b 78 0c             	mov    0xc(%eax),%edi
    1f0e:	89 7d b8             	mov    %edi,-0x48(%ebp)
    1f11:	8b 78 10             	mov    0x10(%eax),%edi
    1f14:	89 7d b0             	mov    %edi,-0x50(%ebp)
    1f17:	0f 84 7b 01 00 00    	je     2098 <term_update+0x2b8>
    1f1d:	0f 82 65 01 00 00    	jb     2088 <term_update+0x2a8>
    1f23:	83 fa 02             	cmp    $0x2,%edx
    1f26:	0f 85 ac 00 00 00    	jne    1fd8 <term_update+0x1f8>
    1f2c:	8b 55 b8             	mov    -0x48(%ebp),%edx
    1f2f:	39 55 bc             	cmp    %edx,-0x44(%ebp)
    1f32:	8b 55 c0             	mov    -0x40(%ebp),%edx
    1f35:	0f 94 45 bc          	sete   -0x44(%ebp)
    1f39:	39 55 c4             	cmp    %edx,-0x3c(%ebp)
    1f3c:	8b 7d bc             	mov    -0x44(%ebp),%edi
    1f3f:	0f 94 c2             	sete   %dl
    1f42:	21 fa                	and    %edi,%edx
    1f44:	84 d2                	test   %dl,%dl
    1f46:	0f 84 8c 00 00 00    	je     1fd8 <term_update+0x1f8>
    1f4c:	8b 45 dc             	mov    -0x24(%ebp),%eax
    1f4f:	83 e0 fe             	and    $0xfffffffe,%eax
    1f52:	84 db                	test   %bl,%bl
    1f54:	89 41 14             	mov    %eax,0x14(%ecx)
    1f57:	0f 85 9c 00 00 00    	jne    1ff9 <term_update+0x219>
    1f5d:	46                   	inc    %esi
    1f5e:	3b 75 d8             	cmp    -0x28(%ebp),%esi
    1f61:	0f 83 c6 00 00 00    	jae    202d <term_update+0x24d>
    1f67:	8b 45 e4             	mov    -0x1c(%ebp),%eax
    1f6a:	8b 7d e0             	mov    -0x20(%ebp),%edi
    1f6d:	31 d2                	xor    %edx,%edx
    1f6f:	8b 88 ac 00 00 00    	mov    0xac(%eax),%ecx
    1f75:	8b 41 2c             	mov    0x2c(%ecx),%eax
    1f78:	01 f8                	add    %edi,%eax
    1f7a:	f7 71 0c             	divl   0xc(%ecx)
    1f7d:	8b 41 08             	mov    0x8(%ecx),%eax
    1f80:	0f af d0             	imul   %eax,%edx
    1f83:	01 f2                	add    %esi,%edx
    1f85:	8d 04 52             	lea    (%edx,%edx,2),%eax
    1f88:	8d 4c c1 30          	lea    0x30(%ecx,%eax,8),%ecx
    1f8c:	8b 59 14             	mov    0x14(%ecx),%ebx
    1f8f:	89 5d dc             	mov    %ebx,-0x24(%ebp)
    1f92:	83 e3 01             	and    $0x1,%ebx
    1f95:	74 c6                	je     1f5d <term_update+0x17d>
    1f97:	8b 45 e4             	mov    -0x1c(%ebp),%eax
    1f9a:	31 d2                	xor    %edx,%edx
    1f9c:	8b 98 b0 00 00 00    	mov    0xb0(%eax),%ebx
    1fa2:	8b 43 2c             	mov    0x2c(%ebx),%eax
    1fa5:	01 f8                	add    %edi,%eax
    1fa7:	f7 73 0c             	divl   0xc(%ebx)
    1faa:	8b 43 08             	mov    0x8(%ebx),%eax
    1fad:	0f af d0             	imul   %eax,%edx
    1fb0:	01 f2                	add    %esi,%edx
    1fb2:	8d 04 52             	lea    (%edx,%edx,2),%eax
    1fb5:	8b 11                	mov    (%ecx),%edx
    1fb7:	8d 44 c3 30          	lea    0x30(%ebx,%eax,8),%eax
    1fbb:	3b 10                	cmp    (%eax),%edx
    1fbd:	0f 85 1d ff ff ff    	jne    1ee0 <term_update+0x100>
    1fc3:	8b 51 04             	mov    0x4(%ecx),%edx
    1fc6:	31 db                	xor    %ebx,%ebx
    1fc8:	3b 50 04             	cmp    0x4(%eax),%edx
    1fcb:	0f 84 1f ff ff ff    	je     1ef0 <term_update+0x110>
    1fd1:	8d b4 26 00 00 00 00 	lea    0x0(%esi,%eiz,1),%esi
    1fd8:	8b 51 04             	mov    0x4(%ecx),%edx
    1fdb:	89 50 04             	mov    %edx,0x4(%eax)
    1fde:	8b 51 08             	mov    0x8(%ecx),%edx
    1fe1:	89 50 08             	mov    %edx,0x8(%eax)
    1fe4:	8b 51 0c             	mov    0xc(%ecx),%edx
    1fe7:	89 50 0c             	mov    %edx,0xc(%eax)
    1fea:	8b 51 10             	mov    0x10(%ecx),%edx
    1fed:	89 50 10             	mov    %edx,0x10(%eax)
    1ff0:	8b 45 dc             	mov    -0x24(%ebp),%eax
    1ff3:	83 e0 fe             	and    $0xfffffffe,%eax
    1ff6:	89 41 14             	mov    %eax,0x14(%ecx)
    1ff9:	8b 7d e0             	mov    -0x20(%ebp),%edi
    1ffc:	8b 45 cc             	mov    -0x34(%ebp),%eax
    1fff:	53                   	push   %ebx
    2000:	57                   	push   %edi
    2001:	8b 7d e4             	mov    -0x1c(%ebp),%edi
    2004:	56                   	push   %esi
    2005:	8b 4d d0             	mov    -0x30(%ebp),%ecx
    2008:	50                   	push   %eax
    2009:	8b 55 d4             	mov    -0x2c(%ebp),%edx
    200c:	89 f8                	mov    %edi,%eax
    200e:	e8 8d f7 ff ff       	call   17a0 <term_update_char>
    2013:	8b 87 a4 00 00 00    	mov    0xa4(%edi),%eax
    2019:	89 45 d8             	mov    %eax,-0x28(%ebp)
    201c:	46                   	inc    %esi
    201d:	83 c4 10             	add    $0x10,%esp
    2020:	c6 45 cb 01          	movb   $0x1,-0x35(%ebp)
    2024:	3b 75 d8             	cmp    -0x28(%ebp),%esi
    2027:	0f 82 3a ff ff ff    	jb     1f67 <term_update+0x187>
    202d:	8b 7d e4             	mov    -0x1c(%ebp),%edi
    2030:	8b 87 a8 00 00 00    	mov    0xa8(%edi),%eax
    2036:	8b 4d e0             	mov    -0x20(%ebp),%ecx
    2039:	41                   	inc    %ecx
    203a:	89 4d e0             	mov    %ecx,-0x20(%ebp)
    203d:	8b 75 e0             	mov    -0x20(%ebp),%esi
    2040:	39 c6                	cmp    %eax,%esi
    2042:	0f 82 80 fe ff ff    	jb     1ec8 <term_update+0xe8>
    2048:	83 ec 0c             	sub    $0xc,%esp
    204b:	8b 45 cc             	mov    -0x34(%ebp),%eax
    204e:	8b 4d d0             	mov    -0x30(%ebp),%ecx
    2051:	8b 55 d4             	mov    -0x2c(%ebp),%edx
    2054:	50                   	push   %eax
    2055:	89 f8                	mov    %edi,%eax
    2057:	e8 64 fc ff ff       	call   1cc0 <term_update_cursor>
    205c:	83 c4 10             	add    $0x10,%esp
    205f:	84 c0                	test   %al,%al
    2061:	0f 85 06 fe ff ff    	jne    1e6d <term_update+0x8d>
    2067:	83 ec 0c             	sub    $0xc,%esp
    206a:	8b 47 14             	mov    0x14(%edi),%eax
    206d:	50                   	push   %eax
    206e:	e8 dd 1e 00 00       	call   3f50 <window_yield>
    2073:	83 c4 10             	add    $0x10,%esp
    2076:	80 7d cb 00          	cmpb   $0x0,-0x35(%ebp)
    207a:	0f 84 0b fe ff ff    	je     1e8b <term_update+0xab>
    2080:	e9 f7 fd ff ff       	jmp    1e7c <term_update+0x9c>
    2085:	8d 76 00             	lea    0x0(%esi),%esi
    2088:	8b 55 c0             	mov    -0x40(%ebp),%edx
    208b:	39 55 c4             	cmp    %edx,-0x3c(%ebp)
    208e:	0f 94 c2             	sete   %dl
    2091:	e9 ae fe ff ff       	jmp    1f44 <term_update+0x164>
    2096:	66 90                	xchg   %ax,%ax
    2098:	8b 55 c0             	mov    -0x40(%ebp),%edx
    209b:	39 55 c4             	cmp    %edx,-0x3c(%ebp)
    209e:	8b 55 b8             	mov    -0x48(%ebp),%edx
    20a1:	0f 94 45 c4          	sete   -0x3c(%ebp)
    20a5:	39 55 bc             	cmp    %edx,-0x44(%ebp)
    20a8:	8b 7d c4             	mov    -0x3c(%ebp),%edi
    20ab:	0f 94 c2             	sete   %dl
    20ae:	21 fa                	and    %edi,%edx
    20b0:	88 55 c4             	mov    %dl,-0x3c(%ebp)
    20b3:	8b 55 b0             	mov    -0x50(%ebp),%edx
    20b6:	39 55 b4             	cmp    %edx,-0x4c(%ebp)
    20b9:	8b 7d c4             	mov    -0x3c(%ebp),%edi
    20bc:	0f 94 45 c0          	sete   -0x40(%ebp)
    20c0:	8a 55 c0             	mov    -0x40(%ebp),%dl
    20c3:	21 fa                	and    %edi,%edx
    20c5:	e9 7a fe ff ff       	jmp    1f44 <term_update+0x164>
    20ca:	83 ec 0c             	sub    $0xc,%esp
    20cd:	8b 47 14             	mov    0x14(%edi),%eax
    20d0:	50                   	push   %eax
    20d1:	e8 7a 1e 00 00       	call   3f50 <window_yield>
    20d6:	8b 55 ac             	mov    -0x54(%ebp),%edx
    20d9:	58                   	pop    %eax
    20da:	52                   	push   %edx
    20db:	e8 a0 5b 00 00       	call   7c80 <fibril_mutex_unlock@plt>
    20e0:	83 c4 10             	add    $0x10,%esp
    20e3:	8d 65 f4             	lea    -0xc(%ebp),%esp
    20e6:	5b                   	pop    %ebx
    20e7:	5e                   	pop    %esi
    20e8:	5f                   	pop    %edi
    20e9:	5d                   	pop    %ebp
    20ea:	c3                   	ret    
    20eb:	83 ec 0c             	sub    $0xc,%esp
    20ee:	8b 45 cc             	mov    -0x34(%ebp),%eax
    20f1:	8b 4d d0             	mov    -0x30(%ebp),%ecx
    20f4:	8b 55 d4             	mov    -0x2c(%ebp),%edx
    20f7:	50                   	push   %eax
    20f8:	89 f8                	mov    %edi,%eax
    20fa:	e8 c1 fb ff ff       	call   1cc0 <term_update_cursor>
    20ff:	83 c4 10             	add    $0x10,%esp
    2102:	84 c0                	test   %al,%al
    2104:	0f 85 63 fd ff ff    	jne    1e6d <term_update+0x8d>
    210a:	83 ec 0c             	sub    $0xc,%esp
    210d:	8b 57 14             	mov    0x14(%edi),%edx
    2110:	52                   	push   %edx
    2111:	e8 3a 1e 00 00       	call   3f50 <window_yield>
    2116:	83 c4 10             	add    $0x10,%esp
    2119:	e9 6d fd ff ff       	jmp    1e8b <term_update+0xab>
    211e:	66 90                	xchg   %ax,%ax

00002120 <term_set_cursor_visibility>:
    2120:	55                   	push   %ebp
    2121:	89 e5                	mov    %esp,%ebp
    2123:	57                   	push   %edi
    2124:	56                   	push   %esi
    2125:	53                   	push   %ebx
    2126:	83 ec 18             	sub    $0x18,%esp
    2129:	8b 45 08             	mov    0x8(%ebp),%eax
    212c:	8b 75 0c             	mov    0xc(%ebp),%esi
    212f:	8b 00                	mov    (%eax),%eax
    2131:	8b 58 04             	mov    0x4(%eax),%ebx
    2134:	8d 7b 5c             	lea    0x5c(%ebx),%edi
    2137:	57                   	push   %edi
    2138:	e8 73 5d 00 00       	call   7eb0 <fibril_mutex_lock@plt>
    213d:	58                   	pop    %eax
    213e:	89 f0                	mov    %esi,%eax
    2140:	25 ff 00 00 00       	and    $0xff,%eax
    2145:	5a                   	pop    %edx
    2146:	50                   	push   %eax
    2147:	8b 8b ac 00 00 00    	mov    0xac(%ebx),%ecx
    214d:	51                   	push   %ecx
    214e:	e8 fd 5a 00 00       	call   7c50 <chargrid_set_cursor_visibility@plt>
    2153:	89 3c 24             	mov    %edi,(%esp)
    2156:	e8 25 5b 00 00       	call   7c80 <fibril_mutex_unlock@plt>
    215b:	83 c4 10             	add    $0x10,%esp
    215e:	8d 65 f4             	lea    -0xc(%ebp),%esp
    2161:	89 d8                	mov    %ebx,%eax
    2163:	5b                   	pop    %ebx
    2164:	5e                   	pop    %esi
    2165:	5f                   	pop    %edi
    2166:	5d                   	pop    %ebp
    2167:	e9 74 fc ff ff       	jmp    1de0 <term_update>
    216c:	8d 74 26 00          	lea    0x0(%esi,%eiz,1),%esi

00002170 <term_clear>:
    2170:	55                   	push   %ebp
    2171:	89 e5                	mov    %esp,%ebp
    2173:	56                   	push   %esi
    2174:	53                   	push   %ebx
    2175:	8b 45 08             	mov    0x8(%ebp),%eax
    2178:	83 ec 0c             	sub    $0xc,%esp
    217b:	8b 00                	mov    (%eax),%eax
    217d:	8b 58 04             	mov    0x4(%eax),%ebx
    2180:	8d 73 5c             	lea    0x5c(%ebx),%esi
    2183:	56                   	push   %esi
    2184:	e8 27 5d 00 00       	call   7eb0 <fibril_mutex_lock@plt>
    2189:	8b 93 ac 00 00 00    	mov    0xac(%ebx),%edx
    218f:	58                   	pop    %eax
    2190:	52                   	push   %edx
    2191:	e8 2a 5a 00 00       	call   7bc0 <chargrid_clear@plt>
    2196:	89 34 24             	mov    %esi,(%esp)
    2199:	e8 e2 5a 00 00       	call   7c80 <fibril_mutex_unlock@plt>
    219e:	83 c4 10             	add    $0x10,%esp
    21a1:	8d 65 f8             	lea    -0x8(%ebp),%esp
    21a4:	89 d8                	mov    %ebx,%eax
    21a6:	5b                   	pop    %ebx
    21a7:	5e                   	pop    %esi
    21a8:	5d                   	pop    %ebp
    21a9:	e9 32 fc ff ff       	jmp    1de0 <term_update>
    21ae:	66 90                	xchg   %ax,%ax

000021b0 <term_sync>:
    21b0:	55                   	push   %ebp
    21b1:	89 e5                	mov    %esp,%ebp
    21b3:	8b 45 08             	mov    0x8(%ebp),%eax
    21b6:	5d                   	pop    %ebp
    21b7:	8b 00                	mov    (%eax),%eax
    21b9:	8b 40 04             	mov    0x4(%eax),%eax
    21bc:	e9 1f fc ff ff       	jmp    1de0 <term_update>
    21c1:	eb 0d                	jmp    21d0 <term_set_pos>
    21c3:	90                   	nop
    21c4:	90                   	nop
    21c5:	90                   	nop
    21c6:	90                   	nop
    21c7:	90                   	nop
    21c8:	90                   	nop
    21c9:	90                   	nop
    21ca:	90                   	nop
    21cb:	90                   	nop
    21cc:	90                   	nop
    21cd:	90                   	nop
    21ce:	90                   	nop
    21cf:	90                   	nop

000021d0 <term_set_pos>:
    21d0:	55                   	push   %ebp
    21d1:	89 e5                	mov    %esp,%ebp
    21d3:	57                   	push   %edi
    21d4:	56                   	push   %esi
    21d5:	53                   	push   %ebx
    21d6:	83 ec 28             	sub    $0x28,%esp
    21d9:	8b 55 08             	mov    0x8(%ebp),%edx
    21dc:	8b 45 10             	mov    0x10(%ebp),%eax
    21df:	8b 7d 0c             	mov    0xc(%ebp),%edi
    21e2:	89 45 e4             	mov    %eax,-0x1c(%ebp)
    21e5:	8b 12                	mov    (%edx),%edx
    21e7:	8b 5a 04             	mov    0x4(%edx),%ebx
    21ea:	8d 73 5c             	lea    0x5c(%ebx),%esi
    21ed:	56                   	push   %esi
    21ee:	e8 bd 5c 00 00       	call   7eb0 <fibril_mutex_lock@plt>
    21f3:	83 c4 0c             	add    $0xc,%esp
    21f6:	8b 45 e4             	mov    -0x1c(%ebp),%eax
    21f9:	50                   	push   %eax
    21fa:	57                   	push   %edi
    21fb:	8b 83 ac 00 00 00    	mov    0xac(%ebx),%eax
    2201:	50                   	push   %eax
    2202:	e8 59 59 00 00       	call   7b60 <chargrid_set_cursor@plt>
    2207:	89 34 24             	mov    %esi,(%esp)
    220a:	e8 71 5a 00 00       	call   7c80 <fibril_mutex_unlock@plt>
    220f:	83 c4 10             	add    $0x10,%esp
    2212:	8d 65 f4             	lea    -0xc(%ebp),%esp
    2215:	89 d8                	mov    %ebx,%eax
    2217:	5b                   	pop    %ebx
    2218:	5e                   	pop    %esi
    2219:	5f                   	pop    %edi
    221a:	5d                   	pop    %ebp
    221b:	e9 c0 fb ff ff       	jmp    1de0 <term_update>

00002220 <term_write>:
    2220:	55                   	push   %ebp
    2221:	89 e5                	mov    %esp,%ebp
    2223:	57                   	push   %edi
    2224:	56                   	push   %esi
    2225:	53                   	push   %ebx
    2226:	83 ec 2c             	sub    $0x2c,%esp
    2229:	c7 45 e4 00 00 00 00 	movl   $0x0,-0x1c(%ebp)
    2230:	8b 45 08             	mov    0x8(%ebp),%eax
    2233:	8b 75 10             	mov    0x10(%ebp),%esi
    2236:	8b 00                	mov    (%eax),%eax
    2238:	8b 78 04             	mov    0x4(%eax),%edi
    223b:	31 c0                	xor    %eax,%eax
    223d:	8d 76 00             	lea    0x0(%esi),%esi
    2240:	8d 5f 5c             	lea    0x5c(%edi),%ebx
    2243:	39 c6                	cmp    %eax,%esi
    2245:	76 48                	jbe    228f <term_write+0x6f>
    2247:	50                   	push   %eax
    2248:	8d 45 e4             	lea    -0x1c(%ebp),%eax
    224b:	56                   	push   %esi
    224c:	50                   	push   %eax
    224d:	8b 45 0c             	mov    0xc(%ebp),%eax
    2250:	50                   	push   %eax
    2251:	e8 4a 59 00 00       	call   7ba0 <str_decode@plt>
    2256:	89 1c 24             	mov    %ebx,(%esp)
    2259:	89 45 d4             	mov    %eax,-0x2c(%ebp)
    225c:	e8 4f 5c 00 00       	call   7eb0 <fibril_mutex_lock@plt>
    2261:	8b 45 d4             	mov    -0x2c(%ebp),%eax
    2264:	83 c4 10             	add    $0x10,%esp
    2267:	83 f8 09             	cmp    $0x9,%eax
    226a:	74 74                	je     22e0 <term_write+0xc0>
    226c:	7e 32                	jle    22a0 <term_write+0x80>
    226e:	83 f8 0a             	cmp    $0xa,%eax
    2271:	0f 84 99 00 00 00    	je     2310 <term_write+0xf0>
    2277:	83 f8 0d             	cmp    $0xd,%eax
    227a:	75 7c                	jne    22f8 <term_write+0xd8>
    227c:	83 ec 0c             	sub    $0xc,%esp
    227f:	53                   	push   %ebx
    2280:	e8 fb 59 00 00       	call   7c80 <fibril_mutex_unlock@plt>
    2285:	83 c4 10             	add    $0x10,%esp
    2288:	8b 45 e4             	mov    -0x1c(%ebp),%eax
    228b:	39 c6                	cmp    %eax,%esi
    228d:	77 b8                	ja     2247 <term_write+0x27>
    228f:	8d 65 f4             	lea    -0xc(%ebp),%esp
    2292:	89 f0                	mov    %esi,%eax
    2294:	5b                   	pop    %ebx
    2295:	5e                   	pop    %esi
    2296:	5f                   	pop    %edi
    2297:	5d                   	pop    %ebp
    2298:	c3                   	ret    
    2299:	8d b4 26 00 00 00 00 	lea    0x0(%esi,%eiz,1),%esi
    22a0:	83 f8 08             	cmp    $0x8,%eax
    22a3:	75 53                	jne    22f8 <term_write+0xd8>
    22a5:	83 ec 0c             	sub    $0xc,%esp
    22a8:	8b 87 ac 00 00 00    	mov    0xac(%edi),%eax
    22ae:	50                   	push   %eax
    22af:	e8 dc 58 00 00       	call   7b90 <chargrid_backspace@plt>
    22b4:	83 c4 10             	add    $0x10,%esp
    22b7:	83 ec 0c             	sub    $0xc,%esp
    22ba:	89 45 d4             	mov    %eax,-0x2c(%ebp)
    22bd:	53                   	push   %ebx
    22be:	e8 bd 59 00 00       	call   7c80 <fibril_mutex_unlock@plt>
    22c3:	8b 45 d4             	mov    -0x2c(%ebp),%eax
    22c6:	83 c4 10             	add    $0x10,%esp
    22c9:	83 f8 01             	cmp    $0x1,%eax
    22cc:	76 ba                	jbe    2288 <term_write+0x68>
    22ce:	89 f8                	mov    %edi,%eax
    22d0:	e8 0b fb ff ff       	call   1de0 <term_update>
    22d5:	8b 45 e4             	mov    -0x1c(%ebp),%eax
    22d8:	e9 63 ff ff ff       	jmp    2240 <term_write+0x20>
    22dd:	8d 76 00             	lea    0x0(%esi),%esi
    22e0:	50                   	push   %eax
    22e1:	50                   	push   %eax
    22e2:	8b 87 ac 00 00 00    	mov    0xac(%edi),%eax
    22e8:	6a 08                	push   $0x8
    22ea:	50                   	push   %eax
    22eb:	e8 80 5a 00 00       	call   7d70 <chargrid_tabstop@plt>
    22f0:	83 c4 10             	add    $0x10,%esp
    22f3:	eb c2                	jmp    22b7 <term_write+0x97>
    22f5:	8d 76 00             	lea    0x0(%esi),%esi
    22f8:	52                   	push   %edx
    22f9:	6a 01                	push   $0x1
    22fb:	8b 8f ac 00 00 00    	mov    0xac(%edi),%ecx
    2301:	50                   	push   %eax
    2302:	51                   	push   %ecx
    2303:	e8 88 5b 00 00       	call   7e90 <chargrid_putchar@plt>
    2308:	83 c4 10             	add    $0x10,%esp
    230b:	eb aa                	jmp    22b7 <term_write+0x97>
    230d:	8d 76 00             	lea    0x0(%esi),%esi
    2310:	83 ec 0c             	sub    $0xc,%esp
    2313:	8b 87 ac 00 00 00    	mov    0xac(%edi),%eax
    2319:	50                   	push   %eax
    231a:	e8 31 5a 00 00       	call   7d50 <chargrid_newline@plt>
    231f:	83 c4 10             	add    $0x10,%esp
    2322:	eb 93                	jmp    22b7 <term_write+0x97>
    2324:	8d b6 00 00 00 00    	lea    0x0(%esi),%esi
    232a:	8d bf 00 00 00 00    	lea    0x0(%edi),%edi

00002330 <term_damage>:
    2330:	55                   	push   %ebp
    2331:	89 e5                	mov    %esp,%ebp
    2333:	57                   	push   %edi
    2334:	56                   	push   %esi
    2335:	53                   	push   %ebx
    2336:	83 ec 38             	sub    $0x38,%esp
    2339:	89 c6                	mov    %eax,%esi
    233b:	83 c0 5c             	add    $0x5c,%eax
    233e:	50                   	push   %eax
    233f:	89 45 d4             	mov    %eax,-0x2c(%ebp)
    2342:	e8 69 5b 00 00       	call   7eb0 <fibril_mutex_lock@plt>
    2347:	8b 46 14             	mov    0x14(%esi),%eax
    234a:	5f                   	pop    %edi
    234b:	50                   	push   %eax
    234c:	e8 cf 1b 00 00       	call   3f20 <window_claim>
    2351:	83 c4 10             	add    $0x10,%esp
    2354:	89 45 e0             	mov    %eax,-0x20(%ebp)
    2357:	85 c0                	test   %eax,%eax
    2359:	0f 84 70 01 00 00    	je     24cf <term_damage+0x19f>
    235f:	8b 46 1c             	mov    0x1c(%esi),%eax
    2362:	83 ec 0c             	sub    $0xc,%esp
    2365:	89 45 dc             	mov    %eax,-0x24(%ebp)
    2368:	8b 96 ac 00 00 00    	mov    0xac(%esi),%edx
    236e:	8b 46 20             	mov    0x20(%esi),%eax
    2371:	52                   	push   %edx
    2372:	89 45 d8             	mov    %eax,-0x28(%ebp)
    2375:	e8 66 5a 00 00       	call   7de0 <chargrid_get_top_row@plt>
    237a:	83 c4 10             	add    $0x10,%esp
    237d:	3b 86 b4 00 00 00    	cmp    0xb4(%esi),%eax
    2383:	74 5e                	je     23e3 <term_damage+0xb3>
    2385:	83 ec 0c             	sub    $0xc,%esp
    2388:	89 86 b4 00 00 00    	mov    %eax,0xb4(%esi)
    238e:	8b 45 d8             	mov    -0x28(%ebp),%eax
    2391:	8b 4d dc             	mov    -0x24(%ebp),%ecx
    2394:	50                   	push   %eax
    2395:	8b 55 e0             	mov    -0x20(%ebp),%edx
    2398:	89 f0                	mov    %esi,%eax
    239a:	e8 21 f7 ff ff       	call   1ac0 <term_update_scroll.part.1>
    239f:	83 c4 10             	add    $0x10,%esp
    23a2:	84 c0                	test   %al,%al
    23a4:	74 3d                	je     23e3 <term_damage+0xb3>
    23a6:	83 ec 0c             	sub    $0xc,%esp
    23a9:	8b 45 d8             	mov    -0x28(%ebp),%eax
    23ac:	8b 4d dc             	mov    -0x24(%ebp),%ecx
    23af:	8b 55 e0             	mov    -0x20(%ebp),%edx
    23b2:	50                   	push   %eax
    23b3:	89 f0                	mov    %esi,%eax
    23b5:	e8 06 f9 ff ff       	call   1cc0 <term_update_cursor>
    23ba:	8b 4e 14             	mov    0x14(%esi),%ecx
    23bd:	5a                   	pop    %edx
    23be:	51                   	push   %ecx
    23bf:	e8 8c 1b 00 00       	call   3f50 <window_yield>
    23c4:	8b 76 14             	mov    0x14(%esi),%esi
    23c7:	5b                   	pop    %ebx
    23c8:	56                   	push   %esi
    23c9:	e8 a2 1a 00 00       	call   3e70 <window_damage>
    23ce:	8b 45 d4             	mov    -0x2c(%ebp),%eax
    23d1:	5f                   	pop    %edi
    23d2:	50                   	push   %eax
    23d3:	e8 a8 58 00 00       	call   7c80 <fibril_mutex_unlock@plt>
    23d8:	83 c4 10             	add    $0x10,%esp
    23db:	8d 65 f4             	lea    -0xc(%ebp),%esp
    23de:	5b                   	pop    %ebx
    23df:	5e                   	pop    %esi
    23e0:	5f                   	pop    %edi
    23e1:	5d                   	pop    %ebp
    23e2:	c3                   	ret    
    23e3:	8b 96 a8 00 00 00    	mov    0xa8(%esi),%edx
    23e9:	85 d2                	test   %edx,%edx
    23eb:	74 b9                	je     23a6 <term_damage+0x76>
    23ed:	8b 86 a4 00 00 00    	mov    0xa4(%esi),%eax
    23f3:	31 db                	xor    %ebx,%ebx
    23f5:	c7 45 e4 00 00 00 00 	movl   $0x0,-0x1c(%ebp)
    23fc:	85 c0                	test   %eax,%eax
    23fe:	0f 84 b8 00 00 00    	je     24bc <term_damage+0x18c>
    2404:	8d 74 26 00          	lea    0x0(%esi,%eiz,1),%esi
    2408:	8b 8e ac 00 00 00    	mov    0xac(%esi),%ecx
    240e:	8b 45 e4             	mov    -0x1c(%ebp),%eax
    2411:	31 d2                	xor    %edx,%edx
    2413:	8b 79 2c             	mov    0x2c(%ecx),%edi
    2416:	01 f8                	add    %edi,%eax
    2418:	8b be b0 00 00 00    	mov    0xb0(%esi),%edi
    241e:	f7 71 0c             	divl   0xc(%ecx)
    2421:	8b 41 08             	mov    0x8(%ecx),%eax
    2424:	0f af d0             	imul   %eax,%edx
    2427:	01 da                	add    %ebx,%edx
    2429:	8d 04 52             	lea    (%edx,%edx,2),%eax
    242c:	8b 57 2c             	mov    0x2c(%edi),%edx
    242f:	8d 4c c1 30          	lea    0x30(%ecx,%eax,8),%ecx
    2433:	8b 45 e4             	mov    -0x1c(%ebp),%eax
    2436:	01 d0                	add    %edx,%eax
    2438:	31 d2                	xor    %edx,%edx
    243a:	f7 77 0c             	divl   0xc(%edi)
    243d:	8b 47 08             	mov    0x8(%edi),%eax
    2440:	0f af d0             	imul   %eax,%edx
    2443:	01 da                	add    %ebx,%edx
    2445:	8d 04 52             	lea    (%edx,%edx,2),%eax
    2448:	8b 11                	mov    (%ecx),%edx
    244a:	8d 44 c7 30          	lea    0x30(%edi,%eax,8),%eax
    244e:	89 10                	mov    %edx,(%eax)
    2450:	8b 51 04             	mov    0x4(%ecx),%edx
    2453:	89 50 04             	mov    %edx,0x4(%eax)
    2456:	8b 51 08             	mov    0x8(%ecx),%edx
    2459:	89 50 08             	mov    %edx,0x8(%eax)
    245c:	8b 51 0c             	mov    0xc(%ecx),%edx
    245f:	89 50 0c             	mov    %edx,0xc(%eax)
    2462:	8b 51 10             	mov    0x10(%ecx),%edx
    2465:	89 50 10             	mov    %edx,0x10(%eax)
    2468:	8b 41 14             	mov    0x14(%ecx),%eax
    246b:	83 e0 fe             	and    $0xfffffffe,%eax
    246e:	8b 55 e0             	mov    -0x20(%ebp),%edx
    2471:	89 41 14             	mov    %eax,0x14(%ecx)
    2474:	50                   	push   %eax
    2475:	8b 45 e4             	mov    -0x1c(%ebp),%eax
    2478:	8b 4d dc             	mov    -0x24(%ebp),%ecx
    247b:	50                   	push   %eax
    247c:	8b 45 d8             	mov    -0x28(%ebp),%eax
    247f:	53                   	push   %ebx
    2480:	50                   	push   %eax
    2481:	89 f0                	mov    %esi,%eax
    2483:	43                   	inc    %ebx
    2484:	e8 17 f3 ff ff       	call   17a0 <term_update_char>
    2489:	8b 86 a4 00 00 00    	mov    0xa4(%esi),%eax
    248f:	83 c4 10             	add    $0x10,%esp
    2492:	39 d8                	cmp    %ebx,%eax
    2494:	0f 87 6e ff ff ff    	ja     2408 <term_damage+0xd8>
    249a:	8b 96 a8 00 00 00    	mov    0xa8(%esi),%edx
    24a0:	8b 5d e4             	mov    -0x1c(%ebp),%ebx
    24a3:	43                   	inc    %ebx
    24a4:	89 5d e4             	mov    %ebx,-0x1c(%ebp)
    24a7:	8b 7d e4             	mov    -0x1c(%ebp),%edi
    24aa:	39 d7                	cmp    %edx,%edi
    24ac:	0f 83 f4 fe ff ff    	jae    23a6 <term_damage+0x76>
    24b2:	31 db                	xor    %ebx,%ebx
    24b4:	85 c0                	test   %eax,%eax
    24b6:	0f 85 4c ff ff ff    	jne    2408 <term_damage+0xd8>
    24bc:	8b 4d e4             	mov    -0x1c(%ebp),%ecx
    24bf:	41                   	inc    %ecx
    24c0:	89 4d e4             	mov    %ecx,-0x1c(%ebp)
    24c3:	8b 5d e4             	mov    -0x1c(%ebp),%ebx
    24c6:	39 da                	cmp    %ebx,%edx
    24c8:	77 d6                	ja     24a0 <term_damage+0x170>
    24ca:	e9 d7 fe ff ff       	jmp    23a6 <term_damage+0x76>
    24cf:	83 ec 0c             	sub    $0xc,%esp
    24d2:	8b 4e 14             	mov    0x14(%esi),%ecx
    24d5:	51                   	push   %ecx
    24d6:	e8 75 1a 00 00       	call   3f50 <window_yield>
    24db:	8b 75 d4             	mov    -0x2c(%ebp),%esi
    24de:	5b                   	pop    %ebx
    24df:	56                   	push   %esi
    24e0:	e8 9b 57 00 00       	call   7c80 <fibril_mutex_unlock@plt>
    24e5:	83 c4 10             	add    $0x10,%esp
    24e8:	8d 65 f4             	lea    -0xc(%ebp),%esp
    24eb:	5b                   	pop    %ebx
    24ec:	5e                   	pop    %esi
    24ed:	5f                   	pop    %edi
    24ee:	5d                   	pop    %ebp
    24ef:	c3                   	ret    

000024f0 <terminal_repaint>:
    24f0:	55                   	push   %ebp
    24f1:	89 e5                	mov    %esp,%ebp
    24f3:	8b 45 08             	mov    0x8(%ebp),%eax
    24f6:	5d                   	pop    %ebp
    24f7:	e9 34 fe ff ff       	jmp    2330 <term_damage>
    24fc:	8d 74 26 00          	lea    0x0(%esi,%eiz,1),%esi

00002500 <terminal_rearrange>:
    2500:	55                   	push   %ebp
    2501:	89 e5                	mov    %esp,%ebp
    2503:	57                   	push   %edi
    2504:	56                   	push   %esi
    2505:	53                   	push   %ebx
    2506:	83 ec 18             	sub    $0x18,%esp
    2509:	8b 5d 08             	mov    0x8(%ebp),%ebx
    250c:	8b 7d 14             	mov    0x14(%ebp),%edi
    250f:	8b 75 18             	mov    0x18(%ebp),%esi
    2512:	8b 45 10             	mov    0x10(%ebp),%eax
    2515:	8b 55 0c             	mov    0xc(%ebp),%edx
    2518:	56                   	push   %esi
    2519:	57                   	push   %edi
    251a:	50                   	push   %eax
    251b:	52                   	push   %edx
    251c:	53                   	push   %ebx
    251d:	e8 7e 05 00 00       	call   2aa0 <widget_modify>
    2522:	89 7b 34             	mov    %edi,0x34(%ebx)
    2525:	89 73 38             	mov    %esi,0x38(%ebx)
    2528:	83 c4 20             	add    $0x20,%esp
    252b:	8d 65 f4             	lea    -0xc(%ebp),%esp
    252e:	89 d8                	mov    %ebx,%eax
    2530:	5b                   	pop    %ebx
    2531:	5e                   	pop    %esi
    2532:	5f                   	pop    %edi
    2533:	5d                   	pop    %ebp
    2534:	e9 f7 fd ff ff       	jmp    2330 <term_damage>
    2539:	8d b4 26 00 00 00 00 	lea    0x0(%esi,%eiz,1),%esi

00002540 <deinit_terminal>:
    2540:	55                   	push   %ebp
    2541:	89 e5                	mov    %esp,%ebp
    2543:	53                   	push   %ebx
    2544:	50                   	push   %eax
    2545:	8b 5d 08             	mov    0x8(%ebp),%ebx
    2548:	8b 53 6c             	mov    0x6c(%ebx),%edx
    254b:	85 d2                	test   %edx,%edx
    254d:	74 0f                	je     255e <deinit_terminal+0x1e>
    254f:	8b 43 70             	mov    0x70(%ebx),%eax
    2552:	85 c0                	test   %eax,%eax
    2554:	74 08                	je     255e <deinit_terminal+0x1e>
    2556:	89 10                	mov    %edx,(%eax)
    2558:	8b 53 6c             	mov    0x6c(%ebx),%edx
    255b:	89 42 04             	mov    %eax,0x4(%edx)
    255e:	83 ec 0c             	sub    $0xc,%esp
    2561:	c7 43 6c 00 00 00 00 	movl   $0x0,0x6c(%ebx)
    2568:	c7 43 70 00 00 00 00 	movl   $0x0,0x70(%ebx)
    256f:	53                   	push   %ebx
    2570:	e8 5b 05 00 00       	call   2ad0 <widget_deinit>
    2575:	8b 83 ac 00 00 00    	mov    0xac(%ebx),%eax
    257b:	83 c4 10             	add    $0x10,%esp
    257e:	85 c0                	test   %eax,%eax
    2580:	74 0c                	je     258e <deinit_terminal+0x4e>
    2582:	83 ec 0c             	sub    $0xc,%esp
    2585:	50                   	push   %eax
    2586:	e8 25 58 00 00       	call   7db0 <chargrid_destroy@plt>
    258b:	83 c4 10             	add    $0x10,%esp
    258e:	8b 83 b0 00 00 00    	mov    0xb0(%ebx),%eax
    2594:	85 c0                	test   %eax,%eax
    2596:	74 10                	je     25a8 <deinit_terminal+0x68>
    2598:	8b 5d fc             	mov    -0x4(%ebp),%ebx
    259b:	89 45 08             	mov    %eax,0x8(%ebp)
    259e:	c9                   	leave  
    259f:	e9 0c 58 00 00       	jmp    7db0 <chargrid_destroy@plt>
    25a4:	8d 74 26 00          	lea    0x0(%esi,%eiz,1),%esi
    25a8:	8b 5d fc             	mov    -0x4(%ebp),%ebx
    25ab:	c9                   	leave  
    25ac:	c3                   	ret    
    25ad:	8d 76 00             	lea    0x0(%esi),%esi

000025b0 <init_terminal>:
    25b0:	55                   	push   %ebp
    25b1:	89 e5                	mov    %esp,%ebp
    25b3:	57                   	push   %edi
    25b4:	56                   	push   %esi
    25b5:	53                   	push   %ebx
    25b6:	81 ec 10 01 00 00    	sub    $0x110,%esp
    25bc:	8b 5d 08             	mov    0x8(%ebp),%ebx
    25bf:	8b 45 10             	mov    0x10(%ebp),%eax
    25c2:	50                   	push   %eax
    25c3:	8b 45 0c             	mov    0xc(%ebp),%eax
    25c6:	50                   	push   %eax
    25c7:	8b 75 14             	mov    0x14(%ebp),%esi
    25ca:	53                   	push   %ebx
    25cb:	8b 7d 18             	mov    0x18(%ebp),%edi
    25ce:	e8 2d 04 00 00       	call   2a00 <widget_init>
    25d3:	8d 43 5c             	lea    0x5c(%ebx),%eax
    25d6:	c7 43 6c 00 00 00 00 	movl   $0x0,0x6c(%ebx)
    25dd:	c7 43 70 00 00 00 00 	movl   $0x0,0x70(%ebx)
    25e4:	89 04 24             	mov    %eax,(%esp)
    25e7:	e8 b4 56 00 00       	call   7ca0 <fibril_mutex_initialize@plt>
    25ec:	8d 43 78             	lea    0x78(%ebx),%eax
    25ef:	c7 43 74 00 00 00 00 	movl   $0x0,0x74(%ebx)
    25f6:	89 04 24             	mov    %eax,(%esp)
    25f9:	e8 e2 56 00 00       	call   7ce0 <prodcons_initialize@plt>
    25fe:	83 c4 0c             	add    $0xc,%esp
    2601:	89 73 24             	mov    %esi,0x24(%ebx)
    2604:	89 7b 28             	mov    %edi,0x28(%ebx)
    2607:	89 73 34             	mov    %esi,0x34(%ebx)
    260a:	89 7b 38             	mov    %edi,0x38(%ebx)
    260d:	c7 83 a0 00 00 00 00 	movl   $0x0,0xa0(%ebx)
    2614:	00 00 00 
    2617:	c1 ee 03             	shr    $0x3,%esi
    261a:	c7 43 44 30 17 00 00 	movl   $0x1730,0x44(%ebx)
    2621:	c1 ef 04             	shr    $0x4,%edi
    2624:	c7 43 48 a0 12 00 00 	movl   $0x12a0,0x48(%ebx)
    262b:	c7 43 4c 00 25 00 00 	movl   $0x2500,0x4c(%ebx)
    2632:	c7 43 50 f0 24 00 00 	movl   $0x24f0,0x50(%ebx)
    2639:	c7 43 54 c0 16 00 00 	movl   $0x16c0,0x54(%ebx)
    2640:	c7 43 58 20 16 00 00 	movl   $0x1620,0x58(%ebx)
    2647:	89 b3 a4 00 00 00    	mov    %esi,0xa4(%ebx)
    264d:	89 bb a8 00 00 00    	mov    %edi,0xa8(%ebx)
    2653:	c7 83 ac 00 00 00 00 	movl   $0x0,0xac(%ebx)
    265a:	00 00 00 
    265d:	c7 83 b0 00 00 00 00 	movl   $0x0,0xb0(%ebx)
    2664:	00 00 00 
    2667:	6a 00                	push   $0x0
    2669:	57                   	push   %edi
    266a:	56                   	push   %esi
    266b:	e8 e0 54 00 00       	call   7b50 <chargrid_create@plt>
    2670:	83 c4 10             	add    $0x10,%esp
    2673:	89 83 ac 00 00 00    	mov    %eax,0xac(%ebx)
    2679:	85 c0                	test   %eax,%eax
    267b:	0f 84 27 01 00 00    	je     27a8 <init_terminal+0x1f8>
    2681:	51                   	push   %ecx
    2682:	6a 00                	push   $0x0
    2684:	8b b3 a8 00 00 00    	mov    0xa8(%ebx),%esi
    268a:	56                   	push   %esi
    268b:	8b bb a4 00 00 00    	mov    0xa4(%ebx),%edi
    2691:	57                   	push   %edi
    2692:	e8 b9 54 00 00       	call   7b50 <chargrid_create@plt>
    2697:	83 c4 10             	add    $0x10,%esp
    269a:	89 83 b0 00 00 00    	mov    %eax,0xb0(%ebx)
    26a0:	85 c0                	test   %eax,%eax
    26a2:	0f 84 00 01 00 00    	je     27a8 <init_terminal+0x1f8>
    26a8:	83 ec 0c             	sub    $0xc,%esp
    26ab:	8b b3 ac 00 00 00    	mov    0xac(%ebx),%esi
    26b1:	56                   	push   %esi
    26b2:	e8 09 55 00 00       	call   7bc0 <chargrid_clear@plt>
    26b7:	8b 83 b0 00 00 00    	mov    0xb0(%ebx),%eax
    26bd:	5f                   	pop    %edi
    26be:	50                   	push   %eax
    26bf:	e8 fc 54 00 00       	call   7bc0 <chargrid_clear@plt>
    26c4:	c7 83 b4 00 00 00 00 	movl   $0x0,0xb4(%ebx)
    26cb:	00 00 00 
    26ce:	58                   	pop    %eax
    26cf:	5a                   	pop    %edx
    26d0:	6a 00                	push   $0x0
    26d2:	68 80 15 00 00       	push   $0x1580
    26d7:	e8 74 57 00 00       	call   7e50 <async_set_fallback_port_handler@plt>
    26dc:	8d 83 bc 00 00 00    	lea    0xbc(%ebx),%eax
    26e2:	89 04 24             	mov    %eax,(%esp)
    26e5:	e8 e6 55 00 00       	call   7cd0 <con_srvs_init@plt>
    26ea:	c7 83 bc 00 00 00 00 	movl   $0x9a00,0xbc(%ebx)
    26f1:	9a 00 00 
    26f4:	89 9b c0 00 00 00    	mov    %ebx,0xc0(%ebx)
    26fa:	c7 04 24 13 77 00 00 	movl   $0x7713,(%esp)
    2701:	e8 8a 56 00 00       	call   7d90 <loc_server_register@plt>
    2706:	83 c4 10             	add    $0x10,%esp
    2709:	85 c0                	test   %eax,%eax
    270b:	0f 85 97 00 00 00    	jne    27a8 <init_terminal+0x1f8>
    2711:	e8 ea 55 00 00       	call   7d00 <task_get_id@plt>
    2716:	8d b5 e8 fe ff ff    	lea    -0x118(%ebp),%esi
    271c:	51                   	push   %ecx
    271d:	51                   	push   %ecx
    271e:	52                   	push   %edx
    271f:	50                   	push   %eax
    2720:	68 13 77 00 00       	push   $0x7713
    2725:	68 7c 77 00 00       	push   $0x777c
    272a:	68 ff 00 00 00       	push   $0xff
    272f:	56                   	push   %esi
    2730:	e8 3b 54 00 00       	call   7b70 <snprintf@plt>
    2735:	83 c4 18             	add    $0x18,%esp
    2738:	8d 83 b8 00 00 00    	lea    0xb8(%ebx),%eax
    273e:	50                   	push   %eax
    273f:	56                   	push   %esi
    2740:	e8 3b 54 00 00       	call   7b80 <loc_service_register@plt>
    2745:	83 c4 10             	add    $0x10,%esp
    2748:	85 c0                	test   %eax,%eax
    274a:	75 5c                	jne    27a8 <init_terminal+0x1f8>
    274c:	8b 15 3c 9a 00 00    	mov    0x9a3c,%edx
    2752:	8d 43 6c             	lea    0x6c(%ebx),%eax
    2755:	c7 43 70 3c 9a 00 00 	movl   $0x9a3c,0x70(%ebx)
    275c:	89 53 6c             	mov    %edx,0x6c(%ebx)
    275f:	a3 3c 9a 00 00       	mov    %eax,0x9a3c
    2764:	89 42 04             	mov    %eax,0x4(%edx)
    2767:	50                   	push   %eax
    2768:	6a 00                	push   $0x0
    276a:	68 84 77 00 00       	push   $0x7784
    276f:	68 8e 77 00 00       	push   $0x778e
    2774:	68 91 77 00 00       	push   $0x7791
    2779:	68 98 77 00 00       	push   $0x7798
    277e:	68 9e 77 00 00       	push   $0x779e
    2783:	56                   	push   %esi
    2784:	68 a3 77 00 00       	push   $0x77a3
    2789:	68 a3 77 00 00       	push   $0x77a3
    278e:	6a 00                	push   $0x0
    2790:	6a 00                	push   $0x0
    2792:	e8 d9 56 00 00       	call   7e70 <task_spawnl@plt>
    2797:	83 c4 30             	add    $0x30,%esp
    279a:	8d 65 f4             	lea    -0xc(%ebp),%esp
    279d:	b0 01                	mov    $0x1,%al
    279f:	5b                   	pop    %ebx
    27a0:	5e                   	pop    %esi
    27a1:	5f                   	pop    %edi
    27a2:	5d                   	pop    %ebp
    27a3:	c3                   	ret    
    27a4:	8d 74 26 00          	lea    0x0(%esi,%eiz,1),%esi
    27a8:	83 ec 0c             	sub    $0xc,%esp
    27ab:	53                   	push   %ebx
    27ac:	e8 1f 03 00 00       	call   2ad0 <widget_deinit>
    27b1:	83 c4 10             	add    $0x10,%esp
    27b4:	8d 65 f4             	lea    -0xc(%ebp),%esp
    27b7:	31 c0                	xor    %eax,%eax
    27b9:	5b                   	pop    %ebx
    27ba:	5e                   	pop    %esi
    27bb:	5f                   	pop    %edi
    27bc:	5d                   	pop    %ebp
    27bd:	c3                   	ret    
    27be:	66 90                	xchg   %ax,%ax

000027c0 <create_terminal>:
    27c0:	55                   	push   %ebp
    27c1:	89 e5                	mov    %esp,%ebp
    27c3:	57                   	push   %edi
    27c4:	56                   	push   %esi
    27c5:	53                   	push   %ebx
    27c6:	81 ec 18 01 00 00    	sub    $0x118,%esp
    27cc:	8b 75 10             	mov    0x10(%ebp),%esi
    27cf:	8b 7d 14             	mov    0x14(%ebp),%edi
    27d2:	68 cc 00 00 00       	push   $0xcc
    27d7:	e8 d4 53 00 00       	call   7bb0 <malloc@plt>
    27dc:	83 c4 10             	add    $0x10,%esp
    27df:	89 c3                	mov    %eax,%ebx
    27e1:	85 c0                	test   %eax,%eax
    27e3:	0f 84 01 02 00 00    	je     29ea <create_terminal+0x22a>
    27e9:	50                   	push   %eax
    27ea:	8b 45 0c             	mov    0xc(%ebp),%eax
    27ed:	50                   	push   %eax
    27ee:	8b 45 08             	mov    0x8(%ebp),%eax
    27f1:	50                   	push   %eax
    27f2:	53                   	push   %ebx
    27f3:	e8 08 02 00 00       	call   2a00 <widget_init>
    27f8:	8d 43 5c             	lea    0x5c(%ebx),%eax
    27fb:	c7 43 6c 00 00 00 00 	movl   $0x0,0x6c(%ebx)
    2802:	c7 43 70 00 00 00 00 	movl   $0x0,0x70(%ebx)
    2809:	89 04 24             	mov    %eax,(%esp)
    280c:	e8 8f 54 00 00       	call   7ca0 <fibril_mutex_initialize@plt>
    2811:	8d 43 78             	lea    0x78(%ebx),%eax
    2814:	c7 43 74 00 00 00 00 	movl   $0x0,0x74(%ebx)
    281b:	89 04 24             	mov    %eax,(%esp)
    281e:	e8 bd 54 00 00       	call   7ce0 <prodcons_initialize@plt>
    2823:	83 c4 0c             	add    $0xc,%esp
    2826:	89 73 24             	mov    %esi,0x24(%ebx)
    2829:	89 7b 28             	mov    %edi,0x28(%ebx)
    282c:	89 73 34             	mov    %esi,0x34(%ebx)
    282f:	89 7b 38             	mov    %edi,0x38(%ebx)
    2832:	c7 83 a0 00 00 00 00 	movl   $0x0,0xa0(%ebx)
    2839:	00 00 00 
    283c:	c1 ee 03             	shr    $0x3,%esi
    283f:	c7 43 44 30 17 00 00 	movl   $0x1730,0x44(%ebx)
    2846:	c1 ef 04             	shr    $0x4,%edi
    2849:	c7 43 48 a0 12 00 00 	movl   $0x12a0,0x48(%ebx)
    2850:	c7 43 4c 00 25 00 00 	movl   $0x2500,0x4c(%ebx)
    2857:	c7 43 50 f0 24 00 00 	movl   $0x24f0,0x50(%ebx)
    285e:	c7 43 54 c0 16 00 00 	movl   $0x16c0,0x54(%ebx)
    2865:	c7 43 58 20 16 00 00 	movl   $0x1620,0x58(%ebx)
    286c:	89 b3 a4 00 00 00    	mov    %esi,0xa4(%ebx)
    2872:	89 bb a8 00 00 00    	mov    %edi,0xa8(%ebx)
    2878:	c7 83 ac 00 00 00 00 	movl   $0x0,0xac(%ebx)
    287f:	00 00 00 
    2882:	c7 83 b0 00 00 00 00 	movl   $0x0,0xb0(%ebx)
    2889:	00 00 00 
    288c:	6a 00                	push   $0x0
    288e:	57                   	push   %edi
    288f:	56                   	push   %esi
    2890:	e8 bb 52 00 00       	call   7b50 <chargrid_create@plt>
    2895:	83 c4 10             	add    $0x10,%esp
    2898:	89 83 ac 00 00 00    	mov    %eax,0xac(%ebx)
    289e:	85 c0                	test   %eax,%eax
    28a0:	0f 84 2a 01 00 00    	je     29d0 <create_terminal+0x210>
    28a6:	51                   	push   %ecx
    28a7:	6a 00                	push   $0x0
    28a9:	8b b3 a8 00 00 00    	mov    0xa8(%ebx),%esi
    28af:	56                   	push   %esi
    28b0:	8b bb a4 00 00 00    	mov    0xa4(%ebx),%edi
    28b6:	57                   	push   %edi
    28b7:	e8 94 52 00 00       	call   7b50 <chargrid_create@plt>
    28bc:	83 c4 10             	add    $0x10,%esp
    28bf:	89 83 b0 00 00 00    	mov    %eax,0xb0(%ebx)
    28c5:	85 c0                	test   %eax,%eax
    28c7:	0f 84 03 01 00 00    	je     29d0 <create_terminal+0x210>
    28cd:	83 ec 0c             	sub    $0xc,%esp
    28d0:	8b b3 ac 00 00 00    	mov    0xac(%ebx),%esi
    28d6:	56                   	push   %esi
    28d7:	e8 e4 52 00 00       	call   7bc0 <chargrid_clear@plt>
    28dc:	8b 83 b0 00 00 00    	mov    0xb0(%ebx),%eax
    28e2:	5f                   	pop    %edi
    28e3:	50                   	push   %eax
    28e4:	e8 d7 52 00 00       	call   7bc0 <chargrid_clear@plt>
    28e9:	c7 83 b4 00 00 00 00 	movl   $0x0,0xb4(%ebx)
    28f0:	00 00 00 
    28f3:	58                   	pop    %eax
    28f4:	5a                   	pop    %edx
    28f5:	6a 00                	push   $0x0
    28f7:	68 80 15 00 00       	push   $0x1580
    28fc:	e8 4f 55 00 00       	call   7e50 <async_set_fallback_port_handler@plt>
    2901:	8d 83 bc 00 00 00    	lea    0xbc(%ebx),%eax
    2907:	89 04 24             	mov    %eax,(%esp)
    290a:	e8 c1 53 00 00       	call   7cd0 <con_srvs_init@plt>
    290f:	c7 83 bc 00 00 00 00 	movl   $0x9a00,0xbc(%ebx)
    2916:	9a 00 00 
    2919:	89 9b c0 00 00 00    	mov    %ebx,0xc0(%ebx)
    291f:	c7 04 24 13 77 00 00 	movl   $0x7713,(%esp)
    2926:	e8 65 54 00 00       	call   7d90 <loc_server_register@plt>
    292b:	83 c4 10             	add    $0x10,%esp
    292e:	85 c0                	test   %eax,%eax
    2930:	0f 85 9a 00 00 00    	jne    29d0 <create_terminal+0x210>
    2936:	e8 c5 53 00 00       	call   7d00 <task_get_id@plt>
    293b:	8d b5 e8 fe ff ff    	lea    -0x118(%ebp),%esi
    2941:	51                   	push   %ecx
    2942:	51                   	push   %ecx
    2943:	52                   	push   %edx
    2944:	50                   	push   %eax
    2945:	68 13 77 00 00       	push   $0x7713
    294a:	68 7c 77 00 00       	push   $0x777c
    294f:	68 ff 00 00 00       	push   $0xff
    2954:	56                   	push   %esi
    2955:	e8 16 52 00 00       	call   7b70 <snprintf@plt>
    295a:	83 c4 18             	add    $0x18,%esp
    295d:	8d 83 b8 00 00 00    	lea    0xb8(%ebx),%eax
    2963:	50                   	push   %eax
    2964:	56                   	push   %esi
    2965:	e8 16 52 00 00       	call   7b80 <loc_service_register@plt>
    296a:	83 c4 10             	add    $0x10,%esp
    296d:	85 c0                	test   %eax,%eax
    296f:	75 5f                	jne    29d0 <create_terminal+0x210>
    2971:	8b 15 3c 9a 00 00    	mov    0x9a3c,%edx
    2977:	8d 43 6c             	lea    0x6c(%ebx),%eax
    297a:	c7 43 70 3c 9a 00 00 	movl   $0x9a3c,0x70(%ebx)
    2981:	89 53 6c             	mov    %edx,0x6c(%ebx)
    2984:	a3 3c 9a 00 00       	mov    %eax,0x9a3c
    2989:	89 42 04             	mov    %eax,0x4(%edx)
    298c:	50                   	push   %eax
    298d:	6a 00                	push   $0x0
    298f:	68 84 77 00 00       	push   $0x7784
    2994:	68 8e 77 00 00       	push   $0x778e
    2999:	68 91 77 00 00       	push   $0x7791
    299e:	68 98 77 00 00       	push   $0x7798
    29a3:	68 9e 77 00 00       	push   $0x779e
    29a8:	56                   	push   %esi
    29a9:	68 a3 77 00 00       	push   $0x77a3
    29ae:	68 a3 77 00 00       	push   $0x77a3
    29b3:	6a 00                	push   $0x0
    29b5:	6a 00                	push   $0x0
    29b7:	e8 b4 54 00 00       	call   7e70 <task_spawnl@plt>
    29bc:	83 c4 30             	add    $0x30,%esp
    29bf:	8d 65 f4             	lea    -0xc(%ebp),%esp
    29c2:	89 d8                	mov    %ebx,%eax
    29c4:	5b                   	pop    %ebx
    29c5:	5e                   	pop    %esi
    29c6:	5f                   	pop    %edi
    29c7:	5d                   	pop    %ebp
    29c8:	c3                   	ret    
    29c9:	8d b4 26 00 00 00 00 	lea    0x0(%esi,%eiz,1),%esi
    29d0:	83 ec 0c             	sub    $0xc,%esp
    29d3:	53                   	push   %ebx
    29d4:	e8 f7 00 00 00       	call   2ad0 <widget_deinit>
    29d9:	83 c4 10             	add    $0x10,%esp
    29dc:	83 ec 0c             	sub    $0xc,%esp
    29df:	53                   	push   %ebx
    29e0:	31 db                	xor    %ebx,%ebx
    29e2:	e8 b9 54 00 00       	call   7ea0 <free@plt>
    29e7:	83 c4 10             	add    $0x10,%esp
    29ea:	8d 65 f4             	lea    -0xc(%ebp),%esp
    29ed:	89 d8                	mov    %ebx,%eax
    29ef:	5b                   	pop    %ebx
    29f0:	5e                   	pop    %esi
    29f1:	5f                   	pop    %edi
    29f2:	5d                   	pop    %ebp
    29f3:	c3                   	ret    
    29f4:	66 90                	xchg   %ax,%ax
    29f6:	66 90                	xchg   %ax,%ax
    29f8:	66 90                	xchg   %ax,%ax
    29fa:	66 90                	xchg   %ax,%ax
    29fc:	66 90                	xchg   %ax,%ax
    29fe:	66 90                	xchg   %ax,%ax

00002a00 <widget_init>:
    2a00:	55                   	push   %ebp
    2a01:	89 e5                	mov    %esp,%ebp
    2a03:	8b 45 08             	mov    0x8(%ebp),%eax
    2a06:	8b 55 0c             	mov    0xc(%ebp),%edx
    2a09:	85 d2                	test   %edx,%edx
    2a0b:	8d 48 0c             	lea    0xc(%eax),%ecx
    2a0e:	c7 00 00 00 00 00    	movl   $0x0,(%eax)
    2a14:	c7 40 04 00 00 00 00 	movl   $0x0,0x4(%eax)
    2a1b:	89 48 0c             	mov    %ecx,0xc(%eax)
    2a1e:	89 48 10             	mov    %ecx,0x10(%eax)
    2a21:	74 6d                	je     2a90 <widget_init+0x90>
    2a23:	8d 4a 0c             	lea    0xc(%edx),%ecx
    2a26:	89 50 08             	mov    %edx,0x8(%eax)
    2a29:	89 48 04             	mov    %ecx,0x4(%eax)
    2a2c:	8b 4a 0c             	mov    0xc(%edx),%ecx
    2a2f:	89 08                	mov    %ecx,(%eax)
    2a31:	8b 4a 0c             	mov    0xc(%edx),%ecx
    2a34:	89 41 04             	mov    %eax,0x4(%ecx)
    2a37:	89 42 0c             	mov    %eax,0xc(%edx)
    2a3a:	8b 52 14             	mov    0x14(%edx),%edx
    2a3d:	89 50 14             	mov    %edx,0x14(%eax)
    2a40:	8b 55 10             	mov    0x10(%ebp),%edx
    2a43:	c7 40 1c 00 00 00 00 	movl   $0x0,0x1c(%eax)
    2a4a:	89 50 18             	mov    %edx,0x18(%eax)
    2a4d:	c7 40 20 00 00 00 00 	movl   $0x0,0x20(%eax)
    2a54:	c7 40 24 00 00 00 00 	movl   $0x0,0x24(%eax)
    2a5b:	c7 40 28 00 00 00 00 	movl   $0x0,0x28(%eax)
    2a62:	c7 40 2c 00 00 00 00 	movl   $0x0,0x2c(%eax)
    2a69:	c7 40 30 00 00 00 00 	movl   $0x0,0x30(%eax)
    2a70:	c7 40 34 00 00 00 00 	movl   $0x0,0x34(%eax)
    2a77:	c7 40 38 00 00 00 00 	movl   $0x0,0x38(%eax)
    2a7e:	c7 40 3c ff ff ff ff 	movl   $0xffffffff,0x3c(%eax)
    2a85:	c7 40 40 ff ff ff ff 	movl   $0xffffffff,0x40(%eax)
    2a8c:	5d                   	pop    %ebp
    2a8d:	c3                   	ret    
    2a8e:	66 90                	xchg   %ax,%ax
    2a90:	c7 40 08 00 00 00 00 	movl   $0x0,0x8(%eax)
    2a97:	c7 40 14 00 00 00 00 	movl   $0x0,0x14(%eax)
    2a9e:	eb a0                	jmp    2a40 <widget_init+0x40>

00002aa0 <widget_modify>:
    2aa0:	55                   	push   %ebp
    2aa1:	89 e5                	mov    %esp,%ebp
    2aa3:	8b 45 08             	mov    0x8(%ebp),%eax
    2aa6:	8b 55 0c             	mov    0xc(%ebp),%edx
    2aa9:	89 50 1c             	mov    %edx,0x1c(%eax)
    2aac:	8b 55 10             	mov    0x10(%ebp),%edx
    2aaf:	89 50 20             	mov    %edx,0x20(%eax)
    2ab2:	8b 55 14             	mov    0x14(%ebp),%edx
    2ab5:	89 50 24             	mov    %edx,0x24(%eax)
    2ab8:	8b 55 18             	mov    0x18(%ebp),%edx
    2abb:	89 50 28             	mov    %edx,0x28(%eax)
    2abe:	5d                   	pop    %ebp
    2abf:	c3                   	ret    

00002ac0 <widget_get_data>:
    2ac0:	55                   	push   %ebp
    2ac1:	89 e5                	mov    %esp,%ebp
    2ac3:	8b 45 08             	mov    0x8(%ebp),%eax
    2ac6:	5d                   	pop    %ebp
    2ac7:	8b 40 18             	mov    0x18(%eax),%eax
    2aca:	c3                   	ret    
    2acb:	90                   	nop
    2acc:	8d 74 26 00          	lea    0x0(%esi,%eiz,1),%esi

00002ad0 <widget_deinit>:
    2ad0:	55                   	push   %ebp
    2ad1:	89 e5                	mov    %esp,%ebp
    2ad3:	8b 45 08             	mov    0x8(%ebp),%eax
    2ad6:	8b 50 08             	mov    0x8(%eax),%edx
    2ad9:	85 d2                	test   %edx,%edx
    2adb:	74 21                	je     2afe <widget_deinit+0x2e>
    2add:	8b 08                	mov    (%eax),%ecx
    2adf:	85 c9                	test   %ecx,%ecx
    2ae1:	74 0e                	je     2af1 <widget_deinit+0x21>
    2ae3:	8b 50 04             	mov    0x4(%eax),%edx
    2ae6:	85 d2                	test   %edx,%edx
    2ae8:	74 07                	je     2af1 <widget_deinit+0x21>
    2aea:	89 0a                	mov    %ecx,(%edx)
    2aec:	8b 08                	mov    (%eax),%ecx
    2aee:	89 51 04             	mov    %edx,0x4(%ecx)
    2af1:	c7 00 00 00 00 00    	movl   $0x0,(%eax)
    2af7:	c7 40 04 00 00 00 00 	movl   $0x0,0x4(%eax)
    2afe:	5d                   	pop    %ebp
    2aff:	c3                   	ret    

00002b00 <root_handle_keyboard_event>:
    2b00:	55                   	push   %ebp
    2b01:	89 e5                	mov    %esp,%ebp
    2b03:	57                   	push   %edi
    2b04:	56                   	push   %esi
    2b05:	8b 45 08             	mov    0x8(%ebp),%eax
    2b08:	83 c0 0c             	add    $0xc,%eax
    2b0b:	8b 50 04             	mov    0x4(%eax),%edx
    2b0e:	39 c2                	cmp    %eax,%edx
    2b10:	74 1e                	je     2b30 <root_handle_keyboard_event+0x30>
    2b12:	8d 7d 0c             	lea    0xc(%ebp),%edi
    2b15:	b9 06 00 00 00       	mov    $0x6,%ecx
    2b1a:	89 fe                	mov    %edi,%esi
    2b1c:	f3 a5                	rep movsl %ds:(%esi),%es:(%edi)
    2b1e:	89 55 08             	mov    %edx,0x8(%ebp)
    2b21:	5e                   	pop    %esi
    2b22:	8b 42 54             	mov    0x54(%edx),%eax
    2b25:	5f                   	pop    %edi
    2b26:	5d                   	pop    %ebp
    2b27:	ff e0                	jmp    *%eax
    2b29:	8d b4 26 00 00 00 00 	lea    0x0(%esi,%eiz,1),%esi
    2b30:	5e                   	pop    %esi
    2b31:	5f                   	pop    %edi
    2b32:	5d                   	pop    %ebp
    2b33:	c3                   	ret    
    2b34:	8d b6 00 00 00 00    	lea    0x0(%esi),%esi
    2b3a:	8d bf 00 00 00 00    	lea    0x0(%edi),%edi

00002b40 <root_handle_position_event>:
    2b40:	55                   	push   %ebp
    2b41:	89 e5                	mov    %esp,%ebp
    2b43:	57                   	push   %edi
    2b44:	56                   	push   %esi
    2b45:	53                   	push   %ebx
    2b46:	83 ec 3c             	sub    $0x3c,%esp
    2b49:	8b 55 08             	mov    0x8(%ebp),%edx
    2b4c:	8b 45 0c             	mov    0xc(%ebp),%eax
    2b4f:	89 45 e4             	mov    %eax,-0x1c(%ebp)
    2b52:	8b 45 10             	mov    0x10(%ebp),%eax
    2b55:	8b 7a 14             	mov    0x14(%edx),%edi
    2b58:	89 c1                	mov    %eax,%ecx
    2b5a:	89 45 d8             	mov    %eax,-0x28(%ebp)
    2b5d:	8b 45 14             	mov    0x14(%ebp),%eax
    2b60:	89 45 d4             	mov    %eax,-0x2c(%ebp)
    2b63:	8b 5d 18             	mov    0x18(%ebp),%ebx
    2b66:	8b 75 1c             	mov    0x1c(%ebp),%esi
    2b69:	89 7d dc             	mov    %edi,-0x24(%ebp)
    2b6c:	80 7f 01 00          	cmpb   $0x0,0x1(%edi)
    2b70:	0f 84 e2 00 00 00    	je     2c58 <root_handle_position_event+0x118>
    2b76:	49                   	dec    %ecx
    2b77:	0f 94 45 d3          	sete   -0x2d(%ebp)
    2b7b:	83 f8 01             	cmp    $0x1,%eax
    2b7e:	0f 94 45 e0          	sete   -0x20(%ebp)
    2b82:	8a 4d e0             	mov    -0x20(%ebp),%cl
    2b85:	8b 7a 24             	mov    0x24(%edx),%edi
    2b88:	22 4d d3             	and    -0x2d(%ebp),%cl
    2b8b:	89 7d cc             	mov    %edi,-0x34(%ebp)
    2b8e:	8b 7a 28             	mov    0x28(%edx),%edi
    2b91:	88 4d e0             	mov    %cl,-0x20(%ebp)
    2b94:	89 7d c8             	mov    %edi,-0x38(%ebp)
    2b97:	0f 85 15 01 00 00    	jne    2cb2 <root_handle_position_event+0x172>
    2b9d:	83 f8 02             	cmp    $0x2,%eax
    2ba0:	0f 94 45 e0          	sete   -0x20(%ebp)
    2ba4:	8a 45 e0             	mov    -0x20(%ebp),%al
    2ba7:	c7 45 c0 00 00 00 00 	movl   $0x0,-0x40(%ebp)
    2bae:	22 45 d3             	and    -0x2d(%ebp),%al
    2bb1:	88 45 e0             	mov    %al,-0x20(%ebp)
    2bb4:	8b 45 cc             	mov    -0x34(%ebp),%eax
    2bb7:	83 fb 03             	cmp    $0x3,%ebx
    2bba:	0f 96 45 d3          	setbe  -0x2d(%ebp)
    2bbe:	83 e8 04             	sub    $0x4,%eax
    2bc1:	89 c7                	mov    %eax,%edi
    2bc3:	89 45 bc             	mov    %eax,-0x44(%ebp)
    2bc6:	8b 45 c8             	mov    -0x38(%ebp),%eax
    2bc9:	83 fe 03             	cmp    $0x3,%esi
    2bcc:	0f 96 45 d2          	setbe  -0x2e(%ebp)
    2bd0:	83 e8 04             	sub    $0x4,%eax
    2bd3:	39 c6                	cmp    %eax,%esi
    2bd5:	8d 46 fc             	lea    -0x4(%esi),%eax
    2bd8:	0f 93 45 c8          	setae  -0x38(%ebp)
    2bdc:	83 f8 13             	cmp    $0x13,%eax
    2bdf:	0f 96 45 c4          	setbe  -0x3c(%ebp)
    2be3:	83 fb 03             	cmp    $0x3,%ebx
    2be6:	8a 4d c4             	mov    -0x3c(%ebp),%cl
    2be9:	0f 97 c0             	seta   %al
    2bec:	84 c1                	test   %al,%cl
    2bee:	0f 84 15 01 00 00    	je     2d09 <root_handle_position_event+0x1c9>
    2bf4:	39 fb                	cmp    %edi,%ebx
    2bf6:	0f 83 0d 01 00 00    	jae    2d09 <root_handle_position_event+0x1c9>
    2bfc:	8b 45 cc             	mov    -0x34(%ebp),%eax
    2bff:	c7 45 c4 01 00 00 00 	movl   $0x1,-0x3c(%ebp)
    2c06:	83 e8 18             	sub    $0x18,%eax
    2c09:	39 c3                	cmp    %eax,%ebx
    2c0b:	0f 93 c0             	setae  %al
    2c0e:	25 ff 00 00 00       	and    $0xff,%eax
    2c13:	89 c7                	mov    %eax,%edi
    2c15:	8a 45 d2             	mov    -0x2e(%ebp),%al
    2c18:	84 45 d3             	test   %al,-0x2d(%ebp)
    2c1b:	0f 84 9d 00 00 00    	je     2cbe <root_handle_position_event+0x17e>
    2c21:	80 7d e0 00          	cmpb   $0x0,-0x20(%ebp)
    2c25:	0f 84 93 00 00 00    	je     2cbe <root_handle_position_event+0x17e>
    2c2b:	83 7d c0 01          	cmpl   $0x1,-0x40(%ebp)
    2c2f:	19 c0                	sbb    %eax,%eax
    2c31:	83 e0 24             	and    $0x24,%eax
    2c34:	83 c0 0f             	add    $0xf,%eax
    2c37:	89 45 10             	mov    %eax,0x10(%ebp)
    2c3a:	8b 45 e4             	mov    -0x1c(%ebp),%eax
    2c3d:	89 45 0c             	mov    %eax,0xc(%ebp)
    2c40:	8b 45 dc             	mov    -0x24(%ebp),%eax
    2c43:	8b 40 0c             	mov    0xc(%eax),%eax
    2c46:	89 45 08             	mov    %eax,0x8(%ebp)
    2c49:	8d 65 f4             	lea    -0xc(%ebp),%esp
    2c4c:	5b                   	pop    %ebx
    2c4d:	5e                   	pop    %esi
    2c4e:	5f                   	pop    %edi
    2c4f:	5d                   	pop    %ebp
    2c50:	e9 9b 4e 00 00       	jmp    7af0 <win_grab@plt>
    2c55:	8d 76 00             	lea    0x0(%esi),%esi
    2c58:	8d 42 0c             	lea    0xc(%edx),%eax
    2c5b:	8b 7a 10             	mov    0x10(%edx),%edi
    2c5e:	89 45 dc             	mov    %eax,-0x24(%ebp)
    2c61:	39 c7                	cmp    %eax,%edi
    2c63:	74 45                	je     2caa <root_handle_position_event+0x16a>
    2c65:	89 f0                	mov    %esi,%eax
    2c67:	8b 4d e4             	mov    -0x1c(%ebp),%ecx
    2c6a:	89 de                	mov    %ebx,%esi
    2c6c:	89 c3                	mov    %eax,%ebx
    2c6e:	66 90                	xchg   %ax,%ax
    2c70:	8b 47 58             	mov    0x58(%edi),%eax
    2c73:	83 ec 08             	sub    $0x8,%esp
    2c76:	89 45 e4             	mov    %eax,-0x1c(%ebp)
    2c79:	8b 55 d4             	mov    -0x2c(%ebp),%edx
    2c7c:	8b 45 d8             	mov    -0x28(%ebp),%eax
    2c7f:	53                   	push   %ebx
    2c80:	89 45 10             	mov    %eax,0x10(%ebp)
    2c83:	56                   	push   %esi
    2c84:	52                   	push   %edx
    2c85:	50                   	push   %eax
    2c86:	8b 45 e4             	mov    -0x1c(%ebp),%eax
    2c89:	51                   	push   %ecx
    2c8a:	89 4d 0c             	mov    %ecx,0xc(%ebp)
    2c8d:	57                   	push   %edi
    2c8e:	89 4d e0             	mov    %ecx,-0x20(%ebp)
    2c91:	89 55 14             	mov    %edx,0x14(%ebp)
    2c94:	89 75 18             	mov    %esi,0x18(%ebp)
    2c97:	89 5d 1c             	mov    %ebx,0x1c(%ebp)
    2c9a:	ff d0                	call   *%eax
    2c9c:	8b 7f 04             	mov    0x4(%edi),%edi
    2c9f:	83 c4 20             	add    $0x20,%esp
    2ca2:	8b 4d e0             	mov    -0x20(%ebp),%ecx
    2ca5:	3b 7d dc             	cmp    -0x24(%ebp),%edi
    2ca8:	75 c6                	jne    2c70 <root_handle_position_event+0x130>
    2caa:	8d 65 f4             	lea    -0xc(%ebp),%esp
    2cad:	5b                   	pop    %ebx
    2cae:	5e                   	pop    %esi
    2caf:	5f                   	pop    %edi
    2cb0:	5d                   	pop    %ebp
    2cb1:	c3                   	ret    
    2cb2:	c7 45 c0 01 00 00 00 	movl   $0x1,-0x40(%ebp)
    2cb9:	e9 f6 fe ff ff       	jmp    2bb4 <root_handle_position_event+0x74>
    2cbe:	8a 4d c8             	mov    -0x38(%ebp),%cl
    2cc1:	84 4d d3             	test   %cl,-0x2d(%ebp)
    2cc4:	74 1a                	je     2ce0 <root_handle_position_event+0x1a0>
    2cc6:	80 7d e0 00          	cmpb   $0x0,-0x20(%ebp)
    2cca:	74 14                	je     2ce0 <root_handle_position_event+0x1a0>
    2ccc:	83 7d c0 01          	cmpl   $0x1,-0x40(%ebp)
    2cd0:	19 c0                	sbb    %eax,%eax
    2cd2:	83 e0 24             	and    $0x24,%eax
    2cd5:	83 c0 0d             	add    $0xd,%eax
    2cd8:	89 45 10             	mov    %eax,0x10(%ebp)
    2cdb:	e9 5a ff ff ff       	jmp    2c3a <root_handle_position_event+0xfa>
    2ce0:	3b 5d bc             	cmp    -0x44(%ebp),%ebx
    2ce3:	0f 93 45 cc          	setae  -0x34(%ebp)
    2ce7:	8a 45 cc             	mov    -0x34(%ebp),%al
    2cea:	84 45 c8             	test   %al,-0x38(%ebp)
    2ced:	74 28                	je     2d17 <root_handle_position_event+0x1d7>
    2cef:	80 7d e0 00          	cmpb   $0x0,-0x20(%ebp)
    2cf3:	74 22                	je     2d17 <root_handle_position_event+0x1d7>
    2cf5:	83 7d c0 01          	cmpl   $0x1,-0x40(%ebp)
    2cf9:	19 c0                	sbb    %eax,%eax
    2cfb:	83 e0 24             	and    $0x24,%eax
    2cfe:	83 c0 0c             	add    $0xc,%eax
    2d01:	89 45 10             	mov    %eax,0x10(%ebp)
    2d04:	e9 31 ff ff ff       	jmp    2c3a <root_handle_position_event+0xfa>
    2d09:	c7 45 c4 00 00 00 00 	movl   $0x0,-0x3c(%ebp)
    2d10:	31 ff                	xor    %edi,%edi
    2d12:	e9 fe fe ff ff       	jmp    2c15 <root_handle_position_event+0xd5>
    2d17:	8a 4d d2             	mov    -0x2e(%ebp),%cl
    2d1a:	84 4d cc             	test   %cl,-0x34(%ebp)
    2d1d:	74 1a                	je     2d39 <root_handle_position_event+0x1f9>
    2d1f:	80 7d e0 00          	cmpb   $0x0,-0x20(%ebp)
    2d23:	74 14                	je     2d39 <root_handle_position_event+0x1f9>
    2d25:	83 7d c0 01          	cmpl   $0x1,-0x40(%ebp)
    2d29:	19 c0                	sbb    %eax,%eax
    2d2b:	83 e0 24             	and    $0x24,%eax
    2d2e:	83 c0 0e             	add    $0xe,%eax
    2d31:	89 45 10             	mov    %eax,0x10(%ebp)
    2d34:	e9 01 ff ff ff       	jmp    2c3a <root_handle_position_event+0xfa>
    2d39:	80 7d d2 00          	cmpb   $0x0,-0x2e(%ebp)
    2d3d:	74 1a                	je     2d59 <root_handle_position_event+0x219>
    2d3f:	80 7d e0 00          	cmpb   $0x0,-0x20(%ebp)
    2d43:	74 14                	je     2d59 <root_handle_position_event+0x219>
    2d45:	83 7d c0 01          	cmpl   $0x1,-0x40(%ebp)
    2d49:	19 c0                	sbb    %eax,%eax
    2d4b:	83 e0 18             	and    $0x18,%eax
    2d4e:	83 c0 0a             	add    $0xa,%eax
    2d51:	89 45 10             	mov    %eax,0x10(%ebp)
    2d54:	e9 e1 fe ff ff       	jmp    2c3a <root_handle_position_event+0xfa>
    2d59:	80 7d d3 00          	cmpb   $0x0,-0x2d(%ebp)
    2d5d:	74 1a                	je     2d79 <root_handle_position_event+0x239>
    2d5f:	80 7d e0 00          	cmpb   $0x0,-0x20(%ebp)
    2d63:	74 14                	je     2d79 <root_handle_position_event+0x239>
    2d65:	83 7d c0 01          	cmpl   $0x1,-0x40(%ebp)
    2d69:	19 c0                	sbb    %eax,%eax
    2d6b:	83 e0 0c             	and    $0xc,%eax
    2d6e:	83 c0 05             	add    $0x5,%eax
    2d71:	89 45 10             	mov    %eax,0x10(%ebp)
    2d74:	e9 c1 fe ff ff       	jmp    2c3a <root_handle_position_event+0xfa>
    2d79:	80 7d c8 00          	cmpb   $0x0,-0x38(%ebp)
    2d7d:	74 1a                	je     2d99 <root_handle_position_event+0x259>
    2d7f:	80 7d e0 00          	cmpb   $0x0,-0x20(%ebp)
    2d83:	74 14                	je     2d99 <root_handle_position_event+0x259>
    2d85:	83 7d c0 01          	cmpl   $0x1,-0x40(%ebp)
    2d89:	19 c0                	sbb    %eax,%eax
    2d8b:	83 e0 18             	and    $0x18,%eax
    2d8e:	83 c0 08             	add    $0x8,%eax
    2d91:	89 45 10             	mov    %eax,0x10(%ebp)
    2d94:	e9 a1 fe ff ff       	jmp    2c3a <root_handle_position_event+0xfa>
    2d99:	80 7d cc 00          	cmpb   $0x0,-0x34(%ebp)
    2d9d:	74 1a                	je     2db9 <root_handle_position_event+0x279>
    2d9f:	80 7d e0 00          	cmpb   $0x0,-0x20(%ebp)
    2da3:	74 14                	je     2db9 <root_handle_position_event+0x279>
    2da5:	83 7d c0 01          	cmpl   $0x1,-0x40(%ebp)
    2da9:	19 c0                	sbb    %eax,%eax
    2dab:	83 e0 0c             	and    $0xc,%eax
    2dae:	83 c0 04             	add    $0x4,%eax
    2db1:	89 45 10             	mov    %eax,0x10(%ebp)
    2db4:	e9 81 fe ff ff       	jmp    2c3a <root_handle_position_event+0xfa>
    2db9:	85 7d c0             	test   %edi,-0x40(%ebp)
    2dbc:	75 61                	jne    2e1f <root_handle_position_event+0x2df>
    2dbe:	8b 4d c4             	mov    -0x3c(%ebp),%ecx
    2dc1:	85 4d c0             	test   %ecx,-0x40(%ebp)
    2dc4:	75 6e                	jne    2e34 <root_handle_position_event+0x2f4>
    2dc6:	8d 42 0c             	lea    0xc(%edx),%eax
    2dc9:	8b 7a 10             	mov    0x10(%edx),%edi
    2dcc:	89 45 dc             	mov    %eax,-0x24(%ebp)
    2dcf:	39 f8                	cmp    %edi,%eax
    2dd1:	0f 84 d3 fe ff ff    	je     2caa <root_handle_position_event+0x16a>
    2dd7:	89 f0                	mov    %esi,%eax
    2dd9:	8b 4d e4             	mov    -0x1c(%ebp),%ecx
    2ddc:	89 de                	mov    %ebx,%esi
    2dde:	89 c3                	mov    %eax,%ebx
    2de0:	8b 47 58             	mov    0x58(%edi),%eax
    2de3:	83 ec 08             	sub    $0x8,%esp
    2de6:	89 45 e4             	mov    %eax,-0x1c(%ebp)
    2de9:	8b 55 d4             	mov    -0x2c(%ebp),%edx
    2dec:	8b 45 d8             	mov    -0x28(%ebp),%eax
    2def:	53                   	push   %ebx
    2df0:	89 45 10             	mov    %eax,0x10(%ebp)
    2df3:	56                   	push   %esi
    2df4:	52                   	push   %edx
    2df5:	50                   	push   %eax
    2df6:	8b 45 e4             	mov    -0x1c(%ebp),%eax
    2df9:	51                   	push   %ecx
    2dfa:	89 4d 0c             	mov    %ecx,0xc(%ebp)
    2dfd:	57                   	push   %edi
    2dfe:	89 4d e0             	mov    %ecx,-0x20(%ebp)
    2e01:	89 55 14             	mov    %edx,0x14(%ebp)
    2e04:	89 75 18             	mov    %esi,0x18(%ebp)
    2e07:	89 5d 1c             	mov    %ebx,0x1c(%ebp)
    2e0a:	ff d0                	call   *%eax
    2e0c:	8b 7f 04             	mov    0x4(%edi),%edi
    2e0f:	83 c4 20             	add    $0x20,%esp
    2e12:	8b 4d e0             	mov    -0x20(%ebp),%ecx
    2e15:	39 7d dc             	cmp    %edi,-0x24(%ebp)
    2e18:	75 c6                	jne    2de0 <root_handle_position_event+0x2a0>
    2e1a:	e9 8b fe ff ff       	jmp    2caa <root_handle_position_event+0x16a>
    2e1f:	8b 45 dc             	mov    -0x24(%ebp),%eax
    2e22:	8b 40 0c             	mov    0xc(%eax),%eax
    2e25:	89 45 08             	mov    %eax,0x8(%ebp)
    2e28:	8d 65 f4             	lea    -0xc(%ebp),%esp
    2e2b:	5b                   	pop    %ebx
    2e2c:	5e                   	pop    %esi
    2e2d:	5f                   	pop    %edi
    2e2e:	5d                   	pop    %ebp
    2e2f:	e9 4c 50 00 00       	jmp    7e80 <win_close_request@plt>
    2e34:	c7 45 10 03 00 00 00 	movl   $0x3,0x10(%ebp)
    2e3b:	e9 fa fd ff ff       	jmp    2c3a <root_handle_position_event+0xfa>

00002e40 <root_destroy>:
    2e40:	55                   	push   %ebp
    2e41:	89 e5                	mov    %esp,%ebp
    2e43:	5d                   	pop    %ebp
    2e44:	e9 87 fc ff ff       	jmp    2ad0 <widget_deinit>
    2e49:	8d b4 26 00 00 00 00 	lea    0x0(%esi,%eiz,1),%esi

00002e50 <fetch_input>:
    2e50:	55                   	push   %ebp
    2e51:	89 e5                	mov    %esp,%ebp
    2e53:	57                   	push   %edi
    2e54:	56                   	push   %esi
    2e55:	53                   	push   %ebx
    2e56:	83 ec 0c             	sub    $0xc,%esp
    2e59:	8b 45 08             	mov    0x8(%ebp),%eax
    2e5c:	8d 78 10             	lea    0x10(%eax),%edi
    2e5f:	90                   	nop
    2e60:	83 ec 0c             	sub    $0xc,%esp
    2e63:	6a 24                	push   $0x24
    2e65:	e8 46 4d 00 00       	call   7bb0 <malloc@plt>
    2e6a:	83 c4 10             	add    $0x10,%esp
    2e6d:	89 c6                	mov    %eax,%esi
    2e6f:	85 c0                	test   %eax,%eax
    2e71:	74 37                	je     2eaa <fetch_input+0x5a>
    2e73:	52                   	push   %edx
    2e74:	52                   	push   %edx
    2e75:	50                   	push   %eax
    2e76:	8b 45 08             	mov    0x8(%ebp),%eax
    2e79:	8b 48 08             	mov    0x8(%eax),%ecx
    2e7c:	51                   	push   %ecx
    2e7d:	e8 3e 4e 00 00       	call   7cc0 <win_get_event@plt>
    2e82:	83 c4 10             	add    $0x10,%esp
    2e85:	85 c0                	test   %eax,%eax
    2e87:	75 2f                	jne    2eb8 <fetch_input+0x68>
    2e89:	8b 5e 08             	mov    0x8(%esi),%ebx
    2e8c:	50                   	push   %eax
    2e8d:	50                   	push   %eax
    2e8e:	56                   	push   %esi
    2e8f:	57                   	push   %edi
    2e90:	c7 06 00 00 00 00    	movl   $0x0,(%esi)
    2e96:	c7 46 04 00 00 00 00 	movl   $0x0,0x4(%esi)
    2e9d:	e8 2e 4f 00 00       	call   7dd0 <prodcons_produce@plt>
    2ea2:	83 c4 10             	add    $0x10,%esp
    2ea5:	83 fb 08             	cmp    $0x8,%ebx
    2ea8:	75 b6                	jne    2e60 <fetch_input+0x10>
    2eaa:	8d 65 f4             	lea    -0xc(%ebp),%esp
    2ead:	31 c0                	xor    %eax,%eax
    2eaf:	5b                   	pop    %ebx
    2eb0:	5e                   	pop    %esi
    2eb1:	5f                   	pop    %edi
    2eb2:	5d                   	pop    %ebp
    2eb3:	c3                   	ret    
    2eb4:	8d 74 26 00          	lea    0x0(%esi,%eiz,1),%esi
    2eb8:	83 ec 0c             	sub    $0xc,%esp
    2ebb:	56                   	push   %esi
    2ebc:	e8 df 4f 00 00       	call   7ea0 <free@plt>
    2ec1:	83 c4 10             	add    $0x10,%esp
    2ec4:	8d 65 f4             	lea    -0xc(%ebp),%esp
    2ec7:	31 c0                	xor    %eax,%eax
    2ec9:	5b                   	pop    %ebx
    2eca:	5e                   	pop    %esi
    2ecb:	5f                   	pop    %edi
    2ecc:	5d                   	pop    %ebp
    2ecd:	c3                   	ret    
    2ece:	66 90                	xchg   %ax,%ax

00002ed0 <paint_internal>:
    2ed0:	55                   	push   %ebp
    2ed1:	89 e5                	mov    %esp,%ebp
    2ed3:	57                   	push   %edi
    2ed4:	56                   	push   %esi
    2ed5:	53                   	push   %ebx
    2ed6:	81 ec e8 00 00 00    	sub    $0xe8,%esp
    2edc:	89 c3                	mov    %eax,%ebx
    2ede:	8b 70 14             	mov    0x14(%eax),%esi
    2ee1:	8d 86 94 00 00 00    	lea    0x94(%esi),%eax
    2ee7:	50                   	push   %eax
    2ee8:	e8 c3 4f 00 00       	call   7eb0 <fibril_mutex_lock@plt>
    2eed:	8b 86 a4 00 00 00    	mov    0xa4(%esi),%eax
    2ef3:	83 c4 10             	add    $0x10,%esp
    2ef6:	89 85 2c ff ff ff    	mov    %eax,-0xd4(%ebp)
    2efc:	85 c0                	test   %eax,%eax
    2efe:	0f 84 5c 03 00 00    	je     3260 <paint_internal+0x390>
    2f04:	83 ec 0c             	sub    $0xc,%esp
    2f07:	8d 75 84             	lea    -0x7c(%ebp),%esi
    2f0a:	8d bd 4c ff ff ff    	lea    -0xb4(%ebp),%edi
    2f10:	56                   	push   %esi
    2f11:	e8 9a 2e 00 00       	call   5db0 <source_init>
    2f16:	8b 8d 2c ff ff ff    	mov    -0xd4(%ebp),%ecx
    2f1c:	58                   	pop    %eax
    2f1d:	5a                   	pop    %edx
    2f1e:	51                   	push   %ecx
    2f1f:	57                   	push   %edi
    2f20:	e8 fb 26 00 00       	call   5620 <drawctx_init>
    2f25:	58                   	pop    %eax
    2f26:	5a                   	pop    %edx
    2f27:	56                   	push   %esi
    2f28:	57                   	push   %edi
    2f29:	e8 c2 28 00 00       	call   57f0 <drawctx_set_source>
    2f2e:	8b 4b 28             	mov    0x28(%ebx),%ecx
    2f31:	8b 43 24             	mov    0x24(%ebx),%eax
    2f34:	68 55 55 55 ff       	push   $0xff555555
    2f39:	6a ff                	push   $0xffffffff
    2f3b:	51                   	push   %ecx
    2f3c:	50                   	push   %eax
    2f3d:	8b 43 1c             	mov    0x1c(%ebx),%eax
    2f40:	50                   	push   %eax
    2f41:	8b 43 20             	mov    0x20(%ebx),%eax
    2f44:	50                   	push   %eax
    2f45:	56                   	push   %esi
    2f46:	57                   	push   %edi
    2f47:	e8 e4 13 00 00       	call   4330 <draw_bevel>
    2f4c:	83 c4 28             	add    $0x28,%esp
    2f4f:	68 ba ba ba ff       	push   $0xffbababa
    2f54:	56                   	push   %esi
    2f55:	e8 e6 2e 00 00       	call   5e40 <source_set_color>
    2f5a:	8b 43 24             	mov    0x24(%ebx),%eax
    2f5d:	83 e8 02             	sub    $0x2,%eax
    2f60:	c7 04 24 02 00 00 00 	movl   $0x2,(%esp)
    2f67:	50                   	push   %eax
    2f68:	8b 43 20             	mov    0x20(%ebx),%eax
    2f6b:	40                   	inc    %eax
    2f6c:	50                   	push   %eax
    2f6d:	8b 43 1c             	mov    0x1c(%ebx),%eax
    2f70:	40                   	inc    %eax
    2f71:	50                   	push   %eax
    2f72:	57                   	push   %edi
    2f73:	e8 98 28 00 00       	call   5810 <drawctx_transfer>
    2f78:	83 c4 14             	add    $0x14,%esp
    2f7b:	8b 43 28             	mov    0x28(%ebx),%eax
    2f7e:	83 e8 02             	sub    $0x2,%eax
    2f81:	50                   	push   %eax
    2f82:	8b 43 20             	mov    0x20(%ebx),%eax
    2f85:	40                   	inc    %eax
    2f86:	6a 02                	push   $0x2
    2f88:	50                   	push   %eax
    2f89:	8b 43 1c             	mov    0x1c(%ebx),%eax
    2f8c:	40                   	inc    %eax
    2f8d:	50                   	push   %eax
    2f8e:	57                   	push   %edi
    2f8f:	e8 7c 28 00 00       	call   5810 <drawctx_transfer>
    2f94:	83 c4 14             	add    $0x14,%esp
    2f97:	8b 43 24             	mov    0x24(%ebx),%eax
    2f9a:	6a 02                	push   $0x2
    2f9c:	83 e8 02             	sub    $0x2,%eax
    2f9f:	8b 53 20             	mov    0x20(%ebx),%edx
    2fa2:	50                   	push   %eax
    2fa3:	8b 43 28             	mov    0x28(%ebx),%eax
    2fa6:	01 d0                	add    %edx,%eax
    2fa8:	83 e8 03             	sub    $0x3,%eax
    2fab:	50                   	push   %eax
    2fac:	8b 43 1c             	mov    0x1c(%ebx),%eax
    2faf:	40                   	inc    %eax
    2fb0:	50                   	push   %eax
    2fb1:	57                   	push   %edi
    2fb2:	e8 59 28 00 00       	call   5810 <drawctx_transfer>
    2fb7:	83 c4 14             	add    $0x14,%esp
    2fba:	8b 43 28             	mov    0x28(%ebx),%eax
    2fbd:	8b 4b 1c             	mov    0x1c(%ebx),%ecx
    2fc0:	83 e8 04             	sub    $0x4,%eax
    2fc3:	50                   	push   %eax
    2fc4:	8b 43 20             	mov    0x20(%ebx),%eax
    2fc7:	40                   	inc    %eax
    2fc8:	6a 02                	push   $0x2
    2fca:	50                   	push   %eax
    2fcb:	8b 43 24             	mov    0x24(%ebx),%eax
    2fce:	01 c8                	add    %ecx,%eax
    2fd0:	83 e8 03             	sub    $0x3,%eax
    2fd3:	50                   	push   %eax
    2fd4:	57                   	push   %edi
    2fd5:	e8 36 28 00 00       	call   5810 <drawctx_transfer>
    2fda:	83 c4 20             	add    $0x20,%esp
    2fdd:	8b 43 28             	mov    0x28(%ebx),%eax
    2fe0:	6a ff                	push   $0xffffffff
    2fe2:	83 e8 06             	sub    $0x6,%eax
    2fe5:	68 55 55 55 ff       	push   $0xff555555
    2fea:	50                   	push   %eax
    2feb:	8b 43 24             	mov    0x24(%ebx),%eax
    2fee:	83 e8 06             	sub    $0x6,%eax
    2ff1:	50                   	push   %eax
    2ff2:	8b 43 20             	mov    0x20(%ebx),%eax
    2ff5:	83 c0 03             	add    $0x3,%eax
    2ff8:	50                   	push   %eax
    2ff9:	8b 43 1c             	mov    0x1c(%ebx),%eax
    2ffc:	83 c0 03             	add    $0x3,%eax
    2fff:	50                   	push   %eax
    3000:	56                   	push   %esi
    3001:	57                   	push   %edi
    3002:	e8 29 13 00 00       	call   4330 <draw_bevel>
    3007:	8b 43 1c             	mov    0x1c(%ebx),%eax
    300a:	83 c4 20             	add    $0x20,%esp
    300d:	89 85 34 ff ff ff    	mov    %eax,-0xcc(%ebp)
    3013:	8d 50 04             	lea    0x4(%eax),%edx
    3016:	8b 43 14             	mov    0x14(%ebx),%eax
    3019:	89 95 30 ff ff ff    	mov    %edx,-0xd0(%ebp)
    301f:	8b 53 20             	mov    0x20(%ebx),%edx
    3022:	89 95 28 ff ff ff    	mov    %edx,-0xd8(%ebp)
    3028:	8d 4a 04             	lea    0x4(%edx),%ecx
    302b:	89 8d 24 ff ff ff    	mov    %ecx,-0xdc(%ebp)
    3031:	8b 4b 24             	mov    0x24(%ebx),%ecx
    3034:	89 8d 20 ff ff ff    	mov    %ecx,-0xe0(%ebp)
    303a:	83 e9 1c             	sub    $0x1c,%ecx
    303d:	80 78 02 01          	cmpb   $0x1,0x2(%eax)
    3041:	19 d2                	sbb    %edx,%edx
    3043:	81 e2 d1 e9 dc ff    	and    $0xffdce9d1,%edx
    3049:	81 ea a7 cf d7 00    	sub    $0xd7cfa7,%edx
    304f:	80 78 02 01          	cmpb   $0x1,0x2(%eax)
    3053:	19 c0                	sbb    %eax,%eax
    3055:	52                   	push   %edx
    3056:	25 7f bc 97 ff       	and    $0xff97bc7f,%eax
    305b:	2d 01 6e 87 00       	sub    $0x876e01,%eax
    3060:	50                   	push   %eax
    3061:	8b 85 24 ff ff ff    	mov    -0xdc(%ebp),%eax
    3067:	6a 14                	push   $0x14
    3069:	51                   	push   %ecx
    306a:	50                   	push   %eax
    306b:	8b 85 30 ff ff ff    	mov    -0xd0(%ebp),%eax
    3071:	50                   	push   %eax
    3072:	56                   	push   %esi
    3073:	57                   	push   %edi
    3074:	e8 b7 12 00 00       	call   4330 <draw_bevel>
    3079:	8b 43 14             	mov    0x14(%ebx),%eax
    307c:	83 c4 18             	add    $0x18,%esp
    307f:	80 78 02 01          	cmpb   $0x1,0x2(%eax)
    3083:	19 c0                	sbb    %eax,%eax
    3085:	25 98 ce b3 ff       	and    $0xffb3ce98,%eax
    308a:	2d 3c 95 a7 00       	sub    $0xa7953c,%eax
    308f:	50                   	push   %eax
    3090:	56                   	push   %esi
    3091:	e8 aa 2d 00 00       	call   5e40 <source_set_color>
    3096:	8b 8d 20 ff ff ff    	mov    -0xe0(%ebp),%ecx
    309c:	8b 95 28 ff ff ff    	mov    -0xd8(%ebp),%edx
    30a2:	8d 41 e2             	lea    -0x1e(%ecx),%eax
    30a5:	c7 04 24 12 00 00 00 	movl   $0x12,(%esp)
    30ac:	50                   	push   %eax
    30ad:	8d 42 05             	lea    0x5(%edx),%eax
    30b0:	50                   	push   %eax
    30b1:	8b 85 34 ff ff ff    	mov    -0xcc(%ebp),%eax
    30b7:	83 c0 05             	add    $0x5,%eax
    30ba:	50                   	push   %eax
    30bb:	57                   	push   %edi
    30bc:	e8 4f 27 00 00       	call   5810 <drawctx_transfer>
    30c1:	8b 53 1c             	mov    0x1c(%ebx),%edx
    30c4:	8b 43 24             	mov    0x24(%ebx),%eax
    30c7:	83 c4 20             	add    $0x20,%esp
    30ca:	01 d0                	add    %edx,%eax
    30cc:	89 c2                	mov    %eax,%edx
    30ce:	8b 43 20             	mov    0x20(%ebx),%eax
    30d1:	89 85 30 ff ff ff    	mov    %eax,-0xd0(%ebp)
    30d7:	83 c0 04             	add    $0x4,%eax
    30da:	68 55 55 55 ff       	push   $0xff555555
    30df:	6a ff                	push   $0xffffffff
    30e1:	6a 14                	push   $0x14
    30e3:	6a 14                	push   $0x14
    30e5:	50                   	push   %eax
    30e6:	89 d0                	mov    %edx,%eax
    30e8:	83 e8 18             	sub    $0x18,%eax
    30eb:	89 95 34 ff ff ff    	mov    %edx,-0xcc(%ebp)
    30f1:	50                   	push   %eax
    30f2:	56                   	push   %esi
    30f3:	57                   	push   %edi
    30f4:	e8 37 12 00 00       	call   4330 <draw_bevel>
    30f9:	83 c4 18             	add    $0x18,%esp
    30fc:	68 ba ba ba ff       	push   $0xffbababa
    3101:	56                   	push   %esi
    3102:	e8 39 2d 00 00       	call   5e40 <source_set_color>
    3107:	8b 8d 30 ff ff ff    	mov    -0xd0(%ebp),%ecx
    310d:	8d 41 05             	lea    0x5(%ecx),%eax
    3110:	c7 04 24 12 00 00 00 	movl   $0x12,(%esp)
    3117:	6a 12                	push   $0x12
    3119:	50                   	push   %eax
    311a:	8b 85 34 ff ff ff    	mov    -0xcc(%ebp),%eax
    3120:	83 e8 17             	sub    $0x17,%eax
    3123:	50                   	push   %eax
    3124:	57                   	push   %edi
    3125:	e8 e6 26 00 00       	call   5810 <drawctx_transfer>
    312a:	8b 8d 30 ff ff ff    	mov    -0xd0(%ebp),%ecx
    3130:	83 c4 14             	add    $0x14,%esp
    3133:	8d 41 07             	lea    0x7(%ecx),%eax
    3136:	8b 8d 2c ff ff ff    	mov    -0xd4(%ebp),%ecx
    313c:	68 55 55 55 ff       	push   $0xff555555
    3141:	6a ff                	push   $0xffffffff
    3143:	50                   	push   %eax
    3144:	8b 85 34 ff ff ff    	mov    -0xcc(%ebp),%eax
    314a:	83 e8 15             	sub    $0x15,%eax
    314d:	50                   	push   %eax
    314e:	51                   	push   %ecx
    314f:	e8 3c 0e 00 00       	call   3f90 <draw_icon_cross>
    3154:	83 c4 18             	add    $0x18,%esp
    3157:	8d 85 40 ff ff ff    	lea    -0xc0(%ebp),%eax
    315d:	6a 10                	push   $0x10
    315f:	50                   	push   %eax
    3160:	e8 9b 13 00 00       	call   4500 <embedded_font_create>
    3165:	83 c4 10             	add    $0x10,%esp
    3168:	85 c0                	test   %eax,%eax
    316a:	0f 85 d0 00 00 00    	jne    3240 <paint_internal+0x370>
    3170:	50                   	push   %eax
    3171:	50                   	push   %eax
    3172:	8b 85 40 ff ff ff    	mov    -0xc0(%ebp),%eax
    3178:	50                   	push   %eax
    3179:	57                   	push   %edi
    317a:	e8 81 26 00 00       	call   5800 <drawctx_set_font>
    317f:	8b 43 14             	mov    0x14(%ebx),%eax
    3182:	80 78 02 00          	cmpb   $0x0,0x2(%eax)
    3186:	0f 95 c0             	setne  %al
    3189:	25 ff 00 00 00       	and    $0xff,%eax
    318e:	5a                   	pop    %edx
    318f:	f7 d8                	neg    %eax
    3191:	0d cf cf cf ff       	or     $0xffcfcfcf,%eax
    3196:	59                   	pop    %ecx
    3197:	50                   	push   %eax
    3198:	56                   	push   %esi
    3199:	e8 a2 2c 00 00       	call   5e40 <source_set_color>
    319e:	8d 85 48 ff ff ff    	lea    -0xb8(%ebp),%eax
    31a4:	50                   	push   %eax
    31a5:	8d 85 44 ff ff ff    	lea    -0xbc(%ebp),%eax
    31ab:	50                   	push   %eax
    31ac:	8b 43 14             	mov    0x14(%ebx),%eax
    31af:	8b 70 04             	mov    0x4(%eax),%esi
    31b2:	8b 85 40 ff ff ff    	mov    -0xc0(%ebp),%eax
    31b8:	56                   	push   %esi
    31b9:	50                   	push   %eax
    31ba:	e8 c1 29 00 00       	call   5b80 <font_get_box>
    31bf:	8b 95 44 ff ff ff    	mov    -0xbc(%ebp),%edx
    31c5:	8b 43 24             	mov    0x24(%ebx),%eax
    31c8:	8d 4a 1e             	lea    0x1e(%edx),%ecx
    31cb:	83 c4 20             	add    $0x20,%esp
    31ce:	39 c8                	cmp    %ecx,%eax
    31d0:	72 41                	jb     3213 <paint_internal+0x343>
    31d2:	8b 4b 14             	mov    0x14(%ebx),%ecx
    31d5:	8b 71 04             	mov    0x4(%ecx),%esi
    31d8:	89 b5 34 ff ff ff    	mov    %esi,-0xcc(%ebp)
    31de:	85 f6                	test   %esi,%esi
    31e0:	74 31                	je     3213 <paint_internal+0x343>
    31e2:	8b b5 48 ff ff ff    	mov    -0xb8(%ebp),%esi
    31e8:	b9 14 00 00 00       	mov    $0x14,%ecx
    31ed:	29 f1                	sub    %esi,%ecx
    31ef:	8b 73 20             	mov    0x20(%ebx),%esi
    31f2:	d1 e9                	shr    %ecx
    31f4:	29 d0                	sub    %edx,%eax
    31f6:	d1 e8                	shr    %eax
    31f8:	8b 53 1c             	mov    0x1c(%ebx),%edx
    31fb:	8d 4c 31 04          	lea    0x4(%ecx,%esi,1),%ecx
    31ff:	01 d0                	add    %edx,%eax
    3201:	51                   	push   %ecx
    3202:	8b 8d 34 ff ff ff    	mov    -0xcc(%ebp),%ecx
    3208:	50                   	push   %eax
    3209:	51                   	push   %ecx
    320a:	57                   	push   %edi
    320b:	e8 70 28 00 00       	call   5a80 <drawctx_print>
    3210:	83 c4 10             	add    $0x10,%esp
    3213:	83 ec 0c             	sub    $0xc,%esp
    3216:	8b 85 40 ff ff ff    	mov    -0xc0(%ebp),%eax
    321c:	50                   	push   %eax
    321d:	e8 be 28 00 00       	call   5ae0 <font_release>
    3222:	8b 43 14             	mov    0x14(%ebx),%eax
    3225:	05 94 00 00 00       	add    $0x94,%eax
    322a:	89 04 24             	mov    %eax,(%esp)
    322d:	e8 4e 4a 00 00       	call   7c80 <fibril_mutex_unlock@plt>
    3232:	83 c4 10             	add    $0x10,%esp
    3235:	8d 65 f4             	lea    -0xc(%ebp),%esp
    3238:	5b                   	pop    %ebx
    3239:	5e                   	pop    %esi
    323a:	5f                   	pop    %edi
    323b:	5d                   	pop    %ebp
    323c:	c3                   	ret    
    323d:	8d 76 00             	lea    0x0(%esi),%esi
    3240:	83 ec 0c             	sub    $0xc,%esp
    3243:	8b 43 14             	mov    0x14(%ebx),%eax
    3246:	05 94 00 00 00       	add    $0x94,%eax
    324b:	50                   	push   %eax
    324c:	e8 2f 4a 00 00       	call   7c80 <fibril_mutex_unlock@plt>
    3251:	83 c4 10             	add    $0x10,%esp
    3254:	8d 65 f4             	lea    -0xc(%ebp),%esp
    3257:	5b                   	pop    %ebx
    3258:	5e                   	pop    %esi
    3259:	5f                   	pop    %edi
    325a:	5d                   	pop    %ebp
    325b:	c3                   	ret    
    325c:	8d 74 26 00          	lea    0x0(%esi,%eiz,1),%esi
    3260:	83 ec 0c             	sub    $0xc,%esp
    3263:	8b 43 14             	mov    0x14(%ebx),%eax
    3266:	05 94 00 00 00       	add    $0x94,%eax
    326b:	50                   	push   %eax
    326c:	e8 0f 4a 00 00       	call   7c80 <fibril_mutex_unlock@plt>
    3271:	83 c4 10             	add    $0x10,%esp
    3274:	e9 8b fc ff ff       	jmp    2f04 <paint_internal+0x34>
    3279:	8d b4 26 00 00 00 00 	lea    0x0(%esi,%eiz,1),%esi

00003280 <root_reconfigure>:
    3280:	55                   	push   %ebp
    3281:	89 e5                	mov    %esp,%ebp
    3283:	57                   	push   %edi
    3284:	56                   	push   %esi
    3285:	53                   	push   %ebx
    3286:	83 ec 0c             	sub    $0xc,%esp
    3289:	8b 5d 08             	mov    0x8(%ebp),%ebx
    328c:	8b 43 14             	mov    0x14(%ebx),%eax
    328f:	80 78 01 00          	cmpb   $0x0,0x1(%eax)
    3293:	74 43                	je     32d8 <root_reconfigure+0x58>
    3295:	8b 73 10             	mov    0x10(%ebx),%esi
    3298:	8d 7b 0c             	lea    0xc(%ebx),%edi
    329b:	39 fe                	cmp    %edi,%esi
    329d:	74 2e                	je     32cd <root_reconfigure+0x4d>
    329f:	90                   	nop
    32a0:	83 ec 0c             	sub    $0xc,%esp
    32a3:	8b 43 28             	mov    0x28(%ebx),%eax
    32a6:	83 e8 1c             	sub    $0x1c,%eax
    32a9:	50                   	push   %eax
    32aa:	8b 43 24             	mov    0x24(%ebx),%eax
    32ad:	83 e8 08             	sub    $0x8,%eax
    32b0:	50                   	push   %eax
    32b1:	8b 43 20             	mov    0x20(%ebx),%eax
    32b4:	83 c0 18             	add    $0x18,%eax
    32b7:	50                   	push   %eax
    32b8:	8b 43 1c             	mov    0x1c(%ebx),%eax
    32bb:	83 c0 04             	add    $0x4,%eax
    32be:	50                   	push   %eax
    32bf:	56                   	push   %esi
    32c0:	ff 56 4c             	call   *0x4c(%esi)
    32c3:	8b 76 04             	mov    0x4(%esi),%esi
    32c6:	83 c4 20             	add    $0x20,%esp
    32c9:	39 fe                	cmp    %edi,%esi
    32cb:	75 d3                	jne    32a0 <root_reconfigure+0x20>
    32cd:	8d 65 f4             	lea    -0xc(%ebp),%esp
    32d0:	5b                   	pop    %ebx
    32d1:	5e                   	pop    %esi
    32d2:	5f                   	pop    %edi
    32d3:	5d                   	pop    %ebp
    32d4:	c3                   	ret    
    32d5:	8d 76 00             	lea    0x0(%esi),%esi
    32d8:	8b 73 10             	mov    0x10(%ebx),%esi
    32db:	8d 7b 0c             	lea    0xc(%ebx),%edi
    32de:	39 f7                	cmp    %esi,%edi
    32e0:	74 eb                	je     32cd <root_reconfigure+0x4d>
    32e2:	8d b6 00 00 00 00    	lea    0x0(%esi),%esi
    32e8:	83 ec 0c             	sub    $0xc,%esp
    32eb:	8b 43 28             	mov    0x28(%ebx),%eax
    32ee:	50                   	push   %eax
    32ef:	8b 53 24             	mov    0x24(%ebx),%edx
    32f2:	52                   	push   %edx
    32f3:	8b 4b 20             	mov    0x20(%ebx),%ecx
    32f6:	51                   	push   %ecx
    32f7:	8b 43 1c             	mov    0x1c(%ebx),%eax
    32fa:	50                   	push   %eax
    32fb:	56                   	push   %esi
    32fc:	ff 56 4c             	call   *0x4c(%esi)
    32ff:	8b 76 04             	mov    0x4(%esi),%esi
    3302:	83 c4 20             	add    $0x20,%esp
    3305:	39 f7                	cmp    %esi,%edi
    3307:	75 df                	jne    32e8 <root_reconfigure+0x68>
    3309:	8d 65 f4             	lea    -0xc(%ebp),%esp
    330c:	5b                   	pop    %ebx
    330d:	5e                   	pop    %esi
    330e:	5f                   	pop    %edi
    330f:	5d                   	pop    %ebp
    3310:	c3                   	ret    
    3311:	eb 0d                	jmp    3320 <root_rearrange>
    3313:	90                   	nop
    3314:	90                   	nop
    3315:	90                   	nop
    3316:	90                   	nop
    3317:	90                   	nop
    3318:	90                   	nop
    3319:	90                   	nop
    331a:	90                   	nop
    331b:	90                   	nop
    331c:	90                   	nop
    331d:	90                   	nop
    331e:	90                   	nop
    331f:	90                   	nop

00003320 <root_rearrange>:
    3320:	55                   	push   %ebp
    3321:	89 e5                	mov    %esp,%ebp
    3323:	57                   	push   %edi
    3324:	56                   	push   %esi
    3325:	53                   	push   %ebx
    3326:	83 ec 28             	sub    $0x28,%esp
    3329:	8b 45 10             	mov    0x10(%ebp),%eax
    332c:	8b 75 14             	mov    0x14(%ebp),%esi
    332f:	8b 7d 18             	mov    0x18(%ebp),%edi
    3332:	8b 55 08             	mov    0x8(%ebp),%edx
    3335:	57                   	push   %edi
    3336:	56                   	push   %esi
    3337:	50                   	push   %eax
    3338:	8b 45 0c             	mov    0xc(%ebp),%eax
    333b:	50                   	push   %eax
    333c:	89 55 e4             	mov    %edx,-0x1c(%ebp)
    333f:	52                   	push   %edx
    3340:	e8 5b f7 ff ff       	call   2aa0 <widget_modify>
    3345:	8b 55 e4             	mov    -0x1c(%ebp),%edx
    3348:	83 c4 20             	add    $0x20,%esp
    334b:	8b 42 14             	mov    0x14(%edx),%eax
    334e:	80 78 01 00          	cmpb   $0x0,0x1(%eax)
    3352:	75 3c                	jne    3390 <root_rearrange+0x70>
    3354:	8d 42 0c             	lea    0xc(%edx),%eax
    3357:	8b 5a 10             	mov    0x10(%edx),%ebx
    335a:	89 45 e4             	mov    %eax,-0x1c(%ebp)
    335d:	39 c3                	cmp    %eax,%ebx
    335f:	74 23                	je     3384 <root_rearrange+0x64>
    3361:	8d b4 26 00 00 00 00 	lea    0x0(%esi,%eiz,1),%esi
    3368:	83 ec 0c             	sub    $0xc,%esp
    336b:	8b 45 10             	mov    0x10(%ebp),%eax
    336e:	8b 55 0c             	mov    0xc(%ebp),%edx
    3371:	57                   	push   %edi
    3372:	56                   	push   %esi
    3373:	50                   	push   %eax
    3374:	52                   	push   %edx
    3375:	53                   	push   %ebx
    3376:	ff 53 4c             	call   *0x4c(%ebx)
    3379:	8b 5b 04             	mov    0x4(%ebx),%ebx
    337c:	83 c4 20             	add    $0x20,%esp
    337f:	3b 5d e4             	cmp    -0x1c(%ebp),%ebx
    3382:	75 e4                	jne    3368 <root_rearrange+0x48>
    3384:	8d 65 f4             	lea    -0xc(%ebp),%esp
    3387:	5b                   	pop    %ebx
    3388:	5e                   	pop    %esi
    3389:	5f                   	pop    %edi
    338a:	5d                   	pop    %ebp
    338b:	c3                   	ret    
    338c:	8d 74 26 00          	lea    0x0(%esi,%eiz,1),%esi
    3390:	89 d0                	mov    %edx,%eax
    3392:	e8 39 fb ff ff       	call   2ed0 <paint_internal>
    3397:	8b 55 e4             	mov    -0x1c(%ebp),%edx
    339a:	8d 42 0c             	lea    0xc(%edx),%eax
    339d:	8b 5a 10             	mov    0x10(%edx),%ebx
    33a0:	89 45 e4             	mov    %eax,-0x1c(%ebp)
    33a3:	39 c3                	cmp    %eax,%ebx
    33a5:	74 dd                	je     3384 <root_rearrange+0x64>
    33a7:	8b 45 10             	mov    0x10(%ebp),%eax
    33aa:	83 ef 1c             	sub    $0x1c,%edi
    33ad:	83 c0 18             	add    $0x18,%eax
    33b0:	83 ee 08             	sub    $0x8,%esi
    33b3:	89 45 dc             	mov    %eax,-0x24(%ebp)
    33b6:	8b 45 0c             	mov    0xc(%ebp),%eax
    33b9:	83 c0 04             	add    $0x4,%eax
    33bc:	89 45 e0             	mov    %eax,-0x20(%ebp)
    33bf:	90                   	nop
    33c0:	83 ec 0c             	sub    $0xc,%esp
    33c3:	8b 4d dc             	mov    -0x24(%ebp),%ecx
    33c6:	8b 45 e0             	mov    -0x20(%ebp),%eax
    33c9:	57                   	push   %edi
    33ca:	56                   	push   %esi
    33cb:	51                   	push   %ecx
    33cc:	50                   	push   %eax
    33cd:	53                   	push   %ebx
    33ce:	ff 53 4c             	call   *0x4c(%ebx)
    33d1:	8b 5b 04             	mov    0x4(%ebx),%ebx
    33d4:	83 c4 20             	add    $0x20,%esp
    33d7:	3b 5d e4             	cmp    -0x1c(%ebp),%ebx
    33da:	75 e4                	jne    33c0 <root_rearrange+0xa0>
    33dc:	8d 65 f4             	lea    -0xc(%ebp),%esp
    33df:	5b                   	pop    %ebx
    33e0:	5e                   	pop    %esi
    33e1:	5f                   	pop    %edi
    33e2:	5d                   	pop    %ebp
    33e3:	c3                   	ret    
    33e4:	8d b6 00 00 00 00    	lea    0x0(%esi),%esi
    33ea:	8d bf 00 00 00 00    	lea    0x0(%edi),%edi

000033f0 <destroy_children>:
    33f0:	55                   	push   %ebp
    33f1:	89 e5                	mov    %esp,%ebp
    33f3:	57                   	push   %edi
    33f4:	56                   	push   %esi
    33f5:	53                   	push   %ebx
    33f6:	83 ec 4c             	sub    $0x4c,%esp
    33f9:	89 45 a8             	mov    %eax,-0x58(%ebp)
    33fc:	8b 48 10             	mov    0x10(%eax),%ecx
    33ff:	83 c0 0c             	add    $0xc,%eax
    3402:	89 4d d4             	mov    %ecx,-0x2c(%ebp)
    3405:	89 45 bc             	mov    %eax,-0x44(%ebp)
    3408:	39 c1                	cmp    %eax,%ecx
    340a:	0f 84 af 01 00 00    	je     35bf <destroy_children+0x1cf>
    3410:	8b 45 d4             	mov    -0x2c(%ebp),%eax
    3413:	83 c0 0c             	add    $0xc,%eax
    3416:	8b 48 04             	mov    0x4(%eax),%ecx
    3419:	89 45 c0             	mov    %eax,-0x40(%ebp)
    341c:	89 4d d0             	mov    %ecx,-0x30(%ebp)
    341f:	39 c8                	cmp    %ecx,%eax
    3421:	0f 84 79 01 00 00    	je     35a0 <destroy_children+0x1b0>
    3427:	8b 45 d0             	mov    -0x30(%ebp),%eax
    342a:	83 c0 0c             	add    $0xc,%eax
    342d:	8b 50 04             	mov    0x4(%eax),%edx
    3430:	89 45 b4             	mov    %eax,-0x4c(%ebp)
    3433:	89 55 cc             	mov    %edx,-0x34(%ebp)
    3436:	39 c2                	cmp    %eax,%edx
    3438:	0f 84 43 01 00 00    	je     3581 <destroy_children+0x191>
    343e:	8b 45 cc             	mov    -0x34(%ebp),%eax
    3441:	83 c0 0c             	add    $0xc,%eax
    3444:	8b 48 04             	mov    0x4(%eax),%ecx
    3447:	89 45 b8             	mov    %eax,-0x48(%ebp)
    344a:	89 4d c8             	mov    %ecx,-0x38(%ebp)
    344d:	39 c8                	cmp    %ecx,%eax
    344f:	0f 84 0d 01 00 00    	je     3562 <destroy_children+0x172>
    3455:	8b 45 c8             	mov    -0x38(%ebp),%eax
    3458:	83 c0 0c             	add    $0xc,%eax
    345b:	8b 50 04             	mov    0x4(%eax),%edx
    345e:	89 45 b0             	mov    %eax,-0x50(%ebp)
    3461:	89 55 c4             	mov    %edx,-0x3c(%ebp)
    3464:	39 c2                	cmp    %eax,%edx
    3466:	0f 84 d7 00 00 00    	je     3543 <destroy_children+0x153>
    346c:	8b 45 c4             	mov    -0x3c(%ebp),%eax
    346f:	83 c0 0c             	add    $0xc,%eax
    3472:	8b 48 04             	mov    0x4(%eax),%ecx
    3475:	89 45 ac             	mov    %eax,-0x54(%ebp)
    3478:	89 4d dc             	mov    %ecx,-0x24(%ebp)
    347b:	39 c1                	cmp    %eax,%ecx
    347d:	0f 84 a1 00 00 00    	je     3524 <destroy_children+0x134>
    3483:	8b 45 dc             	mov    -0x24(%ebp),%eax
    3486:	83 c0 0c             	add    $0xc,%eax
    3489:	8b 48 04             	mov    0x4(%eax),%ecx
    348c:	89 45 d8             	mov    %eax,-0x28(%ebp)
    348f:	89 4d e4             	mov    %ecx,-0x1c(%ebp)
    3492:	39 c1                	cmp    %eax,%ecx
    3494:	74 6f                	je     3505 <destroy_children+0x115>
    3496:	8b 45 e4             	mov    -0x1c(%ebp),%eax
    3499:	83 c0 0c             	add    $0xc,%eax
    349c:	8b 58 04             	mov    0x4(%eax),%ebx
    349f:	89 45 e0             	mov    %eax,-0x20(%ebp)
    34a2:	39 c3                	cmp    %eax,%ebx
    34a4:	0f 84 1e 01 00 00    	je     35c8 <destroy_children+0x1d8>
    34aa:	8d b6 00 00 00 00    	lea    0x0(%esi),%esi
    34b0:	8b 7b 10             	mov    0x10(%ebx),%edi
    34b3:	8d 73 0c             	lea    0xc(%ebx),%esi
    34b6:	39 f7                	cmp    %esi,%edi
    34b8:	74 1e                	je     34d8 <destroy_children+0xe8>
    34ba:	8d b6 00 00 00 00    	lea    0x0(%esi),%esi
    34c0:	89 f8                	mov    %edi,%eax
    34c2:	e8 29 ff ff ff       	call   33f0 <destroy_children>
    34c7:	83 ec 0c             	sub    $0xc,%esp
    34ca:	57                   	push   %edi
    34cb:	ff 57 44             	call   *0x44(%edi)
    34ce:	8b 7b 10             	mov    0x10(%ebx),%edi
    34d1:	83 c4 10             	add    $0x10,%esp
    34d4:	39 f7                	cmp    %esi,%edi
    34d6:	75 e8                	jne    34c0 <destroy_children+0xd0>
    34d8:	83 ec 0c             	sub    $0xc,%esp
    34db:	53                   	push   %ebx
    34dc:	ff 53 44             	call   *0x44(%ebx)
    34df:	8b 45 e4             	mov    -0x1c(%ebp),%eax
    34e2:	83 c4 10             	add    $0x10,%esp
    34e5:	8b 58 10             	mov    0x10(%eax),%ebx
    34e8:	3b 5d e0             	cmp    -0x20(%ebp),%ebx
    34eb:	75 c3                	jne    34b0 <destroy_children+0xc0>
    34ed:	83 ec 0c             	sub    $0xc,%esp
    34f0:	50                   	push   %eax
    34f1:	ff 50 44             	call   *0x44(%eax)
    34f4:	8b 45 dc             	mov    -0x24(%ebp),%eax
    34f7:	83 c4 10             	add    $0x10,%esp
    34fa:	8b 40 10             	mov    0x10(%eax),%eax
    34fd:	89 45 e4             	mov    %eax,-0x1c(%ebp)
    3500:	3b 45 d8             	cmp    -0x28(%ebp),%eax
    3503:	75 91                	jne    3496 <destroy_children+0xa6>
    3505:	83 ec 0c             	sub    $0xc,%esp
    3508:	8b 45 dc             	mov    -0x24(%ebp),%eax
    350b:	50                   	push   %eax
    350c:	ff 50 44             	call   *0x44(%eax)
    350f:	8b 45 c4             	mov    -0x3c(%ebp),%eax
    3512:	83 c4 10             	add    $0x10,%esp
    3515:	8b 40 10             	mov    0x10(%eax),%eax
    3518:	89 45 dc             	mov    %eax,-0x24(%ebp)
    351b:	3b 45 ac             	cmp    -0x54(%ebp),%eax
    351e:	0f 85 5f ff ff ff    	jne    3483 <destroy_children+0x93>
    3524:	83 ec 0c             	sub    $0xc,%esp
    3527:	8b 45 c4             	mov    -0x3c(%ebp),%eax
    352a:	50                   	push   %eax
    352b:	ff 50 44             	call   *0x44(%eax)
    352e:	8b 45 c8             	mov    -0x38(%ebp),%eax
    3531:	83 c4 10             	add    $0x10,%esp
    3534:	8b 40 10             	mov    0x10(%eax),%eax
    3537:	89 45 c4             	mov    %eax,-0x3c(%ebp)
    353a:	3b 45 b0             	cmp    -0x50(%ebp),%eax
    353d:	0f 85 29 ff ff ff    	jne    346c <destroy_children+0x7c>
    3543:	83 ec 0c             	sub    $0xc,%esp
    3546:	8b 45 c8             	mov    -0x38(%ebp),%eax
    3549:	50                   	push   %eax
    354a:	ff 50 44             	call   *0x44(%eax)
    354d:	8b 45 cc             	mov    -0x34(%ebp),%eax
    3550:	83 c4 10             	add    $0x10,%esp
    3553:	8b 40 10             	mov    0x10(%eax),%eax
    3556:	89 45 c8             	mov    %eax,-0x38(%ebp)
    3559:	3b 45 b8             	cmp    -0x48(%ebp),%eax
    355c:	0f 85 f3 fe ff ff    	jne    3455 <destroy_children+0x65>
    3562:	83 ec 0c             	sub    $0xc,%esp
    3565:	8b 45 cc             	mov    -0x34(%ebp),%eax
    3568:	50                   	push   %eax
    3569:	ff 50 44             	call   *0x44(%eax)
    356c:	8b 45 d0             	mov    -0x30(%ebp),%eax
    356f:	83 c4 10             	add    $0x10,%esp
    3572:	8b 40 10             	mov    0x10(%eax),%eax
    3575:	89 45 cc             	mov    %eax,-0x34(%ebp)
    3578:	3b 45 b4             	cmp    -0x4c(%ebp),%eax
    357b:	0f 85 bd fe ff ff    	jne    343e <destroy_children+0x4e>
    3581:	83 ec 0c             	sub    $0xc,%esp
    3584:	8b 45 d0             	mov    -0x30(%ebp),%eax
    3587:	50                   	push   %eax
    3588:	ff 50 44             	call   *0x44(%eax)
    358b:	8b 45 d4             	mov    -0x2c(%ebp),%eax
    358e:	83 c4 10             	add    $0x10,%esp
    3591:	8b 40 10             	mov    0x10(%eax),%eax
    3594:	89 45 d0             	mov    %eax,-0x30(%ebp)
    3597:	3b 45 c0             	cmp    -0x40(%ebp),%eax
    359a:	0f 85 87 fe ff ff    	jne    3427 <destroy_children+0x37>
    35a0:	83 ec 0c             	sub    $0xc,%esp
    35a3:	8b 45 d4             	mov    -0x2c(%ebp),%eax
    35a6:	50                   	push   %eax
    35a7:	ff 50 44             	call   *0x44(%eax)
    35aa:	8b 45 a8             	mov    -0x58(%ebp),%eax
    35ad:	83 c4 10             	add    $0x10,%esp
    35b0:	8b 40 10             	mov    0x10(%eax),%eax
    35b3:	89 45 d4             	mov    %eax,-0x2c(%ebp)
    35b6:	3b 45 bc             	cmp    -0x44(%ebp),%eax
    35b9:	0f 85 51 fe ff ff    	jne    3410 <destroy_children+0x20>
    35bf:	8d 65 f4             	lea    -0xc(%ebp),%esp
    35c2:	5b                   	pop    %ebx
    35c3:	5e                   	pop    %esi
    35c4:	5f                   	pop    %edi
    35c5:	5d                   	pop    %ebp
    35c6:	c3                   	ret    
    35c7:	90                   	nop
    35c8:	8b 45 e4             	mov    -0x1c(%ebp),%eax
    35cb:	e9 1d ff ff ff       	jmp    34ed <destroy_children+0xfd>

000035d0 <event_loop>:
    35d0:	55                   	push   %ebp
    35d1:	89 e5                	mov    %esp,%ebp
    35d3:	57                   	push   %edi
    35d4:	56                   	push   %esi
    35d5:	53                   	push   %ebx
    35d6:	83 ec 6c             	sub    $0x6c,%esp
    35d9:	8b 45 08             	mov    0x8(%ebp),%eax
    35dc:	83 c0 10             	add    $0x10,%eax
    35df:	89 45 a4             	mov    %eax,-0x5c(%ebp)
    35e2:	8b 45 08             	mov    0x8(%ebp),%eax
    35e5:	83 c0 30             	add    $0x30,%eax
    35e8:	89 45 a0             	mov    %eax,-0x60(%ebp)
    35eb:	8b 45 08             	mov    0x8(%ebp),%eax
    35ee:	05 94 00 00 00       	add    $0x94,%eax
    35f3:	89 45 9c             	mov    %eax,-0x64(%ebp)
    35f6:	66 90                	xchg   %ax,%ax
    35f8:	83 ec 0c             	sub    $0xc,%esp
    35fb:	8b 45 a4             	mov    -0x5c(%ebp),%eax
    35fe:	50                   	push   %eax
    35ff:	e8 0c 47 00 00       	call   7d10 <prodcons_consume@plt>
    3604:	83 c4 10             	add    $0x10,%esp
    3607:	89 c3                	mov    %eax,%ebx
    3609:	83 78 08 08          	cmpl   $0x8,0x8(%eax)
    360d:	0f 87 55 02 00 00    	ja     3868 <event_loop+0x298>
    3613:	8b 40 08             	mov    0x8(%eax),%eax
    3616:	ff 24 85 00 78 00 00 	jmp    *0x7800(,%eax,4)
    361d:	8d 76 00             	lea    0x0(%esi),%esi
    3620:	83 ec 0c             	sub    $0xc,%esp
    3623:	8b 7d 9c             	mov    -0x64(%ebp),%edi
    3626:	57                   	push   %edi
    3627:	e8 84 48 00 00       	call   7eb0 <fibril_mutex_lock@plt>
    362c:	8d 45 b8             	lea    -0x48(%ebp),%eax
    362f:	89 04 24             	mov    %eax,(%esp)
    3632:	8d 45 b4             	lea    -0x4c(%ebp),%eax
    3635:	50                   	push   %eax
    3636:	8d 45 b0             	lea    -0x50(%ebp),%eax
    3639:	50                   	push   %eax
    363a:	8d 45 ac             	lea    -0x54(%ebp),%eax
    363d:	50                   	push   %eax
    363e:	8b 45 08             	mov    0x8(%ebp),%eax
    3641:	8b b0 a4 00 00 00    	mov    0xa4(%eax),%esi
    3647:	56                   	push   %esi
    3648:	e8 53 2c 00 00       	call   62a0 <surface_get_damaged_region>
    364d:	8b 45 08             	mov    0x8(%ebp),%eax
    3650:	83 c4 14             	add    $0x14,%esp
    3653:	8b 80 a4 00 00 00    	mov    0xa4(%eax),%eax
    3659:	50                   	push   %eax
    365a:	e8 51 2d 00 00       	call   63b0 <surface_reset_damaged_region>
    365f:	89 3c 24             	mov    %edi,(%esp)
    3662:	e8 19 46 00 00       	call   7c80 <fibril_mutex_unlock@plt>
    3667:	8b 45 b4             	mov    -0x4c(%ebp),%eax
    366a:	83 c4 10             	add    $0x10,%esp
    366d:	85 c0                	test   %eax,%eax
    366f:	0f 84 f3 01 00 00    	je     3868 <event_loop+0x298>
    3675:	8b 55 b8             	mov    -0x48(%ebp),%edx
    3678:	85 d2                	test   %edx,%edx
    367a:	0f 84 e8 01 00 00    	je     3868 <event_loop+0x298>
    3680:	83 ec 0c             	sub    $0xc,%esp
    3683:	52                   	push   %edx
    3684:	50                   	push   %eax
    3685:	8b 45 b0             	mov    -0x50(%ebp),%eax
    3688:	8b 55 ac             	mov    -0x54(%ebp),%edx
    368b:	50                   	push   %eax
    368c:	8b 45 08             	mov    0x8(%ebp),%eax
    368f:	52                   	push   %edx
    3690:	8b 48 0c             	mov    0xc(%eax),%ecx
    3693:	51                   	push   %ecx
    3694:	e8 e7 46 00 00       	call   7d80 <win_damage@plt>
    3699:	83 c4 20             	add    $0x20,%esp
    369c:	e9 c7 01 00 00       	jmp    3868 <event_loop+0x298>
    36a1:	8d b4 26 00 00 00 00 	lea    0x0(%esi,%eiz,1),%esi
    36a8:	83 ec 0c             	sub    $0xc,%esp
    36ab:	8b 45 a0             	mov    -0x60(%ebp),%eax
    36ae:	50                   	push   %eax
    36af:	8b 45 08             	mov    0x8(%ebp),%eax
    36b2:	ff 90 80 00 00 00    	call   *0x80(%eax)
    36b8:	89 1c 24             	mov    %ebx,(%esp)
    36bb:	e8 e0 47 00 00       	call   7ea0 <free@plt>
    36c0:	83 c4 10             	add    $0x10,%esp
    36c3:	e9 30 ff ff ff       	jmp    35f8 <event_loop+0x28>
    36c8:	8b 7b 14             	mov    0x14(%ebx),%edi
    36cb:	83 ff 2f             	cmp    $0x2f,%edi
    36ce:	0f 86 a4 03 00 00    	jbe    3a78 <event_loop+0x4a8>
    36d4:	8b 73 18             	mov    0x18(%ebx),%esi
    36d7:	83 fe 1b             	cmp    $0x1b,%esi
    36da:	0f 86 98 03 00 00    	jbe    3a78 <event_loop+0x4a8>
    36e0:	8b 43 1c             	mov    0x1c(%ebx),%eax
    36e3:	8b 53 10             	mov    0x10(%ebx),%edx
    36e6:	8b 4b 0c             	mov    0xc(%ebx),%ecx
    36e9:	89 45 94             	mov    %eax,-0x6c(%ebp)
    36ec:	6a 01                	push   $0x1
    36ee:	89 55 90             	mov    %edx,-0x70(%ebp)
    36f1:	6a 00                	push   $0x0
    36f3:	89 4d 8c             	mov    %ecx,-0x74(%ebp)
    36f6:	56                   	push   %esi
    36f7:	57                   	push   %edi
    36f8:	e8 13 2a 00 00       	call   6110 <surface_create>
    36fd:	83 c4 10             	add    $0x10,%esp
    3700:	89 45 88             	mov    %eax,-0x78(%ebp)
    3703:	85 c0                	test   %eax,%eax
    3705:	0f 84 5d 01 00 00    	je     3868 <event_loop+0x298>
    370b:	83 ec 0c             	sub    $0xc,%esp
    370e:	8b 4d 9c             	mov    -0x64(%ebp),%ecx
    3711:	51                   	push   %ecx
    3712:	e8 99 47 00 00       	call   7eb0 <fibril_mutex_lock@plt>
    3717:	8b 45 08             	mov    0x8(%ebp),%eax
    371a:	8b 55 08             	mov    0x8(%ebp),%edx
    371d:	8b 80 a4 00 00 00    	mov    0xa4(%eax),%eax
    3723:	89 45 98             	mov    %eax,-0x68(%ebp)
    3726:	8b 45 88             	mov    -0x78(%ebp),%eax
    3729:	89 82 a4 00 00 00    	mov    %eax,0xa4(%edx)
    372f:	58                   	pop    %eax
    3730:	8b 45 9c             	mov    -0x64(%ebp),%eax
    3733:	50                   	push   %eax
    3734:	e8 47 45 00 00       	call   7c80 <fibril_mutex_unlock@plt>
    3739:	8b 45 a0             	mov    -0x60(%ebp),%eax
    373c:	8b 55 08             	mov    0x8(%ebp),%edx
    373f:	89 34 24             	mov    %esi,(%esp)
    3742:	57                   	push   %edi
    3743:	6a 00                	push   $0x0
    3745:	6a 00                	push   $0x0
    3747:	50                   	push   %eax
    3748:	ff 52 7c             	call   *0x7c(%edx)
    374b:	83 c4 14             	add    $0x14,%esp
    374e:	8b 45 9c             	mov    -0x64(%ebp),%eax
    3751:	50                   	push   %eax
    3752:	e8 59 47 00 00       	call   7eb0 <fibril_mutex_lock@plt>
    3757:	8b 55 08             	mov    0x8(%ebp),%edx
    375a:	58                   	pop    %eax
    375b:	8b 82 a4 00 00 00    	mov    0xa4(%edx),%eax
    3761:	50                   	push   %eax
    3762:	e8 49 2c 00 00       	call   63b0 <surface_reset_damaged_region>
    3767:	8b 4d 9c             	mov    -0x64(%ebp),%ecx
    376a:	5a                   	pop    %edx
    376b:	51                   	push   %ecx
    376c:	e8 0f 45 00 00       	call   7c80 <fibril_mutex_unlock@plt>
    3771:	8b 45 88             	mov    -0x78(%ebp),%eax
    3774:	89 04 24             	mov    %eax,(%esp)
    3777:	e8 b4 2a 00 00       	call   6230 <surface_direct_access>
    377c:	83 c4 0c             	add    $0xc,%esp
    377f:	50                   	push   %eax
    3780:	8b 45 94             	mov    -0x6c(%ebp),%eax
    3783:	50                   	push   %eax
    3784:	8b 45 90             	mov    -0x70(%ebp),%eax
    3787:	56                   	push   %esi
    3788:	8b 75 08             	mov    0x8(%ebp),%esi
    378b:	57                   	push   %edi
    378c:	50                   	push   %eax
    378d:	8b 45 8c             	mov    -0x74(%ebp),%eax
    3790:	50                   	push   %eax
    3791:	8b 46 0c             	mov    0xc(%esi),%eax
    3794:	50                   	push   %eax
    3795:	e8 76 44 00 00       	call   7c10 <win_resize@plt>
    379a:	83 c4 20             	add    $0x20,%esp
    379d:	85 c0                	test   %eax,%eax
    379f:	0f 84 2b 03 00 00    	je     3ad0 <event_loop+0x500>
    37a5:	8b 7d 98             	mov    -0x68(%ebp),%edi
    37a8:	c7 45 b4 00 00 00 00 	movl   $0x0,-0x4c(%ebp)
    37af:	c7 45 b8 00 00 00 00 	movl   $0x0,-0x48(%ebp)
    37b6:	85 ff                	test   %edi,%edi
    37b8:	74 12                	je     37cc <event_loop+0x1fc>
    37ba:	8d 45 b8             	lea    -0x48(%ebp),%eax
    37bd:	52                   	push   %edx
    37be:	50                   	push   %eax
    37bf:	8d 45 b4             	lea    -0x4c(%ebp),%eax
    37c2:	50                   	push   %eax
    37c3:	57                   	push   %edi
    37c4:	e8 87 2a 00 00       	call   6250 <surface_get_resolution>
    37c9:	83 c4 10             	add    $0x10,%esp
    37cc:	83 ec 0c             	sub    $0xc,%esp
    37cf:	8b 7d 9c             	mov    -0x64(%ebp),%edi
    37d2:	57                   	push   %edi
    37d3:	e8 d8 46 00 00       	call   7eb0 <fibril_mutex_lock@plt>
    37d8:	8b 45 08             	mov    0x8(%ebp),%eax
    37db:	8b 55 98             	mov    -0x68(%ebp),%edx
    37de:	8b b0 a4 00 00 00    	mov    0xa4(%eax),%esi
    37e4:	89 90 a4 00 00 00    	mov    %edx,0xa4(%eax)
    37ea:	89 3c 24             	mov    %edi,(%esp)
    37ed:	e8 8e 44 00 00       	call   7c80 <fibril_mutex_unlock@plt>
    37f2:	58                   	pop    %eax
    37f3:	8b 45 b8             	mov    -0x48(%ebp),%eax
    37f6:	50                   	push   %eax
    37f7:	8b 45 b4             	mov    -0x4c(%ebp),%eax
    37fa:	50                   	push   %eax
    37fb:	8b 45 a0             	mov    -0x60(%ebp),%eax
    37fe:	6a 00                	push   $0x0
    3800:	6a 00                	push   $0x0
    3802:	50                   	push   %eax
    3803:	8b 45 08             	mov    0x8(%ebp),%eax
    3806:	ff 50 7c             	call   *0x7c(%eax)
    3809:	8b 45 08             	mov    0x8(%ebp),%eax
    380c:	8b 80 a4 00 00 00    	mov    0xa4(%eax),%eax
    3812:	83 c4 20             	add    $0x20,%esp
    3815:	85 c0                	test   %eax,%eax
    3817:	74 24                	je     383d <event_loop+0x26d>
    3819:	83 ec 0c             	sub    $0xc,%esp
    381c:	57                   	push   %edi
    381d:	e8 8e 46 00 00       	call   7eb0 <fibril_mutex_lock@plt>
    3822:	8b 45 08             	mov    0x8(%ebp),%eax
    3825:	59                   	pop    %ecx
    3826:	8b 80 a4 00 00 00    	mov    0xa4(%eax),%eax
    382c:	50                   	push   %eax
    382d:	e8 7e 2b 00 00       	call   63b0 <surface_reset_damaged_region>
    3832:	89 3c 24             	mov    %edi,(%esp)
    3835:	e8 46 44 00 00       	call   7c80 <fibril_mutex_unlock@plt>
    383a:	83 c4 10             	add    $0x10,%esp
    383d:	83 ec 0c             	sub    $0xc,%esp
    3840:	56                   	push   %esi
    3841:	e8 9a 29 00 00       	call   61e0 <surface_destroy>
    3846:	89 1c 24             	mov    %ebx,(%esp)
    3849:	e8 52 46 00 00       	call   7ea0 <free@plt>
    384e:	83 c4 10             	add    $0x10,%esp
    3851:	e9 a2 fd ff ff       	jmp    35f8 <event_loop+0x28>
    3856:	66 90                	xchg   %ax,%ax
    3858:	8b 45 08             	mov    0x8(%ebp),%eax
    385b:	80 78 02 00          	cmpb   $0x0,0x2(%eax)
    385f:	0f 85 3b 02 00 00    	jne    3aa0 <event_loop+0x4d0>
    3865:	8d 76 00             	lea    0x0(%esi),%esi
    3868:	83 ec 0c             	sub    $0xc,%esp
    386b:	53                   	push   %ebx
    386c:	e8 2f 46 00 00       	call   7ea0 <free@plt>
    3871:	83 c4 10             	add    $0x10,%esp
    3874:	e9 7f fd ff ff       	jmp    35f8 <event_loop+0x28>
    3879:	8d b4 26 00 00 00 00 	lea    0x0(%esi,%eiz,1),%esi
    3880:	8b 45 08             	mov    0x8(%ebp),%eax
    3883:	80 78 02 00          	cmpb   $0x0,0x2(%eax)
    3887:	75 df                	jne    3868 <event_loop+0x298>
    3889:	c6 40 02 01          	movb   $0x1,0x2(%eax)
    388d:	83 ec 0c             	sub    $0xc,%esp
    3890:	8b 55 a0             	mov    -0x60(%ebp),%edx
    3893:	52                   	push   %edx
    3894:	ff 90 80 00 00 00    	call   *0x80(%eax)
    389a:	89 1c 24             	mov    %ebx,(%esp)
    389d:	e8 fe 45 00 00       	call   7ea0 <free@plt>
    38a2:	83 c4 10             	add    $0x10,%esp
    38a5:	e9 4e fd ff ff       	jmp    35f8 <event_loop+0x28>
    38aa:	8d b6 00 00 00 00    	lea    0x0(%esi),%esi
    38b0:	8b 73 14             	mov    0x14(%ebx),%esi
    38b3:	50                   	push   %eax
    38b4:	50                   	push   %eax
    38b5:	56                   	push   %esi
    38b6:	8b 53 0c             	mov    0xc(%ebx),%edx
    38b9:	52                   	push   %edx
    38ba:	ff 53 10             	call   *0x10(%ebx)
    38bd:	89 34 24             	mov    %esi,(%esp)
    38c0:	e8 db 45 00 00       	call   7ea0 <free@plt>
    38c5:	89 1c 24             	mov    %ebx,(%esp)
    38c8:	e8 d3 45 00 00       	call   7ea0 <free@plt>
    38cd:	83 c4 10             	add    $0x10,%esp
    38d0:	e9 23 fd ff ff       	jmp    35f8 <event_loop+0x28>
    38d5:	8d 76 00             	lea    0x0(%esi),%esi
    38d8:	8b 45 08             	mov    0x8(%ebp),%eax
    38db:	80 78 02 00          	cmpb   $0x0,0x2(%eax)
    38df:	0f 84 cb 01 00 00    	je     3ab0 <event_loop+0x4e0>
    38e5:	8b 43 14             	mov    0x14(%ebx),%eax
    38e8:	8b 53 0c             	mov    0xc(%ebx),%edx
    38eb:	89 45 98             	mov    %eax,-0x68(%ebp)
    38ee:	89 45 c4             	mov    %eax,-0x3c(%ebp)
    38f1:	8b 45 08             	mov    0x8(%ebp),%eax
    38f4:	8b 4b 10             	mov    0x10(%ebx),%ecx
    38f7:	8b 73 18             	mov    0x18(%ebx),%esi
    38fa:	8b 7b 1c             	mov    0x1c(%ebx),%edi
    38fd:	8b 80 8c 00 00 00    	mov    0x8c(%eax),%eax
    3903:	89 55 bc             	mov    %edx,-0x44(%ebp)
    3906:	89 4d c0             	mov    %ecx,-0x40(%ebp)
    3909:	89 75 c8             	mov    %esi,-0x38(%ebp)
    390c:	89 7d cc             	mov    %edi,-0x34(%ebp)
    390f:	85 c0                	test   %eax,%eax
    3911:	0f 84 11 02 00 00    	je     3b28 <event_loop+0x558>
    3917:	83 ec 08             	sub    $0x8,%esp
    391a:	57                   	push   %edi
    391b:	56                   	push   %esi
    391c:	8b 75 98             	mov    -0x68(%ebp),%esi
    391f:	56                   	push   %esi
    3920:	51                   	push   %ecx
    3921:	52                   	push   %edx
    3922:	50                   	push   %eax
    3923:	ff 50 58             	call   *0x58(%eax)
    3926:	83 c4 14             	add    $0x14,%esp
    3929:	53                   	push   %ebx
    392a:	e8 71 45 00 00       	call   7ea0 <free@plt>
    392f:	83 c4 10             	add    $0x10,%esp
    3932:	e9 c1 fc ff ff       	jmp    35f8 <event_loop+0x28>
    3937:	90                   	nop
    3938:	8b 45 08             	mov    0x8(%ebp),%eax
    393b:	8b 75 a0             	mov    -0x60(%ebp),%esi
    393e:	0f b6 38             	movzbl (%eax),%edi
    3941:	89 f0                	mov    %esi,%eax
    3943:	e8 a8 fa ff ff       	call   33f0 <destroy_children>
    3948:	83 ec 0c             	sub    $0xc,%esp
    394b:	8b 45 08             	mov    0x8(%ebp),%eax
    394e:	56                   	push   %esi
    394f:	ff 50 74             	call   *0x74(%eax)
    3952:	8b 45 08             	mov    0x8(%ebp),%eax
    3955:	c7 80 8c 00 00 00 00 	movl   $0x0,0x8c(%eax)
    395c:	00 00 00 
    395f:	c7 80 90 00 00 00 00 	movl   $0x0,0x90(%eax)
    3966:	00 00 00 
    3969:	8b 40 0c             	mov    0xc(%eax),%eax
    396c:	5e                   	pop    %esi
    396d:	50                   	push   %eax
    396e:	e8 4d 44 00 00       	call   7dc0 <win_close@plt>
    3973:	58                   	pop    %eax
    3974:	8b 45 08             	mov    0x8(%ebp),%eax
    3977:	8b 40 08             	mov    0x8(%eax),%eax
    397a:	50                   	push   %eax
    397b:	e8 b0 41 00 00       	call   7b30 <async_hangup@plt>
    3980:	58                   	pop    %eax
    3981:	8b 45 08             	mov    0x8(%ebp),%eax
    3984:	8b 40 0c             	mov    0xc(%eax),%eax
    3987:	50                   	push   %eax
    3988:	e8 a3 41 00 00       	call   7b30 <async_hangup@plt>
    398d:	8b 45 08             	mov    0x8(%ebp),%eax
    3990:	8b 75 08             	mov    0x8(%ebp),%esi
    3993:	83 c6 28             	add    $0x28,%esi
    3996:	83 c4 10             	add    $0x10,%esp
    3999:	8b 40 2c             	mov    0x2c(%eax),%eax
    399c:	39 c6                	cmp    %eax,%esi
    399e:	74 3f                	je     39df <event_loop+0x40f>
    39a0:	89 5d a4             	mov    %ebx,-0x5c(%ebp)
    39a3:	8b 5d 08             	mov    0x8(%ebp),%ebx
    39a6:	66 90                	xchg   %ax,%ax
    39a8:	8b 08                	mov    (%eax),%ecx
    39aa:	85 c9                	test   %ecx,%ecx
    39ac:	74 0e                	je     39bc <event_loop+0x3ec>
    39ae:	8b 50 04             	mov    0x4(%eax),%edx
    39b1:	85 d2                	test   %edx,%edx
    39b3:	74 07                	je     39bc <event_loop+0x3ec>
    39b5:	89 0a                	mov    %ecx,(%edx)
    39b7:	8b 08                	mov    (%eax),%ecx
    39b9:	89 51 04             	mov    %edx,0x4(%ecx)
    39bc:	83 ec 0c             	sub    $0xc,%esp
    39bf:	c7 00 00 00 00 00    	movl   $0x0,(%eax)
    39c5:	c7 40 04 00 00 00 00 	movl   $0x0,0x4(%eax)
    39cc:	50                   	push   %eax
    39cd:	e8 ce 44 00 00       	call   7ea0 <free@plt>
    39d2:	8b 43 2c             	mov    0x2c(%ebx),%eax
    39d5:	83 c4 10             	add    $0x10,%esp
    39d8:	39 f0                	cmp    %esi,%eax
    39da:	75 cc                	jne    39a8 <event_loop+0x3d8>
    39dc:	8b 5d a4             	mov    -0x5c(%ebp),%ebx
    39df:	8b 45 08             	mov    0x8(%ebp),%eax
    39e2:	8b 80 a4 00 00 00    	mov    0xa4(%eax),%eax
    39e8:	85 c0                	test   %eax,%eax
    39ea:	74 0c                	je     39f8 <event_loop+0x428>
    39ec:	83 ec 0c             	sub    $0xc,%esp
    39ef:	50                   	push   %eax
    39f0:	e8 eb 27 00 00       	call   61e0 <surface_destroy>
    39f5:	83 c4 10             	add    $0x10,%esp
    39f8:	8b 45 08             	mov    0x8(%ebp),%eax
    39fb:	83 ec 0c             	sub    $0xc,%esp
    39fe:	8b 40 04             	mov    0x4(%eax),%eax
    3a01:	50                   	push   %eax
    3a02:	e8 99 44 00 00       	call   7ea0 <free@plt>
    3a07:	8b 4d 08             	mov    0x8(%ebp),%ecx
    3a0a:	5a                   	pop    %edx
    3a0b:	51                   	push   %ecx
    3a0c:	e8 8f 44 00 00       	call   7ea0 <free@plt>
    3a11:	89 1c 24             	mov    %ebx,(%esp)
    3a14:	e8 87 44 00 00       	call   7ea0 <free@plt>
    3a19:	89 f8                	mov    %edi,%eax
    3a1b:	83 c4 10             	add    $0x10,%esp
    3a1e:	84 c0                	test   %al,%al
    3a20:	0f 85 2a 01 00 00    	jne    3b50 <event_loop+0x580>
    3a26:	8d 65 f4             	lea    -0xc(%ebp),%esp
    3a29:	31 c0                	xor    %eax,%eax
    3a2b:	5b                   	pop    %ebx
    3a2c:	5e                   	pop    %esi
    3a2d:	5f                   	pop    %edi
    3a2e:	5d                   	pop    %ebp
    3a2f:	c3                   	ret    
    3a30:	8b 45 08             	mov    0x8(%ebp),%eax
    3a33:	8d 55 d0             	lea    -0x30(%ebp),%edx
    3a36:	8d 73 0c             	lea    0xc(%ebx),%esi
    3a39:	b9 06 00 00 00       	mov    $0x6,%ecx
    3a3e:	89 d7                	mov    %edx,%edi
    3a40:	8b 80 90 00 00 00    	mov    0x90(%eax),%eax
    3a46:	f3 a5                	rep movsl %ds:(%esi),%es:(%edi)
    3a48:	85 c0                	test   %eax,%eax
    3a4a:	0f 84 a8 00 00 00    	je     3af8 <event_loop+0x528>
    3a50:	83 ec 1c             	sub    $0x1c,%esp
    3a53:	89 d6                	mov    %edx,%esi
    3a55:	89 e7                	mov    %esp,%edi
    3a57:	b9 06 00 00 00       	mov    $0x6,%ecx
    3a5c:	f3 a5                	rep movsl %ds:(%esi),%es:(%edi)
    3a5e:	50                   	push   %eax
    3a5f:	ff 50 54             	call   *0x54(%eax)
    3a62:	83 c4 14             	add    $0x14,%esp
    3a65:	53                   	push   %ebx
    3a66:	e8 35 44 00 00       	call   7ea0 <free@plt>
    3a6b:	83 c4 10             	add    $0x10,%esp
    3a6e:	e9 85 fb ff ff       	jmp    35f8 <event_loop+0x28>
    3a73:	90                   	nop
    3a74:	8d 74 26 00          	lea    0x0(%esi,%eiz,1),%esi
    3a78:	8b 45 08             	mov    0x8(%ebp),%eax
    3a7b:	83 ec 0c             	sub    $0xc,%esp
    3a7e:	8b 40 0c             	mov    0xc(%eax),%eax
    3a81:	6a 00                	push   $0x0
    3a83:	6a 00                	push   $0x0
    3a85:	6a 00                	push   $0x0
    3a87:	6a 00                	push   $0x0
    3a89:	50                   	push   %eax
    3a8a:	e8 f1 42 00 00       	call   7d80 <win_damage@plt>
    3a8f:	83 c4 14             	add    $0x14,%esp
    3a92:	53                   	push   %ebx
    3a93:	e8 08 44 00 00       	call   7ea0 <free@plt>
    3a98:	83 c4 10             	add    $0x10,%esp
    3a9b:	e9 58 fb ff ff       	jmp    35f8 <event_loop+0x28>
    3aa0:	c6 40 02 00          	movb   $0x0,0x2(%eax)
    3aa4:	e9 e4 fd ff ff       	jmp    388d <event_loop+0x2bd>
    3aa9:	8d b4 26 00 00 00 00 	lea    0x0(%esi,%eiz,1),%esi
    3ab0:	83 ec 0c             	sub    $0xc,%esp
    3ab3:	8b 7d a0             	mov    -0x60(%ebp),%edi
    3ab6:	c6 40 02 01          	movb   $0x1,0x2(%eax)
    3aba:	57                   	push   %edi
    3abb:	ff 90 80 00 00 00    	call   *0x80(%eax)
    3ac1:	83 c4 10             	add    $0x10,%esp
    3ac4:	e9 1c fe ff ff       	jmp    38e5 <event_loop+0x315>
    3ac9:	8d b4 26 00 00 00 00 	lea    0x0(%esi,%eiz,1),%esi
    3ad0:	8b 45 98             	mov    -0x68(%ebp),%eax
    3ad3:	85 c0                	test   %eax,%eax
    3ad5:	0f 84 8d fd ff ff    	je     3868 <event_loop+0x298>
    3adb:	83 ec 0c             	sub    $0xc,%esp
    3ade:	50                   	push   %eax
    3adf:	e8 fc 26 00 00       	call   61e0 <surface_destroy>
    3ae4:	89 1c 24             	mov    %ebx,(%esp)
    3ae7:	e8 b4 43 00 00       	call   7ea0 <free@plt>
    3aec:	83 c4 10             	add    $0x10,%esp
    3aef:	e9 04 fb ff ff       	jmp    35f8 <event_loop+0x28>
    3af4:	8d 74 26 00          	lea    0x0(%esi,%eiz,1),%esi
    3af8:	83 ec 1c             	sub    $0x1c,%esp
    3afb:	89 d6                	mov    %edx,%esi
    3afd:	89 e7                	mov    %esp,%edi
    3aff:	b9 06 00 00 00       	mov    $0x6,%ecx
    3b04:	f3 a5                	rep movsl %ds:(%esi),%es:(%edi)
    3b06:	8b 45 a0             	mov    -0x60(%ebp),%eax
    3b09:	50                   	push   %eax
    3b0a:	8b 45 08             	mov    0x8(%ebp),%eax
    3b0d:	ff 90 84 00 00 00    	call   *0x84(%eax)
    3b13:	83 c4 14             	add    $0x14,%esp
    3b16:	53                   	push   %ebx
    3b17:	e8 84 43 00 00       	call   7ea0 <free@plt>
    3b1c:	83 c4 10             	add    $0x10,%esp
    3b1f:	e9 d4 fa ff ff       	jmp    35f8 <event_loop+0x28>
    3b24:	8d 74 26 00          	lea    0x0(%esi,%eiz,1),%esi
    3b28:	50                   	push   %eax
    3b29:	50                   	push   %eax
    3b2a:	8b 45 98             	mov    -0x68(%ebp),%eax
    3b2d:	57                   	push   %edi
    3b2e:	56                   	push   %esi
    3b2f:	50                   	push   %eax
    3b30:	8b 45 a0             	mov    -0x60(%ebp),%eax
    3b33:	51                   	push   %ecx
    3b34:	52                   	push   %edx
    3b35:	50                   	push   %eax
    3b36:	8b 45 08             	mov    0x8(%ebp),%eax
    3b39:	ff 90 88 00 00 00    	call   *0x88(%eax)
    3b3f:	83 c4 14             	add    $0x14,%esp
    3b42:	53                   	push   %ebx
    3b43:	e8 58 43 00 00       	call   7ea0 <free@plt>
    3b48:	83 c4 10             	add    $0x10,%esp
    3b4b:	e9 a8 fa ff ff       	jmp    35f8 <event_loop+0x28>
    3b50:	83 ec 0c             	sub    $0xc,%esp
    3b53:	6a 00                	push   $0x0
    3b55:	e8 96 42 00 00       	call   7df0 <exit@plt>
    3b5a:	8d b6 00 00 00 00    	lea    0x0(%esi),%esi

00003b60 <root_repaint>:
    3b60:	55                   	push   %ebp
    3b61:	89 e5                	mov    %esp,%ebp
    3b63:	57                   	push   %edi
    3b64:	56                   	push   %esi
    3b65:	53                   	push   %ebx
    3b66:	83 ec 0c             	sub    $0xc,%esp
    3b69:	8b 7d 08             	mov    0x8(%ebp),%edi
    3b6c:	8b 47 14             	mov    0x14(%edi),%eax
    3b6f:	80 78 01 00          	cmpb   $0x0,0x1(%eax)
    3b73:	75 2d                	jne    3ba2 <root_repaint+0x42>
    3b75:	8b 5f 10             	mov    0x10(%edi),%ebx
    3b78:	8d 77 0c             	lea    0xc(%edi),%esi
    3b7b:	39 de                	cmp    %ebx,%esi
    3b7d:	74 1b                	je     3b9a <root_repaint+0x3a>
    3b7f:	90                   	nop
    3b80:	83 ec 0c             	sub    $0xc,%esp
    3b83:	53                   	push   %ebx
    3b84:	ff 53 50             	call   *0x50(%ebx)
    3b87:	8b 5b 04             	mov    0x4(%ebx),%ebx
    3b8a:	83 c4 10             	add    $0x10,%esp
    3b8d:	39 f3                	cmp    %esi,%ebx
    3b8f:	75 ef                	jne    3b80 <root_repaint+0x20>
    3b91:	8b 5f 14             	mov    0x14(%edi),%ebx
    3b94:	80 7b 01 00          	cmpb   $0x0,0x1(%ebx)
    3b98:	75 26                	jne    3bc0 <root_repaint+0x60>
    3b9a:	8d 65 f4             	lea    -0xc(%ebp),%esp
    3b9d:	5b                   	pop    %ebx
    3b9e:	5e                   	pop    %esi
    3b9f:	5f                   	pop    %edi
    3ba0:	5d                   	pop    %ebp
    3ba1:	c3                   	ret    
    3ba2:	89 f8                	mov    %edi,%eax
    3ba4:	8d 77 0c             	lea    0xc(%edi),%esi
    3ba7:	e8 24 f3 ff ff       	call   2ed0 <paint_internal>
    3bac:	8b 5f 10             	mov    0x10(%edi),%ebx
    3baf:	39 f3                	cmp    %esi,%ebx
    3bb1:	75 cd                	jne    3b80 <root_repaint+0x20>
    3bb3:	8b 5f 14             	mov    0x14(%edi),%ebx
    3bb6:	80 7b 01 00          	cmpb   $0x0,0x1(%ebx)
    3bba:	74 de                	je     3b9a <root_repaint+0x3a>
    3bbc:	8d 74 26 00          	lea    0x0(%esi,%eiz,1),%esi
    3bc0:	83 ec 0c             	sub    $0xc,%esp
    3bc3:	6a 24                	push   $0x24
    3bc5:	e8 e6 3f 00 00       	call   7bb0 <malloc@plt>
    3bca:	83 c4 10             	add    $0x10,%esp
    3bcd:	85 c0                	test   %eax,%eax
    3bcf:	74 c9                	je     3b9a <root_repaint+0x3a>
    3bd1:	83 c3 10             	add    $0x10,%ebx
    3bd4:	c7 00 00 00 00 00    	movl   $0x0,(%eax)
    3bda:	c7 40 04 00 00 00 00 	movl   $0x0,0x4(%eax)
    3be1:	c7 40 08 07 00 00 00 	movl   $0x7,0x8(%eax)
    3be8:	52                   	push   %edx
    3be9:	52                   	push   %edx
    3bea:	50                   	push   %eax
    3beb:	53                   	push   %ebx
    3bec:	e8 df 41 00 00       	call   7dd0 <prodcons_produce@plt>
    3bf1:	83 c4 10             	add    $0x10,%esp
    3bf4:	8d 65 f4             	lea    -0xc(%ebp),%esp
    3bf7:	5b                   	pop    %ebx
    3bf8:	5e                   	pop    %esi
    3bf9:	5f                   	pop    %edi
    3bfa:	5d                   	pop    %ebp
    3bfb:	c3                   	ret    
    3bfc:	8d 74 26 00          	lea    0x0(%esi,%eiz,1),%esi

00003c00 <window_open>:
    3c00:	55                   	push   %ebp
    3c01:	89 e5                	mov    %esp,%ebp
    3c03:	57                   	push   %edi
    3c04:	56                   	push   %esi
    3c05:	53                   	push   %ebx
    3c06:	83 ec 28             	sub    $0x28,%esp
    3c09:	8b 75 10             	mov    0x10(%ebp),%esi
    3c0c:	68 a8 00 00 00       	push   $0xa8
    3c11:	e8 9a 3f 00 00       	call   7bb0 <malloc@plt>
    3c16:	83 c4 10             	add    $0x10,%esp
    3c19:	89 c3                	mov    %eax,%ebx
    3c1b:	85 c0                	test   %eax,%eax
    3c1d:	0f 84 3b 01 00 00    	je     3d5e <window_open+0x15e>
    3c23:	89 f0                	mov    %esi,%eax
    3c25:	83 ec 0c             	sub    $0xc,%esp
    3c28:	88 03                	mov    %al,(%ebx)
    3c2a:	89 f0                	mov    %esi,%eax
    3c2c:	80 23 01             	andb   $0x1,(%ebx)
    3c2f:	c6 43 02 01          	movb   $0x1,0x2(%ebx)
    3c33:	d1 e8                	shr    %eax
    3c35:	83 e0 01             	and    $0x1,%eax
    3c38:	88 43 01             	mov    %al,0x1(%ebx)
    3c3b:	8d 43 10             	lea    0x10(%ebx),%eax
    3c3e:	50                   	push   %eax
    3c3f:	e8 9c 40 00 00       	call   7ce0 <prodcons_initialize@plt>
    3c44:	8d 83 94 00 00 00    	lea    0x94(%ebx),%eax
    3c4a:	89 04 24             	mov    %eax,(%esp)
    3c4d:	e8 4e 40 00 00       	call   7ca0 <fibril_mutex_initialize@plt>
    3c52:	83 c4 0c             	add    $0xc,%esp
    3c55:	8b 45 0c             	mov    0xc(%ebp),%eax
    3c58:	50                   	push   %eax
    3c59:	8d 43 30             	lea    0x30(%ebx),%eax
    3c5c:	6a 00                	push   $0x0
    3c5e:	50                   	push   %eax
    3c5f:	e8 9c ed ff ff       	call   2a00 <widget_init>
    3c64:	83 c4 0c             	add    $0xc,%esp
    3c67:	8d 45 dc             	lea    -0x24(%ebp),%eax
    3c6a:	89 5b 44             	mov    %ebx,0x44(%ebx)
    3c6d:	c7 43 74 40 2e 00 00 	movl   $0x2e40,0x74(%ebx)
    3c74:	c7 43 78 80 32 00 00 	movl   $0x3280,0x78(%ebx)
    3c7b:	c7 43 7c 20 33 00 00 	movl   $0x3320,0x7c(%ebx)
    3c82:	c7 83 80 00 00 00 60 	movl   $0x3b60,0x80(%ebx)
    3c89:	3b 00 00 
    3c8c:	c7 83 84 00 00 00 00 	movl   $0x2b00,0x84(%ebx)
    3c93:	2b 00 00 
    3c96:	c7 83 88 00 00 00 40 	movl   $0x2b40,0x88(%ebx)
    3c9d:	2b 00 00 
    3ca0:	c7 83 8c 00 00 00 00 	movl   $0x0,0x8c(%ebx)
    3ca7:	00 00 00 
    3caa:	c7 83 90 00 00 00 00 	movl   $0x0,0x90(%ebx)
    3cb1:	00 00 00 
    3cb4:	c7 83 a4 00 00 00 00 	movl   $0x0,0xa4(%ebx)
    3cbb:	00 00 00 
    3cbe:	6a 00                	push   $0x0
    3cc0:	50                   	push   %eax
    3cc1:	8b 45 08             	mov    0x8(%ebp),%eax
    3cc4:	50                   	push   %eax
    3cc5:	e8 16 3f 00 00       	call   7be0 <loc_service_get_id@plt>
    3cca:	83 c4 10             	add    $0x10,%esp
    3ccd:	85 c0                	test   %eax,%eax
    3ccf:	0f 85 93 00 00 00    	jne    3d68 <window_open+0x168>
    3cd5:	50                   	push   %eax
    3cd6:	8b 45 dc             	mov    -0x24(%ebp),%eax
    3cd9:	6a 00                	push   $0x0
    3cdb:	68 31 6e c3 e7       	push   $0xe7c36e31
    3ce0:	50                   	push   %eax
    3ce1:	e8 2a 3e 00 00       	call   7b10 <loc_service_connect@plt>
    3ce6:	83 c4 10             	add    $0x10,%esp
    3ce9:	89 c7                	mov    %eax,%edi
    3ceb:	85 c0                	test   %eax,%eax
    3ced:	74 79                	je     3d68 <window_open+0x168>
    3cef:	8d 45 e4             	lea    -0x1c(%ebp),%eax
    3cf2:	50                   	push   %eax
    3cf3:	8d 45 e0             	lea    -0x20(%ebp),%eax
    3cf6:	50                   	push   %eax
    3cf7:	56                   	push   %esi
    3cf8:	57                   	push   %edi
    3cf9:	e8 f2 3f 00 00       	call   7cf0 <win_register@plt>
    3cfe:	89 c6                	mov    %eax,%esi
    3d00:	89 3c 24             	mov    %edi,(%esp)
    3d03:	e8 28 3e 00 00       	call   7b30 <async_hangup@plt>
    3d08:	83 c4 10             	add    $0x10,%esp
    3d0b:	85 f6                	test   %esi,%esi
    3d0d:	75 59                	jne    3d68 <window_open+0x168>
    3d0f:	50                   	push   %eax
    3d10:	8b 45 e4             	mov    -0x1c(%ebp),%eax
    3d13:	6a 00                	push   $0x0
    3d15:	68 31 6e c3 e7       	push   $0xe7c36e31
    3d1a:	50                   	push   %eax
    3d1b:	e8 f0 3d 00 00       	call   7b10 <loc_service_connect@plt>
    3d20:	83 c4 10             	add    $0x10,%esp
    3d23:	89 43 0c             	mov    %eax,0xc(%ebx)
    3d26:	85 c0                	test   %eax,%eax
    3d28:	74 3e                	je     3d68 <window_open+0x168>
    3d2a:	8b 7d e0             	mov    -0x20(%ebp),%edi
    3d2d:	56                   	push   %esi
    3d2e:	6a 00                	push   $0x0
    3d30:	68 31 6e c3 e7       	push   $0xe7c36e31
    3d35:	57                   	push   %edi
    3d36:	e8 d5 3d 00 00       	call   7b10 <loc_service_connect@plt>
    3d3b:	83 c4 10             	add    $0x10,%esp
    3d3e:	89 43 08             	mov    %eax,0x8(%ebx)
    3d41:	85 c0                	test   %eax,%eax
    3d43:	74 4c                	je     3d91 <window_open+0x191>
    3d45:	8b 55 14             	mov    0x14(%ebp),%edx
    3d48:	85 d2                	test   %edx,%edx
    3d4a:	74 34                	je     3d80 <window_open+0x180>
    3d4c:	83 ec 0c             	sub    $0xc,%esp
    3d4f:	8b 45 14             	mov    0x14(%ebp),%eax
    3d52:	50                   	push   %eax
    3d53:	e8 38 3f 00 00       	call   7c90 <str_dup@plt>
    3d58:	83 c4 10             	add    $0x10,%esp
    3d5b:	89 43 04             	mov    %eax,0x4(%ebx)
    3d5e:	8d 65 f4             	lea    -0xc(%ebp),%esp
    3d61:	89 d8                	mov    %ebx,%eax
    3d63:	5b                   	pop    %ebx
    3d64:	5e                   	pop    %esi
    3d65:	5f                   	pop    %edi
    3d66:	5d                   	pop    %ebp
    3d67:	c3                   	ret    
    3d68:	83 ec 0c             	sub    $0xc,%esp
    3d6b:	53                   	push   %ebx
    3d6c:	e8 2f 41 00 00       	call   7ea0 <free@plt>
    3d71:	83 c4 10             	add    $0x10,%esp
    3d74:	8d 65 f4             	lea    -0xc(%ebp),%esp
    3d77:	31 db                	xor    %ebx,%ebx
    3d79:	89 d8                	mov    %ebx,%eax
    3d7b:	5b                   	pop    %ebx
    3d7c:	5e                   	pop    %esi
    3d7d:	5f                   	pop    %edi
    3d7e:	5d                   	pop    %ebp
    3d7f:	c3                   	ret    
    3d80:	c7 43 04 00 00 00 00 	movl   $0x0,0x4(%ebx)
    3d87:	8d 65 f4             	lea    -0xc(%ebp),%esp
    3d8a:	89 d8                	mov    %ebx,%eax
    3d8c:	5b                   	pop    %ebx
    3d8d:	5e                   	pop    %esi
    3d8e:	5f                   	pop    %edi
    3d8f:	5d                   	pop    %ebp
    3d90:	c3                   	ret    
    3d91:	83 ec 0c             	sub    $0xc,%esp
    3d94:	8b 4b 0c             	mov    0xc(%ebx),%ecx
    3d97:	51                   	push   %ecx
    3d98:	e8 93 3d 00 00       	call   7b30 <async_hangup@plt>
    3d9d:	89 1c 24             	mov    %ebx,(%esp)
    3da0:	e8 fb 40 00 00       	call   7ea0 <free@plt>
    3da5:	31 db                	xor    %ebx,%ebx
    3da7:	83 c4 10             	add    $0x10,%esp
    3daa:	eb b2                	jmp    3d5e <window_open+0x15e>
    3dac:	8d 74 26 00          	lea    0x0(%esi,%eiz,1),%esi

00003db0 <window_resize>:
    3db0:	55                   	push   %ebp
    3db1:	89 e5                	mov    %esp,%ebp
    3db3:	57                   	push   %edi
    3db4:	56                   	push   %esi
    3db5:	53                   	push   %ebx
    3db6:	83 ec 28             	sub    $0x28,%esp
    3db9:	8b 45 08             	mov    0x8(%ebp),%eax
    3dbc:	8b 55 18             	mov    0x18(%ebp),%edx
    3dbf:	8b 4d 1c             	mov    0x1c(%ebp),%ecx
    3dc2:	6a 24                	push   $0x24
    3dc4:	89 45 e4             	mov    %eax,-0x1c(%ebp)
    3dc7:	8b 7d 0c             	mov    0xc(%ebp),%edi
    3dca:	8b 75 10             	mov    0x10(%ebp),%esi
    3dcd:	8b 5d 14             	mov    0x14(%ebp),%ebx
    3dd0:	89 55 e0             	mov    %edx,-0x20(%ebp)
    3dd3:	89 4d dc             	mov    %ecx,-0x24(%ebp)
    3dd6:	e8 d5 3d 00 00       	call   7bb0 <malloc@plt>
    3ddb:	83 c4 10             	add    $0x10,%esp
    3dde:	85 c0                	test   %eax,%eax
    3de0:	74 46                	je     3e28 <window_resize+0x78>
    3de2:	8b 55 e0             	mov    -0x20(%ebp),%edx
    3de5:	8b 4d dc             	mov    -0x24(%ebp),%ecx
    3de8:	c7 00 00 00 00 00    	movl   $0x0,(%eax)
    3dee:	c7 40 04 00 00 00 00 	movl   $0x0,0x4(%eax)
    3df5:	c7 40 08 05 00 00 00 	movl   $0x5,0x8(%eax)
    3dfc:	89 78 0c             	mov    %edi,0xc(%eax)
    3dff:	89 70 10             	mov    %esi,0x10(%eax)
    3e02:	89 58 14             	mov    %ebx,0x14(%eax)
    3e05:	89 50 18             	mov    %edx,0x18(%eax)
    3e08:	89 48 1c             	mov    %ecx,0x1c(%eax)
    3e0b:	89 45 0c             	mov    %eax,0xc(%ebp)
    3e0e:	8b 45 e4             	mov    -0x1c(%ebp),%eax
    3e11:	83 c0 10             	add    $0x10,%eax
    3e14:	89 45 08             	mov    %eax,0x8(%ebp)
    3e17:	8d 65 f4             	lea    -0xc(%ebp),%esp
    3e1a:	5b                   	pop    %ebx
    3e1b:	5e                   	pop    %esi
    3e1c:	5f                   	pop    %edi
    3e1d:	5d                   	pop    %ebp
    3e1e:	e9 ad 3f 00 00       	jmp    7dd0 <prodcons_produce@plt>
    3e23:	90                   	nop
    3e24:	8d 74 26 00          	lea    0x0(%esi,%eiz,1),%esi
    3e28:	8d 65 f4             	lea    -0xc(%ebp),%esp
    3e2b:	5b                   	pop    %ebx
    3e2c:	5e                   	pop    %esi
    3e2d:	5f                   	pop    %edi
    3e2e:	5d                   	pop    %ebp
    3e2f:	c3                   	ret    

00003e30 <window_refresh>:
    3e30:	55                   	push   %ebp
    3e31:	89 e5                	mov    %esp,%ebp
    3e33:	83 ec 14             	sub    $0x14,%esp
    3e36:	6a 24                	push   $0x24
    3e38:	e8 73 3d 00 00       	call   7bb0 <malloc@plt>
    3e3d:	83 c4 10             	add    $0x10,%esp
    3e40:	85 c0                	test   %eax,%eax
    3e42:	74 26                	je     3e6a <window_refresh+0x3a>
    3e44:	c7 00 00 00 00 00    	movl   $0x0,(%eax)
    3e4a:	c7 40 04 00 00 00 00 	movl   $0x0,0x4(%eax)
    3e51:	c7 40 08 06 00 00 00 	movl   $0x6,0x8(%eax)
    3e58:	52                   	push   %edx
    3e59:	52                   	push   %edx
    3e5a:	50                   	push   %eax
    3e5b:	8b 45 08             	mov    0x8(%ebp),%eax
    3e5e:	83 c0 10             	add    $0x10,%eax
    3e61:	50                   	push   %eax
    3e62:	e8 69 3f 00 00       	call   7dd0 <prodcons_produce@plt>
    3e67:	83 c4 10             	add    $0x10,%esp
    3e6a:	c9                   	leave  
    3e6b:	c3                   	ret    
    3e6c:	8d 74 26 00          	lea    0x0(%esi,%eiz,1),%esi

00003e70 <window_damage>:
    3e70:	55                   	push   %ebp
    3e71:	89 e5                	mov    %esp,%ebp
    3e73:	83 ec 14             	sub    $0x14,%esp
    3e76:	6a 24                	push   $0x24
    3e78:	e8 33 3d 00 00       	call   7bb0 <malloc@plt>
    3e7d:	83 c4 10             	add    $0x10,%esp
    3e80:	85 c0                	test   %eax,%eax
    3e82:	74 26                	je     3eaa <window_damage+0x3a>
    3e84:	c7 00 00 00 00 00    	movl   $0x0,(%eax)
    3e8a:	c7 40 04 00 00 00 00 	movl   $0x0,0x4(%eax)
    3e91:	c7 40 08 07 00 00 00 	movl   $0x7,0x8(%eax)
    3e98:	52                   	push   %edx
    3e99:	52                   	push   %edx
    3e9a:	50                   	push   %eax
    3e9b:	8b 45 08             	mov    0x8(%ebp),%eax
    3e9e:	83 c0 10             	add    $0x10,%eax
    3ea1:	50                   	push   %eax
    3ea2:	e8 29 3f 00 00       	call   7dd0 <prodcons_produce@plt>
    3ea7:	83 c4 10             	add    $0x10,%esp
    3eaa:	c9                   	leave  
    3eab:	c3                   	ret    
    3eac:	8d 74 26 00          	lea    0x0(%esi,%eiz,1),%esi

00003eb0 <window_root>:
    3eb0:	55                   	push   %ebp
    3eb1:	89 e5                	mov    %esp,%ebp
    3eb3:	8b 45 08             	mov    0x8(%ebp),%eax
    3eb6:	5d                   	pop    %ebp
    3eb7:	83 c0 30             	add    $0x30,%eax
    3eba:	c3                   	ret    
    3ebb:	90                   	nop
    3ebc:	8d 74 26 00          	lea    0x0(%esi,%eiz,1),%esi

00003ec0 <window_exec>:
    3ec0:	55                   	push   %ebp
    3ec1:	89 e5                	mov    %esp,%ebp
    3ec3:	56                   	push   %esi
    3ec4:	53                   	push   %ebx
    3ec5:	83 ec 14             	sub    $0x14,%esp
    3ec8:	8b 5d 08             	mov    0x8(%ebp),%ebx
    3ecb:	6a 00                	push   $0x0
    3ecd:	53                   	push   %ebx
    3ece:	68 d0 35 00 00       	push   $0x35d0
    3ed3:	e8 28 3f 00 00       	call   7e00 <fibril_create_generic@plt>
    3ed8:	83 c4 0c             	add    $0xc,%esp
    3edb:	89 c6                	mov    %eax,%esi
    3edd:	6a 00                	push   $0x0
    3edf:	53                   	push   %ebx
    3ee0:	68 50 2e 00 00       	push   $0x2e50
    3ee5:	e8 16 3f 00 00       	call   7e00 <fibril_create_generic@plt>
    3eea:	83 c4 10             	add    $0x10,%esp
    3eed:	85 f6                	test   %esi,%esi
    3eef:	74 27                	je     3f18 <window_exec+0x58>
    3ef1:	85 c0                	test   %eax,%eax
    3ef3:	89 45 f4             	mov    %eax,-0xc(%ebp)
    3ef6:	74 20                	je     3f18 <window_exec+0x58>
    3ef8:	83 ec 0c             	sub    $0xc,%esp
    3efb:	56                   	push   %esi
    3efc:	e8 0f 3f 00 00       	call   7e10 <fibril_add_ready@plt>
    3f01:	8b 45 f4             	mov    -0xc(%ebp),%eax
    3f04:	83 c4 10             	add    $0x10,%esp
    3f07:	89 45 08             	mov    %eax,0x8(%ebp)
    3f0a:	8d 65 f8             	lea    -0x8(%ebp),%esp
    3f0d:	5b                   	pop    %ebx
    3f0e:	5e                   	pop    %esi
    3f0f:	5d                   	pop    %ebp
    3f10:	e9 fb 3e 00 00       	jmp    7e10 <fibril_add_ready@plt>
    3f15:	8d 76 00             	lea    0x0(%esi),%esi
    3f18:	8d 65 f8             	lea    -0x8(%ebp),%esp
    3f1b:	5b                   	pop    %ebx
    3f1c:	5e                   	pop    %esi
    3f1d:	5d                   	pop    %ebp
    3f1e:	c3                   	ret    
    3f1f:	90                   	nop

00003f20 <window_claim>:
    3f20:	55                   	push   %ebp
    3f21:	89 e5                	mov    %esp,%ebp
    3f23:	53                   	push   %ebx
    3f24:	83 ec 10             	sub    $0x10,%esp
    3f27:	8b 5d 08             	mov    0x8(%ebp),%ebx
    3f2a:	8d 83 94 00 00 00    	lea    0x94(%ebx),%eax
    3f30:	50                   	push   %eax
    3f31:	e8 7a 3f 00 00       	call   7eb0 <fibril_mutex_lock@plt>
    3f36:	8b 83 a4 00 00 00    	mov    0xa4(%ebx),%eax
    3f3c:	8b 5d fc             	mov    -0x4(%ebp),%ebx
    3f3f:	c9                   	leave  
    3f40:	c3                   	ret    
    3f41:	eb 0d                	jmp    3f50 <window_yield>
    3f43:	90                   	nop
    3f44:	90                   	nop
    3f45:	90                   	nop
    3f46:	90                   	nop
    3f47:	90                   	nop
    3f48:	90                   	nop
    3f49:	90                   	nop
    3f4a:	90                   	nop
    3f4b:	90                   	nop
    3f4c:	90                   	nop
    3f4d:	90                   	nop
    3f4e:	90                   	nop
    3f4f:	90                   	nop

00003f50 <window_yield>:
    3f50:	55                   	push   %ebp
    3f51:	89 e5                	mov    %esp,%ebp
    3f53:	8b 45 08             	mov    0x8(%ebp),%eax
    3f56:	05 94 00 00 00       	add    $0x94,%eax
    3f5b:	89 45 08             	mov    %eax,0x8(%ebp)
    3f5e:	5d                   	pop    %ebp
    3f5f:	e9 1c 3d 00 00       	jmp    7c80 <fibril_mutex_unlock@plt>
    3f64:	8d b6 00 00 00 00    	lea    0x0(%esi),%esi
    3f6a:	8d bf 00 00 00 00    	lea    0x0(%edi),%edi

00003f70 <window_close>:
    3f70:	55                   	push   %ebp
    3f71:	89 e5                	mov    %esp,%ebp
    3f73:	8b 45 08             	mov    0x8(%ebp),%eax
    3f76:	8b 40 0c             	mov    0xc(%eax),%eax
    3f79:	89 45 08             	mov    %eax,0x8(%ebp)
    3f7c:	5d                   	pop    %ebp
    3f7d:	e9 fe 3e 00 00       	jmp    7e80 <win_close_request@plt>
    3f82:	66 90                	xchg   %ax,%ax
    3f84:	66 90                	xchg   %ax,%ax
    3f86:	66 90                	xchg   %ax,%ax
    3f88:	66 90                	xchg   %ax,%ax
    3f8a:	66 90                	xchg   %ax,%ax
    3f8c:	66 90                	xchg   %ax,%ax
    3f8e:	66 90                	xchg   %ax,%ax

00003f90 <draw_icon_cross>:
    3f90:	55                   	push   %ebp
    3f91:	31 c0                	xor    %eax,%eax
    3f93:	89 e5                	mov    %esp,%ebp
    3f95:	57                   	push   %edi
    3f96:	56                   	push   %esi
    3f97:	53                   	push   %ebx
    3f98:	83 ec 1c             	sub    $0x1c,%esp
    3f9b:	31 f6                	xor    %esi,%esi
    3f9d:	8b 5d 18             	mov    0x18(%ebp),%ebx
    3fa0:	c6 45 e7 00          	movb   $0x0,-0x19(%ebp)
    3fa4:	bf 02 00 00 00       	mov    $0x2,%edi
    3fa9:	8d b4 26 00 00 00 00 	lea    0x0(%esi,%eiz,1),%esi
    3fb0:	89 f2                	mov    %esi,%edx
    3fb2:	89 d9                	mov    %ebx,%ecx
    3fb4:	83 e2 02             	and    $0x2,%edx
    3fb7:	a8 02                	test   $0x2,%al
    3fb9:	74 03                	je     3fbe <draw_icon_cross+0x2e>
    3fbb:	8b 4d 14             	mov    0x14(%ebp),%ecx
    3fbe:	84 d2                	test   %dl,%dl
    3fc0:	0f 85 3a 03 00 00    	jne    4300 <draw_icon_cross+0x370>
    3fc6:	89 f2                	mov    %esi,%edx
    3fc8:	89 d9                	mov    %ebx,%ecx
    3fca:	83 e2 04             	and    $0x4,%edx
    3fcd:	a8 04                	test   $0x4,%al
    3fcf:	74 03                	je     3fd4 <draw_icon_cross+0x44>
    3fd1:	8b 4d 14             	mov    0x14(%ebp),%ecx
    3fd4:	84 d2                	test   %dl,%dl
    3fd6:	0f 85 fc 02 00 00    	jne    42d8 <draw_icon_cross+0x348>
    3fdc:	89 f2                	mov    %esi,%edx
    3fde:	89 d9                	mov    %ebx,%ecx
    3fe0:	83 e2 08             	and    $0x8,%edx
    3fe3:	a8 08                	test   $0x8,%al
    3fe5:	74 03                	je     3fea <draw_icon_cross+0x5a>
    3fe7:	8b 4d 14             	mov    0x14(%ebp),%ecx
    3fea:	84 d2                	test   %dl,%dl
    3fec:	0f 85 be 02 00 00    	jne    42b0 <draw_icon_cross+0x320>
    3ff2:	89 f2                	mov    %esi,%edx
    3ff4:	89 d9                	mov    %ebx,%ecx
    3ff6:	83 e2 10             	and    $0x10,%edx
    3ff9:	a8 10                	test   $0x10,%al
    3ffb:	74 03                	je     4000 <draw_icon_cross+0x70>
    3ffd:	8b 4d 14             	mov    0x14(%ebp),%ecx
    4000:	84 d2                	test   %dl,%dl
    4002:	0f 85 80 02 00 00    	jne    4288 <draw_icon_cross+0x2f8>
    4008:	89 f2                	mov    %esi,%edx
    400a:	89 d9                	mov    %ebx,%ecx
    400c:	83 e2 20             	and    $0x20,%edx
    400f:	a8 20                	test   $0x20,%al
    4011:	74 03                	je     4016 <draw_icon_cross+0x86>
    4013:	8b 4d 14             	mov    0x14(%ebp),%ecx
    4016:	84 d2                	test   %dl,%dl
    4018:	0f 85 42 02 00 00    	jne    4260 <draw_icon_cross+0x2d0>
    401e:	89 f2                	mov    %esi,%edx
    4020:	8b 4d 14             	mov    0x14(%ebp),%ecx
    4023:	83 e2 40             	and    $0x40,%edx
    4026:	a8 40                	test   $0x40,%al
    4028:	75 02                	jne    402c <draw_icon_cross+0x9c>
    402a:	89 d9                	mov    %ebx,%ecx
    402c:	84 d2                	test   %dl,%dl
    402e:	0f 85 0c 02 00 00    	jne    4240 <draw_icon_cross+0x2b0>
    4034:	8b 45 14             	mov    0x14(%ebp),%eax
    4037:	80 7d e7 00          	cmpb   $0x0,-0x19(%ebp)
    403b:	78 02                	js     403f <draw_icon_cross+0xaf>
    403d:	89 d8                	mov    %ebx,%eax
    403f:	89 f1                	mov    %esi,%ecx
    4041:	84 c9                	test   %cl,%cl
    4043:	0f 88 d7 01 00 00    	js     4220 <draw_icon_cross+0x290>
    4049:	0f b6 b7 23 78 00 00 	movzbl 0x7823(%edi),%esi
    4050:	8a 87 3f 78 00 00    	mov    0x783f(%edi),%al
    4056:	89 f2                	mov    %esi,%edx
    4058:	83 e2 01             	and    $0x1,%edx
    405b:	8b 4d 14             	mov    0x14(%ebp),%ecx
    405e:	a8 01                	test   $0x1,%al
    4060:	75 02                	jne    4064 <draw_icon_cross+0xd4>
    4062:	89 d9                	mov    %ebx,%ecx
    4064:	84 d2                	test   %dl,%dl
    4066:	0f 85 8c 01 00 00    	jne    41f8 <draw_icon_cross+0x268>
    406c:	89 f2                	mov    %esi,%edx
    406e:	89 d9                	mov    %ebx,%ecx
    4070:	83 e2 02             	and    $0x2,%edx
    4073:	a8 02                	test   $0x2,%al
    4075:	74 03                	je     407a <draw_icon_cross+0xea>
    4077:	8b 4d 14             	mov    0x14(%ebp),%ecx
    407a:	84 d2                	test   %dl,%dl
    407c:	0f 85 4e 01 00 00    	jne    41d0 <draw_icon_cross+0x240>
    4082:	89 f2                	mov    %esi,%edx
    4084:	89 d9                	mov    %ebx,%ecx
    4086:	83 e2 04             	and    $0x4,%edx
    4089:	a8 04                	test   $0x4,%al
    408b:	74 03                	je     4090 <draw_icon_cross+0x100>
    408d:	8b 4d 14             	mov    0x14(%ebp),%ecx
    4090:	84 d2                	test   %dl,%dl
    4092:	0f 85 10 01 00 00    	jne    41a8 <draw_icon_cross+0x218>
    4098:	89 f2                	mov    %esi,%edx
    409a:	89 d9                	mov    %ebx,%ecx
    409c:	83 e2 08             	and    $0x8,%edx
    409f:	a8 08                	test   $0x8,%al
    40a1:	74 03                	je     40a6 <draw_icon_cross+0x116>
    40a3:	8b 4d 14             	mov    0x14(%ebp),%ecx
    40a6:	84 d2                	test   %dl,%dl
    40a8:	0f 85 d2 00 00 00    	jne    4180 <draw_icon_cross+0x1f0>
    40ae:	89 f2                	mov    %esi,%edx
    40b0:	89 d9                	mov    %ebx,%ecx
    40b2:	83 e2 10             	and    $0x10,%edx
    40b5:	a8 10                	test   $0x10,%al
    40b7:	74 03                	je     40bc <draw_icon_cross+0x12c>
    40b9:	8b 4d 14             	mov    0x14(%ebp),%ecx
    40bc:	84 d2                	test   %dl,%dl
    40be:	0f 85 94 00 00 00    	jne    4158 <draw_icon_cross+0x1c8>
    40c4:	89 f2                	mov    %esi,%edx
    40c6:	8b 4d 14             	mov    0x14(%ebp),%ecx
    40c9:	83 e2 20             	and    $0x20,%edx
    40cc:	a8 20                	test   $0x20,%al
    40ce:	75 02                	jne    40d2 <draw_icon_cross+0x142>
    40d0:	89 d9                	mov    %ebx,%ecx
    40d2:	84 d2                	test   %dl,%dl
    40d4:	75 5a                	jne    4130 <draw_icon_cross+0x1a0>
    40d6:	83 ff 1c             	cmp    $0x1c,%edi
    40d9:	74 72                	je     414d <draw_icon_cross+0x1bd>
    40db:	0f b6 b7 24 78 00 00 	movzbl 0x7824(%edi),%esi
    40e2:	8a 87 40 78 00 00    	mov    0x7840(%edi),%al
    40e8:	89 f2                	mov    %esi,%edx
    40ea:	88 c1                	mov    %al,%cl
    40ec:	88 45 e7             	mov    %al,-0x19(%ebp)
    40ef:	31 c0                	xor    %eax,%eax
    40f1:	83 e2 01             	and    $0x1,%edx
    40f4:	88 c8                	mov    %cl,%al
    40f6:	f6 45 e7 01          	testb  $0x1,-0x19(%ebp)
    40fa:	89 d9                	mov    %ebx,%ecx
    40fc:	74 03                	je     4101 <draw_icon_cross+0x171>
    40fe:	8b 4d 14             	mov    0x14(%ebp),%ecx
    4101:	83 c7 02             	add    $0x2,%edi
    4104:	ff 45 10             	incl   0x10(%ebp)
    4107:	84 d2                	test   %dl,%dl
    4109:	0f 84 a1 fe ff ff    	je     3fb0 <draw_icon_cross+0x20>
    410f:	51                   	push   %ecx
    4110:	89 45 e0             	mov    %eax,-0x20(%ebp)
    4113:	8b 4d 10             	mov    0x10(%ebp),%ecx
    4116:	8b 45 0c             	mov    0xc(%ebp),%eax
    4119:	51                   	push   %ecx
    411a:	50                   	push   %eax
    411b:	8b 45 08             	mov    0x8(%ebp),%eax
    411e:	50                   	push   %eax
    411f:	e8 bc 22 00 00       	call   63e0 <surface_put_pixel>
    4124:	83 c4 10             	add    $0x10,%esp
    4127:	8b 45 e0             	mov    -0x20(%ebp),%eax
    412a:	e9 81 fe ff ff       	jmp    3fb0 <draw_icon_cross+0x20>
    412f:	90                   	nop
    4130:	8b 45 10             	mov    0x10(%ebp),%eax
    4133:	51                   	push   %ecx
    4134:	50                   	push   %eax
    4135:	8b 45 0c             	mov    0xc(%ebp),%eax
    4138:	83 c0 0d             	add    $0xd,%eax
    413b:	8b 55 08             	mov    0x8(%ebp),%edx
    413e:	50                   	push   %eax
    413f:	52                   	push   %edx
    4140:	e8 9b 22 00 00       	call   63e0 <surface_put_pixel>
    4145:	83 c4 10             	add    $0x10,%esp
    4148:	83 ff 1c             	cmp    $0x1c,%edi
    414b:	75 8e                	jne    40db <draw_icon_cross+0x14b>
    414d:	8d 65 f4             	lea    -0xc(%ebp),%esp
    4150:	5b                   	pop    %ebx
    4151:	5e                   	pop    %esi
    4152:	5f                   	pop    %edi
    4153:	5d                   	pop    %ebp
    4154:	c3                   	ret    
    4155:	8d 76 00             	lea    0x0(%esi),%esi
    4158:	88 45 e7             	mov    %al,-0x19(%ebp)
    415b:	8b 45 0c             	mov    0xc(%ebp),%eax
    415e:	51                   	push   %ecx
    415f:	8b 4d 10             	mov    0x10(%ebp),%ecx
    4162:	8d 50 0c             	lea    0xc(%eax),%edx
    4165:	8b 45 08             	mov    0x8(%ebp),%eax
    4168:	51                   	push   %ecx
    4169:	52                   	push   %edx
    416a:	50                   	push   %eax
    416b:	e8 70 22 00 00       	call   63e0 <surface_put_pixel>
    4170:	83 c4 10             	add    $0x10,%esp
    4173:	8a 45 e7             	mov    -0x19(%ebp),%al
    4176:	e9 49 ff ff ff       	jmp    40c4 <draw_icon_cross+0x134>
    417b:	90                   	nop
    417c:	8d 74 26 00          	lea    0x0(%esi,%eiz,1),%esi
    4180:	88 45 e7             	mov    %al,-0x19(%ebp)
    4183:	8b 45 10             	mov    0x10(%ebp),%eax
    4186:	51                   	push   %ecx
    4187:	50                   	push   %eax
    4188:	8b 45 0c             	mov    0xc(%ebp),%eax
    418b:	8d 50 0b             	lea    0xb(%eax),%edx
    418e:	8b 45 08             	mov    0x8(%ebp),%eax
    4191:	52                   	push   %edx
    4192:	50                   	push   %eax
    4193:	e8 48 22 00 00       	call   63e0 <surface_put_pixel>
    4198:	83 c4 10             	add    $0x10,%esp
    419b:	8a 45 e7             	mov    -0x19(%ebp),%al
    419e:	e9 0b ff ff ff       	jmp    40ae <draw_icon_cross+0x11e>
    41a3:	90                   	nop
    41a4:	8d 74 26 00          	lea    0x0(%esi,%eiz,1),%esi
    41a8:	88 45 e7             	mov    %al,-0x19(%ebp)
    41ab:	8b 45 10             	mov    0x10(%ebp),%eax
    41ae:	51                   	push   %ecx
    41af:	50                   	push   %eax
    41b0:	8b 45 0c             	mov    0xc(%ebp),%eax
    41b3:	8d 50 0a             	lea    0xa(%eax),%edx
    41b6:	8b 45 08             	mov    0x8(%ebp),%eax
    41b9:	52                   	push   %edx
    41ba:	50                   	push   %eax
    41bb:	e8 20 22 00 00       	call   63e0 <surface_put_pixel>
    41c0:	83 c4 10             	add    $0x10,%esp
    41c3:	8a 45 e7             	mov    -0x19(%ebp),%al
    41c6:	e9 cd fe ff ff       	jmp    4098 <draw_icon_cross+0x108>
    41cb:	90                   	nop
    41cc:	8d 74 26 00          	lea    0x0(%esi,%eiz,1),%esi
    41d0:	88 45 e7             	mov    %al,-0x19(%ebp)
    41d3:	8b 45 10             	mov    0x10(%ebp),%eax
    41d6:	51                   	push   %ecx
    41d7:	50                   	push   %eax
    41d8:	8b 45 0c             	mov    0xc(%ebp),%eax
    41db:	8d 50 09             	lea    0x9(%eax),%edx
    41de:	52                   	push   %edx
    41df:	8b 55 08             	mov    0x8(%ebp),%edx
    41e2:	52                   	push   %edx
    41e3:	e8 f8 21 00 00       	call   63e0 <surface_put_pixel>
    41e8:	83 c4 10             	add    $0x10,%esp
    41eb:	8a 45 e7             	mov    -0x19(%ebp),%al
    41ee:	e9 8f fe ff ff       	jmp    4082 <draw_icon_cross+0xf2>
    41f3:	90                   	nop
    41f4:	8d 74 26 00          	lea    0x0(%esi,%eiz,1),%esi
    41f8:	88 45 e7             	mov    %al,-0x19(%ebp)
    41fb:	8b 45 0c             	mov    0xc(%ebp),%eax
    41fe:	51                   	push   %ecx
    41ff:	8b 4d 10             	mov    0x10(%ebp),%ecx
    4202:	8d 50 08             	lea    0x8(%eax),%edx
    4205:	8b 45 08             	mov    0x8(%ebp),%eax
    4208:	51                   	push   %ecx
    4209:	52                   	push   %edx
    420a:	50                   	push   %eax
    420b:	e8 d0 21 00 00       	call   63e0 <surface_put_pixel>
    4210:	83 c4 10             	add    $0x10,%esp
    4213:	8a 45 e7             	mov    -0x19(%ebp),%al
    4216:	e9 51 fe ff ff       	jmp    406c <draw_icon_cross+0xdc>
    421b:	90                   	nop
    421c:	8d 74 26 00          	lea    0x0(%esi,%eiz,1),%esi
    4220:	50                   	push   %eax
    4221:	8b 45 10             	mov    0x10(%ebp),%eax
    4224:	50                   	push   %eax
    4225:	8b 45 0c             	mov    0xc(%ebp),%eax
    4228:	83 c0 07             	add    $0x7,%eax
    422b:	50                   	push   %eax
    422c:	8b 45 08             	mov    0x8(%ebp),%eax
    422f:	50                   	push   %eax
    4230:	e8 ab 21 00 00       	call   63e0 <surface_put_pixel>
    4235:	83 c4 10             	add    $0x10,%esp
    4238:	e9 0c fe ff ff       	jmp    4049 <draw_icon_cross+0xb9>
    423d:	8d 76 00             	lea    0x0(%esi),%esi
    4240:	8b 45 10             	mov    0x10(%ebp),%eax
    4243:	51                   	push   %ecx
    4244:	50                   	push   %eax
    4245:	8b 45 0c             	mov    0xc(%ebp),%eax
    4248:	83 c0 06             	add    $0x6,%eax
    424b:	50                   	push   %eax
    424c:	8b 45 08             	mov    0x8(%ebp),%eax
    424f:	50                   	push   %eax
    4250:	e8 8b 21 00 00       	call   63e0 <surface_put_pixel>
    4255:	83 c4 10             	add    $0x10,%esp
    4258:	e9 d7 fd ff ff       	jmp    4034 <draw_icon_cross+0xa4>
    425d:	8d 76 00             	lea    0x0(%esi),%esi
    4260:	89 45 e0             	mov    %eax,-0x20(%ebp)
    4263:	8b 45 10             	mov    0x10(%ebp),%eax
    4266:	51                   	push   %ecx
    4267:	50                   	push   %eax
    4268:	8b 45 0c             	mov    0xc(%ebp),%eax
    426b:	8d 50 05             	lea    0x5(%eax),%edx
    426e:	52                   	push   %edx
    426f:	8b 55 08             	mov    0x8(%ebp),%edx
    4272:	52                   	push   %edx
    4273:	e8 68 21 00 00       	call   63e0 <surface_put_pixel>
    4278:	83 c4 10             	add    $0x10,%esp
    427b:	8b 45 e0             	mov    -0x20(%ebp),%eax
    427e:	e9 9b fd ff ff       	jmp    401e <draw_icon_cross+0x8e>
    4283:	90                   	nop
    4284:	8d 74 26 00          	lea    0x0(%esi,%eiz,1),%esi
    4288:	89 45 e0             	mov    %eax,-0x20(%ebp)
    428b:	8b 45 0c             	mov    0xc(%ebp),%eax
    428e:	51                   	push   %ecx
    428f:	8b 4d 10             	mov    0x10(%ebp),%ecx
    4292:	8d 50 04             	lea    0x4(%eax),%edx
    4295:	8b 45 08             	mov    0x8(%ebp),%eax
    4298:	51                   	push   %ecx
    4299:	52                   	push   %edx
    429a:	50                   	push   %eax
    429b:	e8 40 21 00 00       	call   63e0 <surface_put_pixel>
    42a0:	83 c4 10             	add    $0x10,%esp
    42a3:	8b 45 e0             	mov    -0x20(%ebp),%eax
    42a6:	e9 5d fd ff ff       	jmp    4008 <draw_icon_cross+0x78>
    42ab:	90                   	nop
    42ac:	8d 74 26 00          	lea    0x0(%esi,%eiz,1),%esi
    42b0:	89 45 e0             	mov    %eax,-0x20(%ebp)
    42b3:	8b 45 10             	mov    0x10(%ebp),%eax
    42b6:	51                   	push   %ecx
    42b7:	50                   	push   %eax
    42b8:	8b 45 0c             	mov    0xc(%ebp),%eax
    42bb:	8d 50 03             	lea    0x3(%eax),%edx
    42be:	8b 45 08             	mov    0x8(%ebp),%eax
    42c1:	52                   	push   %edx
    42c2:	50                   	push   %eax
    42c3:	e8 18 21 00 00       	call   63e0 <surface_put_pixel>
    42c8:	83 c4 10             	add    $0x10,%esp
    42cb:	8b 45 e0             	mov    -0x20(%ebp),%eax
    42ce:	e9 1f fd ff ff       	jmp    3ff2 <draw_icon_cross+0x62>
    42d3:	90                   	nop
    42d4:	8d 74 26 00          	lea    0x0(%esi,%eiz,1),%esi
    42d8:	89 45 e0             	mov    %eax,-0x20(%ebp)
    42db:	8b 45 10             	mov    0x10(%ebp),%eax
    42de:	51                   	push   %ecx
    42df:	50                   	push   %eax
    42e0:	8b 45 0c             	mov    0xc(%ebp),%eax
    42e3:	8d 50 02             	lea    0x2(%eax),%edx
    42e6:	8b 45 08             	mov    0x8(%ebp),%eax
    42e9:	52                   	push   %edx
    42ea:	50                   	push   %eax
    42eb:	e8 f0 20 00 00       	call   63e0 <surface_put_pixel>
    42f0:	83 c4 10             	add    $0x10,%esp
    42f3:	8b 45 e0             	mov    -0x20(%ebp),%eax
    42f6:	e9 e1 fc ff ff       	jmp    3fdc <draw_icon_cross+0x4c>
    42fb:	90                   	nop
    42fc:	8d 74 26 00          	lea    0x0(%esi,%eiz,1),%esi
    4300:	89 45 e0             	mov    %eax,-0x20(%ebp)
    4303:	8b 45 10             	mov    0x10(%ebp),%eax
    4306:	51                   	push   %ecx
    4307:	50                   	push   %eax
    4308:	8b 45 0c             	mov    0xc(%ebp),%eax
    430b:	8d 50 01             	lea    0x1(%eax),%edx
    430e:	52                   	push   %edx
    430f:	8b 55 08             	mov    0x8(%ebp),%edx
    4312:	52                   	push   %edx
    4313:	e8 c8 20 00 00       	call   63e0 <surface_put_pixel>
    4318:	83 c4 10             	add    $0x10,%esp
    431b:	8b 45 e0             	mov    -0x20(%ebp),%eax
    431e:	e9 a3 fc ff ff       	jmp    3fc6 <draw_icon_cross+0x36>
    4323:	8d b6 00 00 00 00    	lea    0x0(%esi),%esi
    4329:	8d bc 27 00 00 00 00 	lea    0x0(%edi,%eiz,1),%edi

00004330 <draw_bevel>:
    4330:	55                   	push   %ebp
    4331:	89 e5                	mov    %esp,%ebp
    4333:	57                   	push   %edi
    4334:	56                   	push   %esi
    4335:	53                   	push   %ebx
    4336:	83 ec 24             	sub    $0x24,%esp
    4339:	8b 55 18             	mov    0x18(%ebp),%edx
    433c:	8b 45 0c             	mov    0xc(%ebp),%eax
    433f:	89 55 e4             	mov    %edx,-0x1c(%ebp)
    4342:	8b 55 24             	mov    0x24(%ebp),%edx
    4345:	8b 4d 1c             	mov    0x1c(%ebp),%ecx
    4348:	89 55 d8             	mov    %edx,-0x28(%ebp)
    434b:	8b 55 20             	mov    0x20(%ebp),%edx
    434e:	8b 5d 08             	mov    0x8(%ebp),%ebx
    4351:	52                   	push   %edx
    4352:	8b 75 10             	mov    0x10(%ebp),%esi
    4355:	50                   	push   %eax
    4356:	8b 7d 14             	mov    0x14(%ebp),%edi
    4359:	89 45 dc             	mov    %eax,-0x24(%ebp)
    435c:	89 4d e0             	mov    %ecx,-0x20(%ebp)
    435f:	e8 dc 1a 00 00       	call   5e40 <source_set_color>
    4364:	8b 55 e4             	mov    -0x1c(%ebp),%edx
    4367:	8d 4a ff             	lea    -0x1(%edx),%ecx
    436a:	c7 04 24 01 00 00 00 	movl   $0x1,(%esp)
    4371:	51                   	push   %ecx
    4372:	57                   	push   %edi
    4373:	56                   	push   %esi
    4374:	53                   	push   %ebx
    4375:	e8 96 14 00 00       	call   5810 <drawctx_transfer>
    437a:	83 c4 14             	add    $0x14,%esp
    437d:	8b 4d e0             	mov    -0x20(%ebp),%ecx
    4380:	83 e9 02             	sub    $0x2,%ecx
    4383:	51                   	push   %ecx
    4384:	8d 4f 01             	lea    0x1(%edi),%ecx
    4387:	6a 01                	push   $0x1
    4389:	51                   	push   %ecx
    438a:	56                   	push   %esi
    438b:	53                   	push   %ebx
    438c:	e8 7f 14 00 00       	call   5810 <drawctx_transfer>
    4391:	83 c4 18             	add    $0x18,%esp
    4394:	8b 55 d8             	mov    -0x28(%ebp),%edx
    4397:	8b 45 dc             	mov    -0x24(%ebp),%eax
    439a:	52                   	push   %edx
    439b:	50                   	push   %eax
    439c:	e8 9f 1a 00 00       	call   5e40 <source_set_color>
    43a1:	8b 4d e4             	mov    -0x1c(%ebp),%ecx
    43a4:	c7 04 24 01 00 00 00 	movl   $0x1,(%esp)
    43ab:	51                   	push   %ecx
    43ac:	8b 4d e0             	mov    -0x20(%ebp),%ecx
    43af:	8d 44 0f ff          	lea    -0x1(%edi,%ecx,1),%eax
    43b3:	50                   	push   %eax
    43b4:	56                   	push   %esi
    43b5:	53                   	push   %ebx
    43b6:	e8 55 14 00 00       	call   5810 <drawctx_transfer>
    43bb:	8b 55 e4             	mov    -0x1c(%ebp),%edx
    43be:	8b 4d e0             	mov    -0x20(%ebp),%ecx
    43c1:	89 7d 10             	mov    %edi,0x10(%ebp)
    43c4:	89 5d 08             	mov    %ebx,0x8(%ebp)
    43c7:	8d 44 16 ff          	lea    -0x1(%esi,%edx,1),%eax
    43cb:	89 4d 18             	mov    %ecx,0x18(%ebp)
    43ce:	c7 45 14 01 00 00 00 	movl   $0x1,0x14(%ebp)
    43d5:	89 45 0c             	mov    %eax,0xc(%ebp)
    43d8:	83 c4 20             	add    $0x20,%esp
    43db:	8d 65 f4             	lea    -0xc(%ebp),%esp
    43de:	5b                   	pop    %ebx
    43df:	5e                   	pop    %esi
    43e0:	5f                   	pop    %edi
    43e1:	5d                   	pop    %ebp
    43e2:	e9 29 14 00 00       	jmp    5810 <drawctx_transfer>
    43e7:	66 90                	xchg   %ax,%ax
    43e9:	66 90                	xchg   %ax,%ax
    43eb:	66 90                	xchg   %ax,%ax
    43ed:	66 90                	xchg   %ax,%ax
    43ef:	90                   	nop

000043f0 <fde_load_glyph_metrics>:
    43f0:	55                   	push   %ebp
    43f1:	89 e5                	mov    %esp,%ebp
    43f3:	8b 45 10             	mov    0x10(%ebp),%eax
    43f6:	c7 00 00 00 00 00    	movl   $0x0,(%eax)
    43fc:	c7 40 04 08 00 00 00 	movl   $0x8,0x4(%eax)
    4403:	c7 40 08 00 00 00 00 	movl   $0x0,0x8(%eax)
    440a:	c7 40 0c 0c 00 00 00 	movl   $0xc,0xc(%eax)
    4411:	c7 40 10 10 00 00 00 	movl   $0x10,0x10(%eax)
    4418:	31 c0                	xor    %eax,%eax
    441a:	5d                   	pop    %ebp
    441b:	c3                   	ret    
    441c:	8d 74 26 00          	lea    0x0(%esi,%eiz,1),%esi

00004420 <fde_release>:
    4420:	55                   	push   %ebp
    4421:	89 e5                	mov    %esp,%ebp
    4423:	5d                   	pop    %ebp
    4424:	c3                   	ret    
    4425:	8d 74 26 00          	lea    0x0(%esi,%eiz,1),%esi
    4429:	8d bc 27 00 00 00 00 	lea    0x0(%edi,%eiz,1),%edi

00004430 <fde_load_glyph_surface>:
    4430:	55                   	push   %ebp
    4431:	89 e5                	mov    %esp,%ebp
    4433:	57                   	push   %edi
    4434:	56                   	push   %esi
    4435:	53                   	push   %ebx
    4436:	83 ec 1c             	sub    $0x1c,%esp
    4439:	6a 00                	push   $0x0
    443b:	6a 00                	push   $0x0
    443d:	6a 10                	push   $0x10
    443f:	6a 08                	push   $0x8
    4441:	e8 ca 1c 00 00       	call   6110 <surface_create>
    4446:	83 c4 10             	add    $0x10,%esp
    4449:	85 c0                	test   %eax,%eax
    444b:	74 63                	je     44b0 <fde_load_glyph_surface+0x80>
    444d:	89 c3                	mov    %eax,%ebx
    444f:	8b 45 0c             	mov    0xc(%ebp),%eax
    4452:	c1 e0 04             	shl    $0x4,%eax
    4455:	31 f6                	xor    %esi,%esi
    4457:	89 45 e4             	mov    %eax,-0x1c(%ebp)
    445a:	89 f7                	mov    %esi,%edi
    445c:	8d 74 26 00          	lea    0x0(%esi,%eiz,1),%esi
    4460:	31 f6                	xor    %esi,%esi
    4462:	89 f8                	mov    %edi,%eax
    4464:	89 f7                	mov    %esi,%edi
    4466:	89 c6                	mov    %eax,%esi
    4468:	8b 55 e4             	mov    -0x1c(%ebp),%edx
    446b:	31 c0                	xor    %eax,%eax
    446d:	b9 07 00 00 00       	mov    $0x7,%ecx
    4472:	29 f9                	sub    %edi,%ecx
    4474:	8a 84 16 80 9a 00 00 	mov    0x9a80(%esi,%edx,1),%al
    447b:	d3 f8                	sar    %cl,%eax
    447d:	83 e0 01             	and    $0x1,%eax
    4480:	f7 d8                	neg    %eax
    4482:	25 00 00 00 ff       	and    $0xff000000,%eax
    4487:	50                   	push   %eax
    4488:	56                   	push   %esi
    4489:	57                   	push   %edi
    448a:	47                   	inc    %edi
    448b:	53                   	push   %ebx
    448c:	e8 4f 1f 00 00       	call   63e0 <surface_put_pixel>
    4491:	83 c4 10             	add    $0x10,%esp
    4494:	83 ff 08             	cmp    $0x8,%edi
    4497:	75 cf                	jne    4468 <fde_load_glyph_surface+0x38>
    4499:	89 f7                	mov    %esi,%edi
    449b:	47                   	inc    %edi
    449c:	83 ff 10             	cmp    $0x10,%edi
    449f:	75 bf                	jne    4460 <fde_load_glyph_surface+0x30>
    44a1:	8b 45 10             	mov    0x10(%ebp),%eax
    44a4:	89 18                	mov    %ebx,(%eax)
    44a6:	31 c0                	xor    %eax,%eax
    44a8:	8d 65 f4             	lea    -0xc(%ebp),%esp
    44ab:	5b                   	pop    %ebx
    44ac:	5e                   	pop    %esi
    44ad:	5f                   	pop    %edi
    44ae:	5d                   	pop    %ebp
    44af:	c3                   	ret    
    44b0:	b8 fe ff ff ff       	mov    $0xfffffffe,%eax
    44b5:	eb f1                	jmp    44a8 <fde_load_glyph_surface+0x78>
    44b7:	89 f6                	mov    %esi,%esi
    44b9:	8d bc 27 00 00 00 00 	lea    0x0(%edi,%eiz,1),%edi

000044c0 <fde_resolve_glyph>:
    44c0:	55                   	push   %ebp
    44c1:	89 e5                	mov    %esp,%ebp
    44c3:	83 ec 20             	sub    $0x20,%esp
    44c6:	8d 45 f7             	lea    -0x9(%ebp),%eax
    44c9:	c6 45 f7 00          	movb   $0x0,-0x9(%ebp)
    44cd:	50                   	push   %eax
    44ce:	8b 45 0c             	mov    0xc(%ebp),%eax
    44d1:	50                   	push   %eax
    44d2:	e8 69 08 00 00       	call   4d40 <fb_font_glyph>
    44d7:	83 c4 10             	add    $0x10,%esp
    44da:	80 7d f7 00          	cmpb   $0x0,-0x9(%ebp)
    44de:	74 10                	je     44f0 <fde_resolve_glyph+0x30>
    44e0:	8b 55 10             	mov    0x10(%ebp),%edx
    44e3:	25 ff ff 00 00       	and    $0xffff,%eax
    44e8:	89 02                	mov    %eax,(%edx)
    44ea:	31 c0                	xor    %eax,%eax
    44ec:	c9                   	leave  
    44ed:	c3                   	ret    
    44ee:	66 90                	xchg   %ax,%ax
    44f0:	83 c8 ff             	or     $0xffffffff,%eax
    44f3:	c9                   	leave  
    44f4:	c3                   	ret    
    44f5:	8d 74 26 00          	lea    0x0(%esi,%eiz,1),%esi
    44f9:	8d bc 27 00 00 00 00 	lea    0x0(%edi,%eiz,1),%edi

00004500 <embedded_font_create>:
    4500:	55                   	push   %ebp
    4501:	31 c0                	xor    %eax,%eax
    4503:	89 e5                	mov    %esp,%ebp
    4505:	83 ec 08             	sub    $0x8,%esp
    4508:	8b 0d 4c 9a 00 00    	mov    0x9a4c,%ecx
    450e:	66 8b 45 0c          	mov    0xc(%ebp),%ax
    4512:	8b 55 08             	mov    0x8(%ebp),%edx
    4515:	52                   	push   %edx
    4516:	50                   	push   %eax
    4517:	a1 48 9a 00 00       	mov    0x9a48,%eax
    451c:	51                   	push   %ecx
    451d:	50                   	push   %eax
    451e:	a1 44 9a 00 00       	mov    0x9a44,%eax
    4523:	50                   	push   %eax
    4524:	68 53 0b 00 00       	push   $0xb53
    4529:	6a 00                	push   $0x0
    452b:	68 50 9a 00 00       	push   $0x9a50
    4530:	e8 8b 06 00 00       	call   4bc0 <bitmap_font_create>
    4535:	c9                   	leave  
    4536:	c3                   	ret    
    4537:	66 90                	xchg   %ax,%ax
    4539:	66 90                	xchg   %ax,%ax
    453b:	66 90                	xchg   %ax,%ax
    453d:	66 90                	xchg   %ax,%ax
    453f:	90                   	nop

00004540 <bb_get_font_metrics>:
    4540:	55                   	push   %ebp
    4541:	89 e5                	mov    %esp,%ebp
    4543:	8b 55 08             	mov    0x8(%ebp),%edx
    4546:	8b 45 0c             	mov    0xc(%ebp),%eax
    4549:	8b 4a 08             	mov    0x8(%edx),%ecx
    454c:	89 08                	mov    %ecx,(%eax)
    454e:	8b 4a 0c             	mov    0xc(%edx),%ecx
    4551:	89 48 04             	mov    %ecx,0x4(%eax)
    4554:	8b 52 10             	mov    0x10(%edx),%edx
    4557:	89 50 08             	mov    %edx,0x8(%eax)
    455a:	31 c0                	xor    %eax,%eax
    455c:	5d                   	pop    %ebp
    455d:	c3                   	ret    
    455e:	66 90                	xchg   %ax,%ax

00004560 <bb_resolve_glyph>:
    4560:	55                   	push   %ebp
    4561:	89 e5                	mov    %esp,%ebp
    4563:	8b 45 08             	mov    0x8(%ebp),%eax
    4566:	8b 50 18             	mov    0x18(%eax),%edx
    4569:	8b 40 1c             	mov    0x1c(%eax),%eax
    456c:	89 45 08             	mov    %eax,0x8(%ebp)
    456f:	5d                   	pop    %ebp
    4570:	8b 02                	mov    (%edx),%eax
    4572:	ff e0                	jmp    *%eax
    4574:	8d b6 00 00 00 00    	lea    0x0(%esi),%esi
    457a:	8d bf 00 00 00 00    	lea    0x0(%edi),%edi

00004580 <bb_get_glyph_metrics>:
    4580:	55                   	push   %ebp
    4581:	89 e5                	mov    %esp,%ebp
    4583:	57                   	push   %edi
    4584:	56                   	push   %esi
    4585:	53                   	push   %ebx
    4586:	83 ec 3c             	sub    $0x3c,%esp
    4589:	8b 7d 08             	mov    0x8(%ebp),%edi
    458c:	8b 55 0c             	mov    0xc(%ebp),%edx
    458f:	8b 75 10             	mov    0x10(%ebp),%esi
    4592:	39 57 04             	cmp    %edx,0x4(%edi)
    4595:	0f 86 1d 01 00 00    	jbe    46b8 <bb_get_glyph_metrics+0x138>
    459b:	8d 1c d5 00 00 00 00 	lea    0x0(,%edx,8),%ebx
    45a2:	8b 47 14             	mov    0x14(%edi),%eax
    45a5:	29 d3                	sub    %edx,%ebx
    45a7:	c1 e3 02             	shl    $0x2,%ebx
    45aa:	01 d8                	add    %ebx,%eax
    45ac:	80 78 18 00          	cmpb   $0x0,0x18(%eax)
    45b0:	74 2e                	je     45e0 <bb_get_glyph_metrics+0x60>
    45b2:	8b 50 04             	mov    0x4(%eax),%edx
    45b5:	89 16                	mov    %edx,(%esi)
    45b7:	8b 50 08             	mov    0x8(%eax),%edx
    45ba:	89 56 04             	mov    %edx,0x4(%esi)
    45bd:	8b 50 0c             	mov    0xc(%eax),%edx
    45c0:	89 56 08             	mov    %edx,0x8(%esi)
    45c3:	8b 50 10             	mov    0x10(%eax),%edx
    45c6:	89 56 0c             	mov    %edx,0xc(%esi)
    45c9:	8b 40 14             	mov    0x14(%eax),%eax
    45cc:	89 46 10             	mov    %eax,0x10(%esi)
    45cf:	31 c0                	xor    %eax,%eax
    45d1:	8d 65 f4             	lea    -0xc(%ebp),%esp
    45d4:	5b                   	pop    %ebx
    45d5:	5e                   	pop    %esi
    45d6:	5f                   	pop    %edi
    45d7:	5d                   	pop    %ebp
    45d8:	c3                   	ret    
    45d9:	8d b4 26 00 00 00 00 	lea    0x0(%esi,%eiz,1),%esi
    45e0:	51                   	push   %ecx
    45e1:	8d 4d d4             	lea    -0x2c(%ebp),%ecx
    45e4:	8b 47 18             	mov    0x18(%edi),%eax
    45e7:	51                   	push   %ecx
    45e8:	52                   	push   %edx
    45e9:	8b 57 1c             	mov    0x1c(%edi),%edx
    45ec:	52                   	push   %edx
    45ed:	ff 50 08             	call   *0x8(%eax)
    45f0:	83 c4 10             	add    $0x10,%esp
    45f3:	85 c0                	test   %eax,%eax
    45f5:	75 da                	jne    45d1 <bb_get_glyph_metrics+0x51>
    45f7:	80 7f 20 00          	cmpb   $0x0,0x20(%edi)
    45fb:	74 68                	je     4665 <bb_get_glyph_metrics+0xe5>
    45fd:	dd 47 24             	fldl   0x24(%edi)
    4600:	d9 7d c6             	fnstcw -0x3a(%ebp)
    4603:	db 45 d4             	fildl  -0x2c(%ebp)
    4606:	d8 c9                	fmul   %st(1),%st
    4608:	66 8b 55 c6          	mov    -0x3a(%ebp),%dx
    460c:	b6 0c                	mov    $0xc,%dh
    460e:	66 89 55 c4          	mov    %dx,-0x3c(%ebp)
    4612:	d9 05 5c 78 00 00    	flds   0x785c
    4618:	dc c1                	fadd   %st,%st(1)
    461a:	d9 c9                	fxch   %st(1)
    461c:	d9 6d c4             	fldcw  -0x3c(%ebp)
    461f:	db 5d d4             	fistpl -0x2c(%ebp)
    4622:	d9 6d c6             	fldcw  -0x3a(%ebp)
    4625:	db 45 d8             	fildl  -0x28(%ebp)
    4628:	d8 ca                	fmul   %st(2),%st
    462a:	d8 c1                	fadd   %st(1),%st
    462c:	d9 6d c4             	fldcw  -0x3c(%ebp)
    462f:	db 5d d8             	fistpl -0x28(%ebp)
    4632:	d9 6d c6             	fldcw  -0x3a(%ebp)
    4635:	db 45 dc             	fildl  -0x24(%ebp)
    4638:	d8 ca                	fmul   %st(2),%st
    463a:	d8 c1                	fadd   %st(1),%st
    463c:	d9 6d c4             	fldcw  -0x3c(%ebp)
    463f:	db 5d dc             	fistpl -0x24(%ebp)
    4642:	d9 6d c6             	fldcw  -0x3a(%ebp)
    4645:	db 45 e0             	fildl  -0x20(%ebp)
    4648:	d8 ca                	fmul   %st(2),%st
    464a:	d8 c1                	fadd   %st(1),%st
    464c:	d9 6d c4             	fldcw  -0x3c(%ebp)
    464f:	db 5d e0             	fistpl -0x20(%ebp)
    4652:	d9 6d c6             	fldcw  -0x3a(%ebp)
    4655:	db 45 e4             	fildl  -0x1c(%ebp)
    4658:	de ca                	fmulp  %st,%st(2)
    465a:	de c1                	faddp  %st,%st(1)
    465c:	d9 6d c4             	fldcw  -0x3c(%ebp)
    465f:	db 5d e4             	fistpl -0x1c(%ebp)
    4662:	d9 6d c6             	fldcw  -0x3a(%ebp)
    4665:	8b 57 14             	mov    0x14(%edi),%edx
    4668:	01 d3                	add    %edx,%ebx
