
vterm:     file format elf32-i386


Disassembly of section .init:

000010f4 <__entry>:
    10f4:	66 8c d0             	mov    %ss,%ax
    10f7:	8e d8                	mov    %eax,%ds
    10f9:	8e c0                	mov    %eax,%es
    10fb:	8e e0                	mov    %eax,%fs
    10fd:	b8 01 00 00 00       	mov    $0x1,%eax
    1102:	0f a2                	cpuid  
    1104:	0f ba e2 0b          	bt     $0xb,%edx
    1108:	73 0c                	jae    1116 <__entry+0x22>
    110a:	8d 05 b8 50 01 00    	lea    0x150b8,%eax
    1110:	c7 00 40 7e 00 00    	movl   $0x7e40,(%eax)
    1116:	6a 00                	push   $0x0
    1118:	6a 00                	push   $0x0
    111a:	89 e5                	mov    %esp,%ebp
    111c:	57                   	push   %edi
    111d:	e8 ae 69 00 00       	call   7ad0 <__main@plt>

Disassembly of section .text:

00001140 <main>:
    1140:	8d 4c 24 04          	lea    0x4(%esp),%ecx
    1144:	83 e4 f0             	and    $0xfffffff0,%esp
    1147:	ff 71 fc             	pushl  -0x4(%ecx)
    114a:	55                   	push   %ebp
    114b:	89 e5                	mov    %esp,%ebp
    114d:	53                   	push   %ebx
    114e:	51                   	push   %ecx
    114f:	8b 41 04             	mov    0x4(%ecx),%eax
    1152:	83 39 01             	cmpl   $0x1,(%ecx)
    1155:	0f 8e d3 00 00 00    	jle    122e <main+0xee>
    115b:	68 13 77 00 00       	push   $0x7713
    1160:	6a 03                	push   $0x3
    1162:	6a 00                	push   $0x0
    1164:	8b 40 04             	mov    0x4(%eax),%eax
    1167:	50                   	push   %eax
    1168:	e8 93 2a 00 00       	call   3c00 <window_open>
    116d:	83 c4 10             	add    $0x10,%esp
    1170:	89 c3                	mov    %eax,%ebx
    1172:	85 c0                	test   %eax,%eax
    1174:	74 79                	je     11ef <main+0xaf>
    1176:	50                   	push   %eax
    1177:	50                   	push   %eax
    1178:	6a 00                	push   $0x0
    117a:	68 fc 01 00 00       	push   $0x1fc
    117f:	68 88 02 00 00       	push   $0x288
    1184:	6a 00                	push   $0x0
    1186:	6a 00                	push   $0x0
    1188:	53                   	push   %ebx
    1189:	e8 22 2c 00 00       	call   3db0 <window_resize>
    118e:	83 c4 14             	add    $0x14,%esp
    1191:	53                   	push   %ebx
    1192:	e8 19 2d 00 00       	call   3eb0 <window_root>
    1197:	68 e0 01 00 00       	push   $0x1e0
    119c:	68 80 02 00 00       	push   $0x280
    11a1:	6a 00                	push   $0x0
    11a3:	50                   	push   %eax
    11a4:	e8 17 16 00 00       	call   27c0 <create_terminal>
    11a9:	83 c4 20             	add    $0x20,%esp
    11ac:	85 c0                	test   %eax,%eax
    11ae:	74 5a                	je     120a <main+0xca>
    11b0:	83 ec 0c             	sub    $0xc,%esp
    11b3:	53                   	push   %ebx
    11b4:	e8 07 2d 00 00       	call   3ec0 <window_exec>
    11b9:	c7 04 24 00 00 00 00 	movl   $0x0,(%esp)
    11c0:	e8 3b 69 00 00       	call   7b00 <task_retval@plt>
    11c5:	83 c8 ff             	or     $0xffffffff,%eax
    11c8:	f0 0f c1 05 bc 50 01 	lock xadd %eax,0x150bc
    11cf:	00 
    11d0:	83 c4 10             	add    $0x10,%esp
    11d3:	48                   	dec    %eax
    11d4:	78 73                	js     1249 <main+0x109>
    11d6:	83 ec 0c             	sub    $0xc,%esp
    11d9:	6a 03                	push   $0x3
    11db:	e8 40 6c 00 00       	call   7e20 <fibril_switch@plt>
    11e0:	83 c4 10             	add    $0x10,%esp
    11e3:	31 c0                	xor    %eax,%eax
    11e5:	8d 65 f8             	lea    -0x8(%ebp),%esp
    11e8:	59                   	pop    %ecx
    11e9:	5b                   	pop    %ebx
    11ea:	5d                   	pop    %ebp
    11eb:	8d 61 fc             	lea    -0x4(%ecx),%esp
    11ee:	c3                   	ret    
    11ef:	50                   	push   %eax
    11f0:	50                   	push   %eax
    11f1:	68 13 77 00 00       	push   $0x7713
    11f6:	68 19 77 00 00       	push   $0x7719
    11fb:	e8 20 69 00 00       	call   7b20 <printf@plt>
    1200:	83 c4 10             	add    $0x10,%esp
    1203:	b8 02 00 00 00       	mov    $0x2,%eax
    1208:	eb db                	jmp    11e5 <main+0xa5>
    120a:	83 ec 0c             	sub    $0xc,%esp
    120d:	53                   	push   %ebx
    120e:	e8 5d 2d 00 00       	call   3f70 <window_close>
    1213:	5a                   	pop    %edx
    1214:	59                   	pop    %ecx
    1215:	68 13 77 00 00       	push   $0x7713
    121a:	68 37 77 00 00       	push   $0x7737
    121f:	e8 fc 68 00 00       	call   7b20 <printf@plt>
    1224:	83 c4 10             	add    $0x10,%esp
    1227:	b8 03 00 00 00       	mov    $0x3,%eax
    122c:	eb b7                	jmp    11e5 <main+0xa5>
    122e:	50                   	push   %eax
    122f:	50                   	push   %eax
    1230:	68 13 77 00 00       	push   $0x7713
    1235:	68 54 77 00 00       	push   $0x7754
    123a:	e8 e1 68 00 00       	call   7b20 <printf@plt>
    123f:	83 c4 10             	add    $0x10,%esp
    1242:	b8 01 00 00 00       	mov    $0x1,%eax
    1247:	eb 9c                	jmp    11e5 <main+0xa5>
    1249:	50                   	push   %eax
    124a:	6a 0b                	push   $0xb
    124c:	6a 00                	push   $0x0
    124e:	6a 00                	push   $0x0
    1250:	6a 00                	push   $0x0
    1252:	6a 00                	push   $0x0
    1254:	6a 00                	push   $0x0
    1256:	68 bc 50 01 00       	push   $0x150bc
    125b:	ff 15 b8 50 01 00    	call   *0x150b8
    1261:	83 c4 20             	add    $0x20,%esp
    1264:	e9 6d ff ff ff       	jmp    11d6 <main+0x96>
    1269:	66 90                	xchg   %ax,%ax
    126b:	66 90                	xchg   %ax,%ax
    126d:	66 90                	xchg   %ax,%ax
    126f:	90                   	nop

00001270 <term_open>:
    1270:	55                   	push   %ebp
    1271:	31 c0                	xor    %eax,%eax
    1273:	89 e5                	mov    %esp,%ebp
    1275:	5d                   	pop    %ebp
    1276:	c3                   	ret    
    1277:	89 f6                	mov    %esi,%esi
    1279:	8d bc 27 00 00 00 00 	lea    0x0(%edi,%eiz,1),%edi

00001280 <term_close>:
    1280:	55                   	push   %ebp
    1281:	31 c0                	xor    %eax,%eax
    1283:	89 e5                	mov    %esp,%ebp
    1285:	5d                   	pop    %ebp
    1286:	c3                   	ret    
    1287:	89 f6                	mov    %esi,%esi
    1289:	8d bc 27 00 00 00 00 	lea    0x0(%edi,%eiz,1),%edi

00001290 <term_get_color_cap>:
    1290:	55                   	push   %ebp
    1291:	89 e5                	mov    %esp,%ebp
    1293:	8b 45 0c             	mov    0xc(%ebp),%eax
    1296:	c7 00 07 00 00 00    	movl   $0x7,(%eax)
    129c:	31 c0                	xor    %eax,%eax
    129e:	5d                   	pop    %ebp
    129f:	c3                   	ret    

000012a0 <terminal_reconfigure>:
    12a0:	55                   	push   %ebp
    12a1:	89 e5                	mov    %esp,%ebp
    12a3:	5d                   	pop    %ebp
    12a4:	c3                   	ret    
    12a5:	8d 74 26 00          	lea    0x0(%esi,%eiz,1),%esi
    12a9:	8d bc 27 00 00 00 00 	lea    0x0(%edi,%eiz,1),%edi

000012b0 <term_get_event>:
    12b0:	55                   	push   %ebp
    12b1:	89 e5                	mov    %esp,%ebp
    12b3:	57                   	push   %edi
    12b4:	56                   	push   %esi
    12b5:	8b 45 08             	mov    0x8(%ebp),%eax
    12b8:	83 ec 0c             	sub    $0xc,%esp
    12bb:	8b 00                	mov    (%eax),%eax
    12bd:	8b 40 04             	mov    0x4(%eax),%eax
    12c0:	83 c0 78             	add    $0x78,%eax
    12c3:	50                   	push   %eax
    12c4:	e8 47 6a 00 00       	call   7d10 <prodcons_consume@plt>
    12c9:	8b 7d 0c             	mov    0xc(%ebp),%edi
    12cc:	89 c6                	mov    %eax,%esi
    12ce:	b9 09 00 00 00       	mov    $0x9,%ecx
    12d3:	f3 a5                	rep movsl %ds:(%esi),%es:(%edi)
    12d5:	89 04 24             	mov    %eax,(%esp)
    12d8:	e8 c3 6b 00 00       	call   7ea0 <free@plt>
    12dd:	8d 65 f8             	lea    -0x8(%ebp),%esp
    12e0:	31 c0                	xor    %eax,%eax
    12e2:	5e                   	pop    %esi
    12e3:	5f                   	pop    %edi
    12e4:	5d                   	pop    %ebp
    12e5:	c3                   	ret    
    12e6:	8d 76 00             	lea    0x0(%esi),%esi
    12e9:	8d bc 27 00 00 00 00 	lea    0x0(%edi,%eiz,1),%edi

000012f0 <term_get_size>:
    12f0:	55                   	push   %ebp
    12f1:	89 e5                	mov    %esp,%ebp
    12f3:	56                   	push   %esi
    12f4:	53                   	push   %ebx
    12f5:	8b 45 08             	mov    0x8(%ebp),%eax
    12f8:	83 ec 0c             	sub    $0xc,%esp
    12fb:	8b 00                	mov    (%eax),%eax
    12fd:	8b 58 04             	mov    0x4(%eax),%ebx
    1300:	8d 73 5c             	lea    0x5c(%ebx),%esi
    1303:	56                   	push   %esi
    1304:	e8 a7 6b 00 00       	call   7eb0 <fibril_mutex_lock@plt>
    1309:	8b 45 0c             	mov    0xc(%ebp),%eax
    130c:	8b 93 a4 00 00 00    	mov    0xa4(%ebx),%edx
    1312:	89 10                	mov    %edx,(%eax)
    1314:	8b 45 10             	mov    0x10(%ebp),%eax
    1317:	8b 93 a8 00 00 00    	mov    0xa8(%ebx),%edx
    131d:	89 10                	mov    %edx,(%eax)
    131f:	89 34 24             	mov    %esi,(%esp)
    1322:	e8 59 69 00 00       	call   7c80 <fibril_mutex_unlock@plt>
    1327:	8d 65 f8             	lea    -0x8(%ebp),%esp
    132a:	31 c0                	xor    %eax,%eax
    132c:	5b                   	pop    %ebx
    132d:	5e                   	pop    %esi
    132e:	5d                   	pop    %ebp
    132f:	c3                   	ret    

00001330 <term_get_pos>:
    1330:	55                   	push   %ebp
    1331:	89 e5                	mov    %esp,%ebp
    1333:	56                   	push   %esi
    1334:	53                   	push   %ebx
    1335:	8b 45 08             	mov    0x8(%ebp),%eax
    1338:	83 ec 0c             	sub    $0xc,%esp
    133b:	8b 00                	mov    (%eax),%eax
    133d:	8b 70 04             	mov    0x4(%eax),%esi
    1340:	8d 5e 5c             	lea    0x5c(%esi),%ebx
    1343:	53                   	push   %ebx
    1344:	e8 67 6b 00 00       	call   7eb0 <fibril_mutex_lock@plt>
    1349:	83 c4 0c             	add    $0xc,%esp
    134c:	8b 45 10             	mov    0x10(%ebp),%eax
    134f:	8b 55 0c             	mov    0xc(%ebp),%edx
    1352:	8b 8e ac 00 00 00    	mov    0xac(%esi),%ecx
    1358:	50                   	push   %eax
    1359:	52                   	push   %edx
    135a:	51                   	push   %ecx
    135b:	e8 10 69 00 00       	call   7c70 <chargrid_get_cursor@plt>
    1360:	89 1c 24             	mov    %ebx,(%esp)
    1363:	e8 18 69 00 00       	call   7c80 <fibril_mutex_unlock@plt>
    1368:	8d 65 f8             	lea    -0x8(%ebp),%esp
    136b:	31 c0                	xor    %eax,%eax
    136d:	5b                   	pop    %ebx
    136e:	5e                   	pop    %esi
    136f:	5d                   	pop    %ebp
    1370:	c3                   	ret    
    1371:	eb 0d                	jmp    1380 <term_set_rgb_color>
    1373:	90                   	nop
    1374:	90                   	nop
    1375:	90                   	nop
    1376:	90                   	nop
    1377:	90                   	nop
    1378:	90                   	nop
    1379:	90                   	nop
    137a:	90                   	nop
    137b:	90                   	nop
    137c:	90                   	nop
    137d:	90                   	nop
    137e:	90                   	nop
    137f:	90                   	nop

00001380 <term_set_rgb_color>:
    1380:	55                   	push   %ebp
    1381:	89 e5                	mov    %esp,%ebp
    1383:	57                   	push   %edi
    1384:	56                   	push   %esi
    1385:	53                   	push   %ebx
    1386:	83 ec 28             	sub    $0x28,%esp
    1389:	8b 55 08             	mov    0x8(%ebp),%edx
    138c:	8b 45 10             	mov    0x10(%ebp),%eax
    138f:	8b 7d 0c             	mov    0xc(%ebp),%edi
    1392:	89 45 e4             	mov    %eax,-0x1c(%ebp)
    1395:	8b 12                	mov    (%edx),%edx
    1397:	8b 72 04             	mov    0x4(%edx),%esi
    139a:	8d 5e 5c             	lea    0x5c(%esi),%ebx
    139d:	53                   	push   %ebx
    139e:	e8 0d 6b 00 00       	call   7eb0 <fibril_mutex_lock@plt>
    13a3:	83 c4 0c             	add    $0xc,%esp
    13a6:	8b 45 e4             	mov    -0x1c(%ebp),%eax
    13a9:	50                   	push   %eax
    13aa:	57                   	push   %edi
    13ab:	8b 86 ac 00 00 00    	mov    0xac(%esi),%eax
    13b1:	50                   	push   %eax
    13b2:	e8 a9 6a 00 00       	call   7e60 <chargrid_set_rgb_color@plt>
    13b7:	89 5d 08             	mov    %ebx,0x8(%ebp)
    13ba:	83 c4 10             	add    $0x10,%esp
    13bd:	8d 65 f4             	lea    -0xc(%ebp),%esp
    13c0:	5b                   	pop    %ebx
    13c1:	5e                   	pop    %esi
    13c2:	5f                   	pop    %edi
    13c3:	5d                   	pop    %ebp
    13c4:	e9 b7 68 00 00       	jmp    7c80 <fibril_mutex_unlock@plt>
    13c9:	8d b4 26 00 00 00 00 	lea    0x0(%esi,%eiz,1),%esi

000013d0 <term_set_color>:
    13d0:	55                   	push   %ebp
    13d1:	89 e5                	mov    %esp,%ebp
    13d3:	57                   	push   %edi
    13d4:	56                   	push   %esi
    13d5:	53                   	push   %ebx
    13d6:	83 ec 28             	sub    $0x28,%esp
    13d9:	8b 4d 08             	mov    0x8(%ebp),%ecx
    13dc:	8b 45 10             	mov    0x10(%ebp),%eax
    13df:	8b 55 14             	mov    0x14(%ebp),%edx
    13e2:	8b 7d 0c             	mov    0xc(%ebp),%edi
    13e5:	8b 09                	mov    (%ecx),%ecx
    13e7:	89 45 e0             	mov    %eax,-0x20(%ebp)
    13ea:	89 55 e4             	mov    %edx,-0x1c(%ebp)
    13ed:	8b 71 04             	mov    0x4(%ecx),%esi
    13f0:	8d 5e 5c             	lea    0x5c(%esi),%ebx
    13f3:	53                   	push   %ebx
    13f4:	e8 b7 6a 00 00       	call   7eb0 <fibril_mutex_lock@plt>
    13f9:	8b 45 e0             	mov    -0x20(%ebp),%eax
    13fc:	8b 55 e4             	mov    -0x1c(%ebp),%edx
    13ff:	52                   	push   %edx
    1400:	50                   	push   %eax
    1401:	57                   	push   %edi
    1402:	8b 86 ac 00 00 00    	mov    0xac(%esi),%eax
    1408:	50                   	push   %eax
    1409:	e8 a2 68 00 00       	call   7cb0 <chargrid_set_color@plt>
    140e:	89 5d 08             	mov    %ebx,0x8(%ebp)
    1411:	83 c4 20             	add    $0x20,%esp
    1414:	8d 65 f4             	lea    -0xc(%ebp),%esp
    1417:	5b                   	pop    %ebx
    1418:	5e                   	pop    %esi
    1419:	5f                   	pop    %edi
    141a:	5d                   	pop    %ebp
    141b:	e9 60 68 00 00       	jmp    7c80 <fibril_mutex_unlock@plt>

00001420 <term_set_style>:
    1420:	55                   	push   %ebp
    1421:	89 e5                	mov    %esp,%ebp
    1423:	57                   	push   %edi
    1424:	56                   	push   %esi
    1425:	53                   	push   %ebx
    1426:	83 ec 18             	sub    $0x18,%esp
    1429:	8b 45 08             	mov    0x8(%ebp),%eax
    142c:	8b 7d 0c             	mov    0xc(%ebp),%edi
    142f:	8b 00                	mov    (%eax),%eax
    1431:	8b 70 04             	mov    0x4(%eax),%esi
    1434:	8d 5e 5c             	lea    0x5c(%esi),%ebx
    1437:	53                   	push   %ebx
    1438:	e8 73 6a 00 00       	call   7eb0 <fibril_mutex_lock@plt>
    143d:	58                   	pop    %eax
    143e:	5a                   	pop    %edx
    143f:	57                   	push   %edi
    1440:	8b 8e ac 00 00 00    	mov    0xac(%esi),%ecx
    1446:	51                   	push   %ecx
    1447:	e8 f4 66 00 00       	call   7b40 <chargrid_set_style@plt>
    144c:	89 5d 08             	mov    %ebx,0x8(%ebp)
    144f:	83 c4 10             	add    $0x10,%esp
    1452:	8d 65 f4             	lea    -0xc(%ebp),%esp
    1455:	5b                   	pop    %ebx
    1456:	5e                   	pop    %esi
    1457:	5f                   	pop    %edi
    1458:	5d                   	pop    %ebp
    1459:	e9 22 68 00 00       	jmp    7c80 <fibril_mutex_unlock@plt>
    145e:	66 90                	xchg   %ax,%ax

00001460 <term_read>:
    1460:	55                   	push   %ebp
    1461:	89 e5                	mov    %esp,%ebp
    1463:	57                   	push   %edi
    1464:	56                   	push   %esi
    1465:	53                   	push   %ebx
    1466:	83 ec 2c             	sub    $0x2c,%esp
    1469:	8b 45 08             	mov    0x8(%ebp),%eax
    146c:	8b 7d 10             	mov    0x10(%ebp),%edi
    146f:	85 ff                	test   %edi,%edi
    1471:	8b 00                	mov    (%eax),%eax
    1473:	8b 58 04             	mov    0x4(%eax),%ebx
    1476:	0f 84 87 00 00 00    	je     1503 <term_read+0xa3>
    147c:	8d 43 78             	lea    0x78(%ebx),%eax
    147f:	31 f6                	xor    %esi,%esi
    1481:	89 45 d4             	mov    %eax,-0x2c(%ebp)
    1484:	8d 83 98 00 00 00    	lea    0x98(%ebx),%eax
    148a:	89 45 d0             	mov    %eax,-0x30(%ebp)
    148d:	39 f7                	cmp    %esi,%edi
    148f:	76 72                	jbe    1503 <term_read+0xa3>
    1491:	8b 8b a0 00 00 00    	mov    0xa0(%ebx),%ecx
    1497:	8b 55 0c             	mov    0xc(%ebp),%edx
    149a:	85 c9                	test   %ecx,%ecx
    149c:	75 06                	jne    14a4 <term_read+0x44>
    149e:	eb 70                	jmp    1510 <term_read+0xb0>
    14a0:	85 c0                	test   %eax,%eax
    14a2:	74 6c                	je     1510 <term_read+0xb0>
    14a4:	8a 83 98 00 00 00    	mov    0x98(%ebx),%al
    14aa:	88 04 32             	mov    %al,(%edx,%esi,1)
    14ad:	46                   	inc    %esi
    14ae:	8b 83 a0 00 00 00    	mov    0xa0(%ebx),%eax
    14b4:	83 f8 01             	cmp    $0x1,%eax
    14b7:	76 3f                	jbe    14f8 <term_read+0x98>
    14b9:	8a 8b 99 00 00 00    	mov    0x99(%ebx),%cl
    14bf:	83 f8 02             	cmp    $0x2,%eax
    14c2:	88 8b 98 00 00 00    	mov    %cl,0x98(%ebx)
    14c8:	74 2e                	je     14f8 <term_read+0x98>
    14ca:	8a 8b 9a 00 00 00    	mov    0x9a(%ebx),%cl
    14d0:	83 f8 03             	cmp    $0x3,%eax
    14d3:	88 8b 99 00 00 00    	mov    %cl,0x99(%ebx)
    14d9:	74 1d                	je     14f8 <term_read+0x98>
    14db:	8a 8b 9b 00 00 00    	mov    0x9b(%ebx),%cl
    14e1:	83 f8 04             	cmp    $0x4,%eax
    14e4:	88 8b 9a 00 00 00    	mov    %cl,0x9a(%ebx)
    14ea:	74 0c                	je     14f8 <term_read+0x98>
    14ec:	8a 8b 9c 00 00 00    	mov    0x9c(%ebx),%cl
    14f2:	88 8b 9b 00 00 00    	mov    %cl,0x9b(%ebx)
    14f8:	48                   	dec    %eax
    14f9:	39 f7                	cmp    %esi,%edi
    14fb:	89 83 a0 00 00 00    	mov    %eax,0xa0(%ebx)
    1501:	75 9d                	jne    14a0 <term_read+0x40>
    1503:	8d 65 f4             	lea    -0xc(%ebp),%esp
    1506:	89 f8                	mov    %edi,%eax
    1508:	5b                   	pop    %ebx
    1509:	5e                   	pop    %esi
    150a:	5f                   	pop    %edi
    150b:	5d                   	pop    %ebp
    150c:	c3                   	ret    
    150d:	8d 76 00             	lea    0x0(%esi),%esi
    1510:	83 ec 0c             	sub    $0xc,%esp
    1513:	8b 45 d4             	mov    -0x2c(%ebp),%eax
    1516:	50                   	push   %eax
    1517:	e8 f4 67 00 00       	call   7d10 <prodcons_consume@plt>
    151c:	83 c4 10             	add    $0x10,%esp
    151f:	89 c1                	mov    %eax,%ecx
    1521:	8b 50 08             	mov    0x8(%eax),%edx
    1524:	85 d2                	test   %edx,%edx
    1526:	75 10                	jne    1538 <term_read+0xd8>
    1528:	8b 41 14             	mov    0x14(%ecx),%eax
    152b:	85 c0                	test   %eax,%eax
    152d:	75 09                	jne    1538 <term_read+0xd8>
    152f:	8b 41 20             	mov    0x20(%ecx),%eax
    1532:	85 c0                	test   %eax,%eax
    1534:	75 13                	jne    1549 <term_read+0xe9>
    1536:	66 90                	xchg   %ax,%ax
    1538:	83 ec 0c             	sub    $0xc,%esp
    153b:	51                   	push   %ecx
    153c:	e8 5f 69 00 00       	call   7ea0 <free@plt>
    1541:	83 c4 10             	add    $0x10,%esp
    1544:	e9 44 ff ff ff       	jmp    148d <term_read+0x2d>
    1549:	89 45 e0             	mov    %eax,-0x20(%ebp)
    154c:	50                   	push   %eax
    154d:	8d 45 e0             	lea    -0x20(%ebp),%eax
    1550:	89 4d cc             	mov    %ecx,-0x34(%ebp)
    1553:	50                   	push   %eax
    1554:	8b 45 d0             	mov    -0x30(%ebp),%eax
    1557:	6a 05                	push   $0x5
    1559:	c7 45 e4 00 00 00 00 	movl   $0x0,-0x1c(%ebp)
    1560:	50                   	push   %eax
    1561:	e8 fa 66 00 00       	call   7c60 <wstr_to_str@plt>
    1566:	58                   	pop    %eax
    1567:	8b 45 d0             	mov    -0x30(%ebp),%eax
    156a:	50                   	push   %eax
    156b:	e8 30 68 00 00       	call   7da0 <str_size@plt>
    1570:	83 c4 10             	add    $0x10,%esp
    1573:	89 83 a0 00 00 00    	mov    %eax,0xa0(%ebx)
    1579:	8b 4d cc             	mov    -0x34(%ebp),%ecx
    157c:	eb ba                	jmp    1538 <term_read+0xd8>
    157e:	66 90                	xchg   %ax,%ax

00001580 <term_connection>:
    1580:	55                   	push   %ebp
    1581:	89 e5                	mov    %esp,%ebp
    1583:	57                   	push   %edi
    1584:	56                   	push   %esi
    1585:	53                   	push   %ebx
    1586:	83 ec 0c             	sub    $0xc,%esp
    1589:	a1 40 9a 00 00       	mov    0x9a40,%eax
    158e:	8b 7d 08             	mov    0x8(%ebp),%edi
    1591:	8b 75 0c             	mov    0xc(%ebp),%esi
    1594:	3d 3c 9a 00 00       	cmp    $0x9a3c,%eax
    1599:	74 2a                	je     15c5 <term_connection+0x45>
    159b:	8d 58 94             	lea    -0x6c(%eax),%ebx
    159e:	8b 56 08             	mov    0x8(%esi),%edx
    15a1:	3b 93 b8 00 00 00    	cmp    0xb8(%ebx),%edx
    15a7:	75 0f                	jne    15b8 <term_connection+0x38>
    15a9:	eb 35                	jmp    15e0 <term_connection+0x60>
    15ab:	90                   	nop
    15ac:	8d 74 26 00          	lea    0x0(%esi,%eiz,1),%esi
    15b0:	39 93 b8 00 00 00    	cmp    %edx,0xb8(%ebx)
    15b6:	74 28                	je     15e0 <term_connection+0x60>
    15b8:	8b 40 04             	mov    0x4(%eax),%eax
    15bb:	3d 3c 9a 00 00       	cmp    $0x9a3c,%eax
    15c0:	8d 58 94             	lea    -0x6c(%eax),%ebx
    15c3:	75 eb                	jne    15b0 <term_connection+0x30>
    15c5:	89 7d 08             	mov    %edi,0x8(%ebp)
    15c8:	c7 45 0c ff ff ff ff 	movl   $0xffffffff,0xc(%ebp)
    15cf:	8d 65 f4             	lea    -0xc(%ebp),%esp
    15d2:	5b                   	pop    %ebx
    15d3:	5e                   	pop    %esi
    15d4:	5f                   	pop    %edi
    15d5:	5d                   	pop    %ebp
    15d6:	e9 25 66 00 00       	jmp    7c00 <async_answer_0@plt>
    15db:	90                   	nop
    15dc:	8d 74 26 00          	lea    0x0(%esi,%eiz,1),%esi
    15e0:	b8 01 00 00 00       	mov    $0x1,%eax
    15e5:	f0 0f c1 43 74       	lock xadd %eax,0x74(%ebx)
    15ea:	85 c0                	test   %eax,%eax
    15ec:	74 1b                	je     1609 <term_connection+0x89>
    15ee:	81 c3 bc 00 00 00    	add    $0xbc,%ebx
    15f4:	89 75 0c             	mov    %esi,0xc(%ebp)
    15f7:	89 5d 10             	mov    %ebx,0x10(%ebp)
    15fa:	89 7d 08             	mov    %edi,0x8(%ebp)
    15fd:	8d 65 f4             	lea    -0xc(%ebp),%esp
    1600:	5b                   	pop    %ebx
    1601:	5e                   	pop    %esi
    1602:	5f                   	pop    %edi
    1603:	5d                   	pop    %ebp
    1604:	e9 37 66 00 00       	jmp    7c40 <con_conn@plt>
    1609:	50                   	push   %eax
    160a:	50                   	push   %eax
    160b:	6a 01                	push   $0x1
    160d:	8b 93 ac 00 00 00    	mov    0xac(%ebx),%edx
    1613:	52                   	push   %edx
    1614:	e8 37 66 00 00       	call   7c50 <chargrid_set_cursor_visibility@plt>
    1619:	83 c4 10             	add    $0x10,%esp
    161c:	eb d0                	jmp    15ee <term_connection+0x6e>
    161e:	66 90                	xchg   %ax,%ax

00001620 <terminal_handle_position_event>:
    1620:	55                   	push   %ebp
    1621:	89 e5                	mov    %esp,%ebp
    1623:	57                   	push   %edi
    1624:	56                   	push   %esi
    1625:	53                   	push   %ebx
    1626:	83 ec 1c             	sub    $0x1c,%esp
    1629:	8b 75 08             	mov    0x8(%ebp),%esi
    162c:	83 7d 10 01          	cmpl   $0x1,0x10(%ebp)
    1630:	74 0e                	je     1640 <terminal_handle_position_event+0x20>
    1632:	8d 65 f4             	lea    -0xc(%ebp),%esp
    1635:	5b                   	pop    %ebx
    1636:	5e                   	pop    %esi
    1637:	5f                   	pop    %edi
    1638:	5d                   	pop    %ebp
    1639:	c3                   	ret    
    163a:	8d b6 00 00 00 00    	lea    0x0(%esi),%esi
    1640:	8b 45 14             	mov    0x14(%ebp),%eax
    1643:	8b 5d 18             	mov    0x18(%ebp),%ebx
    1646:	89 45 e4             	mov    %eax,-0x1c(%ebp)
    1649:	8b 46 1c             	mov    0x1c(%esi),%eax
    164c:	29 c3                	sub    %eax,%ebx
    164e:	8b 56 20             	mov    0x20(%esi),%edx
    1651:	8b 45 1c             	mov    0x1c(%ebp),%eax
    1654:	83 ec 0c             	sub    $0xc,%esp
    1657:	29 d0                	sub    %edx,%eax
    1659:	8b 7d 0c             	mov    0xc(%ebp),%edi
    165c:	c1 e8 04             	shr    $0x4,%eax
    165f:	6a 24                	push   $0x24
    1661:	c1 eb 03             	shr    $0x3,%ebx
    1664:	89 45 e0             	mov    %eax,-0x20(%ebp)
    1667:	e8 44 65 00 00       	call   7bb0 <malloc@plt>
    166c:	83 c4 10             	add    $0x10,%esp
    166f:	85 c0                	test   %eax,%eax
    1671:	74 bf                	je     1632 <terminal_handle_position_event+0x12>
    1673:	8b 55 e4             	mov    -0x1c(%ebp),%edx
    1676:	8b 4d e0             	mov    -0x20(%ebp),%ecx
    1679:	89 50 14             	mov    %edx,0x14(%eax)
    167c:	8d 56 78             	lea    0x78(%esi),%edx
    167f:	c7 40 08 01 00 00 00 	movl   $0x1,0x8(%eax)
    1686:	89 78 0c             	mov    %edi,0xc(%eax)
    1689:	c7 40 10 01 00 00 00 	movl   $0x1,0x10(%eax)
    1690:	89 58 18             	mov    %ebx,0x18(%eax)
    1693:	89 48 1c             	mov    %ecx,0x1c(%eax)
    1696:	c7 00 00 00 00 00    	movl   $0x0,(%eax)
    169c:	c7 40 04 00 00 00 00 	movl   $0x0,0x4(%eax)
    16a3:	89 45 0c             	mov    %eax,0xc(%ebp)
    16a6:	89 55 08             	mov    %edx,0x8(%ebp)
    16a9:	8d 65 f4             	lea    -0xc(%ebp),%esp
    16ac:	5b                   	pop    %ebx
    16ad:	5e                   	pop    %esi
    16ae:	5f                   	pop    %edi
    16af:	5d                   	pop    %ebp
    16b0:	e9 1b 67 00 00       	jmp    7dd0 <prodcons_produce@plt>
    16b5:	8d 74 26 00          	lea    0x0(%esi,%eiz,1),%esi
    16b9:	8d bc 27 00 00 00 00 	lea    0x0(%edi,%eiz,1),%edi

000016c0 <terminal_handle_keyboard_event>:
    16c0:	55                   	push   %ebp
    16c1:	b9 06 00 00 00       	mov    $0x6,%ecx
    16c6:	89 e5                	mov    %esp,%ebp
    16c8:	57                   	push   %edi
    16c9:	56                   	push   %esi
    16ca:	53                   	push   %ebx
    16cb:	83 ec 48             	sub    $0x48,%esp
    16ce:	8d 7d d0             	lea    -0x30(%ebp),%edi
    16d1:	8d 75 0c             	lea    0xc(%ebp),%esi
    16d4:	8b 5d 08             	mov    0x8(%ebp),%ebx
    16d7:	f3 a5                	rep movsl %ds:(%esi),%es:(%edi)
    16d9:	6a 24                	push   $0x24
    16db:	e8 d0 64 00 00       	call   7bb0 <malloc@plt>
    16e0:	83 c4 10             	add    $0x10,%esp
    16e3:	85 c0                	test   %eax,%eax
    16e5:	74 39                	je     1720 <terminal_handle_keyboard_event+0x60>
    16e7:	c7 45 cc 00 00 00 00 	movl   $0x0,-0x34(%ebp)
    16ee:	8d 75 c4             	lea    -0x3c(%ebp),%esi
    16f1:	b9 09 00 00 00       	mov    $0x9,%ecx
    16f6:	89 c7                	mov    %eax,%edi
    16f8:	f3 a5                	rep movsl %ds:(%esi),%es:(%edi)
    16fa:	83 c3 78             	add    $0x78,%ebx
    16fd:	c7 00 00 00 00 00    	movl   $0x0,(%eax)
    1703:	c7 40 04 00 00 00 00 	movl   $0x0,0x4(%eax)
    170a:	89 5d 08             	mov    %ebx,0x8(%ebp)
    170d:	89 45 0c             	mov    %eax,0xc(%ebp)
    1710:	8d 65 f4             	lea    -0xc(%ebp),%esp
    1713:	5b                   	pop    %ebx
    1714:	5e                   	pop    %esi
    1715:	5f                   	pop    %edi
    1716:	5d                   	pop    %ebp
    1717:	e9 b4 66 00 00       	jmp    7dd0 <prodcons_produce@plt>
    171c:	8d 74 26 00          	lea    0x0(%esi,%eiz,1),%esi
    1720:	8d 65 f4             	lea    -0xc(%ebp),%esp
    1723:	5b                   	pop    %ebx
    1724:	5e                   	pop    %esi
    1725:	5f                   	pop    %edi
    1726:	5d                   	pop    %ebp
    1727:	c3                   	ret    
    1728:	90                   	nop
    1729:	8d b4 26 00 00 00 00 	lea    0x0(%esi,%eiz,1),%esi

00001730 <terminal_destroy>:
    1730:	55                   	push   %ebp
    1731:	89 e5                	mov    %esp,%ebp
    1733:	53                   	push   %ebx
    1734:	50                   	push   %eax
    1735:	8b 5d 08             	mov    0x8(%ebp),%ebx
    1738:	8b 53 6c             	mov    0x6c(%ebx),%edx
    173b:	85 d2                	test   %edx,%edx
    173d:	74 0f                	je     174e <terminal_destroy+0x1e>
    173f:	8b 43 70             	mov    0x70(%ebx),%eax
    1742:	85 c0                	test   %eax,%eax
    1744:	74 08                	je     174e <terminal_destroy+0x1e>
    1746:	89 10                	mov    %edx,(%eax)
    1748:	8b 53 6c             	mov    0x6c(%ebx),%edx
    174b:	89 42 04             	mov    %eax,0x4(%edx)
    174e:	83 ec 0c             	sub    $0xc,%esp
    1751:	c7 43 6c 00 00 00 00 	movl   $0x0,0x6c(%ebx)
    1758:	c7 43 70 00 00 00 00 	movl   $0x0,0x70(%ebx)
    175f:	53                   	push   %ebx
    1760:	e8 6b 13 00 00       	call   2ad0 <widget_deinit>
    1765:	8b 83 ac 00 00 00    	mov    0xac(%ebx),%eax
    176b:	83 c4 10             	add    $0x10,%esp
    176e:	85 c0                	test   %eax,%eax
    1770:	74 0c                	je     177e <terminal_destroy+0x4e>
    1772:	83 ec 0c             	sub    $0xc,%esp
    1775:	50                   	push   %eax
    1776:	e8 35 66 00 00       	call   7db0 <chargrid_destroy@plt>
    177b:	83 c4 10             	add    $0x10,%esp
    177e:	8b 83 b0 00 00 00    	mov    0xb0(%ebx),%eax
    1784:	85 c0                	test   %eax,%eax
    1786:	74 0c                	je     1794 <terminal_destroy+0x64>
    1788:	83 ec 0c             	sub    $0xc,%esp
    178b:	50                   	push   %eax
    178c:	e8 1f 66 00 00       	call   7db0 <chargrid_destroy@plt>
    1791:	83 c4 10             	add    $0x10,%esp
    1794:	89 5d 08             	mov    %ebx,0x8(%ebp)
    1797:	8b 5d fc             	mov    -0x4(%ebp),%ebx
    179a:	c9                   	leave  
    179b:	e9 00 67 00 00       	jmp    7ea0 <free@plt>

000017a0 <term_update_char>:
    17a0:	55                   	push   %ebp
    17a1:	89 e5                	mov    %esp,%ebp
    17a3:	57                   	push   %edi
    17a4:	56                   	push   %esi
    17a5:	53                   	push   %ebx
    17a6:	83 ec 30             	sub    $0x30,%esp
    17a9:	89 55 e4             	mov    %edx,-0x1c(%ebp)
    17ac:	8b 98 b0 00 00 00    	mov    0xb0(%eax),%ebx
    17b2:	8b 75 10             	mov    0x10(%ebp),%esi
    17b5:	31 d2                	xor    %edx,%edx
    17b7:	8b 7d 0c             	mov    0xc(%ebp),%edi
    17ba:	8b 43 2c             	mov    0x2c(%ebx),%eax
    17bd:	89 4d dc             	mov    %ecx,-0x24(%ebp)
    17c0:	01 f0                	add    %esi,%eax
    17c2:	f7 73 0c             	divl   0xc(%ebx)
    17c5:	8b 43 08             	mov    0x8(%ebx),%eax
    17c8:	56                   	push   %esi
    17c9:	0f af d0             	imul   %eax,%edx
    17cc:	c1 e6 04             	shl    $0x4,%esi
    17cf:	57                   	push   %edi
    17d0:	8d 04 3a             	lea    (%edx,%edi,1),%eax
    17d3:	53                   	push   %ebx
    17d4:	8d 04 40             	lea    (%eax,%eax,2),%eax
    17d7:	8d 54 c3 30          	lea    0x30(%ebx,%eax,8),%edx
    17db:	89 55 e0             	mov    %edx,-0x20(%ebp)
    17de:	e8 7d 65 00 00       	call   7d60 <chargrid_cursor_at@plt>
    17e3:	8b 4d dc             	mov    -0x24(%ebp),%ecx
    17e6:	8b 55 08             	mov    0x8(%ebp),%edx
    17e9:	01 d6                	add    %edx,%esi
    17eb:	83 c4 10             	add    $0x10,%esp
    17ee:	8d 3c f9             	lea    (%ecx,%edi,8),%edi
    17f1:	89 75 c8             	mov    %esi,-0x38(%ebp)
    17f4:	89 7d dc             	mov    %edi,-0x24(%ebp)
    17f7:	84 c0                	test   %al,%al
    17f9:	8b 55 e0             	mov    -0x20(%ebp),%edx
    17fc:	0f 84 6e 01 00 00    	je     1970 <term_update_char+0x1d0>
    1802:	8b 4a 04             	mov    0x4(%edx),%ecx
    1805:	8b 42 08             	mov    0x8(%edx),%eax
    1808:	8b 7a 0c             	mov    0xc(%edx),%edi
    180b:	83 f9 01             	cmp    $0x1,%ecx
    180e:	0f 84 a0 01 00 00    	je     19b4 <term_update_char+0x214>
    1814:	0f 82 e8 01 00 00    	jb     1a02 <term_update_char+0x262>
    181a:	83 f9 02             	cmp    $0x2,%ecx
    181d:	0f 84 7e 01 00 00    	je     19a1 <term_update_char+0x201>
    1823:	c7 45 e0 00 00 00 00 	movl   $0x0,-0x20(%ebp)
    182a:	31 ff                	xor    %edi,%edi
    182c:	53                   	push   %ebx
    182d:	53                   	push   %ebx
    182e:	6a 00                	push   $0x0
    1830:	8b 32                	mov    (%edx),%esi
    1832:	56                   	push   %esi
    1833:	e8 08 35 00 00       	call   4d40 <fb_font_glyph>
    1838:	8b 75 dc             	mov    -0x24(%ebp),%esi
    183b:	83 c4 10             	add    $0x10,%esp
    183e:	83 c6 07             	add    $0x7,%esi
    1841:	89 75 d4             	mov    %esi,-0x2c(%ebp)
    1844:	31 f6                	xor    %esi,%esi
    1846:	66 89 c6             	mov    %ax,%si
    1849:	89 f2                	mov    %esi,%edx
    184b:	c1 e2 04             	shl    $0x4,%edx
    184e:	89 d0                	mov    %edx,%eax
    1850:	05 90 9a 00 00       	add    $0x9a90,%eax
    1855:	8d 9a 80 9a 00 00    	lea    0x9a80(%edx),%ebx
    185b:	89 45 d0             	mov    %eax,-0x30(%ebp)
    185e:	8b 45 c8             	mov    -0x38(%ebp),%eax
    1861:	29 d0                	sub    %edx,%eax
    1863:	2d 80 9a 00 00       	sub    $0x9a80,%eax
    1868:	89 45 cc             	mov    %eax,-0x34(%ebp)
    186b:	90                   	nop
    186c:	8d 74 26 00          	lea    0x0(%esi,%eiz,1),%esi
    1870:	83 ec 0c             	sub    $0xc,%esp
    1873:	8b 45 cc             	mov    -0x34(%ebp),%eax
    1876:	8b 4d e4             	mov    -0x1c(%ebp),%ecx
    1879:	51                   	push   %ecx
    187a:	8d 34 18             	lea    (%eax,%ebx,1),%esi
    187d:	e8 be 49 00 00       	call   6240 <surface_pixmap_access>
    1882:	83 c4 10             	add    $0x10,%esp
    1885:	31 d2                	xor    %edx,%edx
    1887:	8b 08                	mov    (%eax),%ecx
    1889:	39 4d dc             	cmp    %ecx,-0x24(%ebp)
    188c:	73 13                	jae    18a1 <term_update_char+0x101>
    188e:	39 70 04             	cmp    %esi,0x4(%eax)
    1891:	76 0e                	jbe    18a1 <term_update_char+0x101>
    1893:	0f af ce             	imul   %esi,%ecx
    1896:	8b 55 dc             	mov    -0x24(%ebp),%edx
    1899:	8b 40 08             	mov    0x8(%eax),%eax
    189c:	01 d1                	add    %edx,%ecx
    189e:	8d 14 88             	lea    (%eax,%ecx,4),%edx
    18a1:	83 ec 0c             	sub    $0xc,%esp
    18a4:	8b 45 e4             	mov    -0x1c(%ebp),%eax
    18a7:	89 55 d8             	mov    %edx,-0x28(%ebp)
    18aa:	50                   	push   %eax
    18ab:	e8 90 49 00 00       	call   6240 <surface_pixmap_access>
    18b0:	8b 55 d4             	mov    -0x2c(%ebp),%edx
    18b3:	83 c4 10             	add    $0x10,%esp
    18b6:	8b 08                	mov    (%eax),%ecx
    18b8:	39 d1                	cmp    %edx,%ecx
    18ba:	0f 86 83 00 00 00    	jbe    1943 <term_update_char+0x1a3>
    18c0:	39 70 04             	cmp    %esi,0x4(%eax)
    18c3:	76 7e                	jbe    1943 <term_update_char+0x1a3>
    18c5:	0f af f1             	imul   %ecx,%esi
    18c8:	8b 40 08             	mov    0x8(%eax),%eax
    18cb:	8d 0c 16             	lea    (%esi,%edx,1),%ecx
    18ce:	8d 04 88             	lea    (%eax,%ecx,4),%eax
    18d1:	85 c0                	test   %eax,%eax
    18d3:	74 6e                	je     1943 <term_update_char+0x1a3>
    18d5:	8b 55 d8             	mov    -0x28(%ebp),%edx
    18d8:	85 d2                	test   %edx,%edx
    18da:	74 67                	je     1943 <term_update_char+0x1a3>
    18dc:	89 f8                	mov    %edi,%eax
    18de:	80 3b 00             	cmpb   $0x0,(%ebx)
    18e1:	79 03                	jns    18e6 <term_update_char+0x146>
    18e3:	8b 45 e0             	mov    -0x20(%ebp),%eax
    18e6:	89 02                	mov    %eax,(%edx)
    18e8:	89 f8                	mov    %edi,%eax
    18ea:	f6 03 40             	testb  $0x40,(%ebx)
    18ed:	74 03                	je     18f2 <term_update_char+0x152>
    18ef:	8b 45 e0             	mov    -0x20(%ebp),%eax
    18f2:	89 42 04             	mov    %eax,0x4(%edx)
    18f5:	89 f8                	mov    %edi,%eax
    18f7:	f6 03 20             	testb  $0x20,(%ebx)
    18fa:	74 03                	je     18ff <term_update_char+0x15f>
    18fc:	8b 45 e0             	mov    -0x20(%ebp),%eax
    18ff:	89 42 08             	mov    %eax,0x8(%edx)
    1902:	89 f8                	mov    %edi,%eax
    1904:	f6 03 10             	testb  $0x10,(%ebx)
    1907:	74 03                	je     190c <term_update_char+0x16c>
    1909:	8b 45 e0             	mov    -0x20(%ebp),%eax
    190c:	89 42 0c             	mov    %eax,0xc(%edx)
    190f:	89 f8                	mov    %edi,%eax
    1911:	f6 03 08             	testb  $0x8,(%ebx)
    1914:	74 03                	je     1919 <term_update_char+0x179>
    1916:	8b 45 e0             	mov    -0x20(%ebp),%eax
    1919:	89 42 10             	mov    %eax,0x10(%edx)
    191c:	89 f8                	mov    %edi,%eax
    191e:	f6 03 04             	testb  $0x4,(%ebx)
    1921:	74 03                	je     1926 <term_update_char+0x186>
    1923:	8b 45 e0             	mov    -0x20(%ebp),%eax
    1926:	89 42 14             	mov    %eax,0x14(%edx)
    1929:	89 f8                	mov    %edi,%eax
    192b:	f6 03 02             	testb  $0x2,(%ebx)
    192e:	74 03                	je     1933 <term_update_char+0x193>
    1930:	8b 45 e0             	mov    -0x20(%ebp),%eax
    1933:	89 42 18             	mov    %eax,0x18(%edx)
    1936:	89 f8                	mov    %edi,%eax
    1938:	f6 03 01             	testb  $0x1,(%ebx)
    193b:	74 03                	je     1940 <term_update_char+0x1a0>
    193d:	8b 45 e0             	mov    -0x20(%ebp),%eax
    1940:	89 42 1c             	mov    %eax,0x1c(%edx)
    1943:	43                   	inc    %ebx
    1944:	3b 5d d0             	cmp    -0x30(%ebp),%ebx
    1947:	0f 85 23 ff ff ff    	jne    1870 <term_update_char+0xd0>
    194d:	83 ec 0c             	sub    $0xc,%esp
    1950:	8b 45 c8             	mov    -0x38(%ebp),%eax
    1953:	8b 55 dc             	mov    -0x24(%ebp),%edx
    1956:	8b 4d e4             	mov    -0x1c(%ebp),%ecx
    1959:	6a 10                	push   $0x10
    195b:	6a 08                	push   $0x8
    195d:	50                   	push   %eax
    195e:	52                   	push   %edx
    195f:	51                   	push   %ecx
    1960:	e8 fb 49 00 00       	call   6360 <surface_add_damaged_region>
    1965:	83 c4 20             	add    $0x20,%esp
    1968:	8d 65 f4             	lea    -0xc(%ebp),%esp
    196b:	5b                   	pop    %ebx
    196c:	5e                   	pop    %esi
    196d:	5f                   	pop    %edi
    196e:	5d                   	pop    %ebp
    196f:	c3                   	ret    
    1970:	8b 42 04             	mov    0x4(%edx),%eax
    1973:	8b 7a 08             	mov    0x8(%edx),%edi
    1976:	8b 4a 0c             	mov    0xc(%edx),%ecx
    1979:	83 f8 01             	cmp    $0x1,%eax
    197c:	74 5c                	je     19da <term_update_char+0x23a>
    197e:	0f 82 ba 00 00 00    	jb     1a3e <term_update_char+0x29e>
    1984:	83 f8 02             	cmp    $0x2,%eax
    1987:	0f 85 96 fe ff ff    	jne    1823 <term_update_char+0x83>
    198d:	81 c9 00 00 00 ff    	or     $0xff000000,%ecx
    1993:	81 cf 00 00 00 ff    	or     $0xff000000,%edi
    1999:	89 4d e0             	mov    %ecx,-0x20(%ebp)
    199c:	e9 8b fe ff ff       	jmp    182c <term_update_char+0x8c>
    19a1:	0d 00 00 00 ff       	or     $0xff000000,%eax
    19a6:	81 cf 00 00 00 ff    	or     $0xff000000,%edi
    19ac:	89 45 e0             	mov    %eax,-0x20(%ebp)
    19af:	e9 78 fe ff ff       	jmp    182c <term_update_char+0x8c>
    19b4:	8b 4a 10             	mov    0x10(%edx),%ecx
    19b7:	83 e0 07             	and    $0x7,%eax
    19ba:	83 e1 08             	and    $0x8,%ecx
    19bd:	83 e7 07             	and    $0x7,%edi
    19c0:	09 c8                	or     %ecx,%eax
    19c2:	09 f9                	or     %edi,%ecx
    19c4:	8b 04 85 c0 77 00 00 	mov    0x77c0(,%eax,4),%eax
    19cb:	8b 3c 8d c0 77 00 00 	mov    0x77c0(,%ecx,4),%edi
    19d2:	89 45 e0             	mov    %eax,-0x20(%ebp)
    19d5:	e9 52 fe ff ff       	jmp    182c <term_update_char+0x8c>
    19da:	83 e7 07             	and    $0x7,%edi
    19dd:	8b 5a 10             	mov    0x10(%edx),%ebx
    19e0:	83 e3 08             	and    $0x8,%ebx
    19e3:	89 f8                	mov    %edi,%eax
    19e5:	83 e1 07             	and    $0x7,%ecx
    19e8:	09 d8                	or     %ebx,%eax
    19ea:	09 cb                	or     %ecx,%ebx
    19ec:	8b 3c 85 c0 77 00 00 	mov    0x77c0(,%eax,4),%edi
    19f3:	8b 04 9d c0 77 00 00 	mov    0x77c0(,%ebx,4),%eax
    19fa:	89 45 e0             	mov    %eax,-0x20(%ebp)
    19fd:	e9 2a fe ff ff       	jmp    182c <term_update_char+0x8c>
    1a02:	83 f8 01             	cmp    $0x1,%eax
    1a05:	0f 84 8d 00 00 00    	je     1a98 <term_update_char+0x2f8>
    1a0b:	72 7a                	jb     1a87 <term_update_char+0x2e7>
    1a0d:	83 f8 02             	cmp    $0x2,%eax
    1a10:	74 64                	je     1a76 <term_update_char+0x2d6>
    1a12:	83 f8 03             	cmp    $0x3,%eax
    1a15:	0f 95 c0             	setne  %al
    1a18:	89 c6                	mov    %eax,%esi
    1a1a:	89 c7                	mov    %eax,%edi
    1a1c:	81 e6 ff 00 00 00    	and    $0xff,%esi
    1a22:	81 e7 ff 00 00 00    	and    $0xff,%edi
    1a28:	4e                   	dec    %esi
    1a29:	4f                   	dec    %edi
    1a2a:	81 e6 00 00 f0 ff    	and    $0xfff00000,%esi
    1a30:	81 e7 f0 f0 f0 ff    	and    $0xfff0f0f0,%edi
    1a36:	89 75 e0             	mov    %esi,-0x20(%ebp)
    1a39:	e9 ee fd ff ff       	jmp    182c <term_update_char+0x8c>
    1a3e:	83 ff 01             	cmp    $0x1,%edi
    1a41:	74 66                	je     1aa9 <term_update_char+0x309>
    1a43:	72 31                	jb     1a76 <term_update_char+0x2d6>
    1a45:	83 ff 02             	cmp    $0x2,%edi
    1a48:	74 3d                	je     1a87 <term_update_char+0x2e7>
    1a4a:	83 ff 03             	cmp    $0x3,%edi
    1a4d:	0f 95 c0             	setne  %al
    1a50:	89 c6                	mov    %eax,%esi
    1a52:	89 c7                	mov    %eax,%edi
    1a54:	81 e6 ff 00 00 00    	and    $0xff,%esi
    1a5a:	81 e7 ff 00 00 00    	and    $0xff,%edi
    1a60:	4e                   	dec    %esi
    1a61:	4f                   	dec    %edi
    1a62:	81 e6 f0 f0 f0 ff    	and    $0xfff0f0f0,%esi
    1a68:	81 e7 00 00 f0 ff    	and    $0xfff00000,%edi
    1a6e:	89 75 e0             	mov    %esi,-0x20(%ebp)
    1a71:	e9 b6 fd ff ff       	jmp    182c <term_update_char+0x8c>
    1a76:	c7 45 e0 00 00 00 ff 	movl   $0xff000000,-0x20(%ebp)
    1a7d:	bf f0 f0 f0 ff       	mov    $0xfff0f0f0,%edi
    1a82:	e9 a5 fd ff ff       	jmp    182c <term_update_char+0x8c>
    1a87:	c7 45 e0 f0 f0 f0 ff 	movl   $0xfff0f0f0,-0x20(%ebp)
    1a8e:	bf 00 00 00 ff       	mov    $0xff000000,%edi
    1a93:	e9 94 fd ff ff       	jmp    182c <term_update_char+0x8c>
    1a98:	c7 45 e0 f0 f0 f0 ff 	movl   $0xfff0f0f0,-0x20(%ebp)
    1a9f:	bf 00 00 f0 ff       	mov    $0xfff00000,%edi
    1aa4:	e9 83 fd ff ff       	jmp    182c <term_update_char+0x8c>
    1aa9:	c7 45 e0 00 00 f0 ff 	movl   $0xfff00000,-0x20(%ebp)
    1ab0:	bf f0 f0 f0 ff       	mov    $0xfff0f0f0,%edi
    1ab5:	e9 72 fd ff ff       	jmp    182c <term_update_char+0x8c>
    1aba:	8d b6 00 00 00 00    	lea    0x0(%esi),%esi

00001ac0 <term_update_scroll.part.1>:
    1ac0:	55                   	push   %ebp
    1ac1:	89 e5                	mov    %esp,%ebp
    1ac3:	57                   	push   %edi
    1ac4:	56                   	push   %esi
    1ac5:	53                   	push   %ebx
    1ac6:	83 ec 3c             	sub    $0x3c,%esp
    1ac9:	8b b0 a8 00 00 00    	mov    0xa8(%eax),%esi
    1acf:	85 f6                	test   %esi,%esi
    1ad1:	0f 84 85 01 00 00    	je     1c5c <term_update_scroll.part.1+0x19c>
    1ad7:	89 c7                	mov    %eax,%edi
    1ad9:	8b 80 a4 00 00 00    	mov    0xa4(%eax),%eax
    1adf:	89 45 dc             	mov    %eax,-0x24(%ebp)
    1ae2:	89 4d bc             	mov    %ecx,-0x44(%ebp)
    1ae5:	89 f0                	mov    %esi,%eax
    1ae7:	89 55 c0             	mov    %edx,-0x40(%ebp)
    1aea:	c7 45 e4 00 00 00 00 	movl   $0x0,-0x1c(%ebp)
    1af1:	89 fe                	mov    %edi,%esi
    1af3:	90                   	nop
    1af4:	8d 74 26 00          	lea    0x0(%esi,%eiz,1),%esi
    1af8:	8b 4d dc             	mov    -0x24(%ebp),%ecx
    1afb:	31 ff                	xor    %edi,%edi
    1afd:	85 c9                	test   %ecx,%ecx
    1aff:	0f 84 a5 01 00 00    	je     1caa <term_update_scroll.part.1+0x1ea>
    1b05:	89 75 e0             	mov    %esi,-0x20(%ebp)
    1b08:	e9 86 00 00 00       	jmp    1b93 <term_update_scroll.part.1+0xd3>
    1b0d:	8d 76 00             	lea    0x0(%esi),%esi
    1b10:	89 10                	mov    %edx,(%eax)
    1b12:	b3 01                	mov    $0x1,%bl
    1b14:	8b 51 04             	mov    0x4(%ecx),%edx
    1b17:	3b 50 04             	cmp    0x4(%eax),%edx
    1b1a:	0f 85 d0 00 00 00    	jne    1bf0 <term_update_scroll.part.1+0x130>
    1b20:	8b 71 08             	mov    0x8(%ecx),%esi
    1b23:	83 fa 01             	cmp    $0x1,%edx
    1b26:	89 75 d8             	mov    %esi,-0x28(%ebp)
    1b29:	8b 71 0c             	mov    0xc(%ecx),%esi
    1b2c:	89 75 d0             	mov    %esi,-0x30(%ebp)
    1b2f:	8b 71 10             	mov    0x10(%ecx),%esi
    1b32:	89 75 c8             	mov    %esi,-0x38(%ebp)
    1b35:	8b 70 08             	mov    0x8(%eax),%esi
    1b38:	89 75 d4             	mov    %esi,-0x2c(%ebp)
    1b3b:	8b 70 0c             	mov    0xc(%eax),%esi
    1b3e:	89 75 cc             	mov    %esi,-0x34(%ebp)
    1b41:	8b 70 10             	mov    0x10(%eax),%esi
    1b44:	89 75 c4             	mov    %esi,-0x3c(%ebp)
    1b47:	0f 84 2b 01 00 00    	je     1c78 <term_update_scroll.part.1+0x1b8>
    1b4d:	0f 82 15 01 00 00    	jb     1c68 <term_update_scroll.part.1+0x1a8>
    1b53:	83 fa 02             	cmp    $0x2,%edx
    1b56:	0f 85 94 00 00 00    	jne    1bf0 <term_update_scroll.part.1+0x130>
    1b5c:	8b 55 d4             	mov    -0x2c(%ebp),%edx
    1b5f:	39 55 d8             	cmp    %edx,-0x28(%ebp)
    1b62:	8b 55 cc             	mov    -0x34(%ebp),%edx
    1b65:	0f 94 45 d8          	sete   -0x28(%ebp)
    1b69:	39 55 d0             	cmp    %edx,-0x30(%ebp)
    1b6c:	8b 75 d8             	mov    -0x28(%ebp),%esi
    1b6f:	0f 94 c2             	sete   %dl
    1b72:	21 f2                	and    %esi,%edx
    1b74:	84 d2                	test   %dl,%dl
    1b76:	74 78                	je     1bf0 <term_update_scroll.part.1+0x130>
    1b78:	8b 41 14             	mov    0x14(%ecx),%eax
    1b7b:	83 e0 fe             	and    $0xfffffffe,%eax
    1b7e:	84 db                	test   %bl,%bl
    1b80:	89 41 14             	mov    %eax,0x14(%ecx)
    1b83:	0f 85 88 00 00 00    	jne    1c11 <term_update_scroll.part.1+0x151>
    1b89:	47                   	inc    %edi
    1b8a:	3b 7d dc             	cmp    -0x24(%ebp),%edi
    1b8d:	0f 83 ae 00 00 00    	jae    1c41 <term_update_scroll.part.1+0x181>
    1b93:	8b 5d e0             	mov    -0x20(%ebp),%ebx
    1b96:	8b 75 e4             	mov    -0x1c(%ebp),%esi
    1b99:	31 d2                	xor    %edx,%edx
    1b9b:	8b 8b ac 00 00 00    	mov    0xac(%ebx),%ecx
    1ba1:	8b 9b b0 00 00 00    	mov    0xb0(%ebx),%ebx
    1ba7:	8b 41 2c             	mov    0x2c(%ecx),%eax
    1baa:	01 f0                	add    %esi,%eax
    1bac:	f7 71 0c             	divl   0xc(%ecx)
    1baf:	8b 41 08             	mov    0x8(%ecx),%eax
    1bb2:	0f af d0             	imul   %eax,%edx
    1bb5:	01 fa                	add    %edi,%edx
    1bb7:	8d 04 52             	lea    (%edx,%edx,2),%eax
    1bba:	31 d2                	xor    %edx,%edx
    1bbc:	8d 4c c1 30          	lea    0x30(%ecx,%eax,8),%ecx
    1bc0:	8b 43 2c             	mov    0x2c(%ebx),%eax
    1bc3:	01 f0                	add    %esi,%eax
    1bc5:	f7 73 0c             	divl   0xc(%ebx)
    1bc8:	8b 43 08             	mov    0x8(%ebx),%eax
    1bcb:	0f af d0             	imul   %eax,%edx
    1bce:	01 fa                	add    %edi,%edx
    1bd0:	8d 04 52             	lea    (%edx,%edx,2),%eax
    1bd3:	8b 11                	mov    (%ecx),%edx
    1bd5:	8d 44 c3 30          	lea    0x30(%ebx,%eax,8),%eax
    1bd9:	3b 10                	cmp    (%eax),%edx
    1bdb:	0f 85 2f ff ff ff    	jne    1b10 <term_update_scroll.part.1+0x50>
    1be1:	8b 51 04             	mov    0x4(%ecx),%edx
    1be4:	31 db                	xor    %ebx,%ebx
    1be6:	3b 50 04             	cmp    0x4(%eax),%edx
    1be9:	0f 84 31 ff ff ff    	je     1b20 <term_update_scroll.part.1+0x60>
    1bef:	90                   	nop
    1bf0:	8b 51 04             	mov    0x4(%ecx),%edx
    1bf3:	89 50 04             	mov    %edx,0x4(%eax)
    1bf6:	8b 51 08             	mov    0x8(%ecx),%edx
    1bf9:	89 50 08             	mov    %edx,0x8(%eax)
    1bfc:	8b 51 0c             	mov    0xc(%ecx),%edx
    1bff:	89 50 0c             	mov    %edx,0xc(%eax)
    1c02:	8b 51 10             	mov    0x10(%ecx),%edx
    1c05:	89 50 10             	mov    %edx,0x10(%eax)
    1c08:	8b 41 14             	mov    0x14(%ecx),%eax
    1c0b:	83 e0 fe             	and    $0xfffffffe,%eax
    1c0e:	89 41 14             	mov    %eax,0x14(%ecx)
    1c11:	8b 45 e4             	mov    -0x1c(%ebp),%eax
    1c14:	56                   	push   %esi
    1c15:	8b 75 e0             	mov    -0x20(%ebp),%esi
    1c18:	50                   	push   %eax
    1c19:	8b 45 08             	mov    0x8(%ebp),%eax
    1c1c:	57                   	push   %edi
    1c1d:	8b 4d bc             	mov    -0x44(%ebp),%ecx
    1c20:	50                   	push   %eax
    1c21:	8b 55 c0             	mov    -0x40(%ebp),%edx
    1c24:	89 f0                	mov    %esi,%eax
    1c26:	e8 75 fb ff ff       	call   17a0 <term_update_char>
    1c2b:	8b 86 a4 00 00 00    	mov    0xa4(%esi),%eax
    1c31:	89 45 dc             	mov    %eax,-0x24(%ebp)
    1c34:	47                   	inc    %edi
    1c35:	83 c4 10             	add    $0x10,%esp
    1c38:	3b 7d dc             	cmp    -0x24(%ebp),%edi
    1c3b:	0f 82 52 ff ff ff    	jb     1b93 <term_update_scroll.part.1+0xd3>
    1c41:	8b 75 e0             	mov    -0x20(%ebp),%esi
    1c44:	8b 86 a8 00 00 00    	mov    0xa8(%esi),%eax
    1c4a:	8b 5d e4             	mov    -0x1c(%ebp),%ebx
    1c4d:	43                   	inc    %ebx
    1c4e:	89 5d e4             	mov    %ebx,-0x1c(%ebp)
    1c51:	8b 7d e4             	mov    -0x1c(%ebp),%edi
    1c54:	39 c7                	cmp    %eax,%edi
    1c56:	0f 82 9c fe ff ff    	jb     1af8 <term_update_scroll.part.1+0x38>
    1c5c:	8d 65 f4             	lea    -0xc(%ebp),%esp
    1c5f:	b0 01                	mov    $0x1,%al
    1c61:	5b                   	pop    %ebx
    1c62:	5e                   	pop    %esi
    1c63:	5f                   	pop    %edi
    1c64:	5d                   	pop    %ebp
    1c65:	c3                   	ret    
    1c66:	66 90                	xchg   %ax,%ax
    1c68:	8b 55 d4             	mov    -0x2c(%ebp),%edx
    1c6b:	39 55 d8             	cmp    %edx,-0x28(%ebp)
    1c6e:	0f 94 c2             	sete   %dl
    1c71:	e9 fe fe ff ff       	jmp    1b74 <term_update_scroll.part.1+0xb4>
    1c76:	66 90                	xchg   %ax,%ax
    1c78:	8b 55 d4             	mov    -0x2c(%ebp),%edx
    1c7b:	39 55 d8             	cmp    %edx,-0x28(%ebp)
    1c7e:	8b 55 cc             	mov    -0x34(%ebp),%edx
    1c81:	0f 94 45 d8          	sete   -0x28(%ebp)
    1c85:	39 55 d0             	cmp    %edx,-0x30(%ebp)
    1c88:	8b 75 d8             	mov    -0x28(%ebp),%esi
    1c8b:	0f 94 c2             	sete   %dl
    1c8e:	21 f2                	and    %esi,%edx
    1c90:	88 55 d8             	mov    %dl,-0x28(%ebp)
    1c93:	8b 55 c4             	mov    -0x3c(%ebp),%edx
    1c96:	39 55 c8             	cmp    %edx,-0x38(%ebp)
    1c99:	8b 75 d8             	mov    -0x28(%ebp),%esi
    1c9c:	0f 94 45 d4          	sete   -0x2c(%ebp)
    1ca0:	8a 55 d4             	mov    -0x2c(%ebp),%dl
    1ca3:	21 f2                	and    %esi,%edx
    1ca5:	e9 ca fe ff ff       	jmp    1b74 <term_update_scroll.part.1+0xb4>
    1caa:	8b 55 e4             	mov    -0x1c(%ebp),%edx
    1cad:	42                   	inc    %edx
    1cae:	89 55 e4             	mov    %edx,-0x1c(%ebp)
    1cb1:	8b 7d e4             	mov    -0x1c(%ebp),%edi
    1cb4:	39 f8                	cmp    %edi,%eax
    1cb6:	77 92                	ja     1c4a <term_update_scroll.part.1+0x18a>
    1cb8:	eb a2                	jmp    1c5c <term_update_scroll.part.1+0x19c>
    1cba:	8d b6 00 00 00 00    	lea    0x0(%esi),%esi

00001cc0 <term_update_cursor>:
    1cc0:	55                   	push   %ebp
    1cc1:	89 e5                	mov    %esp,%ebp
    1cc3:	57                   	push   %edi
    1cc4:	56                   	push   %esi
    1cc5:	53                   	push   %ebx
    1cc6:	83 ec 30             	sub    $0x30,%esp
    1cc9:	89 c3                	mov    %eax,%ebx
    1ccb:	8d 45 dc             	lea    -0x24(%ebp),%eax
    1cce:	89 d7                	mov    %edx,%edi
    1cd0:	50                   	push   %eax
    1cd1:	8b 93 ac 00 00 00    	mov    0xac(%ebx),%edx
    1cd7:	8d 45 d8             	lea    -0x28(%ebp),%eax
    1cda:	89 ce                	mov    %ecx,%esi
    1cdc:	50                   	push   %eax
    1cdd:	52                   	push   %edx
    1cde:	e8 8d 5f 00 00       	call   7c70 <chargrid_get_cursor@plt>
    1ce3:	83 c4 0c             	add    $0xc,%esp
    1ce6:	8d 45 e4             	lea    -0x1c(%ebp),%eax
    1ce9:	8b 8b b0 00 00 00    	mov    0xb0(%ebx),%ecx
    1cef:	50                   	push   %eax
    1cf0:	8d 45 e0             	lea    -0x20(%ebp),%eax
    1cf3:	50                   	push   %eax
    1cf4:	51                   	push   %ecx
    1cf5:	e8 76 5f 00 00       	call   7c70 <chargrid_get_cursor@plt>
    1cfa:	58                   	pop    %eax
    1cfb:	8b 83 ac 00 00 00    	mov    0xac(%ebx),%eax
    1d01:	50                   	push   %eax
    1d02:	e8 19 60 00 00       	call   7d20 <chargrid_get_cursor_visibility@plt>
    1d07:	83 c4 10             	add    $0x10,%esp
    1d0a:	c7 45 d4 00 00 00 00 	movl   $0x0,-0x2c(%ebp)
    1d11:	88 c2                	mov    %al,%dl
    1d13:	84 c0                	test   %al,%al
    1d15:	74 10                	je     1d27 <term_update_cursor+0x67>
    1d17:	8b 43 14             	mov    0x14(%ebx),%eax
    1d1a:	8a 50 02             	mov    0x2(%eax),%dl
    1d1d:	31 c0                	xor    %eax,%eax
    1d1f:	84 d2                	test   %dl,%dl
    1d21:	0f 95 c0             	setne  %al
    1d24:	89 45 d4             	mov    %eax,-0x2c(%ebp)
    1d27:	83 ec 0c             	sub    $0xc,%esp
    1d2a:	8b 83 b0 00 00 00    	mov    0xb0(%ebx),%eax
    1d30:	88 55 d3             	mov    %dl,-0x2d(%ebp)
    1d33:	50                   	push   %eax
    1d34:	e8 e7 5f 00 00       	call   7d20 <chargrid_get_cursor_visibility@plt>
    1d39:	8a 55 d3             	mov    -0x2d(%ebp),%dl
    1d3c:	83 c4 10             	add    $0x10,%esp
    1d3f:	31 c9                	xor    %ecx,%ecx
    1d41:	38 c2                	cmp    %al,%dl
    1d43:	74 31                	je     1d76 <term_update_cursor+0xb6>
    1d45:	8b 45 d4             	mov    -0x2c(%ebp),%eax
    1d48:	51                   	push   %ecx
    1d49:	51                   	push   %ecx
    1d4a:	50                   	push   %eax
    1d4b:	8b 83 b0 00 00 00    	mov    0xb0(%ebx),%eax
    1d51:	50                   	push   %eax
    1d52:	e8 f9 5e 00 00       	call   7c50 <chargrid_set_cursor_visibility@plt>
    1d57:	83 c4 0c             	add    $0xc,%esp
    1d5a:	8b 45 e4             	mov    -0x1c(%ebp),%eax
    1d5d:	89 f1                	mov    %esi,%ecx
    1d5f:	89 fa                	mov    %edi,%edx
    1d61:	50                   	push   %eax
    1d62:	8b 45 e0             	mov    -0x20(%ebp),%eax
    1d65:	50                   	push   %eax
    1d66:	8b 45 08             	mov    0x8(%ebp),%eax
    1d69:	50                   	push   %eax
    1d6a:	89 d8                	mov    %ebx,%eax
    1d6c:	e8 2f fa ff ff       	call   17a0 <term_update_char>
    1d71:	83 c4 10             	add    $0x10,%esp
    1d74:	b1 01                	mov    $0x1,%cl
    1d76:	8b 45 d8             	mov    -0x28(%ebp),%eax
    1d79:	8b 55 dc             	mov    -0x24(%ebp),%edx
    1d7c:	3b 45 e0             	cmp    -0x20(%ebp),%eax
    1d7f:	74 57                	je     1dd8 <term_update_cursor+0x118>
    1d81:	51                   	push   %ecx
    1d82:	52                   	push   %edx
    1d83:	50                   	push   %eax
    1d84:	8b 83 b0 00 00 00    	mov    0xb0(%ebx),%eax
    1d8a:	50                   	push   %eax
    1d8b:	e8 d0 5d 00 00       	call   7b60 <chargrid_set_cursor@plt>
    1d90:	83 c4 0c             	add    $0xc,%esp
    1d93:	8b 45 e4             	mov    -0x1c(%ebp),%eax
    1d96:	89 f1                	mov    %esi,%ecx
    1d98:	89 fa                	mov    %edi,%edx
    1d9a:	50                   	push   %eax
    1d9b:	8b 45 e0             	mov    -0x20(%ebp),%eax
    1d9e:	50                   	push   %eax
    1d9f:	8b 45 08             	mov    0x8(%ebp),%eax
    1da2:	50                   	push   %eax
    1da3:	89 d8                	mov    %ebx,%eax
    1da5:	e8 f6 f9 ff ff       	call   17a0 <term_update_char>
    1daa:	83 c4 0c             	add    $0xc,%esp
    1dad:	8b 45 dc             	mov    -0x24(%ebp),%eax
    1db0:	8b 55 08             	mov    0x8(%ebp),%edx
    1db3:	50                   	push   %eax
    1db4:	8b 45 d8             	mov    -0x28(%ebp),%eax
    1db7:	50                   	push   %eax
    1db8:	89 f1                	mov    %esi,%ecx
    1dba:	52                   	push   %edx
    1dbb:	89 d8                	mov    %ebx,%eax
    1dbd:	89 fa                	mov    %edi,%edx
    1dbf:	e8 dc f9 ff ff       	call   17a0 <term_update_char>
    1dc4:	83 c4 10             	add    $0x10,%esp
    1dc7:	b1 01                	mov    $0x1,%cl
    1dc9:	8d 65 f4             	lea    -0xc(%ebp),%esp
    1dcc:	88 c8                	mov    %cl,%al
    1dce:	5b                   	pop    %ebx
    1dcf:	5e                   	pop    %esi
    1dd0:	5f                   	pop    %edi
    1dd1:	5d                   	pop    %ebp
    1dd2:	c3                   	ret    
    1dd3:	90                   	nop
    1dd4:	8d 74 26 00          	lea    0x0(%esi,%eiz,1),%esi
    1dd8:	3b 55 e4             	cmp    -0x1c(%ebp),%edx
    1ddb:	75 a4                	jne    1d81 <term_update_cursor+0xc1>
    1ddd:	eb ea                	jmp    1dc9 <term_update_cursor+0x109>
    1ddf:	90                   	nop

00001de0 <term_update>:
    1de0:	55                   	push   %ebp
    1de1:	89 e5                	mov    %esp,%ebp
    1de3:	57                   	push   %edi
    1de4:	56                   	push   %esi
    1de5:	53                   	push   %ebx
    1de6:	83 ec 58             	sub    $0x58,%esp
    1de9:	89 c7                	mov    %eax,%edi
    1deb:	83 c0 5c             	add    $0x5c,%eax
    1dee:	50                   	push   %eax
    1def:	89 45 ac             	mov    %eax,-0x54(%ebp)
    1df2:	e8 b9 60 00 00       	call   7eb0 <fibril_mutex_lock@plt>
    1df7:	8b 5f 14             	mov    0x14(%edi),%ebx
    1dfa:	59                   	pop    %ecx
    1dfb:	53                   	push   %ebx
    1dfc:	e8 1f 21 00 00       	call   3f20 <window_claim>
    1e01:	83 c4 10             	add    $0x10,%esp
    1e04:	89 45 d4             	mov    %eax,-0x2c(%ebp)
    1e07:	85 c0                	test   %eax,%eax
    1e09:	0f 84 bb 02 00 00    	je     20ca <term_update+0x2ea>
    1e0f:	8b 47 1c             	mov    0x1c(%edi),%eax
    1e12:	83 ec 0c             	sub    $0xc,%esp
    1e15:	89 45 d0             	mov    %eax,-0x30(%ebp)
    1e18:	8b 47 20             	mov    0x20(%edi),%eax
    1e1b:	89 45 cc             	mov    %eax,-0x34(%ebp)
    1e1e:	8b 87 ac 00 00 00    	mov    0xac(%edi),%eax
    1e24:	50                   	push   %eax
    1e25:	e8 b6 5f 00 00       	call   7de0 <chargrid_get_top_row@plt>
    1e2a:	83 c4 10             	add    $0x10,%esp
    1e2d:	3b 87 b4 00 00 00    	cmp    0xb4(%edi),%eax
    1e33:	74 6d                	je     1ea2 <term_update+0xc2>
    1e35:	83 ec 0c             	sub    $0xc,%esp
    1e38:	89 87 b4 00 00 00    	mov    %eax,0xb4(%edi)
    1e3e:	8b 45 cc             	mov    -0x34(%ebp),%eax
    1e41:	8b 4d d0             	mov    -0x30(%ebp),%ecx
    1e44:	50                   	push   %eax
    1e45:	8b 55 d4             	mov    -0x2c(%ebp),%edx
    1e48:	89 f8                	mov    %edi,%eax
    1e4a:	e8 71 fc ff ff       	call   1ac0 <term_update_scroll.part.1>
    1e4f:	83 c4 10             	add    $0x10,%esp
    1e52:	84 c0                	test   %al,%al
    1e54:	74 4c                	je     1ea2 <term_update+0xc2>
    1e56:	83 ec 0c             	sub    $0xc,%esp
    1e59:	8b 4d cc             	mov    -0x34(%ebp),%ecx
    1e5c:	8b 55 d4             	mov    -0x2c(%ebp),%edx
    1e5f:	89 f8                	mov    %edi,%eax
    1e61:	51                   	push   %ecx
    1e62:	8b 4d d0             	mov    -0x30(%ebp),%ecx
    1e65:	e8 56 fe ff ff       	call   1cc0 <term_update_cursor>
    1e6a:	83 c4 10             	add    $0x10,%esp
    1e6d:	83 ec 0c             	sub    $0xc,%esp
    1e70:	8b 5f 14             	mov    0x14(%edi),%ebx
    1e73:	53                   	push   %ebx
    1e74:	e8 d7 20 00 00       	call   3f50 <window_yield>
    1e79:	83 c4 10             	add    $0x10,%esp
    1e7c:	83 ec 0c             	sub    $0xc,%esp
    1e7f:	8b 7f 14             	mov    0x14(%edi),%edi
    1e82:	57                   	push   %edi
    1e83:	e8 e8 1f 00 00       	call   3e70 <window_damage>
    1e88:	83 c4 10             	add    $0x10,%esp
    1e8b:	83 ec 0c             	sub    $0xc,%esp
    1e8e:	8b 75 ac             	mov    -0x54(%ebp),%esi
    1e91:	56                   	push   %esi
    1e92:	e8 e9 5d 00 00       	call   7c80 <fibril_mutex_unlock@plt>
    1e97:	83 c4 10             	add    $0x10,%esp
    1e9a:	8d 65 f4             	lea    -0xc(%ebp),%esp
    1e9d:	5b                   	pop    %ebx
    1e9e:	5e                   	pop    %esi
    1e9f:	5f                   	pop    %edi
    1ea0:	5d                   	pop    %ebp
    1ea1:	c3                   	ret    
    1ea2:	8b 87 a8 00 00 00    	mov    0xa8(%edi),%eax
    1ea8:	85 c0                	test   %eax,%eax
    1eaa:	0f 84 3b 02 00 00    	je     20eb <term_update+0x30b>
    1eb0:	8b b7 a4 00 00 00    	mov    0xa4(%edi),%esi
    1eb6:	c7 45 e0 00 00 00 00 	movl   $0x0,-0x20(%ebp)
    1ebd:	89 75 d8             	mov    %esi,-0x28(%ebp)
    1ec0:	c6 45 cb 00          	movb   $0x0,-0x35(%ebp)
    1ec4:	8d 74 26 00          	lea    0x0(%esi,%eiz,1),%esi
    1ec8:	8b 55 d8             	mov    -0x28(%ebp),%edx
    1ecb:	31 f6                	xor    %esi,%esi
    1ecd:	85 d2                	test   %edx,%edx
    1ecf:	0f 84 61 01 00 00    	je     2036 <term_update+0x256>
    1ed5:	89 7d e4             	mov    %edi,-0x1c(%ebp)
    1ed8:	e9 8a 00 00 00       	jmp    1f67 <term_update+0x187>
    1edd:	8d 76 00             	lea    0x0(%esi),%esi
    1ee0:	89 10                	mov    %edx,(%eax)
    1ee2:	b3 01                	mov    $0x1,%bl
    1ee4:	8b 51 04             	mov    0x4(%ecx),%edx
    1ee7:	3b 50 04             	cmp    0x4(%eax),%edx
    1eea:	0f 85 e8 00 00 00    	jne    1fd8 <term_update+0x1f8>
    1ef0:	8b 79 08             	mov    0x8(%ecx),%edi
    1ef3:	83 fa 01             	cmp    $0x1,%edx
    1ef6:	89 7d c4             	mov    %edi,-0x3c(%ebp)
    1ef9:	8b 79 0c             	mov    0xc(%ecx),%edi
    1efc:	89 7d bc             	mov    %edi,-0x44(%ebp)
    1eff:	8b 79 10             	mov    0x10(%ecx),%edi
    1f02:	89 7d b4             	mov    %edi,-0x4c(%ebp)
    1f05:	8b 78 08             	mov    0x8(%eax),%edi
    1f08:	89 7d c0             	mov    %edi,-0x40(%ebp)
    1f0b:	8b 78 0c             	mov    0xc(%eax),%edi
    1f0e:	89 7d b8             	mov    %edi,-0x48(%ebp)
    1f11:	8b 78 10             	mov    0x10(%eax),%edi
    1f14:	89 7d b0             	mov    %edi,-0x50(%ebp)
    1f17:	0f 84 7b 01 00 00    	je     2098 <term_update+0x2b8>
    1f1d:	0f 82 65 01 00 00    	jb     2088 <term_update+0x2a8>
    1f23:	83 fa 02             	cmp    $0x2,%edx
    1f26:	0f 85 ac 00 00 00    	jne    1fd8 <term_update+0x1f8>
    1f2c:	8b 55 b8             	mov    -0x48(%ebp),%edx
    1f2f:	39 55 bc             	cmp    %edx,-0x44(%ebp)
    1f32:	8b 55 c0             	mov    -0x40(%ebp),%edx
    1f35:	0f 94 45 bc          	sete   -0x44(%ebp)
    1f39:	39 55 c4             	cmp    %edx,-0x3c(%ebp)
    1f3c:	8b 7d bc             	mov    -0x44(%ebp),%edi
    1f3f:	0f 94 c2             	sete   %dl
    1f42:	21 fa                	and    %edi,%edx
    1f44:	84 d2                	test   %dl,%dl
    1f46:	0f 84 8c 00 00 00    	je     1fd8 <term_update+0x1f8>
    1f4c:	8b 45 dc             	mov    -0x24(%ebp),%eax
    1f4f:	83 e0 fe             	and    $0xfffffffe,%eax
    1f52:	84 db                	test   %bl,%bl
    1f54:	89 41 14             	mov    %eax,0x14(%ecx)
    1f57:	0f 85 9c 00 00 00    	jne    1ff9 <term_update+0x219>
    1f5d:	46                   	inc    %esi
    1f5e:	3b 75 d8             	cmp    -0x28(%ebp),%esi
    1f61:	0f 83 c6 00 00 00    	jae    202d <term_update+0x24d>
    1f67:	8b 45 e4             	mov    -0x1c(%ebp),%eax
    1f6a:	8b 7d e0             	mov    -0x20(%ebp),%edi
    1f6d:	31 d2                	xor    %edx,%edx
    1f6f:	8b 88 ac 00 00 00    	mov    0xac(%eax),%ecx
    1f75:	8b 41 2c             	mov    0x2c(%ecx),%eax
    1f78:	01 f8                	add    %edi,%eax
    1f7a:	f7 71 0c             	divl   0xc(%ecx)
    1f7d:	8b 41 08             	mov    0x8(%ecx),%eax
    1f80:	0f af d0             	imul   %eax,%edx
    1f83:	01 f2                	add    %esi,%edx
    1f85:	8d 04 52             	lea    (%edx,%edx,2),%eax
    1f88:	8d 4c c1 30          	lea    0x30(%ecx,%eax,8),%ecx
    1f8c:	8b 59 14             	mov    0x14(%ecx),%ebx
    1f8f:	89 5d dc             	mov    %ebx,-0x24(%ebp)
    1f92:	83 e3 01             	and    $0x1,%ebx
    1f95:	74 c6                	je     1f5d <term_update+0x17d>
    1f97:	8b 45 e4             	mov    -0x1c(%ebp),%eax
    1f9a:	31 d2                	xor    %edx,%edx
    1f9c:	8b 98 b0 00 00 00    	mov    0xb0(%eax),%ebx
    1fa2:	8b 43 2c             	mov    0x2c(%ebx),%eax
    1fa5:	01 f8                	add    %edi,%eax
    1fa7:	f7 73 0c             	divl   0xc(%ebx)
    1faa:	8b 43 08             	mov    0x8(%ebx),%eax
    1fad:	0f af d0             	imul   %eax,%edx
    1fb0:	01 f2                	add    %esi,%edx
    1fb2:	8d 04 52             	lea    (%edx,%edx,2),%eax
    1fb5:	8b 11                	mov    (%ecx),%edx
    1fb7:	8d 44 c3 30          	lea    0x30(%ebx,%eax,8),%eax
    1fbb:	3b 10                	cmp    (%eax),%edx
    1fbd:	0f 85 1d ff ff ff    	jne    1ee0 <term_update+0x100>
    1fc3:	8b 51 04             	mov    0x4(%ecx),%edx
    1fc6:	31 db                	xor    %ebx,%ebx
    1fc8:	3b 50 04             	cmp    0x4(%eax),%edx
    1fcb:	0f 84 1f ff ff ff    	je     1ef0 <term_update+0x110>
    1fd1:	8d b4 26 00 00 00 00 	lea    0x0(%esi,%eiz,1),%esi
    1fd8:	8b 51 04             	mov    0x4(%ecx),%edx
    1fdb:	89 50 04             	mov    %edx,0x4(%eax)
    1fde:	8b 51 08             	mov    0x8(%ecx),%edx
    1fe1:	89 50 08             	mov    %edx,0x8(%eax)
    1fe4:	8b 51 0c             	mov    0xc(%ecx),%edx
    1fe7:	89 50 0c             	mov    %edx,0xc(%eax)
    1fea:	8b 51 10             	mov    0x10(%ecx),%edx
    1fed:	89 50 10             	mov    %edx,0x10(%eax)
    1ff0:	8b 45 dc             	mov    -0x24(%ebp),%eax
    1ff3:	83 e0 fe             	and    $0xfffffffe,%eax
    1ff6:	89 41 14             	mov    %eax,0x14(%ecx)
    1ff9:	8b 7d e0             	mov    -0x20(%ebp),%edi
    1ffc:	8b 45 cc             	mov    -0x34(%ebp),%eax
    1fff:	53                   	push   %ebx
    2000:	57                   	push   %edi
    2001:	8b 7d e4             	mov    -0x1c(%ebp),%edi
    2004:	56                   	push   %esi
    2005:	8b 4d d0             	mov    -0x30(%ebp),%ecx
    2008:	50                   	push   %eax
    2009:	8b 55 d4             	mov    -0x2c(%ebp),%edx
    200c:	89 f8                	mov    %edi,%eax
    200e:	e8 8d f7 ff ff       	call   17a0 <term_update_char>
    2013:	8b 87 a4 00 00 00    	mov    0xa4(%edi),%eax
    2019:	89 45 d8             	mov    %eax,-0x28(%ebp)
    201c:	46                   	inc    %esi
    201d:	83 c4 10             	add    $0x10,%esp
    2020:	c6 45 cb 01          	movb   $0x1,-0x35(%ebp)
    2024:	3b 75 d8             	cmp    -0x28(%ebp),%esi
    2027:	0f 82 3a ff ff ff    	jb     1f67 <term_update+0x187>
    202d:	8b 7d e4             	mov    -0x1c(%ebp),%edi
    2030:	8b 87 a8 00 00 00    	mov    0xa8(%edi),%eax
    2036:	8b 4d e0             	mov    -0x20(%ebp),%ecx
    2039:	41                   	inc    %ecx
    203a:	89 4d e0             	mov    %ecx,-0x20(%ebp)
    203d:	8b 75 e0             	mov    -0x20(%ebp),%esi
    2040:	39 c6                	cmp    %eax,%esi
    2042:	0f 82 80 fe ff ff    	jb     1ec8 <term_update+0xe8>
    2048:	83 ec 0c             	sub    $0xc,%esp
    204b:	8b 45 cc             	mov    -0x34(%ebp),%eax
    204e:	8b 4d d0             	mov    -0x30(%ebp),%ecx
    2051:	8b 55 d4             	mov    -0x2c(%ebp),%edx
    2054:	50                   	push   %eax
    2055:	89 f8                	mov    %edi,%eax
    2057:	e8 64 fc ff ff       	call   1cc0 <term_update_cursor>
    205c:	83 c4 10             	add    $0x10,%esp
    205f:	84 c0                	test   %al,%al
    2061:	0f 85 06 fe ff ff    	jne    1e6d <term_update+0x8d>
    2067:	83 ec 0c             	sub    $0xc,%esp
    206a:	8b 47 14             	mov    0x14(%edi),%eax
    206d:	50                   	push   %eax
    206e:	e8 dd 1e 00 00       	call   3f50 <window_yield>
    2073:	83 c4 10             	add    $0x10,%esp
    2076:	80 7d cb 00          	cmpb   $0x0,-0x35(%ebp)
    207a:	0f 84 0b fe ff ff    	je     1e8b <term_update+0xab>
    2080:	e9 f7 fd ff ff       	jmp    1e7c <term_update+0x9c>
    2085:	8d 76 00             	lea    0x0(%esi),%esi
    2088:	8b 55 c0             	mov    -0x40(%ebp),%edx
    208b:	39 55 c4             	cmp    %edx,-0x3c(%ebp)
    208e:	0f 94 c2             	sete   %dl
    2091:	e9 ae fe ff ff       	jmp    1f44 <term_update+0x164>
    2096:	66 90                	xchg   %ax,%ax
    2098:	8b 55 c0             	mov    -0x40(%ebp),%edx
    209b:	39 55 c4             	cmp    %edx,-0x3c(%ebp)
    209e:	8b 55 b8             	mov    -0x48(%ebp),%edx
    20a1:	0f 94 45 c4          	sete   -0x3c(%ebp)
    20a5:	39 55 bc             	cmp    %edx,-0x44(%ebp)
    20a8:	8b 7d c4             	mov    -0x3c(%ebp),%edi
    20ab:	0f 94 c2             	sete   %dl
    20ae:	21 fa                	and    %edi,%edx
    20b0:	88 55 c4             	mov    %dl,-0x3c(%ebp)
    20b3:	8b 55 b0             	mov    -0x50(%ebp),%edx
    20b6:	39 55 b4             	cmp    %edx,-0x4c(%ebp)
    20b9:	8b 7d c4             	mov    -0x3c(%ebp),%edi
    20bc:	0f 94 45 c0          	sete   -0x40(%ebp)
    20c0:	8a 55 c0             	mov    -0x40(%ebp),%dl
    20c3:	21 fa                	and    %edi,%edx
    20c5:	e9 7a fe ff ff       	jmp    1f44 <term_update+0x164>
    20ca:	83 ec 0c             	sub    $0xc,%esp
    20cd:	8b 47 14             	mov    0x14(%edi),%eax
    20d0:	50                   	push   %eax
    20d1:	e8 7a 1e 00 00       	call   3f50 <window_yield>
    20d6:	8b 55 ac             	mov    -0x54(%ebp),%edx
    20d9:	58                   	pop    %eax
    20da:	52                   	push   %edx
    20db:	e8 a0 5b 00 00       	call   7c80 <fibril_mutex_unlock@plt>
    20e0:	83 c4 10             	add    $0x10,%esp
    20e3:	8d 65 f4             	lea    -0xc(%ebp),%esp
    20e6:	5b                   	pop    %ebx
    20e7:	5e                   	pop    %esi
    20e8:	5f                   	pop    %edi
    20e9:	5d                   	pop    %ebp
    20ea:	c3                   	ret    
    20eb:	83 ec 0c             	sub    $0xc,%esp
    20ee:	8b 45 cc             	mov    -0x34(%ebp),%eax
    20f1:	8b 4d d0             	mov    -0x30(%ebp),%ecx
    20f4:	8b 55 d4             	mov    -0x2c(%ebp),%edx
    20f7:	50                   	push   %eax
    20f8:	89 f8                	mov    %edi,%eax
    20fa:	e8 c1 fb ff ff       	call   1cc0 <term_update_cursor>
    20ff:	83 c4 10             	add    $0x10,%esp
    2102:	84 c0                	test   %al,%al
    2104:	0f 85 63 fd ff ff    	jne    1e6d <term_update+0x8d>
    210a:	83 ec 0c             	sub    $0xc,%esp
    210d:	8b 57 14             	mov    0x14(%edi),%edx
    2110:	52                   	push   %edx
    2111:	e8 3a 1e 00 00       	call   3f50 <window_yield>
    2116:	83 c4 10             	add    $0x10,%esp
    2119:	e9 6d fd ff ff       	jmp    1e8b <term_update+0xab>
    211e:	66 90                	xchg   %ax,%ax

00002120 <term_set_cursor_visibility>:
    2120:	55                   	push   %ebp
    2121:	89 e5                	mov    %esp,%ebp
    2123:	57                   	push   %edi
    2124:	56                   	push   %esi
    2125:	53                   	push   %ebx
    2126:	83 ec 18             	sub    $0x18,%esp
    2129:	8b 45 08             	mov    0x8(%ebp),%eax
    212c:	8b 75 0c             	mov    0xc(%ebp),%esi
    212f:	8b 00                	mov    (%eax),%eax
    2131:	8b 58 04             	mov    0x4(%eax),%ebx
    2134:	8d 7b 5c             	lea    0x5c(%ebx),%edi
    2137:	57                   	push   %edi
    2138:	e8 73 5d 00 00       	call   7eb0 <fibril_mutex_lock@plt>
    213d:	58                   	pop    %eax
    213e:	89 f0                	mov    %esi,%eax
    2140:	25 ff 00 00 00       	and    $0xff,%eax
    2145:	5a                   	pop    %edx
    2146:	50                   	push   %eax
    2147:	8b 8b ac 00 00 00    	mov    0xac(%ebx),%ecx
    214d:	51                   	push   %ecx
    214e:	e8 fd 5a 00 00       	call   7c50 <chargrid_set_cursor_visibility@plt>
    2153:	89 3c 24             	mov    %edi,(%esp)
    2156:	e8 25 5b 00 00       	call   7c80 <fibril_mutex_unlock@plt>
    215b:	83 c4 10             	add    $0x10,%esp
    215e:	8d 65 f4             	lea    -0xc(%ebp),%esp
    2161:	89 d8                	mov    %ebx,%eax
    2163:	5b                   	pop    %ebx
    2164:	5e                   	pop    %esi
    2165:	5f                   	pop    %edi
    2166:	5d                   	pop    %ebp
    2167:	e9 74 fc ff ff       	jmp    1de0 <term_update>
    216c:	8d 74 26 00          	lea    0x0(%esi,%eiz,1),%esi

00002170 <term_clear>:
    2170:	55                   	push   %ebp
    2171:	89 e5                	mov    %esp,%ebp
    2173:	56                   	push   %esi
    2174:	53                   	push   %ebx
    2175:	8b 45 08             	mov    0x8(%ebp),%eax
    2178:	83 ec 0c             	sub    $0xc,%esp
    217b:	8b 00                	mov    (%eax),%eax
    217d:	8b 58 04             	mov    0x4(%eax),%ebx
    2180:	8d 73 5c             	lea    0x5c(%ebx),%esi
    2183:	56                   	push   %esi
    2184:	e8 27 5d 00 00       	call   7eb0 <fibril_mutex_lock@plt>
    2189:	8b 93 ac 00 00 00    	mov    0xac(%ebx),%edx
    218f:	58                   	pop    %eax
    2190:	52                   	push   %edx
    2191:	e8 2a 5a 00 00       	call   7bc0 <chargrid_clear@plt>
    2196:	89 34 24             	mov    %esi,(%esp)
    2199:	e8 e2 5a 00 00       	call   7c80 <fibril_mutex_unlock@plt>
    219e:	83 c4 10             	add    $0x10,%esp
    21a1:	8d 65 f8             	lea    -0x8(%ebp),%esp
    21a4:	89 d8                	mov    %ebx,%eax
    21a6:	5b                   	pop    %ebx
    21a7:	5e                   	pop    %esi
    21a8:	5d                   	pop    %ebp
    21a9:	e9 32 fc ff ff       	jmp    1de0 <term_update>
    21ae:	66 90                	xchg   %ax,%ax

000021b0 <term_sync>:
    21b0:	55                   	push   %ebp
    21b1:	89 e5                	mov    %esp,%ebp
    21b3:	8b 45 08             	mov    0x8(%ebp),%eax
    21b6:	5d                   	pop    %ebp
    21b7:	8b 00                	mov    (%eax),%eax
    21b9:	8b 40 04             	mov    0x4(%eax),%eax
    21bc:	e9 1f fc ff ff       	jmp    1de0 <term_update>
    21c1:	eb 0d                	jmp    21d0 <term_set_pos>
    21c3:	90                   	nop
    21c4:	90                   	nop
    21c5:	90                   	nop
    21c6:	90                   	nop
    21c7:	90                   	nop
    21c8:	90                   	nop
    21c9:	90                   	nop
    21ca:	90                   	nop
    21cb:	90                   	nop
    21cc:	90                   	nop
    21cd:	90                   	nop
    21ce:	90                   	nop
    21cf:	90                   	nop

000021d0 <term_set_pos>:
    21d0:	55                   	push   %ebp
    21d1:	89 e5                	mov    %esp,%ebp
    21d3:	57                   	push   %edi
    21d4:	56                   	push   %esi
    21d5:	53                   	push   %ebx
    21d6:	83 ec 28             	sub    $0x28,%esp
    21d9:	8b 55 08             	mov    0x8(%ebp),%edx
    21dc:	8b 45 10             	mov    0x10(%ebp),%eax
    21df:	8b 7d 0c             	mov    0xc(%ebp),%edi
    21e2:	89 45 e4             	mov    %eax,-0x1c(%ebp)
    21e5:	8b 12                	mov    (%edx),%edx
    21e7:	8b 5a 04             	mov    0x4(%edx),%ebx
    21ea:	8d 73 5c             	lea    0x5c(%ebx),%esi
    21ed:	56                   	push   %esi
    21ee:	e8 bd 5c 00 00       	call   7eb0 <fibril_mutex_lock@plt>
    21f3:	83 c4 0c             	add    $0xc,%esp
    21f6:	8b 45 e4             	mov    -0x1c(%ebp),%eax
    21f9:	50                   	push   %eax
    21fa:	57                   	push   %edi
    21fb:	8b 83 ac 00 00 00    	mov    0xac(%ebx),%eax
    2201:	50                   	push   %eax
    2202:	e8 59 59 00 00       	call   7b60 <chargrid_set_cursor@plt>
    2207:	89 34 24             	mov    %esi,(%esp)
    220a:	e8 71 5a 00 00       	call   7c80 <fibril_mutex_unlock@plt>
    220f:	83 c4 10             	add    $0x10,%esp
    2212:	8d 65 f4             	lea    -0xc(%ebp),%esp
    2215:	89 d8                	mov    %ebx,%eax
    2217:	5b                   	pop    %ebx
    2218:	5e                   	pop    %esi
    2219:	5f                   	pop    %edi
    221a:	5d                   	pop    %ebp
    221b:	e9 c0 fb ff ff       	jmp    1de0 <term_update>

00002220 <term_write>:
    2220:	55                   	push   %ebp
    2221:	89 e5                	mov    %esp,%ebp
    2223:	57                   	push   %edi
    2224:	56                   	push   %esi
    2225:	53                   	push   %ebx
    2226:	83 ec 2c             	sub    $0x2c,%esp
    2229:	c7 45 e4 00 00 00 00 	movl   $0x0,-0x1c(%ebp)
    2230:	8b 45 08             	mov    0x8(%ebp),%eax
    2233:	8b 75 10             	mov    0x10(%ebp),%esi
    2236:	8b 00                	mov    (%eax),%eax
    2238:	8b 78 04             	mov    0x4(%eax),%edi
    223b:	31 c0                	xor    %eax,%eax
    223d:	8d 76 00             	lea    0x0(%esi),%esi
    2240:	8d 5f 5c             	lea    0x5c(%edi),%ebx
    2243:	39 c6                	cmp    %eax,%esi
    2245:	76 48                	jbe    228f <term_write+0x6f>
    2247:	50                   	push   %eax
    2248:	8d 45 e4             	lea    -0x1c(%ebp),%eax
    224b:	56                   	push   %esi
    224c:	50                   	push   %eax
    224d:	8b 45 0c             	mov    0xc(%ebp),%eax
    2250:	50                   	push   %eax
    2251:	e8 4a 59 00 00       	call   7ba0 <str_decode@plt>
    2256:	89 1c 24             	mov    %ebx,(%esp)
    2259:	89 45 d4             	mov    %eax,-0x2c(%ebp)
    225c:	e8 4f 5c 00 00       	call   7eb0 <fibril_mutex_lock@plt>
    2261:	8b 45 d4             	mov    -0x2c(%ebp),%eax
    2264:	83 c4 10             	add    $0x10,%esp
    2267:	83 f8 09             	cmp    $0x9,%eax
    226a:	74 74                	je     22e0 <term_write+0xc0>
    226c:	7e 32                	jle    22a0 <term_write+0x80>
    226e:	83 f8 0a             	cmp    $0xa,%eax
    2271:	0f 84 99 00 00 00    	je     2310 <term_write+0xf0>
    2277:	83 f8 0d             	cmp    $0xd,%eax
    227a:	75 7c                	jne    22f8 <term_write+0xd8>
    227c:	83 ec 0c             	sub    $0xc,%esp
    227f:	53                   	push   %ebx
    2280:	e8 fb 59 00 00       	call   7c80 <fibril_mutex_unlock@plt>
    2285:	83 c4 10             	add    $0x10,%esp
    2288:	8b 45 e4             	mov    -0x1c(%ebp),%eax
    228b:	39 c6                	cmp    %eax,%esi
    228d:	77 b8                	ja     2247 <term_write+0x27>
    228f:	8d 65 f4             	lea    -0xc(%ebp),%esp
    2292:	89 f0                	mov    %esi,%eax
    2294:	5b                   	pop    %ebx
    2295:	5e                   	pop    %esi
    2296:	5f                   	pop    %edi
    2297:	5d                   	pop    %ebp
    2298:	c3                   	ret    
    2299:	8d b4 26 00 00 00 00 	lea    0x0(%esi,%eiz,1),%esi
    22a0:	83 f8 08             	cmp    $0x8,%eax
    22a3:	75 53                	jne    22f8 <term_write+0xd8>
    22a5:	83 ec 0c             	sub    $0xc,%esp
    22a8:	8b 87 ac 00 00 00    	mov    0xac(%edi),%eax
    22ae:	50                   	push   %eax
    22af:	e8 dc 58 00 00       	call   7b90 <chargrid_backspace@plt>
    22b4:	83 c4 10             	add    $0x10,%esp
    22b7:	83 ec 0c             	sub    $0xc,%esp
    22ba:	89 45 d4             	mov    %eax,-0x2c(%ebp)
    22bd:	53                   	push   %ebx
    22be:	e8 bd 59 00 00       	call   7c80 <fibril_mutex_unlock@plt>
    22c3:	8b 45 d4             	mov    -0x2c(%ebp),%eax
    22c6:	83 c4 10             	add    $0x10,%esp
    22c9:	83 f8 01             	cmp    $0x1,%eax
    22cc:	76 ba                	jbe    2288 <term_write+0x68>
    22ce:	89 f8                	mov    %edi,%eax
    22d0:	e8 0b fb ff ff       	call   1de0 <term_update>
    22d5:	8b 45 e4             	mov    -0x1c(%ebp),%eax
    22d8:	e9 63 ff ff ff       	jmp    2240 <term_write+0x20>
    22dd:	8d 76 00             	lea    0x0(%esi),%esi
    22e0:	50                   	push   %eax
    22e1:	50                   	push   %eax
    22e2:	8b 87 ac 00 00 00    	mov    0xac(%edi),%eax
    22e8:	6a 08                	push   $0x8
    22ea:	50                   	push   %eax
    22eb:	e8 80 5a 00 00       	call   7d70 <chargrid_tabstop@plt>
    22f0:	83 c4 10             	add    $0x10,%esp
    22f3:	eb c2                	jmp    22b7 <term_write+0x97>
    22f5:	8d 76 00             	lea    0x0(%esi),%esi
    22f8:	52                   	push   %edx
    22f9:	6a 01                	push   $0x1
    22fb:	8b 8f ac 00 00 00    	mov    0xac(%edi),%ecx
    2301:	50                   	push   %eax
    2302:	51                   	push   %ecx
    2303:	e8 88 5b 00 00       	call   7e90 <chargrid_putchar@plt>
    2308:	83 c4 10             	add    $0x10,%esp
    230b:	eb aa                	jmp    22b7 <term_write+0x97>
    230d:	8d 76 00             	lea    0x0(%esi),%esi
    2310:	83 ec 0c             	sub    $0xc,%esp
    2313:	8b 87 ac 00 00 00    	mov    0xac(%edi),%eax
    2319:	50                   	push   %eax
    231a:	e8 31 5a 00 00       	call   7d50 <chargrid_newline@plt>
    231f:	83 c4 10             	add    $0x10,%esp
    2322:	eb 93                	jmp    22b7 <term_write+0x97>
    2324:	8d b6 00 00 00 00    	lea    0x0(%esi),%esi
    232a:	8d bf 00 00 00 00    	lea    0x0(%edi),%edi

00002330 <term_damage>:
    2330:	55                   	push   %ebp
    2331:	89 e5                	mov    %esp,%ebp
    2333:	57                   	push   %edi
    2334:	56                   	push   %esi
    2335:	53                   	push   %ebx
    2336:	83 ec 38             	sub    $0x38,%esp
    2339:	89 c6                	mov    %eax,%esi
    233b:	83 c0 5c             	add    $0x5c,%eax
    233e:	50                   	push   %eax
    233f:	89 45 d4             	mov    %eax,-0x2c(%ebp)
    2342:	e8 69 5b 00 00       	call   7eb0 <fibril_mutex_lock@plt>
    2347:	8b 46 14             	mov    0x14(%esi),%eax
    234a:	5f                   	pop    %edi
    234b:	50                   	push   %eax
    234c:	e8 cf 1b 00 00       	call   3f20 <window_claim>
    2351:	83 c4 10             	add    $0x10,%esp
    2354:	89 45 e0             	mov    %eax,-0x20(%ebp)
    2357:	85 c0                	test   %eax,%eax
    2359:	0f 84 70 01 00 00    	je     24cf <term_damage+0x19f>
    235f:	8b 46 1c             	mov    0x1c(%esi),%eax
    2362:	83 ec 0c             	sub    $0xc,%esp
    2365:	89 45 dc             	mov    %eax,-0x24(%ebp)
    2368:	8b 96 ac 00 00 00    	mov    0xac(%esi),%edx
    236e:	8b 46 20             	mov    0x20(%esi),%eax
    2371:	52                   	push   %edx
    2372:	89 45 d8             	mov    %eax,-0x28(%ebp)
    2375:	e8 66 5a 00 00       	call   7de0 <chargrid_get_top_row@plt>
    237a:	83 c4 10             	add    $0x10,%esp
    237d:	3b 86 b4 00 00 00    	cmp    0xb4(%esi),%eax
    2383:	74 5e                	je     23e3 <term_damage+0xb3>
    2385:	83 ec 0c             	sub    $0xc,%esp
    2388:	89 86 b4 00 00 00    	mov    %eax,0xb4(%esi)
    238e:	8b 45 d8             	mov    -0x28(%ebp),%eax
    2391:	8b 4d dc             	mov    -0x24(%ebp),%ecx
    2394:	50                   	push   %eax
    2395:	8b 55 e0             	mov    -0x20(%ebp),%edx
    2398:	89 f0                	mov    %esi,%eax
    239a:	e8 21 f7 ff ff       	call   1ac0 <term_update_scroll.part.1>
    239f:	83 c4 10             	add    $0x10,%esp
    23a2:	84 c0                	test   %al,%al
    23a4:	74 3d                	je     23e3 <term_damage+0xb3>
    23a6:	83 ec 0c             	sub    $0xc,%esp
    23a9:	8b 45 d8             	mov    -0x28(%ebp),%eax
    23ac:	8b 4d dc             	mov    -0x24(%ebp),%ecx
    23af:	8b 55 e0             	mov    -0x20(%ebp),%edx
    23b2:	50                   	push   %eax
    23b3:	89 f0                	mov    %esi,%eax
    23b5:	e8 06 f9 ff ff       	call   1cc0 <term_update_cursor>
    23ba:	8b 4e 14             	mov    0x14(%esi),%ecx
    23bd:	5a                   	pop    %edx
    23be:	51                   	push   %ecx
    23bf:	e8 8c 1b 00 00       	call   3f50 <window_yield>
    23c4:	8b 76 14             	mov    0x14(%esi),%esi
    23c7:	5b                   	pop    %ebx
    23c8:	56                   	push   %esi
    23c9:	e8 a2 1a 00 00       	call   3e70 <window_damage>
    23ce:	8b 45 d4             	mov    -0x2c(%ebp),%eax
    23d1:	5f                   	pop    %edi
    23d2:	50                   	push   %eax
    23d3:	e8 a8 58 00 00       	call   7c80 <fibril_mutex_unlock@plt>
    23d8:	83 c4 10             	add    $0x10,%esp
    23db:	8d 65 f4             	lea    -0xc(%ebp),%esp
    23de:	5b                   	pop    %ebx
    23df:	5e                   	pop    %esi
    23e0:	5f                   	pop    %edi
    23e1:	5d                   	pop    %ebp
    23e2:	c3                   	ret    
    23e3:	8b 96 a8 00 00 00    	mov    0xa8(%esi),%edx
    23e9:	85 d2                	test   %edx,%edx
    23eb:	74 b9                	je     23a6 <term_damage+0x76>
    23ed:	8b 86 a4 00 00 00    	mov    0xa4(%esi),%eax
    23f3:	31 db                	xor    %ebx,%ebx
    23f5:	c7 45 e4 00 00 00 00 	movl   $0x0,-0x1c(%ebp)
    23fc:	85 c0                	test   %eax,%eax
    23fe:	0f 84 b8 00 00 00    	je     24bc <term_damage+0x18c>
    2404:	8d 74 26 00          	lea    0x0(%esi,%eiz,1),%esi
    2408:	8b 8e ac 00 00 00    	mov    0xac(%esi),%ecx
    240e:	8b 45 e4             	mov    -0x1c(%ebp),%eax
    2411:	31 d2                	xor    %edx,%edx
    2413:	8b 79 2c             	mov    0x2c(%ecx),%edi
    2416:	01 f8                	add    %edi,%eax
    2418:	8b be b0 00 00 00    	mov    0xb0(%esi),%edi
    241e:	f7 71 0c             	divl   0xc(%ecx)
    2421:	8b 41 08             	mov    0x8(%ecx),%eax
    2424:	0f af d0             	imul   %eax,%edx
    2427:	01 da                	add    %ebx,%edx
    2429:	8d 04 52             	lea    (%edx,%edx,2),%eax
    242c:	8b 57 2c             	mov    0x2c(%edi),%edx
    242f:	8d 4c c1 30          	lea    0x30(%ecx,%eax,8),%ecx
    2433:	8b 45 e4             	mov    -0x1c(%ebp),%eax
    2436:	01 d0                	add    %edx,%eax
    2438:	31 d2                	xor    %edx,%edx
    243a:	f7 77 0c             	divl   0xc(%edi)
    243d:	8b 47 08             	mov    0x8(%edi),%eax
    2440:	0f af d0             	imul   %eax,%edx
    2443:	01 da                	add    %ebx,%edx
    2445:	8d 04 52             	lea    (%edx,%edx,2),%eax
    2448:	8b 11                	mov    (%ecx),%edx
    244a:	8d 44 c7 30          	lea    0x30(%edi,%eax,8),%eax
    244e:	89 10                	mov    %edx,(%eax)
    2450:	8b 51 04             	mov    0x4(%ecx),%edx
    2453:	89 50 04             	mov    %edx,0x4(%eax)
    2456:	8b 51 08             	mov    0x8(%ecx),%edx
    2459:	89 50 08             	mov    %edx,0x8(%eax)
    245c:	8b 51 0c             	mov    0xc(%ecx),%edx
    245f:	89 50 0c             	mov    %edx,0xc(%eax)
    2462:	8b 51 10             	mov    0x10(%ecx),%edx
    2465:	89 50 10             	mov    %edx,0x10(%eax)
    2468:	8b 41 14             	mov    0x14(%ecx),%eax
    246b:	83 e0 fe             	and    $0xfffffffe,%eax
    246e:	8b 55 e0             	mov    -0x20(%ebp),%edx
    2471:	89 41 14             	mov    %eax,0x14(%ecx)
    2474:	50                   	push   %eax
    2475:	8b 45 e4             	mov    -0x1c(%ebp),%eax
    2478:	8b 4d dc             	mov    -0x24(%ebp),%ecx
    247b:	50                   	push   %eax
    247c:	8b 45 d8             	mov    -0x28(%ebp),%eax
    247f:	53                   	push   %ebx
    2480:	50                   	push   %eax
    2481:	89 f0                	mov    %esi,%eax
    2483:	43                   	inc    %ebx
    2484:	e8 17 f3 ff ff       	call   17a0 <term_update_char>
    2489:	8b 86 a4 00 00 00    	mov    0xa4(%esi),%eax
    248f:	83 c4 10             	add    $0x10,%esp
    2492:	39 d8                	cmp    %ebx,%eax
    2494:	0f 87 6e ff ff ff    	ja     2408 <term_damage+0xd8>
    249a:	8b 96 a8 00 00 00    	mov    0xa8(%esi),%edx
    24a0:	8b 5d e4             	mov    -0x1c(%ebp),%ebx
    24a3:	43                   	inc    %ebx
    24a4:	89 5d e4             	mov    %ebx,-0x1c(%ebp)
    24a7:	8b 7d e4             	mov    -0x1c(%ebp),%edi
    24aa:	39 d7                	cmp    %edx,%edi
    24ac:	0f 83 f4 fe ff ff    	jae    23a6 <term_damage+0x76>
    24b2:	31 db                	xor    %ebx,%ebx
    24b4:	85 c0                	test   %eax,%eax
    24b6:	0f 85 4c ff ff ff    	jne    2408 <term_damage+0xd8>
    24bc:	8b 4d e4             	mov    -0x1c(%ebp),%ecx
    24bf:	41                   	inc    %ecx
    24c0:	89 4d e4             	mov    %ecx,-0x1c(%ebp)
    24c3:	8b 5d e4             	mov    -0x1c(%ebp),%ebx
    24c6:	39 da                	cmp    %ebx,%edx
    24c8:	77 d6                	ja     24a0 <term_damage+0x170>
    24ca:	e9 d7 fe ff ff       	jmp    23a6 <term_damage+0x76>
    24cf:	83 ec 0c             	sub    $0xc,%esp
    24d2:	8b 4e 14             	mov    0x14(%esi),%ecx
    24d5:	51                   	push   %ecx
    24d6:	e8 75 1a 00 00       	call   3f50 <window_yield>
    24db:	8b 75 d4             	mov    -0x2c(%ebp),%esi
    24de:	5b                   	pop    %ebx
    24df:	56                   	push   %esi
    24e0:	e8 9b 57 00 00       	call   7c80 <fibril_mutex_unlock@plt>
    24e5:	83 c4 10             	add    $0x10,%esp
    24e8:	8d 65 f4             	lea    -0xc(%ebp),%esp
    24eb:	5b                   	pop    %ebx
    24ec:	5e                   	pop    %esi
    24ed:	5f                   	pop    %edi
    24ee:	5d                   	pop    %ebp
    24ef:	c3                   	ret    

000024f0 <terminal_repaint>:
    24f0:	55                   	push   %ebp
    24f1:	89 e5                	mov    %esp,%ebp
    24f3:	8b 45 08             	mov    0x8(%ebp),%eax
    24f6:	5d                   	pop    %ebp
    24f7:	e9 34 fe ff ff       	jmp    2330 <term_damage>
    24fc:	8d 74 26 00          	lea    0x0(%esi,%eiz,1),%esi

00002500 <terminal_rearrange>:
    2500:	55                   	push   %ebp
    2501:	89 e5                	mov    %esp,%ebp
    2503:	57                   	push   %edi
    2504:	56                   	push   %esi
    2505:	53                   	push   %ebx
    2506:	83 ec 18             	sub    $0x18,%esp
    2509:	8b 5d 08             	mov    0x8(%ebp),%ebx
    250c:	8b 7d 14             	mov    0x14(%ebp),%edi
    250f:	8b 75 18             	mov    0x18(%ebp),%esi
    2512:	8b 45 10             	mov    0x10(%ebp),%eax
    2515:	8b 55 0c             	mov    0xc(%ebp),%edx
    2518:	56                   	push   %esi
    2519:	57                   	push   %edi
    251a:	50                   	push   %eax
    251b:	52                   	push   %edx
    251c:	53                   	push   %ebx
    251d:	e8 7e 05 00 00       	call   2aa0 <widget_modify>
    2522:	89 7b 34             	mov    %edi,0x34(%ebx)
    2525:	89 73 38             	mov    %esi,0x38(%ebx)
    2528:	83 c4 20             	add    $0x20,%esp
    252b:	8d 65 f4             	lea    -0xc(%ebp),%esp
    252e:	89 d8                	mov    %ebx,%eax
    2530:	5b                   	pop    %ebx
    2531:	5e                   	pop    %esi
    2532:	5f                   	pop    %edi
    2533:	5d                   	pop    %ebp
    2534:	e9 f7 fd ff ff       	jmp    2330 <term_damage>
    2539:	8d b4 26 00 00 00 00 	lea    0x0(%esi,%eiz,1),%esi

00002540 <deinit_terminal>:
    2540:	55                   	push   %ebp
    2541:	89 e5                	mov    %esp,%ebp
    2543:	53                   	push   %ebx
    2544:	50                   	push   %eax
    2545:	8b 5d 08             	mov    0x8(%ebp),%ebx
    2548:	8b 53 6c             	mov    0x6c(%ebx),%edx
    254b:	85 d2                	test   %edx,%edx
    254d:	74 0f                	je     255e <deinit_terminal+0x1e>
    254f:	8b 43 70             	mov    0x70(%ebx),%eax
    2552:	85 c0                	test   %eax,%eax
    2554:	74 08                	je     255e <deinit_terminal+0x1e>
    2556:	89 10                	mov    %edx,(%eax)
    2558:	8b 53 6c             	mov    0x6c(%ebx),%edx
    255b:	89 42 04             	mov    %eax,0x4(%edx)
    255e:	83 ec 0c             	sub    $0xc,%esp
    2561:	c7 43 6c 00 00 00 00 	movl   $0x0,0x6c(%ebx)
    2568:	c7 43 70 00 00 00 00 	movl   $0x0,0x70(%ebx)
    256f:	53                   	push   %ebx
    2570:	e8 5b 05 00 00       	call   2ad0 <widget_deinit>
    2575:	8b 83 ac 00 00 00    	mov    0xac(%ebx),%eax
    257b:	83 c4 10             	add    $0x10,%esp
    257e:	85 c0                	test   %eax,%eax
    2580:	74 0c                	je     258e <deinit_terminal+0x4e>
    2582:	83 ec 0c             	sub    $0xc,%esp
    2585:	50                   	push   %eax
    2586:	e8 25 58 00 00       	call   7db0 <chargrid_destroy@plt>
    258b:	83 c4 10             	add    $0x10,%esp
    258e:	8b 83 b0 00 00 00    	mov    0xb0(%ebx),%eax
    2594:	85 c0                	test   %eax,%eax
    2596:	74 10                	je     25a8 <deinit_terminal+0x68>
    2598:	8b 5d fc             	mov    -0x4(%ebp),%ebx
    259b:	89 45 08             	mov    %eax,0x8(%ebp)
    259e:	c9                   	leave  
    259f:	e9 0c 58 00 00       	jmp    7db0 <chargrid_destroy@plt>
    25a4:	8d 74 26 00          	lea    0x0(%esi,%eiz,1),%esi
    25a8:	8b 5d fc             	mov    -0x4(%ebp),%ebx
    25ab:	c9                   	leave  
    25ac:	c3                   	ret    
    25ad:	8d 76 00             	lea    0x0(%esi),%esi

000025b0 <init_terminal>:
    25b0:	55                   	push   %ebp
    25b1:	89 e5                	mov    %esp,%ebp
    25b3:	57                   	push   %edi
    25b4:	56                   	push   %esi
    25b5:	53                   	push   %ebx
    25b6:	81 ec 10 01 00 00    	sub    $0x110,%esp
    25bc:	8b 5d 08             	mov    0x8(%ebp),%ebx
    25bf:	8b 45 10             	mov    0x10(%ebp),%eax
    25c2:	50                   	push   %eax
    25c3:	8b 45 0c             	mov    0xc(%ebp),%eax
    25c6:	50                   	push   %eax
    25c7:	8b 75 14             	mov    0x14(%ebp),%esi
    25ca:	53                   	push   %ebx
    25cb:	8b 7d 18             	mov    0x18(%ebp),%edi
    25ce:	e8 2d 04 00 00       	call   2a00 <widget_init>
    25d3:	8d 43 5c             	lea    0x5c(%ebx),%eax
    25d6:	c7 43 6c 00 00 00 00 	movl   $0x0,0x6c(%ebx)
    25dd:	c7 43 70 00 00 00 00 	movl   $0x0,0x70(%ebx)
    25e4:	89 04 24             	mov    %eax,(%esp)
    25e7:	e8 b4 56 00 00       	call   7ca0 <fibril_mutex_initialize@plt>
    25ec:	8d 43 78             	lea    0x78(%ebx),%eax
    25ef:	c7 43 74 00 00 00 00 	movl   $0x0,0x74(%ebx)
    25f6:	89 04 24             	mov    %eax,(%esp)
    25f9:	e8 e2 56 00 00       	call   7ce0 <prodcons_initialize@plt>
    25fe:	83 c4 0c             	add    $0xc,%esp
    2601:	89 73 24             	mov    %esi,0x24(%ebx)
    2604:	89 7b 28             	mov    %edi,0x28(%ebx)
    2607:	89 73 34             	mov    %esi,0x34(%ebx)
    260a:	89 7b 38             	mov    %edi,0x38(%ebx)
    260d:	c7 83 a0 00 00 00 00 	movl   $0x0,0xa0(%ebx)
    2614:	00 00 00 
    2617:	c1 ee 03             	shr    $0x3,%esi
    261a:	c7 43 44 30 17 00 00 	movl   $0x1730,0x44(%ebx)
    2621:	c1 ef 04             	shr    $0x4,%edi
    2624:	c7 43 48 a0 12 00 00 	movl   $0x12a0,0x48(%ebx)
    262b:	c7 43 4c 00 25 00 00 	movl   $0x2500,0x4c(%ebx)
    2632:	c7 43 50 f0 24 00 00 	movl   $0x24f0,0x50(%ebx)
    2639:	c7 43 54 c0 16 00 00 	movl   $0x16c0,0x54(%ebx)
    2640:	c7 43 58 20 16 00 00 	movl   $0x1620,0x58(%ebx)
    2647:	89 b3 a4 00 00 00    	mov    %esi,0xa4(%ebx)
    264d:	89 bb a8 00 00 00    	mov    %edi,0xa8(%ebx)
    2653:	c7 83 ac 00 00 00 00 	movl   $0x0,0xac(%ebx)
    265a:	00 00 00 
    265d:	c7 83 b0 00 00 00 00 	movl   $0x0,0xb0(%ebx)
    2664:	00 00 00 
    2667:	6a 00                	push   $0x0
    2669:	57                   	push   %edi
    266a:	56                   	push   %esi
    266b:	e8 e0 54 00 00       	call   7b50 <chargrid_create@plt>
    2670:	83 c4 10             	add    $0x10,%esp
    2673:	89 83 ac 00 00 00    	mov    %eax,0xac(%ebx)
    2679:	85 c0                	test   %eax,%eax
    267b:	0f 84 27 01 00 00    	je     27a8 <init_terminal+0x1f8>
    2681:	51                   	push   %ecx
    2682:	6a 00                	push   $0x0
    2684:	8b b3 a8 00 00 00    	mov    0xa8(%ebx),%esi
    268a:	56                   	push   %esi
    268b:	8b bb a4 00 00 00    	mov    0xa4(%ebx),%edi
    2691:	57                   	push   %edi
    2692:	e8 b9 54 00 00       	call   7b50 <chargrid_create@plt>
    2697:	83 c4 10             	add    $0x10,%esp
    269a:	89 83 b0 00 00 00    	mov    %eax,0xb0(%ebx)
    26a0:	85 c0                	test   %eax,%eax
    26a2:	0f 84 00 01 00 00    	je     27a8 <init_terminal+0x1f8>
    26a8:	83 ec 0c             	sub    $0xc,%esp
    26ab:	8b b3 ac 00 00 00    	mov    0xac(%ebx),%esi
    26b1:	56                   	push   %esi
    26b2:	e8 09 55 00 00       	call   7bc0 <chargrid_clear@plt>
    26b7:	8b 83 b0 00 00 00    	mov    0xb0(%ebx),%eax
    26bd:	5f                   	pop    %edi
    26be:	50                   	push   %eax
    26bf:	e8 fc 54 00 00       	call   7bc0 <chargrid_clear@plt>
    26c4:	c7 83 b4 00 00 00 00 	movl   $0x0,0xb4(%ebx)
    26cb:	00 00 00 
    26ce:	58                   	pop    %eax
    26cf:	5a                   	pop    %edx
    26d0:	6a 00                	push   $0x0
    26d2:	68 80 15 00 00       	push   $0x1580
    26d7:	e8 74 57 00 00       	call   7e50 <async_set_fallback_port_handler@plt>
    26dc:	8d 83 bc 00 00 00    	lea    0xbc(%ebx),%eax
    26e2:	89 04 24             	mov    %eax,(%esp)
    26e5:	e8 e6 55 00 00       	call   7cd0 <con_srvs_init@plt>
    26ea:	c7 83 bc 00 00 00 00 	movl   $0x9a00,0xbc(%ebx)
    26f1:	9a 00 00 
    26f4:	89 9b c0 00 00 00    	mov    %ebx,0xc0(%ebx)
    26fa:	c7 04 24 13 77 00 00 	movl   $0x7713,(%esp)
    2701:	e8 8a 56 00 00       	call   7d90 <loc_server_register@plt>
    2706:	83 c4 10             	add    $0x10,%esp
    2709:	85 c0                	test   %eax,%eax
    270b:	0f 85 97 00 00 00    	jne    27a8 <init_terminal+0x1f8>
    2711:	e8 ea 55 00 00       	call   7d00 <task_get_id@plt>
    2716:	8d b5 e8 fe ff ff    	lea    -0x118(%ebp),%esi
    271c:	51                   	push   %ecx
    271d:	51                   	push   %ecx
    271e:	52                   	push   %edx
    271f:	50                   	push   %eax
    2720:	68 13 77 00 00       	push   $0x7713
    2725:	68 7c 77 00 00       	push   $0x777c
    272a:	68 ff 00 00 00       	push   $0xff
    272f:	56                   	push   %esi
    2730:	e8 3b 54 00 00       	call   7b70 <snprintf@plt>
    2735:	83 c4 18             	add    $0x18,%esp
    2738:	8d 83 b8 00 00 00    	lea    0xb8(%ebx),%eax
    273e:	50                   	push   %eax
    273f:	56                   	push   %esi
    2740:	e8 3b 54 00 00       	call   7b80 <loc_service_register@plt>
    2745:	83 c4 10             	add    $0x10,%esp
    2748:	85 c0                	test   %eax,%eax
    274a:	75 5c                	jne    27a8 <init_terminal+0x1f8>
    274c:	8b 15 3c 9a 00 00    	mov    0x9a3c,%edx
    2752:	8d 43 6c             	lea    0x6c(%ebx),%eax
    2755:	c7 43 70 3c 9a 00 00 	movl   $0x9a3c,0x70(%ebx)
    275c:	89 53 6c             	mov    %edx,0x6c(%ebx)
    275f:	a3 3c 9a 00 00       	mov    %eax,0x9a3c
    2764:	89 42 04             	mov    %eax,0x4(%edx)
    2767:	50                   	push   %eax
    2768:	6a 00                	push   $0x0
    276a:	68 84 77 00 00       	push   $0x7784
    276f:	68 8e 77 00 00       	push   $0x778e
    2774:	68 91 77 00 00       	push   $0x7791
    2779:	68 98 77 00 00       	push   $0x7798
    277e:	68 9e 77 00 00       	push   $0x779e
    2783:	56                   	push   %esi
    2784:	68 a3 77 00 00       	push   $0x77a3
    2789:	68 a3 77 00 00       	push   $0x77a3
    278e:	6a 00                	push   $0x0
    2790:	6a 00                	push   $0x0
    2792:	e8 d9 56 00 00       	call   7e70 <task_spawnl@plt>
    2797:	83 c4 30             	add    $0x30,%esp
    279a:	8d 65 f4             	lea    -0xc(%ebp),%esp
    279d:	b0 01                	mov    $0x1,%al
    279f:	5b                   	pop    %ebx
    27a0:	5e                   	pop    %esi
    27a1:	5f                   	pop    %edi
    27a2:	5d                   	pop    %ebp
    27a3:	c3                   	ret    
    27a4:	8d 74 26 00          	lea    0x0(%esi,%eiz,1),%esi
    27a8:	83 ec 0c             	sub    $0xc,%esp
    27ab:	53                   	push   %ebx
    27ac:	e8 1f 03 00 00       	call   2ad0 <widget_deinit>
    27b1:	83 c4 10             	add    $0x10,%esp
    27b4:	8d 65 f4             	lea    -0xc(%ebp),%esp
    27b7:	31 c0                	xor    %eax,%eax
    27b9:	5b                   	pop    %ebx
    27ba:	5e                   	pop    %esi
    27bb:	5f                   	pop    %edi
    27bc:	5d                   	pop    %ebp
    27bd:	c3                   	ret    
    27be:	66 90                	xchg   %ax,%ax

000027c0 <create_terminal>:
    27c0:	55                   	push   %ebp
    27c1:	89 e5                	mov    %esp,%ebp
    27c3:	57                   	push   %edi
    27c4:	56                   	push   %esi
    27c5:	53                   	push   %ebx
    27c6:	81 ec 18 01 00 00    	sub    $0x118,%esp
    27cc:	8b 75 10             	mov    0x10(%ebp),%esi
    27cf:	8b 7d 14             	mov    0x14(%ebp),%edi
    27d2:	68 cc 00 00 00       	push   $0xcc
    27d7:	e8 d4 53 00 00       	call   7bb0 <malloc@plt>
    27dc:	83 c4 10             	add    $0x10,%esp
    27df:	89 c3                	mov    %eax,%ebx
    27e1:	85 c0                	test   %eax,%eax
    27e3:	0f 84 01 02 00 00    	je     29ea <create_terminal+0x22a>
    27e9:	50                   	push   %eax
    27ea:	8b 45 0c             	mov    0xc(%ebp),%eax
    27ed:	50                   	push   %eax
    27ee:	8b 45 08             	mov    0x8(%ebp),%eax
    27f1:	50                   	push   %eax
    27f2:	53                   	push   %ebx
    27f3:	e8 08 02 00 00       	call   2a00 <widget_init>
    27f8:	8d 43 5c             	lea    0x5c(%ebx),%eax
    27fb:	c7 43 6c 00 00 00 00 	movl   $0x0,0x6c(%ebx)
    2802:	c7 43 70 00 00 00 00 	movl   $0x0,0x70(%ebx)
    2809:	89 04 24             	mov    %eax,(%esp)
    280c:	e8 8f 54 00 00       	call   7ca0 <fibril_mutex_initialize@plt>
    2811:	8d 43 78             	lea    0x78(%ebx),%eax
    2814:	c7 43 74 00 00 00 00 	movl   $0x0,0x74(%ebx)
    281b:	89 04 24             	mov    %eax,(%esp)
    281e:	e8 bd 54 00 00       	call   7ce0 <prodcons_initialize@plt>
    2823:	83 c4 0c             	add    $0xc,%esp
    2826:	89 73 24             	mov    %esi,0x24(%ebx)
    2829:	89 7b 28             	mov    %edi,0x28(%ebx)
    282c:	89 73 34             	mov    %esi,0x34(%ebx)
    282f:	89 7b 38             	mov    %edi,0x38(%ebx)
    2832:	c7 83 a0 00 00 00 00 	movl   $0x0,0xa0(%ebx)
    2839:	00 00 00 
    283c:	c1 ee 03             	shr    $0x3,%esi
    283f:	c7 43 44 30 17 00 00 	movl   $0x1730,0x44(%ebx)
    2846:	c1 ef 04             	shr    $0x4,%edi
    2849:	c7 43 48 a0 12 00 00 	movl   $0x12a0,0x48(%ebx)
    2850:	c7 43 4c 00 25 00 00 	movl   $0x2500,0x4c(%ebx)
    2857:	c7 43 50 f0 24 00 00 	movl   $0x24f0,0x50(%ebx)
    285e:	c7 43 54 c0 16 00 00 	movl   $0x16c0,0x54(%ebx)
    2865:	c7 43 58 20 16 00 00 	movl   $0x1620,0x58(%ebx)
    286c:	89 b3 a4 00 00 00    	mov    %esi,0xa4(%ebx)
    2872:	89 bb a8 00 00 00    	mov    %edi,0xa8(%ebx)
    2878:	c7 83 ac 00 00 00 00 	movl   $0x0,0xac(%ebx)
    287f:	00 00 00 
    2882:	c7 83 b0 00 00 00 00 	movl   $0x0,0xb0(%ebx)
    2889:	00 00 00 
    288c:	6a 00                	push   $0x0
    288e:	57                   	push   %edi
    288f:	56                   	push   %esi
    2890:	e8 bb 52 00 00       	call   7b50 <chargrid_create@plt>
    2895:	83 c4 10             	add    $0x10,%esp
    2898:	89 83 ac 00 00 00    	mov    %eax,0xac(%ebx)
    289e:	85 c0                	test   %eax,%eax
    28a0:	0f 84 2a 01 00 00    	je     29d0 <create_terminal+0x210>
    28a6:	51                   	push   %ecx
    28a7:	6a 00                	push   $0x0
    28a9:	8b b3 a8 00 00 00    	mov    0xa8(%ebx),%esi
    28af:	56                   	push   %esi
    28b0:	8b bb a4 00 00 00    	mov    0xa4(%ebx),%edi
    28b6:	57                   	push   %edi
    28b7:	e8 94 52 00 00       	call   7b50 <chargrid_create@plt>
    28bc:	83 c4 10             	add    $0x10,%esp
    28bf:	89 83 b0 00 00 00    	mov    %eax,0xb0(%ebx)
    28c5:	85 c0                	test   %eax,%eax
    28c7:	0f 84 03 01 00 00    	je     29d0 <create_terminal+0x210>
    28cd:	83 ec 0c             	sub    $0xc,%esp
    28d0:	8b b3 ac 00 00 00    	mov    0xac(%ebx),%esi
    28d6:	56                   	push   %esi
    28d7:	e8 e4 52 00 00       	call   7bc0 <chargrid_clear@plt>
    28dc:	8b 83 b0 00 00 00    	mov    0xb0(%ebx),%eax
    28e2:	5f                   	pop    %edi
    28e3:	50                   	push   %eax
    28e4:	e8 d7 52 00 00       	call   7bc0 <chargrid_clear@plt>
    28e9:	c7 83 b4 00 00 00 00 	movl   $0x0,0xb4(%ebx)
    28f0:	00 00 00 
    28f3:	58                   	pop    %eax
    28f4:	5a                   	pop    %edx
    28f5:	6a 00                	push   $0x0
    28f7:	68 80 15 00 00       	push   $0x1580
    28fc:	e8 4f 55 00 00       	call   7e50 <async_set_fallback_port_handler@plt>
    2901:	8d 83 bc 00 00 00    	lea    0xbc(%ebx),%eax
    2907:	89 04 24             	mov    %eax,(%esp)
    290a:	e8 c1 53 00 00       	call   7cd0 <con_srvs_init@plt>
    290f:	c7 83 bc 00 00 00 00 	movl   $0x9a00,0xbc(%ebx)
    2916:	9a 00 00 
    2919:	89 9b c0 00 00 00    	mov    %ebx,0xc0(%ebx)
    291f:	c7 04 24 13 77 00 00 	movl   $0x7713,(%esp)
    2926:	e8 65 54 00 00       	call   7d90 <loc_server_register@plt>
    292b:	83 c4 10             	add    $0x10,%esp
    292e:	85 c0                	test   %eax,%eax
    2930:	0f 85 9a 00 00 00    	jne    29d0 <create_terminal+0x210>
    2936:	e8 c5 53 00 00       	call   7d00 <task_get_id@plt>
    293b:	8d b5 e8 fe ff ff    	lea    -0x118(%ebp),%esi
    2941:	51                   	push   %ecx
    2942:	51                   	push   %ecx
    2943:	52                   	push   %edx
    2944:	50                   	push   %eax
    2945:	68 13 77 00 00       	push   $0x7713
    294a:	68 7c 77 00 00       	push   $0x777c
    294f:	68 ff 00 00 00       	push   $0xff
    2954:	56                   	push   %esi
    2955:	e8 16 52 00 00       	call   7b70 <snprintf@plt>
    295a:	83 c4 18             	add    $0x18,%esp
    295d:	8d 83 b8 00 00 00    	lea    0xb8(%ebx),%eax
    2963:	50                   	push   %eax
    2964:	56                   	push   %esi
    2965:	e8 16 52 00 00       	call   7b80 <loc_service_register@plt>
    296a:	83 c4 10             	add    $0x10,%esp
    296d:	85 c0                	test   %eax,%eax
    296f:	75 5f                	jne    29d0 <create_terminal+0x210>
    2971:	8b 15 3c 9a 00 00    	mov    0x9a3c,%edx
    2977:	8d 43 6c             	lea    0x6c(%ebx),%eax
    297a:	c7 43 70 3c 9a 00 00 	movl   $0x9a3c,0x70(%ebx)
    2981:	89 53 6c             	mov    %edx,0x6c(%ebx)
    2984:	a3 3c 9a 00 00       	mov    %eax,0x9a3c
    2989:	89 42 04             	mov    %eax,0x4(%edx)
    298c:	50                   	push   %eax
    298d:	6a 00                	push   $0x0
    298f:	68 84 77 00 00       	push   $0x7784
    2994:	68 8e 77 00 00       	push   $0x778e
    2999:	68 91 77 00 00       	push   $0x7791
    299e:	68 98 77 00 00       	push   $0x7798
    29a3:	68 9e 77 00 00       	push   $0x779e
    29a8:	56                   	push   %esi
    29a9:	68 a3 77 00 00       	push   $0x77a3
    29ae:	68 a3 77 00 00       	push   $0x77a3
    29b3:	6a 00                	push   $0x0
    29b5:	6a 00                	push   $0x0
    29b7:	e8 b4 54 00 00       	call   7e70 <task_spawnl@plt>
    29bc:	83 c4 30             	add    $0x30,%esp
    29bf:	8d 65 f4             	lea    -0xc(%ebp),%esp
    29c2:	89 d8                	mov    %ebx,%eax
    29c4:	5b                   	pop    %ebx
    29c5:	5e                   	pop    %esi
    29c6:	5f                   	pop    %edi
    29c7:	5d                   	pop    %ebp
    29c8:	c3                   	ret    
    29c9:	8d b4 26 00 00 00 00 	lea    0x0(%esi,%eiz,1),%esi
    29d0:	83 ec 0c             	sub    $0xc,%esp
    29d3:	53                   	push   %ebx
    29d4:	e8 f7 00 00 00       	call   2ad0 <widget_deinit>
    29d9:	83 c4 10             	add    $0x10,%esp
    29dc:	83 ec 0c             	sub    $0xc,%esp
    29df:	53                   	push   %ebx
    29e0:	31 db                	xor    %ebx,%ebx
    29e2:	e8 b9 54 00 00       	call   7ea0 <free@plt>
    29e7:	83 c4 10             	add    $0x10,%esp
    29ea:	8d 65 f4             	lea    -0xc(%ebp),%esp
    29ed:	89 d8                	mov    %ebx,%eax
    29ef:	5b                   	pop    %ebx
    29f0:	5e                   	pop    %esi
    29f1:	5f                   	pop    %edi
    29f2:	5d                   	pop    %ebp
    29f3:	c3                   	ret    
    29f4:	66 90                	xchg   %ax,%ax
    29f6:	66 90                	xchg   %ax,%ax
    29f8:	66 90                	xchg   %ax,%ax
    29fa:	66 90                	xchg   %ax,%ax
    29fc:	66 90                	xchg   %ax,%ax
    29fe:	66 90                	xchg   %ax,%ax

00002a00 <widget_init>:
    2a00:	55                   	push   %ebp
    2a01:	89 e5                	mov    %esp,%ebp
    2a03:	8b 45 08             	mov    0x8(%ebp),%eax
    2a06:	8b 55 0c             	mov    0xc(%ebp),%edx
    2a09:	85 d2                	test   %edx,%edx
    2a0b:	8d 48 0c             	lea    0xc(%eax),%ecx
    2a0e:	c7 00 00 00 00 00    	movl   $0x0,(%eax)
    2a14:	c7 40 04 00 00 00 00 	movl   $0x0,0x4(%eax)
    2a1b:	89 48 0c             	mov    %ecx,0xc(%eax)
    2a1e:	89 48 10             	mov    %ecx,0x10(%eax)
    2a21:	74 6d                	je     2a90 <widget_init+0x90>
    2a23:	8d 4a 0c             	lea    0xc(%edx),%ecx
    2a26:	89 50 08             	mov    %edx,0x8(%eax)
    2a29:	89 48 04             	mov    %ecx,0x4(%eax)
    2a2c:	8b 4a 0c             	mov    0xc(%edx),%ecx
    2a2f:	89 08                	mov    %ecx,(%eax)
    2a31:	8b 4a 0c             	mov    0xc(%edx),%ecx
    2a34:	89 41 04             	mov    %eax,0x4(%ecx)
    2a37:	89 42 0c             	mov    %eax,0xc(%edx)
    2a3a:	8b 52 14             	mov    0x14(%edx),%edx
    2a3d:	89 50 14             	mov    %edx,0x14(%eax)
    2a40:	8b 55 10             	mov    0x10(%ebp),%edx
    2a43:	c7 40 1c 00 00 00 00 	movl   $0x0,0x1c(%eax)
    2a4a:	89 50 18             	mov    %edx,0x18(%eax)
    2a4d:	c7 40 20 00 00 00 00 	movl   $0x0,0x20(%eax)
    2a54:	c7 40 24 00 00 00 00 	movl   $0x0,0x24(%eax)
    2a5b:	c7 40 28 00 00 00 00 	movl   $0x0,0x28(%eax)
    2a62:	c7 40 2c 00 00 00 00 	movl   $0x0,0x2c(%eax)
    2a69:	c7 40 30 00 00 00 00 	movl   $0x0,0x30(%eax)
    2a70:	c7 40 34 00 00 00 00 	movl   $0x0,0x34(%eax)
    2a77:	c7 40 38 00 00 00 00 	movl   $0x0,0x38(%eax)
    2a7e:	c7 40 3c ff ff ff ff 	movl   $0xffffffff,0x3c(%eax)
    2a85:	c7 40 40 ff ff ff ff 	movl   $0xffffffff,0x40(%eax)
    2a8c:	5d                   	pop    %ebp
    2a8d:	c3                   	ret    
    2a8e:	66 90                	xchg   %ax,%ax
    2a90:	c7 40 08 00 00 00 00 	movl   $0x0,0x8(%eax)
    2a97:	c7 40 14 00 00 00 00 	movl   $0x0,0x14(%eax)
    2a9e:	eb a0                	jmp    2a40 <widget_init+0x40>

00002aa0 <widget_modify>:
    2aa0:	55                   	push   %ebp
    2aa1:	89 e5                	mov    %esp,%ebp
    2aa3:	8b 45 08             	mov    0x8(%ebp),%eax
    2aa6:	8b 55 0c             	mov    0xc(%ebp),%edx
    2aa9:	89 50 1c             	mov    %edx,0x1c(%eax)
    2aac:	8b 55 10             	mov    0x10(%ebp),%edx
    2aaf:	89 50 20             	mov    %edx,0x20(%eax)
    2ab2:	8b 55 14             	mov    0x14(%ebp),%edx
    2ab5:	89 50 24             	mov    %edx,0x24(%eax)
    2ab8:	8b 55 18             	mov    0x18(%ebp),%edx
    2abb:	89 50 28             	mov    %edx,0x28(%eax)
    2abe:	5d                   	pop    %ebp
    2abf:	c3                   	ret    

00002ac0 <widget_get_data>:
    2ac0:	55                   	push   %ebp
    2ac1:	89 e5                	mov    %esp,%ebp
    2ac3:	8b 45 08             	mov    0x8(%ebp),%eax
    2ac6:	5d                   	pop    %ebp
    2ac7:	8b 40 18             	mov    0x18(%eax),%eax
    2aca:	c3                   	ret    
    2acb:	90                   	nop
    2acc:	8d 74 26 00          	lea    0x0(%esi,%eiz,1),%esi

00002ad0 <widget_deinit>:
    2ad0:	55                   	push   %ebp
    2ad1:	89 e5                	mov    %esp,%ebp
    2ad3:	8b 45 08             	mov    0x8(%ebp),%eax
    2ad6:	8b 50 08             	mov    0x8(%eax),%edx
    2ad9:	85 d2                	test   %edx,%edx
    2adb:	74 21                	je     2afe <widget_deinit+0x2e>
    2add:	8b 08                	mov    (%eax),%ecx
    2adf:	85 c9                	test   %ecx,%ecx
    2ae1:	74 0e                	je     2af1 <widget_deinit+0x21>
    2ae3:	8b 50 04             	mov    0x4(%eax),%edx
    2ae6:	85 d2                	test   %edx,%edx
    2ae8:	74 07                	je     2af1 <widget_deinit+0x21>
    2aea:	89 0a                	mov    %ecx,(%edx)
    2aec:	8b 08                	mov    (%eax),%ecx
    2aee:	89 51 04             	mov    %edx,0x4(%ecx)
    2af1:	c7 00 00 00 00 00    	movl   $0x0,(%eax)
    2af7:	c7 40 04 00 00 00 00 	movl   $0x0,0x4(%eax)
    2afe:	5d                   	pop    %ebp
    2aff:	c3                   	ret    

00002b00 <root_handle_keyboard_event>:
    2b00:	55                   	push   %ebp
    2b01:	89 e5                	mov    %esp,%ebp
    2b03:	57                   	push   %edi
    2b04:	56                   	push   %esi
    2b05:	8b 45 08             	mov    0x8(%ebp),%eax
    2b08:	83 c0 0c             	add    $0xc,%eax
    2b0b:	8b 50 04             	mov    0x4(%eax),%edx
    2b0e:	39 c2                	cmp    %eax,%edx
    2b10:	74 1e                	je     2b30 <root_handle_keyboard_event+0x30>
    2b12:	8d 7d 0c             	lea    0xc(%ebp),%edi
    2b15:	b9 06 00 00 00       	mov    $0x6,%ecx
    2b1a:	89 fe                	mov    %edi,%esi
    2b1c:	f3 a5                	rep movsl %ds:(%esi),%es:(%edi)
    2b1e:	89 55 08             	mov    %edx,0x8(%ebp)
    2b21:	5e                   	pop    %esi
    2b22:	8b 42 54             	mov    0x54(%edx),%eax
    2b25:	5f                   	pop    %edi
    2b26:	5d                   	pop    %ebp
    2b27:	ff e0                	jmp    *%eax
    2b29:	8d b4 26 00 00 00 00 	lea    0x0(%esi,%eiz,1),%esi
    2b30:	5e                   	pop    %esi
    2b31:	5f                   	pop    %edi
    2b32:	5d                   	pop    %ebp
    2b33:	c3                   	ret    
    2b34:	8d b6 00 00 00 00    	lea    0x0(%esi),%esi
    2b3a:	8d bf 00 00 00 00    	lea    0x0(%edi),%edi

00002b40 <root_handle_position_event>:
    2b40:	55                   	push   %ebp
    2b41:	89 e5                	mov    %esp,%ebp
    2b43:	57                   	push   %edi
    2b44:	56                   	push   %esi
    2b45:	53                   	push   %ebx
    2b46:	83 ec 3c             	sub    $0x3c,%esp
    2b49:	8b 55 08             	mov    0x8(%ebp),%edx
    2b4c:	8b 45 0c             	mov    0xc(%ebp),%eax
    2b4f:	89 45 e4             	mov    %eax,-0x1c(%ebp)
    2b52:	8b 45 10             	mov    0x10(%ebp),%eax
    2b55:	8b 7a 14             	mov    0x14(%edx),%edi
    2b58:	89 c1                	mov    %eax,%ecx
    2b5a:	89 45 d8             	mov    %eax,-0x28(%ebp)
    2b5d:	8b 45 14             	mov    0x14(%ebp),%eax
    2b60:	89 45 d4             	mov    %eax,-0x2c(%ebp)
    2b63:	8b 5d 18             	mov    0x18(%ebp),%ebx
    2b66:	8b 75 1c             	mov    0x1c(%ebp),%esi
    2b69:	89 7d dc             	mov    %edi,-0x24(%ebp)
    2b6c:	80 7f 01 00          	cmpb   $0x0,0x1(%edi)
    2b70:	0f 84 e2 00 00 00    	je     2c58 <root_handle_position_event+0x118>
    2b76:	49                   	dec    %ecx
    2b77:	0f 94 45 d3          	sete   -0x2d(%ebp)
    2b7b:	83 f8 01             	cmp    $0x1,%eax
    2b7e:	0f 94 45 e0          	sete   -0x20(%ebp)
    2b82:	8a 4d e0             	mov    -0x20(%ebp),%cl
    2b85:	8b 7a 24             	mov    0x24(%edx),%edi
    2b88:	22 4d d3             	and    -0x2d(%ebp),%cl
    2b8b:	89 7d cc             	mov    %edi,-0x34(%ebp)
    2b8e:	8b 7a 28             	mov    0x28(%edx),%edi
    2b91:	88 4d e0             	mov    %cl,-0x20(%ebp)
    2b94:	89 7d c8             	mov    %edi,-0x38(%ebp)
    2b97:	0f 85 15 01 00 00    	jne    2cb2 <root_handle_position_event+0x172>
    2b9d:	83 f8 02             	cmp    $0x2,%eax
    2ba0:	0f 94 45 e0          	sete   -0x20(%ebp)
    2ba4:	8a 45 e0             	mov    -0x20(%ebp),%al
    2ba7:	c7 45 c0 00 00 00 00 	movl   $0x0,-0x40(%ebp)
    2bae:	22 45 d3             	and    -0x2d(%ebp),%al
    2bb1:	88 45 e0             	mov    %al,-0x20(%ebp)
    2bb4:	8b 45 cc             	mov    -0x34(%ebp),%eax
    2bb7:	83 fb 03             	cmp    $0x3,%ebx
    2bba:	0f 96 45 d3          	setbe  -0x2d(%ebp)
    2bbe:	83 e8 04             	sub    $0x4,%eax
    2bc1:	89 c7                	mov    %eax,%edi
    2bc3:	89 45 bc             	mov    %eax,-0x44(%ebp)
    2bc6:	8b 45 c8             	mov    -0x38(%ebp),%eax
    2bc9:	83 fe 03             	cmp    $0x3,%esi
    2bcc:	0f 96 45 d2          	setbe  -0x2e(%ebp)
    2bd0:	83 e8 04             	sub    $0x4,%eax
    2bd3:	39 c6                	cmp    %eax,%esi
    2bd5:	8d 46 fc             	lea    -0x4(%esi),%eax
    2bd8:	0f 93 45 c8          	setae  -0x38(%ebp)
    2bdc:	83 f8 13             	cmp    $0x13,%eax
    2bdf:	0f 96 45 c4          	setbe  -0x3c(%ebp)
    2be3:	83 fb 03             	cmp    $0x3,%ebx
    2be6:	8a 4d c4             	mov    -0x3c(%ebp),%cl
    2be9:	0f 97 c0             	seta   %al
    2bec:	84 c1                	test   %al,%cl
    2bee:	0f 84 15 01 00 00    	je     2d09 <root_handle_position_event+0x1c9>
    2bf4:	39 fb                	cmp    %edi,%ebx
    2bf6:	0f 83 0d 01 00 00    	jae    2d09 <root_handle_position_event+0x1c9>
    2bfc:	8b 45 cc             	mov    -0x34(%ebp),%eax
    2bff:	c7 45 c4 01 00 00 00 	movl   $0x1,-0x3c(%ebp)
    2c06:	83 e8 18             	sub    $0x18,%eax
    2c09:	39 c3                	cmp    %eax,%ebx
    2c0b:	0f 93 c0             	setae  %al
    2c0e:	25 ff 00 00 00       	and    $0xff,%eax
    2c13:	89 c7                	mov    %eax,%edi
    2c15:	8a 45 d2             	mov    -0x2e(%ebp),%al
    2c18:	84 45 d3             	test   %al,-0x2d(%ebp)
    2c1b:	0f 84 9d 00 00 00    	je     2cbe <root_handle_position_event+0x17e>
    2c21:	80 7d e0 00          	cmpb   $0x0,-0x20(%ebp)
    2c25:	0f 84 93 00 00 00    	je     2cbe <root_handle_position_event+0x17e>
    2c2b:	83 7d c0 01          	cmpl   $0x1,-0x40(%ebp)
    2c2f:	19 c0                	sbb    %eax,%eax
    2c31:	83 e0 24             	and    $0x24,%eax
    2c34:	83 c0 0f             	add    $0xf,%eax
    2c37:	89 45 10             	mov    %eax,0x10(%ebp)
    2c3a:	8b 45 e4             	mov    -0x1c(%ebp),%eax
    2c3d:	89 45 0c             	mov    %eax,0xc(%ebp)
    2c40:	8b 45 dc             	mov    -0x24(%ebp),%eax
    2c43:	8b 40 0c             	mov    0xc(%eax),%eax
    2c46:	89 45 08             	mov    %eax,0x8(%ebp)
    2c49:	8d 65 f4             	lea    -0xc(%ebp),%esp
    2c4c:	5b                   	pop    %ebx
    2c4d:	5e                   	pop    %esi
    2c4e:	5f                   	pop    %edi
    2c4f:	5d                   	pop    %ebp
    2c50:	e9 9b 4e 00 00       	jmp    7af0 <win_grab@plt>
    2c55:	8d 76 00             	lea    0x0(%esi),%esi
    2c58:	8d 42 0c             	lea    0xc(%edx),%eax
    2c5b:	8b 7a 10             	mov    0x10(%edx),%edi
    2c5e:	89 45 dc             	mov    %eax,-0x24(%ebp)
    2c61:	39 c7                	cmp    %eax,%edi
    2c63:	74 45                	je     2caa <root_handle_position_event+0x16a>
    2c65:	89 f0                	mov    %esi,%eax
    2c67:	8b 4d e4             	mov    -0x1c(%ebp),%ecx
    2c6a:	89 de                	mov    %ebx,%esi
    2c6c:	89 c3                	mov    %eax,%ebx
    2c6e:	66 90                	xchg   %ax,%ax
    2c70:	8b 47 58             	mov    0x58(%edi),%eax
    2c73:	83 ec 08             	sub    $0x8,%esp
    2c76:	89 45 e4             	mov    %eax,-0x1c(%ebp)
    2c79:	8b 55 d4             	mov    -0x2c(%ebp),%edx
    2c7c:	8b 45 d8             	mov    -0x28(%ebp),%eax
    2c7f:	53                   	push   %ebx
    2c80:	89 45 10             	mov    %eax,0x10(%ebp)
    2c83:	56                   	push   %esi
    2c84:	52                   	push   %edx
    2c85:	50                   	push   %eax
    2c86:	8b 45 e4             	mov    -0x1c(%ebp),%eax
    2c89:	51                   	push   %ecx
    2c8a:	89 4d 0c             	mov    %ecx,0xc(%ebp)
    2c8d:	57                   	push   %edi
    2c8e:	89 4d e0             	mov    %ecx,-0x20(%ebp)
    2c91:	89 55 14             	mov    %edx,0x14(%ebp)
    2c94:	89 75 18             	mov    %esi,0x18(%ebp)
    2c97:	89 5d 1c             	mov    %ebx,0x1c(%ebp)
    2c9a:	ff d0                	call   *%eax
    2c9c:	8b 7f 04             	mov    0x4(%edi),%edi
    2c9f:	83 c4 20             	add    $0x20,%esp
    2ca2:	8b 4d e0             	mov    -0x20(%ebp),%ecx
    2ca5:	3b 7d dc             	cmp    -0x24(%ebp),%edi
    2ca8:	75 c6                	jne    2c70 <root_handle_position_event+0x130>
    2caa:	8d 65 f4             	lea    -0xc(%ebp),%esp
    2cad:	5b                   	pop    %ebx
    2cae:	5e                   	pop    %esi
    2caf:	5f                   	pop    %edi
    2cb0:	5d                   	pop    %ebp
    2cb1:	c3                   	ret    
    2cb2:	c7 45 c0 01 00 00 00 	movl   $0x1,-0x40(%ebp)
    2cb9:	e9 f6 fe ff ff       	jmp    2bb4 <root_handle_position_event+0x74>
    2cbe:	8a 4d c8             	mov    -0x38(%ebp),%cl
    2cc1:	84 4d d3             	test   %cl,-0x2d(%ebp)
    2cc4:	74 1a                	je     2ce0 <root_handle_position_event+0x1a0>
    2cc6:	80 7d e0 00          	cmpb   $0x0,-0x20(%ebp)
    2cca:	74 14                	je     2ce0 <root_handle_position_event+0x1a0>
    2ccc:	83 7d c0 01          	cmpl   $0x1,-0x40(%ebp)
    2cd0:	19 c0                	sbb    %eax,%eax
    2cd2:	83 e0 24             	and    $0x24,%eax
    2cd5:	83 c0 0d             	add    $0xd,%eax
    2cd8:	89 45 10             	mov    %eax,0x10(%ebp)
    2cdb:	e9 5a ff ff ff       	jmp    2c3a <root_handle_position_event+0xfa>
    2ce0:	3b 5d bc             	cmp    -0x44(%ebp),%ebx
    2ce3:	0f 93 45 cc          	setae  -0x34(%ebp)
    2ce7:	8a 45 cc             	mov    -0x34(%ebp),%al
    2cea:	84 45 c8             	test   %al,-0x38(%ebp)
    2ced:	74 28                	je     2d17 <root_handle_position_event+0x1d7>
    2cef:	80 7d e0 00          	cmpb   $0x0,-0x20(%ebp)
    2cf3:	74 22                	je     2d17 <root_handle_position_event+0x1d7>
    2cf5:	83 7d c0 01          	cmpl   $0x1,-0x40(%ebp)
    2cf9:	19 c0                	sbb    %eax,%eax
    2cfb:	83 e0 24             	and    $0x24,%eax
    2cfe:	83 c0 0c             	add    $0xc,%eax
    2d01:	89 45 10             	mov    %eax,0x10(%ebp)
    2d04:	e9 31 ff ff ff       	jmp    2c3a <root_handle_position_event+0xfa>
    2d09:	c7 45 c4 00 00 00 00 	movl   $0x0,-0x3c(%ebp)
    2d10:	31 ff                	xor    %edi,%edi
    2d12:	e9 fe fe ff ff       	jmp    2c15 <root_handle_position_event+0xd5>
    2d17:	8a 4d d2             	mov    -0x2e(%ebp),%cl
    2d1a:	84 4d cc             	test   %cl,-0x34(%ebp)
    2d1d:	74 1a                	je     2d39 <root_handle_position_event+0x1f9>
    2d1f:	80 7d e0 00          	cmpb   $0x0,-0x20(%ebp)
    2d23:	74 14                	je     2d39 <root_handle_position_event+0x1f9>
    2d25:	83 7d c0 01          	cmpl   $0x1,-0x40(%ebp)
    2d29:	19 c0                	sbb    %eax,%eax
    2d2b:	83 e0 24             	and    $0x24,%eax
    2d2e:	83 c0 0e             	add    $0xe,%eax
    2d31:	89 45 10             	mov    %eax,0x10(%ebp)
    2d34:	e9 01 ff ff ff       	jmp    2c3a <root_handle_position_event+0xfa>
    2d39:	80 7d d2 00          	cmpb   $0x0,-0x2e(%ebp)
    2d3d:	74 1a                	je     2d59 <root_handle_position_event+0x219>
    2d3f:	80 7d e0 00          	cmpb   $0x0,-0x20(%ebp)
    2d43:	74 14                	je     2d59 <root_handle_position_event+0x219>
    2d45:	83 7d c0 01          	cmpl   $0x1,-0x40(%ebp)
    2d49:	19 c0                	sbb    %eax,%eax
    2d4b:	83 e0 18             	and    $0x18,%eax
    2d4e:	83 c0 0a             	add    $0xa,%eax
    2d51:	89 45 10             	mov    %eax,0x10(%ebp)
    2d54:	e9 e1 fe ff ff       	jmp    2c3a <root_handle_position_event+0xfa>
    2d59:	80 7d d3 00          	cmpb   $0x0,-0x2d(%ebp)
    2d5d:	74 1a                	je     2d79 <root_handle_position_event+0x239>
    2d5f:	80 7d e0 00          	cmpb   $0x0,-0x20(%ebp)
    2d63:	74 14                	je     2d79 <root_handle_position_event+0x239>
    2d65:	83 7d c0 01          	cmpl   $0x1,-0x40(%ebp)
    2d69:	19 c0                	sbb    %eax,%eax
    2d6b:	83 e0 0c             	and    $0xc,%eax
    2d6e:	83 c0 05             	add    $0x5,%eax
    2d71:	89 45 10             	mov    %eax,0x10(%ebp)
    2d74:	e9 c1 fe ff ff       	jmp    2c3a <root_handle_position_event+0xfa>
    2d79:	80 7d c8 00          	cmpb   $0x0,-0x38(%ebp)
    2d7d:	74 1a                	je     2d99 <root_handle_position_event+0x259>
    2d7f:	80 7d e0 00          	cmpb   $0x0,-0x20(%ebp)
    2d83:	74 14                	je     2d99 <root_handle_position_event+0x259>
    2d85:	83 7d c0 01          	cmpl   $0x1,-0x40(%ebp)
    2d89:	19 c0                	sbb    %eax,%eax
    2d8b:	83 e0 18             	and    $0x18,%eax
    2d8e:	83 c0 08             	add    $0x8,%eax
    2d91:	89 45 10             	mov    %eax,0x10(%ebp)
    2d94:	e9 a1 fe ff ff       	jmp    2c3a <root_handle_position_event+0xfa>
    2d99:	80 7d cc 00          	cmpb   $0x0,-0x34(%ebp)
    2d9d:	74 1a                	je     2db9 <root_handle_position_event+0x279>
    2d9f:	80 7d e0 00          	cmpb   $0x0,-0x20(%ebp)
    2da3:	74 14                	je     2db9 <root_handle_position_event+0x279>
    2da5:	83 7d c0 01          	cmpl   $0x1,-0x40(%ebp)
    2da9:	19 c0                	sbb    %eax,%eax
    2dab:	83 e0 0c             	and    $0xc,%eax
    2dae:	83 c0 04             	add    $0x4,%eax
    2db1:	89 45 10             	mov    %eax,0x10(%ebp)
    2db4:	e9 81 fe ff ff       	jmp    2c3a <root_handle_position_event+0xfa>
    2db9:	85 7d c0             	test   %edi,-0x40(%ebp)
    2dbc:	75 61                	jne    2e1f <root_handle_position_event+0x2df>
    2dbe:	8b 4d c4             	mov    -0x3c(%ebp),%ecx
    2dc1:	85 4d c0             	test   %ecx,-0x40(%ebp)
    2dc4:	75 6e                	jne    2e34 <root_handle_position_event+0x2f4>
    2dc6:	8d 42 0c             	lea    0xc(%edx),%eax
    2dc9:	8b 7a 10             	mov    0x10(%edx),%edi
    2dcc:	89 45 dc             	mov    %eax,-0x24(%ebp)
    2dcf:	39 f8                	cmp    %edi,%eax
    2dd1:	0f 84 d3 fe ff ff    	je     2caa <root_handle_position_event+0x16a>
    2dd7:	89 f0                	mov    %esi,%eax
    2dd9:	8b 4d e4             	mov    -0x1c(%ebp),%ecx
    2ddc:	89 de                	mov    %ebx,%esi
    2dde:	89 c3                	mov    %eax,%ebx
    2de0:	8b 47 58             	mov    0x58(%edi),%eax
    2de3:	83 ec 08             	sub    $0x8,%esp
    2de6:	89 45 e4             	mov    %eax,-0x1c(%ebp)
    2de9:	8b 55 d4             	mov    -0x2c(%ebp),%edx
    2dec:	8b 45 d8             	mov    -0x28(%ebp),%eax
    2def:	53                   	push   %ebx
    2df0:	89 45 10             	mov    %eax,0x10(%ebp)
    2df3:	56                   	push   %esi
    2df4:	52                   	push   %edx
    2df5:	50                   	push   %eax
    2df6:	8b 45 e4             	mov    -0x1c(%ebp),%eax
    2df9:	51                   	push   %ecx
    2dfa:	89 4d 0c             	mov    %ecx,0xc(%ebp)
    2dfd:	57                   	push   %edi
    2dfe:	89 4d e0             	mov    %ecx,-0x20(%ebp)
    2e01:	89 55 14             	mov    %edx,0x14(%ebp)
    2e04:	89 75 18             	mov    %esi,0x18(%ebp)
    2e07:	89 5d 1c             	mov    %ebx,0x1c(%ebp)
    2e0a:	ff d0                	call   *%eax
    2e0c:	8b 7f 04             	mov    0x4(%edi),%edi
    2e0f:	83 c4 20             	add    $0x20,%esp
    2e12:	8b 4d e0             	mov    -0x20(%ebp),%ecx
    2e15:	39 7d dc             	cmp    %edi,-0x24(%ebp)
    2e18:	75 c6                	jne    2de0 <root_handle_position_event+0x2a0>
    2e1a:	e9 8b fe ff ff       	jmp    2caa <root_handle_position_event+0x16a>
    2e1f:	8b 45 dc             	mov    -0x24(%ebp),%eax
    2e22:	8b 40 0c             	mov    0xc(%eax),%eax
    2e25:	89 45 08             	mov    %eax,0x8(%ebp)
    2e28:	8d 65 f4             	lea    -0xc(%ebp),%esp
    2e2b:	5b                   	pop    %ebx
    2e2c:	5e                   	pop    %esi
    2e2d:	5f                   	pop    %edi
    2e2e:	5d                   	pop    %ebp
    2e2f:	e9 4c 50 00 00       	jmp    7e80 <win_close_request@plt>
    2e34:	c7 45 10 03 00 00 00 	movl   $0x3,0x10(%ebp)
    2e3b:	e9 fa fd ff ff       	jmp    2c3a <root_handle_position_event+0xfa>

00002e40 <root_destroy>:
    2e40:	55                   	push   %ebp
    2e41:	89 e5                	mov    %esp,%ebp
    2e43:	5d                   	pop    %ebp
    2e44:	e9 87 fc ff ff       	jmp    2ad0 <widget_deinit>
    2e49:	8d b4 26 00 00 00 00 	lea    0x0(%esi,%eiz,1),%esi

00002e50 <fetch_input>:
    2e50:	55                   	push   %ebp
    2e51:	89 e5                	mov    %esp,%ebp
    2e53:	57                   	push   %edi
    2e54:	56                   	push   %esi
    2e55:	53                   	push   %ebx
    2e56:	83 ec 0c             	sub    $0xc,%esp
    2e59:	8b 45 08             	mov    0x8(%ebp),%eax
    2e5c:	8d 78 10             	lea    0x10(%eax),%edi
    2e5f:	90                   	nop
    2e60:	83 ec 0c             	sub    $0xc,%esp
    2e63:	6a 24                	push   $0x24
    2e65:	e8 46 4d 00 00       	call   7bb0 <malloc@plt>
    2e6a:	83 c4 10             	add    $0x10,%esp
    2e6d:	89 c6                	mov    %eax,%esi
    2e6f:	85 c0                	test   %eax,%eax
    2e71:	74 37                	je     2eaa <fetch_input+0x5a>
    2e73:	52                   	push   %edx
    2e74:	52                   	push   %edx
    2e75:	50                   	push   %eax
    2e76:	8b 45 08             	mov    0x8(%ebp),%eax
    2e79:	8b 48 08             	mov    0x8(%eax),%ecx
    2e7c:	51                   	push   %ecx
    2e7d:	e8 3e 4e 00 00       	call   7cc0 <win_get_event@plt>
    2e82:	83 c4 10             	add    $0x10,%esp
    2e85:	85 c0                	test   %eax,%eax
    2e87:	75 2f                	jne    2eb8 <fetch_input+0x68>
    2e89:	8b 5e 08             	mov    0x8(%esi),%ebx
    2e8c:	50                   	push   %eax
    2e8d:	50                   	push   %eax
    2e8e:	56                   	push   %esi
    2e8f:	57                   	push   %edi
    2e90:	c7 06 00 00 00 00    	movl   $0x0,(%esi)
    2e96:	c7 46 04 00 00 00 00 	movl   $0x0,0x4(%esi)
    2e9d:	e8 2e 4f 00 00       	call   7dd0 <prodcons_produce@plt>
    2ea2:	83 c4 10             	add    $0x10,%esp
    2ea5:	83 fb 08             	cmp    $0x8,%ebx
    2ea8:	75 b6                	jne    2e60 <fetch_input+0x10>
    2eaa:	8d 65 f4             	lea    -0xc(%ebp),%esp
    2ead:	31 c0                	xor    %eax,%eax
    2eaf:	5b                   	pop    %ebx
    2eb0:	5e                   	pop    %esi
    2eb1:	5f                   	pop    %edi
    2eb2:	5d                   	pop    %ebp
    2eb3:	c3                   	ret    
    2eb4:	8d 74 26 00          	lea    0x0(%esi,%eiz,1),%esi
    2eb8:	83 ec 0c             	sub    $0xc,%esp
    2ebb:	56                   	push   %esi
    2ebc:	e8 df 4f 00 00       	call   7ea0 <free@plt>
    2ec1:	83 c4 10             	add    $0x10,%esp
    2ec4:	8d 65 f4             	lea    -0xc(%ebp),%esp
    2ec7:	31 c0                	xor    %eax,%eax
    2ec9:	5b                   	pop    %ebx
    2eca:	5e                   	pop    %esi
    2ecb:	5f                   	pop    %edi
    2ecc:	5d                   	pop    %ebp
    2ecd:	c3                   	ret    
    2ece:	66 90                	xchg   %ax,%ax

00002ed0 <paint_internal>:
    2ed0:	55                   	push   %ebp
    2ed1:	89 e5                	mov    %esp,%ebp
    2ed3:	57                   	push   %edi
    2ed4:	56                   	push   %esi
    2ed5:	53                   	push   %ebx
    2ed6:	81 ec e8 00 00 00    	sub    $0xe8,%esp
    2edc:	89 c3                	mov    %eax,%ebx
    2ede:	8b 70 14             	mov    0x14(%eax),%esi
    2ee1:	8d 86 94 00 00 00    	lea    0x94(%esi),%eax
    2ee7:	50                   	push   %eax
    2ee8:	e8 c3 4f 00 00       	call   7eb0 <fibril_mutex_lock@plt>
    2eed:	8b 86 a4 00 00 00    	mov    0xa4(%esi),%eax
    2ef3:	83 c4 10             	add    $0x10,%esp
    2ef6:	89 85 2c ff ff ff    	mov    %eax,-0xd4(%ebp)
    2efc:	85 c0                	test   %eax,%eax
    2efe:	0f 84 5c 03 00 00    	je     3260 <paint_internal+0x390>
    2f04:	83 ec 0c             	sub    $0xc,%esp
    2f07:	8d 75 84             	lea    -0x7c(%ebp),%esi
    2f0a:	8d bd 4c ff ff ff    	lea    -0xb4(%ebp),%edi
    2f10:	56                   	push   %esi
    2f11:	e8 9a 2e 00 00       	call   5db0 <source_init>
    2f16:	8b 8d 2c ff ff ff    	mov    -0xd4(%ebp),%ecx
    2f1c:	58                   	pop    %eax
    2f1d:	5a                   	pop    %edx
    2f1e:	51                   	push   %ecx
    2f1f:	57                   	push   %edi
    2f20:	e8 fb 26 00 00       	call   5620 <drawctx_init>
    2f25:	58                   	pop    %eax
    2f26:	5a                   	pop    %edx
    2f27:	56                   	push   %esi
    2f28:	57                   	push   %edi
    2f29:	e8 c2 28 00 00       	call   57f0 <drawctx_set_source>
    2f2e:	8b 4b 28             	mov    0x28(%ebx),%ecx
    2f31:	8b 43 24             	mov    0x24(%ebx),%eax
    2f34:	68 55 55 55 ff       	push   $0xff555555
    2f39:	6a ff                	push   $0xffffffff
    2f3b:	51                   	push   %ecx
    2f3c:	50                   	push   %eax
    2f3d:	8b 43 1c             	mov    0x1c(%ebx),%eax
    2f40:	50                   	push   %eax
    2f41:	8b 43 20             	mov    0x20(%ebx),%eax
    2f44:	50                   	push   %eax
    2f45:	56                   	push   %esi
    2f46:	57                   	push   %edi
    2f47:	e8 e4 13 00 00       	call   4330 <draw_bevel>
    2f4c:	83 c4 28             	add    $0x28,%esp
    2f4f:	68 ba ba ba ff       	push   $0xffbababa
    2f54:	56                   	push   %esi
    2f55:	e8 e6 2e 00 00       	call   5e40 <source_set_color>
    2f5a:	8b 43 24             	mov    0x24(%ebx),%eax
    2f5d:	83 e8 02             	sub    $0x2,%eax
    2f60:	c7 04 24 02 00 00 00 	movl   $0x2,(%esp)
    2f67:	50                   	push   %eax
    2f68:	8b 43 20             	mov    0x20(%ebx),%eax
    2f6b:	40                   	inc    %eax
    2f6c:	50                   	push   %eax
    2f6d:	8b 43 1c             	mov    0x1c(%ebx),%eax
    2f70:	40                   	inc    %eax
    2f71:	50                   	push   %eax
    2f72:	57                   	push   %edi
    2f73:	e8 98 28 00 00       	call   5810 <drawctx_transfer>
    2f78:	83 c4 14             	add    $0x14,%esp
    2f7b:	8b 43 28             	mov    0x28(%ebx),%eax
    2f7e:	83 e8 02             	sub    $0x2,%eax
    2f81:	50                   	push   %eax
    2f82:	8b 43 20             	mov    0x20(%ebx),%eax
    2f85:	40                   	inc    %eax
    2f86:	6a 02                	push   $0x2
    2f88:	50                   	push   %eax
    2f89:	8b 43 1c             	mov    0x1c(%ebx),%eax
    2f8c:	40                   	inc    %eax
    2f8d:	50                   	push   %eax
    2f8e:	57                   	push   %edi
    2f8f:	e8 7c 28 00 00       	call   5810 <drawctx_transfer>
    2f94:	83 c4 14             	add    $0x14,%esp
    2f97:	8b 43 24             	mov    0x24(%ebx),%eax
    2f9a:	6a 02                	push   $0x2
    2f9c:	83 e8 02             	sub    $0x2,%eax
    2f9f:	8b 53 20             	mov    0x20(%ebx),%edx
    2fa2:	50                   	push   %eax
    2fa3:	8b 43 28             	mov    0x28(%ebx),%eax
    2fa6:	01 d0                	add    %edx,%eax
    2fa8:	83 e8 03             	sub    $0x3,%eax
    2fab:	50                   	push   %eax
    2fac:	8b 43 1c             	mov    0x1c(%ebx),%eax
    2faf:	40                   	inc    %eax
    2fb0:	50                   	push   %eax
    2fb1:	57                   	push   %edi
    2fb2:	e8 59 28 00 00       	call   5810 <drawctx_transfer>
    2fb7:	83 c4 14             	add    $0x14,%esp
    2fba:	8b 43 28             	mov    0x28(%ebx),%eax
    2fbd:	8b 4b 1c             	mov    0x1c(%ebx),%ecx
    2fc0:	83 e8 04             	sub    $0x4,%eax
    2fc3:	50                   	push   %eax
    2fc4:	8b 43 20             	mov    0x20(%ebx),%eax
    2fc7:	40                   	inc    %eax
    2fc8:	6a 02                	push   $0x2
    2fca:	50                   	push   %eax
    2fcb:	8b 43 24             	mov    0x24(%ebx),%eax
    2fce:	01 c8                	add    %ecx,%eax
    2fd0:	83 e8 03             	sub    $0x3,%eax
    2fd3:	50                   	push   %eax
    2fd4:	57                   	push   %edi
    2fd5:	e8 36 28 00 00       	call   5810 <drawctx_transfer>
    2fda:	83 c4 20             	add    $0x20,%esp
    2fdd:	8b 43 28             	mov    0x28(%ebx),%eax
    2fe0:	6a ff                	push   $0xffffffff
    2fe2:	83 e8 06             	sub    $0x6,%eax
    2fe5:	68 55 55 55 ff       	push   $0xff555555
    2fea:	50                   	push   %eax
    2feb:	8b 43 24             	mov    0x24(%ebx),%eax
    2fee:	83 e8 06             	sub    $0x6,%eax
    2ff1:	50                   	push   %eax
    2ff2:	8b 43 20             	mov    0x20(%ebx),%eax
    2ff5:	83 c0 03             	add    $0x3,%eax
    2ff8:	50                   	push   %eax
    2ff9:	8b 43 1c             	mov    0x1c(%ebx),%eax
    2ffc:	83 c0 03             	add    $0x3,%eax
    2fff:	50                   	push   %eax
    3000:	56                   	push   %esi
    3001:	57                   	push   %edi
    3002:	e8 29 13 00 00       	call   4330 <draw_bevel>
    3007:	8b 43 1c             	mov    0x1c(%ebx),%eax
    300a:	83 c4 20             	add    $0x20,%esp
    300d:	89 85 34 ff ff ff    	mov    %eax,-0xcc(%ebp)
    3013:	8d 50 04             	lea    0x4(%eax),%edx
    3016:	8b 43 14             	mov    0x14(%ebx),%eax
    3019:	89 95 30 ff ff ff    	mov    %edx,-0xd0(%ebp)
    301f:	8b 53 20             	mov    0x20(%ebx),%edx
    3022:	89 95 28 ff ff ff    	mov    %edx,-0xd8(%ebp)
    3028:	8d 4a 04             	lea    0x4(%edx),%ecx
    302b:	89 8d 24 ff ff ff    	mov    %ecx,-0xdc(%ebp)
    3031:	8b 4b 24             	mov    0x24(%ebx),%ecx
    3034:	89 8d 20 ff ff ff    	mov    %ecx,-0xe0(%ebp)
    303a:	83 e9 1c             	sub    $0x1c,%ecx
    303d:	80 78 02 01          	cmpb   $0x1,0x2(%eax)
    3041:	19 d2                	sbb    %edx,%edx
    3043:	81 e2 d1 e9 dc ff    	and    $0xffdce9d1,%edx
    3049:	81 ea a7 cf d7 00    	sub    $0xd7cfa7,%edx
    304f:	80 78 02 01          	cmpb   $0x1,0x2(%eax)
    3053:	19 c0                	sbb    %eax,%eax
    3055:	52                   	push   %edx
    3056:	25 7f bc 97 ff       	and    $0xff97bc7f,%eax
    305b:	2d 01 6e 87 00       	sub    $0x876e01,%eax
    3060:	50                   	push   %eax
    3061:	8b 85 24 ff ff ff    	mov    -0xdc(%ebp),%eax
    3067:	6a 14                	push   $0x14
    3069:	51                   	push   %ecx
    306a:	50                   	push   %eax
    306b:	8b 85 30 ff ff ff    	mov    -0xd0(%ebp),%eax
    3071:	50                   	push   %eax
    3072:	56                   	push   %esi
    3073:	57                   	push   %edi
    3074:	e8 b7 12 00 00       	call   4330 <draw_bevel>
    3079:	8b 43 14             	mov    0x14(%ebx),%eax
    307c:	83 c4 18             	add    $0x18,%esp
    307f:	80 78 02 01          	cmpb   $0x1,0x2(%eax)
    3083:	19 c0                	sbb    %eax,%eax
    3085:	25 98 ce b3 ff       	and    $0xffb3ce98,%eax
    308a:	2d 3c 95 a7 00       	sub    $0xa7953c,%eax
    308f:	50                   	push   %eax
    3090:	56                   	push   %esi
    3091:	e8 aa 2d 00 00       	call   5e40 <source_set_color>
    3096:	8b 8d 20 ff ff ff    	mov    -0xe0(%ebp),%ecx
    309c:	8b 95 28 ff ff ff    	mov    -0xd8(%ebp),%edx
    30a2:	8d 41 e2             	lea    -0x1e(%ecx),%eax
    30a5:	c7 04 24 12 00 00 00 	movl   $0x12,(%esp)
    30ac:	50                   	push   %eax
    30ad:	8d 42 05             	lea    0x5(%edx),%eax
    30b0:	50                   	push   %eax
    30b1:	8b 85 34 ff ff ff    	mov    -0xcc(%ebp),%eax
    30b7:	83 c0 05             	add    $0x5,%eax
    30ba:	50                   	push   %eax
    30bb:	57                   	push   %edi
    30bc:	e8 4f 27 00 00       	call   5810 <drawctx_transfer>
    30c1:	8b 53 1c             	mov    0x1c(%ebx),%edx
    30c4:	8b 43 24             	mov    0x24(%ebx),%eax
    30c7:	83 c4 20             	add    $0x20,%esp
    30ca:	01 d0                	add    %edx,%eax
    30cc:	89 c2                	mov    %eax,%edx
    30ce:	8b 43 20             	mov    0x20(%ebx),%eax
    30d1:	89 85 30 ff ff ff    	mov    %eax,-0xd0(%ebp)
    30d7:	83 c0 04             	add    $0x4,%eax
    30da:	68 55 55 55 ff       	push   $0xff555555
    30df:	6a ff                	push   $0xffffffff
    30e1:	6a 14                	push   $0x14
    30e3:	6a 14                	push   $0x14
    30e5:	50                   	push   %eax
    30e6:	89 d0                	mov    %edx,%eax
    30e8:	83 e8 18             	sub    $0x18,%eax
    30eb:	89 95 34 ff ff ff    	mov    %edx,-0xcc(%ebp)
    30f1:	50                   	push   %eax
    30f2:	56                   	push   %esi
    30f3:	57                   	push   %edi
    30f4:	e8 37 12 00 00       	call   4330 <draw_bevel>
    30f9:	83 c4 18             	add    $0x18,%esp
    30fc:	68 ba ba ba ff       	push   $0xffbababa
    3101:	56                   	push   %esi
    3102:	e8 39 2d 00 00       	call   5e40 <source_set_color>
    3107:	8b 8d 30 ff ff ff    	mov    -0xd0(%ebp),%ecx
    310d:	8d 41 05             	lea    0x5(%ecx),%eax
    3110:	c7 04 24 12 00 00 00 	movl   $0x12,(%esp)
    3117:	6a 12                	push   $0x12
    3119:	50                   	push   %eax
    311a:	8b 85 34 ff ff ff    	mov    -0xcc(%ebp),%eax
    3120:	83 e8 17             	sub    $0x17,%eax
    3123:	50                   	push   %eax
    3124:	57                   	push   %edi
    3125:	e8 e6 26 00 00       	call   5810 <drawctx_transfer>
    312a:	8b 8d 30 ff ff ff    	mov    -0xd0(%ebp),%ecx
    3130:	83 c4 14             	add    $0x14,%esp
    3133:	8d 41 07             	lea    0x7(%ecx),%eax
    3136:	8b 8d 2c ff ff ff    	mov    -0xd4(%ebp),%ecx
    313c:	68 55 55 55 ff       	push   $0xff555555
    3141:	6a ff                	push   $0xffffffff
    3143:	50                   	push   %eax
    3144:	8b 85 34 ff ff ff    	mov    -0xcc(%ebp),%eax
    314a:	83 e8 15             	sub    $0x15,%eax
    314d:	50                   	push   %eax
    314e:	51                   	push   %ecx
    314f:	e8 3c 0e 00 00       	call   3f90 <draw_icon_cross>
    3154:	83 c4 18             	add    $0x18,%esp
    3157:	8d 85 40 ff ff ff    	lea    -0xc0(%ebp),%eax
    315d:	6a 10                	push   $0x10
    315f:	50                   	push   %eax
    3160:	e8 9b 13 00 00       	call   4500 <embedded_font_create>
    3165:	83 c4 10             	add    $0x10,%esp
    3168:	85 c0                	test   %eax,%eax
    316a:	0f 85 d0 00 00 00    	jne    3240 <paint_internal+0x370>
    3170:	50                   	push   %eax
    3171:	50                   	push   %eax
    3172:	8b 85 40 ff ff ff    	mov    -0xc0(%ebp),%eax
    3178:	50                   	push   %eax
    3179:	57                   	push   %edi
    317a:	e8 81 26 00 00       	call   5800 <drawctx_set_font>
    317f:	8b 43 14             	mov    0x14(%ebx),%eax
    3182:	80 78 02 00          	cmpb   $0x0,0x2(%eax)
    3186:	0f 95 c0             	setne  %al
    3189:	25 ff 00 00 00       	and    $0xff,%eax
    318e:	5a                   	pop    %edx
    318f:	f7 d8                	neg    %eax
    3191:	0d cf cf cf ff       	or     $0xffcfcfcf,%eax
    3196:	59                   	pop    %ecx
    3197:	50                   	push   %eax
    3198:	56                   	push   %esi
    3199:	e8 a2 2c 00 00       	call   5e40 <source_set_color>
    319e:	8d 85 48 ff ff ff    	lea    -0xb8(%ebp),%eax
    31a4:	50                   	push   %eax
    31a5:	8d 85 44 ff ff ff    	lea    -0xbc(%ebp),%eax
    31ab:	50                   	push   %eax
    31ac:	8b 43 14             	mov    0x14(%ebx),%eax
    31af:	8b 70 04             	mov    0x4(%eax),%esi
    31b2:	8b 85 40 ff ff ff    	mov    -0xc0(%ebp),%eax
    31b8:	56                   	push   %esi
    31b9:	50                   	push   %eax
    31ba:	e8 c1 29 00 00       	call   5b80 <font_get_box>
    31bf:	8b 95 44 ff ff ff    	mov    -0xbc(%ebp),%edx
    31c5:	8b 43 24             	mov    0x24(%ebx),%eax
    31c8:	8d 4a 1e             	lea    0x1e(%edx),%ecx
    31cb:	83 c4 20             	add    $0x20,%esp
    31ce:	39 c8                	cmp    %ecx,%eax
    31d0:	72 41                	jb     3213 <paint_internal+0x343>
    31d2:	8b 4b 14             	mov    0x14(%ebx),%ecx
    31d5:	8b 71 04             	mov    0x4(%ecx),%esi
    31d8:	89 b5 34 ff ff ff    	mov    %esi,-0xcc(%ebp)
    31de:	85 f6                	test   %esi,%esi
    31e0:	74 31                	je     3213 <paint_internal+0x343>
    31e2:	8b b5 48 ff ff ff    	mov    -0xb8(%ebp),%esi
    31e8:	b9 14 00 00 00       	mov    $0x14,%ecx
    31ed:	29 f1                	sub    %esi,%ecx
    31ef:	8b 73 20             	mov    0x20(%ebx),%esi
    31f2:	d1 e9                	shr    %ecx
    31f4:	29 d0                	sub    %edx,%eax
    31f6:	d1 e8                	shr    %eax
    31f8:	8b 53 1c             	mov    0x1c(%ebx),%edx
    31fb:	8d 4c 31 04          	lea    0x4(%ecx,%esi,1),%ecx
    31ff:	01 d0                	add    %edx,%eax
    3201:	51                   	push   %ecx
    3202:	8b 8d 34 ff ff ff    	mov    -0xcc(%ebp),%ecx
    3208:	50                   	push   %eax
    3209:	51                   	push   %ecx
    320a:	57                   	push   %edi
    320b:	e8 70 28 00 00       	call   5a80 <drawctx_print>
    3210:	83 c4 10             	add    $0x10,%esp
    3213:	83 ec 0c             	sub    $0xc,%esp
    3216:	8b 85 40 ff ff ff    	mov    -0xc0(%ebp),%eax
    321c:	50                   	push   %eax
    321d:	e8 be 28 00 00       	call   5ae0 <font_release>
    3222:	8b 43 14             	mov    0x14(%ebx),%eax
    3225:	05 94 00 00 00       	add    $0x94,%eax
    322a:	89 04 24             	mov    %eax,(%esp)
    322d:	e8 4e 4a 00 00       	call   7c80 <fibril_mutex_unlock@plt>
    3232:	83 c4 10             	add    $0x10,%esp
    3235:	8d 65 f4             	lea    -0xc(%ebp),%esp
    3238:	5b                   	pop    %ebx
    3239:	5e                   	pop    %esi
    323a:	5f                   	pop    %edi
    323b:	5d                   	pop    %ebp
    323c:	c3                   	ret    
    323d:	8d 76 00             	lea    0x0(%esi),%esi
    3240:	83 ec 0c             	sub    $0xc,%esp
    3243:	8b 43 14             	mov    0x14(%ebx),%eax
    3246:	05 94 00 00 00       	add    $0x94,%eax
    324b:	50                   	push   %eax
    324c:	e8 2f 4a 00 00       	call   7c80 <fibril_mutex_unlock@plt>
    3251:	83 c4 10             	add    $0x10,%esp
    3254:	8d 65 f4             	lea    -0xc(%ebp),%esp
    3257:	5b                   	pop    %ebx
    3258:	5e                   	pop    %esi
    3259:	5f                   	pop    %edi
    325a:	5d                   	pop    %ebp
    325b:	c3                   	ret    
    325c:	8d 74 26 00          	lea    0x0(%esi,%eiz,1),%esi
    3260:	83 ec 0c             	sub    $0xc,%esp
    3263:	8b 43 14             	mov    0x14(%ebx),%eax
    3266:	05 94 00 00 00       	add    $0x94,%eax
    326b:	50                   	push   %eax
    326c:	e8 0f 4a 00 00       	call   7c80 <fibril_mutex_unlock@plt>
    3271:	83 c4 10             	add    $0x10,%esp
    3274:	e9 8b fc ff ff       	jmp    2f04 <paint_internal+0x34>
    3279:	8d b4 26 00 00 00 00 	lea    0x0(%esi,%eiz,1),%esi

00003280 <root_reconfigure>:
    3280:	55                   	push   %ebp
    3281:	89 e5                	mov    %esp,%ebp
    3283:	57                   	push   %edi
    3284:	56                   	push   %esi
    3285:	53                   	push   %ebx
    3286:	83 ec 0c             	sub    $0xc,%esp
    3289:	8b 5d 08             	mov    0x8(%ebp),%ebx
    328c:	8b 43 14             	mov    0x14(%ebx),%eax
    328f:	80 78 01 00          	cmpb   $0x0,0x1(%eax)
    3293:	74 43                	je     32d8 <root_reconfigure+0x58>
    3295:	8b 73 10             	mov    0x10(%ebx),%esi
    3298:	8d 7b 0c             	lea    0xc(%ebx),%edi
    329b:	39 fe                	cmp    %edi,%esi
    329d:	74 2e                	je     32cd <root_reconfigure+0x4d>
    329f:	90                   	nop
    32a0:	83 ec 0c             	sub    $0xc,%esp
    32a3:	8b 43 28             	mov    0x28(%ebx),%eax
    32a6:	83 e8 1c             	sub    $0x1c,%eax
    32a9:	50                   	push   %eax
    32aa:	8b 43 24             	mov    0x24(%ebx),%eax
    32ad:	83 e8 08             	sub    $0x8,%eax
    32b0:	50                   	push   %eax
    32b1:	8b 43 20             	mov    0x20(%ebx),%eax
    32b4:	83 c0 18             	add    $0x18,%eax
    32b7:	50                   	push   %eax
    32b8:	8b 43 1c             	mov    0x1c(%ebx),%eax
    32bb:	83 c0 04             	add    $0x4,%eax
    32be:	50                   	push   %eax
    32bf:	56                   	push   %esi
    32c0:	ff 56 4c             	call   *0x4c(%esi)
    32c3:	8b 76 04             	mov    0x4(%esi),%esi
    32c6:	83 c4 20             	add    $0x20,%esp
    32c9:	39 fe                	cmp    %edi,%esi
    32cb:	75 d3                	jne    32a0 <root_reconfigure+0x20>
    32cd:	8d 65 f4             	lea    -0xc(%ebp),%esp
    32d0:	5b                   	pop    %ebx
    32d1:	5e                   	pop    %esi
    32d2:	5f                   	pop    %edi
    32d3:	5d                   	pop    %ebp
    32d4:	c3                   	ret    
    32d5:	8d 76 00             	lea    0x0(%esi),%esi
    32d8:	8b 73 10             	mov    0x10(%ebx),%esi
    32db:	8d 7b 0c             	lea    0xc(%ebx),%edi
    32de:	39 f7                	cmp    %esi,%edi
    32e0:	74 eb                	je     32cd <root_reconfigure+0x4d>
    32e2:	8d b6 00 00 00 00    	lea    0x0(%esi),%esi
    32e8:	83 ec 0c             	sub    $0xc,%esp
    32eb:	8b 43 28             	mov    0x28(%ebx),%eax
    32ee:	50                   	push   %eax
    32ef:	8b 53 24             	mov    0x24(%ebx),%edx
    32f2:	52                   	push   %edx
    32f3:	8b 4b 20             	mov    0x20(%ebx),%ecx
    32f6:	51                   	push   %ecx
    32f7:	8b 43 1c             	mov    0x1c(%ebx),%eax
    32fa:	50                   	push   %eax
    32fb:	56                   	push   %esi
    32fc:	ff 56 4c             	call   *0x4c(%esi)
    32ff:	8b 76 04             	mov    0x4(%esi),%esi
    3302:	83 c4 20             	add    $0x20,%esp
    3305:	39 f7                	cmp    %esi,%edi
    3307:	75 df                	jne    32e8 <root_reconfigure+0x68>
    3309:	8d 65 f4             	lea    -0xc(%ebp),%esp
    330c:	5b                   	pop    %ebx
    330d:	5e                   	pop    %esi
    330e:	5f                   	pop    %edi
    330f:	5d                   	pop    %ebp
    3310:	c3                   	ret    
    3311:	eb 0d                	jmp    3320 <root_rearrange>
    3313:	90                   	nop
    3314:	90                   	nop
    3315:	90                   	nop
    3316:	90                   	nop
    3317:	90                   	nop
    3318:	90                   	nop
    3319:	90                   	nop
    331a:	90                   	nop
    331b:	90                   	nop
    331c:	90                   	nop
    331d:	90                   	nop
    331e:	90                   	nop
    331f:	90                   	nop

00003320 <root_rearrange>:
    3320:	55                   	push   %ebp
    3321:	89 e5                	mov    %esp,%ebp
    3323:	57                   	push   %edi
    3324:	56                   	push   %esi
    3325:	53                   	push   %ebx
    3326:	83 ec 28             	sub    $0x28,%esp
    3329:	8b 45 10             	mov    0x10(%ebp),%eax
    332c:	8b 75 14             	mov    0x14(%ebp),%esi
    332f:	8b 7d 18             	mov    0x18(%ebp),%edi
    3332:	8b 55 08             	mov    0x8(%ebp),%edx
    3335:	57                   	push   %edi
    3336:	56                   	push   %esi
    3337:	50                   	push   %eax
    3338:	8b 45 0c             	mov    0xc(%ebp),%eax
    333b:	50                   	push   %eax
    333c:	89 55 e4             	mov    %edx,-0x1c(%ebp)
    333f:	52                   	push   %edx
    3340:	e8 5b f7 ff ff       	call   2aa0 <widget_modify>
    3345:	8b 55 e4             	mov    -0x1c(%ebp),%edx
    3348:	83 c4 20             	add    $0x20,%esp
    334b:	8b 42 14             	mov    0x14(%edx),%eax
    334e:	80 78 01 00          	cmpb   $0x0,0x1(%eax)
    3352:	75 3c                	jne    3390 <root_rearrange+0x70>
    3354:	8d 42 0c             	lea    0xc(%edx),%eax
    3357:	8b 5a 10             	mov    0x10(%edx),%ebx
    335a:	89 45 e4             	mov    %eax,-0x1c(%ebp)
    335d:	39 c3                	cmp    %eax,%ebx
    335f:	74 23                	je     3384 <root_rearrange+0x64>
    3361:	8d b4 26 00 00 00 00 	lea    0x0(%esi,%eiz,1),%esi
    3368:	83 ec 0c             	sub    $0xc,%esp
    336b:	8b 45 10             	mov    0x10(%ebp),%eax
    336e:	8b 55 0c             	mov    0xc(%ebp),%edx
    3371:	57                   	push   %edi
    3372:	56                   	push   %esi
    3373:	50                   	push   %eax
    3374:	52                   	push   %edx
    3375:	53                   	push   %ebx
    3376:	ff 53 4c             	call   *0x4c(%ebx)
    3379:	8b 5b 04             	mov    0x4(%ebx),%ebx
    337c:	83 c4 20             	add    $0x20,%esp
    337f:	3b 5d e4             	cmp    -0x1c(%ebp),%ebx
    3382:	75 e4                	jne    3368 <root_rearrange+0x48>
    3384:	8d 65 f4             	lea    -0xc(%ebp),%esp
    3387:	5b                   	pop    %ebx
    3388:	5e                   	pop    %esi
    3389:	5f                   	pop    %edi
    338a:	5d                   	pop    %ebp
    338b:	c3                   	ret    
    338c:	8d 74 26 00          	lea    0x0(%esi,%eiz,1),%esi
    3390:	89 d0                	mov    %edx,%eax
    3392:	e8 39 fb ff ff       	call   2ed0 <paint_internal>
    3397:	8b 55 e4             	mov    -0x1c(%ebp),%edx
    339a:	8d 42 0c             	lea    0xc(%edx),%eax
    339d:	8b 5a 10             	mov    0x10(%edx),%ebx
    33a0:	89 45 e4             	mov    %eax,-0x1c(%ebp)
    33a3:	39 c3                	cmp    %eax,%ebx
    33a5:	74 dd                	je     3384 <root_rearrange+0x64>
    33a7:	8b 45 10             	mov    0x10(%ebp),%eax
    33aa:	83 ef 1c             	sub    $0x1c,%edi
    33ad:	83 c0 18             	add    $0x18,%eax
    33b0:	83 ee 08             	sub    $0x8,%esi
    33b3:	89 45 dc             	mov    %eax,-0x24(%ebp)
    33b6:	8b 45 0c             	mov    0xc(%ebp),%eax
    33b9:	83 c0 04             	add    $0x4,%eax
    33bc:	89 45 e0             	mov    %eax,-0x20(%ebp)
    33bf:	90                   	nop
    33c0:	83 ec 0c             	sub    $0xc,%esp
    33c3:	8b 4d dc             	mov    -0x24(%ebp),%ecx
    33c6:	8b 45 e0             	mov    -0x20(%ebp),%eax
    33c9:	57                   	push   %edi
    33ca:	56                   	push   %esi
    33cb:	51                   	push   %ecx
    33cc:	50                   	push   %eax
    33cd:	53                   	push   %ebx
    33ce:	ff 53 4c             	call   *0x4c(%ebx)
    33d1:	8b 5b 04             	mov    0x4(%ebx),%ebx
    33d4:	83 c4 20             	add    $0x20,%esp
    33d7:	3b 5d e4             	cmp    -0x1c(%ebp),%ebx
    33da:	75 e4                	jne    33c0 <root_rearrange+0xa0>
    33dc:	8d 65 f4             	lea    -0xc(%ebp),%esp
    33df:	5b                   	pop    %ebx
    33e0:	5e                   	pop    %esi
    33e1:	5f                   	pop    %edi
    33e2:	5d                   	pop    %ebp
    33e3:	c3                   	ret    
    33e4:	8d b6 00 00 00 00    	lea    0x0(%esi),%esi
    33ea:	8d bf 00 00 00 00    	lea    0x0(%edi),%edi

000033f0 <destroy_children>:
    33f0:	55                   	push   %ebp
    33f1:	89 e5                	mov    %esp,%ebp
    33f3:	57                   	push   %edi
    33f4:	56                   	push   %esi
    33f5:	53                   	push   %ebx
    33f6:	83 ec 4c             	sub    $0x4c,%esp
    33f9:	89 45 a8             	mov    %eax,-0x58(%ebp)
    33fc:	8b 48 10             	mov    0x10(%eax),%ecx
    33ff:	83 c0 0c             	add    $0xc,%eax
    3402:	89 4d d4             	mov    %ecx,-0x2c(%ebp)
    3405:	89 45 bc             	mov    %eax,-0x44(%ebp)
    3408:	39 c1                	cmp    %eax,%ecx
    340a:	0f 84 af 01 00 00    	je     35bf <destroy_children+0x1cf>
    3410:	8b 45 d4             	mov    -0x2c(%ebp),%eax
    3413:	83 c0 0c             	add    $0xc,%eax
    3416:	8b 48 04             	mov    0x4(%eax),%ecx
    3419:	89 45 c0             	mov    %eax,-0x40(%ebp)
    341c:	89 4d d0             	mov    %ecx,-0x30(%ebp)
    341f:	39 c8                	cmp    %ecx,%eax
    3421:	0f 84 79 01 00 00    	je     35a0 <destroy_children+0x1b0>
    3427:	8b 45 d0             	mov    -0x30(%ebp),%eax
    342a:	83 c0 0c             	add    $0xc,%eax
    342d:	8b 50 04             	mov    0x4(%eax),%edx
    3430:	89 45 b4             	mov    %eax,-0x4c(%ebp)
    3433:	89 55 cc             	mov    %edx,-0x34(%ebp)
    3436:	39 c2                	cmp    %eax,%edx
    3438:	0f 84 43 01 00 00    	je     3581 <destroy_children+0x191>
    343e:	8b 45 cc             	mov    -0x34(%ebp),%eax
    3441:	83 c0 0c             	add    $0xc,%eax
    3444:	8b 48 04             	mov    0x4(%eax),%ecx
    3447:	89 45 b8             	mov    %eax,-0x48(%ebp)
    344a:	89 4d c8             	mov    %ecx,-0x38(%ebp)
    344d:	39 c8                	cmp    %ecx,%eax
    344f:	0f 84 0d 01 00 00    	je     3562 <destroy_children+0x172>
    3455:	8b 45 c8             	mov    -0x38(%ebp),%eax
    3458:	83 c0 0c             	add    $0xc,%eax
    345b:	8b 50 04             	mov    0x4(%eax),%edx
    345e:	89 45 b0             	mov    %eax,-0x50(%ebp)
    3461:	89 55 c4             	mov    %edx,-0x3c(%ebp)
    3464:	39 c2                	cmp    %eax,%edx
    3466:	0f 84 d7 00 00 00    	je     3543 <destroy_children+0x153>
    346c:	8b 45 c4             	mov    -0x3c(%ebp),%eax
    346f:	83 c0 0c             	add    $0xc,%eax
    3472:	8b 48 04             	mov    0x4(%eax),%ecx
    3475:	89 45 ac             	mov    %eax,-0x54(%ebp)
    3478:	89 4d dc             	mov    %ecx,-0x24(%ebp)
    347b:	39 c1                	cmp    %eax,%ecx
    347d:	0f 84 a1 00 00 00    	je     3524 <destroy_children+0x134>
    3483:	8b 45 dc             	mov    -0x24(%ebp),%eax
    3486:	83 c0 0c             	add    $0xc,%eax
    3489:	8b 48 04             	mov    0x4(%eax),%ecx
    348c:	89 45 d8             	mov    %eax,-0x28(%ebp)
    348f:	89 4d e4             	mov    %ecx,-0x1c(%ebp)
    3492:	39 c1                	cmp    %eax,%ecx
    3494:	74 6f                	je     3505 <destroy_children+0x115>
    3496:	8b 45 e4             	mov    -0x1c(%ebp),%eax
    3499:	83 c0 0c             	add    $0xc,%eax
    349c:	8b 58 04             	mov    0x4(%eax),%ebx
    349f:	89 45 e0             	mov    %eax,-0x20(%ebp)
    34a2:	39 c3                	cmp    %eax,%ebx
    34a4:	0f 84 1e 01 00 00    	je     35c8 <destroy_children+0x1d8>
    34aa:	8d b6 00 00 00 00    	lea    0x0(%esi),%esi
    34b0:	8b 7b 10             	mov    0x10(%ebx),%edi
    34b3:	8d 73 0c             	lea    0xc(%ebx),%esi
    34b6:	39 f7                	cmp    %esi,%edi
    34b8:	74 1e                	je     34d8 <destroy_children+0xe8>
    34ba:	8d b6 00 00 00 00    	lea    0x0(%esi),%esi
    34c0:	89 f8                	mov    %edi,%eax
    34c2:	e8 29 ff ff ff       	call   33f0 <destroy_children>
    34c7:	83 ec 0c             	sub    $0xc,%esp
    34ca:	57                   	push   %edi
    34cb:	ff 57 44             	call   *0x44(%edi)
    34ce:	8b 7b 10             	mov    0x10(%ebx),%edi
    34d1:	83 c4 10             	add    $0x10,%esp
    34d4:	39 f7                	cmp    %esi,%edi
    34d6:	75 e8                	jne    34c0 <destroy_children+0xd0>
    34d8:	83 ec 0c             	sub    $0xc,%esp
    34db:	53                   	push   %ebx
    34dc:	ff 53 44             	call   *0x44(%ebx)
    34df:	8b 45 e4             	mov    -0x1c(%ebp),%eax
    34e2:	83 c4 10             	add    $0x10,%esp
    34e5:	8b 58 10             	mov    0x10(%eax),%ebx
    34e8:	3b 5d e0             	cmp    -0x20(%ebp),%ebx
    34eb:	75 c3                	jne    34b0 <destroy_children+0xc0>
    34ed:	83 ec 0c             	sub    $0xc,%esp
    34f0:	50                   	push   %eax
    34f1:	ff 50 44             	call   *0x44(%eax)
    34f4:	8b 45 dc             	mov    -0x24(%ebp),%eax
    34f7:	83 c4 10             	add    $0x10,%esp
    34fa:	8b 40 10             	mov    0x10(%eax),%eax
    34fd:	89 45 e4             	mov    %eax,-0x1c(%ebp)
    3500:	3b 45 d8             	cmp    -0x28(%ebp),%eax
    3503:	75 91                	jne    3496 <destroy_children+0xa6>
    3505:	83 ec 0c             	sub    $0xc,%esp
    3508:	8b 45 dc             	mov    -0x24(%ebp),%eax
    350b:	50                   	push   %eax
    350c:	ff 50 44             	call   *0x44(%eax)
    350f:	8b 45 c4             	mov    -0x3c(%ebp),%eax
    3512:	83 c4 10             	add    $0x10,%esp
    3515:	8b 40 10             	mov    0x10(%eax),%eax
    3518:	89 45 dc             	mov    %eax,-0x24(%ebp)
    351b:	3b 45 ac             	cmp    -0x54(%ebp),%eax
    351e:	0f 85 5f ff ff ff    	jne    3483 <destroy_children+0x93>
    3524:	83 ec 0c             	sub    $0xc,%esp
    3527:	8b 45 c4             	mov    -0x3c(%ebp),%eax
    352a:	50                   	push   %eax
    352b:	ff 50 44             	call   *0x44(%eax)
    352e:	8b 45 c8             	mov    -0x38(%ebp),%eax
    3531:	83 c4 10             	add    $0x10,%esp
    3534:	8b 40 10             	mov    0x10(%eax),%eax
    3537:	89 45 c4             	mov    %eax,-0x3c(%ebp)
    353a:	3b 45 b0             	cmp    -0x50(%ebp),%eax
    353d:	0f 85 29 ff ff ff    	jne    346c <destroy_children+0x7c>
    3543:	83 ec 0c             	sub    $0xc,%esp
    3546:	8b 45 c8             	mov    -0x38(%ebp),%eax
    3549:	50                   	push   %eax
    354a:	ff 50 44             	call   *0x44(%eax)
    354d:	8b 45 cc             	mov    -0x34(%ebp),%eax
    3550:	83 c4 10             	add    $0x10,%esp
    3553:	8b 40 10             	mov    0x10(%eax),%eax
    3556:	89 45 c8             	mov    %eax,-0x38(%ebp)
    3559:	3b 45 b8             	cmp    -0x48(%ebp),%eax
    355c:	0f 85 f3 fe ff ff    	jne    3455 <destroy_children+0x65>
    3562:	83 ec 0c             	sub    $0xc,%esp
    3565:	8b 45 cc             	mov    -0x34(%ebp),%eax
    3568:	50                   	push   %eax
    3569:	ff 50 44             	call   *0x44(%eax)
    356c:	8b 45 d0             	mov    -0x30(%ebp),%eax
    356f:	83 c4 10             	add    $0x10,%esp
    3572:	8b 40 10             	mov    0x10(%eax),%eax
    3575:	89 45 cc             	mov    %eax,-0x34(%ebp)
    3578:	3b 45 b4             	cmp    -0x4c(%ebp),%eax
    357b:	0f 85 bd fe ff ff    	jne    343e <destroy_children+0x4e>
    3581:	83 ec 0c             	sub    $0xc,%esp
    3584:	8b 45 d0             	mov    -0x30(%ebp),%eax
    3587:	50                   	push   %eax
    3588:	ff 50 44             	call   *0x44(%eax)
    358b:	8b 45 d4             	mov    -0x2c(%ebp),%eax
    358e:	83 c4 10             	add    $0x10,%esp
    3591:	8b 40 10             	mov    0x10(%eax),%eax
    3594:	89 45 d0             	mov    %eax,-0x30(%ebp)
    3597:	3b 45 c0             	cmp    -0x40(%ebp),%eax
    359a:	0f 85 87 fe ff ff    	jne    3427 <destroy_children+0x37>
    35a0:	83 ec 0c             	sub    $0xc,%esp
    35a3:	8b 45 d4             	mov    -0x2c(%ebp),%eax
    35a6:	50                   	push   %eax
    35a7:	ff 50 44             	call   *0x44(%eax)
    35aa:	8b 45 a8             	mov    -0x58(%ebp),%eax
    35ad:	83 c4 10             	add    $0x10,%esp
    35b0:	8b 40 10             	mov    0x10(%eax),%eax
    35b3:	89 45 d4             	mov    %eax,-0x2c(%ebp)
    35b6:	3b 45 bc             	cmp    -0x44(%ebp),%eax
    35b9:	0f 85 51 fe ff ff    	jne    3410 <destroy_children+0x20>
    35bf:	8d 65 f4             	lea    -0xc(%ebp),%esp
    35c2:	5b                   	pop    %ebx
    35c3:	5e                   	pop    %esi
    35c4:	5f                   	pop    %edi
    35c5:	5d                   	pop    %ebp
    35c6:	c3                   	ret    
    35c7:	90                   	nop
    35c8:	8b 45 e4             	mov    -0x1c(%ebp),%eax
    35cb:	e9 1d ff ff ff       	jmp    34ed <destroy_children+0xfd>

000035d0 <event_loop>:
    35d0:	55                   	push   %ebp
    35d1:	89 e5                	mov    %esp,%ebp
    35d3:	57                   	push   %edi
    35d4:	56                   	push   %esi
    35d5:	53                   	push   %ebx
    35d6:	83 ec 6c             	sub    $0x6c,%esp
    35d9:	8b 45 08             	mov    0x8(%ebp),%eax
    35dc:	83 c0 10             	add    $0x10,%eax
    35df:	89 45 a4             	mov    %eax,-0x5c(%ebp)
    35e2:	8b 45 08             	mov    0x8(%ebp),%eax
    35e5:	83 c0 30             	add    $0x30,%eax
    35e8:	89 45 a0             	mov    %eax,-0x60(%ebp)
    35eb:	8b 45 08             	mov    0x8(%ebp),%eax
    35ee:	05 94 00 00 00       	add    $0x94,%eax
    35f3:	89 45 9c             	mov    %eax,-0x64(%ebp)
    35f6:	66 90                	xchg   %ax,%ax
    35f8:	83 ec 0c             	sub    $0xc,%esp
    35fb:	8b 45 a4             	mov    -0x5c(%ebp),%eax
    35fe:	50                   	push   %eax
    35ff:	e8 0c 47 00 00       	call   7d10 <prodcons_consume@plt>
    3604:	83 c4 10             	add    $0x10,%esp
    3607:	89 c3                	mov    %eax,%ebx
    3609:	83 78 08 08          	cmpl   $0x8,0x8(%eax)
    360d:	0f 87 55 02 00 00    	ja     3868 <event_loop+0x298>
    3613:	8b 40 08             	mov    0x8(%eax),%eax
    3616:	ff 24 85 00 78 00 00 	jmp    *0x7800(,%eax,4)
    361d:	8d 76 00             	lea    0x0(%esi),%esi
    3620:	83 ec 0c             	sub    $0xc,%esp
    3623:	8b 7d 9c             	mov    -0x64(%ebp),%edi
    3626:	57                   	push   %edi
    3627:	e8 84 48 00 00       	call   7eb0 <fibril_mutex_lock@plt>
    362c:	8d 45 b8             	lea    -0x48(%ebp),%eax
    362f:	89 04 24             	mov    %eax,(%esp)
    3632:	8d 45 b4             	lea    -0x4c(%ebp),%eax
    3635:	50                   	push   %eax
    3636:	8d 45 b0             	lea    -0x50(%ebp),%eax
    3639:	50                   	push   %eax
    363a:	8d 45 ac             	lea    -0x54(%ebp),%eax
    363d:	50                   	push   %eax
    363e:	8b 45 08             	mov    0x8(%ebp),%eax
    3641:	8b b0 a4 00 00 00    	mov    0xa4(%eax),%esi
    3647:	56                   	push   %esi
    3648:	e8 53 2c 00 00       	call   62a0 <surface_get_damaged_region>
    364d:	8b 45 08             	mov    0x8(%ebp),%eax
    3650:	83 c4 14             	add    $0x14,%esp
    3653:	8b 80 a4 00 00 00    	mov    0xa4(%eax),%eax
    3659:	50                   	push   %eax
    365a:	e8 51 2d 00 00       	call   63b0 <surface_reset_damaged_region>
    365f:	89 3c 24             	mov    %edi,(%esp)
    3662:	e8 19 46 00 00       	call   7c80 <fibril_mutex_unlock@plt>
    3667:	8b 45 b4             	mov    -0x4c(%ebp),%eax
    366a:	83 c4 10             	add    $0x10,%esp
    366d:	85 c0                	test   %eax,%eax
    366f:	0f 84 f3 01 00 00    	je     3868 <event_loop+0x298>
    3675:	8b 55 b8             	mov    -0x48(%ebp),%edx
    3678:	85 d2                	test   %edx,%edx
    367a:	0f 84 e8 01 00 00    	je     3868 <event_loop+0x298>
    3680:	83 ec 0c             	sub    $0xc,%esp
    3683:	52                   	push   %edx
    3684:	50                   	push   %eax
    3685:	8b 45 b0             	mov    -0x50(%ebp),%eax
    3688:	8b 55 ac             	mov    -0x54(%ebp),%edx
    368b:	50                   	push   %eax
    368c:	8b 45 08             	mov    0x8(%ebp),%eax
    368f:	52                   	push   %edx
    3690:	8b 48 0c             	mov    0xc(%eax),%ecx
    3693:	51                   	push   %ecx
    3694:	e8 e7 46 00 00       	call   7d80 <win_damage@plt>
    3699:	83 c4 20             	add    $0x20,%esp
    369c:	e9 c7 01 00 00       	jmp    3868 <event_loop+0x298>
    36a1:	8d b4 26 00 00 00 00 	lea    0x0(%esi,%eiz,1),%esi
    36a8:	83 ec 0c             	sub    $0xc,%esp
    36ab:	8b 45 a0             	mov    -0x60(%ebp),%eax
    36ae:	50                   	push   %eax
    36af:	8b 45 08             	mov    0x8(%ebp),%eax
    36b2:	ff 90 80 00 00 00    	call   *0x80(%eax)
    36b8:	89 1c 24             	mov    %ebx,(%esp)
    36bb:	e8 e0 47 00 00       	call   7ea0 <free@plt>
    36c0:	83 c4 10             	add    $0x10,%esp
    36c3:	e9 30 ff ff ff       	jmp    35f8 <event_loop+0x28>
    36c8:	8b 7b 14             	mov    0x14(%ebx),%edi
    36cb:	83 ff 2f             	cmp    $0x2f,%edi
    36ce:	0f 86 a4 03 00 00    	jbe    3a78 <event_loop+0x4a8>
    36d4:	8b 73 18             	mov    0x18(%ebx),%esi
    36d7:	83 fe 1b             	cmp    $0x1b,%esi
    36da:	0f 86 98 03 00 00    	jbe    3a78 <event_loop+0x4a8>
    36e0:	8b 43 1c             	mov    0x1c(%ebx),%eax
    36e3:	8b 53 10             	mov    0x10(%ebx),%edx
    36e6:	8b 4b 0c             	mov    0xc(%ebx),%ecx
    36e9:	89 45 94             	mov    %eax,-0x6c(%ebp)
    36ec:	6a 01                	push   $0x1
    36ee:	89 55 90             	mov    %edx,-0x70(%ebp)
    36f1:	6a 00                	push   $0x0
    36f3:	89 4d 8c             	mov    %ecx,-0x74(%ebp)
    36f6:	56                   	push   %esi
    36f7:	57                   	push   %edi
    36f8:	e8 13 2a 00 00       	call   6110 <surface_create>
    36fd:	83 c4 10             	add    $0x10,%esp
    3700:	89 45 88             	mov    %eax,-0x78(%ebp)
    3703:	85 c0                	test   %eax,%eax
    3705:	0f 84 5d 01 00 00    	je     3868 <event_loop+0x298>
    370b:	83 ec 0c             	sub    $0xc,%esp
    370e:	8b 4d 9c             	mov    -0x64(%ebp),%ecx
    3711:	51                   	push   %ecx
    3712:	e8 99 47 00 00       	call   7eb0 <fibril_mutex_lock@plt>
    3717:	8b 45 08             	mov    0x8(%ebp),%eax
    371a:	8b 55 08             	mov    0x8(%ebp),%edx
    371d:	8b 80 a4 00 00 00    	mov    0xa4(%eax),%eax
    3723:	89 45 98             	mov    %eax,-0x68(%ebp)
    3726:	8b 45 88             	mov    -0x78(%ebp),%eax
    3729:	89 82 a4 00 00 00    	mov    %eax,0xa4(%edx)
    372f:	58                   	pop    %eax
    3730:	8b 45 9c             	mov    -0x64(%ebp),%eax
    3733:	50                   	push   %eax
    3734:	e8 47 45 00 00       	call   7c80 <fibril_mutex_unlock@plt>
    3739:	8b 45 a0             	mov    -0x60(%ebp),%eax
    373c:	8b 55 08             	mov    0x8(%ebp),%edx
    373f:	89 34 24             	mov    %esi,(%esp)
    3742:	57                   	push   %edi
    3743:	6a 00                	push   $0x0
    3745:	6a 00                	push   $0x0
    3747:	50                   	push   %eax
    3748:	ff 52 7c             	call   *0x7c(%edx)
    374b:	83 c4 14             	add    $0x14,%esp
    374e:	8b 45 9c             	mov    -0x64(%ebp),%eax
    3751:	50                   	push   %eax
    3752:	e8 59 47 00 00       	call   7eb0 <fibril_mutex_lock@plt>
    3757:	8b 55 08             	mov    0x8(%ebp),%edx
    375a:	58                   	pop    %eax
    375b:	8b 82 a4 00 00 00    	mov    0xa4(%edx),%eax
    3761:	50                   	push   %eax
    3762:	e8 49 2c 00 00       	call   63b0 <surface_reset_damaged_region>
    3767:	8b 4d 9c             	mov    -0x64(%ebp),%ecx
    376a:	5a                   	pop    %edx
    376b:	51                   	push   %ecx
    376c:	e8 0f 45 00 00       	call   7c80 <fibril_mutex_unlock@plt>
    3771:	8b 45 88             	mov    -0x78(%ebp),%eax
    3774:	89 04 24             	mov    %eax,(%esp)
    3777:	e8 b4 2a 00 00       	call   6230 <surface_direct_access>
    377c:	83 c4 0c             	add    $0xc,%esp
    377f:	50                   	push   %eax
    3780:	8b 45 94             	mov    -0x6c(%ebp),%eax
    3783:	50                   	push   %eax
    3784:	8b 45 90             	mov    -0x70(%ebp),%eax
    3787:	56                   	push   %esi
    3788:	8b 75 08             	mov    0x8(%ebp),%esi
    378b:	57                   	push   %edi
    378c:	50                   	push   %eax
    378d:	8b 45 8c             	mov    -0x74(%ebp),%eax
    3790:	50                   	push   %eax
    3791:	8b 46 0c             	mov    0xc(%esi),%eax
    3794:	50                   	push   %eax
    3795:	e8 76 44 00 00       	call   7c10 <win_resize@plt>
    379a:	83 c4 20             	add    $0x20,%esp
    379d:	85 c0                	test   %eax,%eax
    379f:	0f 84 2b 03 00 00    	je     3ad0 <event_loop+0x500>
    37a5:	8b 7d 98             	mov    -0x68(%ebp),%edi
    37a8:	c7 45 b4 00 00 00 00 	movl   $0x0,-0x4c(%ebp)
    37af:	c7 45 b8 00 00 00 00 	movl   $0x0,-0x48(%ebp)
    37b6:	85 ff                	test   %edi,%edi
    37b8:	74 12                	je     37cc <event_loop+0x1fc>
    37ba:	8d 45 b8             	lea    -0x48(%ebp),%eax
    37bd:	52                   	push   %edx
    37be:	50                   	push   %eax
    37bf:	8d 45 b4             	lea    -0x4c(%ebp),%eax
    37c2:	50                   	push   %eax
    37c3:	57                   	push   %edi
    37c4:	e8 87 2a 00 00       	call   6250 <surface_get_resolution>
    37c9:	83 c4 10             	add    $0x10,%esp
    37cc:	83 ec 0c             	sub    $0xc,%esp
    37cf:	8b 7d 9c             	mov    -0x64(%ebp),%edi
    37d2:	57                   	push   %edi
    37d3:	e8 d8 46 00 00       	call   7eb0 <fibril_mutex_lock@plt>
    37d8:	8b 45 08             	mov    0x8(%ebp),%eax
    37db:	8b 55 98             	mov    -0x68(%ebp),%edx
    37de:	8b b0 a4 00 00 00    	mov    0xa4(%eax),%esi
    37e4:	89 90 a4 00 00 00    	mov    %edx,0xa4(%eax)
    37ea:	89 3c 24             	mov    %edi,(%esp)
    37ed:	e8 8e 44 00 00       	call   7c80 <fibril_mutex_unlock@plt>
    37f2:	58                   	pop    %eax
    37f3:	8b 45 b8             	mov    -0x48(%ebp),%eax
    37f6:	50                   	push   %eax
    37f7:	8b 45 b4             	mov    -0x4c(%ebp),%eax
    37fa:	50                   	push   %eax
    37fb:	8b 45 a0             	mov    -0x60(%ebp),%eax
    37fe:	6a 00                	push   $0x0
    3800:	6a 00                	push   $0x0
    3802:	50                   	push   %eax
    3803:	8b 45 08             	mov    0x8(%ebp),%eax
    3806:	ff 50 7c             	call   *0x7c(%eax)
    3809:	8b 45 08             	mov    0x8(%ebp),%eax
    380c:	8b 80 a4 00 00 00    	mov    0xa4(%eax),%eax
    3812:	83 c4 20             	add    $0x20,%esp
    3815:	85 c0                	test   %eax,%eax
    3817:	74 24                	je     383d <event_loop+0x26d>
    3819:	83 ec 0c             	sub    $0xc,%esp
    381c:	57                   	push   %edi
    381d:	e8 8e 46 00 00       	call   7eb0 <fibril_mutex_lock@plt>
    3822:	8b 45 08             	mov    0x8(%ebp),%eax
    3825:	59                   	pop    %ecx
    3826:	8b 80 a4 00 00 00    	mov    0xa4(%eax),%eax
    382c:	50                   	push   %eax
    382d:	e8 7e 2b 00 00       	call   63b0 <surface_reset_damaged_region>
    3832:	89 3c 24             	mov    %edi,(%esp)
    3835:	e8 46 44 00 00       	call   7c80 <fibril_mutex_unlock@plt>
    383a:	83 c4 10             	add    $0x10,%esp
    383d:	83 ec 0c             	sub    $0xc,%esp
    3840:	56                   	push   %esi
    3841:	e8 9a 29 00 00       	call   61e0 <surface_destroy>
    3846:	89 1c 24             	mov    %ebx,(%esp)
    3849:	e8 52 46 00 00       	call   7ea0 <free@plt>
    384e:	83 c4 10             	add    $0x10,%esp
    3851:	e9 a2 fd ff ff       	jmp    35f8 <event_loop+0x28>
    3856:	66 90                	xchg   %ax,%ax
    3858:	8b 45 08             	mov    0x8(%ebp),%eax
    385b:	80 78 02 00          	cmpb   $0x0,0x2(%eax)
    385f:	0f 85 3b 02 00 00    	jne    3aa0 <event_loop+0x4d0>
    3865:	8d 76 00             	lea    0x0(%esi),%esi
    3868:	83 ec 0c             	sub    $0xc,%esp
    386b:	53                   	push   %ebx
    386c:	e8 2f 46 00 00       	call   7ea0 <free@plt>
    3871:	83 c4 10             	add    $0x10,%esp
    3874:	e9 7f fd ff ff       	jmp    35f8 <event_loop+0x28>
    3879:	8d b4 26 00 00 00 00 	lea    0x0(%esi,%eiz,1),%esi
    3880:	8b 45 08             	mov    0x8(%ebp),%eax
    3883:	80 78 02 00          	cmpb   $0x0,0x2(%eax)
    3887:	75 df                	jne    3868 <event_loop+0x298>
    3889:	c6 40 02 01          	movb   $0x1,0x2(%eax)
    388d:	83 ec 0c             	sub    $0xc,%esp
    3890:	8b 55 a0             	mov    -0x60(%ebp),%edx
    3893:	52                   	push   %edx
    3894:	ff 90 80 00 00 00    	call   *0x80(%eax)
    389a:	89 1c 24             	mov    %ebx,(%esp)
    389d:	e8 fe 45 00 00       	call   7ea0 <free@plt>
    38a2:	83 c4 10             	add    $0x10,%esp
    38a5:	e9 4e fd ff ff       	jmp    35f8 <event_loop+0x28>
    38aa:	8d b6 00 00 00 00    	lea    0x0(%esi),%esi
    38b0:	8b 73 14             	mov    0x14(%ebx),%esi
    38b3:	50                   	push   %eax
    38b4:	50                   	push   %eax
    38b5:	56                   	push   %esi
    38b6:	8b 53 0c             	mov    0xc(%ebx),%edx
    38b9:	52                   	push   %edx
    38ba:	ff 53 10             	call   *0x10(%ebx)
    38bd:	89 34 24             	mov    %esi,(%esp)
    38c0:	e8 db 45 00 00       	call   7ea0 <free@plt>
    38c5:	89 1c 24             	mov    %ebx,(%esp)
    38c8:	e8 d3 45 00 00       	call   7ea0 <free@plt>
    38cd:	83 c4 10             	add    $0x10,%esp
    38d0:	e9 23 fd ff ff       	jmp    35f8 <event_loop+0x28>
    38d5:	8d 76 00             	lea    0x0(%esi),%esi
    38d8:	8b 45 08             	mov    0x8(%ebp),%eax
    38db:	80 78 02 00          	cmpb   $0x0,0x2(%eax)
    38df:	0f 84 cb 01 00 00    	je     3ab0 <event_loop+0x4e0>
    38e5:	8b 43 14             	mov    0x14(%ebx),%eax
    38e8:	8b 53 0c             	mov    0xc(%ebx),%edx
    38eb:	89 45 98             	mov    %eax,-0x68(%ebp)
    38ee:	89 45 c4             	mov    %eax,-0x3c(%ebp)
    38f1:	8b 45 08             	mov    0x8(%ebp),%eax
    38f4:	8b 4b 10             	mov    0x10(%ebx),%ecx
    38f7:	8b 73 18             	mov    0x18(%ebx),%esi
    38fa:	8b 7b 1c             	mov    0x1c(%ebx),%edi
    38fd:	8b 80 8c 00 00 00    	mov    0x8c(%eax),%eax
    3903:	89 55 bc             	mov    %edx,-0x44(%ebp)
    3906:	89 4d c0             	mov    %ecx,-0x40(%ebp)
    3909:	89 75 c8             	mov    %esi,-0x38(%ebp)
    390c:	89 7d cc             	mov    %edi,-0x34(%ebp)
    390f:	85 c0                	test   %eax,%eax
    3911:	0f 84 11 02 00 00    	je     3b28 <event_loop+0x558>
    3917:	83 ec 08             	sub    $0x8,%esp
    391a:	57                   	push   %edi
    391b:	56                   	push   %esi
    391c:	8b 75 98             	mov    -0x68(%ebp),%esi
    391f:	56                   	push   %esi
    3920:	51                   	push   %ecx
    3921:	52                   	push   %edx
    3922:	50                   	push   %eax
    3923:	ff 50 58             	call   *0x58(%eax)
    3926:	83 c4 14             	add    $0x14,%esp
    3929:	53                   	push   %ebx
    392a:	e8 71 45 00 00       	call   7ea0 <free@plt>
    392f:	83 c4 10             	add    $0x10,%esp
    3932:	e9 c1 fc ff ff       	jmp    35f8 <event_loop+0x28>
    3937:	90                   	nop
    3938:	8b 45 08             	mov    0x8(%ebp),%eax
    393b:	8b 75 a0             	mov    -0x60(%ebp),%esi
    393e:	0f b6 38             	movzbl (%eax),%edi
    3941:	89 f0                	mov    %esi,%eax
    3943:	e8 a8 fa ff ff       	call   33f0 <destroy_children>
    3948:	83 ec 0c             	sub    $0xc,%esp
    394b:	8b 45 08             	mov    0x8(%ebp),%eax
    394e:	56                   	push   %esi
    394f:	ff 50 74             	call   *0x74(%eax)
    3952:	8b 45 08             	mov    0x8(%ebp),%eax
    3955:	c7 80 8c 00 00 00 00 	movl   $0x0,0x8c(%eax)
    395c:	00 00 00 
    395f:	c7 80 90 00 00 00 00 	movl   $0x0,0x90(%eax)
    3966:	00 00 00 
    3969:	8b 40 0c             	mov    0xc(%eax),%eax
    396c:	5e                   	pop    %esi
    396d:	50                   	push   %eax
    396e:	e8 4d 44 00 00       	call   7dc0 <win_close@plt>
    3973:	58                   	pop    %eax
    3974:	8b 45 08             	mov    0x8(%ebp),%eax
    3977:	8b 40 08             	mov    0x8(%eax),%eax
    397a:	50                   	push   %eax
    397b:	e8 b0 41 00 00       	call   7b30 <async_hangup@plt>
    3980:	58                   	pop    %eax
    3981:	8b 45 08             	mov    0x8(%ebp),%eax
    3984:	8b 40 0c             	mov    0xc(%eax),%eax
    3987:	50                   	push   %eax
    3988:	e8 a3 41 00 00       	call   7b30 <async_hangup@plt>
    398d:	8b 45 08             	mov    0x8(%ebp),%eax
    3990:	8b 75 08             	mov    0x8(%ebp),%esi
    3993:	83 c6 28             	add    $0x28,%esi
    3996:	83 c4 10             	add    $0x10,%esp
    3999:	8b 40 2c             	mov    0x2c(%eax),%eax
    399c:	39 c6                	cmp    %eax,%esi
    399e:	74 3f                	je     39df <event_loop+0x40f>
    39a0:	89 5d a4             	mov    %ebx,-0x5c(%ebp)
    39a3:	8b 5d 08             	mov    0x8(%ebp),%ebx
    39a6:	66 90                	xchg   %ax,%ax
    39a8:	8b 08                	mov    (%eax),%ecx
    39aa:	85 c9                	test   %ecx,%ecx
    39ac:	74 0e                	je     39bc <event_loop+0x3ec>
    39ae:	8b 50 04             	mov    0x4(%eax),%edx
    39b1:	85 d2                	test   %edx,%edx
    39b3:	74 07                	je     39bc <event_loop+0x3ec>
    39b5:	89 0a                	mov    %ecx,(%edx)
    39b7:	8b 08                	mov    (%eax),%ecx
    39b9:	89 51 04             	mov    %edx,0x4(%ecx)
    39bc:	83 ec 0c             	sub    $0xc,%esp
    39bf:	c7 00 00 00 00 00    	movl   $0x0,(%eax)
    39c5:	c7 40 04 00 00 00 00 	movl   $0x0,0x4(%eax)
    39cc:	50                   	push   %eax
    39cd:	e8 ce 44 00 00       	call   7ea0 <free@plt>
    39d2:	8b 43 2c             	mov    0x2c(%ebx),%eax
    39d5:	83 c4 10             	add    $0x10,%esp
    39d8:	39 f0                	cmp    %esi,%eax
    39da:	75 cc                	jne    39a8 <event_loop+0x3d8>
    39dc:	8b 5d a4             	mov    -0x5c(%ebp),%ebx
    39df:	8b 45 08             	mov    0x8(%ebp),%eax
    39e2:	8b 80 a4 00 00 00    	mov    0xa4(%eax),%eax
    39e8:	85 c0                	test   %eax,%eax
    39ea:	74 0c                	je     39f8 <event_loop+0x428>
    39ec:	83 ec 0c             	sub    $0xc,%esp
    39ef:	50                   	push   %eax
    39f0:	e8 eb 27 00 00       	call   61e0 <surface_destroy>
    39f5:	83 c4 10             	add    $0x10,%esp
    39f8:	8b 45 08             	mov    0x8(%ebp),%eax
    39fb:	83 ec 0c             	sub    $0xc,%esp
    39fe:	8b 40 04             	mov    0x4(%eax),%eax
    3a01:	50                   	push   %eax
    3a02:	e8 99 44 00 00       	call   7ea0 <free@plt>
    3a07:	8b 4d 08             	mov    0x8(%ebp),%ecx
    3a0a:	5a                   	pop    %edx
    3a0b:	51                   	push   %ecx
    3a0c:	e8 8f 44 00 00       	call   7ea0 <free@plt>
    3a11:	89 1c 24             	mov    %ebx,(%esp)
    3a14:	e8 87 44 00 00       	call   7ea0 <free@plt>
    3a19:	89 f8                	mov    %edi,%eax
    3a1b:	83 c4 10             	add    $0x10,%esp
    3a1e:	84 c0                	test   %al,%al
    3a20:	0f 85 2a 01 00 00    	jne    3b50 <event_loop+0x580>
    3a26:	8d 65 f4             	lea    -0xc(%ebp),%esp
    3a29:	31 c0                	xor    %eax,%eax
    3a2b:	5b                   	pop    %ebx
    3a2c:	5e                   	pop    %esi
    3a2d:	5f                   	pop    %edi
    3a2e:	5d                   	pop    %ebp
    3a2f:	c3                   	ret    
    3a30:	8b 45 08             	mov    0x8(%ebp),%eax
    3a33:	8d 55 d0             	lea    -0x30(%ebp),%edx
    3a36:	8d 73 0c             	lea    0xc(%ebx),%esi
    3a39:	b9 06 00 00 00       	mov    $0x6,%ecx
    3a3e:	89 d7                	mov    %edx,%edi
    3a40:	8b 80 90 00 00 00    	mov    0x90(%eax),%eax
    3a46:	f3 a5                	rep movsl %ds:(%esi),%es:(%edi)
    3a48:	85 c0                	test   %eax,%eax
    3a4a:	0f 84 a8 00 00 00    	je     3af8 <event_loop+0x528>
    3a50:	83 ec 1c             	sub    $0x1c,%esp
    3a53:	89 d6                	mov    %edx,%esi
    3a55:	89 e7                	mov    %esp,%edi
    3a57:	b9 06 00 00 00       	mov    $0x6,%ecx
    3a5c:	f3 a5                	rep movsl %ds:(%esi),%es:(%edi)
    3a5e:	50                   	push   %eax
    3a5f:	ff 50 54             	call   *0x54(%eax)
    3a62:	83 c4 14             	add    $0x14,%esp
    3a65:	53                   	push   %ebx
    3a66:	e8 35 44 00 00       	call   7ea0 <free@plt>
    3a6b:	83 c4 10             	add    $0x10,%esp
    3a6e:	e9 85 fb ff ff       	jmp    35f8 <event_loop+0x28>
    3a73:	90                   	nop
    3a74:	8d 74 26 00          	lea    0x0(%esi,%eiz,1),%esi
    3a78:	8b 45 08             	mov    0x8(%ebp),%eax
    3a7b:	83 ec 0c             	sub    $0xc,%esp
    3a7e:	8b 40 0c             	mov    0xc(%eax),%eax
    3a81:	6a 00                	push   $0x0
    3a83:	6a 00                	push   $0x0
    3a85:	6a 00                	push   $0x0
    3a87:	6a 00                	push   $0x0
    3a89:	50                   	push   %eax
    3a8a:	e8 f1 42 00 00       	call   7d80 <win_damage@plt>
    3a8f:	83 c4 14             	add    $0x14,%esp
    3a92:	53                   	push   %ebx
    3a93:	e8 08 44 00 00       	call   7ea0 <free@plt>
    3a98:	83 c4 10             	add    $0x10,%esp
    3a9b:	e9 58 fb ff ff       	jmp    35f8 <event_loop+0x28>
    3aa0:	c6 40 02 00          	movb   $0x0,0x2(%eax)
    3aa4:	e9 e4 fd ff ff       	jmp    388d <event_loop+0x2bd>
    3aa9:	8d b4 26 00 00 00 00 	lea    0x0(%esi,%eiz,1),%esi
    3ab0:	83 ec 0c             	sub    $0xc,%esp
    3ab3:	8b 7d a0             	mov    -0x60(%ebp),%edi
    3ab6:	c6 40 02 01          	movb   $0x1,0x2(%eax)
    3aba:	57                   	push   %edi
    3abb:	ff 90 80 00 00 00    	call   *0x80(%eax)
    3ac1:	83 c4 10             	add    $0x10,%esp
    3ac4:	e9 1c fe ff ff       	jmp    38e5 <event_loop+0x315>
    3ac9:	8d b4 26 00 00 00 00 	lea    0x0(%esi,%eiz,1),%esi
    3ad0:	8b 45 98             	mov    -0x68(%ebp),%eax
    3ad3:	85 c0                	test   %eax,%eax
    3ad5:	0f 84 8d fd ff ff    	je     3868 <event_loop+0x298>
    3adb:	83 ec 0c             	sub    $0xc,%esp
    3ade:	50                   	push   %eax
    3adf:	e8 fc 26 00 00       	call   61e0 <surface_destroy>
    3ae4:	89 1c 24             	mov    %ebx,(%esp)
    3ae7:	e8 b4 43 00 00       	call   7ea0 <free@plt>
    3aec:	83 c4 10             	add    $0x10,%esp
    3aef:	e9 04 fb ff ff       	jmp    35f8 <event_loop+0x28>
    3af4:	8d 74 26 00          	lea    0x0(%esi,%eiz,1),%esi
    3af8:	83 ec 1c             	sub    $0x1c,%esp
    3afb:	89 d6                	mov    %edx,%esi
    3afd:	89 e7                	mov    %esp,%edi
    3aff:	b9 06 00 00 00       	mov    $0x6,%ecx
    3b04:	f3 a5                	rep movsl %ds:(%esi),%es:(%edi)
    3b06:	8b 45 a0             	mov    -0x60(%ebp),%eax
    3b09:	50                   	push   %eax
    3b0a:	8b 45 08             	mov    0x8(%ebp),%eax
    3b0d:	ff 90 84 00 00 00    	call   *0x84(%eax)
    3b13:	83 c4 14             	add    $0x14,%esp
    3b16:	53                   	push   %ebx
    3b17:	e8 84 43 00 00       	call   7ea0 <free@plt>
    3b1c:	83 c4 10             	add    $0x10,%esp
    3b1f:	e9 d4 fa ff ff       	jmp    35f8 <event_loop+0x28>
    3b24:	8d 74 26 00          	lea    0x0(%esi,%eiz,1),%esi
    3b28:	50                   	push   %eax
    3b29:	50                   	push   %eax
    3b2a:	8b 45 98             	mov    -0x68(%ebp),%eax
    3b2d:	57                   	push   %edi
    3b2e:	56                   	push   %esi
    3b2f:	50                   	push   %eax
    3b30:	8b 45 a0             	mov    -0x60(%ebp),%eax
    3b33:	51                   	push   %ecx
    3b34:	52                   	push   %edx
    3b35:	50                   	push   %eax
    3b36:	8b 45 08             	mov    0x8(%ebp),%eax
    3b39:	ff 90 88 00 00 00    	call   *0x88(%eax)
    3b3f:	83 c4 14             	add    $0x14,%esp
    3b42:	53                   	push   %ebx
    3b43:	e8 58 43 00 00       	call   7ea0 <free@plt>
    3b48:	83 c4 10             	add    $0x10,%esp
    3b4b:	e9 a8 fa ff ff       	jmp    35f8 <event_loop+0x28>
    3b50:	83 ec 0c             	sub    $0xc,%esp
    3b53:	6a 00                	push   $0x0
    3b55:	e8 96 42 00 00       	call   7df0 <exit@plt>
    3b5a:	8d b6 00 00 00 00    	lea    0x0(%esi),%esi

00003b60 <root_repaint>:
    3b60:	55                   	push   %ebp
    3b61:	89 e5                	mov    %esp,%ebp
    3b63:	57                   	push   %edi
    3b64:	56                   	push   %esi
    3b65:	53                   	push   %ebx
    3b66:	83 ec 0c             	sub    $0xc,%esp
    3b69:	8b 7d 08             	mov    0x8(%ebp),%edi
    3b6c:	8b 47 14             	mov    0x14(%edi),%eax
    3b6f:	80 78 01 00          	cmpb   $0x0,0x1(%eax)
    3b73:	75 2d                	jne    3ba2 <root_repaint+0x42>
    3b75:	8b 5f 10             	mov    0x10(%edi),%ebx
    3b78:	8d 77 0c             	lea    0xc(%edi),%esi
    3b7b:	39 de                	cmp    %ebx,%esi
    3b7d:	74 1b                	je     3b9a <root_repaint+0x3a>
    3b7f:	90                   	nop
    3b80:	83 ec 0c             	sub    $0xc,%esp
    3b83:	53                   	push   %ebx
    3b84:	ff 53 50             	call   *0x50(%ebx)
    3b87:	8b 5b 04             	mov    0x4(%ebx),%ebx
    3b8a:	83 c4 10             	add    $0x10,%esp
    3b8d:	39 f3                	cmp    %esi,%ebx
    3b8f:	75 ef                	jne    3b80 <root_repaint+0x20>
    3b91:	8b 5f 14             	mov    0x14(%edi),%ebx
    3b94:	80 7b 01 00          	cmpb   $0x0,0x1(%ebx)
    3b98:	75 26                	jne    3bc0 <root_repaint+0x60>
    3b9a:	8d 65 f4             	lea    -0xc(%ebp),%esp
    3b9d:	5b                   	pop    %ebx
    3b9e:	5e                   	pop    %esi
    3b9f:	5f                   	pop    %edi
    3ba0:	5d                   	pop    %ebp
    3ba1:	c3                   	ret    
    3ba2:	89 f8                	mov    %edi,%eax
    3ba4:	8d 77 0c             	lea    0xc(%edi),%esi
    3ba7:	e8 24 f3 ff ff       	call   2ed0 <paint_internal>
    3bac:	8b 5f 10             	mov    0x10(%edi),%ebx
    3baf:	39 f3                	cmp    %esi,%ebx
    3bb1:	75 cd                	jne    3b80 <root_repaint+0x20>
    3bb3:	8b 5f 14             	mov    0x14(%edi),%ebx
    3bb6:	80 7b 01 00          	cmpb   $0x0,0x1(%ebx)
    3bba:	74 de                	je     3b9a <root_repaint+0x3a>
    3bbc:	8d 74 26 00          	lea    0x0(%esi,%eiz,1),%esi
    3bc0:	83 ec 0c             	sub    $0xc,%esp
    3bc3:	6a 24                	push   $0x24
    3bc5:	e8 e6 3f 00 00       	call   7bb0 <malloc@plt>
    3bca:	83 c4 10             	add    $0x10,%esp
    3bcd:	85 c0                	test   %eax,%eax
    3bcf:	74 c9                	je     3b9a <root_repaint+0x3a>
    3bd1:	83 c3 10             	add    $0x10,%ebx
    3bd4:	c7 00 00 00 00 00    	movl   $0x0,(%eax)
    3bda:	c7 40 04 00 00 00 00 	movl   $0x0,0x4(%eax)
    3be1:	c7 40 08 07 00 00 00 	movl   $0x7,0x8(%eax)
    3be8:	52                   	push   %edx
    3be9:	52                   	push   %edx
    3bea:	50                   	push   %eax
    3beb:	53                   	push   %ebx
    3bec:	e8 df 41 00 00       	call   7dd0 <prodcons_produce@plt>
    3bf1:	83 c4 10             	add    $0x10,%esp
    3bf4:	8d 65 f4             	lea    -0xc(%ebp),%esp
    3bf7:	5b                   	pop    %ebx
    3bf8:	5e                   	pop    %esi
    3bf9:	5f                   	pop    %edi
    3bfa:	5d                   	pop    %ebp
    3bfb:	c3                   	ret    
    3bfc:	8d 74 26 00          	lea    0x0(%esi,%eiz,1),%esi

00003c00 <window_open>:
    3c00:	55                   	push   %ebp
    3c01:	89 e5                	mov    %esp,%ebp
    3c03:	57                   	push   %edi
    3c04:	56                   	push   %esi
    3c05:	53                   	push   %ebx
    3c06:	83 ec 28             	sub    $0x28,%esp
    3c09:	8b 75 10             	mov    0x10(%ebp),%esi
    3c0c:	68 a8 00 00 00       	push   $0xa8
    3c11:	e8 9a 3f 00 00       	call   7bb0 <malloc@plt>
    3c16:	83 c4 10             	add    $0x10,%esp
    3c19:	89 c3                	mov    %eax,%ebx
    3c1b:	85 c0                	test   %eax,%eax
    3c1d:	0f 84 3b 01 00 00    	je     3d5e <window_open+0x15e>
    3c23:	89 f0                	mov    %esi,%eax
    3c25:	83 ec 0c             	sub    $0xc,%esp
    3c28:	88 03                	mov    %al,(%ebx)
    3c2a:	89 f0                	mov    %esi,%eax
    3c2c:	80 23 01             	andb   $0x1,(%ebx)
    3c2f:	c6 43 02 01          	movb   $0x1,0x2(%ebx)
    3c33:	d1 e8                	shr    %eax
    3c35:	83 e0 01             	and    $0x1,%eax
    3c38:	88 43 01             	mov    %al,0x1(%ebx)
    3c3b:	8d 43 10             	lea    0x10(%ebx),%eax
    3c3e:	50                   	push   %eax
    3c3f:	e8 9c 40 00 00       	call   7ce0 <prodcons_initialize@plt>
    3c44:	8d 83 94 00 00 00    	lea    0x94(%ebx),%eax
    3c4a:	89 04 24             	mov    %eax,(%esp)
    3c4d:	e8 4e 40 00 00       	call   7ca0 <fibril_mutex_initialize@plt>
    3c52:	83 c4 0c             	add    $0xc,%esp
    3c55:	8b 45 0c             	mov    0xc(%ebp),%eax
    3c58:	50                   	push   %eax
    3c59:	8d 43 30             	lea    0x30(%ebx),%eax
    3c5c:	6a 00                	push   $0x0
    3c5e:	50                   	push   %eax
    3c5f:	e8 9c ed ff ff       	call   2a00 <widget_init>
    3c64:	83 c4 0c             	add    $0xc,%esp
    3c67:	8d 45 dc             	lea    -0x24(%ebp),%eax
    3c6a:	89 5b 44             	mov    %ebx,0x44(%ebx)
    3c6d:	c7 43 74 40 2e 00 00 	movl   $0x2e40,0x74(%ebx)
    3c74:	c7 43 78 80 32 00 00 	movl   $0x3280,0x78(%ebx)
    3c7b:	c7 43 7c 20 33 00 00 	movl   $0x3320,0x7c(%ebx)
    3c82:	c7 83 80 00 00 00 60 	movl   $0x3b60,0x80(%ebx)
    3c89:	3b 00 00 
    3c8c:	c7 83 84 00 00 00 00 	movl   $0x2b00,0x84(%ebx)
    3c93:	2b 00 00 
    3c96:	c7 83 88 00 00 00 40 	movl   $0x2b40,0x88(%ebx)
    3c9d:	2b 00 00 
    3ca0:	c7 83 8c 00 00 00 00 	movl   $0x0,0x8c(%ebx)
    3ca7:	00 00 00 
    3caa:	c7 83 90 00 00 00 00 	movl   $0x0,0x90(%ebx)
    3cb1:	00 00 00 
    3cb4:	c7 83 a4 00 00 00 00 	movl   $0x0,0xa4(%ebx)
    3cbb:	00 00 00 
    3cbe:	6a 00                	push   $0x0
    3cc0:	50                   	push   %eax
    3cc1:	8b 45 08             	mov    0x8(%ebp),%eax
    3cc4:	50                   	push   %eax
    3cc5:	e8 16 3f 00 00       	call   7be0 <loc_service_get_id@plt>
    3cca:	83 c4 10             	add    $0x10,%esp
    3ccd:	85 c0                	test   %eax,%eax
    3ccf:	0f 85 93 00 00 00    	jne    3d68 <window_open+0x168>
    3cd5:	50                   	push   %eax
    3cd6:	8b 45 dc             	mov    -0x24(%ebp),%eax
    3cd9:	6a 00                	push   $0x0
    3cdb:	68 31 6e c3 e7       	push   $0xe7c36e31
    3ce0:	50                   	push   %eax
    3ce1:	e8 2a 3e 00 00       	call   7b10 <loc_service_connect@plt>
    3ce6:	83 c4 10             	add    $0x10,%esp
    3ce9:	89 c7                	mov    %eax,%edi
    3ceb:	85 c0                	test   %eax,%eax
    3ced:	74 79                	je     3d68 <window_open+0x168>
    3cef:	8d 45 e4             	lea    -0x1c(%ebp),%eax
    3cf2:	50                   	push   %eax
    3cf3:	8d 45 e0             	lea    -0x20(%ebp),%eax
    3cf6:	50                   	push   %eax
    3cf7:	56                   	push   %esi
    3cf8:	57                   	push   %edi
    3cf9:	e8 f2 3f 00 00       	call   7cf0 <win_register@plt>
    3cfe:	89 c6                	mov    %eax,%esi
    3d00:	89 3c 24             	mov    %edi,(%esp)
    3d03:	e8 28 3e 00 00       	call   7b30 <async_hangup@plt>
    3d08:	83 c4 10             	add    $0x10,%esp
    3d0b:	85 f6                	test   %esi,%esi
    3d0d:	75 59                	jne    3d68 <window_open+0x168>
    3d0f:	50                   	push   %eax
    3d10:	8b 45 e4             	mov    -0x1c(%ebp),%eax
    3d13:	6a 00                	push   $0x0
    3d15:	68 31 6e c3 e7       	push   $0xe7c36e31
    3d1a:	50                   	push   %eax
    3d1b:	e8 f0 3d 00 00       	call   7b10 <loc_service_connect@plt>
    3d20:	83 c4 10             	add    $0x10,%esp
    3d23:	89 43 0c             	mov    %eax,0xc(%ebx)
    3d26:	85 c0                	test   %eax,%eax
    3d28:	74 3e                	je     3d68 <window_open+0x168>
    3d2a:	8b 7d e0             	mov    -0x20(%ebp),%edi
    3d2d:	56                   	push   %esi
    3d2e:	6a 00                	push   $0x0
    3d30:	68 31 6e c3 e7       	push   $0xe7c36e31
    3d35:	57                   	push   %edi
    3d36:	e8 d5 3d 00 00       	call   7b10 <loc_service_connect@plt>
    3d3b:	83 c4 10             	add    $0x10,%esp
    3d3e:	89 43 08             	mov    %eax,0x8(%ebx)
    3d41:	85 c0                	test   %eax,%eax
    3d43:	74 4c                	je     3d91 <window_open+0x191>
    3d45:	8b 55 14             	mov    0x14(%ebp),%edx
    3d48:	85 d2                	test   %edx,%edx
    3d4a:	74 34                	je     3d80 <window_open+0x180>
    3d4c:	83 ec 0c             	sub    $0xc,%esp
    3d4f:	8b 45 14             	mov    0x14(%ebp),%eax
    3d52:	50                   	push   %eax
    3d53:	e8 38 3f 00 00       	call   7c90 <str_dup@plt>
    3d58:	83 c4 10             	add    $0x10,%esp
    3d5b:	89 43 04             	mov    %eax,0x4(%ebx)
    3d5e:	8d 65 f4             	lea    -0xc(%ebp),%esp
    3d61:	89 d8                	mov    %ebx,%eax
    3d63:	5b                   	pop    %ebx
    3d64:	5e                   	pop    %esi
    3d65:	5f                   	pop    %edi
    3d66:	5d                   	pop    %ebp
    3d67:	c3                   	ret    
    3d68:	83 ec 0c             	sub    $0xc,%esp
    3d6b:	53                   	push   %ebx
    3d6c:	e8 2f 41 00 00       	call   7ea0 <free@plt>
    3d71:	83 c4 10             	add    $0x10,%esp
    3d74:	8d 65 f4             	lea    -0xc(%ebp),%esp
    3d77:	31 db                	xor    %ebx,%ebx
    3d79:	89 d8                	mov    %ebx,%eax
    3d7b:	5b                   	pop    %ebx
    3d7c:	5e                   	pop    %esi
    3d7d:	5f                   	pop    %edi
    3d7e:	5d                   	pop    %ebp
    3d7f:	c3                   	ret    
    3d80:	c7 43 04 00 00 00 00 	movl   $0x0,0x4(%ebx)
    3d87:	8d 65 f4             	lea    -0xc(%ebp),%esp
    3d8a:	89 d8                	mov    %ebx,%eax
    3d8c:	5b                   	pop    %ebx
    3d8d:	5e                   	pop    %esi
    3d8e:	5f                   	pop    %edi
    3d8f:	5d                   	pop    %ebp
    3d90:	c3                   	ret    
    3d91:	83 ec 0c             	sub    $0xc,%esp
    3d94:	8b 4b 0c             	mov    0xc(%ebx),%ecx
    3d97:	51                   	push   %ecx
    3d98:	e8 93 3d 00 00       	call   7b30 <async_hangup@plt>
    3d9d:	89 1c 24             	mov    %ebx,(%esp)
    3da0:	e8 fb 40 00 00       	call   7ea0 <free@plt>
    3da5:	31 db                	xor    %ebx,%ebx
    3da7:	83 c4 10             	add    $0x10,%esp
    3daa:	eb b2                	jmp    3d5e <window_open+0x15e>
    3dac:	8d 74 26 00          	lea    0x0(%esi,%eiz,1),%esi

00003db0 <window_resize>:
    3db0:	55                   	push   %ebp
    3db1:	89 e5                	mov    %esp,%ebp
    3db3:	57                   	push   %edi
    3db4:	56                   	push   %esi
    3db5:	53                   	push   %ebx
    3db6:	83 ec 28             	sub    $0x28,%esp
    3db9:	8b 45 08             	mov    0x8(%ebp),%eax
    3dbc:	8b 55 18             	mov    0x18(%ebp),%edx
    3dbf:	8b 4d 1c             	mov    0x1c(%ebp),%ecx
    3dc2:	6a 24                	push   $0x24
    3dc4:	89 45 e4             	mov    %eax,-0x1c(%ebp)
    3dc7:	8b 7d 0c             	mov    0xc(%ebp),%edi
    3dca:	8b 75 10             	mov    0x10(%ebp),%esi
    3dcd:	8b 5d 14             	mov    0x14(%ebp),%ebx
    3dd0:	89 55 e0             	mov    %edx,-0x20(%ebp)
    3dd3:	89 4d dc             	mov    %ecx,-0x24(%ebp)
    3dd6:	e8 d5 3d 00 00       	call   7bb0 <malloc@plt>
    3ddb:	83 c4 10             	add    $0x10,%esp
    3dde:	85 c0                	test   %eax,%eax
    3de0:	74 46                	je     3e28 <window_resize+0x78>
    3de2:	8b 55 e0             	mov    -0x20(%ebp),%edx
    3de5:	8b 4d dc             	mov    -0x24(%ebp),%ecx
    3de8:	c7 00 00 00 00 00    	movl   $0x0,(%eax)
    3dee:	c7 40 04 00 00 00 00 	movl   $0x0,0x4(%eax)
    3df5:	c7 40 08 05 00 00 00 	movl   $0x5,0x8(%eax)
    3dfc:	89 78 0c             	mov    %edi,0xc(%eax)
    3dff:	89 70 10             	mov    %esi,0x10(%eax)
    3e02:	89 58 14             	mov    %ebx,0x14(%eax)
    3e05:	89 50 18             	mov    %edx,0x18(%eax)
    3e08:	89 48 1c             	mov    %ecx,0x1c(%eax)
    3e0b:	89 45 0c             	mov    %eax,0xc(%ebp)
    3e0e:	8b 45 e4             	mov    -0x1c(%ebp),%eax
    3e11:	83 c0 10             	add    $0x10,%eax
    3e14:	89 45 08             	mov    %eax,0x8(%ebp)
    3e17:	8d 65 f4             	lea    -0xc(%ebp),%esp
    3e1a:	5b                   	pop    %ebx
    3e1b:	5e                   	pop    %esi
    3e1c:	5f                   	pop    %edi
    3e1d:	5d                   	pop    %ebp
    3e1e:	e9 ad 3f 00 00       	jmp    7dd0 <prodcons_produce@plt>
    3e23:	90                   	nop
    3e24:	8d 74 26 00          	lea    0x0(%esi,%eiz,1),%esi
    3e28:	8d 65 f4             	lea    -0xc(%ebp),%esp
    3e2b:	5b                   	pop    %ebx
    3e2c:	5e                   	pop    %esi
    3e2d:	5f                   	pop    %edi
    3e2e:	5d                   	pop    %ebp
    3e2f:	c3                   	ret    

00003e30 <window_refresh>:
    3e30:	55                   	push   %ebp
    3e31:	89 e5                	mov    %esp,%ebp
    3e33:	83 ec 14             	sub    $0x14,%esp
    3e36:	6a 24                	push   $0x24
    3e38:	e8 73 3d 00 00       	call   7bb0 <malloc@plt>
    3e3d:	83 c4 10             	add    $0x10,%esp
    3e40:	85 c0                	test   %eax,%eax
    3e42:	74 26                	je     3e6a <window_refresh+0x3a>
    3e44:	c7 00 00 00 00 00    	movl   $0x0,(%eax)
    3e4a:	c7 40 04 00 00 00 00 	movl   $0x0,0x4(%eax)
    3e51:	c7 40 08 06 00 00 00 	movl   $0x6,0x8(%eax)
    3e58:	52                   	push   %edx
    3e59:	52                   	push   %edx
    3e5a:	50                   	push   %eax
    3e5b:	8b 45 08             	mov    0x8(%ebp),%eax
    3e5e:	83 c0 10             	add    $0x10,%eax
    3e61:	50                   	push   %eax
    3e62:	e8 69 3f 00 00       	call   7dd0 <prodcons_produce@plt>
    3e67:	83 c4 10             	add    $0x10,%esp
    3e6a:	c9                   	leave  
    3e6b:	c3                   	ret    
    3e6c:	8d 74 26 00          	lea    0x0(%esi,%eiz,1),%esi

00003e70 <window_damage>:
    3e70:	55                   	push   %ebp
    3e71:	89 e5                	mov    %esp,%ebp
    3e73:	83 ec 14             	sub    $0x14,%esp
    3e76:	6a 24                	push   $0x24
    3e78:	e8 33 3d 00 00       	call   7bb0 <malloc@plt>
    3e7d:	83 c4 10             	add    $0x10,%esp
    3e80:	85 c0                	test   %eax,%eax
    3e82:	74 26                	je     3eaa <window_damage+0x3a>
    3e84:	c7 00 00 00 00 00    	movl   $0x0,(%eax)
    3e8a:	c7 40 04 00 00 00 00 	movl   $0x0,0x4(%eax)
    3e91:	c7 40 08 07 00 00 00 	movl   $0x7,0x8(%eax)
    3e98:	52                   	push   %edx
    3e99:	52                   	push   %edx
    3e9a:	50                   	push   %eax
    3e9b:	8b 45 08             	mov    0x8(%ebp),%eax
    3e9e:	83 c0 10             	add    $0x10,%eax
    3ea1:	50                   	push   %eax
    3ea2:	e8 29 3f 00 00       	call   7dd0 <prodcons_produce@plt>
    3ea7:	83 c4 10             	add    $0x10,%esp
    3eaa:	c9                   	leave  
    3eab:	c3                   	ret    
    3eac:	8d 74 26 00          	lea    0x0(%esi,%eiz,1),%esi

00003eb0 <window_root>:
    3eb0:	55                   	push   %ebp
    3eb1:	89 e5                	mov    %esp,%ebp
    3eb3:	8b 45 08             	mov    0x8(%ebp),%eax
    3eb6:	5d                   	pop    %ebp
    3eb7:	83 c0 30             	add    $0x30,%eax
    3eba:	c3                   	ret    
    3ebb:	90                   	nop
    3ebc:	8d 74 26 00          	lea    0x0(%esi,%eiz,1),%esi

00003ec0 <window_exec>:
    3ec0:	55                   	push   %ebp
    3ec1:	89 e5                	mov    %esp,%ebp
    3ec3:	56                   	push   %esi
    3ec4:	53                   	push   %ebx
    3ec5:	83 ec 14             	sub    $0x14,%esp
    3ec8:	8b 5d 08             	mov    0x8(%ebp),%ebx
    3ecb:	6a 00                	push   $0x0
    3ecd:	53                   	push   %ebx
    3ece:	68 d0 35 00 00       	push   $0x35d0
    3ed3:	e8 28 3f 00 00       	call   7e00 <fibril_create_generic@plt>
    3ed8:	83 c4 0c             	add    $0xc,%esp
    3edb:	89 c6                	mov    %eax,%esi
    3edd:	6a 00                	push   $0x0
    3edf:	53                   	push   %ebx
    3ee0:	68 50 2e 00 00       	push   $0x2e50
    3ee5:	e8 16 3f 00 00       	call   7e00 <fibril_create_generic@plt>
    3eea:	83 c4 10             	add    $0x10,%esp
    3eed:	85 f6                	test   %esi,%esi
    3eef:	74 27                	je     3f18 <window_exec+0x58>
    3ef1:	85 c0                	test   %eax,%eax
    3ef3:	89 45 f4             	mov    %eax,-0xc(%ebp)
    3ef6:	74 20                	je     3f18 <window_exec+0x58>
    3ef8:	83 ec 0c             	sub    $0xc,%esp
    3efb:	56                   	push   %esi
    3efc:	e8 0f 3f 00 00       	call   7e10 <fibril_add_ready@plt>
    3f01:	8b 45 f4             	mov    -0xc(%ebp),%eax
    3f04:	83 c4 10             	add    $0x10,%esp
    3f07:	89 45 08             	mov    %eax,0x8(%ebp)
    3f0a:	8d 65 f8             	lea    -0x8(%ebp),%esp
    3f0d:	5b                   	pop    %ebx
    3f0e:	5e                   	pop    %esi
    3f0f:	5d                   	pop    %ebp
    3f10:	e9 fb 3e 00 00       	jmp    7e10 <fibril_add_ready@plt>
    3f15:	8d 76 00             	lea    0x0(%esi),%esi
    3f18:	8d 65 f8             	lea    -0x8(%ebp),%esp
    3f1b:	5b                   	pop    %ebx
    3f1c:	5e                   	pop    %esi
    3f1d:	5d                   	pop    %ebp
    3f1e:	c3                   	ret    
    3f1f:	90                   	nop

00003f20 <window_claim>:
    3f20:	55                   	push   %ebp
    3f21:	89 e5                	mov    %esp,%ebp
    3f23:	53                   	push   %ebx
    3f24:	83 ec 10             	sub    $0x10,%esp
    3f27:	8b 5d 08             	mov    0x8(%ebp),%ebx
    3f2a:	8d 83 94 00 00 00    	lea    0x94(%ebx),%eax
    3f30:	50                   	push   %eax
    3f31:	e8 7a 3f 00 00       	call   7eb0 <fibril_mutex_lock@plt>
    3f36:	8b 83 a4 00 00 00    	mov    0xa4(%ebx),%eax
    3f3c:	8b 5d fc             	mov    -0x4(%ebp),%ebx
    3f3f:	c9                   	leave  
    3f40:	c3                   	ret    
    3f41:	eb 0d                	jmp    3f50 <window_yield>
    3f43:	90                   	nop
    3f44:	90                   	nop
    3f45:	90                   	nop
    3f46:	90                   	nop
    3f47:	90                   	nop
    3f48:	90                   	nop
    3f49:	90                   	nop
    3f4a:	90                   	nop
    3f4b:	90                   	nop
    3f4c:	90                   	nop
    3f4d:	90                   	nop
    3f4e:	90                   	nop
    3f4f:	90                   	nop

00003f50 <window_yield>:
    3f50:	55                   	push   %ebp
    3f51:	89 e5                	mov    %esp,%ebp
    3f53:	8b 45 08             	mov    0x8(%ebp),%eax
    3f56:	05 94 00 00 00       	add    $0x94,%eax
    3f5b:	89 45 08             	mov    %eax,0x8(%ebp)
    3f5e:	5d                   	pop    %ebp
    3f5f:	e9 1c 3d 00 00       	jmp    7c80 <fibril_mutex_unlock@plt>
    3f64:	8d b6 00 00 00 00    	lea    0x0(%esi),%esi
    3f6a:	8d bf 00 00 00 00    	lea    0x0(%edi),%edi

00003f70 <window_close>:
    3f70:	55                   	push   %ebp
    3f71:	89 e5                	mov    %esp,%ebp
    3f73:	8b 45 08             	mov    0x8(%ebp),%eax
    3f76:	8b 40 0c             	mov    0xc(%eax),%eax
    3f79:	89 45 08             	mov    %eax,0x8(%ebp)
    3f7c:	5d                   	pop    %ebp
    3f7d:	e9 fe 3e 00 00       	jmp    7e80 <win_close_request@plt>
    3f82:	66 90                	xchg   %ax,%ax
    3f84:	66 90                	xchg   %ax,%ax
    3f86:	66 90                	xchg   %ax,%ax
    3f88:	66 90                	xchg   %ax,%ax
    3f8a:	66 90                	xchg   %ax,%ax
    3f8c:	66 90                	xchg   %ax,%ax
    3f8e:	66 90                	xchg   %ax,%ax

00003f90 <draw_icon_cross>:
    3f90:	55                   	push   %ebp
    3f91:	31 c0                	xor    %eax,%eax
    3f93:	89 e5                	mov    %esp,%ebp
    3f95:	57                   	push   %edi
    3f96:	56                   	push   %esi
    3f97:	53                   	push   %ebx
    3f98:	83 ec 1c             	sub    $0x1c,%esp
    3f9b:	31 f6                	xor    %esi,%esi
    3f9d:	8b 5d 18             	mov    0x18(%ebp),%ebx
    3fa0:	c6 45 e7 00          	movb   $0x0,-0x19(%ebp)
    3fa4:	bf 02 00 00 00       	mov    $0x2,%edi
    3fa9:	8d b4 26 00 00 00 00 	lea    0x0(%esi,%eiz,1),%esi
    3fb0:	89 f2                	mov    %esi,%edx
    3fb2:	89 d9                	mov    %ebx,%ecx
    3fb4:	83 e2 02             	and    $0x2,%edx
    3fb7:	a8 02                	test   $0x2,%al
    3fb9:	74 03                	je     3fbe <draw_icon_cross+0x2e>
    3fbb:	8b 4d 14             	mov    0x14(%ebp),%ecx
    3fbe:	84 d2                	test   %dl,%dl
    3fc0:	0f 85 3a 03 00 00    	jne    4300 <draw_icon_cross+0x370>
    3fc6:	89 f2                	mov    %esi,%edx
    3fc8:	89 d9                	mov    %ebx,%ecx
    3fca:	83 e2 04             	and    $0x4,%edx
    3fcd:	a8 04                	test   $0x4,%al
    3fcf:	74 03                	je     3fd4 <draw_icon_cross+0x44>
    3fd1:	8b 4d 14             	mov    0x14(%ebp),%ecx
    3fd4:	84 d2                	test   %dl,%dl
    3fd6:	0f 85 fc 02 00 00    	jne    42d8 <draw_icon_cross+0x348>
    3fdc:	89 f2                	mov    %esi,%edx
    3fde:	89 d9                	mov    %ebx,%ecx
    3fe0:	83 e2 08             	and    $0x8,%edx
    3fe3:	a8 08                	test   $0x8,%al
    3fe5:	74 03                	je     3fea <draw_icon_cross+0x5a>
    3fe7:	8b 4d 14             	mov    0x14(%ebp),%ecx
    3fea:	84 d2                	test   %dl,%dl
    3fec:	0f 85 be 02 00 00    	jne    42b0 <draw_icon_cross+0x320>
    3ff2:	89 f2                	mov    %esi,%edx
    3ff4:	89 d9                	mov    %ebx,%ecx
    3ff6:	83 e2 10             	and    $0x10,%edx
    3ff9:	a8 10                	test   $0x10,%al
    3ffb:	74 03                	je     4000 <draw_icon_cross+0x70>
    3ffd:	8b 4d 14             	mov    0x14(%ebp),%ecx
    4000:	84 d2                	test   %dl,%dl
    4002:	0f 85 80 02 00 00    	jne    4288 <draw_icon_cross+0x2f8>
    4008:	89 f2                	mov    %esi,%edx
    400a:	89 d9                	mov    %ebx,%ecx
    400c:	83 e2 20             	and    $0x20,%edx
    400f:	a8 20                	test   $0x20,%al
    4011:	74 03                	je     4016 <draw_icon_cross+0x86>
    4013:	8b 4d 14             	mov    0x14(%ebp),%ecx
    4016:	84 d2                	test   %dl,%dl
    4018:	0f 85 42 02 00 00    	jne    4260 <draw_icon_cross+0x2d0>
    401e:	89 f2                	mov    %esi,%edx
    4020:	8b 4d 14             	mov    0x14(%ebp),%ecx
    4023:	83 e2 40             	and    $0x40,%edx
    4026:	a8 40                	test   $0x40,%al
    4028:	75 02                	jne    402c <draw_icon_cross+0x9c>
    402a:	89 d9                	mov    %ebx,%ecx
    402c:	84 d2                	test   %dl,%dl
    402e:	0f 85 0c 02 00 00    	jne    4240 <draw_icon_cross+0x2b0>
    4034:	8b 45 14             	mov    0x14(%ebp),%eax
    4037:	80 7d e7 00          	cmpb   $0x0,-0x19(%ebp)
    403b:	78 02                	js     403f <draw_icon_cross+0xaf>
    403d:	89 d8                	mov    %ebx,%eax
    403f:	89 f1                	mov    %esi,%ecx
    4041:	84 c9                	test   %cl,%cl
    4043:	0f 88 d7 01 00 00    	js     4220 <draw_icon_cross+0x290>
    4049:	0f b6 b7 23 78 00 00 	movzbl 0x7823(%edi),%esi
    4050:	8a 87 3f 78 00 00    	mov    0x783f(%edi),%al
    4056:	89 f2                	mov    %esi,%edx
    4058:	83 e2 01             	and    $0x1,%edx
    405b:	8b 4d 14             	mov    0x14(%ebp),%ecx
    405e:	a8 01                	test   $0x1,%al
    4060:	75 02                	jne    4064 <draw_icon_cross+0xd4>
    4062:	89 d9                	mov    %ebx,%ecx
    4064:	84 d2                	test   %dl,%dl
    4066:	0f 85 8c 01 00 00    	jne    41f8 <draw_icon_cross+0x268>
    406c:	89 f2                	mov    %esi,%edx
    406e:	89 d9                	mov    %ebx,%ecx
    4070:	83 e2 02             	and    $0x2,%edx
    4073:	a8 02                	test   $0x2,%al
    4075:	74 03                	je     407a <draw_icon_cross+0xea>
    4077:	8b 4d 14             	mov    0x14(%ebp),%ecx
    407a:	84 d2                	test   %dl,%dl
    407c:	0f 85 4e 01 00 00    	jne    41d0 <draw_icon_cross+0x240>
    4082:	89 f2                	mov    %esi,%edx
    4084:	89 d9                	mov    %ebx,%ecx
    4086:	83 e2 04             	and    $0x4,%edx
    4089:	a8 04                	test   $0x4,%al
    408b:	74 03                	je     4090 <draw_icon_cross+0x100>
    408d:	8b 4d 14             	mov    0x14(%ebp),%ecx
    4090:	84 d2                	test   %dl,%dl
    4092:	0f 85 10 01 00 00    	jne    41a8 <draw_icon_cross+0x218>
    4098:	89 f2                	mov    %esi,%edx
    409a:	89 d9                	mov    %ebx,%ecx
    409c:	83 e2 08             	and    $0x8,%edx
    409f:	a8 08                	test   $0x8,%al
    40a1:	74 03                	je     40a6 <draw_icon_cross+0x116>
    40a3:	8b 4d 14             	mov    0x14(%ebp),%ecx
    40a6:	84 d2                	test   %dl,%dl
    40a8:	0f 85 d2 00 00 00    	jne    4180 <draw_icon_cross+0x1f0>
    40ae:	89 f2                	mov    %esi,%edx
    40b0:	89 d9                	mov    %ebx,%ecx
    40b2:	83 e2 10             	and    $0x10,%edx
    40b5:	a8 10                	test   $0x10,%al
    40b7:	74 03                	je     40bc <draw_icon_cross+0x12c>
    40b9:	8b 4d 14             	mov    0x14(%ebp),%ecx
    40bc:	84 d2                	test   %dl,%dl
    40be:	0f 85 94 00 00 00    	jne    4158 <draw_icon_cross+0x1c8>
    40c4:	89 f2                	mov    %esi,%edx
    40c6:	8b 4d 14             	mov    0x14(%ebp),%ecx
    40c9:	83 e2 20             	and    $0x20,%edx
    40cc:	a8 20                	test   $0x20,%al
    40ce:	75 02                	jne    40d2 <draw_icon_cross+0x142>
    40d0:	89 d9                	mov    %ebx,%ecx
    40d2:	84 d2                	test   %dl,%dl
    40d4:	75 5a                	jne    4130 <draw_icon_cross+0x1a0>
    40d6:	83 ff 1c             	cmp    $0x1c,%edi
    40d9:	74 72                	je     414d <draw_icon_cross+0x1bd>
    40db:	0f b6 b7 24 78 00 00 	movzbl 0x7824(%edi),%esi
    40e2:	8a 87 40 78 00 00    	mov    0x7840(%edi),%al
    40e8:	89 f2                	mov    %esi,%edx
    40ea:	88 c1                	mov    %al,%cl
    40ec:	88 45 e7             	mov    %al,-0x19(%ebp)
    40ef:	31 c0                	xor    %eax,%eax
    40f1:	83 e2 01             	and    $0x1,%edx
    40f4:	88 c8                	mov    %cl,%al
    40f6:	f6 45 e7 01          	testb  $0x1,-0x19(%ebp)
    40fa:	89 d9                	mov    %ebx,%ecx
    40fc:	74 03                	je     4101 <draw_icon_cross+0x171>
    40fe:	8b 4d 14             	mov    0x14(%ebp),%ecx
    4101:	83 c7 02             	add    $0x2,%edi
    4104:	ff 45 10             	incl   0x10(%ebp)
    4107:	84 d2                	test   %dl,%dl
    4109:	0f 84 a1 fe ff ff    	je     3fb0 <draw_icon_cross+0x20>
    410f:	51                   	push   %ecx
    4110:	89 45 e0             	mov    %eax,-0x20(%ebp)
    4113:	8b 4d 10             	mov    0x10(%ebp),%ecx
    4116:	8b 45 0c             	mov    0xc(%ebp),%eax
    4119:	51                   	push   %ecx
    411a:	50                   	push   %eax
    411b:	8b 45 08             	mov    0x8(%ebp),%eax
    411e:	50                   	push   %eax
    411f:	e8 bc 22 00 00       	call   63e0 <surface_put_pixel>
    4124:	83 c4 10             	add    $0x10,%esp
    4127:	8b 45 e0             	mov    -0x20(%ebp),%eax
    412a:	e9 81 fe ff ff       	jmp    3fb0 <draw_icon_cross+0x20>
    412f:	90                   	nop
    4130:	8b 45 10             	mov    0x10(%ebp),%eax
    4133:	51                   	push   %ecx
    4134:	50                   	push   %eax
    4135:	8b 45 0c             	mov    0xc(%ebp),%eax
    4138:	83 c0 0d             	add    $0xd,%eax
    413b:	8b 55 08             	mov    0x8(%ebp),%edx
    413e:	50                   	push   %eax
    413f:	52                   	push   %edx
    4140:	e8 9b 22 00 00       	call   63e0 <surface_put_pixel>
    4145:	83 c4 10             	add    $0x10,%esp
    4148:	83 ff 1c             	cmp    $0x1c,%edi
    414b:	75 8e                	jne    40db <draw_icon_cross+0x14b>
    414d:	8d 65 f4             	lea    -0xc(%ebp),%esp
    4150:	5b                   	pop    %ebx
    4151:	5e                   	pop    %esi
    4152:	5f                   	pop    %edi
    4153:	5d                   	pop    %ebp
    4154:	c3                   	ret    
    4155:	8d 76 00             	lea    0x0(%esi),%esi
    4158:	88 45 e7             	mov    %al,-0x19(%ebp)
    415b:	8b 45 0c             	mov    0xc(%ebp),%eax
    415e:	51                   	push   %ecx
    415f:	8b 4d 10             	mov    0x10(%ebp),%ecx
    4162:	8d 50 0c             	lea    0xc(%eax),%edx
    4165:	8b 45 08             	mov    0x8(%ebp),%eax
    4168:	51                   	push   %ecx
    4169:	52                   	push   %edx
    416a:	50                   	push   %eax
    416b:	e8 70 22 00 00       	call   63e0 <surface_put_pixel>
    4170:	83 c4 10             	add    $0x10,%esp
    4173:	8a 45 e7             	mov    -0x19(%ebp),%al
    4176:	e9 49 ff ff ff       	jmp    40c4 <draw_icon_cross+0x134>
    417b:	90                   	nop
    417c:	8d 74 26 00          	lea    0x0(%esi,%eiz,1),%esi
    4180:	88 45 e7             	mov    %al,-0x19(%ebp)
    4183:	8b 45 10             	mov    0x10(%ebp),%eax
    4186:	51                   	push   %ecx
    4187:	50                   	push   %eax
    4188:	8b 45 0c             	mov    0xc(%ebp),%eax
    418b:	8d 50 0b             	lea    0xb(%eax),%edx
    418e:	8b 45 08             	mov    0x8(%ebp),%eax
    4191:	52                   	push   %edx
    4192:	50                   	push   %eax
    4193:	e8 48 22 00 00       	call   63e0 <surface_put_pixel>
    4198:	83 c4 10             	add    $0x10,%esp
    419b:	8a 45 e7             	mov    -0x19(%ebp),%al
    419e:	e9 0b ff ff ff       	jmp    40ae <draw_icon_cross+0x11e>
    41a3:	90                   	nop
    41a4:	8d 74 26 00          	lea    0x0(%esi,%eiz,1),%esi
    41a8:	88 45 e7             	mov    %al,-0x19(%ebp)
    41ab:	8b 45 10             	mov    0x10(%ebp),%eax
    41ae:	51                   	push   %ecx
    41af:	50                   	push   %eax
    41b0:	8b 45 0c             	mov    0xc(%ebp),%eax
    41b3:	8d 50 0a             	lea    0xa(%eax),%edx
    41b6:	8b 45 08             	mov    0x8(%ebp),%eax
    41b9:	52                   	push   %edx
    41ba:	50                   	push   %eax
    41bb:	e8 20 22 00 00       	call   63e0 <surface_put_pixel>
    41c0:	83 c4 10             	add    $0x10,%esp
    41c3:	8a 45 e7             	mov    -0x19(%ebp),%al
    41c6:	e9 cd fe ff ff       	jmp    4098 <draw_icon_cross+0x108>
    41cb:	90                   	nop
    41cc:	8d 74 26 00          	lea    0x0(%esi,%eiz,1),%esi
    41d0:	88 45 e7             	mov    %al,-0x19(%ebp)
    41d3:	8b 45 10             	mov    0x10(%ebp),%eax
    41d6:	51                   	push   %ecx
    41d7:	50                   	push   %eax
    41d8:	8b 45 0c             	mov    0xc(%ebp),%eax
    41db:	8d 50 09             	lea    0x9(%eax),%edx
    41de:	52                   	push   %edx
    41df:	8b 55 08             	mov    0x8(%ebp),%edx
    41e2:	52                   	push   %edx
    41e3:	e8 f8 21 00 00       	call   63e0 <surface_put_pixel>
    41e8:	83 c4 10             	add    $0x10,%esp
    41eb:	8a 45 e7             	mov    -0x19(%ebp),%al
    41ee:	e9 8f fe ff ff       	jmp    4082 <draw_icon_cross+0xf2>
    41f3:	90                   	nop
    41f4:	8d 74 26 00          	lea    0x0(%esi,%eiz,1),%esi
    41f8:	88 45 e7             	mov    %al,-0x19(%ebp)
    41fb:	8b 45 0c             	mov    0xc(%ebp),%eax
    41fe:	51                   	push   %ecx
    41ff:	8b 4d 10             	mov    0x10(%ebp),%ecx
    4202:	8d 50 08             	lea    0x8(%eax),%edx
    4205:	8b 45 08             	mov    0x8(%ebp),%eax
    4208:	51                   	push   %ecx
    4209:	52                   	push   %edx
    420a:	50                   	push   %eax
    420b:	e8 d0 21 00 00       	call   63e0 <surface_put_pixel>
    4210:	83 c4 10             	add    $0x10,%esp
    4213:	8a 45 e7             	mov    -0x19(%ebp),%al
    4216:	e9 51 fe ff ff       	jmp    406c <draw_icon_cross+0xdc>
    421b:	90                   	nop
    421c:	8d 74 26 00          	lea    0x0(%esi,%eiz,1),%esi
    4220:	50                   	push   %eax
    4221:	8b 45 10             	mov    0x10(%ebp),%eax
    4224:	50                   	push   %eax
    4225:	8b 45 0c             	mov    0xc(%ebp),%eax
    4228:	83 c0 07             	add    $0x7,%eax
    422b:	50                   	push   %eax
    422c:	8b 45 08             	mov    0x8(%ebp),%eax
    422f:	50                   	push   %eax
    4230:	e8 ab 21 00 00       	call   63e0 <surface_put_pixel>
    4235:	83 c4 10             	add    $0x10,%esp
    4238:	e9 0c fe ff ff       	jmp    4049 <draw_icon_cross+0xb9>
    423d:	8d 76 00             	lea    0x0(%esi),%esi
    4240:	8b 45 10             	mov    0x10(%ebp),%eax
    4243:	51                   	push   %ecx
    4244:	50                   	push   %eax
    4245:	8b 45 0c             	mov    0xc(%ebp),%eax
    4248:	83 c0 06             	add    $0x6,%eax
    424b:	50                   	push   %eax
    424c:	8b 45 08             	mov    0x8(%ebp),%eax
    424f:	50                   	push   %eax
    4250:	e8 8b 21 00 00       	call   63e0 <surface_put_pixel>
    4255:	83 c4 10             	add    $0x10,%esp
    4258:	e9 d7 fd ff ff       	jmp    4034 <draw_icon_cross+0xa4>
    425d:	8d 76 00             	lea    0x0(%esi),%esi
    4260:	89 45 e0             	mov    %eax,-0x20(%ebp)
    4263:	8b 45 10             	mov    0x10(%ebp),%eax
    4266:	51                   	push   %ecx
    4267:	50                   	push   %eax
    4268:	8b 45 0c             	mov    0xc(%ebp),%eax
    426b:	8d 50 05             	lea    0x5(%eax),%edx
    426e:	52                   	push   %edx
    426f:	8b 55 08             	mov    0x8(%ebp),%edx
    4272:	52                   	push   %edx
    4273:	e8 68 21 00 00       	call   63e0 <surface_put_pixel>
    4278:	83 c4 10             	add    $0x10,%esp
    427b:	8b 45 e0             	mov    -0x20(%ebp),%eax
    427e:	e9 9b fd ff ff       	jmp    401e <draw_icon_cross+0x8e>
    4283:	90                   	nop
    4284:	8d 74 26 00          	lea    0x0(%esi,%eiz,1),%esi
    4288:	89 45 e0             	mov    %eax,-0x20(%ebp)
    428b:	8b 45 0c             	mov    0xc(%ebp),%eax
    428e:	51                   	push   %ecx
    428f:	8b 4d 10             	mov    0x10(%ebp),%ecx
    4292:	8d 50 04             	lea    0x4(%eax),%edx
    4295:	8b 45 08             	mov    0x8(%ebp),%eax
    4298:	51                   	push   %ecx
    4299:	52                   	push   %edx
    429a:	50                   	push   %eax
    429b:	e8 40 21 00 00       	call   63e0 <surface_put_pixel>
    42a0:	83 c4 10             	add    $0x10,%esp
    42a3:	8b 45 e0             	mov    -0x20(%ebp),%eax
    42a6:	e9 5d fd ff ff       	jmp    4008 <draw_icon_cross+0x78>
    42ab:	90                   	nop
    42ac:	8d 74 26 00          	lea    0x0(%esi,%eiz,1),%esi
    42b0:	89 45 e0             	mov    %eax,-0x20(%ebp)
    42b3:	8b 45 10             	mov    0x10(%ebp),%eax
    42b6:	51                   	push   %ecx
    42b7:	50                   	push   %eax
    42b8:	8b 45 0c             	mov    0xc(%ebp),%eax
    42bb:	8d 50 03             	lea    0x3(%eax),%edx
    42be:	8b 45 08             	mov    0x8(%ebp),%eax
    42c1:	52                   	push   %edx
    42c2:	50                   	push   %eax
    42c3:	e8 18 21 00 00       	call   63e0 <surface_put_pixel>
    42c8:	83 c4 10             	add    $0x10,%esp
    42cb:	8b 45 e0             	mov    -0x20(%ebp),%eax
    42ce:	e9 1f fd ff ff       	jmp    3ff2 <draw_icon_cross+0x62>
    42d3:	90                   	nop
    42d4:	8d 74 26 00          	lea    0x0(%esi,%eiz,1),%esi
    42d8:	89 45 e0             	mov    %eax,-0x20(%ebp)
    42db:	8b 45 10             	mov    0x10(%ebp),%eax
    42de:	51                   	push   %ecx
    42df:	50                   	push   %eax
    42e0:	8b 45 0c             	mov    0xc(%ebp),%eax
    42e3:	8d 50 02             	lea    0x2(%eax),%edx
    42e6:	8b 45 08             	mov    0x8(%ebp),%eax
    42e9:	52                   	push   %edx
    42ea:	50                   	push   %eax
    42eb:	e8 f0 20 00 00       	call   63e0 <surface_put_pixel>
    42f0:	83 c4 10             	add    $0x10,%esp
    42f3:	8b 45 e0             	mov    -0x20(%ebp),%eax
    42f6:	e9 e1 fc ff ff       	jmp    3fdc <draw_icon_cross+0x4c>
    42fb:	90                   	nop
    42fc:	8d 74 26 00          	lea    0x0(%esi,%eiz,1),%esi
    4300:	89 45 e0             	mov    %eax,-0x20(%ebp)
    4303:	8b 45 10             	mov    0x10(%ebp),%eax
    4306:	51                   	push   %ecx
    4307:	50                   	push   %eax
    4308:	8b 45 0c             	mov    0xc(%ebp),%eax
    430b:	8d 50 01             	lea    0x1(%eax),%edx
    430e:	52                   	push   %edx
    430f:	8b 55 08             	mov    0x8(%ebp),%edx
    4312:	52                   	push   %edx
    4313:	e8 c8 20 00 00       	call   63e0 <surface_put_pixel>
    4318:	83 c4 10             	add    $0x10,%esp
    431b:	8b 45 e0             	mov    -0x20(%ebp),%eax
    431e:	e9 a3 fc ff ff       	jmp    3fc6 <draw_icon_cross+0x36>
    4323:	8d b6 00 00 00 00    	lea    0x0(%esi),%esi
    4329:	8d bc 27 00 00 00 00 	lea    0x0(%edi,%eiz,1),%edi

00004330 <draw_bevel>:
    4330:	55                   	push   %ebp
    4331:	89 e5                	mov    %esp,%ebp
    4333:	57                   	push   %edi
    4334:	56                   	push   %esi
    4335:	53                   	push   %ebx
    4336:	83 ec 24             	sub    $0x24,%esp
    4339:	8b 55 18             	mov    0x18(%ebp),%edx
    433c:	8b 45 0c             	mov    0xc(%ebp),%eax
    433f:	89 55 e4             	mov    %edx,-0x1c(%ebp)
    4342:	8b 55 24             	mov    0x24(%ebp),%edx
    4345:	8b 4d 1c             	mov    0x1c(%ebp),%ecx
    4348:	89 55 d8             	mov    %edx,-0x28(%ebp)
    434b:	8b 55 20             	mov    0x20(%ebp),%edx
    434e:	8b 5d 08             	mov    0x8(%ebp),%ebx
    4351:	52                   	push   %edx
    4352:	8b 75 10             	mov    0x10(%ebp),%esi
    4355:	50                   	push   %eax
    4356:	8b 7d 14             	mov    0x14(%ebp),%edi
    4359:	89 45 dc             	mov    %eax,-0x24(%ebp)
    435c:	89 4d e0             	mov    %ecx,-0x20(%ebp)
    435f:	e8 dc 1a 00 00       	call   5e40 <source_set_color>
    4364:	8b 55 e4             	mov    -0x1c(%ebp),%edx
    4367:	8d 4a ff             	lea    -0x1(%edx),%ecx
    436a:	c7 04 24 01 00 00 00 	movl   $0x1,(%esp)
    4371:	51                   	push   %ecx
    4372:	57                   	push   %edi
    4373:	56                   	push   %esi
    4374:	53                   	push   %ebx
    4375:	e8 96 14 00 00       	call   5810 <drawctx_transfer>
    437a:	83 c4 14             	add    $0x14,%esp
    437d:	8b 4d e0             	mov    -0x20(%ebp),%ecx
    4380:	83 e9 02             	sub    $0x2,%ecx
    4383:	51                   	push   %ecx
    4384:	8d 4f 01             	lea    0x1(%edi),%ecx
    4387:	6a 01                	push   $0x1
    4389:	51                   	push   %ecx
    438a:	56                   	push   %esi
    438b:	53                   	push   %ebx
    438c:	e8 7f 14 00 00       	call   5810 <drawctx_transfer>
    4391:	83 c4 18             	add    $0x18,%esp
    4394:	8b 55 d8             	mov    -0x28(%ebp),%edx
    4397:	8b 45 dc             	mov    -0x24(%ebp),%eax
    439a:	52                   	push   %edx
    439b:	50                   	push   %eax
    439c:	e8 9f 1a 00 00       	call   5e40 <source_set_color>
    43a1:	8b 4d e4             	mov    -0x1c(%ebp),%ecx
    43a4:	c7 04 24 01 00 00 00 	movl   $0x1,(%esp)
    43ab:	51                   	push   %ecx
    43ac:	8b 4d e0             	mov    -0x20(%ebp),%ecx
    43af:	8d 44 0f ff          	lea    -0x1(%edi,%ecx,1),%eax
    43b3:	50                   	push   %eax
    43b4:	56                   	push   %esi
    43b5:	53                   	push   %ebx
    43b6:	e8 55 14 00 00       	call   5810 <drawctx_transfer>
    43bb:	8b 55 e4             	mov    -0x1c(%ebp),%edx
    43be:	8b 4d e0             	mov    -0x20(%ebp),%ecx
    43c1:	89 7d 10             	mov    %edi,0x10(%ebp)
    43c4:	89 5d 08             	mov    %ebx,0x8(%ebp)
    43c7:	8d 44 16 ff          	lea    -0x1(%esi,%edx,1),%eax
    43cb:	89 4d 18             	mov    %ecx,0x18(%ebp)
    43ce:	c7 45 14 01 00 00 00 	movl   $0x1,0x14(%ebp)
    43d5:	89 45 0c             	mov    %eax,0xc(%ebp)
    43d8:	83 c4 20             	add    $0x20,%esp
    43db:	8d 65 f4             	lea    -0xc(%ebp),%esp
    43de:	5b                   	pop    %ebx
    43df:	5e                   	pop    %esi
    43e0:	5f                   	pop    %edi
    43e1:	5d                   	pop    %ebp
    43e2:	e9 29 14 00 00       	jmp    5810 <drawctx_transfer>
    43e7:	66 90                	xchg   %ax,%ax
    43e9:	66 90                	xchg   %ax,%ax
    43eb:	66 90                	xchg   %ax,%ax
    43ed:	66 90                	xchg   %ax,%ax
    43ef:	90                   	nop

000043f0 <fde_load_glyph_metrics>:
    43f0:	55                   	push   %ebp
    43f1:	89 e5                	mov    %esp,%ebp
    43f3:	8b 45 10             	mov    0x10(%ebp),%eax
    43f6:	c7 00 00 00 00 00    	movl   $0x0,(%eax)
    43fc:	c7 40 04 08 00 00 00 	movl   $0x8,0x4(%eax)
    4403:	c7 40 08 00 00 00 00 	movl   $0x0,0x8(%eax)
    440a:	c7 40 0c 0c 00 00 00 	movl   $0xc,0xc(%eax)
    4411:	c7 40 10 10 00 00 00 	movl   $0x10,0x10(%eax)
    4418:	31 c0                	xor    %eax,%eax
    441a:	5d                   	pop    %ebp
    441b:	c3                   	ret    
    441c:	8d 74 26 00          	lea    0x0(%esi,%eiz,1),%esi

00004420 <fde_release>:
    4420:	55                   	push   %ebp
    4421:	89 e5                	mov    %esp,%ebp
    4423:	5d                   	pop    %ebp
    4424:	c3                   	ret    
    4425:	8d 74 26 00          	lea    0x0(%esi,%eiz,1),%esi
    4429:	8d bc 27 00 00 00 00 	lea    0x0(%edi,%eiz,1),%edi

00004430 <fde_load_glyph_surface>:
    4430:	55                   	push   %ebp
    4431:	89 e5                	mov    %esp,%ebp
    4433:	57                   	push   %edi
    4434:	56                   	push   %esi
    4435:	53                   	push   %ebx
    4436:	83 ec 1c             	sub    $0x1c,%esp
    4439:	6a 00                	push   $0x0
    443b:	6a 00                	push   $0x0
    443d:	6a 10                	push   $0x10
    443f:	6a 08                	push   $0x8
    4441:	e8 ca 1c 00 00       	call   6110 <surface_create>
    4446:	83 c4 10             	add    $0x10,%esp
    4449:	85 c0                	test   %eax,%eax
    444b:	74 63                	je     44b0 <fde_load_glyph_surface+0x80>
    444d:	89 c3                	mov    %eax,%ebx
    444f:	8b 45 0c             	mov    0xc(%ebp),%eax
    4452:	c1 e0 04             	shl    $0x4,%eax
    4455:	31 f6                	xor    %esi,%esi
    4457:	89 45 e4             	mov    %eax,-0x1c(%ebp)
    445a:	89 f7                	mov    %esi,%edi
    445c:	8d 74 26 00          	lea    0x0(%esi,%eiz,1),%esi
    4460:	31 f6                	xor    %esi,%esi
    4462:	89 f8                	mov    %edi,%eax
    4464:	89 f7                	mov    %esi,%edi
    4466:	89 c6                	mov    %eax,%esi
    4468:	8b 55 e4             	mov    -0x1c(%ebp),%edx
    446b:	31 c0                	xor    %eax,%eax
    446d:	b9 07 00 00 00       	mov    $0x7,%ecx
    4472:	29 f9                	sub    %edi,%ecx
    4474:	8a 84 16 80 9a 00 00 	mov    0x9a80(%esi,%edx,1),%al
    447b:	d3 f8                	sar    %cl,%eax
    447d:	83 e0 01             	and    $0x1,%eax
    4480:	f7 d8                	neg    %eax
    4482:	25 00 00 00 ff       	and    $0xff000000,%eax
    4487:	50                   	push   %eax
    4488:	56                   	push   %esi
    4489:	57                   	push   %edi
    448a:	47                   	inc    %edi
    448b:	53                   	push   %ebx
    448c:	e8 4f 1f 00 00       	call   63e0 <surface_put_pixel>
    4491:	83 c4 10             	add    $0x10,%esp
    4494:	83 ff 08             	cmp    $0x8,%edi
    4497:	75 cf                	jne    4468 <fde_load_glyph_surface+0x38>
    4499:	89 f7                	mov    %esi,%edi
    449b:	47                   	inc    %edi
    449c:	83 ff 10             	cmp    $0x10,%edi
    449f:	75 bf                	jne    4460 <fde_load_glyph_surface+0x30>
    44a1:	8b 45 10             	mov    0x10(%ebp),%eax
    44a4:	89 18                	mov    %ebx,(%eax)
    44a6:	31 c0                	xor    %eax,%eax
    44a8:	8d 65 f4             	lea    -0xc(%ebp),%esp
    44ab:	5b                   	pop    %ebx
    44ac:	5e                   	pop    %esi
    44ad:	5f                   	pop    %edi
    44ae:	5d                   	pop    %ebp
    44af:	c3                   	ret    
    44b0:	b8 fe ff ff ff       	mov    $0xfffffffe,%eax
    44b5:	eb f1                	jmp    44a8 <fde_load_glyph_surface+0x78>
    44b7:	89 f6                	mov    %esi,%esi
    44b9:	8d bc 27 00 00 00 00 	lea    0x0(%edi,%eiz,1),%edi

000044c0 <fde_resolve_glyph>:
    44c0:	55                   	push   %ebp
    44c1:	89 e5                	mov    %esp,%ebp
    44c3:	83 ec 20             	sub    $0x20,%esp
    44c6:	8d 45 f7             	lea    -0x9(%ebp),%eax
    44c9:	c6 45 f7 00          	movb   $0x0,-0x9(%ebp)
    44cd:	50                   	push   %eax
    44ce:	8b 45 0c             	mov    0xc(%ebp),%eax
    44d1:	50                   	push   %eax
    44d2:	e8 69 08 00 00       	call   4d40 <fb_font_glyph>
    44d7:	83 c4 10             	add    $0x10,%esp
    44da:	80 7d f7 00          	cmpb   $0x0,-0x9(%ebp)
    44de:	74 10                	je     44f0 <fde_resolve_glyph+0x30>
    44e0:	8b 55 10             	mov    0x10(%ebp),%edx
    44e3:	25 ff ff 00 00       	and    $0xffff,%eax
    44e8:	89 02                	mov    %eax,(%edx)
    44ea:	31 c0                	xor    %eax,%eax
    44ec:	c9                   	leave  
    44ed:	c3                   	ret    
    44ee:	66 90                	xchg   %ax,%ax
    44f0:	83 c8 ff             	or     $0xffffffff,%eax
    44f3:	c9                   	leave  
    44f4:	c3                   	ret    
    44f5:	8d 74 26 00          	lea    0x0(%esi,%eiz,1),%esi
    44f9:	8d bc 27 00 00 00 00 	lea    0x0(%edi,%eiz,1),%edi

00004500 <embedded_font_create>:
    4500:	55                   	push   %ebp
    4501:	31 c0                	xor    %eax,%eax
    4503:	89 e5                	mov    %esp,%ebp
    4505:	83 ec 08             	sub    $0x8,%esp
    4508:	8b 0d 4c 9a 00 00    	mov    0x9a4c,%ecx
    450e:	66 8b 45 0c          	mov    0xc(%ebp),%ax
    4512:	8b 55 08             	mov    0x8(%ebp),%edx
    4515:	52                   	push   %edx
    4516:	50                   	push   %eax
    4517:	a1 48 9a 00 00       	mov    0x9a48,%eax
    451c:	51                   	push   %ecx
    451d:	50                   	push   %eax
    451e:	a1 44 9a 00 00       	mov    0x9a44,%eax
    4523:	50                   	push   %eax
    4524:	68 53 0b 00 00       	push   $0xb53
    4529:	6a 00                	push   $0x0
    452b:	68 50 9a 00 00       	push   $0x9a50
    4530:	e8 8b 06 00 00       	call   4bc0 <bitmap_font_create>
    4535:	c9                   	leave  
    4536:	c3                   	ret    
    4537:	66 90                	xchg   %ax,%ax
    4539:	66 90                	xchg   %ax,%ax
    453b:	66 90                	xchg   %ax,%ax
    453d:	66 90                	xchg   %ax,%ax
    453f:	90                   	nop

00004540 <bb_get_font_metrics>:
    4540:	55                   	push   %ebp
    4541:	89 e5                	mov    %esp,%ebp
    4543:	8b 55 08             	mov    0x8(%ebp),%edx
    4546:	8b 45 0c             	mov    0xc(%ebp),%eax
    4549:	8b 4a 08             	mov    0x8(%edx),%ecx
    454c:	89 08                	mov    %ecx,(%eax)
    454e:	8b 4a 0c             	mov    0xc(%edx),%ecx
    4551:	89 48 04             	mov    %ecx,0x4(%eax)
    4554:	8b 52 10             	mov    0x10(%edx),%edx
    4557:	89 50 08             	mov    %edx,0x8(%eax)
    455a:	31 c0                	xor    %eax,%eax
    455c:	5d                   	pop    %ebp
    455d:	c3                   	ret    
    455e:	66 90                	xchg   %ax,%ax

00004560 <bb_resolve_glyph>:
    4560:	55                   	push   %ebp
    4561:	89 e5                	mov    %esp,%ebp
    4563:	8b 45 08             	mov    0x8(%ebp),%eax
    4566:	8b 50 18             	mov    0x18(%eax),%edx
    4569:	8b 40 1c             	mov    0x1c(%eax),%eax
    456c:	89 45 08             	mov    %eax,0x8(%ebp)
    456f:	5d                   	pop    %ebp
    4570:	8b 02                	mov    (%edx),%eax
    4572:	ff e0                	jmp    *%eax
    4574:	8d b6 00 00 00 00    	lea    0x0(%esi),%esi
    457a:	8d bf 00 00 00 00    	lea    0x0(%edi),%edi

00004580 <bb_get_glyph_metrics>:
    4580:	55                   	push   %ebp
    4581:	89 e5                	mov    %esp,%ebp
    4583:	57                   	push   %edi
    4584:	56                   	push   %esi
    4585:	53                   	push   %ebx
    4586:	83 ec 3c             	sub    $0x3c,%esp
    4589:	8b 7d 08             	mov    0x8(%ebp),%edi
    458c:	8b 55 0c             	mov    0xc(%ebp),%edx
    458f:	8b 75 10             	mov    0x10(%ebp),%esi
    4592:	39 57 04             	cmp    %edx,0x4(%edi)
    4595:	0f 86 1d 01 00 00    	jbe    46b8 <bb_get_glyph_metrics+0x138>
    459b:	8d 1c d5 00 00 00 00 	lea    0x0(,%edx,8),%ebx
    45a2:	8b 47 14             	mov    0x14(%edi),%eax
    45a5:	29 d3                	sub    %edx,%ebx
    45a7:	c1 e3 02             	shl    $0x2,%ebx
    45aa:	01 d8                	add    %ebx,%eax
    45ac:	80 78 18 00          	cmpb   $0x0,0x18(%eax)
    45b0:	74 2e                	je     45e0 <bb_get_glyph_metrics+0x60>
    45b2:	8b 50 04             	mov    0x4(%eax),%edx
    45b5:	89 16                	mov    %edx,(%esi)
    45b7:	8b 50 08             	mov    0x8(%eax),%edx
    45ba:	89 56 04             	mov    %edx,0x4(%esi)
    45bd:	8b 50 0c             	mov    0xc(%eax),%edx
    45c0:	89 56 08             	mov    %edx,0x8(%esi)
    45c3:	8b 50 10             	mov    0x10(%eax),%edx
    45c6:	89 56 0c             	mov    %edx,0xc(%esi)
    45c9:	8b 40 14             	mov    0x14(%eax),%eax
    45cc:	89 46 10             	mov    %eax,0x10(%esi)
    45cf:	31 c0                	xor    %eax,%eax
    45d1:	8d 65 f4             	lea    -0xc(%ebp),%esp
    45d4:	5b                   	pop    %ebx
    45d5:	5e                   	pop    %esi
    45d6:	5f                   	pop    %edi
    45d7:	5d                   	pop    %ebp
    45d8:	c3                   	ret    
    45d9:	8d b4 26 00 00 00 00 	lea    0x0(%esi,%eiz,1),%esi
    45e0:	51                   	push   %ecx
    45e1:	8d 4d d4             	lea    -0x2c(%ebp),%ecx
    45e4:	8b 47 18             	mov    0x18(%edi),%eax
    45e7:	51                   	push   %ecx
    45e8:	52                   	push   %edx
    45e9:	8b 57 1c             	mov    0x1c(%edi),%edx
    45ec:	52                   	push   %edx
    45ed:	ff 50 08             	call   *0x8(%eax)
    45f0:	83 c4 10             	add    $0x10,%esp
    45f3:	85 c0                	test   %eax,%eax
    45f5:	75 da                	jne    45d1 <bb_get_glyph_metrics+0x51>
    45f7:	80 7f 20 00          	cmpb   $0x0,0x20(%edi)
    45fb:	74 68                	je     4665 <bb_get_glyph_metrics+0xe5>
    45fd:	dd 47 24             	fldl   0x24(%edi)
    4600:	d9 7d c6             	fnstcw -0x3a(%ebp)
    4603:	db 45 d4             	fildl  -0x2c(%ebp)
    4606:	d8 c9                	fmul   %st(1),%st
    4608:	66 8b 55 c6          	mov    -0x3a(%ebp),%dx
    460c:	b6 0c                	mov    $0xc,%dh
    460e:	66 89 55 c4          	mov    %dx,-0x3c(%ebp)
    4612:	d9 05 5c 78 00 00    	flds   0x785c
    4618:	dc c1                	fadd   %st,%st(1)
    461a:	d9 c9                	fxch   %st(1)
    461c:	d9 6d c4             	fldcw  -0x3c(%ebp)
    461f:	db 5d d4             	fistpl -0x2c(%ebp)
    4622:	d9 6d c6             	fldcw  -0x3a(%ebp)
    4625:	db 45 d8             	fildl  -0x28(%ebp)
    4628:	d8 ca                	fmul   %st(2),%st
    462a:	d8 c1                	fadd   %st(1),%st
    462c:	d9 6d c4             	fldcw  -0x3c(%ebp)
    462f:	db 5d d8             	fistpl -0x28(%ebp)
    4632:	d9 6d c6             	fldcw  -0x3a(%ebp)
    4635:	db 45 dc             	fildl  -0x24(%ebp)
    4638:	d8 ca                	fmul   %st(2),%st
    463a:	d8 c1                	fadd   %st(1),%st
    463c:	d9 6d c4             	fldcw  -0x3c(%ebp)
    463f:	db 5d dc             	fistpl -0x24(%ebp)
    4642:	d9 6d c6             	fldcw  -0x3a(%ebp)
    4645:	db 45 e0             	fildl  -0x20(%ebp)
    4648:	d8 ca                	fmul   %st(2),%st
    464a:	d8 c1                	fadd   %st(1),%st
    464c:	d9 6d c4             	fldcw  -0x3c(%ebp)
    464f:	db 5d e0             	fistpl -0x20(%ebp)
    4652:	d9 6d c6             	fldcw  -0x3a(%ebp)
    4655:	db 45 e4             	fildl  -0x1c(%ebp)
    4658:	de ca                	fmulp  %st,%st(2)
    465a:	de c1                	faddp  %st,%st(1)
    465c:	d9 6d c4             	fldcw  -0x3c(%ebp)
    465f:	db 5d e4             	fistpl -0x1c(%ebp)
    4662:	d9 6d c6             	fldcw  -0x3a(%ebp)
    4665:	8b 57 14             	mov    0x14(%edi),%edx
    4668:	01 d3                	add    %edx,%ebx
    466a:	8b 55 d4             	mov    -0x2c(%ebp),%edx
    466d:	89 53 04             	mov    %edx,0x4(%ebx)
    4670:	8b 55 d8             	mov    -0x28(%ebp),%edx
    4673:	89 53 08             	mov    %edx,0x8(%ebx)
    4676:	8b 55 dc             	mov    -0x24(%ebp),%edx
    4679:	89 53 0c             	mov    %edx,0xc(%ebx)
    467c:	8b 55 e0             	mov    -0x20(%ebp),%edx
    467f:	89 53 10             	mov    %edx,0x10(%ebx)
    4682:	8b 55 e4             	mov    -0x1c(%ebp),%edx
    4685:	89 53 14             	mov    %edx,0x14(%ebx)
    4688:	8b 55 d4             	mov    -0x2c(%ebp),%edx
    468b:	c6 43 18 01          	movb   $0x1,0x18(%ebx)
    468f:	89 16                	mov    %edx,(%esi)
    4691:	8b 55 d8             	mov    -0x28(%ebp),%edx
    4694:	89 56 04             	mov    %edx,0x4(%esi)
    4697:	8b 55 dc             	mov    -0x24(%ebp),%edx
    469a:	89 56 08             	mov    %edx,0x8(%esi)
    469d:	8b 55 e0             	mov    -0x20(%ebp),%edx
    46a0:	89 56 0c             	mov    %edx,0xc(%esi)
    46a3:	8b 55 e4             	mov    -0x1c(%ebp),%edx
    46a6:	89 56 10             	mov    %edx,0x10(%esi)
    46a9:	8d 65 f4             	lea    -0xc(%ebp),%esp
    46ac:	5b                   	pop    %ebx
    46ad:	5e                   	pop    %esi
    46ae:	5f                   	pop    %edi
    46af:	5d                   	pop    %ebp
    46b0:	c3                   	ret    
    46b1:	8d b4 26 00 00 00 00 	lea    0x0(%esi,%eiz,1),%esi
    46b8:	83 c8 ff             	or     $0xffffffff,%eax
    46bb:	e9 11 ff ff ff       	jmp    45d1 <bb_get_glyph_metrics+0x51>

000046c0 <bb_release>:
    46c0:	55                   	push   %ebp
    46c1:	89 e5                	mov    %esp,%ebp
    46c3:	56                   	push   %esi
    46c4:	53                   	push   %ebx
    46c5:	8b 75 08             	mov    0x8(%ebp),%esi
    46c8:	8b 56 04             	mov    0x4(%esi),%edx
    46cb:	8b 4e 14             	mov    0x14(%esi),%ecx
    46ce:	85 d2                	test   %edx,%edx
    46d0:	74 2d                	je     46ff <bb_release+0x3f>
    46d2:	31 db                	xor    %ebx,%ebx
    46d4:	8d 74 26 00          	lea    0x0(%esi,%eiz,1),%esi
    46d8:	8d 04 dd 00 00 00 00 	lea    0x0(,%ebx,8),%eax
    46df:	29 d8                	sub    %ebx,%eax
    46e1:	8b 04 81             	mov    (%ecx,%eax,4),%eax
    46e4:	85 c0                	test   %eax,%eax
    46e6:	74 12                	je     46fa <bb_release+0x3a>
    46e8:	83 ec 0c             	sub    $0xc,%esp
    46eb:	50                   	push   %eax
    46ec:	e8 ef 1a 00 00       	call   61e0 <surface_destroy>
    46f1:	8b 56 04             	mov    0x4(%esi),%edx
    46f4:	8b 4e 14             	mov    0x14(%esi),%ecx
    46f7:	83 c4 10             	add    $0x10,%esp
    46fa:	43                   	inc    %ebx
    46fb:	39 d3                	cmp    %edx,%ebx
    46fd:	72 d9                	jb     46d8 <bb_release+0x18>
    46ff:	83 ec 0c             	sub    $0xc,%esp
    4702:	51                   	push   %ecx
    4703:	e8 98 37 00 00       	call   7ea0 <free@plt>
    4708:	8b 46 18             	mov    0x18(%esi),%eax
    470b:	8b 56 1c             	mov    0x1c(%esi),%edx
    470e:	89 55 08             	mov    %edx,0x8(%ebp)
    4711:	83 c4 10             	add    $0x10,%esp
    4714:	8b 40 0c             	mov    0xc(%eax),%eax
    4717:	8d 65 f8             	lea    -0x8(%ebp),%esp
    471a:	5b                   	pop    %ebx
    471b:	5e                   	pop    %esi
    471c:	5d                   	pop    %ebp
    471d:	ff e0                	jmp    *%eax
    471f:	90                   	nop

00004720 <bb_render_glyph>:
    4720:	55                   	push   %ebp
    4721:	89 e5                	mov    %esp,%ebp
    4723:	57                   	push   %edi
    4724:	56                   	push   %esi
    4725:	53                   	push   %ebx
    4726:	81 ec 3c 01 00 00    	sub    $0x13c,%esp
    472c:	8b 5d 08             	mov    0x8(%ebp),%ebx
    472f:	8b 75 1c             	mov    0x1c(%ebp),%esi
    4732:	3b 73 04             	cmp    0x4(%ebx),%esi
    4735:	0f 83 6e 01 00 00    	jae    48a9 <bb_render_glyph+0x189>
    473b:	8d 04 f5 00 00 00 00 	lea    0x0(,%esi,8),%eax
    4742:	8b 4b 14             	mov    0x14(%ebx),%ecx
    4745:	29 f0                	sub    %esi,%eax
    4747:	c1 e0 02             	shl    $0x2,%eax
    474a:	89 85 dc fe ff ff    	mov    %eax,-0x124(%ebp)
    4750:	01 c8                	add    %ecx,%eax
    4752:	80 78 18 00          	cmpb   $0x0,0x18(%eax)
    4756:	0f 84 dc 00 00 00    	je     4838 <bb_render_glyph+0x118>
    475c:	8b 78 08             	mov    0x8(%eax),%edi
    475f:	8b 48 14             	mov    0x14(%eax),%ecx
    4762:	89 bd d8 fe ff ff    	mov    %edi,-0x128(%ebp)
    4768:	8b 78 10             	mov    0x10(%eax),%edi
    476b:	8b 50 04             	mov    0x4(%eax),%edx
    476e:	89 bd d4 fe ff ff    	mov    %edi,-0x12c(%ebp)
    4774:	89 8d d0 fe ff ff    	mov    %ecx,-0x130(%ebp)
    477a:	8b 00                	mov    (%eax),%eax
    477c:	8d 7d 84             	lea    -0x7c(%ebp),%edi
    477f:	89 bd cc fe ff ff    	mov    %edi,-0x134(%ebp)
    4785:	85 c0                	test   %eax,%eax
    4787:	0f 84 03 02 00 00    	je     4990 <bb_render_glyph+0x270>
    478d:	89 85 c0 fe ff ff    	mov    %eax,-0x140(%ebp)
    4793:	8b 45 14             	mov    0x14(%ebp),%eax
    4796:	01 c2                	add    %eax,%edx
    4798:	83 ec 0c             	sub    $0xc,%esp
    479b:	89 d3                	mov    %edx,%ebx
    479d:	8b 45 18             	mov    0x18(%ebp),%eax
    47a0:	8b 95 d4 fe ff ff    	mov    -0x12c(%ebp),%edx
    47a6:	8b b5 cc fe ff ff    	mov    -0x134(%ebp),%esi
    47ac:	29 d0                	sub    %edx,%eax
    47ae:	56                   	push   %esi
    47af:	89 c7                	mov    %eax,%edi
    47b1:	e8 2a 2b 00 00       	call   72e0 <transform_identity>
    47b6:	89 bd dc fe ff ff    	mov    %edi,-0x124(%ebp)
    47bc:	83 ec 0c             	sub    $0xc,%esp
    47bf:	db 85 dc fe ff ff    	fildl  -0x124(%ebp)
    47c5:	89 9d d4 fe ff ff    	mov    %ebx,-0x12c(%ebp)
    47cb:	dd 5c 24 08          	fstpl  0x8(%esp)
    47cf:	db 85 d4 fe ff ff    	fildl  -0x12c(%ebp)
    47d5:	dd 1c 24             	fstpl  (%esp)
    47d8:	56                   	push   %esi
    47d9:	e8 32 2b 00 00       	call   7310 <transform_translate>
    47de:	83 ec 2c             	sub    $0x2c,%esp
    47e1:	b9 12 00 00 00       	mov    $0x12,%ecx
    47e6:	89 e7                	mov    %esp,%edi
    47e8:	f3 a5                	rep movsl %ds:(%esi),%es:(%edi)
    47ea:	8b 4d 10             	mov    0x10(%ebp),%ecx
    47ed:	51                   	push   %ecx
    47ee:	e8 0d 16 00 00       	call   5e00 <source_set_transform>
    47f3:	83 c4 4c             	add    $0x4c,%esp
    47f6:	8b 85 c0 fe ff ff    	mov    -0x140(%ebp),%eax
    47fc:	8b 75 10             	mov    0x10(%ebp),%esi
    47ff:	6a 00                	push   $0x0
    4801:	50                   	push   %eax
    4802:	56                   	push   %esi
    4803:	e8 78 16 00 00       	call   5e80 <source_set_mask>
    4808:	8b 85 d0 fe ff ff    	mov    -0x130(%ebp),%eax
    480e:	5f                   	pop    %edi
    480f:	50                   	push   %eax
    4810:	8b 85 d8 fe ff ff    	mov    -0x128(%ebp),%eax
    4816:	50                   	push   %eax
    4817:	8b 85 dc fe ff ff    	mov    -0x124(%ebp),%eax
    481d:	50                   	push   %eax
    481e:	8b 45 0c             	mov    0xc(%ebp),%eax
    4821:	53                   	push   %ebx
    4822:	50                   	push   %eax
    4823:	e8 e8 0f 00 00       	call   5810 <drawctx_transfer>
    4828:	83 c4 20             	add    $0x20,%esp
    482b:	31 c0                	xor    %eax,%eax
    482d:	8d 65 f4             	lea    -0xc(%ebp),%esp
    4830:	5b                   	pop    %ebx
    4831:	5e                   	pop    %esi
    4832:	5f                   	pop    %edi
    4833:	5d                   	pop    %ebp
    4834:	c3                   	ret    
    4835:	8d 76 00             	lea    0x0(%esi),%esi
    4838:	8d 55 84             	lea    -0x7c(%ebp),%edx
    483b:	57                   	push   %edi
    483c:	8b 43 18             	mov    0x18(%ebx),%eax
    483f:	52                   	push   %edx
    4840:	8b 53 1c             	mov    0x1c(%ebx),%edx
    4843:	56                   	push   %esi
    4844:	52                   	push   %edx
    4845:	ff 50 08             	call   *0x8(%eax)
    4848:	83 c4 10             	add    $0x10,%esp
    484b:	85 c0                	test   %eax,%eax
    484d:	75 de                	jne    482d <bb_render_glyph+0x10d>
    484f:	80 7b 20 00          	cmpb   $0x0,0x20(%ebx)
    4853:	75 63                	jne    48b8 <bb_render_glyph+0x198>
    4855:	8b 45 94             	mov    -0x6c(%ebp),%eax
    4858:	8b 55 84             	mov    -0x7c(%ebp),%edx
    485b:	89 85 d0 fe ff ff    	mov    %eax,-0x130(%ebp)
    4861:	8b 45 90             	mov    -0x70(%ebp),%eax
    4864:	89 85 d4 fe ff ff    	mov    %eax,-0x12c(%ebp)
    486a:	8b 45 88             	mov    -0x78(%ebp),%eax
    486d:	89 85 d8 fe ff ff    	mov    %eax,-0x128(%ebp)
    4873:	8b 4b 14             	mov    0x14(%ebx),%ecx
    4876:	8b 85 dc fe ff ff    	mov    -0x124(%ebp),%eax
    487c:	01 c8                	add    %ecx,%eax
    487e:	8b 4d 84             	mov    -0x7c(%ebp),%ecx
    4881:	3b 73 04             	cmp    0x4(%ebx),%esi
    4884:	89 48 04             	mov    %ecx,0x4(%eax)
    4887:	8b 4d 88             	mov    -0x78(%ebp),%ecx
    488a:	89 48 08             	mov    %ecx,0x8(%eax)
    488d:	8b 4d 8c             	mov    -0x74(%ebp),%ecx
    4890:	89 48 0c             	mov    %ecx,0xc(%eax)
    4893:	8b 4d 90             	mov    -0x70(%ebp),%ecx
    4896:	89 48 10             	mov    %ecx,0x10(%eax)
    4899:	8b 4d 94             	mov    -0x6c(%ebp),%ecx
    489c:	c6 40 18 01          	movb   $0x1,0x18(%eax)
    48a0:	89 48 14             	mov    %ecx,0x14(%eax)
    48a3:	0f 82 d1 fe ff ff    	jb     477a <bb_render_glyph+0x5a>
    48a9:	83 c8 ff             	or     $0xffffffff,%eax
    48ac:	e9 7c ff ff ff       	jmp    482d <bb_render_glyph+0x10d>
    48b1:	8d b4 26 00 00 00 00 	lea    0x0(%esi,%eiz,1),%esi
    48b8:	dd 43 24             	fldl   0x24(%ebx)
    48bb:	d9 bd ee fe ff ff    	fnstcw -0x112(%ebp)
    48c1:	db 45 84             	fildl  -0x7c(%ebp)
    48c4:	d8 c9                	fmul   %st(1),%st
    48c6:	66 8b 85 ee fe ff ff 	mov    -0x112(%ebp),%ax
    48cd:	b4 0c                	mov    $0xc,%ah
    48cf:	66 89 85 ec fe ff ff 	mov    %ax,-0x114(%ebp)
    48d6:	d9 05 5c 78 00 00    	flds   0x785c
    48dc:	dc c1                	fadd   %st,%st(1)
    48de:	d9 c9                	fxch   %st(1)
    48e0:	d9 ad ec fe ff ff    	fldcw  -0x114(%ebp)
    48e6:	db 9d e8 fe ff ff    	fistpl -0x118(%ebp)
    48ec:	d9 ad ee fe ff ff    	fldcw  -0x112(%ebp)
    48f2:	db 45 88             	fildl  -0x78(%ebp)
    48f5:	d8 ca                	fmul   %st(2),%st
    48f7:	8b 95 e8 fe ff ff    	mov    -0x118(%ebp),%edx
    48fd:	89 55 84             	mov    %edx,-0x7c(%ebp)
    4900:	d8 c1                	fadd   %st(1),%st
    4902:	d9 ad ec fe ff ff    	fldcw  -0x114(%ebp)
    4908:	db 9d e8 fe ff ff    	fistpl -0x118(%ebp)
    490e:	d9 ad ee fe ff ff    	fldcw  -0x112(%ebp)
    4914:	db 45 8c             	fildl  -0x74(%ebp)
    4917:	d8 ca                	fmul   %st(2),%st
    4919:	8b 85 e8 fe ff ff    	mov    -0x118(%ebp),%eax
    491f:	89 85 d8 fe ff ff    	mov    %eax,-0x128(%ebp)
    4925:	89 45 88             	mov    %eax,-0x78(%ebp)
    4928:	d8 c1                	fadd   %st(1),%st
    492a:	d9 ad ec fe ff ff    	fldcw  -0x114(%ebp)
    4930:	db 5d 8c             	fistpl -0x74(%ebp)
    4933:	d9 ad ee fe ff ff    	fldcw  -0x112(%ebp)
    4939:	db 45 90             	fildl  -0x70(%ebp)
    493c:	d8 ca                	fmul   %st(2),%st
    493e:	d8 c1                	fadd   %st(1),%st
    4940:	d9 ad ec fe ff ff    	fldcw  -0x114(%ebp)
    4946:	db 9d e8 fe ff ff    	fistpl -0x118(%ebp)
    494c:	d9 ad ee fe ff ff    	fldcw  -0x112(%ebp)
    4952:	db 45 94             	fildl  -0x6c(%ebp)
    4955:	de ca                	fmulp  %st,%st(2)
    4957:	8b 85 e8 fe ff ff    	mov    -0x118(%ebp),%eax
    495d:	89 85 d4 fe ff ff    	mov    %eax,-0x12c(%ebp)
    4963:	89 45 90             	mov    %eax,-0x70(%ebp)
    4966:	de c1                	faddp  %st,%st(1)
    4968:	d9 ad ec fe ff ff    	fldcw  -0x114(%ebp)
    496e:	db 9d e8 fe ff ff    	fistpl -0x118(%ebp)
    4974:	d9 ad ee fe ff ff    	fldcw  -0x112(%ebp)
    497a:	8b 85 e8 fe ff ff    	mov    -0x118(%ebp),%eax
    4980:	89 85 d0 fe ff ff    	mov    %eax,-0x130(%ebp)
    4986:	89 45 94             	mov    %eax,-0x6c(%ebp)
    4989:	e9 e5 fe ff ff       	jmp    4873 <bb_render_glyph+0x153>
    498e:	66 90                	xchg   %ax,%ax
    4990:	8d 8d f8 fe ff ff    	lea    -0x108(%ebp),%ecx
    4996:	50                   	push   %eax
    4997:	8b 43 18             	mov    0x18(%ebx),%eax
    499a:	51                   	push   %ecx
    499b:	89 95 c0 fe ff ff    	mov    %edx,-0x140(%ebp)
    49a1:	8b 53 1c             	mov    0x1c(%ebx),%edx
    49a4:	56                   	push   %esi
    49a5:	52                   	push   %edx
    49a6:	ff 50 04             	call   *0x4(%eax)
    49a9:	83 c4 10             	add    $0x10,%esp
    49ac:	85 c0                	test   %eax,%eax
    49ae:	0f 85 79 fe ff ff    	jne    482d <bb_render_glyph+0x10d>
    49b4:	8d 85 00 ff ff ff    	lea    -0x100(%ebp),%eax
    49ba:	57                   	push   %edi
    49bb:	50                   	push   %eax
    49bc:	8d 85 fc fe ff ff    	lea    -0x104(%ebp),%eax
    49c2:	50                   	push   %eax
    49c3:	8b 85 f8 fe ff ff    	mov    -0x108(%ebp),%eax
    49c9:	50                   	push   %eax
    49ca:	e8 81 18 00 00       	call   6250 <surface_get_resolution>
    49cf:	83 c4 10             	add    $0x10,%esp
    49d2:	8b 95 c0 fe ff ff    	mov    -0x140(%ebp),%edx
    49d8:	80 7b 20 00          	cmpb   $0x0,0x20(%ebx)
    49dc:	75 0b                	jne    49e9 <bb_render_glyph+0x2c9>
    49de:	8b 85 f8 fe ff ff    	mov    -0x108(%ebp),%eax
    49e4:	e9 a4 fd ff ff       	jmp    478d <bb_render_glyph+0x6d>
    49e9:	83 ec 0c             	sub    $0xc,%esp
    49ec:	8b bd cc fe ff ff    	mov    -0x134(%ebp),%edi
    49f2:	89 95 c8 fe ff ff    	mov    %edx,-0x138(%ebp)
    49f8:	8d b5 3c ff ff ff    	lea    -0xc4(%ebp),%esi
    49fe:	57                   	push   %edi
    49ff:	e8 ac 13 00 00       	call   5db0 <source_init>
    4a04:	83 c4 0c             	add    $0xc,%esp
    4a07:	8b 85 f8 fe ff ff    	mov    -0x108(%ebp),%eax
    4a0d:	89 bd cc fe ff ff    	mov    %edi,-0x134(%ebp)
    4a13:	6a 00                	push   $0x0
    4a15:	50                   	push   %eax
    4a16:	57                   	push   %edi
    4a17:	e8 34 14 00 00       	call   5e50 <source_set_texture>
    4a1c:	89 34 24             	mov    %esi,(%esp)
    4a1f:	e8 bc 28 00 00       	call   72e0 <transform_identity>
    4a24:	83 ec 0c             	sub    $0xc,%esp
    4a27:	d9 05 5c 78 00 00    	flds   0x785c
    4a2d:	dd 54 24 08          	fstl   0x8(%esp)
    4a31:	dd 14 24             	fstl   (%esp)
    4a34:	56                   	push   %esi
    4a35:	dd 9d b8 fe ff ff    	fstpl  -0x148(%ebp)
    4a3b:	e8 d0 28 00 00       	call   7310 <transform_translate>
    4a40:	83 c4 14             	add    $0x14,%esp
    4a43:	8b 43 28             	mov    0x28(%ebx),%eax
    4a46:	50                   	push   %eax
    4a47:	8b 43 24             	mov    0x24(%ebx),%eax
    4a4a:	50                   	push   %eax
    4a4b:	8b 53 28             	mov    0x28(%ebx),%edx
    4a4e:	52                   	push   %edx
    4a4f:	8b 4b 24             	mov    0x24(%ebx),%ecx
    4a52:	51                   	push   %ecx
    4a53:	56                   	push   %esi
    4a54:	e8 77 29 00 00       	call   73d0 <transform_scale>
    4a59:	83 ec 2c             	sub    $0x2c,%esp
    4a5c:	89 e7                	mov    %esp,%edi
    4a5e:	b9 12 00 00 00       	mov    $0x12,%ecx
    4a63:	f3 a5                	rep movsl %ds:(%esi),%es:(%edi)
    4a65:	8b b5 cc fe ff ff    	mov    -0x134(%ebp),%esi
    4a6b:	31 ff                	xor    %edi,%edi
    4a6d:	56                   	push   %esi
    4a6e:	e8 8d 13 00 00       	call   5e00 <source_set_transform>
    4a73:	8b b5 fc fe ff ff    	mov    -0x104(%ebp),%esi
    4a79:	89 bd c4 fe ff ff    	mov    %edi,-0x13c(%ebp)
    4a7f:	89 b5 c0 fe ff ff    	mov    %esi,-0x140(%ebp)
    4a85:	31 ff                	xor    %edi,%edi
    4a87:	df ad c0 fe ff ff    	fildll -0x140(%ebp)
    4a8d:	dc 4b 24             	fmull  0x24(%ebx)
    4a90:	d9 bd ee fe ff ff    	fnstcw -0x112(%ebp)
    4a96:	66 8b 85 ee fe ff ff 	mov    -0x112(%ebp),%ax
    4a9d:	8b b5 00 ff ff ff    	mov    -0x100(%ebp),%esi
    4aa3:	b4 0c                	mov    $0xc,%ah
    4aa5:	83 c4 50             	add    $0x50,%esp
    4aa8:	dd 85 b8 fe ff ff    	fldl   -0x148(%ebp)
    4aae:	dc c1                	fadd   %st,%st(1)
    4ab0:	d9 c9                	fxch   %st(1)
    4ab2:	66 89 85 ec fe ff ff 	mov    %ax,-0x114(%ebp)
    4ab9:	89 b5 b8 fe ff ff    	mov    %esi,-0x148(%ebp)
    4abf:	89 bd bc fe ff ff    	mov    %edi,-0x144(%ebp)
    4ac5:	d9 ad ec fe ff ff    	fldcw  -0x114(%ebp)
    4acb:	df bd e0 fe ff ff    	fistpll -0x120(%ebp)
    4ad1:	d9 ad ee fe ff ff    	fldcw  -0x112(%ebp)
    4ad7:	df ad b8 fe ff ff    	fildll -0x148(%ebp)
    4add:	dc 4b 24             	fmull  0x24(%ebx)
    4ae0:	8b 85 e0 fe ff ff    	mov    -0x120(%ebp),%eax
    4ae6:	8b 95 e4 fe ff ff    	mov    -0x11c(%ebp),%edx
    4aec:	6a 00                	push   $0x0
    4aee:	89 95 c4 fe ff ff    	mov    %edx,-0x13c(%ebp)
    4af4:	6a 00                	push   $0x0
    4af6:	de c1                	faddp  %st,%st(1)
    4af8:	89 85 c0 fe ff ff    	mov    %eax,-0x140(%ebp)
    4afe:	d9 ad ec fe ff ff    	fldcw  -0x114(%ebp)
    4b04:	df bd e0 fe ff ff    	fistpll -0x120(%ebp)
    4b0a:	d9 ad ee fe ff ff    	fldcw  -0x112(%ebp)
    4b10:	8b b5 e0 fe ff ff    	mov    -0x120(%ebp),%esi
    4b16:	56                   	push   %esi
    4b17:	50                   	push   %eax
    4b18:	e8 f3 15 00 00       	call   6110 <surface_create>
    4b1d:	83 c4 10             	add    $0x10,%esp
    4b20:	8b 95 c8 fe ff ff    	mov    -0x138(%ebp),%edx
    4b26:	85 c0                	test   %eax,%eax
    4b28:	74 79                	je     4ba3 <bb_render_glyph+0x483>
    4b2a:	89 95 c8 fe ff ff    	mov    %edx,-0x138(%ebp)
    4b30:	89 85 b8 fe ff ff    	mov    %eax,-0x148(%ebp)
    4b36:	52                   	push   %edx
    4b37:	52                   	push   %edx
    4b38:	50                   	push   %eax
    4b39:	8d 85 04 ff ff ff    	lea    -0xfc(%ebp),%eax
    4b3f:	50                   	push   %eax
    4b40:	e8 db 0a 00 00       	call   5620 <drawctx_init>
    4b45:	8b 85 cc fe ff ff    	mov    -0x134(%ebp),%eax
    4b4b:	59                   	pop    %ecx
    4b4c:	5f                   	pop    %edi
    4b4d:	50                   	push   %eax
    4b4e:	8d 85 04 ff ff ff    	lea    -0xfc(%ebp),%eax
    4b54:	50                   	push   %eax
    4b55:	e8 96 0c 00 00       	call   57f0 <drawctx_set_source>
    4b5a:	8b 85 c0 fe ff ff    	mov    -0x140(%ebp),%eax
    4b60:	89 34 24             	mov    %esi,(%esp)
    4b63:	50                   	push   %eax
    4b64:	8d 85 04 ff ff ff    	lea    -0xfc(%ebp),%eax
    4b6a:	6a 00                	push   $0x0
    4b6c:	6a 00                	push   $0x0
    4b6e:	50                   	push   %eax
    4b6f:	e8 9c 0c 00 00       	call   5810 <drawctx_transfer>
    4b74:	83 c4 14             	add    $0x14,%esp
    4b77:	8b 85 f8 fe ff ff    	mov    -0x108(%ebp),%eax
    4b7d:	50                   	push   %eax
    4b7e:	e8 5d 16 00 00       	call   61e0 <surface_destroy>
    4b83:	8b 4b 14             	mov    0x14(%ebx),%ecx
    4b86:	8b bd dc fe ff ff    	mov    -0x124(%ebp),%edi
    4b8c:	8b 85 b8 fe ff ff    	mov    -0x148(%ebp),%eax
    4b92:	83 c4 10             	add    $0x10,%esp
    4b95:	89 04 39             	mov    %eax,(%ecx,%edi,1)
    4b98:	8b 95 c8 fe ff ff    	mov    -0x138(%ebp),%edx
    4b9e:	e9 ea fb ff ff       	jmp    478d <bb_render_glyph+0x6d>
    4ba3:	83 ec 0c             	sub    $0xc,%esp
    4ba6:	ff b5 f8 fe ff ff    	pushl  -0x108(%ebp)
    4bac:	e8 2f 16 00 00       	call   61e0 <surface_destroy>
    4bb1:	83 c4 10             	add    $0x10,%esp
    4bb4:	b8 fe ff ff ff       	mov    $0xfffffffe,%eax
    4bb9:	e9 6f fc ff ff       	jmp    482d <bb_render_glyph+0x10d>
    4bbe:	66 90                	xchg   %ax,%ax

00004bc0 <bitmap_font_create>:
    4bc0:	55                   	push   %ebp
    4bc1:	89 e5                	mov    %esp,%ebp
    4bc3:	57                   	push   %edi
    4bc4:	56                   	push   %esi
    4bc5:	53                   	push   %ebx
    4bc6:	83 ec 1c             	sub    $0x1c,%esp
    4bc9:	8b 75 10             	mov    0x10(%ebp),%esi
    4bcc:	8b 7d 20             	mov    0x20(%ebp),%edi
    4bcf:	85 f6                	test   %esi,%esi
    4bd1:	0f 84 21 01 00 00    	je     4cf8 <bitmap_font_create+0x138>
    4bd7:	83 ec 0c             	sub    $0xc,%esp
    4bda:	6a 2c                	push   $0x2c
    4bdc:	e8 cf 2f 00 00       	call   7bb0 <malloc@plt>
    4be1:	83 c4 10             	add    $0x10,%esp
    4be4:	89 c3                	mov    %eax,%ebx
    4be6:	85 c0                	test   %eax,%eax
    4be8:	0f 84 11 01 00 00    	je     4cff <bitmap_font_create+0x13f>
    4bee:	66 89 38             	mov    %di,(%eax)
    4bf1:	89 70 04             	mov    %esi,0x4(%eax)
    4bf4:	8b 45 08             	mov    0x8(%ebp),%eax
    4bf7:	8b 55 14             	mov    0x14(%ebp),%edx
    4bfa:	89 43 18             	mov    %eax,0x18(%ebx)
    4bfd:	8b 45 0c             	mov    0xc(%ebp),%eax
    4c00:	89 43 1c             	mov    %eax,0x1c(%ebx)
    4c03:	8b 45 18             	mov    0x18(%ebp),%eax
    4c06:	89 43 0c             	mov    %eax,0xc(%ebx)
    4c09:	8b 4d 1c             	mov    0x1c(%ebp),%ecx
    4c0c:	01 d0                	add    %edx,%eax
    4c0e:	81 e7 ff ff 00 00    	and    $0xffff,%edi
    4c14:	89 53 08             	mov    %edx,0x8(%ebx)
    4c17:	89 4b 10             	mov    %ecx,0x10(%ebx)
    4c1a:	39 f8                	cmp    %edi,%eax
    4c1c:	0f 84 ce 00 00 00    	je     4cf0 <bitmap_font_create+0x130>
    4c22:	89 45 dc             	mov    %eax,-0x24(%ebp)
    4c25:	d9 7d e6             	fnstcw -0x1a(%ebp)
    4c28:	db 45 dc             	fildl  -0x24(%ebp)
    4c2b:	89 7d dc             	mov    %edi,-0x24(%ebp)
    4c2e:	66 8b 45 e6          	mov    -0x1a(%ebp),%ax
    4c32:	db 45 dc             	fildl  -0x24(%ebp)
    4c35:	d8 f1                	fdiv   %st(1),%st
    4c37:	89 55 dc             	mov    %edx,-0x24(%ebp)
    4c3a:	b4 0c                	mov    $0xc,%ah
    4c3c:	66 89 45 e4          	mov    %ax,-0x1c(%ebp)
    4c40:	db 45 dc             	fildl  -0x24(%ebp)
    4c43:	d8 c9                	fmul   %st(1),%st
    4c45:	d9 05 5c 78 00 00    	flds   0x785c
    4c4b:	dc c1                	fadd   %st,%st(1)
    4c4d:	d9 c9                	fxch   %st(1)
    4c4f:	d9 6d e4             	fldcw  -0x1c(%ebp)
    4c52:	db 5d e0             	fistpl -0x20(%ebp)
    4c55:	d9 6d e6             	fldcw  -0x1a(%ebp)
    4c58:	d9 ca                	fxch   %st(2)
    4c5a:	d8 c9                	fmul   %st(1),%st
    4c5c:	8b 55 e0             	mov    -0x20(%ebp),%edx
    4c5f:	89 53 08             	mov    %edx,0x8(%ebx)
    4c62:	d9 6d e4             	fldcw  -0x1c(%ebp)
    4c65:	db 5d e0             	fistpl -0x20(%ebp)
    4c68:	d9 6d e6             	fldcw  -0x1a(%ebp)
    4c6b:	db 43 10             	fildl  0x10(%ebx)
    4c6e:	d8 c9                	fmul   %st(1),%st
    4c70:	8b 45 e0             	mov    -0x20(%ebp),%eax
    4c73:	29 d0                	sub    %edx,%eax
    4c75:	89 43 0c             	mov    %eax,0xc(%ebx)
    4c78:	b0 01                	mov    $0x1,%al
    4c7a:	de c2                	faddp  %st,%st(2)
    4c7c:	d9 c9                	fxch   %st(1)
    4c7e:	d9 6d e4             	fldcw  -0x1c(%ebp)
    4c81:	db 5b 10             	fistpl 0x10(%ebx)
    4c84:	d9 6d e6             	fldcw  -0x1a(%ebp)
    4c87:	dd 5b 24             	fstpl  0x24(%ebx)
    4c8a:	51                   	push   %ecx
    4c8b:	88 43 20             	mov    %al,0x20(%ebx)
    4c8e:	51                   	push   %ecx
    4c8f:	6a 1c                	push   $0x1c
    4c91:	56                   	push   %esi
    4c92:	e8 99 2f 00 00       	call   7c30 <calloc@plt>
    4c97:	83 c4 10             	add    $0x10,%esp
    4c9a:	89 43 14             	mov    %eax,0x14(%ebx)
    4c9d:	85 c0                	test   %eax,%eax
    4c9f:	0f 84 7f 00 00 00    	je     4d24 <bitmap_font_create+0x164>
    4ca5:	8b 53 04             	mov    0x4(%ebx),%edx
    4ca8:	85 d2                	test   %edx,%edx
    4caa:	74 1d                	je     4cc9 <bitmap_font_create+0x109>
    4cac:	8d 0c d5 00 00 00 00 	lea    0x0(,%edx,8),%ecx
    4cb3:	29 d1                	sub    %edx,%ecx
    4cb5:	8d 14 88             	lea    (%eax,%ecx,4),%edx
    4cb8:	c7 00 00 00 00 00    	movl   $0x0,(%eax)
    4cbe:	c6 40 18 00          	movb   $0x0,0x18(%eax)
    4cc2:	83 c0 1c             	add    $0x1c,%eax
    4cc5:	39 c2                	cmp    %eax,%edx
    4cc7:	75 ef                	jne    4cb8 <bitmap_font_create+0xf8>
    4cc9:	52                   	push   %edx
    4cca:	52                   	push   %edx
    4ccb:	53                   	push   %ebx
    4ccc:	68 60 9a 00 00       	push   $0x9a60
    4cd1:	e8 da 0d 00 00       	call   5ab0 <font_create>
    4cd6:	83 c4 10             	add    $0x10,%esp
    4cd9:	85 c0                	test   %eax,%eax
    4cdb:	74 29                	je     4d06 <bitmap_font_create+0x146>
    4cdd:	8b 55 24             	mov    0x24(%ebp),%edx
    4ce0:	89 02                	mov    %eax,(%edx)
    4ce2:	31 c0                	xor    %eax,%eax
    4ce4:	8d 65 f4             	lea    -0xc(%ebp),%esp
    4ce7:	5b                   	pop    %ebx
    4ce8:	5e                   	pop    %esi
    4ce9:	5f                   	pop    %edi
    4cea:	5d                   	pop    %ebp
    4ceb:	c3                   	ret    
    4cec:	8d 74 26 00          	lea    0x0(%esi,%eiz,1),%esi
    4cf0:	d9 e8                	fld1   
    4cf2:	31 c0                	xor    %eax,%eax
    4cf4:	eb 91                	jmp    4c87 <bitmap_font_create+0xc7>
    4cf6:	66 90                	xchg   %ax,%ax
    4cf8:	b8 f2 ff ff ff       	mov    $0xfffffff2,%eax
    4cfd:	eb e5                	jmp    4ce4 <bitmap_font_create+0x124>
    4cff:	b8 fe ff ff ff       	mov    $0xfffffffe,%eax
    4d04:	eb de                	jmp    4ce4 <bitmap_font_create+0x124>
    4d06:	83 ec 0c             	sub    $0xc,%esp
    4d09:	8b 43 14             	mov    0x14(%ebx),%eax
    4d0c:	50                   	push   %eax
    4d0d:	e8 8e 31 00 00       	call   7ea0 <free@plt>
    4d12:	89 1c 24             	mov    %ebx,(%esp)
    4d15:	e8 86 31 00 00       	call   7ea0 <free@plt>
    4d1a:	83 c4 10             	add    $0x10,%esp
    4d1d:	b8 fe ff ff ff       	mov    $0xfffffffe,%eax
    4d22:	eb c0                	jmp    4ce4 <bitmap_font_create+0x124>
    4d24:	83 ec 0c             	sub    $0xc,%esp
    4d27:	53                   	push   %ebx
    4d28:	e8 73 31 00 00       	call   7ea0 <free@plt>
    4d2d:	83 c4 10             	add    $0x10,%esp
    4d30:	b8 fe ff ff ff       	mov    $0xfffffffe,%eax
    4d35:	eb ad                	jmp    4ce4 <bitmap_font_create+0x124>
    4d37:	66 90                	xchg   %ax,%ax
    4d39:	66 90                	xchg   %ax,%ax
    4d3b:	66 90                	xchg   %ax,%ax
    4d3d:	66 90                	xchg   %ax,%ax
    4d3f:	90                   	nop

00004d40 <fb_font_glyph>:
    4d40:	55                   	push   %ebp
    4d41:	89 e5                	mov    %esp,%ebp
    4d43:	8b 4d 0c             	mov    0xc(%ebp),%ecx
    4d46:	8b 55 08             	mov    0x8(%ebp),%edx
    4d49:	85 c9                	test   %ecx,%ecx
    4d4b:	74 03                	je     4d50 <fb_font_glyph+0x10>
    4d4d:	c6 01 01             	movb   $0x1,(%ecx)
    4d50:	31 c0                	xor    %eax,%eax
    4d52:	85 d2                	test   %edx,%edx
    4d54:	0f 84 5b 06 00 00    	je     53b5 <fb_font_glyph+0x675>
    4d5a:	8d 42 e0             	lea    -0x20(%edx),%eax
    4d5d:	83 f8 5f             	cmp    $0x5f,%eax
    4d60:	0f 86 52 06 00 00    	jbe    53b8 <fb_font_glyph+0x678>
    4d66:	8d 82 60 ff ff ff    	lea    -0xa0(%edx),%eax
    4d6c:	3d 7f 01 00 00       	cmp    $0x17f,%eax
    4d71:	0f 86 51 06 00 00    	jbe    53c8 <fb_font_glyph+0x688>
    4d77:	8d 82 de fd ff ff    	lea    -0x222(%edx),%eax
    4d7d:	83 f8 11             	cmp    $0x11,%eax
    4d80:	0f 86 3a 06 00 00    	jbe    53c0 <fb_font_glyph+0x680>
    4d86:	8d 82 b0 fd ff ff    	lea    -0x250(%edx),%eax
    4d8c:	83 f8 5d             	cmp    $0x5d,%eax
    4d8f:	0f 86 3b 06 00 00    	jbe    53d0 <fb_font_glyph+0x690>
    4d95:	8d 82 50 fd ff ff    	lea    -0x2b0(%edx),%eax
    4d9b:	83 f8 1f             	cmp    $0x1f,%eax
    4d9e:	0f 86 3c 06 00 00    	jbe    53e0 <fb_font_glyph+0x6a0>
    4da4:	8d 82 28 fd ff ff    	lea    -0x2d8(%edx),%eax
    4daa:	83 f8 05             	cmp    $0x5,%eax
    4dad:	0f 86 25 06 00 00    	jbe    53d8 <fb_font_glyph+0x698>
    4db3:	b8 76 02 00 00       	mov    $0x276,%eax
    4db8:	81 fa ee 02 00 00    	cmp    $0x2ee,%edx
    4dbe:	0f 84 f1 05 00 00    	je     53b5 <fb_font_glyph+0x675>
    4dc4:	8d 82 00 fd ff ff    	lea    -0x300(%edx),%eax
    4dca:	83 f8 01             	cmp    $0x1,%eax
    4dcd:	0f 86 12 06 00 00    	jbe    53e5 <fb_font_glyph+0x6a5>
    4dd3:	b8 79 02 00 00       	mov    $0x279,%eax
    4dd8:	81 fa 03 03 00 00    	cmp    $0x303,%edx
    4dde:	0f 84 d1 05 00 00    	je     53b5 <fb_font_glyph+0x675>
    4de4:	b8 7a 02 00 00       	mov    $0x27a,%eax
    4de9:	81 fa 09 03 00 00    	cmp    $0x309,%edx
    4def:	0f 84 c0 05 00 00    	je     53b5 <fb_font_glyph+0x675>
    4df5:	8d 82 ee fc ff ff    	lea    -0x312(%edx),%eax
    4dfb:	83 f8 02             	cmp    $0x2,%eax
    4dfe:	0f 86 e9 05 00 00    	jbe    53ed <fb_font_glyph+0x6ad>
    4e04:	b8 7e 02 00 00       	mov    $0x27e,%eax
    4e09:	81 fa 23 03 00 00    	cmp    $0x323,%edx
    4e0f:	0f 84 a0 05 00 00    	je     53b5 <fb_font_glyph+0x675>
    4e15:	8d 82 c0 fc ff ff    	lea    -0x340(%edx),%eax
    4e1b:	83 f8 01             	cmp    $0x1,%eax
    4e1e:	0f 86 d1 05 00 00    	jbe    53f5 <fb_font_glyph+0x6b5>
    4e24:	8d 82 8c fc ff ff    	lea    -0x374(%edx),%eax
    4e2a:	83 f8 01             	cmp    $0x1,%eax
    4e2d:	0f 86 ca 05 00 00    	jbe    53fd <fb_font_glyph+0x6bd>
    4e33:	b8 83 02 00 00       	mov    $0x283,%eax
    4e38:	81 fa 7a 03 00 00    	cmp    $0x37a,%edx
    4e3e:	0f 84 71 05 00 00    	je     53b5 <fb_font_glyph+0x675>
    4e44:	b8 84 02 00 00       	mov    $0x284,%eax
    4e49:	81 fa 7e 03 00 00    	cmp    $0x37e,%edx
    4e4f:	0f 84 60 05 00 00    	je     53b5 <fb_font_glyph+0x675>
    4e55:	8d 82 7c fc ff ff    	lea    -0x384(%edx),%eax
    4e5b:	83 f8 06             	cmp    $0x6,%eax
    4e5e:	0f 86 a1 05 00 00    	jbe    5405 <fb_font_glyph+0x6c5>
    4e64:	b8 8c 02 00 00       	mov    $0x28c,%eax
    4e69:	81 fa 8c 03 00 00    	cmp    $0x38c,%edx
    4e6f:	0f 84 40 05 00 00    	je     53b5 <fb_font_glyph+0x675>
    4e75:	8d 82 72 fc ff ff    	lea    -0x38e(%edx),%eax
    4e7b:	83 f8 13             	cmp    $0x13,%eax
    4e7e:	0f 86 89 05 00 00    	jbe    540d <fb_font_glyph+0x6cd>
    4e84:	8d 82 5d fc ff ff    	lea    -0x3a3(%edx),%eax
    4e8a:	83 f8 2b             	cmp    $0x2b,%eax
    4e8d:	0f 86 99 05 00 00    	jbe    542c <fb_font_glyph+0x6ec>
    4e93:	8d 82 30 fc ff ff    	lea    -0x3d0(%edx),%eax
    4e99:	83 f8 07             	cmp    $0x7,%eax
    4e9c:	0f 86 82 05 00 00    	jbe    5424 <fb_font_glyph+0x6e4>
    4ea2:	8d 82 26 fc ff ff    	lea    -0x3da(%edx),%eax
    4ea8:	83 f8 19             	cmp    $0x19,%eax
    4eab:	0f 86 db 05 00 00    	jbe    548c <fb_font_glyph+0x74c>
    4eb1:	8d 82 00 fc ff ff    	lea    -0x400(%edx),%eax
    4eb7:	3d 86 00 00 00       	cmp    $0x86,%eax
    4ebc:	0f 86 c2 05 00 00    	jbe    5484 <fb_font_glyph+0x744>
    4ec2:	8d 82 78 fb ff ff    	lea    -0x488(%edx),%eax
    4ec8:	83 f8 46             	cmp    $0x46,%eax
    4ecb:	0f 86 ab 05 00 00    	jbe    547c <fb_font_glyph+0x73c>
    4ed1:	8d 82 30 fb ff ff    	lea    -0x4d0(%edx),%eax
    4ed7:	83 f8 25             	cmp    $0x25,%eax
    4eda:	0f 86 94 05 00 00    	jbe    5474 <fb_font_glyph+0x734>
    4ee0:	8d 82 08 fb ff ff    	lea    -0x4f8(%edx),%eax
    4ee6:	83 f8 01             	cmp    $0x1,%eax
    4ee9:	0f 86 7d 05 00 00    	jbe    546c <fb_font_glyph+0x72c>
    4eef:	8d 82 00 fb ff ff    	lea    -0x500(%edx),%eax
    4ef5:	83 f8 0f             	cmp    $0xf,%eax
    4ef8:	0f 86 66 05 00 00    	jbe    5464 <fb_font_glyph+0x724>
    4efe:	8d 82 d0 fa ff ff    	lea    -0x530(%edx),%eax
    4f04:	83 f8 26             	cmp    $0x26,%eax
    4f07:	0f 86 4f 05 00 00    	jbe    545c <fb_font_glyph+0x71c>
    4f0d:	8d 82 a7 fa ff ff    	lea    -0x559(%edx),%eax
    4f13:	83 f8 06             	cmp    $0x6,%eax
    4f16:	0f 86 38 05 00 00    	jbe    5454 <fb_font_glyph+0x714>
    4f1c:	8d 82 9f fa ff ff    	lea    -0x561(%edx),%eax
    4f22:	83 f8 26             	cmp    $0x26,%eax
    4f25:	0f 86 e1 05 00 00    	jbe    550c <fb_font_glyph+0x7cc>
    4f2b:	8d 82 77 fa ff ff    	lea    -0x589(%edx),%eax
    4f31:	83 f8 01             	cmp    $0x1,%eax
    4f34:	0f 86 ca 05 00 00    	jbe    5504 <fb_font_glyph+0x7c4>
    4f3a:	8d 82 6f fa ff ff    	lea    -0x591(%edx),%eax
    4f40:	83 f8 10             	cmp    $0x10,%eax
    4f43:	0f 86 b3 05 00 00    	jbe    54fc <fb_font_glyph+0x7bc>
    4f49:	8d 82 5d fa ff ff    	lea    -0x5a3(%edx),%eax
    4f4f:	83 f8 16             	cmp    $0x16,%eax
    4f52:	0f 86 9c 05 00 00    	jbe    54f4 <fb_font_glyph+0x7b4>
    4f58:	8d 82 45 fa ff ff    	lea    -0x5bb(%edx),%eax
    4f5e:	83 f8 09             	cmp    $0x9,%eax
    4f61:	0f 86 85 05 00 00    	jbe    54ec <fb_font_glyph+0x7ac>
    4f67:	8d 82 30 fa ff ff    	lea    -0x5d0(%edx),%eax
    4f6d:	83 f8 1a             	cmp    $0x1a,%eax
    4f70:	0f 86 6e 05 00 00    	jbe    54e4 <fb_font_glyph+0x7a4>
    4f76:	8d 82 10 fa ff ff    	lea    -0x5f0(%edx),%eax
    4f7c:	83 f8 04             	cmp    $0x4,%eax
    4f7f:	0f 86 57 05 00 00    	jbe    54dc <fb_font_glyph+0x79c>
    4f85:	b8 9e 04 00 00       	mov    $0x49e,%eax
    4f8a:	81 fa 0c 06 00 00    	cmp    $0x60c,%edx
    4f90:	0f 84 1f 04 00 00    	je     53b5 <fb_font_glyph+0x675>
    4f96:	b8 9f 04 00 00       	mov    $0x49f,%eax
    4f9b:	81 fa 1b 06 00 00    	cmp    $0x61b,%edx
    4fa1:	0f 84 0e 04 00 00    	je     53b5 <fb_font_glyph+0x675>
    4fa7:	b8 a0 04 00 00       	mov    $0x4a0,%eax
    4fac:	81 fa 1f 06 00 00    	cmp    $0x61f,%edx
    4fb2:	0f 84 fd 03 00 00    	je     53b5 <fb_font_glyph+0x675>
    4fb8:	8d 82 df f9 ff ff    	lea    -0x621(%edx),%eax
    4fbe:	83 f8 19             	cmp    $0x19,%eax
    4fc1:	0f 86 0d 05 00 00    	jbe    54d4 <fb_font_glyph+0x794>
    4fc7:	8d 82 c0 f9 ff ff    	lea    -0x640(%edx),%eax
    4fcd:	83 f8 15             	cmp    $0x15,%eax
    4fd0:	0f 86 f6 04 00 00    	jbe    54cc <fb_font_glyph+0x78c>
    4fd6:	8d 82 a0 f9 ff ff    	lea    -0x660(%edx),%eax
    4fdc:	83 f8 0d             	cmp    $0xd,%eax
    4fdf:	0f 86 df 04 00 00    	jbe    54c4 <fb_font_glyph+0x784>
    4fe5:	8d 82 90 f9 ff ff    	lea    -0x670(%edx),%eax
    4feb:	83 f8 7d             	cmp    $0x7d,%eax
    4fee:	0f 86 c8 04 00 00    	jbe    54bc <fb_font_glyph+0x77c>
    4ff4:	8d 82 10 f9 ff ff    	lea    -0x6f0(%edx),%eax
    4ffa:	83 f8 0e             	cmp    $0xe,%eax
    4ffd:	0f 86 b1 04 00 00    	jbe    54b4 <fb_font_glyph+0x774>
    5003:	b8 6c 05 00 00       	mov    $0x56c,%eax
    5008:	81 fa d3 10 00 00    	cmp    $0x10d3,%edx
    500e:	0f 84 a1 03 00 00    	je     53b5 <fb_font_glyph+0x675>
    5014:	b8 6d 05 00 00       	mov    $0x56d,%eax
    5019:	81 fa d7 10 00 00    	cmp    $0x10d7,%edx
    501f:	0f 84 90 03 00 00    	je     53b5 <fb_font_glyph+0x675>
    5025:	b8 6e 05 00 00       	mov    $0x56e,%eax
    502a:	81 fa da 10 00 00    	cmp    $0x10da,%edx
    5030:	0f 84 7f 03 00 00    	je     53b5 <fb_font_glyph+0x675>
    5036:	b8 6f 05 00 00       	mov    $0x56f,%eax
    503b:	81 fa dd 10 00 00    	cmp    $0x10dd,%edx
    5041:	0f 84 6e 03 00 00    	je     53b5 <fb_font_glyph+0x675>
    5047:	b8 70 05 00 00       	mov    $0x570,%eax
    504c:	81 fa e6 10 00 00    	cmp    $0x10e6,%edx
    5052:	0f 84 5d 03 00 00    	je     53b5 <fb_font_glyph+0x675>
    5058:	8d 82 00 e2 ff ff    	lea    -0x1e00(%edx),%eax
    505e:	3d 9b 00 00 00       	cmp    $0x9b,%eax
    5063:	0f 86 43 04 00 00    	jbe    54ac <fb_font_glyph+0x76c>
    5069:	8d 82 60 e1 ff ff    	lea    -0x1ea0(%edx),%eax
    506f:	83 f8 59             	cmp    $0x59,%eax
    5072:	0f 86 2c 04 00 00    	jbe    54a4 <fb_font_glyph+0x764>
    5078:	8d 82 00 e1 ff ff    	lea    -0x1f00(%edx),%eax
    507e:	83 f8 07             	cmp    $0x7,%eax
    5081:	0f 86 15 04 00 00    	jbe    549c <fb_font_glyph+0x75c>
    5087:	8d 82 00 e0 ff ff    	lea    -0x2000(%edx),%eax
    508d:	83 f8 27             	cmp    $0x27,%eax
    5090:	0f 86 fe 03 00 00    	jbe    5494 <fb_font_glyph+0x754>
    5096:	8d 82 d0 df ff ff    	lea    -0x2030(%edx),%eax
    509c:	83 f8 16             	cmp    $0x16,%eax
    509f:	0f 86 67 05 00 00    	jbe    560c <fb_font_glyph+0x8cc>
    50a5:	8d 82 b8 df ff ff    	lea    -0x2048(%edx),%eax
    50ab:	83 f8 05             	cmp    $0x5,%eax
    50ae:	0f 86 50 05 00 00    	jbe    5604 <fb_font_glyph+0x8c4>
    50b4:	b8 b4 06 00 00       	mov    $0x6b4,%eax
    50b9:	81 fa 70 20 00 00    	cmp    $0x2070,%edx
    50bf:	0f 84 f0 02 00 00    	je     53b5 <fb_font_glyph+0x675>
    50c5:	8d 82 8c df ff ff    	lea    -0x2074(%edx),%eax
    50cb:	83 f8 1b             	cmp    $0x1b,%eax
    50ce:	0f 86 28 05 00 00    	jbe    55fc <fb_font_glyph+0x8bc>
    50d4:	8d 82 60 df ff ff    	lea    -0x20a0(%edx),%eax
    50da:	83 f8 0f             	cmp    $0xf,%eax
    50dd:	0f 86 11 05 00 00    	jbe    55f4 <fb_font_glyph+0x8b4>
    50e3:	8d 82 00 df ff ff    	lea    -0x2100(%edx),%eax
    50e9:	83 f8 3a             	cmp    $0x3a,%eax
    50ec:	0f 86 fa 04 00 00    	jbe    55ec <fb_font_glyph+0x8ac>
    50f2:	8d 82 ad de ff ff    	lea    -0x2153(%edx),%eax
    50f8:	83 f8 30             	cmp    $0x30,%eax
    50fb:	0f 86 e3 04 00 00    	jbe    55e4 <fb_font_glyph+0x8a4>
    5101:	8d 82 70 de ff ff    	lea    -0x2190(%edx),%eax
    5107:	83 f8 63             	cmp    $0x63,%eax
    510a:	0f 86 cc 04 00 00    	jbe    55dc <fb_font_glyph+0x89c>
    5110:	8d 82 00 de ff ff    	lea    -0x2200(%edx),%eax
    5116:	3d f1 00 00 00       	cmp    $0xf1,%eax
    511b:	0f 86 b3 04 00 00    	jbe    55d4 <fb_font_glyph+0x894>
    5121:	b8 a3 08 00 00       	mov    $0x8a3,%eax
    5126:	81 fa 00 23 00 00    	cmp    $0x2300,%edx
    512c:	0f 84 83 02 00 00    	je     53b5 <fb_font_glyph+0x675>
    5132:	b8 a4 08 00 00       	mov    $0x8a4,%eax
    5137:	81 fa 02 23 00 00    	cmp    $0x2302,%edx
    513d:	0f 84 72 02 00 00    	je     53b5 <fb_font_glyph+0x675>
    5143:	8d 82 f8 dc ff ff    	lea    -0x2308(%edx),%eax
    5149:	83 f8 03             	cmp    $0x3,%eax
    514c:	0f 86 7a 04 00 00    	jbe    55cc <fb_font_glyph+0x88c>
    5152:	b8 a9 08 00 00       	mov    $0x8a9,%eax
    5157:	81 fa 10 23 00 00    	cmp    $0x2310,%edx
    515d:	0f 84 52 02 00 00    	je     53b5 <fb_font_glyph+0x675>
    5163:	b8 aa 08 00 00       	mov    $0x8aa,%eax
    5168:	81 fa 18 23 00 00    	cmp    $0x2318,%edx
    516e:	0f 84 41 02 00 00    	je     53b5 <fb_font_glyph+0x675>
    5174:	8d 82 e6 dc ff ff    	lea    -0x231a(%edx),%eax
    517a:	83 f8 01             	cmp    $0x1,%eax
    517d:	0f 86 41 04 00 00    	jbe    55c4 <fb_font_glyph+0x884>
    5183:	8d 82 e0 dc ff ff    	lea    -0x2320(%edx),%eax
    5189:	83 f8 01             	cmp    $0x1,%eax
    518c:	0f 86 2a 04 00 00    	jbe    55bc <fb_font_glyph+0x87c>
    5192:	8d 82 d7 dc ff ff    	lea    -0x2329(%edx),%eax
    5198:	83 f8 01             	cmp    $0x1,%eax
    519b:	0f 86 13 04 00 00    	jbe    55b4 <fb_font_glyph+0x874>
    51a1:	8d 82 65 dc ff ff    	lea    -0x239b(%edx),%eax
    51a7:	83 f8 22             	cmp    $0x22,%eax
    51aa:	0f 86 fc 03 00 00    	jbe    55ac <fb_font_glyph+0x86c>
    51b0:	b8 d4 08 00 00       	mov    $0x8d4,%eax
    51b5:	81 fa ce 23 00 00    	cmp    $0x23ce,%edx
    51bb:	0f 84 f4 01 00 00    	je     53b5 <fb_font_glyph+0x675>
    51c1:	8d 82 f7 db ff ff    	lea    -0x2409(%edx),%eax
    51c7:	83 f8 04             	cmp    $0x4,%eax
    51ca:	0f 86 d4 03 00 00    	jbe    55a4 <fb_font_glyph+0x864>
    51d0:	8d 82 dd db ff ff    	lea    -0x2423(%edx),%eax
    51d6:	83 f8 01             	cmp    $0x1,%eax
    51d9:	0f 86 bd 03 00 00    	jbe    559c <fb_font_glyph+0x85c>
    51df:	b8 dc 08 00 00       	mov    $0x8dc,%eax
    51e4:	81 fa 26 24 00 00    	cmp    $0x2426,%edx
    51ea:	0f 84 c5 01 00 00    	je     53b5 <fb_font_glyph+0x675>
    51f0:	8d 82 00 db ff ff    	lea    -0x2500(%edx),%eax
    51f6:	3d 95 00 00 00       	cmp    $0x95,%eax
    51fb:	0f 86 93 03 00 00    	jbe    5594 <fb_font_glyph+0x854>
    5201:	8d 82 60 da ff ff    	lea    -0x25a0(%edx),%eax
    5207:	83 f8 57             	cmp    $0x57,%eax
    520a:	0f 86 7c 03 00 00    	jbe    558c <fb_font_glyph+0x84c>
    5210:	8d 82 00 da ff ff    	lea    -0x2600(%edx),%eax
    5216:	83 f8 02             	cmp    $0x2,%eax
    5219:	0f 86 65 03 00 00    	jbe    5584 <fb_font_glyph+0x844>
    521f:	8d 82 fb d9 ff ff    	lea    -0x2605(%edx),%eax
    5225:	83 f8 08             	cmp    $0x8,%eax
    5228:	0f 86 4e 03 00 00    	jbe    557c <fb_font_glyph+0x83c>
    522e:	8d 82 f0 d9 ff ff    	lea    -0x2610(%edx),%eax
    5234:	83 f8 03             	cmp    $0x3,%eax
    5237:	0f 86 37 03 00 00    	jbe    5574 <fb_font_glyph+0x834>
    523d:	b8 db 09 00 00       	mov    $0x9db,%eax
    5242:	81 fa 20 26 00 00    	cmp    $0x2620,%edx
    5248:	0f 84 67 01 00 00    	je     53b5 <fb_font_glyph+0x675>
    524e:	b8 dc 09 00 00       	mov    $0x9dc,%eax
    5253:	81 fa 22 26 00 00    	cmp    $0x2622,%edx
    5259:	0f 84 56 01 00 00    	je     53b5 <fb_font_glyph+0x675>
    525f:	b8 dd 09 00 00       	mov    $0x9dd,%eax
    5264:	81 fa 26 26 00 00    	cmp    $0x2626,%edx
    526a:	0f 84 45 01 00 00    	je     53b5 <fb_font_glyph+0x675>
    5270:	8d 82 d8 d9 ff ff    	lea    -0x2628(%edx),%eax
    5276:	83 f8 03             	cmp    $0x3,%eax
    5279:	0f 86 ed 02 00 00    	jbe    556c <fb_font_glyph+0x82c>
    527f:	8d 82 d2 d9 ff ff    	lea    -0x262e(%edx),%eax
    5285:	83 f8 09             	cmp    $0x9,%eax
    5288:	0f 86 d6 02 00 00    	jbe    5564 <fb_font_glyph+0x824>
    528e:	8d 82 c7 d9 ff ff    	lea    -0x2639(%edx),%eax
    5294:	83 f8 1a             	cmp    $0x1a,%eax
    5297:	0f 86 bf 02 00 00    	jbe    555c <fb_font_glyph+0x81c>
    529d:	8d 82 a0 d9 ff ff    	lea    -0x2660(%edx),%eax
    52a3:	83 f8 07             	cmp    $0x7,%eax
    52a6:	0f 86 a8 02 00 00    	jbe    5554 <fb_font_glyph+0x814>
    52ac:	8d 82 97 d9 ff ff    	lea    -0x2669(%edx),%eax
    52b2:	83 f8 06             	cmp    $0x6,%eax
    52b5:	0f 86 91 02 00 00    	jbe    554c <fb_font_glyph+0x80c>
    52bb:	8d 82 00 05 ff ff    	lea    -0xfb00(%edx),%eax
    52c1:	83 f8 05             	cmp    $0x5,%eax
    52c4:	0f 86 7a 02 00 00    	jbe    5544 <fb_font_glyph+0x804>
    52ca:	8d 82 b0 04 ff ff    	lea    -0xfb50(%edx),%eax
    52d0:	83 f8 61             	cmp    $0x61,%eax
    52d3:	0f 86 63 02 00 00    	jbe    553c <fb_font_glyph+0x7fc>
    52d9:	8d 82 2d 04 ff ff    	lea    -0xfbd3(%edx),%eax
    52df:	83 f8 16             	cmp    $0x16,%eax
    52e2:	0f 86 4c 02 00 00    	jbe    5534 <fb_font_glyph+0x7f4>
    52e8:	8d 82 04 04 ff ff    	lea    -0xfbfc(%edx),%eax
    52ee:	83 f8 03             	cmp    $0x3,%eax
    52f1:	0f 86 35 02 00 00    	jbe    552c <fb_font_glyph+0x7ec>
    52f7:	8d 82 a5 03 ff ff    	lea    -0xfc5b(%edx),%eax
    52fd:	83 f8 08             	cmp    $0x8,%eax
    5300:	0f 86 1e 02 00 00    	jbe    5524 <fb_font_glyph+0x7e4>
    5306:	b8 a2 0a 00 00       	mov    $0xaa2,%eax
    530b:	81 fa 90 fc 00 00    	cmp    $0xfc90,%edx
    5311:	0f 84 9e 00 00 00    	je     53b5 <fb_font_glyph+0x675>
    5317:	8d 82 0e 03 ff ff    	lea    -0xfcf2(%edx),%eax
    531d:	83 f8 02             	cmp    $0x2,%eax
    5320:	0f 86 f6 01 00 00    	jbe    551c <fb_font_glyph+0x7dc>
    5326:	8d 82 c4 02 ff ff    	lea    -0xfd3c(%edx),%eax
    532c:	83 f8 03             	cmp    $0x3,%eax
    532f:	0f 86 df 01 00 00    	jbe    5514 <fb_font_glyph+0x7d4>
    5335:	b8 aa 0a 00 00       	mov    $0xaaa,%eax
    533a:	81 fa f2 fd 00 00    	cmp    $0xfdf2,%edx
    5340:	74 73                	je     53b5 <fb_font_glyph+0x675>
    5342:	8d 82 b0 01 ff ff    	lea    -0xfe50(%edx),%eax
    5348:	83 f8 02             	cmp    $0x2,%eax
    534b:	0f 86 fb 00 00 00    	jbe    544c <fb_font_glyph+0x70c>
    5351:	8d 82 ac 01 ff ff    	lea    -0xfe54(%edx),%eax
    5357:	83 f8 12             	cmp    $0x12,%eax
    535a:	0f 86 e4 00 00 00    	jbe    5444 <fb_font_glyph+0x704>
    5360:	8d 82 98 01 ff ff    	lea    -0xfe68(%edx),%eax
    5366:	83 f8 03             	cmp    $0x3,%eax
    5369:	0f 86 cd 00 00 00    	jbe    543c <fb_font_glyph+0x6fc>
    536f:	8d 82 90 01 ff ff    	lea    -0xfe70(%edx),%eax
    5375:	83 f8 02             	cmp    $0x2,%eax
    5378:	0f 86 b6 00 00 00    	jbe    5434 <fb_font_glyph+0x6f4>
    537e:	b8 c8 0a 00 00       	mov    $0xac8,%eax
    5383:	81 fa 74 fe 00 00    	cmp    $0xfe74,%edx
    5389:	74 2a                	je     53b5 <fb_font_glyph+0x675>
    538b:	8d 82 8a 01 ff ff    	lea    -0xfe76(%edx),%eax
    5391:	3d 86 00 00 00       	cmp    $0x86,%eax
    5396:	0f 86 80 00 00 00    	jbe    541c <fb_font_glyph+0x6dc>
    539c:	b8 50 0b 00 00       	mov    $0xb50,%eax
    53a1:	81 fa ff fe 00 00    	cmp    $0xfeff,%edx
    53a7:	74 0c                	je     53b5 <fb_font_glyph+0x675>
    53a9:	85 c9                	test   %ecx,%ecx
    53ab:	74 68                	je     5415 <fb_font_glyph+0x6d5>
    53ad:	c6 01 00             	movb   $0x0,(%ecx)
    53b0:	b8 52 0b 00 00       	mov    $0xb52,%eax
    53b5:	5d                   	pop    %ebp
    53b6:	c3                   	ret    
    53b7:	90                   	nop
    53b8:	8d 42 e0             	lea    -0x20(%edx),%eax
    53bb:	5d                   	pop    %ebp
    53bc:	c3                   	ret    
    53bd:	8d 76 00             	lea    0x0(%esi),%esi
    53c0:	8d 42 be             	lea    -0x42(%edx),%eax
    53c3:	5d                   	pop    %ebp
    53c4:	c3                   	ret    
    53c5:	8d 76 00             	lea    0x0(%esi),%esi
    53c8:	8d 42 c0             	lea    -0x40(%edx),%eax
    53cb:	5d                   	pop    %ebp
    53cc:	c3                   	ret    
    53cd:	8d 76 00             	lea    0x0(%esi),%esi
    53d0:	8d 42 a2             	lea    -0x5e(%edx),%eax
    53d3:	5d                   	pop    %ebp
    53d4:	c3                   	ret    
    53d5:	8d 76 00             	lea    0x0(%esi),%esi
    53d8:	8d 42 98             	lea    -0x68(%edx),%eax
    53db:	5d                   	pop    %ebp
    53dc:	c3                   	ret    
    53dd:	8d 76 00             	lea    0x0(%esi),%esi
    53e0:	8d 42 a0             	lea    -0x60(%edx),%eax
    53e3:	5d                   	pop    %ebp
    53e4:	c3                   	ret    
    53e5:	8d 82 77 ff ff ff    	lea    -0x89(%edx),%eax
    53eb:	5d                   	pop    %ebp
    53ec:	c3                   	ret    
    53ed:	8d 82 69 ff ff ff    	lea    -0x97(%edx),%eax
    53f3:	5d                   	pop    %ebp
    53f4:	c3                   	ret    
    53f5:	8d 82 3f ff ff ff    	lea    -0xc1(%edx),%eax
    53fb:	5d                   	pop    %ebp
    53fc:	c3                   	ret    
    53fd:	8d 82 0d ff ff ff    	lea    -0xf3(%edx),%eax
    5403:	5d                   	pop    %ebp
    5404:	c3                   	ret    
    5405:	8d 82 01 ff ff ff    	lea    -0xff(%edx),%eax
    540b:	5d                   	pop    %ebp
    540c:	c3                   	ret    
    540d:	8d 82 ff fe ff ff    	lea    -0x101(%edx),%eax
    5413:	5d                   	pop    %ebp
    5414:	c3                   	ret    
    5415:	b8 52 0b 00 00       	mov    $0xb52,%eax
    541a:	5d                   	pop    %ebp
    541b:	c3                   	ret    
    541c:	8d 82 53 0c 00 00    	lea    0xc53(%edx),%eax
    5422:	5d                   	pop    %ebp
    5423:	c3                   	ret    
    5424:	8d 82 fd fe ff ff    	lea    -0x103(%edx),%eax
    542a:	5d                   	pop    %ebp
    542b:	c3                   	ret    
    542c:	8d 82 fe fe ff ff    	lea    -0x102(%edx),%eax
    5432:	5d                   	pop    %ebp
    5433:	c3                   	ret    
    5434:	8d 82 55 0c 00 00    	lea    0xc55(%edx),%eax
    543a:	5d                   	pop    %ebp
    543b:	c3                   	ret    
    543c:	8d 82 59 0c 00 00    	lea    0xc59(%edx),%eax
    5442:	5d                   	pop    %ebp
    5443:	c3                   	ret    
    5444:	8d 82 5a 0c 00 00    	lea    0xc5a(%edx),%eax
    544a:	5d                   	pop    %ebp
    544b:	c3                   	ret    
    544c:	8d 82 5b 0c 00 00    	lea    0xc5b(%edx),%eax
    5452:	5d                   	pop    %ebp
    5453:	c3                   	ret    
    5454:	8d 82 c3 fe ff ff    	lea    -0x13d(%edx),%eax
    545a:	5d                   	pop    %ebp
    545b:	c3                   	ret    
    545c:	8d 82 c5 fe ff ff    	lea    -0x13b(%edx),%eax
    5462:	5d                   	pop    %ebp
    5463:	c3                   	ret    
    5464:	8d 82 e5 fe ff ff    	lea    -0x11b(%edx),%eax
    546a:	5d                   	pop    %ebp
    546b:	c3                   	ret    
    546c:	8d 82 eb fe ff ff    	lea    -0x115(%edx),%eax
    5472:	5d                   	pop    %ebp
    5473:	c3                   	ret    
    5474:	8d 82 ed fe ff ff    	lea    -0x113(%edx),%eax
    547a:	5d                   	pop    %ebp
    547b:	c3                   	ret    
    547c:	8d 82 ee fe ff ff    	lea    -0x112(%edx),%eax
    5482:	5d                   	pop    %ebp
    5483:	c3                   	ret    
    5484:	8d 82 ef fe ff ff    	lea    -0x111(%edx),%eax
    548a:	5d                   	pop    %ebp
    548b:	c3                   	ret    
    548c:	8d 82 fb fe ff ff    	lea    -0x105(%edx),%eax
    5492:	5d                   	pop    %ebp
    5493:	c3                   	ret    
    5494:	8d 82 6f e6 ff ff    	lea    -0x1991(%edx),%eax
    549a:	5d                   	pop    %ebp
    549b:	c3                   	ret    
    549c:	8d 82 67 e7 ff ff    	lea    -0x1899(%edx),%eax
    54a2:	5d                   	pop    %ebp
    54a3:	c3                   	ret    
    54a4:	8d 82 6d e7 ff ff    	lea    -0x1893(%edx),%eax
    54aa:	5d                   	pop    %ebp
    54ab:	c3                   	ret    
    54ac:	8d 82 71 e7 ff ff    	lea    -0x188f(%edx),%eax
    54b2:	5d                   	pop    %ebp
    54b3:	c3                   	ret    
    54b4:	8d 82 6d fe ff ff    	lea    -0x193(%edx),%eax
    54ba:	5d                   	pop    %ebp
    54bb:	c3                   	ret    
    54bc:	8d 82 6f fe ff ff    	lea    -0x191(%edx),%eax
    54c2:	5d                   	pop    %ebp
    54c3:	c3                   	ret    
    54c4:	8d 82 71 fe ff ff    	lea    -0x18f(%edx),%eax
    54ca:	5d                   	pop    %ebp
    54cb:	c3                   	ret    
    54cc:	8d 82 7b fe ff ff    	lea    -0x185(%edx),%eax
    54d2:	5d                   	pop    %ebp
    54d3:	c3                   	ret    
    54d4:	8d 82 80 fe ff ff    	lea    -0x180(%edx),%eax
    54da:	5d                   	pop    %ebp
    54db:	c3                   	ret    
    54dc:	8d 82 a9 fe ff ff    	lea    -0x157(%edx),%eax
    54e2:	5d                   	pop    %ebp
    54e3:	c3                   	ret    
    54e4:	8d 82 ae fe ff ff    	lea    -0x152(%edx),%eax
    54ea:	5d                   	pop    %ebp
    54eb:	c3                   	ret    
    54ec:	8d 82 b9 fe ff ff    	lea    -0x147(%edx),%eax
    54f2:	5d                   	pop    %ebp
    54f3:	c3                   	ret    
    54f4:	8d 82 ba fe ff ff    	lea    -0x146(%edx),%eax
    54fa:	5d                   	pop    %ebp
    54fb:	c3                   	ret    
    54fc:	8d 82 bb fe ff ff    	lea    -0x145(%edx),%eax
    5502:	5d                   	pop    %ebp
    5503:	c3                   	ret    
    5504:	8d 82 c1 fe ff ff    	lea    -0x13f(%edx),%eax
    550a:	5d                   	pop    %ebp
    550b:	c3                   	ret    
    550c:	8d 82 c2 fe ff ff    	lea    -0x13e(%edx),%eax
    5512:	5d                   	pop    %ebp
    5513:	c3                   	ret    
    5514:	8d 82 6a 0d 00 00    	lea    0xd6a(%edx),%eax
    551a:	5d                   	pop    %ebp
    551b:	c3                   	ret    
    551c:	8d 82 b1 0d 00 00    	lea    0xdb1(%edx),%eax
    5522:	5d                   	pop    %ebp
    5523:	c3                   	ret    
    5524:	8d 82 3e 0e 00 00    	lea    0xe3e(%edx),%eax
    552a:	5d                   	pop    %ebp
    552b:	c3                   	ret    
    552c:	8d 82 99 0e 00 00    	lea    0xe99(%edx),%eax
    5532:	5d                   	pop    %ebp
    5533:	c3                   	ret    
    5534:	8d 82 ab 0e 00 00    	lea    0xeab(%edx),%eax
    553a:	5d                   	pop    %ebp
    553b:	c3                   	ret    
    553c:	8d 82 cc 0e 00 00    	lea    0xecc(%edx),%eax
    5542:	5d                   	pop    %ebp
    5543:	c3                   	ret    
    5544:	8d 82 16 0f 00 00    	lea    0xf16(%edx),%eax
    554a:	5d                   	pop    %ebp
    554b:	c3                   	ret    
    554c:	8d 82 a6 e3 ff ff    	lea    -0x1c5a(%edx),%eax
    5552:	5d                   	pop    %ebp
    5553:	c3                   	ret    
    5554:	8d 82 a7 e3 ff ff    	lea    -0x1c59(%edx),%eax
    555a:	5d                   	pop    %ebp
    555b:	c3                   	ret    
    555c:	8d 82 b3 e3 ff ff    	lea    -0x1c4d(%edx),%eax
    5562:	5d                   	pop    %ebp
    5563:	c3                   	ret    
    5564:	8d 82 b4 e3 ff ff    	lea    -0x1c4c(%edx),%eax
    556a:	5d                   	pop    %ebp
    556b:	c3                   	ret    
    556c:	8d 82 b6 e3 ff ff    	lea    -0x1c4a(%edx),%eax
    5572:	5d                   	pop    %ebp
    5573:	c3                   	ret    
    5574:	8d 82 c7 e3 ff ff    	lea    -0x1c39(%edx),%eax
    557a:	5d                   	pop    %ebp
    557b:	c3                   	ret    
    557c:	8d 82 c9 e3 ff ff    	lea    -0x1c37(%edx),%eax
    5582:	5d                   	pop    %ebp
    5583:	c3                   	ret    
    5584:	8d 82 cb e3 ff ff    	lea    -0x1c35(%edx),%eax
    558a:	5d                   	pop    %ebp
    558b:	c3                   	ret    
    558c:	8d 82 d3 e3 ff ff    	lea    -0x1c2d(%edx),%eax
    5592:	5d                   	pop    %ebp
    5593:	c3                   	ret    
    5594:	8d 82 dd e3 ff ff    	lea    -0x1c23(%edx),%eax
    559a:	5d                   	pop    %ebp
    559b:	c3                   	ret    
    559c:	8d 82 b7 e4 ff ff    	lea    -0x1b49(%edx),%eax
    55a2:	5d                   	pop    %ebp
    55a3:	c3                   	ret    
    55a4:	8d 82 cc e4 ff ff    	lea    -0x1b34(%edx),%eax
    55aa:	5d                   	pop    %ebp
    55ab:	c3                   	ret    
    55ac:	8d 82 16 e5 ff ff    	lea    -0x1aea(%edx),%eax
    55b2:	5d                   	pop    %ebp
    55b3:	c3                   	ret    
    55b4:	8d 82 86 e5 ff ff    	lea    -0x1a7a(%edx),%eax
    55ba:	5d                   	pop    %ebp
    55bb:	c3                   	ret    
    55bc:	8d 82 8d e5 ff ff    	lea    -0x1a73(%edx),%eax
    55c2:	5d                   	pop    %ebp
    55c3:	c3                   	ret    
    55c4:	8d 82 91 e5 ff ff    	lea    -0x1a6f(%edx),%eax
    55ca:	5d                   	pop    %ebp
    55cb:	c3                   	ret    
    55cc:	8d 82 9d e5 ff ff    	lea    -0x1a63(%edx),%eax
    55d2:	5d                   	pop    %ebp
    55d3:	c3                   	ret    
    55d4:	8d 82 b1 e5 ff ff    	lea    -0x1a4f(%edx),%eax
    55da:	5d                   	pop    %ebp
    55db:	c3                   	ret    
    55dc:	8d 82 bd e5 ff ff    	lea    -0x1a43(%edx),%eax
    55e2:	5d                   	pop    %ebp
    55e3:	c3                   	ret    
    55e4:	8d 82 c9 e5 ff ff    	lea    -0x1a37(%edx),%eax
    55ea:	5d                   	pop    %ebp
    55eb:	c3                   	ret    
    55ec:	8d 82 e1 e5 ff ff    	lea    -0x1a1f(%edx),%eax
    55f2:	5d                   	pop    %ebp
    55f3:	c3                   	ret    
    55f4:	8d 82 31 e6 ff ff    	lea    -0x19cf(%edx),%eax
    55fa:	5d                   	pop    %ebp
    55fb:	c3                   	ret    
    55fc:	8d 82 41 e6 ff ff    	lea    -0x19bf(%edx),%eax
    5602:	5d                   	pop    %ebp
    5603:	c3                   	ret    
    5604:	8d 82 66 e6 ff ff    	lea    -0x199a(%edx),%eax
    560a:	5d                   	pop    %ebp
    560b:	c3                   	ret    
    560c:	8d 82 67 e6 ff ff    	lea    -0x1999(%edx),%eax
    5612:	5d                   	pop    %ebp
    5613:	c3                   	ret    
    5614:	66 90                	xchg   %ax,%ax
    5616:	66 90                	xchg   %ax,%ax
    5618:	66 90                	xchg   %ax,%ax
    561a:	66 90                	xchg   %ax,%ax
    561c:	66 90                	xchg   %ax,%ax
    561e:	66 90                	xchg   %ax,%ax

00005620 <drawctx_init>:
    5620:	55                   	push   %ebp
    5621:	89 e5                	mov    %esp,%ebp
    5623:	83 ec 08             	sub    $0x8,%esp
    5626:	8b 55 0c             	mov    0xc(%ebp),%edx
    5629:	8b 45 08             	mov    0x8(%ebp),%eax
    562c:	85 d2                	test   %edx,%edx
    562e:	74 47                	je     5677 <drawctx_init+0x57>
    5630:	8d 48 08             	lea    0x8(%eax),%ecx
    5633:	89 50 10             	mov    %edx,0x10(%eax)
    5636:	89 48 08             	mov    %ecx,0x8(%eax)
    5639:	89 48 0c             	mov    %ecx,0xc(%eax)
    563c:	c7 40 14 90 64 00 00 	movl   $0x6490,0x14(%eax)
    5643:	c7 40 18 00 00 00 00 	movl   $0x0,0x18(%eax)
    564a:	c7 40 1c 00 00 00 00 	movl   $0x0,0x1c(%eax)
    5651:	c6 40 24 00          	movb   $0x0,0x24(%eax)
    5655:	c7 40 28 00 00 00 00 	movl   $0x0,0x28(%eax)
    565c:	c7 40 2c 00 00 00 00 	movl   $0x0,0x2c(%eax)
    5663:	51                   	push   %ecx
    5664:	8d 48 34             	lea    0x34(%eax),%ecx
    5667:	83 c0 30             	add    $0x30,%eax
    566a:	51                   	push   %ecx
    566b:	50                   	push   %eax
    566c:	52                   	push   %edx
    566d:	e8 de 0b 00 00       	call   6250 <surface_get_resolution>
    5672:	83 c4 10             	add    $0x10,%esp
    5675:	c9                   	leave  
    5676:	c3                   	ret    
    5677:	50                   	push   %eax
    5678:	6a 2c                	push   $0x2c
    567a:	68 60 78 00 00       	push   $0x7860
    567f:	68 6a 78 00 00       	push   $0x786a
    5684:	e8 97 25 00 00       	call   7c20 <assert_abort@plt>
    5689:	8d b4 26 00 00 00 00 	lea    0x0(%esi,%eiz,1),%esi

00005690 <drawctx_save>:
    5690:	55                   	push   %ebp
    5691:	89 e5                	mov    %esp,%ebp
    5693:	53                   	push   %ebx
    5694:	83 ec 10             	sub    $0x10,%esp
    5697:	8b 5d 08             	mov    0x8(%ebp),%ebx
    569a:	6a 38                	push   $0x38
    569c:	e8 0f 25 00 00       	call   7bb0 <malloc@plt>
    56a1:	83 c4 10             	add    $0x10,%esp
    56a4:	85 c0                	test   %eax,%eax
    56a6:	74 41                	je     56e9 <drawctx_save+0x59>
    56a8:	8b 53 14             	mov    0x14(%ebx),%edx
    56ab:	8a 4b 24             	mov    0x24(%ebx),%cl
    56ae:	89 50 14             	mov    %edx,0x14(%eax)
    56b1:	8b 53 18             	mov    0x18(%ebx),%edx
    56b4:	89 50 18             	mov    %edx,0x18(%eax)
    56b7:	8b 53 1c             	mov    0x1c(%ebx),%edx
    56ba:	89 50 1c             	mov    %edx,0x1c(%eax)
    56bd:	8b 53 28             	mov    0x28(%ebx),%edx
    56c0:	89 50 28             	mov    %edx,0x28(%eax)
    56c3:	8b 53 2c             	mov    0x2c(%ebx),%edx
    56c6:	89 50 2c             	mov    %edx,0x2c(%eax)
    56c9:	8b 53 30             	mov    0x30(%ebx),%edx
    56cc:	89 50 30             	mov    %edx,0x30(%eax)
    56cf:	8b 53 34             	mov    0x34(%ebx),%edx
    56d2:	89 50 34             	mov    %edx,0x34(%eax)
    56d5:	8d 53 08             	lea    0x8(%ebx),%edx
    56d8:	89 50 04             	mov    %edx,0x4(%eax)
    56db:	8b 53 08             	mov    0x8(%ebx),%edx
    56de:	88 48 24             	mov    %cl,0x24(%eax)
    56e1:	89 10                	mov    %edx,(%eax)
    56e3:	89 42 04             	mov    %eax,0x4(%edx)
    56e6:	89 43 08             	mov    %eax,0x8(%ebx)
    56e9:	8b 5d fc             	mov    -0x4(%ebp),%ebx
    56ec:	c9                   	leave  
    56ed:	c3                   	ret    
    56ee:	66 90                	xchg   %ax,%ax

000056f0 <drawctx_restore>:
    56f0:	55                   	push   %ebp
    56f1:	89 e5                	mov    %esp,%ebp
    56f3:	53                   	push   %ebx
    56f4:	8b 55 08             	mov    0x8(%ebp),%edx
    56f7:	8b 42 08             	mov    0x8(%edx),%eax
    56fa:	85 c0                	test   %eax,%eax
    56fc:	74 62                	je     5760 <drawctx_restore+0x70>
    56fe:	8d 4a 08             	lea    0x8(%edx),%ecx
    5701:	39 c8                	cmp    %ecx,%eax
    5703:	74 5b                	je     5760 <drawctx_restore+0x70>
    5705:	8b 18                	mov    (%eax),%ebx
    5707:	85 db                	test   %ebx,%ebx
    5709:	74 0e                	je     5719 <drawctx_restore+0x29>
    570b:	8b 48 04             	mov    0x4(%eax),%ecx
    570e:	85 c9                	test   %ecx,%ecx
    5710:	74 07                	je     5719 <drawctx_restore+0x29>
    5712:	89 19                	mov    %ebx,(%ecx)
    5714:	8b 18                	mov    (%eax),%ebx
    5716:	89 4b 04             	mov    %ecx,0x4(%ebx)
    5719:	8b 48 14             	mov    0x14(%eax),%ecx
    571c:	c7 00 00 00 00 00    	movl   $0x0,(%eax)
    5722:	c7 40 04 00 00 00 00 	movl   $0x0,0x4(%eax)
    5729:	89 4a 14             	mov    %ecx,0x14(%edx)
    572c:	8b 48 18             	mov    0x18(%eax),%ecx
    572f:	8a 58 24             	mov    0x24(%eax),%bl
    5732:	89 4a 18             	mov    %ecx,0x18(%edx)
    5735:	8b 48 1c             	mov    0x1c(%eax),%ecx
    5738:	89 4a 1c             	mov    %ecx,0x1c(%edx)
    573b:	8b 48 28             	mov    0x28(%eax),%ecx
    573e:	89 4a 28             	mov    %ecx,0x28(%edx)
    5741:	8b 48 2c             	mov    0x2c(%eax),%ecx
    5744:	89 4a 2c             	mov    %ecx,0x2c(%edx)
    5747:	8b 48 30             	mov    0x30(%eax),%ecx
    574a:	89 4a 30             	mov    %ecx,0x30(%edx)
    574d:	8b 48 34             	mov    0x34(%eax),%ecx
    5750:	88 5a 24             	mov    %bl,0x24(%edx)
    5753:	89 4a 34             	mov    %ecx,0x34(%edx)
    5756:	5b                   	pop    %ebx
    5757:	89 45 08             	mov    %eax,0x8(%ebp)
    575a:	5d                   	pop    %ebp
    575b:	e9 40 27 00 00       	jmp    7ea0 <free@plt>
    5760:	5b                   	pop    %ebx
    5761:	5d                   	pop    %ebp
    5762:	c3                   	ret    
    5763:	8d b6 00 00 00 00    	lea    0x0(%esi),%esi
    5769:	8d bc 27 00 00 00 00 	lea    0x0(%edi,%eiz,1),%edi

00005770 <drawctx_set_compose>:
    5770:	55                   	push   %ebp
    5771:	89 e5                	mov    %esp,%ebp
    5773:	8b 45 08             	mov    0x8(%ebp),%eax
    5776:	8b 55 0c             	mov    0xc(%ebp),%edx
    5779:	89 50 14             	mov    %edx,0x14(%eax)
    577c:	5d                   	pop    %ebp
    577d:	c3                   	ret    
    577e:	66 90                	xchg   %ax,%ax

00005780 <drawctx_set_clip>:
    5780:	55                   	push   %ebp
    5781:	89 e5                	mov    %esp,%ebp
    5783:	57                   	push   %edi
    5784:	56                   	push   %esi
    5785:	53                   	push   %ebx
    5786:	83 ec 10             	sub    $0x10,%esp
    5789:	8b 5d 08             	mov    0x8(%ebp),%ebx
    578c:	8b 75 0c             	mov    0xc(%ebp),%esi
    578f:	8b 7d 14             	mov    0x14(%ebp),%edi
    5792:	8d 53 34             	lea    0x34(%ebx),%edx
    5795:	8b 43 10             	mov    0x10(%ebx),%eax
    5798:	52                   	push   %edx
    5799:	8d 53 30             	lea    0x30(%ebx),%edx
    579c:	52                   	push   %edx
    579d:	50                   	push   %eax
    579e:	e8 ad 0a 00 00       	call   6250 <surface_get_resolution>
    57a3:	89 f0                	mov    %esi,%eax
    57a5:	83 c4 10             	add    $0x10,%esp
    57a8:	b2 01                	mov    $0x1,%dl
    57aa:	0b 45 10             	or     0x10(%ebp),%eax
    57ad:	75 0e                	jne    57bd <drawctx_set_clip+0x3d>
    57af:	39 7b 30             	cmp    %edi,0x30(%ebx)
    57b2:	77 09                	ja     57bd <drawctx_set_clip+0x3d>
    57b4:	8b 45 18             	mov    0x18(%ebp),%eax
    57b7:	39 43 34             	cmp    %eax,0x34(%ebx)
    57ba:	0f 97 c2             	seta   %dl
    57bd:	8b 45 10             	mov    0x10(%ebp),%eax
    57c0:	88 53 24             	mov    %dl,0x24(%ebx)
    57c3:	89 43 2c             	mov    %eax,0x2c(%ebx)
    57c6:	8b 45 18             	mov    0x18(%ebp),%eax
    57c9:	89 73 28             	mov    %esi,0x28(%ebx)
    57cc:	89 7b 30             	mov    %edi,0x30(%ebx)
    57cf:	89 43 34             	mov    %eax,0x34(%ebx)
    57d2:	8d 65 f4             	lea    -0xc(%ebp),%esp
    57d5:	5b                   	pop    %ebx
    57d6:	5e                   	pop    %esi
    57d7:	5f                   	pop    %edi
    57d8:	5d                   	pop    %ebp
    57d9:	c3                   	ret    
    57da:	8d b6 00 00 00 00    	lea    0x0(%esi),%esi

000057e0 <drawctx_set_mask>:
    57e0:	55                   	push   %ebp
    57e1:	89 e5                	mov    %esp,%ebp
    57e3:	8b 45 08             	mov    0x8(%ebp),%eax
    57e6:	8b 55 0c             	mov    0xc(%ebp),%edx
    57e9:	89 50 18             	mov    %edx,0x18(%eax)
    57ec:	5d                   	pop    %ebp
    57ed:	c3                   	ret    
    57ee:	66 90                	xchg   %ax,%ax

000057f0 <drawctx_set_source>:
    57f0:	55                   	push   %ebp
    57f1:	89 e5                	mov    %esp,%ebp
    57f3:	8b 45 08             	mov    0x8(%ebp),%eax
    57f6:	8b 55 0c             	mov    0xc(%ebp),%edx
    57f9:	89 50 1c             	mov    %edx,0x1c(%eax)
    57fc:	5d                   	pop    %ebp
    57fd:	c3                   	ret    
    57fe:	66 90                	xchg   %ax,%ax

00005800 <drawctx_set_font>:
    5800:	55                   	push   %ebp
    5801:	89 e5                	mov    %esp,%ebp
    5803:	8b 45 08             	mov    0x8(%ebp),%eax
    5806:	8b 55 0c             	mov    0xc(%ebp),%edx
    5809:	89 50 20             	mov    %edx,0x20(%eax)
    580c:	5d                   	pop    %ebp
    580d:	c3                   	ret    
    580e:	66 90                	xchg   %ax,%ax

00005810 <drawctx_transfer>:
    5810:	55                   	push   %ebp
    5811:	89 e5                	mov    %esp,%ebp
    5813:	57                   	push   %edi
    5814:	56                   	push   %esi
    5815:	53                   	push   %ebx
    5816:	83 ec 4c             	sub    $0x4c,%esp
    5819:	8b 45 0c             	mov    0xc(%ebp),%eax
    581c:	8b 7d 08             	mov    0x8(%ebp),%edi
    581f:	89 45 d0             	mov    %eax,-0x30(%ebp)
    5822:	8b 45 14             	mov    0x14(%ebp),%eax
    5825:	89 45 b0             	mov    %eax,-0x50(%ebp)
    5828:	8b 45 18             	mov    0x18(%ebp),%eax
    582b:	89 45 b8             	mov    %eax,-0x48(%ebp)
    582e:	8b 47 1c             	mov    0x1c(%edi),%eax
    5831:	8b 75 10             	mov    0x10(%ebp),%esi
    5834:	85 c0                	test   %eax,%eax
    5836:	0f 84 fd 00 00 00    	je     5939 <drawctx_transfer+0x129>
    583c:	83 ec 0c             	sub    $0xc,%esp
    583f:	50                   	push   %eax
    5840:	e8 5b 06 00 00       	call   5ea0 <source_is_fast>
    5845:	83 c4 10             	add    $0x10,%esp
    5848:	84 c0                	test   %al,%al
    584a:	0f 85 f1 00 00 00    	jne    5941 <drawctx_transfer+0x131>
    5850:	8b 45 b8             	mov    -0x48(%ebp),%eax
    5853:	01 f0                	add    %esi,%eax
    5855:	89 45 b4             	mov    %eax,-0x4c(%ebp)
    5858:	39 c6                	cmp    %eax,%esi
    585a:	0f 83 d9 00 00 00    	jae    5939 <drawctx_transfer+0x129>
    5860:	8b 55 d0             	mov    -0x30(%ebp),%edx
    5863:	8b 45 b0             	mov    -0x50(%ebp),%eax
    5866:	01 d0                	add    %edx,%eax
    5868:	89 45 d4             	mov    %eax,-0x2c(%ebp)
    586b:	39 c2                	cmp    %eax,%edx
    586d:	0f 83 c6 00 00 00    	jae    5939 <drawctx_transfer+0x129>
    5873:	31 c9                	xor    %ecx,%ecx
    5875:	c6 45 d8 00          	movb   $0x0,-0x28(%ebp)
    5879:	8d b4 26 00 00 00 00 	lea    0x0(%esi,%eiz,1),%esi
    5880:	8b 5d d0             	mov    -0x30(%ebp),%ebx
    5883:	89 75 b8             	mov    %esi,-0x48(%ebp)
    5886:	c7 45 bc 00 00 00 00 	movl   $0x0,-0x44(%ebp)
    588d:	8d 76 00             	lea    0x0(%esi),%esi
    5890:	80 7f 24 00          	cmpb   $0x0,0x24(%edi)
    5894:	74 1a                	je     58b0 <drawctx_transfer+0xa0>
    5896:	c6 45 d8 00          	movb   $0x0,-0x28(%ebp)
    589a:	39 5f 28             	cmp    %ebx,0x28(%edi)
    589d:	76 11                	jbe    58b0 <drawctx_transfer+0xa0>
    589f:	39 5f 30             	cmp    %ebx,0x30(%edi)
    58a2:	77 0c                	ja     58b0 <drawctx_transfer+0xa0>
    58a4:	39 77 2c             	cmp    %esi,0x2c(%edi)
    58a7:	76 07                	jbe    58b0 <drawctx_transfer+0xa0>
    58a9:	39 77 34             	cmp    %esi,0x34(%edi)
    58ac:	0f 96 45 d8          	setbe  -0x28(%ebp)
    58b0:	8b 47 18             	mov    0x18(%edi),%eax
    58b3:	85 c0                	test   %eax,%eax
    58b5:	74 11                	je     58c8 <drawctx_transfer+0xb8>
    58b7:	52                   	push   %edx
    58b8:	56                   	push   %esi
    58b9:	53                   	push   %ebx
    58ba:	50                   	push   %eax
    58bb:	e8 80 0b 00 00       	call   6440 <surface_get_pixel>
    58c0:	83 c4 10             	add    $0x10,%esp
    58c3:	85 c0                	test   %eax,%eax
    58c5:	0f 94 c1             	sete   %cl
    58c8:	80 7d d8 00          	cmpb   $0x0,-0x28(%ebp)
    58cc:	75 57                	jne    5925 <drawctx_transfer+0x115>
    58ce:	84 c9                	test   %cl,%cl
    58d0:	75 53                	jne    5925 <drawctx_transfer+0x115>
    58d2:	83 ec 1c             	sub    $0x1c,%esp
    58d5:	89 5d c8             	mov    %ebx,-0x38(%ebp)
    58d8:	df 6d b8             	fildll -0x48(%ebp)
    58db:	c7 45 cc 00 00 00 00 	movl   $0x0,-0x34(%ebp)
    58e2:	88 4d c0             	mov    %cl,-0x40(%ebp)
    58e5:	dd 5c 24 08          	fstpl  0x8(%esp)
    58e9:	df 6d c8             	fildll -0x38(%ebp)
    58ec:	dd 1c 24             	fstpl  (%esp)
    58ef:	8b 47 1c             	mov    0x1c(%edi),%eax
    58f2:	50                   	push   %eax
    58f3:	e8 c8 06 00 00       	call   5fc0 <source_determine_pixel>
    58f8:	83 c4 1c             	add    $0x1c,%esp
    58fb:	89 45 c8             	mov    %eax,-0x38(%ebp)
    58fe:	56                   	push   %esi
    58ff:	53                   	push   %ebx
    5900:	8b 57 10             	mov    0x10(%edi),%edx
    5903:	52                   	push   %edx
    5904:	e8 37 0b 00 00       	call   6440 <surface_get_pixel>
    5909:	59                   	pop    %ecx
    590a:	5a                   	pop    %edx
    590b:	8b 55 c8             	mov    -0x38(%ebp),%edx
    590e:	50                   	push   %eax
    590f:	52                   	push   %edx
    5910:	ff 57 14             	call   *0x14(%edi)
    5913:	50                   	push   %eax
    5914:	56                   	push   %esi
    5915:	53                   	push   %ebx
    5916:	8b 4f 10             	mov    0x10(%edi),%ecx
    5919:	51                   	push   %ecx
    591a:	e8 c1 0a 00 00       	call   63e0 <surface_put_pixel>
    591f:	83 c4 20             	add    $0x20,%esp
    5922:	8a 4d c0             	mov    -0x40(%ebp),%cl
    5925:	43                   	inc    %ebx
    5926:	39 5d d4             	cmp    %ebx,-0x2c(%ebp)
    5929:	0f 85 61 ff ff ff    	jne    5890 <drawctx_transfer+0x80>
    592f:	46                   	inc    %esi
    5930:	3b 75 b4             	cmp    -0x4c(%ebp),%esi
    5933:	0f 85 47 ff ff ff    	jne    5880 <drawctx_transfer+0x70>
    5939:	8d 65 f4             	lea    -0xc(%ebp),%esp
    593c:	5b                   	pop    %ebx
    593d:	5e                   	pop    %esi
    593e:	5f                   	pop    %edi
    593f:	5d                   	pop    %ebp
    5940:	c3                   	ret    
    5941:	80 7f 24 00          	cmpb   $0x0,0x24(%edi)
    5945:	0f 85 05 ff ff ff    	jne    5850 <drawctx_transfer+0x40>
    594b:	8b 47 18             	mov    0x18(%edi),%eax
    594e:	85 c0                	test   %eax,%eax
    5950:	0f 85 fa fe ff ff    	jne    5850 <drawctx_transfer+0x40>
    5956:	8b 47 14             	mov    0x14(%edi),%eax
    5959:	3d 90 64 00 00       	cmp    $0x6490,%eax
    595e:	74 0b                	je     596b <drawctx_transfer+0x15b>
    5960:	3d b0 64 00 00       	cmp    $0x64b0,%eax
    5965:	0f 85 e5 fe ff ff    	jne    5850 <drawctx_transfer+0x40>
    596b:	8b 45 b8             	mov    -0x48(%ebp),%eax
    596e:	01 f0                	add    %esi,%eax
    5970:	89 45 c8             	mov    %eax,-0x38(%ebp)
    5973:	39 c6                	cmp    %eax,%esi
    5975:	0f 83 9c 00 00 00    	jae    5a17 <drawctx_transfer+0x207>
    597b:	8b 45 d0             	mov    -0x30(%ebp),%eax
    597e:	c7 45 dc 00 00 00 00 	movl   $0x0,-0x24(%ebp)
    5985:	89 45 d8             	mov    %eax,-0x28(%ebp)
    5988:	89 f2                	mov    %esi,%edx
    598a:	df 6d d8             	fildll -0x28(%ebp)
    598d:	89 75 b4             	mov    %esi,-0x4c(%ebp)
    5990:	8b 75 b0             	mov    -0x50(%ebp),%esi
    5993:	dd 5d c0             	fstpl  -0x40(%ebp)
    5996:	66 90                	xchg   %ax,%ax
    5998:	89 55 d8             	mov    %edx,-0x28(%ebp)
    599b:	c7 45 dc 00 00 00 00 	movl   $0x0,-0x24(%ebp)
    59a2:	83 ec 14             	sub    $0x14,%esp
    59a5:	89 55 d4             	mov    %edx,-0x2c(%ebp)
    59a8:	df 6d d8             	fildll -0x28(%ebp)
    59ab:	8b 55 c0             	mov    -0x40(%ebp),%edx
    59ae:	8b 45 c4             	mov    -0x3c(%ebp),%eax
    59b1:	dd 1c 24             	fstpl  (%esp)
    59b4:	50                   	push   %eax
    59b5:	52                   	push   %edx
    59b6:	8b 4f 1c             	mov    0x1c(%edi),%ecx
    59b9:	51                   	push   %ecx
    59ba:	e8 21 05 00 00       	call   5ee0 <source_direct_access>
    59bf:	83 c4 14             	add    $0x14,%esp
    59c2:	89 c3                	mov    %eax,%ebx
    59c4:	8b 47 10             	mov    0x10(%edi),%eax
    59c7:	50                   	push   %eax
    59c8:	e8 73 08 00 00       	call   6240 <surface_pixmap_access>
    59cd:	83 c4 10             	add    $0x10,%esp
    59d0:	8b 55 d4             	mov    -0x2c(%ebp),%edx
    59d3:	8b 08                	mov    (%eax),%ecx
    59d5:	39 4d d0             	cmp    %ecx,-0x30(%ebp)
    59d8:	73 34                	jae    5a0e <drawctx_transfer+0x1fe>
    59da:	39 50 04             	cmp    %edx,0x4(%eax)
    59dd:	76 2f                	jbe    5a0e <drawctx_transfer+0x1fe>
    59df:	0f af ca             	imul   %edx,%ecx
    59e2:	03 4d d0             	add    -0x30(%ebp),%ecx
    59e5:	8b 40 08             	mov    0x8(%eax),%eax
    59e8:	85 db                	test   %ebx,%ebx
    59ea:	8d 0c 88             	lea    (%eax,%ecx,4),%ecx
    59ed:	74 1f                	je     5a0e <drawctx_transfer+0x1fe>
    59ef:	85 c9                	test   %ecx,%ecx
    59f1:	74 1b                	je     5a0e <drawctx_transfer+0x1fe>
    59f3:	85 f6                	test   %esi,%esi
    59f5:	74 17                	je     5a0e <drawctx_transfer+0x1fe>
    59f7:	31 c0                	xor    %eax,%eax
    59f9:	89 55 d8             	mov    %edx,-0x28(%ebp)
    59fc:	8d 74 26 00          	lea    0x0(%esi,%eiz,1),%esi
    5a00:	8b 14 83             	mov    (%ebx,%eax,4),%edx
    5a03:	89 14 81             	mov    %edx,(%ecx,%eax,4)
    5a06:	40                   	inc    %eax
    5a07:	39 c6                	cmp    %eax,%esi
    5a09:	75 f5                	jne    5a00 <drawctx_transfer+0x1f0>
    5a0b:	8b 55 d8             	mov    -0x28(%ebp),%edx
    5a0e:	42                   	inc    %edx
    5a0f:	3b 55 c8             	cmp    -0x38(%ebp),%edx
    5a12:	75 84                	jne    5998 <drawctx_transfer+0x188>
    5a14:	8b 75 b4             	mov    -0x4c(%ebp),%esi
    5a17:	8b 45 b8             	mov    -0x48(%ebp),%eax
    5a1a:	89 75 10             	mov    %esi,0x10(%ebp)
    5a1d:	89 45 18             	mov    %eax,0x18(%ebp)
    5a20:	8b 45 b0             	mov    -0x50(%ebp),%eax
    5a23:	89 45 14             	mov    %eax,0x14(%ebp)
    5a26:	8b 45 d0             	mov    -0x30(%ebp),%eax
    5a29:	89 45 0c             	mov    %eax,0xc(%ebp)
    5a2c:	8b 47 10             	mov    0x10(%edi),%eax
    5a2f:	89 45 08             	mov    %eax,0x8(%ebp)
    5a32:	8d 65 f4             	lea    -0xc(%ebp),%esp
    5a35:	5b                   	pop    %ebx
    5a36:	5e                   	pop    %esi
    5a37:	5f                   	pop    %edi
    5a38:	5d                   	pop    %ebp
    5a39:	e9 22 09 00 00       	jmp    6360 <surface_add_damaged_region>
    5a3e:	66 90                	xchg   %ax,%ax

00005a40 <drawctx_stroke>:
    5a40:	55                   	push   %ebp
    5a41:	89 e5                	mov    %esp,%ebp
    5a43:	8b 45 08             	mov    0x8(%ebp),%eax
    5a46:	8b 55 0c             	mov    0xc(%ebp),%edx
    5a49:	8b 40 1c             	mov    0x1c(%eax),%eax
    5a4c:	85 c0                	test   %eax,%eax
    5a4e:	74 17                	je     5a67 <drawctx_stroke+0x27>
    5a50:	85 d2                	test   %edx,%edx
    5a52:	74 13                	je     5a67 <drawctx_stroke+0x27>
    5a54:	8b 42 04             	mov    0x4(%edx),%eax
    5a57:	39 d0                	cmp    %edx,%eax
    5a59:	74 0c                	je     5a67 <drawctx_stroke+0x27>
    5a5b:	90                   	nop
    5a5c:	8d 74 26 00          	lea    0x0(%esi,%eiz,1),%esi
    5a60:	8b 40 04             	mov    0x4(%eax),%eax
    5a63:	39 d0                	cmp    %edx,%eax
    5a65:	75 f9                	jne    5a60 <drawctx_stroke+0x20>
    5a67:	5d                   	pop    %ebp
    5a68:	c3                   	ret    
    5a69:	8d b4 26 00 00 00 00 	lea    0x0(%esi,%eiz,1),%esi

00005a70 <drawctx_fill>:
    5a70:	55                   	push   %ebp
    5a71:	89 e5                	mov    %esp,%ebp
    5a73:	5d                   	pop    %ebp
    5a74:	c3                   	ret    
    5a75:	8d 74 26 00          	lea    0x0(%esi,%eiz,1),%esi
    5a79:	8d bc 27 00 00 00 00 	lea    0x0(%edi,%eiz,1),%edi

00005a80 <drawctx_print>:
    5a80:	55                   	push   %ebp
    5a81:	89 e5                	mov    %esp,%ebp
    5a83:	83 ec 08             	sub    $0x8,%esp
    5a86:	8b 45 08             	mov    0x8(%ebp),%eax
    5a89:	8b 50 20             	mov    0x20(%eax),%edx
    5a8c:	85 d2                	test   %edx,%edx
    5a8e:	74 1e                	je     5aae <drawctx_print+0x2e>
    5a90:	8b 48 1c             	mov    0x1c(%eax),%ecx
    5a93:	85 c9                	test   %ecx,%ecx
    5a95:	74 17                	je     5aae <drawctx_print+0x2e>
    5a97:	83 ec 08             	sub    $0x8,%esp
    5a9a:	ff 75 14             	pushl  0x14(%ebp)
    5a9d:	ff 75 10             	pushl  0x10(%ebp)
    5aa0:	ff 75 0c             	pushl  0xc(%ebp)
    5aa3:	51                   	push   %ecx
    5aa4:	50                   	push   %eax
    5aa5:	52                   	push   %edx
    5aa6:	e8 c5 01 00 00       	call   5c70 <font_draw_text>
    5aab:	83 c4 20             	add    $0x20,%esp
    5aae:	c9                   	leave  
    5aaf:	c3                   	ret    

00005ab0 <font_create>:
    5ab0:	55                   	push   %ebp
    5ab1:	89 e5                	mov    %esp,%ebp
    5ab3:	83 ec 14             	sub    $0x14,%esp
    5ab6:	6a 08                	push   $0x8
    5ab8:	e8 f3 20 00 00       	call   7bb0 <malloc@plt>
    5abd:	83 c4 10             	add    $0x10,%esp
    5ac0:	85 c0                	test   %eax,%eax
    5ac2:	74 0b                	je     5acf <font_create+0x1f>
    5ac4:	8b 55 08             	mov    0x8(%ebp),%edx
    5ac7:	89 10                	mov    %edx,(%eax)
    5ac9:	8b 55 0c             	mov    0xc(%ebp),%edx
    5acc:	89 50 04             	mov    %edx,0x4(%eax)
    5acf:	c9                   	leave  
    5ad0:	c3                   	ret    
    5ad1:	eb 0d                	jmp    5ae0 <font_release>
    5ad3:	90                   	nop
    5ad4:	90                   	nop
    5ad5:	90                   	nop
    5ad6:	90                   	nop
    5ad7:	90                   	nop
    5ad8:	90                   	nop
    5ad9:	90                   	nop
    5ada:	90                   	nop
    5adb:	90                   	nop
    5adc:	90                   	nop
    5add:	90                   	nop
    5ade:	90                   	nop
    5adf:	90                   	nop

00005ae0 <font_release>:
    5ae0:	55                   	push   %ebp
    5ae1:	89 e5                	mov    %esp,%ebp
    5ae3:	8b 45 08             	mov    0x8(%ebp),%eax
    5ae6:	8b 10                	mov    (%eax),%edx
    5ae8:	8b 40 04             	mov    0x4(%eax),%eax
    5aeb:	89 45 08             	mov    %eax,0x8(%ebp)
    5aee:	5d                   	pop    %ebp
    5aef:	8b 42 10             	mov    0x10(%edx),%eax
    5af2:	ff e0                	jmp    *%eax
    5af4:	8d b6 00 00 00 00    	lea    0x0(%esi),%esi
    5afa:	8d bf 00 00 00 00    	lea    0x0(%edi),%edi

00005b00 <font_get_metrics>:
    5b00:	55                   	push   %ebp
    5b01:	89 e5                	mov    %esp,%ebp
    5b03:	8b 45 08             	mov    0x8(%ebp),%eax
    5b06:	8b 10                	mov    (%eax),%edx
    5b08:	8b 40 04             	mov    0x4(%eax),%eax
    5b0b:	89 45 08             	mov    %eax,0x8(%ebp)
    5b0e:	5d                   	pop    %ebp
    5b0f:	8b 02                	mov    (%edx),%eax
    5b11:	ff e0                	jmp    *%eax
    5b13:	8d b6 00 00 00 00    	lea    0x0(%esi),%esi
    5b19:	8d bc 27 00 00 00 00 	lea    0x0(%edi,%eiz,1),%edi

00005b20 <font_resolve_glyph>:
    5b20:	55                   	push   %ebp
    5b21:	89 e5                	mov    %esp,%ebp
    5b23:	8b 45 08             	mov    0x8(%ebp),%eax
    5b26:	8b 10                	mov    (%eax),%edx
    5b28:	8b 40 04             	mov    0x4(%eax),%eax
    5b2b:	89 45 08             	mov    %eax,0x8(%ebp)
    5b2e:	5d                   	pop    %ebp
    5b2f:	8b 42 04             	mov    0x4(%edx),%eax
    5b32:	ff e0                	jmp    *%eax
    5b34:	8d b6 00 00 00 00    	lea    0x0(%esi),%esi
    5b3a:	8d bf 00 00 00 00    	lea    0x0(%edi),%edi

00005b40 <font_get_glyph_metrics>:
    5b40:	55                   	push   %ebp
    5b41:	89 e5                	mov    %esp,%ebp
    5b43:	8b 45 08             	mov    0x8(%ebp),%eax
    5b46:	8b 10                	mov    (%eax),%edx
    5b48:	8b 40 04             	mov    0x4(%eax),%eax
    5b4b:	89 45 08             	mov    %eax,0x8(%ebp)
    5b4e:	5d                   	pop    %ebp
    5b4f:	8b 42 08             	mov    0x8(%edx),%eax
    5b52:	ff e0                	jmp    *%eax
    5b54:	8d b6 00 00 00 00    	lea    0x0(%esi),%esi
    5b5a:	8d bf 00 00 00 00    	lea    0x0(%edi),%edi

00005b60 <font_render_glyph>:
    5b60:	55                   	push   %ebp
    5b61:	89 e5                	mov    %esp,%ebp
    5b63:	8b 45 08             	mov    0x8(%ebp),%eax
    5b66:	8b 10                	mov    (%eax),%edx
    5b68:	8b 40 04             	mov    0x4(%eax),%eax
    5b6b:	89 45 08             	mov    %eax,0x8(%ebp)
    5b6e:	5d                   	pop    %ebp
    5b6f:	8b 42 0c             	mov    0xc(%edx),%eax
    5b72:	ff e0                	jmp    *%eax
    5b74:	8d b6 00 00 00 00    	lea    0x0(%esi),%esi
    5b7a:	8d bf 00 00 00 00    	lea    0x0(%edi),%edi

00005b80 <font_get_box>:
    5b80:	55                   	push   %ebp
    5b81:	89 e5                	mov    %esp,%ebp
    5b83:	57                   	push   %edi
    5b84:	56                   	push   %esi
    5b85:	53                   	push   %ebx
    5b86:	83 ec 54             	sub    $0x54,%esp
    5b89:	8d 4d c8             	lea    -0x38(%ebp),%ecx
    5b8c:	8b 5d 08             	mov    0x8(%ebp),%ebx
    5b8f:	8b 03                	mov    (%ebx),%eax
    5b91:	51                   	push   %ecx
    5b92:	8b 53 04             	mov    0x4(%ebx),%edx
    5b95:	52                   	push   %edx
    5b96:	ff 10                	call   *(%eax)
    5b98:	83 c4 10             	add    $0x10,%esp
    5b9b:	89 45 ac             	mov    %eax,-0x54(%ebp)
    5b9e:	85 c0                	test   %eax,%eax
    5ba0:	0f 85 a3 00 00 00    	jne    5c49 <font_get_box+0xc9>
    5ba6:	c7 45 c0 00 00 00 00 	movl   $0x0,-0x40(%ebp)
    5bad:	c7 45 b4 00 00 00 00 	movl   $0x0,-0x4c(%ebp)
    5bb4:	8d 7d c0             	lea    -0x40(%ebp),%edi
    5bb7:	8d 75 c4             	lea    -0x3c(%ebp),%esi
    5bba:	eb 61                	jmp    5c1d <font_get_box+0x9d>
    5bbc:	8d 74 26 00          	lea    0x0(%esi,%eiz,1),%esi
    5bc0:	52                   	push   %edx
    5bc1:	8b 0b                	mov    (%ebx),%ecx
    5bc3:	56                   	push   %esi
    5bc4:	50                   	push   %eax
    5bc5:	8b 43 04             	mov    0x4(%ebx),%eax
    5bc8:	50                   	push   %eax
    5bc9:	ff 51 04             	call   *0x4(%ecx)
    5bcc:	83 c4 10             	add    $0x10,%esp
    5bcf:	85 c0                	test   %eax,%eax
    5bd1:	74 1a                	je     5bed <font_get_box+0x6d>
    5bd3:	89 45 b0             	mov    %eax,-0x50(%ebp)
    5bd6:	50                   	push   %eax
    5bd7:	8b 03                	mov    (%ebx),%eax
    5bd9:	56                   	push   %esi
    5bda:	8b 53 04             	mov    0x4(%ebx),%edx
    5bdd:	6a 3f                	push   $0x3f
    5bdf:	52                   	push   %edx
    5be0:	ff 50 04             	call   *0x4(%eax)
    5be3:	83 c4 10             	add    $0x10,%esp
    5be6:	8b 4d b0             	mov    -0x50(%ebp),%ecx
    5be9:	85 c0                	test   %eax,%eax
    5beb:	75 6b                	jne    5c58 <font_get_box+0xd8>
    5bed:	8d 55 d4             	lea    -0x2c(%ebp),%edx
    5bf0:	51                   	push   %ecx
    5bf1:	8b 03                	mov    (%ebx),%eax
    5bf3:	52                   	push   %edx
    5bf4:	8b 4b 04             	mov    0x4(%ebx),%ecx
    5bf7:	8b 55 c4             	mov    -0x3c(%ebp),%edx
    5bfa:	52                   	push   %edx
    5bfb:	51                   	push   %ecx
    5bfc:	ff 50 08             	call   *0x8(%eax)
    5bff:	83 c4 10             	add    $0x10,%esp
    5c02:	89 c1                	mov    %eax,%ecx
    5c04:	85 c0                	test   %eax,%eax
    5c06:	75 50                	jne    5c58 <font_get_box+0xd8>
    5c08:	8b 4d d4             	mov    -0x2c(%ebp),%ecx
    5c0b:	8b 45 d8             	mov    -0x28(%ebp),%eax
    5c0e:	01 c8                	add    %ecx,%eax
    5c10:	8b 55 dc             	mov    -0x24(%ebp),%edx
    5c13:	8b 4d b4             	mov    -0x4c(%ebp),%ecx
    5c16:	01 d0                	add    %edx,%eax
    5c18:	01 c1                	add    %eax,%ecx
    5c1a:	89 4d b4             	mov    %ecx,-0x4c(%ebp)
    5c1d:	50                   	push   %eax
    5c1e:	8b 45 0c             	mov    0xc(%ebp),%eax
    5c21:	6a ff                	push   $0xffffffff
    5c23:	57                   	push   %edi
    5c24:	50                   	push   %eax
    5c25:	e8 76 1f 00 00       	call   7ba0 <str_decode@plt>
    5c2a:	83 c4 10             	add    $0x10,%esp
    5c2d:	85 c0                	test   %eax,%eax
    5c2f:	75 8f                	jne    5bc0 <font_get_box+0x40>
    5c31:	8b 45 10             	mov    0x10(%ebp),%eax
    5c34:	8b 7d b4             	mov    -0x4c(%ebp),%edi
    5c37:	8b 55 c8             	mov    -0x38(%ebp),%edx
    5c3a:	89 38                	mov    %edi,(%eax)
    5c3c:	8b 45 cc             	mov    -0x34(%ebp),%eax
    5c3f:	01 d0                	add    %edx,%eax
    5c41:	8b 55 14             	mov    0x14(%ebp),%edx
    5c44:	89 02                	mov    %eax,(%edx)
    5c46:	8b 45 ac             	mov    -0x54(%ebp),%eax
    5c49:	8d 65 f4             	lea    -0xc(%ebp),%esp
    5c4c:	5b                   	pop    %ebx
    5c4d:	5e                   	pop    %esi
    5c4e:	5f                   	pop    %edi
    5c4f:	5d                   	pop    %ebp
    5c50:	c3                   	ret    
    5c51:	8d b4 26 00 00 00 00 	lea    0x0(%esi,%eiz,1),%esi
    5c58:	89 4d ac             	mov    %ecx,-0x54(%ebp)
    5c5b:	8d 65 f4             	lea    -0xc(%ebp),%esp
    5c5e:	89 c8                	mov    %ecx,%eax
    5c60:	5b                   	pop    %ebx
    5c61:	5e                   	pop    %esi
    5c62:	5f                   	pop    %edi
    5c63:	5d                   	pop    %ebp
    5c64:	c3                   	ret    
    5c65:	8d 74 26 00          	lea    0x0(%esi,%eiz,1),%esi
    5c69:	8d bc 27 00 00 00 00 	lea    0x0(%edi,%eiz,1),%edi

00005c70 <font_draw_text>:
    5c70:	55                   	push   %ebp
    5c71:	89 e5                	mov    %esp,%ebp
    5c73:	57                   	push   %edi
    5c74:	56                   	push   %esi
    5c75:	53                   	push   %ebx
    5c76:	83 ec 58             	sub    $0x58,%esp
    5c79:	8b 4d 0c             	mov    0xc(%ebp),%ecx
    5c7c:	8b 7d 08             	mov    0x8(%ebp),%edi
    5c7f:	51                   	push   %ecx
    5c80:	e8 0b fa ff ff       	call   5690 <drawctx_save>
    5c85:	8b 45 0c             	mov    0xc(%ebp),%eax
    5c88:	5b                   	pop    %ebx
    5c89:	5e                   	pop    %esi
    5c8a:	68 b0 64 00 00       	push   $0x64b0
    5c8f:	50                   	push   %eax
    5c90:	e8 db fa ff ff       	call   5770 <drawctx_set_compose>
    5c95:	8d 4d c8             	lea    -0x38(%ebp),%ecx
    5c98:	58                   	pop    %eax
    5c99:	8b 07                	mov    (%edi),%eax
    5c9b:	5a                   	pop    %edx
    5c9c:	51                   	push   %ecx
    5c9d:	8b 4f 04             	mov    0x4(%edi),%ecx
    5ca0:	51                   	push   %ecx
    5ca1:	ff 10                	call   *(%eax)
    5ca3:	83 c4 10             	add    $0x10,%esp
    5ca6:	89 45 ac             	mov    %eax,-0x54(%ebp)
    5ca9:	85 c0                	test   %eax,%eax
    5cab:	0f 85 d8 00 00 00    	jne    5d89 <font_draw_text+0x119>
    5cb1:	8b 45 1c             	mov    0x1c(%ebp),%eax
    5cb4:	8b 55 c8             	mov    -0x38(%ebp),%edx
    5cb7:	01 d0                	add    %edx,%eax
    5cb9:	8b 5d 18             	mov    0x18(%ebp),%ebx
    5cbc:	89 45 b4             	mov    %eax,-0x4c(%ebp)
    5cbf:	c7 45 c0 00 00 00 00 	movl   $0x0,-0x40(%ebp)
    5cc6:	8d 75 c4             	lea    -0x3c(%ebp),%esi
    5cc9:	e9 7e 00 00 00       	jmp    5d4c <font_draw_text+0xdc>
    5cce:	66 90                	xchg   %ax,%ax
    5cd0:	52                   	push   %edx
    5cd1:	8b 0f                	mov    (%edi),%ecx
    5cd3:	56                   	push   %esi
    5cd4:	50                   	push   %eax
    5cd5:	8b 47 04             	mov    0x4(%edi),%eax
    5cd8:	50                   	push   %eax
    5cd9:	ff 51 04             	call   *0x4(%ecx)
    5cdc:	83 c4 10             	add    $0x10,%esp
    5cdf:	85 c0                	test   %eax,%eax
    5ce1:	74 1e                	je     5d01 <font_draw_text+0x91>
    5ce3:	51                   	push   %ecx
    5ce4:	89 45 b0             	mov    %eax,-0x50(%ebp)
    5ce7:	8b 07                	mov    (%edi),%eax
    5ce9:	56                   	push   %esi
    5cea:	8b 57 04             	mov    0x4(%edi),%edx
    5ced:	6a 3f                	push   $0x3f
    5cef:	52                   	push   %edx
    5cf0:	ff 50 04             	call   *0x4(%eax)
    5cf3:	83 c4 10             	add    $0x10,%esp
    5cf6:	8b 4d b0             	mov    -0x50(%ebp),%ecx
    5cf9:	85 c0                	test   %eax,%eax
    5cfb:	0f 85 a7 00 00 00    	jne    5da8 <font_draw_text+0x138>
    5d01:	8d 55 d4             	lea    -0x2c(%ebp),%edx
    5d04:	51                   	push   %ecx
    5d05:	8b 07                	mov    (%edi),%eax
    5d07:	52                   	push   %edx
    5d08:	8b 4f 04             	mov    0x4(%edi),%ecx
    5d0b:	8b 55 c4             	mov    -0x3c(%ebp),%edx
    5d0e:	52                   	push   %edx
    5d0f:	51                   	push   %ecx
    5d10:	ff 50 08             	call   *0x8(%eax)
    5d13:	83 c4 10             	add    $0x10,%esp
    5d16:	85 c0                	test   %eax,%eax
    5d18:	75 7e                	jne    5d98 <font_draw_text+0x128>
    5d1a:	8b 55 c4             	mov    -0x3c(%ebp),%edx
    5d1d:	51                   	push   %ecx
    5d1e:	51                   	push   %ecx
    5d1f:	8b 4d b4             	mov    -0x4c(%ebp),%ecx
    5d22:	8b 07                	mov    (%edi),%eax
    5d24:	52                   	push   %edx
    5d25:	8b 55 10             	mov    0x10(%ebp),%edx
    5d28:	51                   	push   %ecx
    5d29:	8b 4d 0c             	mov    0xc(%ebp),%ecx
    5d2c:	53                   	push   %ebx
    5d2d:	52                   	push   %edx
    5d2e:	51                   	push   %ecx
    5d2f:	8b 57 04             	mov    0x4(%edi),%edx
    5d32:	52                   	push   %edx
    5d33:	ff 50 0c             	call   *0xc(%eax)
    5d36:	83 c4 20             	add    $0x20,%esp
    5d39:	85 c0                	test   %eax,%eax
    5d3b:	75 5b                	jne    5d98 <font_draw_text+0x128>
    5d3d:	8b 45 d8             	mov    -0x28(%ebp),%eax
    5d40:	8b 4d d4             	mov    -0x2c(%ebp),%ecx
    5d43:	01 c8                	add    %ecx,%eax
    5d45:	8b 55 dc             	mov    -0x24(%ebp),%edx
    5d48:	01 d0                	add    %edx,%eax
    5d4a:	01 c3                	add    %eax,%ebx
    5d4c:	50                   	push   %eax
    5d4d:	8d 45 c0             	lea    -0x40(%ebp),%eax
    5d50:	6a ff                	push   $0xffffffff
    5d52:	50                   	push   %eax
    5d53:	8b 45 14             	mov    0x14(%ebp),%eax
    5d56:	50                   	push   %eax
    5d57:	e8 44 1e 00 00       	call   7ba0 <str_decode@plt>
    5d5c:	83 c4 10             	add    $0x10,%esp
    5d5f:	85 c0                	test   %eax,%eax
    5d61:	0f 85 69 ff ff ff    	jne    5cd0 <font_draw_text+0x60>
    5d67:	83 ec 0c             	sub    $0xc,%esp
    5d6a:	8b 45 0c             	mov    0xc(%ebp),%eax
    5d6d:	50                   	push   %eax
    5d6e:	e8 7d f9 ff ff       	call   56f0 <drawctx_restore>
    5d73:	83 c4 0c             	add    $0xc,%esp
    5d76:	8b 55 10             	mov    0x10(%ebp),%edx
    5d79:	6a 00                	push   $0x0
    5d7b:	6a 00                	push   $0x0
    5d7d:	52                   	push   %edx
    5d7e:	e8 fd 00 00 00       	call   5e80 <source_set_mask>
    5d83:	83 c4 10             	add    $0x10,%esp
    5d86:	8b 45 ac             	mov    -0x54(%ebp),%eax
    5d89:	8d 65 f4             	lea    -0xc(%ebp),%esp
    5d8c:	5b                   	pop    %ebx
    5d8d:	5e                   	pop    %esi
    5d8e:	5f                   	pop    %edi
    5d8f:	5d                   	pop    %ebp
    5d90:	c3                   	ret    
    5d91:	8d b4 26 00 00 00 00 	lea    0x0(%esi,%eiz,1),%esi
    5d98:	89 45 ac             	mov    %eax,-0x54(%ebp)
    5d9b:	8d 65 f4             	lea    -0xc(%ebp),%esp
    5d9e:	5b                   	pop    %ebx
    5d9f:	5e                   	pop    %esi
    5da0:	5f                   	pop    %edi
    5da1:	5d                   	pop    %ebp
    5da2:	c3                   	ret    
    5da3:	90                   	nop
    5da4:	8d 74 26 00          	lea    0x0(%esi,%eiz,1),%esi
    5da8:	89 4d ac             	mov    %ecx,-0x54(%ebp)
    5dab:	89 c8                	mov    %ecx,%eax
    5dad:	eb da                	jmp    5d89 <font_draw_text+0x119>
    5daf:	90                   	nop

00005db0 <source_init>:
    5db0:	55                   	push   %ebp
    5db1:	89 e5                	mov    %esp,%ebp
    5db3:	53                   	push   %ebx
    5db4:	83 ec 10             	sub    $0x10,%esp
    5db7:	8b 5d 08             	mov    0x8(%ebp),%ebx
    5dba:	53                   	push   %ebx
    5dbb:	e8 20 15 00 00       	call   72e0 <transform_identity>
    5dc0:	c7 43 48 d0 65 00 00 	movl   $0x65d0,0x48(%ebx)
    5dc7:	c7 43 4c 00 00 00 00 	movl   $0x0,0x4c(%ebx)
    5dce:	c7 43 50 00 00 00 00 	movl   $0x0,0x50(%ebx)
    5dd5:	c7 43 54 00 00 00 00 	movl   $0x0,0x54(%ebx)
    5ddc:	c7 43 58 00 00 00 ff 	movl   $0xff000000,0x58(%ebx)
    5de3:	c7 43 5c 00 00 00 00 	movl   $0x0,0x5c(%ebx)
    5dea:	c7 43 60 00 00 00 00 	movl   $0x0,0x60(%ebx)
    5df1:	83 c4 10             	add    $0x10,%esp
    5df4:	8b 5d fc             	mov    -0x4(%ebp),%ebx
    5df7:	c9                   	leave  
    5df8:	c3                   	ret    
    5df9:	8d b4 26 00 00 00 00 	lea    0x0(%esi,%eiz,1),%esi

00005e00 <source_set_transform>:
    5e00:	55                   	push   %ebp
    5e01:	b9 12 00 00 00       	mov    $0x12,%ecx
    5e06:	89 e5                	mov    %esp,%ebp
    5e08:	57                   	push   %edi
    5e09:	56                   	push   %esi
    5e0a:	8b 45 08             	mov    0x8(%ebp),%eax
    5e0d:	8d 75 0c             	lea    0xc(%ebp),%esi
    5e10:	89 c7                	mov    %eax,%edi
    5e12:	f3 a5                	rep movsl %ds:(%esi),%es:(%edi)
    5e14:	5e                   	pop    %esi
    5e15:	5f                   	pop    %edi
    5e16:	5d                   	pop    %ebp
    5e17:	e9 e4 13 00 00       	jmp    7200 <transform_invert>
    5e1c:	8d 74 26 00          	lea    0x0(%esi,%eiz,1),%esi

00005e20 <source_reset_transform>:
    5e20:	55                   	push   %ebp
    5e21:	89 e5                	mov    %esp,%ebp
    5e23:	5d                   	pop    %ebp
    5e24:	e9 b7 14 00 00       	jmp    72e0 <transform_identity>
    5e29:	8d b4 26 00 00 00 00 	lea    0x0(%esi,%eiz,1),%esi

00005e30 <source_set_filter>:
    5e30:	55                   	push   %ebp
    5e31:	89 e5                	mov    %esp,%ebp
    5e33:	8b 45 08             	mov    0x8(%ebp),%eax
    5e36:	8b 55 0c             	mov    0xc(%ebp),%edx
    5e39:	89 50 48             	mov    %edx,0x48(%eax)
    5e3c:	5d                   	pop    %ebp
    5e3d:	c3                   	ret    
    5e3e:	66 90                	xchg   %ax,%ax

00005e40 <source_set_color>:
    5e40:	55                   	push   %ebp
    5e41:	89 e5                	mov    %esp,%ebp
    5e43:	8b 45 08             	mov    0x8(%ebp),%eax
    5e46:	8b 55 0c             	mov    0xc(%ebp),%edx
    5e49:	89 50 4c             	mov    %edx,0x4c(%eax)
    5e4c:	5d                   	pop    %ebp
    5e4d:	c3                   	ret    
    5e4e:	66 90                	xchg   %ax,%ax

00005e50 <source_set_texture>:
    5e50:	55                   	push   %ebp
    5e51:	89 e5                	mov    %esp,%ebp
    5e53:	8b 45 08             	mov    0x8(%ebp),%eax
    5e56:	8b 55 0c             	mov    0xc(%ebp),%edx
    5e59:	89 50 50             	mov    %edx,0x50(%eax)
    5e5c:	8b 55 10             	mov    0x10(%ebp),%edx
    5e5f:	89 50 54             	mov    %edx,0x54(%eax)
    5e62:	5d                   	pop    %ebp
    5e63:	c3                   	ret    
    5e64:	8d b6 00 00 00 00    	lea    0x0(%esi),%esi
    5e6a:	8d bf 00 00 00 00    	lea    0x0(%edi),%edi

00005e70 <source_set_alpha>:
    5e70:	55                   	push   %ebp
    5e71:	89 e5                	mov    %esp,%ebp
    5e73:	8b 45 08             	mov    0x8(%ebp),%eax
    5e76:	8b 55 0c             	mov    0xc(%ebp),%edx
    5e79:	89 50 58             	mov    %edx,0x58(%eax)
    5e7c:	5d                   	pop    %ebp
    5e7d:	c3                   	ret    
    5e7e:	66 90                	xchg   %ax,%ax

00005e80 <source_set_mask>:
    5e80:	55                   	push   %ebp
    5e81:	89 e5                	mov    %esp,%ebp
    5e83:	8b 45 08             	mov    0x8(%ebp),%eax
    5e86:	8b 55 0c             	mov    0xc(%ebp),%edx
    5e89:	89 50 5c             	mov    %edx,0x5c(%eax)
    5e8c:	8b 55 10             	mov    0x10(%ebp),%edx
    5e8f:	89 50 60             	mov    %edx,0x60(%eax)
    5e92:	5d                   	pop    %ebp
    5e93:	c3                   	ret    
    5e94:	8d b6 00 00 00 00    	lea    0x0(%esi),%esi
    5e9a:	8d bf 00 00 00 00    	lea    0x0(%edi),%edi

00005ea0 <source_is_fast>:
    5ea0:	55                   	push   %ebp
    5ea1:	31 c0                	xor    %eax,%eax
    5ea3:	89 e5                	mov    %esp,%ebp
    5ea5:	83 ec 08             	sub    $0x8,%esp
    5ea8:	8b 55 08             	mov    0x8(%ebp),%edx
    5eab:	8b 4a 5c             	mov    0x5c(%edx),%ecx
    5eae:	85 c9                	test   %ecx,%ecx
    5eb0:	74 06                	je     5eb8 <source_is_fast+0x18>
    5eb2:	c9                   	leave  
    5eb3:	c3                   	ret    
    5eb4:	8d 74 26 00          	lea    0x0(%esi,%eiz,1),%esi
    5eb8:	81 7a 58 00 00 00 ff 	cmpl   $0xff000000,0x58(%edx)
    5ebf:	75 f1                	jne    5eb2 <source_is_fast+0x12>
    5ec1:	8b 4a 50             	mov    0x50(%edx),%ecx
    5ec4:	85 c9                	test   %ecx,%ecx
    5ec6:	74 ea                	je     5eb2 <source_is_fast+0x12>
    5ec8:	83 ec 0c             	sub    $0xc,%esp
    5ecb:	52                   	push   %edx
    5ecc:	e8 0f 17 00 00       	call   75e0 <transform_is_fast>
    5ed1:	83 c4 10             	add    $0x10,%esp
    5ed4:	c9                   	leave  
    5ed5:	c3                   	ret    
    5ed6:	8d 76 00             	lea    0x0(%esi),%esi
    5ed9:	8d bc 27 00 00 00 00 	lea    0x0(%edi,%eiz,1),%edi

00005ee0 <source_direct_access>:
    5ee0:	55                   	push   %ebp
    5ee1:	89 e5                	mov    %esp,%ebp
    5ee3:	57                   	push   %edi
    5ee4:	56                   	push   %esi
    5ee5:	53                   	push   %ebx
    5ee6:	83 ec 2c             	sub    $0x2c,%esp
    5ee9:	8b 7d 08             	mov    0x8(%ebp),%edi
    5eec:	dd 45 0c             	fldl   0xc(%ebp)
    5eef:	8b 5f 5c             	mov    0x5c(%edi),%ebx
    5ef2:	dd 45 14             	fldl   0x14(%ebp)
    5ef5:	85 db                	test   %ebx,%ebx
    5ef7:	74 2f                	je     5f28 <source_direct_access+0x48>
    5ef9:	dd d8                	fstp   %st(0)
    5efb:	dd d8                	fstp   %st(0)
    5efd:	eb 11                	jmp    5f10 <source_direct_access+0x30>
    5eff:	90                   	nop
    5f00:	dd d8                	fstp   %st(0)
    5f02:	dd d8                	fstp   %st(0)
    5f04:	eb 0a                	jmp    5f10 <source_direct_access+0x30>
    5f06:	66 90                	xchg   %ax,%ax
    5f08:	dd d8                	fstp   %st(0)
    5f0a:	dd d8                	fstp   %st(0)
    5f0c:	8d 74 26 00          	lea    0x0(%esi,%eiz,1),%esi
    5f10:	52                   	push   %edx
    5f11:	6a 68                	push   $0x68
    5f13:	68 72 78 00 00       	push   $0x7872
    5f18:	68 7b 78 00 00       	push   $0x787b
    5f1d:	e8 fe 1c 00 00       	call   7c20 <assert_abort@plt>
    5f22:	8d b6 00 00 00 00    	lea    0x0(%esi),%esi
    5f28:	81 7f 58 00 00 00 ff 	cmpl   $0xff000000,0x58(%edi)
    5f2f:	75 cf                	jne    5f00 <source_direct_access+0x20>
    5f31:	dd 5d d0             	fstpl  -0x30(%ebp)
    5f34:	8b 4f 50             	mov    0x50(%edi),%ecx
    5f37:	dd 5d d8             	fstpl  -0x28(%ebp)
    5f3a:	85 c9                	test   %ecx,%ecx
    5f3c:	74 d2                	je     5f10 <source_direct_access+0x30>
    5f3e:	83 ec 0c             	sub    $0xc,%esp
    5f41:	57                   	push   %edi
    5f42:	e8 99 16 00 00       	call   75e0 <transform_is_fast>
    5f47:	dd 45 d8             	fldl   -0x28(%ebp)
    5f4a:	83 c4 10             	add    $0x10,%esp
    5f4d:	84 c0                	test   %al,%al
    5f4f:	dd 45 d0             	fldl   -0x30(%ebp)
    5f52:	74 b4                	je     5f08 <source_direct_access+0x28>
    5f54:	dc 47 28             	faddl  0x28(%edi)
    5f57:	d9 7d e6             	fnstcw -0x1a(%ebp)
    5f5a:	66 8b 45 e6          	mov    -0x1a(%ebp),%ax
    5f5e:	83 ec 0c             	sub    $0xc,%esp
    5f61:	b4 0c                	mov    $0xc,%ah
    5f63:	66 89 45 e4          	mov    %ax,-0x1c(%ebp)
    5f67:	d9 6d e4             	fldcw  -0x1c(%ebp)
    5f6a:	db 5d e0             	fistpl -0x20(%ebp)
    5f6d:	d9 6d e6             	fldcw  -0x1a(%ebp)
    5f70:	dc 47 10             	faddl  0x10(%edi)
    5f73:	8b 75 e0             	mov    -0x20(%ebp),%esi
    5f76:	d9 6d e4             	fldcw  -0x1c(%ebp)
    5f79:	db 5d e0             	fistpl -0x20(%ebp)
    5f7c:	d9 6d e6             	fldcw  -0x1a(%ebp)
    5f7f:	8b 47 50             	mov    0x50(%edi),%eax
    5f82:	8b 5d e0             	mov    -0x20(%ebp),%ebx
    5f85:	50                   	push   %eax
    5f86:	e8 b5 02 00 00       	call   6240 <surface_pixmap_access>
    5f8b:	83 c4 10             	add    $0x10,%esp
    5f8e:	8b 10                	mov    (%eax),%edx
    5f90:	39 d3                	cmp    %edx,%ebx
    5f92:	73 1c                	jae    5fb0 <source_direct_access+0xd0>
    5f94:	3b 70 04             	cmp    0x4(%eax),%esi
    5f97:	73 17                	jae    5fb0 <source_direct_access+0xd0>
    5f99:	0f af f2             	imul   %edx,%esi
    5f9c:	8b 40 08             	mov    0x8(%eax),%eax
    5f9f:	01 f3                	add    %esi,%ebx
    5fa1:	8d 65 f4             	lea    -0xc(%ebp),%esp
    5fa4:	8d 04 98             	lea    (%eax,%ebx,4),%eax
    5fa7:	5b                   	pop    %ebx
    5fa8:	5e                   	pop    %esi
    5fa9:	5f                   	pop    %edi
    5faa:	5d                   	pop    %ebp
    5fab:	c3                   	ret    
    5fac:	8d 74 26 00          	lea    0x0(%esi,%eiz,1),%esi
    5fb0:	8d 65 f4             	lea    -0xc(%ebp),%esp
    5fb3:	31 c0                	xor    %eax,%eax
    5fb5:	5b                   	pop    %ebx
    5fb6:	5e                   	pop    %esi
    5fb7:	5f                   	pop    %edi
    5fb8:	5d                   	pop    %ebp
    5fb9:	c3                   	ret    
    5fba:	8d b6 00 00 00 00    	lea    0x0(%esi),%esi

00005fc0 <source_determine_pixel>:
    5fc0:	55                   	push   %ebp
    5fc1:	89 e5                	mov    %esp,%ebp
    5fc3:	57                   	push   %edi
    5fc4:	56                   	push   %esi
    5fc5:	53                   	push   %ebx
    5fc6:	83 ec 3c             	sub    $0x3c,%esp
    5fc9:	8b 45 0c             	mov    0xc(%ebp),%eax
    5fcc:	8b 5d 08             	mov    0x8(%ebp),%ebx
    5fcf:	89 45 e0             	mov    %eax,-0x20(%ebp)
    5fd2:	8b 45 10             	mov    0x10(%ebp),%eax
    5fd5:	89 45 e4             	mov    %eax,-0x1c(%ebp)
    5fd8:	8b 45 14             	mov    0x14(%ebp),%eax
    5fdb:	89 45 d8             	mov    %eax,-0x28(%ebp)
    5fde:	8b 45 18             	mov    0x18(%ebp),%eax
    5fe1:	89 45 dc             	mov    %eax,-0x24(%ebp)
    5fe4:	8b 43 5c             	mov    0x5c(%ebx),%eax
    5fe7:	85 c0                	test   %eax,%eax
    5fe9:	0f 84 f1 00 00 00    	je     60e0 <source_determine_pixel+0x120>
    5fef:	8d 45 d8             	lea    -0x28(%ebp),%eax
    5ff2:	56                   	push   %esi
    5ff3:	50                   	push   %eax
    5ff4:	8d 45 e0             	lea    -0x20(%ebp),%eax
    5ff7:	50                   	push   %eax
    5ff8:	53                   	push   %ebx
    5ff9:	e8 e2 16 00 00       	call   76e0 <transform_apply_affine>
    5ffe:	8b 43 5c             	mov    0x5c(%ebx),%eax
    6001:	83 c4 10             	add    $0x10,%esp
    6004:	85 c0                	test   %eax,%eax
    6006:	0f 84 e4 00 00 00    	je     60f0 <source_determine_pixel+0x130>
    600c:	dd 45 d8             	fldl   -0x28(%ebp)
    600f:	83 ec 0c             	sub    $0xc,%esp
    6012:	8b 73 48             	mov    0x48(%ebx),%esi
    6015:	dd 5d b8             	fstpl  -0x48(%ebp)
    6018:	dd 45 e0             	fldl   -0x20(%ebp)
    601b:	8b 7b 60             	mov    0x60(%ebx),%edi
    601e:	50                   	push   %eax
    601f:	dd 5d c0             	fstpl  -0x40(%ebp)
    6022:	e8 19 02 00 00       	call   6240 <surface_pixmap_access>
    6027:	5a                   	pop    %edx
    6028:	59                   	pop    %ecx
    6029:	57                   	push   %edi
    602a:	83 ec 10             	sub    $0x10,%esp
    602d:	dd 45 b8             	fldl   -0x48(%ebp)
    6030:	dd 5c 24 08          	fstpl  0x8(%esp)
    6034:	dd 45 c0             	fldl   -0x40(%ebp)
    6037:	dd 1c 24             	fstpl  (%esp)
    603a:	50                   	push   %eax
    603b:	ff d6                	call   *%esi
    603d:	83 c4 20             	add    $0x20,%esp
    6040:	c1 e8 18             	shr    $0x18,%eax
    6043:	89 c7                	mov    %eax,%edi
    6045:	0f 84 85 00 00 00    	je     60d0 <source_determine_pixel+0x110>
    604b:	8b 43 50             	mov    0x50(%ebx),%eax
    604e:	85 c0                	test   %eax,%eax
    6050:	0f 84 b2 00 00 00    	je     6108 <source_determine_pixel+0x148>
    6056:	dd 45 d8             	fldl   -0x28(%ebp)
    6059:	83 ec 0c             	sub    $0xc,%esp
    605c:	8b 73 48             	mov    0x48(%ebx),%esi
    605f:	dd 5d b8             	fstpl  -0x48(%ebp)
    6062:	dd 45 e0             	fldl   -0x20(%ebp)
    6065:	8b 5b 54             	mov    0x54(%ebx),%ebx
    6068:	50                   	push   %eax
    6069:	dd 5d c0             	fstpl  -0x40(%ebp)
    606c:	e8 cf 01 00 00       	call   6240 <surface_pixmap_access>
    6071:	5a                   	pop    %edx
    6072:	59                   	pop    %ecx
    6073:	53                   	push   %ebx
    6074:	83 ec 10             	sub    $0x10,%esp
    6077:	dd 45 b8             	fldl   -0x48(%ebp)
    607a:	dd 5c 24 08          	fstpl  0x8(%esp)
    607e:	dd 45 c0             	fldl   -0x40(%ebp)
    6081:	dd 1c 24             	fstpl  (%esp)
    6084:	50                   	push   %eax
    6085:	ff d6                	call   *%esi
    6087:	83 c4 20             	add    $0x20,%esp
    608a:	81 ff ff 00 00 00    	cmp    $0xff,%edi
    6090:	74 66                	je     60f8 <source_determine_pixel+0x138>
    6092:	89 7d c0             	mov    %edi,-0x40(%ebp)
    6095:	89 c2                	mov    %eax,%edx
    6097:	db 45 c0             	fildl  -0x40(%ebp)
    609a:	d9 7d d6             	fnstcw -0x2a(%ebp)
    609d:	d8 35 94 78 00 00    	fdivs  0x7894
    60a3:	c1 ea 18             	shr    $0x18,%edx
    60a6:	25 ff ff ff 00       	and    $0xffffff,%eax
    60ab:	89 55 c0             	mov    %edx,-0x40(%ebp)
    60ae:	66 8b 55 d6          	mov    -0x2a(%ebp),%dx
    60b2:	b6 0c                	mov    $0xc,%dh
    60b4:	66 89 55 d4          	mov    %dx,-0x2c(%ebp)
    60b8:	db 45 c0             	fildl  -0x40(%ebp)
    60bb:	de c9                	fmulp  %st,%st(1)
    60bd:	d9 6d d4             	fldcw  -0x2c(%ebp)
    60c0:	df 7d c8             	fistpll -0x38(%ebp)
    60c3:	d9 6d d6             	fldcw  -0x2a(%ebp)
    60c6:	8b 4d c8             	mov    -0x38(%ebp),%ecx
    60c9:	c1 e1 18             	shl    $0x18,%ecx
    60cc:	09 c1                	or     %eax,%ecx
    60ce:	89 cf                	mov    %ecx,%edi
    60d0:	8d 65 f4             	lea    -0xc(%ebp),%esp
    60d3:	89 f8                	mov    %edi,%eax
    60d5:	5b                   	pop    %ebx
    60d6:	5e                   	pop    %esi
    60d7:	5f                   	pop    %edi
    60d8:	5d                   	pop    %ebp
    60d9:	c3                   	ret    
    60da:	8d b6 00 00 00 00    	lea    0x0(%esi),%esi
    60e0:	8b 7b 50             	mov    0x50(%ebx),%edi
    60e3:	85 ff                	test   %edi,%edi
    60e5:	0f 85 04 ff ff ff    	jne    5fef <source_determine_pixel+0x2f>
    60eb:	90                   	nop
    60ec:	8d 74 26 00          	lea    0x0(%esi,%eiz,1),%esi
    60f0:	8b 43 58             	mov    0x58(%ebx),%eax
    60f3:	e9 48 ff ff ff       	jmp    6040 <source_determine_pixel+0x80>
    60f8:	8d 65 f4             	lea    -0xc(%ebp),%esp
    60fb:	89 c7                	mov    %eax,%edi
    60fd:	89 f8                	mov    %edi,%eax
    60ff:	5b                   	pop    %ebx
    6100:	5e                   	pop    %esi
    6101:	5f                   	pop    %edi
    6102:	5d                   	pop    %ebp
    6103:	c3                   	ret    
    6104:	8d 74 26 00          	lea    0x0(%esi,%eiz,1),%esi
    6108:	8b 43 4c             	mov    0x4c(%ebx),%eax
    610b:	e9 7a ff ff ff       	jmp    608a <source_determine_pixel+0xca>

00006110 <surface_create>:
    6110:	55                   	push   %ebp
    6111:	89 e5                	mov    %esp,%ebp
    6113:	57                   	push   %edi
    6114:	56                   	push   %esi
    6115:	53                   	push   %ebx
    6116:	83 ec 28             	sub    $0x28,%esp
    6119:	8b 75 08             	mov    0x8(%ebp),%esi
    611c:	8b 5d 0c             	mov    0xc(%ebp),%ebx
    611f:	6a 20                	push   $0x20
    6121:	8b 7d 10             	mov    0x10(%ebp),%edi
    6124:	e8 87 1a 00 00       	call   7bb0 <malloc@plt>
    6129:	83 c4 10             	add    $0x10,%esp
    612c:	89 c2                	mov    %eax,%edx
    612e:	85 c0                	test   %eax,%eax
    6130:	74 28                	je     615a <surface_create+0x4a>
    6132:	85 ff                	test   %edi,%edi
    6134:	74 32                	je     6168 <surface_create+0x58>
    6136:	8b 45 14             	mov    0x14(%ebp),%eax
    6139:	89 72 14             	mov    %esi,0x14(%edx)
    613c:	89 5a 18             	mov    %ebx,0x18(%edx)
    613f:	4e                   	dec    %esi
    6140:	4b                   	dec    %ebx
    6141:	89 02                	mov    %eax,(%edx)
    6143:	89 7a 1c             	mov    %edi,0x1c(%edx)
    6146:	89 72 04             	mov    %esi,0x4(%edx)
    6149:	c7 42 08 00 00 00 00 	movl   $0x0,0x8(%edx)
    6150:	89 5a 0c             	mov    %ebx,0xc(%edx)
    6153:	c7 42 10 00 00 00 00 	movl   $0x0,0x10(%edx)
    615a:	8d 65 f4             	lea    -0xc(%ebp),%esp
    615d:	89 d0                	mov    %edx,%eax
    615f:	5b                   	pop    %ebx
    6160:	5e                   	pop    %esi
    6161:	5f                   	pop    %edi
    6162:	5d                   	pop    %ebp
    6163:	c3                   	ret    
    6164:	8d 74 26 00          	lea    0x0(%esi,%eiz,1),%esi
    6168:	8d 0c 9d 00 00 00 00 	lea    0x0(,%ebx,4),%ecx
    616f:	89 45 e0             	mov    %eax,-0x20(%ebp)
    6172:	0f af ce             	imul   %esi,%ecx
    6175:	f6 45 14 01          	testb  $0x1,0x14(%ebp)
    6179:	74 35                	je     61b0 <surface_create+0xa0>
    617b:	6a 00                	push   $0x0
    617d:	89 4d e4             	mov    %ecx,-0x1c(%ebp)
    6180:	6a 0b                	push   $0xb
    6182:	51                   	push   %ecx
    6183:	6a ff                	push   $0xffffffff
    6185:	e8 a6 1c 00 00       	call   7e30 <as_area_create@plt>
    618a:	83 c4 10             	add    $0x10,%esp
    618d:	89 c7                	mov    %eax,%edi
    618f:	83 f8 ff             	cmp    $0xffffffff,%eax
    6192:	8b 4d e4             	mov    -0x1c(%ebp),%ecx
    6195:	8b 55 e0             	mov    -0x20(%ebp),%edx
    6198:	74 31                	je     61cb <surface_create+0xbb>
    619a:	50                   	push   %eax
    619b:	51                   	push   %ecx
    619c:	6a 00                	push   $0x0
    619e:	57                   	push   %edi
    619f:	89 55 e4             	mov    %edx,-0x1c(%ebp)
    61a2:	e8 89 1b 00 00       	call   7d30 <memset@plt>
    61a7:	83 c4 10             	add    $0x10,%esp
    61aa:	8b 55 e4             	mov    -0x1c(%ebp),%edx
    61ad:	eb 87                	jmp    6136 <surface_create+0x26>
    61af:	90                   	nop
    61b0:	83 ec 0c             	sub    $0xc,%esp
    61b3:	89 4d e4             	mov    %ecx,-0x1c(%ebp)
    61b6:	51                   	push   %ecx
    61b7:	e8 f4 19 00 00       	call   7bb0 <malloc@plt>
    61bc:	83 c4 10             	add    $0x10,%esp
    61bf:	89 c7                	mov    %eax,%edi
    61c1:	85 c0                	test   %eax,%eax
    61c3:	8b 4d e4             	mov    -0x1c(%ebp),%ecx
    61c6:	8b 55 e0             	mov    -0x20(%ebp),%edx
    61c9:	75 cf                	jne    619a <surface_create+0x8a>
    61cb:	83 ec 0c             	sub    $0xc,%esp
    61ce:	52                   	push   %edx
    61cf:	e8 cc 1c 00 00       	call   7ea0 <free@plt>
    61d4:	83 c4 10             	add    $0x10,%esp
    61d7:	31 d2                	xor    %edx,%edx
    61d9:	e9 7c ff ff ff       	jmp    615a <surface_create+0x4a>
    61de:	66 90                	xchg   %ax,%ax

000061e0 <surface_destroy>:
    61e0:	55                   	push   %ebp
    61e1:	89 e5                	mov    %esp,%ebp
    61e3:	53                   	push   %ebx
    61e4:	50                   	push   %eax
    61e5:	8b 5d 08             	mov    0x8(%ebp),%ebx
    61e8:	8b 43 1c             	mov    0x1c(%ebx),%eax
    61eb:	f6 03 01             	testb  $0x1,(%ebx)
    61ee:	75 18                	jne    6208 <surface_destroy+0x28>
    61f0:	83 ec 0c             	sub    $0xc,%esp
    61f3:	50                   	push   %eax
    61f4:	e8 a7 1c 00 00       	call   7ea0 <free@plt>
    61f9:	89 5d 08             	mov    %ebx,0x8(%ebp)
    61fc:	83 c4 10             	add    $0x10,%esp
    61ff:	8b 5d fc             	mov    -0x4(%ebp),%ebx
    6202:	c9                   	leave  
    6203:	e9 98 1c 00 00       	jmp    7ea0 <free@plt>
    6208:	83 ec 0c             	sub    $0xc,%esp
    620b:	50                   	push   %eax
    620c:	e8 df 19 00 00       	call   7bf0 <as_area_destroy@plt>
    6211:	89 5d 08             	mov    %ebx,0x8(%ebp)
    6214:	83 c4 10             	add    $0x10,%esp
    6217:	8b 5d fc             	mov    -0x4(%ebp),%ebx
    621a:	c9                   	leave  
    621b:	e9 80 1c 00 00       	jmp    7ea0 <free@plt>

00006220 <surface_is_shared>:
    6220:	55                   	push   %ebp
    6221:	89 e5                	mov    %esp,%ebp
    6223:	8b 45 08             	mov    0x8(%ebp),%eax
    6226:	5d                   	pop    %ebp
    6227:	8b 00                	mov    (%eax),%eax
    6229:	83 e0 01             	and    $0x1,%eax
    622c:	c3                   	ret    
    622d:	8d 76 00             	lea    0x0(%esi),%esi

00006230 <surface_direct_access>:
    6230:	55                   	push   %ebp
    6231:	89 e5                	mov    %esp,%ebp
    6233:	8b 45 08             	mov    0x8(%ebp),%eax
    6236:	5d                   	pop    %ebp
    6237:	8b 40 1c             	mov    0x1c(%eax),%eax
    623a:	c3                   	ret    
    623b:	90                   	nop
    623c:	8d 74 26 00          	lea    0x0(%esi,%eiz,1),%esi

00006240 <surface_pixmap_access>:
    6240:	55                   	push   %ebp
    6241:	89 e5                	mov    %esp,%ebp
    6243:	8b 45 08             	mov    0x8(%ebp),%eax
    6246:	5d                   	pop    %ebp
    6247:	83 c0 14             	add    $0x14,%eax
    624a:	c3                   	ret    
    624b:	90                   	nop
    624c:	8d 74 26 00          	lea    0x0(%esi,%eiz,1),%esi

00006250 <surface_get_resolution>:
    6250:	55                   	push   %ebp
    6251:	89 e5                	mov    %esp,%ebp
    6253:	53                   	push   %ebx
    6254:	51                   	push   %ecx
    6255:	8b 45 0c             	mov    0xc(%ebp),%eax
    6258:	8b 4d 08             	mov    0x8(%ebp),%ecx
    625b:	8b 55 10             	mov    0x10(%ebp),%edx
    625e:	85 c0                	test   %eax,%eax
    6260:	74 13                	je     6275 <surface_get_resolution+0x25>
    6262:	85 d2                	test   %edx,%edx
    6264:	74 21                	je     6287 <surface_get_resolution+0x37>
    6266:	8b 59 14             	mov    0x14(%ecx),%ebx
    6269:	89 18                	mov    %ebx,(%eax)
    626b:	8b 5d fc             	mov    -0x4(%ebp),%ebx
    626e:	8b 41 18             	mov    0x18(%ecx),%eax
    6271:	89 02                	mov    %eax,(%edx)
    6273:	c9                   	leave  
    6274:	c3                   	ret    
    6275:	52                   	push   %edx
    6276:	6a 7c                	push   $0x7c
    6278:	68 98 78 00 00       	push   $0x7898
    627d:	68 a2 78 00 00       	push   $0x78a2
    6282:	e8 99 19 00 00       	call   7c20 <assert_abort@plt>
    6287:	50                   	push   %eax
    6288:	6a 7d                	push   $0x7d
    628a:	68 98 78 00 00       	push   $0x7898
    628f:	68 a8 78 00 00       	push   $0x78a8
    6294:	e8 87 19 00 00       	call   7c20 <assert_abort@plt>
    6299:	8d b4 26 00 00 00 00 	lea    0x0(%esi,%eiz,1),%esi

000062a0 <surface_get_damaged_region>:
    62a0:	55                   	push   %ebp
    62a1:	89 e5                	mov    %esp,%ebp
    62a3:	57                   	push   %edi
    62a4:	56                   	push   %esi
    62a5:	53                   	push   %ebx
    62a6:	83 ec 0c             	sub    $0xc,%esp
    62a9:	8b 55 0c             	mov    0xc(%ebp),%edx
    62ac:	8b 45 08             	mov    0x8(%ebp),%eax
    62af:	8b 75 10             	mov    0x10(%ebp),%esi
    62b2:	8b 5d 14             	mov    0x14(%ebp),%ebx
    62b5:	8b 4d 18             	mov    0x18(%ebp),%ecx
    62b8:	85 d2                	test   %edx,%edx
    62ba:	0f 84 86 00 00 00    	je     6346 <surface_get_damaged_region+0xa6>
    62c0:	85 f6                	test   %esi,%esi
    62c2:	74 6d                	je     6331 <surface_get_damaged_region+0x91>
    62c4:	85 db                	test   %ebx,%ebx
    62c6:	74 54                	je     631c <surface_get_damaged_region+0x7c>
    62c8:	85 c9                	test   %ecx,%ecx
    62ca:	74 3b                	je     6307 <surface_get_damaged_region+0x67>
    62cc:	8b 78 04             	mov    0x4(%eax),%edi
    62cf:	89 3a                	mov    %edi,(%edx)
    62d1:	8b 50 0c             	mov    0xc(%eax),%edx
    62d4:	89 16                	mov    %edx,(%esi)
    62d6:	31 d2                	xor    %edx,%edx
    62d8:	8b 70 04             	mov    0x4(%eax),%esi
    62db:	8b 78 08             	mov    0x8(%eax),%edi
    62de:	39 fe                	cmp    %edi,%esi
    62e0:	76 1e                	jbe    6300 <surface_get_damaged_region+0x60>
    62e2:	89 13                	mov    %edx,(%ebx)
    62e4:	8b 50 0c             	mov    0xc(%eax),%edx
    62e7:	8b 58 10             	mov    0x10(%eax),%ebx
    62ea:	31 c0                	xor    %eax,%eax
    62ec:	39 da                	cmp    %ebx,%edx
    62ee:	77 05                	ja     62f5 <surface_get_damaged_region+0x55>
    62f0:	8d 43 01             	lea    0x1(%ebx),%eax
    62f3:	29 d0                	sub    %edx,%eax
    62f5:	89 01                	mov    %eax,(%ecx)
    62f7:	8d 65 f4             	lea    -0xc(%ebp),%esp
    62fa:	5b                   	pop    %ebx
    62fb:	5e                   	pop    %esi
    62fc:	5f                   	pop    %edi
    62fd:	5d                   	pop    %ebp
    62fe:	c3                   	ret    
    62ff:	90                   	nop
    6300:	8d 57 01             	lea    0x1(%edi),%edx
    6303:	29 f2                	sub    %esi,%edx
    6305:	eb db                	jmp    62e2 <surface_get_damaged_region+0x42>
    6307:	50                   	push   %eax
    6308:	68 89 00 00 00       	push   $0x89
    630d:	68 98 78 00 00       	push   $0x7898
    6312:	68 a8 78 00 00       	push   $0x78a8
    6317:	e8 04 19 00 00       	call   7c20 <assert_abort@plt>
    631c:	52                   	push   %edx
    631d:	68 88 00 00 00       	push   $0x88
    6322:	68 98 78 00 00       	push   $0x7898
    6327:	68 a2 78 00 00       	push   $0x78a2
    632c:	e8 ef 18 00 00       	call   7c20 <assert_abort@plt>
    6331:	51                   	push   %ecx
    6332:	68 87 00 00 00       	push   $0x87
    6337:	68 98 78 00 00       	push   $0x7898
    633c:	68 b1 78 00 00       	push   $0x78b1
    6341:	e8 da 18 00 00       	call   7c20 <assert_abort@plt>
    6346:	53                   	push   %ebx
    6347:	68 86 00 00 00       	push   $0x86
    634c:	68 98 78 00 00       	push   $0x7898
    6351:	68 af 78 00 00       	push   $0x78af
    6356:	e8 c5 18 00 00       	call   7c20 <assert_abort@plt>
    635b:	90                   	nop
    635c:	8d 74 26 00          	lea    0x0(%esi,%eiz,1),%esi

00006360 <surface_add_damaged_region>:
    6360:	55                   	push   %ebp
    6361:	89 e5                	mov    %esp,%ebp
    6363:	56                   	push   %esi
    6364:	53                   	push   %ebx
    6365:	8b 45 08             	mov    0x8(%ebp),%eax
    6368:	8b 4d 0c             	mov    0xc(%ebp),%ecx
    636b:	8b 55 10             	mov    0x10(%ebp),%edx
    636e:	8b 58 04             	mov    0x4(%eax),%ebx
    6371:	39 cb                	cmp    %ecx,%ebx
    6373:	76 02                	jbe    6377 <surface_add_damaged_region+0x17>
    6375:	89 cb                	mov    %ecx,%ebx
    6377:	89 58 04             	mov    %ebx,0x4(%eax)
    637a:	8b 58 0c             	mov    0xc(%eax),%ebx
    637d:	39 d3                	cmp    %edx,%ebx
    637f:	76 02                	jbe    6383 <surface_add_damaged_region+0x23>
    6381:	89 d3                	mov    %edx,%ebx
    6383:	8b 75 14             	mov    0x14(%ebp),%esi
    6386:	89 58 0c             	mov    %ebx,0xc(%eax)
    6389:	8b 58 08             	mov    0x8(%eax),%ebx
    638c:	8d 4c 31 ff          	lea    -0x1(%ecx,%esi,1),%ecx
    6390:	39 d9                	cmp    %ebx,%ecx
    6392:	73 02                	jae    6396 <surface_add_damaged_region+0x36>
    6394:	89 d9                	mov    %ebx,%ecx
    6396:	8b 5d 18             	mov    0x18(%ebp),%ebx
    6399:	89 48 08             	mov    %ecx,0x8(%eax)
    639c:	8b 48 10             	mov    0x10(%eax),%ecx
    639f:	8d 54 1a ff          	lea    -0x1(%edx,%ebx,1),%edx
    63a3:	39 ca                	cmp    %ecx,%edx
    63a5:	73 02                	jae    63a9 <surface_add_damaged_region+0x49>
    63a7:	89 ca                	mov    %ecx,%edx
    63a9:	89 50 10             	mov    %edx,0x10(%eax)
    63ac:	5b                   	pop    %ebx
    63ad:	5e                   	pop    %esi
    63ae:	5d                   	pop    %ebp
    63af:	c3                   	ret    

000063b0 <surface_reset_damaged_region>:
    63b0:	55                   	push   %ebp
    63b1:	89 e5                	mov    %esp,%ebp
    63b3:	8b 45 08             	mov    0x8(%ebp),%eax
    63b6:	8b 48 14             	mov    0x14(%eax),%ecx
    63b9:	c7 40 08 00 00 00 00 	movl   $0x0,0x8(%eax)
    63c0:	c7 40 10 00 00 00 00 	movl   $0x0,0x10(%eax)
    63c7:	8d 51 ff             	lea    -0x1(%ecx),%edx
    63ca:	8b 48 18             	mov    0x18(%eax),%ecx
    63cd:	89 50 04             	mov    %edx,0x4(%eax)
    63d0:	8d 51 ff             	lea    -0x1(%ecx),%edx
    63d3:	89 50 0c             	mov    %edx,0xc(%eax)
    63d6:	5d                   	pop    %ebp
    63d7:	c3                   	ret    
    63d8:	90                   	nop
    63d9:	8d b4 26 00 00 00 00 	lea    0x0(%esi,%eiz,1),%esi

000063e0 <surface_put_pixel>:
    63e0:	55                   	push   %ebp
    63e1:	89 e5                	mov    %esp,%ebp
    63e3:	53                   	push   %ebx
    63e4:	8b 45 08             	mov    0x8(%ebp),%eax
    63e7:	8b 4d 0c             	mov    0xc(%ebp),%ecx
    63ea:	8b 55 10             	mov    0x10(%ebp),%edx
    63ed:	8b 58 04             	mov    0x4(%eax),%ebx
    63f0:	39 cb                	cmp    %ecx,%ebx
    63f2:	76 02                	jbe    63f6 <surface_put_pixel+0x16>
    63f4:	89 cb                	mov    %ecx,%ebx
    63f6:	89 58 04             	mov    %ebx,0x4(%eax)
    63f9:	8b 58 08             	mov    0x8(%eax),%ebx
    63fc:	39 cb                	cmp    %ecx,%ebx
    63fe:	73 02                	jae    6402 <surface_put_pixel+0x22>
    6400:	89 cb                	mov    %ecx,%ebx
    6402:	89 58 08             	mov    %ebx,0x8(%eax)
    6405:	8b 58 0c             	mov    0xc(%eax),%ebx
    6408:	39 d3                	cmp    %edx,%ebx
    640a:	76 02                	jbe    640e <surface_put_pixel+0x2e>
    640c:	89 d3                	mov    %edx,%ebx
    640e:	89 58 0c             	mov    %ebx,0xc(%eax)
    6411:	8b 58 10             	mov    0x10(%eax),%ebx
    6414:	39 d3                	cmp    %edx,%ebx
    6416:	73 02                	jae    641a <surface_put_pixel+0x3a>
    6418:	89 d3                	mov    %edx,%ebx
    641a:	89 58 10             	mov    %ebx,0x10(%eax)
    641d:	8b 58 14             	mov    0x14(%eax),%ebx
    6420:	39 d9                	cmp    %ebx,%ecx
    6422:	73 19                	jae    643d <surface_put_pixel+0x5d>
    6424:	3b 50 18             	cmp    0x18(%eax),%edx
    6427:	73 14                	jae    643d <surface_put_pixel+0x5d>
    6429:	0f af d3             	imul   %ebx,%edx
    642c:	8b 40 1c             	mov    0x1c(%eax),%eax
    642f:	01 ca                	add    %ecx,%edx
    6431:	8d 14 90             	lea    (%eax,%edx,4),%edx
    6434:	85 d2                	test   %edx,%edx
    6436:	74 05                	je     643d <surface_put_pixel+0x5d>
    6438:	8b 45 14             	mov    0x14(%ebp),%eax
    643b:	89 02                	mov    %eax,(%edx)
    643d:	5b                   	pop    %ebx
    643e:	5d                   	pop    %ebp
    643f:	c3                   	ret    

00006440 <surface_get_pixel>:
    6440:	55                   	push   %ebp
    6441:	31 c0                	xor    %eax,%eax
    6443:	89 e5                	mov    %esp,%ebp
    6445:	53                   	push   %ebx
    6446:	8b 4d 08             	mov    0x8(%ebp),%ecx
    6449:	8b 51 14             	mov    0x14(%ecx),%edx
    644c:	39 55 0c             	cmp    %edx,0xc(%ebp)
    644f:	73 1f                	jae    6470 <surface_get_pixel+0x30>
    6451:	8b 59 18             	mov    0x18(%ecx),%ebx
    6454:	39 5d 10             	cmp    %ebx,0x10(%ebp)
    6457:	73 17                	jae    6470 <surface_get_pixel+0x30>
    6459:	8b 5d 10             	mov    0x10(%ebp),%ebx
    645c:	8b 49 1c             	mov    0x1c(%ecx),%ecx
    645f:	0f af d3             	imul   %ebx,%edx
    6462:	8b 5d 0c             	mov    0xc(%ebp),%ebx
    6465:	01 da                	add    %ebx,%edx
    6467:	8d 14 91             	lea    (%ecx,%edx,4),%edx
    646a:	85 d2                	test   %edx,%edx
    646c:	74 02                	je     6470 <surface_get_pixel+0x30>
    646e:	8b 02                	mov    (%edx),%eax
    6470:	5b                   	pop    %ebx
    6471:	5d                   	pop    %ebp
    6472:	c3                   	ret    
    6473:	66 90                	xchg   %ax,%ax
    6475:	66 90                	xchg   %ax,%ax
    6477:	66 90                	xchg   %ax,%ax
    6479:	66 90                	xchg   %ax,%ax
    647b:	66 90                	xchg   %ax,%ax
    647d:	66 90                	xchg   %ax,%ax
    647f:	90                   	nop

00006480 <compose_clr>:
    6480:	55                   	push   %ebp
    6481:	31 c0                	xor    %eax,%eax
    6483:	89 e5                	mov    %esp,%ebp
    6485:	5d                   	pop    %ebp
    6486:	c3                   	ret    
    6487:	89 f6                	mov    %esi,%esi
    6489:	8d bc 27 00 00 00 00 	lea    0x0(%edi,%eiz,1),%edi

00006490 <compose_src>:
    6490:	55                   	push   %ebp
    6491:	89 e5                	mov    %esp,%ebp
    6493:	8b 45 08             	mov    0x8(%ebp),%eax
    6496:	5d                   	pop    %ebp
    6497:	c3                   	ret    
    6498:	90                   	nop
    6499:	8d b4 26 00 00 00 00 	lea    0x0(%esi,%eiz,1),%esi

000064a0 <compose_dst>:
    64a0:	55                   	push   %ebp
    64a1:	89 e5                	mov    %esp,%ebp
    64a3:	8b 45 0c             	mov    0xc(%ebp),%eax
    64a6:	5d                   	pop    %ebp
    64a7:	c3                   	ret    
    64a8:	90                   	nop
    64a9:	8d b4 26 00 00 00 00 	lea    0x0(%esi,%eiz,1),%esi

000064b0 <compose_over>:
    64b0:	55                   	push   %ebp
    64b1:	ba 01 fe 00 00       	mov    $0xfe01,%edx
    64b6:	89 e5                	mov    %esp,%ebp
    64b8:	57                   	push   %edi
    64b9:	56                   	push   %esi
    64ba:	53                   	push   %ebx
    64bb:	50                   	push   %eax
    64bc:	be 81 80 80 80       	mov    $0x80808081,%esi
    64c1:	8b 5d 08             	mov    0x8(%ebp),%ebx
    64c4:	8b 7d 0c             	mov    0xc(%ebp),%edi
    64c7:	c1 eb 18             	shr    $0x18,%ebx
    64ca:	c1 ef 18             	shr    $0x18,%edi
    64cd:	89 d8                	mov    %ebx,%eax
    64cf:	0f af c7             	imul   %edi,%eax
    64d2:	29 c2                	sub    %eax,%edx
    64d4:	89 d0                	mov    %edx,%eax
    64d6:	f7 e6                	mul    %esi
    64d8:	c1 ea 07             	shr    $0x7,%edx
    64db:	89 d1                	mov    %edx,%ecx
    64dd:	31 d2                	xor    %edx,%edx
    64df:	8a 55 08             	mov    0x8(%ebp),%dl
    64e2:	89 4d f0             	mov    %ecx,-0x10(%ebp)
    64e5:	89 d0                	mov    %edx,%eax
    64e7:	31 d2                	xor    %edx,%edx
    64e9:	8a 55 0c             	mov    0xc(%ebp),%dl
    64ec:	0f af c3             	imul   %ebx,%eax
    64ef:	0f af d1             	imul   %ecx,%edx
    64f2:	01 c2                	add    %eax,%edx
    64f4:	31 c9                	xor    %ecx,%ecx
    64f6:	89 d0                	mov    %edx,%eax
    64f8:	f7 e6                	mul    %esi
    64fa:	c1 ea 07             	shr    $0x7,%edx
    64fd:	88 d1                	mov    %dl,%cl
    64ff:	ba ff 00 00 00       	mov    $0xff,%edx
    6504:	29 da                	sub    %ebx,%edx
    6506:	0f af fa             	imul   %edx,%edi
    6509:	89 da                	mov    %ebx,%edx
    650b:	c1 e2 08             	shl    $0x8,%edx
    650e:	29 da                	sub    %ebx,%edx
    6510:	01 fa                	add    %edi,%edx
    6512:	8b 7d f0             	mov    -0x10(%ebp),%edi
    6515:	89 d0                	mov    %edx,%eax
    6517:	f7 e6                	mul    %esi
    6519:	c1 ea 07             	shr    $0x7,%edx
    651c:	c1 e2 18             	shl    $0x18,%edx
    651f:	09 d1                	or     %edx,%ecx
    6521:	8b 55 08             	mov    0x8(%ebp),%edx
    6524:	c1 ea 10             	shr    $0x10,%edx
    6527:	81 e2 ff 00 00 00    	and    $0xff,%edx
    652d:	89 d0                	mov    %edx,%eax
    652f:	8b 55 0c             	mov    0xc(%ebp),%edx
    6532:	c1 ea 10             	shr    $0x10,%edx
    6535:	81 e2 ff 00 00 00    	and    $0xff,%edx
    653b:	0f af c3             	imul   %ebx,%eax
    653e:	0f af d7             	imul   %edi,%edx
    6541:	01 c2                	add    %eax,%edx
    6543:	89 d0                	mov    %edx,%eax
    6545:	f7 e6                	mul    %esi
    6547:	c1 e2 09             	shl    $0x9,%edx
    654a:	8b 45 08             	mov    0x8(%ebp),%eax
    654d:	81 e2 00 00 ff 00    	and    $0xff0000,%edx
    6553:	09 d1                	or     %edx,%ecx
    6555:	0f b6 d4             	movzbl %ah,%edx
    6558:	8b 45 0c             	mov    0xc(%ebp),%eax
    655b:	0f af da             	imul   %edx,%ebx
    655e:	0f b6 d4             	movzbl %ah,%edx
    6561:	0f af d7             	imul   %edi,%edx
    6564:	01 da                	add    %ebx,%edx
    6566:	89 d0                	mov    %edx,%eax
    6568:	f7 e6                	mul    %esi
    656a:	8d 04 12             	lea    (%edx,%edx,1),%eax
    656d:	5a                   	pop    %edx
    656e:	25 00 ff 00 00       	and    $0xff00,%eax
    6573:	5b                   	pop    %ebx
    6574:	09 c8                	or     %ecx,%eax
    6576:	5e                   	pop    %esi
    6577:	5f                   	pop    %edi
    6578:	5d                   	pop    %ebp
    6579:	c3                   	ret    
    657a:	8d b6 00 00 00 00    	lea    0x0(%esi),%esi

00006580 <compose_in>:
    6580:	55                   	push   %ebp
    6581:	31 c0                	xor    %eax,%eax
    6583:	89 e5                	mov    %esp,%ebp
    6585:	5d                   	pop    %ebp
    6586:	c3                   	ret    
    6587:	89 f6                	mov    %esi,%esi
    6589:	8d bc 27 00 00 00 00 	lea    0x0(%edi,%eiz,1),%edi

00006590 <compose_out>:
    6590:	55                   	push   %ebp
    6591:	31 c0                	xor    %eax,%eax
    6593:	89 e5                	mov    %esp,%ebp
    6595:	5d                   	pop    %ebp
    6596:	c3                   	ret    
    6597:	89 f6                	mov    %esi,%esi
    6599:	8d bc 27 00 00 00 00 	lea    0x0(%edi,%eiz,1),%edi

000065a0 <compose_atop>:
    65a0:	55                   	push   %ebp
    65a1:	31 c0                	xor    %eax,%eax
    65a3:	89 e5                	mov    %esp,%ebp
    65a5:	5d                   	pop    %ebp
    65a6:	c3                   	ret    
    65a7:	89 f6                	mov    %esi,%esi
    65a9:	8d bc 27 00 00 00 00 	lea    0x0(%edi,%eiz,1),%edi

000065b0 <compose_xor>:
    65b0:	55                   	push   %ebp
    65b1:	31 c0                	xor    %eax,%eax
    65b3:	89 e5                	mov    %esp,%ebp
    65b5:	5d                   	pop    %ebp
    65b6:	c3                   	ret    
    65b7:	89 f6                	mov    %esi,%esi
    65b9:	8d bc 27 00 00 00 00 	lea    0x0(%edi,%eiz,1),%edi

000065c0 <compose_add>:
    65c0:	55                   	push   %ebp
    65c1:	31 c0                	xor    %eax,%eax
    65c3:	89 e5                	mov    %esp,%ebp
    65c5:	5d                   	pop    %ebp
    65c6:	c3                   	ret    
    65c7:	66 90                	xchg   %ax,%ax
    65c9:	66 90                	xchg   %ax,%ax
    65cb:	66 90                	xchg   %ax,%ax
    65cd:	66 90                	xchg   %ax,%ax
    65cf:	90                   	nop

000065d0 <filter_nearest>:
    65d0:	55                   	push   %ebp
    65d1:	89 e5                	mov    %esp,%ebp
    65d3:	57                   	push   %edi
    65d4:	56                   	push   %esi
    65d5:	53                   	push   %ebx
    65d6:	83 ec 0c             	sub    $0xc,%esp
    65d9:	dd 45 0c             	fldl   0xc(%ebp)
    65dc:	dd 45 14             	fldl   0x14(%ebp)
    65df:	d9 ee                	fldz   
    65e1:	d9 c9                	fxch   %st(1)
    65e3:	dd e1                	fucom  %st(1)
    65e5:	df e0                	fnstsw %ax
    65e7:	dd d9                	fstp   %st(1)
    65e9:	8b 75 08             	mov    0x8(%ebp),%esi
    65ec:	8b 55 1c             	mov    0x1c(%ebp),%edx
    65ef:	f6 c4 45             	test   $0x45,%ah
    65f2:	0f 85 d0 00 00 00    	jne    66c8 <filter_nearest+0xf8>
    65f8:	d8 05 5c 78 00 00    	fadds  0x785c
    65fe:	d9 7d ee             	fnstcw -0x12(%ebp)
    6601:	66 8b 45 ee          	mov    -0x12(%ebp),%ax
    6605:	b4 0c                	mov    $0xc,%ah
    6607:	66 89 45 ec          	mov    %ax,-0x14(%ebp)
    660b:	d9 6d ec             	fldcw  -0x14(%ebp)
    660e:	db 5d e8             	fistpl -0x18(%ebp)
    6611:	d9 6d ee             	fldcw  -0x12(%ebp)
    6614:	d9 ee                	fldz   
    6616:	d9 c9                	fxch   %st(1)
    6618:	dd e1                	fucom  %st(1)
    661a:	df e0                	fnstsw %ax
    661c:	dd d9                	fstp   %st(1)
    661e:	8b 4d e8             	mov    -0x18(%ebp),%ecx
    6621:	f6 c4 45             	test   $0x45,%ah
    6624:	75 6a                	jne    6690 <filter_nearest+0xc0>
    6626:	d8 05 5c 78 00 00    	fadds  0x785c
    662c:	83 fa 01             	cmp    $0x1,%edx
    662f:	d9 6d ec             	fldcw  -0x14(%ebp)
    6632:	db 5d e8             	fistpl -0x18(%ebp)
    6635:	d9 6d ee             	fldcw  -0x12(%ebp)
    6638:	8b 45 e8             	mov    -0x18(%ebp),%eax
    663b:	74 6a                	je     66a7 <filter_nearest+0xd7>
    663d:	8d 5a fe             	lea    -0x2(%edx),%ebx
    6640:	83 fb 01             	cmp    $0x1,%ebx
    6643:	0f 86 8f 00 00 00    	jbe    66d8 <filter_nearest+0x108>
    6649:	89 ca                	mov    %ecx,%edx
    664b:	89 c3                	mov    %eax,%ebx
    664d:	31 ff                	xor    %edi,%edi
    664f:	85 db                	test   %ebx,%ebx
    6651:	78 67                	js     66ba <filter_nearest+0xea>
    6653:	89 d0                	mov    %edx,%eax
    6655:	c1 e8 1f             	shr    $0x1f,%eax
    6658:	8b 0e                	mov    (%esi),%ecx
    665a:	39 d9                	cmp    %ebx,%ecx
    665c:	76 5c                	jbe    66ba <filter_nearest+0xea>
    665e:	84 c0                	test   %al,%al
    6660:	75 58                	jne    66ba <filter_nearest+0xea>
    6662:	31 c0                	xor    %eax,%eax
    6664:	39 56 04             	cmp    %edx,0x4(%esi)
    6667:	76 1c                	jbe    6685 <filter_nearest+0xb5>
    6669:	0f af ca             	imul   %edx,%ecx
    666c:	8b 56 08             	mov    0x8(%esi),%edx
    666f:	01 cb                	add    %ecx,%ebx
    6671:	8d 14 9a             	lea    (%edx,%ebx,4),%edx
    6674:	85 d2                	test   %edx,%edx
    6676:	74 02                	je     667a <filter_nearest+0xaa>
    6678:	8b 02                	mov    (%edx),%eax
    667a:	89 f9                	mov    %edi,%ecx
    667c:	84 c9                	test   %cl,%cl
    667e:	74 05                	je     6685 <filter_nearest+0xb5>
    6680:	25 ff ff ff 00       	and    $0xffffff,%eax
    6685:	83 c4 0c             	add    $0xc,%esp
    6688:	5b                   	pop    %ebx
    6689:	5e                   	pop    %esi
    668a:	5f                   	pop    %edi
    668b:	5d                   	pop    %ebp
    668c:	c3                   	ret    
    668d:	8d 76 00             	lea    0x0(%esi),%esi
    6690:	d8 25 5c 78 00 00    	fsubs  0x785c
    6696:	83 fa 01             	cmp    $0x1,%edx
    6699:	d9 6d ec             	fldcw  -0x14(%ebp)
    669c:	db 5d e8             	fistpl -0x18(%ebp)
    669f:	d9 6d ee             	fldcw  -0x12(%ebp)
    66a2:	8b 45 e8             	mov    -0x18(%ebp),%eax
    66a5:	75 96                	jne    663d <filter_nearest+0x6d>
    66a7:	31 d2                	xor    %edx,%edx
    66a9:	31 ff                	xor    %edi,%edi
    66ab:	f7 36                	divl   (%esi)
    66ad:	89 d3                	mov    %edx,%ebx
    66af:	89 c8                	mov    %ecx,%eax
    66b1:	31 d2                	xor    %edx,%edx
    66b3:	f7 76 04             	divl   0x4(%esi)
    66b6:	85 db                	test   %ebx,%ebx
    66b8:	79 99                	jns    6653 <filter_nearest+0x83>
    66ba:	83 c4 0c             	add    $0xc,%esp
    66bd:	31 c0                	xor    %eax,%eax
    66bf:	5b                   	pop    %ebx
    66c0:	5e                   	pop    %esi
    66c1:	5f                   	pop    %edi
    66c2:	5d                   	pop    %ebp
    66c3:	c3                   	ret    
    66c4:	8d 74 26 00          	lea    0x0(%esi,%eiz,1),%esi
    66c8:	d8 25 5c 78 00 00    	fsubs  0x785c
    66ce:	e9 2b ff ff ff       	jmp    65fe <filter_nearest+0x2e>
    66d3:	90                   	nop
    66d4:	8d 74 26 00          	lea    0x0(%esi,%eiz,1),%esi
    66d8:	83 fa 03             	cmp    $0x3,%edx
    66db:	0f 94 c3             	sete   %bl
    66de:	89 df                	mov    %ebx,%edi
    66e0:	85 c0                	test   %eax,%eax
    66e2:	78 3c                	js     6720 <filter_nearest+0x150>
    66e4:	8b 16                	mov    (%esi),%edx
    66e6:	89 c3                	mov    %eax,%ebx
    66e8:	39 c2                	cmp    %eax,%edx
    66ea:	77 1c                	ja     6708 <filter_nearest+0x138>
    66ec:	8d 5a ff             	lea    -0x1(%edx),%ebx
    66ef:	85 c9                	test   %ecx,%ecx
    66f1:	78 5d                	js     6750 <filter_nearest+0x180>
    66f3:	8b 46 04             	mov    0x4(%esi),%eax
    66f6:	89 ca                	mov    %ecx,%edx
    66f8:	39 c8                	cmp    %ecx,%eax
    66fa:	0f 87 4f ff ff ff    	ja     664f <filter_nearest+0x7f>
    6700:	8d 50 ff             	lea    -0x1(%eax),%edx
    6703:	e9 47 ff ff ff       	jmp    664f <filter_nearest+0x7f>
    6708:	85 c9                	test   %ecx,%ecx
    670a:	78 34                	js     6740 <filter_nearest+0x170>
    670c:	89 c3                	mov    %eax,%ebx
    670e:	31 d2                	xor    %edx,%edx
    6710:	8b 46 04             	mov    0x4(%esi),%eax
    6713:	39 c8                	cmp    %ecx,%eax
    6715:	76 e9                	jbe    6700 <filter_nearest+0x130>
    6717:	89 d7                	mov    %edx,%edi
    6719:	89 ca                	mov    %ecx,%edx
    671b:	e9 33 ff ff ff       	jmp    6653 <filter_nearest+0x83>
    6720:	85 c9                	test   %ecx,%ecx
    6722:	78 0c                	js     6730 <filter_nearest+0x160>
    6724:	88 da                	mov    %bl,%dl
    6726:	31 db                	xor    %ebx,%ebx
    6728:	eb e6                	jmp    6710 <filter_nearest+0x140>
    672a:	8d b6 00 00 00 00    	lea    0x0(%esi),%esi
    6730:	31 db                	xor    %ebx,%ebx
    6732:	31 c0                	xor    %eax,%eax
    6734:	31 d2                	xor    %edx,%edx
    6736:	e9 1d ff ff ff       	jmp    6658 <filter_nearest+0x88>
    673b:	90                   	nop
    673c:	8d 74 26 00          	lea    0x0(%esi,%eiz,1),%esi
    6740:	89 d1                	mov    %edx,%ecx
    6742:	31 d2                	xor    %edx,%edx
    6744:	e9 19 ff ff ff       	jmp    6662 <filter_nearest+0x92>
    6749:	8d b4 26 00 00 00 00 	lea    0x0(%esi,%eiz,1),%esi
    6750:	31 d2                	xor    %edx,%edx
    6752:	e9 f8 fe ff ff       	jmp    664f <filter_nearest+0x7f>
    6757:	89 f6                	mov    %esi,%esi
    6759:	8d bc 27 00 00 00 00 	lea    0x0(%edi,%eiz,1),%edi

00006760 <filter_bilinear>:
    6760:	55                   	push   %ebp
    6761:	89 e5                	mov    %esp,%ebp
    6763:	57                   	push   %edi
    6764:	56                   	push   %esi
    6765:	53                   	push   %ebx
    6766:	83 ec 34             	sub    $0x34,%esp
    6769:	d9 7d da             	fnstcw -0x26(%ebp)
    676c:	66 8b 45 da          	mov    -0x26(%ebp),%ax
    6770:	8b 4d 08             	mov    0x8(%ebp),%ecx
    6773:	b4 0c                	mov    $0xc,%ah
    6775:	dd 45 0c             	fldl   0xc(%ebp)
    6778:	66 89 45 d8          	mov    %ax,-0x28(%ebp)
    677c:	dd 45 14             	fldl   0x14(%ebp)
    677f:	d9 c9                	fxch   %st(1)
    6781:	d9 6d d8             	fldcw  -0x28(%ebp)
    6784:	db 55 c8             	fistl  -0x38(%ebp)
    6787:	d9 6d da             	fldcw  -0x26(%ebp)
    678a:	d9 ee                	fldz   
    678c:	dd e1                	fucom  %st(1)
    678e:	df e0                	fnstsw %ax
    6790:	f6 c4 45             	test   $0x45,%ah
    6793:	0f 84 f7 02 00 00    	je     6a90 <filter_bilinear+0x330>
    6799:	d9 c9                	fxch   %st(1)
    679b:	dd e1                	fucom  %st(1)
    679d:	df e0                	fnstsw %ax
    679f:	dd d9                	fstp   %st(1)
    67a1:	f6 c4 45             	test   $0x45,%ah
    67a4:	0f 85 e6 04 00 00    	jne    6c90 <filter_bilinear+0x530>
    67aa:	8b 5d c8             	mov    -0x38(%ebp),%ebx
    67ad:	b2 01                	mov    $0x1,%dl
    67af:	89 5d cc             	mov    %ebx,-0x34(%ebp)
    67b2:	89 5d c4             	mov    %ebx,-0x3c(%ebp)
    67b5:	db 45 cc             	fildl  -0x34(%ebp)
    67b8:	d9 c9                	fxch   %st(1)
    67ba:	dd e1                	fucom  %st(1)
    67bc:	df e0                	fnstsw %ax
    67be:	dd d9                	fstp   %st(1)
    67c0:	80 e4 45             	and    $0x45,%ah
    67c3:	80 fc 40             	cmp    $0x40,%ah
    67c6:	0f 85 fa 02 00 00    	jne    6ac6 <filter_bilinear+0x366>
    67cc:	d9 c9                	fxch   %st(1)
    67ce:	eb 08                	jmp    67d8 <filter_bilinear+0x78>
    67d0:	d9 c9                	fxch   %st(1)
    67d2:	8d b6 00 00 00 00    	lea    0x0(%esi),%esi
    67d8:	d9 6d d8             	fldcw  -0x28(%ebp)
    67db:	db 55 cc             	fistl  -0x34(%ebp)
    67de:	d9 6d da             	fldcw  -0x26(%ebp)
    67e1:	d9 ee                	fldz   
    67e3:	dd e1                	fucom  %st(1)
    67e5:	df e0                	fnstsw %ax
    67e7:	f6 c4 45             	test   $0x45,%ah
    67ea:	0f 84 f0 01 00 00    	je     69e0 <filter_bilinear+0x280>
    67f0:	d9 c9                	fxch   %st(1)
    67f2:	dd e1                	fucom  %st(1)
    67f4:	df e0                	fnstsw %ax
    67f6:	dd d9                	fstp   %st(1)
    67f8:	f6 c4 45             	test   $0x45,%ah
    67fb:	0f 85 6f 05 00 00    	jne    6d70 <filter_bilinear+0x610>
    6801:	8b 7d cc             	mov    -0x34(%ebp),%edi
    6804:	89 7d c0             	mov    %edi,-0x40(%ebp)
    6807:	db 45 c0             	fildl  -0x40(%ebp)
    680a:	d9 c9                	fxch   %st(1)
    680c:	dd e1                	fucom  %st(1)
    680e:	df e0                	fnstsw %ax
    6810:	dd d9                	fstp   %st(1)
    6812:	80 e4 45             	and    $0x45,%ah
    6815:	80 fc 40             	cmp    $0x40,%ah
    6818:	89 f8                	mov    %edi,%eax
    681a:	0f 84 e1 01 00 00    	je     6a01 <filter_bilinear+0x2a1>
    6820:	8b 45 cc             	mov    -0x34(%ebp),%eax
    6823:	40                   	inc    %eax
    6824:	89 45 cc             	mov    %eax,-0x34(%ebp)
    6827:	8b 45 cc             	mov    -0x34(%ebp),%eax
    682a:	39 45 c0             	cmp    %eax,-0x40(%ebp)
    682d:	0f 94 c0             	sete   %al
    6830:	20 c2                	and    %al,%dl
    6832:	88 55 d5             	mov    %dl,-0x2b(%ebp)
    6835:	0f 85 dd 01 00 00    	jne    6a18 <filter_bilinear+0x2b8>
    683b:	db 45 c4             	fildl  -0x3c(%ebp)
    683e:	de ea                	fsubrp %st,%st(2)
    6840:	83 7d 1c 01          	cmpl   $0x1,0x1c(%ebp)
    6844:	db 45 c0             	fildl  -0x40(%ebp)
    6847:	de e9                	fsubrp %st,%st(1)
    6849:	0f 84 59 05 00 00    	je     6da8 <filter_bilinear+0x648>
    684f:	8b 45 1c             	mov    0x1c(%ebp),%eax
    6852:	83 e8 02             	sub    $0x2,%eax
    6855:	83 f8 01             	cmp    $0x1,%eax
    6858:	0f 86 b2 05 00 00    	jbe    6e10 <filter_bilinear+0x6b0>
    685e:	c6 45 d4 00          	movb   $0x0,-0x2c(%ebp)
    6862:	8b 75 c0             	mov    -0x40(%ebp),%esi
    6865:	8b 7d c4             	mov    -0x3c(%ebp),%edi
    6868:	85 ff                	test   %edi,%edi
    686a:	0f 88 50 06 00 00    	js     6ec0 <filter_bilinear+0x760>
    6870:	89 f2                	mov    %esi,%edx
    6872:	8b 19                	mov    (%ecx),%ebx
    6874:	c1 ea 1f             	shr    $0x1f,%edx
    6877:	0f 85 43 06 00 00    	jne    6ec0 <filter_bilinear+0x760>
    687d:	39 df                	cmp    %ebx,%edi
    687f:	0f 83 3b 06 00 00    	jae    6ec0 <filter_bilinear+0x760>
    6885:	31 c0                	xor    %eax,%eax
    6887:	39 71 04             	cmp    %esi,0x4(%ecx)
    688a:	76 1c                	jbe    68a8 <filter_bilinear+0x148>
    688c:	0f af f3             	imul   %ebx,%esi
    688f:	01 f7                	add    %esi,%edi
    6891:	8b 71 08             	mov    0x8(%ecx),%esi
    6894:	8d 34 be             	lea    (%esi,%edi,4),%esi
    6897:	85 f6                	test   %esi,%esi
    6899:	74 02                	je     689d <filter_bilinear+0x13d>
    689b:	8b 06                	mov    (%esi),%eax
    689d:	80 7d d4 00          	cmpb   $0x0,-0x2c(%ebp)
    68a1:	74 05                	je     68a8 <filter_bilinear+0x148>
    68a3:	25 ff ff ff 00       	and    $0xffffff,%eax
    68a8:	89 45 e0             	mov    %eax,-0x20(%ebp)
    68ab:	8b 45 1c             	mov    0x1c(%ebp),%eax
    68ae:	83 e8 02             	sub    $0x2,%eax
    68b1:	83 7d 1c 01          	cmpl   $0x1,0x1c(%ebp)
    68b5:	0f 84 65 06 00 00    	je     6f20 <filter_bilinear+0x7c0>
    68bb:	83 f8 01             	cmp    $0x1,%eax
    68be:	0f 86 94 05 00 00    	jbe    6e58 <filter_bilinear+0x6f8>
    68c4:	31 ff                	xor    %edi,%edi
    68c6:	8b 75 c0             	mov    -0x40(%ebp),%esi
    68c9:	8b 55 c8             	mov    -0x38(%ebp),%edx
    68cc:	85 d2                	test   %edx,%edx
    68ce:	0f 88 44 04 00 00    	js     6d18 <filter_bilinear+0x5b8>
    68d4:	8b 19                	mov    (%ecx),%ebx
    68d6:	89 f0                	mov    %esi,%eax
    68d8:	c1 e8 1f             	shr    $0x1f,%eax
    68db:	b8 00 00 00 00       	mov    $0x0,%eax
    68e0:	75 25                	jne    6907 <filter_bilinear+0x1a7>
    68e2:	39 da                	cmp    %ebx,%edx
    68e4:	73 21                	jae    6907 <filter_bilinear+0x1a7>
    68e6:	39 71 04             	cmp    %esi,0x4(%ecx)
    68e9:	76 1c                	jbe    6907 <filter_bilinear+0x1a7>
    68eb:	0f af f3             	imul   %ebx,%esi
    68ee:	01 f2                	add    %esi,%edx
    68f0:	8b 71 08             	mov    0x8(%ecx),%esi
    68f3:	8d 14 96             	lea    (%esi,%edx,4),%edx
    68f6:	85 d2                	test   %edx,%edx
    68f8:	74 02                	je     68fc <filter_bilinear+0x19c>
    68fa:	8b 02                	mov    (%edx),%eax
    68fc:	89 fa                	mov    %edi,%edx
    68fe:	84 d2                	test   %dl,%dl
    6900:	74 05                	je     6907 <filter_bilinear+0x1a7>
    6902:	25 ff ff ff 00       	and    $0xffffff,%eax
    6907:	89 45 e4             	mov    %eax,-0x1c(%ebp)
    690a:	8b 45 1c             	mov    0x1c(%ebp),%eax
    690d:	83 e8 02             	sub    $0x2,%eax
    6910:	83 7d 1c 01          	cmpl   $0x1,0x1c(%ebp)
    6914:	0f 84 6e 04 00 00    	je     6d88 <filter_bilinear+0x628>
    691a:	83 f8 01             	cmp    $0x1,%eax
    691d:	0f 86 05 04 00 00    	jbe    6d28 <filter_bilinear+0x5c8>
    6923:	31 ff                	xor    %edi,%edi
    6925:	8b 55 cc             	mov    -0x34(%ebp),%edx
    6928:	8b 75 c4             	mov    -0x3c(%ebp),%esi
    692b:	85 f6                	test   %esi,%esi
    692d:	0f 88 95 03 00 00    	js     6cc8 <filter_bilinear+0x568>
    6933:	8b 19                	mov    (%ecx),%ebx
    6935:	39 de                	cmp    %ebx,%esi
    6937:	0f 83 7b 05 00 00    	jae    6eb8 <filter_bilinear+0x758>
    693d:	89 d0                	mov    %edx,%eax
    693f:	c1 e8 1f             	shr    $0x1f,%eax
    6942:	0f 85 70 05 00 00    	jne    6eb8 <filter_bilinear+0x758>
    6948:	31 c0                	xor    %eax,%eax
    694a:	39 51 04             	cmp    %edx,0x4(%ecx)
    694d:	76 1c                	jbe    696b <filter_bilinear+0x20b>
    694f:	0f af d3             	imul   %ebx,%edx
    6952:	01 d6                	add    %edx,%esi
    6954:	8b 51 08             	mov    0x8(%ecx),%edx
    6957:	8d 14 b2             	lea    (%edx,%esi,4),%edx
    695a:	85 d2                	test   %edx,%edx
    695c:	74 02                	je     6960 <filter_bilinear+0x200>
    695e:	8b 02                	mov    (%edx),%eax
    6960:	89 fa                	mov    %edi,%edx
    6962:	84 d2                	test   %dl,%dl
    6964:	74 05                	je     696b <filter_bilinear+0x20b>
    6966:	25 ff ff ff 00       	and    $0xffffff,%eax
    696b:	89 45 e8             	mov    %eax,-0x18(%ebp)
    696e:	8b 45 1c             	mov    0x1c(%ebp),%eax
    6971:	83 e8 02             	sub    $0x2,%eax
    6974:	83 7d 1c 01          	cmpl   $0x1,0x1c(%ebp)
    6978:	0f 84 6a 04 00 00    	je     6de8 <filter_bilinear+0x688>
    697e:	83 f8 01             	cmp    $0x1,%eax
    6981:	0f 86 51 03 00 00    	jbe    6cd8 <filter_bilinear+0x578>
    6987:	8b 55 cc             	mov    -0x34(%ebp),%edx
    698a:	8b 75 c8             	mov    -0x38(%ebp),%esi
    698d:	85 f6                	test   %esi,%esi
    698f:	0f 88 4b 01 00 00    	js     6ae0 <filter_bilinear+0x380>
    6995:	89 d0                	mov    %edx,%eax
    6997:	c1 e8 1f             	shr    $0x1f,%eax
    699a:	8b 39                	mov    (%ecx),%edi
    699c:	39 f7                	cmp    %esi,%edi
    699e:	0f 86 3c 01 00 00    	jbe    6ae0 <filter_bilinear+0x380>
    69a4:	84 c0                	test   %al,%al
    69a6:	0f 85 34 01 00 00    	jne    6ae0 <filter_bilinear+0x380>
    69ac:	39 51 04             	cmp    %edx,0x4(%ecx)
    69af:	0f 86 2b 01 00 00    	jbe    6ae0 <filter_bilinear+0x380>
    69b5:	0f af d7             	imul   %edi,%edx
    69b8:	8b 41 08             	mov    0x8(%ecx),%eax
    69bb:	01 d6                	add    %edx,%esi
    69bd:	8d 04 b0             	lea    (%eax,%esi,4),%eax
    69c0:	85 c0                	test   %eax,%eax
    69c2:	0f 84 88 06 00 00    	je     7050 <filter_bilinear+0x8f0>
    69c8:	8b 10                	mov    (%eax),%edx
    69ca:	80 7d d5 00          	cmpb   $0x0,-0x2b(%ebp)
    69ce:	0f 84 0e 01 00 00    	je     6ae2 <filter_bilinear+0x382>
    69d4:	81 e2 ff ff ff 00    	and    $0xffffff,%edx
    69da:	e9 03 01 00 00       	jmp    6ae2 <filter_bilinear+0x382>
    69df:	90                   	nop
    69e0:	8b 5d cc             	mov    -0x34(%ebp),%ebx
    69e3:	89 5d c0             	mov    %ebx,-0x40(%ebp)
    69e6:	db 45 c0             	fildl  -0x40(%ebp)
    69e9:	d9 ca                	fxch   %st(2)
    69eb:	dd e2                	fucom  %st(2)
    69ed:	df e0                	fnstsw %ax
    69ef:	dd da                	fstp   %st(2)
    69f1:	80 e4 45             	and    $0x45,%ah
    69f4:	80 fc 40             	cmp    $0x40,%ah
    69f7:	89 d8                	mov    %ebx,%eax
    69f9:	0f 85 a9 02 00 00    	jne    6ca8 <filter_bilinear+0x548>
    69ff:	dd d8                	fstp   %st(0)
    6a01:	89 45 c0             	mov    %eax,-0x40(%ebp)
    6a04:	b0 01                	mov    $0x1,%al
    6a06:	20 c2                	and    %al,%dl
    6a08:	88 55 d5             	mov    %dl,-0x2b(%ebp)
    6a0b:	0f 84 2a fe ff ff    	je     683b <filter_bilinear+0xdb>
    6a11:	dd d8                	fstp   %st(0)
    6a13:	dd d8                	fstp   %st(0)
    6a15:	eb 05                	jmp    6a1c <filter_bilinear+0x2bc>
    6a17:	90                   	nop
    6a18:	dd d8                	fstp   %st(0)
    6a1a:	dd d8                	fstp   %st(0)
    6a1c:	83 7d 1c 01          	cmpl   $0x1,0x1c(%ebp)
    6a20:	0f 84 7a 04 00 00    	je     6ea0 <filter_bilinear+0x740>
    6a26:	8b 45 1c             	mov    0x1c(%ebp),%eax
    6a29:	83 e8 02             	sub    $0x2,%eax
    6a2c:	83 f8 01             	cmp    $0x1,%eax
    6a2f:	0f 86 9b 04 00 00    	jbe    6ed0 <filter_bilinear+0x770>
    6a35:	8b 55 c0             	mov    -0x40(%ebp),%edx
    6a38:	8b 75 c4             	mov    -0x3c(%ebp),%esi
    6a3b:	31 db                	xor    %ebx,%ebx
    6a3d:	85 f6                	test   %esi,%esi
    6a3f:	0f 88 bb 03 00 00    	js     6e00 <filter_bilinear+0x6a0>
    6a45:	89 d0                	mov    %edx,%eax
    6a47:	c1 e8 1f             	shr    $0x1f,%eax
    6a4a:	8b 39                	mov    (%ecx),%edi
    6a4c:	39 f7                	cmp    %esi,%edi
    6a4e:	0f 86 ac 03 00 00    	jbe    6e00 <filter_bilinear+0x6a0>
    6a54:	84 c0                	test   %al,%al
    6a56:	0f 85 a4 03 00 00    	jne    6e00 <filter_bilinear+0x6a0>
    6a5c:	31 c0                	xor    %eax,%eax
    6a5e:	39 51 04             	cmp    %edx,0x4(%ecx)
    6a61:	0f 86 1a 02 00 00    	jbe    6c81 <filter_bilinear+0x521>
    6a67:	0f af d7             	imul   %edi,%edx
    6a6a:	01 d6                	add    %edx,%esi
    6a6c:	8b 51 08             	mov    0x8(%ecx),%edx
    6a6f:	8d 14 b2             	lea    (%edx,%esi,4),%edx
    6a72:	85 d2                	test   %edx,%edx
    6a74:	74 02                	je     6a78 <filter_bilinear+0x318>
    6a76:	8b 02                	mov    (%edx),%eax
    6a78:	84 db                	test   %bl,%bl
    6a7a:	0f 84 01 02 00 00    	je     6c81 <filter_bilinear+0x521>
    6a80:	25 ff ff ff 00       	and    $0xffffff,%eax
    6a85:	e9 f7 01 00 00       	jmp    6c81 <filter_bilinear+0x521>
    6a8a:	8d b6 00 00 00 00    	lea    0x0(%esi),%esi
    6a90:	8b 7d c8             	mov    -0x38(%ebp),%edi
    6a93:	89 7d cc             	mov    %edi,-0x34(%ebp)
    6a96:	db 45 cc             	fildl  -0x34(%ebp)
    6a99:	d9 ca                	fxch   %st(2)
    6a9b:	dd e2                	fucom  %st(2)
    6a9d:	df e0                	fnstsw %ax
    6a9f:	dd da                	fstp   %st(2)
    6aa1:	80 e4 45             	and    $0x45,%ah
    6aa4:	80 fc 40             	cmp    $0x40,%ah
    6aa7:	89 f8                	mov    %edi,%eax
    6aa9:	0f 84 e9 01 00 00    	je     6c98 <filter_bilinear+0x538>
    6aaf:	d9 c9                	fxch   %st(1)
    6ab1:	48                   	dec    %eax
    6ab2:	31 d2                	xor    %edx,%edx
    6ab4:	89 45 c4             	mov    %eax,-0x3c(%ebp)
    6ab7:	dd e1                	fucom  %st(1)
    6ab9:	df e0                	fnstsw %ax
    6abb:	dd d9                	fstp   %st(1)
    6abd:	f6 c4 45             	test   $0x45,%ah
    6ac0:	0f 85 0a fd ff ff    	jne    67d0 <filter_bilinear+0x70>
    6ac6:	d9 c9                	fxch   %st(1)
    6ac8:	8b 45 c8             	mov    -0x38(%ebp),%eax
    6acb:	40                   	inc    %eax
    6acc:	89 45 c8             	mov    %eax,-0x38(%ebp)
    6acf:	8b 45 c8             	mov    -0x38(%ebp),%eax
    6ad2:	3b 45 c4             	cmp    -0x3c(%ebp),%eax
    6ad5:	0f 94 c2             	sete   %dl
    6ad8:	e9 fb fc ff ff       	jmp    67d8 <filter_bilinear+0x78>
    6add:	8d 76 00             	lea    0x0(%esi),%esi
    6ae0:	31 d2                	xor    %edx,%edx
    6ae2:	d9 e8                	fld1   
    6ae4:	d9 c0                	fld    %st(0)
    6ae6:	d8 e3                	fsub   %st(3),%st
    6ae8:	d9 c9                	fxch   %st(1)
    6aea:	8b 4d e0             	mov    -0x20(%ebp),%ecx
    6aed:	89 c8                	mov    %ecx,%eax
    6aef:	c1 e8 18             	shr    $0x18,%eax
    6af2:	d8 e2                	fsub   %st(2),%st
    6af4:	89 45 cc             	mov    %eax,-0x34(%ebp)
    6af7:	89 c8                	mov    %ecx,%eax
    6af9:	c1 e8 10             	shr    $0x10,%eax
    6afc:	d9 c1                	fld    %st(1)
    6afe:	d8 c9                	fmul   %st(1),%st
    6b00:	25 ff 00 00 00       	and    $0xff,%eax
    6b05:	d9 5d dc             	fstps  -0x24(%ebp)
    6b08:	d9 45 dc             	flds   -0x24(%ebp)
    6b0b:	d9 c9                	fxch   %st(1)
    6b0d:	d8 cc                	fmul   %st(4),%st
    6b0f:	d9 5d dc             	fstps  -0x24(%ebp)
    6b12:	d9 45 dc             	flds   -0x24(%ebp)
    6b15:	d9 ca                	fxch   %st(2)
    6b17:	d8 cb                	fmul   %st(3),%st
    6b19:	d9 5d dc             	fstps  -0x24(%ebp)
    6b1c:	d9 45 dc             	flds   -0x24(%ebp)
    6b1f:	d9 cb                	fxch   %st(3)
    6b21:	de cc                	fmulp  %st,%st(4)
    6b23:	d9 cb                	fxch   %st(3)
    6b25:	d9 5d dc             	fstps  -0x24(%ebp)
    6b28:	d9 45 dc             	flds   -0x24(%ebp)
    6b2b:	db 45 cc             	fildl  -0x34(%ebp)
    6b2e:	d8 cc                	fmul   %st(4),%st
    6b30:	89 45 cc             	mov    %eax,-0x34(%ebp)
    6b33:	0f b6 c5             	movzbl %ch,%eax
    6b36:	81 e1 ff 00 00 00    	and    $0xff,%ecx
    6b3c:	d9 ee                	fldz   
    6b3e:	dc c1                	fadd   %st,%st(1)
    6b40:	db 45 cc             	fildl  -0x34(%ebp)
    6b43:	d8 ce                	fmul   %st(6),%st
    6b45:	89 45 cc             	mov    %eax,-0x34(%ebp)
    6b48:	8b 45 e4             	mov    -0x1c(%ebp),%eax
    6b4b:	de c1                	faddp  %st,%st(1)
    6b4d:	db 45 cc             	fildl  -0x34(%ebp)
    6b50:	d8 ce                	fmul   %st(6),%st
    6b52:	89 4d cc             	mov    %ecx,-0x34(%ebp)
    6b55:	89 c1                	mov    %eax,%ecx
    6b57:	c1 e9 18             	shr    $0x18,%ecx
    6b5a:	d9 ee                	fldz   
    6b5c:	de c1                	faddp  %st,%st(1)
    6b5e:	db 45 cc             	fildl  -0x34(%ebp)
    6b61:	de cf                	fmulp  %st,%st(7)
    6b63:	89 4d cc             	mov    %ecx,-0x34(%ebp)
    6b66:	89 c1                	mov    %eax,%ecx
    6b68:	c1 e9 10             	shr    $0x10,%ecx
    6b6b:	d9 ee                	fldz   
    6b6d:	de c7                	faddp  %st,%st(7)
    6b6f:	81 e1 ff 00 00 00    	and    $0xff,%ecx
    6b75:	db 45 cc             	fildl  -0x34(%ebp)
    6b78:	d8 cd                	fmul   %st(5),%st
    6b7a:	89 4d cc             	mov    %ecx,-0x34(%ebp)
    6b7d:	0f b6 cc             	movzbl %ah,%ecx
    6b80:	25 ff 00 00 00       	and    $0xff,%eax
    6b85:	de c3                	faddp  %st,%st(3)
    6b87:	db 45 cc             	fildl  -0x34(%ebp)
    6b8a:	d8 cd                	fmul   %st(5),%st
    6b8c:	89 4d cc             	mov    %ecx,-0x34(%ebp)
    6b8f:	de c2                	faddp  %st,%st(2)
    6b91:	db 45 cc             	fildl  -0x34(%ebp)
    6b94:	d8 cd                	fmul   %st(5),%st
    6b96:	89 45 cc             	mov    %eax,-0x34(%ebp)
    6b99:	8b 45 e8             	mov    -0x18(%ebp),%eax
    6b9c:	89 c1                	mov    %eax,%ecx
    6b9e:	de c1                	faddp  %st,%st(1)
    6ba0:	c1 e9 18             	shr    $0x18,%ecx
    6ba3:	db 45 cc             	fildl  -0x34(%ebp)
    6ba6:	de cd                	fmulp  %st,%st(5)
    6ba8:	d9 cc                	fxch   %st(4)
    6baa:	89 4d cc             	mov    %ecx,-0x34(%ebp)
    6bad:	89 c1                	mov    %eax,%ecx
    6baf:	c1 e9 10             	shr    $0x10,%ecx
    6bb2:	de c6                	faddp  %st,%st(6)
    6bb4:	81 e1 ff 00 00 00    	and    $0xff,%ecx
    6bba:	db 45 cc             	fildl  -0x34(%ebp)
    6bbd:	d8 cd                	fmul   %st(5),%st
    6bbf:	89 4d cc             	mov    %ecx,-0x34(%ebp)
    6bc2:	0f b6 cc             	movzbl %ah,%ecx
    6bc5:	25 ff 00 00 00       	and    $0xff,%eax
    6bca:	de c2                	faddp  %st,%st(2)
    6bcc:	db 45 cc             	fildl  -0x34(%ebp)
    6bcf:	d8 cd                	fmul   %st(5),%st
    6bd1:	89 4d cc             	mov    %ecx,-0x34(%ebp)
    6bd4:	31 c9                	xor    %ecx,%ecx
    6bd6:	88 d1                	mov    %dl,%cl
    6bd8:	de c1                	faddp  %st,%st(1)
    6bda:	db 45 cc             	fildl  -0x34(%ebp)
    6bdd:	d8 cd                	fmul   %st(5),%st
    6bdf:	89 45 cc             	mov    %eax,-0x34(%ebp)
    6be2:	89 d0                	mov    %edx,%eax
    6be4:	c1 e8 18             	shr    $0x18,%eax
    6be7:	de c4                	faddp  %st,%st(4)
    6be9:	db 45 cc             	fildl  -0x34(%ebp)
    6bec:	de cd                	fmulp  %st,%st(5)
    6bee:	d9 cd                	fxch   %st(5)
    6bf0:	89 45 cc             	mov    %eax,-0x34(%ebp)
    6bf3:	de c4                	faddp  %st,%st(4)
    6bf5:	db 45 cc             	fildl  -0x34(%ebp)
    6bf8:	d8 ca                	fmul   %st(2),%st
    6bfa:	89 4d cc             	mov    %ecx,-0x34(%ebp)
    6bfd:	de c1                	faddp  %st,%st(1)
    6bff:	d9 6d d8             	fldcw  -0x28(%ebp)
    6c02:	df 5d d6             	fistp  -0x2a(%ebp)
    6c05:	d9 6d da             	fldcw  -0x26(%ebp)
    6c08:	db 45 cc             	fildl  -0x34(%ebp)
    6c0b:	d8 c9                	fmul   %st(1),%st
    6c0d:	66 8b 45 d6          	mov    -0x2a(%ebp),%ax
    6c11:	c1 e0 18             	shl    $0x18,%eax
    6c14:	de c3                	faddp  %st,%st(3)
    6c16:	d9 ca                	fxch   %st(2)
    6c18:	d9 6d d8             	fldcw  -0x28(%ebp)
    6c1b:	df 5d d6             	fistp  -0x2a(%ebp)
    6c1e:	d9 6d da             	fldcw  -0x26(%ebp)
    6c21:	66 8b 4d d6          	mov    -0x2a(%ebp),%cx
    6c25:	81 e1 ff 00 00 00    	and    $0xff,%ecx
    6c2b:	09 c8                	or     %ecx,%eax
    6c2d:	89 d1                	mov    %edx,%ecx
    6c2f:	c1 e9 10             	shr    $0x10,%ecx
    6c32:	81 e1 ff 00 00 00    	and    $0xff,%ecx
    6c38:	89 4d cc             	mov    %ecx,-0x34(%ebp)
    6c3b:	db 45 cc             	fildl  -0x34(%ebp)
    6c3e:	d8 ca                	fmul   %st(2),%st
    6c40:	de c3                	faddp  %st,%st(3)
    6c42:	d9 ca                	fxch   %st(2)
    6c44:	d9 6d d8             	fldcw  -0x28(%ebp)
    6c47:	df 5d d6             	fistp  -0x2a(%ebp)
    6c4a:	d9 6d da             	fldcw  -0x26(%ebp)
    6c4d:	66 8b 4d d6          	mov    -0x2a(%ebp),%cx
    6c51:	81 e1 ff 00 00 00    	and    $0xff,%ecx
    6c57:	c1 e1 10             	shl    $0x10,%ecx
    6c5a:	09 c8                	or     %ecx,%eax
    6c5c:	0f b6 ce             	movzbl %dh,%ecx
    6c5f:	89 4d cc             	mov    %ecx,-0x34(%ebp)
    6c62:	db 45 cc             	fildl  -0x34(%ebp)
    6c65:	de c9                	fmulp  %st,%st(1)
    6c67:	de c1                	faddp  %st,%st(1)
    6c69:	d9 6d d8             	fldcw  -0x28(%ebp)
    6c6c:	df 5d d6             	fistp  -0x2a(%ebp)
    6c6f:	d9 6d da             	fldcw  -0x26(%ebp)
    6c72:	66 8b 55 d6          	mov    -0x2a(%ebp),%dx
    6c76:	81 e2 ff 00 00 00    	and    $0xff,%edx
    6c7c:	c1 e2 08             	shl    $0x8,%edx
    6c7f:	09 d0                	or     %edx,%eax
    6c81:	83 c4 34             	add    $0x34,%esp
    6c84:	5b                   	pop    %ebx
    6c85:	5e                   	pop    %esi
    6c86:	5f                   	pop    %edi
    6c87:	5d                   	pop    %ebp
    6c88:	c3                   	ret    
    6c89:	8d b4 26 00 00 00 00 	lea    0x0(%esi,%eiz,1),%esi
    6c90:	8b 45 c8             	mov    -0x38(%ebp),%eax
    6c93:	eb 05                	jmp    6c9a <filter_bilinear+0x53a>
    6c95:	8d 76 00             	lea    0x0(%esi),%esi
    6c98:	dd d8                	fstp   %st(0)
    6c9a:	d9 c9                	fxch   %st(1)
    6c9c:	89 45 c4             	mov    %eax,-0x3c(%ebp)
    6c9f:	b2 01                	mov    $0x1,%dl
    6ca1:	e9 32 fb ff ff       	jmp    67d8 <filter_bilinear+0x78>
    6ca6:	66 90                	xchg   %ax,%ax
    6ca8:	d9 c9                	fxch   %st(1)
    6caa:	48                   	dec    %eax
    6cab:	89 45 c0             	mov    %eax,-0x40(%ebp)
    6cae:	dd e1                	fucom  %st(1)
    6cb0:	df e0                	fnstsw %ax
    6cb2:	dd d9                	fstp   %st(1)
    6cb4:	f6 c4 45             	test   $0x45,%ah
    6cb7:	0f 84 63 fb ff ff    	je     6820 <filter_bilinear+0xc0>
    6cbd:	31 c0                	xor    %eax,%eax
    6cbf:	e9 6c fb ff ff       	jmp    6830 <filter_bilinear+0xd0>
    6cc4:	8d 74 26 00          	lea    0x0(%esi,%eiz,1),%esi
    6cc8:	c7 45 e8 00 00 00 00 	movl   $0x0,-0x18(%ebp)
    6ccf:	83 f8 01             	cmp    $0x1,%eax
    6cd2:	0f 87 af fc ff ff    	ja     6987 <filter_bilinear+0x227>
    6cd8:	8b 45 c8             	mov    -0x38(%ebp),%eax
    6cdb:	83 7d 1c 03          	cmpl   $0x3,0x1c(%ebp)
    6cdf:	0f 94 c3             	sete   %bl
    6ce2:	85 c0                	test   %eax,%eax
    6ce4:	0f 88 1e 03 00 00    	js     7008 <filter_bilinear+0x8a8>
    6cea:	8b 39                	mov    (%ecx),%edi
    6cec:	89 c6                	mov    %eax,%esi
    6cee:	39 c7                	cmp    %eax,%edi
    6cf0:	0f 86 4a 02 00 00    	jbe    6f40 <filter_bilinear+0x7e0>
    6cf6:	8b 55 cc             	mov    -0x34(%ebp),%edx
    6cf9:	85 d2                	test   %edx,%edx
    6cfb:	0f 88 8f 03 00 00    	js     7090 <filter_bilinear+0x930>
    6d01:	89 c6                	mov    %eax,%esi
    6d03:	8b 51 04             	mov    0x4(%ecx),%edx
    6d06:	8b 45 cc             	mov    -0x34(%ebp),%eax
    6d09:	39 d0                	cmp    %edx,%eax
    6d0b:	0f 83 e7 02 00 00    	jae    6ff8 <filter_bilinear+0x898>
    6d11:	89 c2                	mov    %eax,%edx
    6d13:	e9 7d fc ff ff       	jmp    6995 <filter_bilinear+0x235>
    6d18:	c7 45 e4 00 00 00 00 	movl   $0x0,-0x1c(%ebp)
    6d1f:	83 f8 01             	cmp    $0x1,%eax
    6d22:	0f 87 fb fb ff ff    	ja     6923 <filter_bilinear+0x1c3>
    6d28:	83 7d 1c 03          	cmpl   $0x3,0x1c(%ebp)
    6d2c:	0f 94 c3             	sete   %bl
    6d2f:	89 df                	mov    %ebx,%edi
    6d31:	8b 5d c4             	mov    -0x3c(%ebp),%ebx
    6d34:	85 db                	test   %ebx,%ebx
    6d36:	0f 88 04 03 00 00    	js     7040 <filter_bilinear+0x8e0>
    6d3c:	8b 31                	mov    (%ecx),%esi
    6d3e:	39 de                	cmp    %ebx,%esi
    6d40:	0f 86 42 02 00 00    	jbe    6f88 <filter_bilinear+0x828>
    6d46:	89 de                	mov    %ebx,%esi
    6d48:	c6 45 c0 00          	movb   $0x0,-0x40(%ebp)
    6d4c:	8b 5d cc             	mov    -0x34(%ebp),%ebx
    6d4f:	85 db                	test   %ebx,%ebx
    6d51:	0f 88 19 03 00 00    	js     7070 <filter_bilinear+0x910>
    6d57:	8b 59 04             	mov    0x4(%ecx),%ebx
    6d5a:	8b 55 cc             	mov    -0x34(%ebp),%edx
    6d5d:	39 da                	cmp    %ebx,%edx
    6d5f:	0f 83 3a 02 00 00    	jae    6f9f <filter_bilinear+0x83f>
    6d65:	0f b6 7d c0          	movzbl -0x40(%ebp),%edi
    6d69:	e9 c5 fb ff ff       	jmp    6933 <filter_bilinear+0x1d3>
    6d6e:	66 90                	xchg   %ax,%ax
    6d70:	8b 45 cc             	mov    -0x34(%ebp),%eax
    6d73:	89 45 c0             	mov    %eax,-0x40(%ebp)
    6d76:	b0 01                	mov    $0x1,%al
    6d78:	e9 b3 fa ff ff       	jmp    6830 <filter_bilinear+0xd0>
    6d7d:	c7 45 e4 00 00 00 00 	movl   $0x0,-0x1c(%ebp)
    6d84:	8d 74 26 00          	lea    0x0(%esi,%eiz,1),%esi
    6d88:	31 d2                	xor    %edx,%edx
    6d8a:	8b 45 c4             	mov    -0x3c(%ebp),%eax
    6d8d:	f7 f3                	div    %ebx
    6d8f:	89 d6                	mov    %edx,%esi
    6d91:	8b 45 cc             	mov    -0x34(%ebp),%eax
    6d94:	31 d2                	xor    %edx,%edx
    6d96:	f7 71 04             	divl   0x4(%ecx)
    6d99:	85 f6                	test   %esi,%esi
    6d9b:	78 41                	js     6dde <filter_bilinear+0x67e>
    6d9d:	31 ff                	xor    %edi,%edi
    6d9f:	e9 91 fb ff ff       	jmp    6935 <filter_bilinear+0x1d5>
    6da4:	8d 74 26 00          	lea    0x0(%esi,%eiz,1),%esi
    6da8:	31 d2                	xor    %edx,%edx
    6daa:	8b 19                	mov    (%ecx),%ebx
    6dac:	8b 45 c4             	mov    -0x3c(%ebp),%eax
    6daf:	f7 f3                	div    %ebx
    6db1:	89 d7                	mov    %edx,%edi
    6db3:	8b 45 c0             	mov    -0x40(%ebp),%eax
    6db6:	31 d2                	xor    %edx,%edx
    6db8:	f7 71 04             	divl   0x4(%ecx)
    6dbb:	89 d6                	mov    %edx,%esi
    6dbd:	85 ff                	test   %edi,%edi
    6dbf:	0f 89 6b 01 00 00    	jns    6f30 <filter_bilinear+0x7d0>
    6dc5:	c7 45 e0 00 00 00 00 	movl   $0x0,-0x20(%ebp)
    6dcc:	31 d2                	xor    %edx,%edx
    6dce:	8b 45 c8             	mov    -0x38(%ebp),%eax
    6dd1:	f7 f3                	div    %ebx
    6dd3:	85 d2                	test   %edx,%edx
    6dd5:	78 a6                	js     6d7d <filter_bilinear+0x61d>
    6dd7:	31 ff                	xor    %edi,%edi
    6dd9:	e9 f8 fa ff ff       	jmp    68d6 <filter_bilinear+0x176>
    6dde:	c7 45 e8 00 00 00 00 	movl   $0x0,-0x18(%ebp)
    6de5:	8d 76 00             	lea    0x0(%esi),%esi
    6de8:	8b 45 c8             	mov    -0x38(%ebp),%eax
    6deb:	31 d2                	xor    %edx,%edx
    6ded:	f7 f3                	div    %ebx
    6def:	89 d6                	mov    %edx,%esi
    6df1:	8b 45 cc             	mov    -0x34(%ebp),%eax
    6df4:	31 d2                	xor    %edx,%edx
    6df6:	f7 71 04             	divl   0x4(%ecx)
    6df9:	e9 8f fb ff ff       	jmp    698d <filter_bilinear+0x22d>
    6dfe:	66 90                	xchg   %ax,%ax
    6e00:	83 c4 34             	add    $0x34,%esp
    6e03:	31 c0                	xor    %eax,%eax
    6e05:	5b                   	pop    %ebx
    6e06:	5e                   	pop    %esi
    6e07:	5f                   	pop    %edi
    6e08:	5d                   	pop    %ebp
    6e09:	c3                   	ret    
    6e0a:	8d b6 00 00 00 00    	lea    0x0(%esi),%esi
    6e10:	8b 5d c4             	mov    -0x3c(%ebp),%ebx
    6e13:	83 7d 1c 03          	cmpl   $0x3,0x1c(%ebp)
    6e17:	0f 94 45 d4          	sete   -0x2c(%ebp)
    6e1b:	85 db                	test   %ebx,%ebx
    6e1d:	0f 88 fd 01 00 00    	js     7020 <filter_bilinear+0x8c0>
    6e23:	8b 39                	mov    (%ecx),%edi
    6e25:	39 df                	cmp    %ebx,%edi
    6e27:	0f 86 7b 01 00 00    	jbe    6fa8 <filter_bilinear+0x848>
    6e2d:	89 df                	mov    %ebx,%edi
    6e2f:	31 d2                	xor    %edx,%edx
    6e31:	8b 5d c0             	mov    -0x40(%ebp),%ebx
    6e34:	85 db                	test   %ebx,%ebx
    6e36:	0f 88 3c 02 00 00    	js     7078 <filter_bilinear+0x918>
    6e3c:	8b 59 04             	mov    0x4(%ecx),%ebx
    6e3f:	8b 75 c0             	mov    -0x40(%ebp),%esi
    6e42:	39 de                	cmp    %ebx,%esi
    6e44:	0f 83 77 01 00 00    	jae    6fc1 <filter_bilinear+0x861>
    6e4a:	88 55 d4             	mov    %dl,-0x2c(%ebp)
    6e4d:	e9 1e fa ff ff       	jmp    6870 <filter_bilinear+0x110>
    6e52:	8d b6 00 00 00 00    	lea    0x0(%esi),%esi
    6e58:	83 7d 1c 03          	cmpl   $0x3,0x1c(%ebp)
    6e5c:	0f 94 c3             	sete   %bl
    6e5f:	89 df                	mov    %ebx,%edi
    6e61:	8b 5d c8             	mov    -0x38(%ebp),%ebx
    6e64:	85 db                	test   %ebx,%ebx
    6e66:	0f 88 c4 01 00 00    	js     7030 <filter_bilinear+0x8d0>
    6e6c:	8b 11                	mov    (%ecx),%edx
    6e6e:	39 da                	cmp    %ebx,%edx
    6e70:	0f 86 f2 00 00 00    	jbe    6f68 <filter_bilinear+0x808>
    6e76:	89 da                	mov    %ebx,%edx
    6e78:	c6 45 d4 00          	movb   $0x0,-0x2c(%ebp)
    6e7c:	8b 75 c0             	mov    -0x40(%ebp),%esi
    6e7f:	85 f6                	test   %esi,%esi
    6e81:	0f 88 e1 01 00 00    	js     7068 <filter_bilinear+0x908>
    6e87:	8b 59 04             	mov    0x4(%ecx),%ebx
    6e8a:	8b 75 c0             	mov    -0x40(%ebp),%esi
    6e8d:	39 de                	cmp    %ebx,%esi
    6e8f:	0f 83 ea 00 00 00    	jae    6f7f <filter_bilinear+0x81f>
    6e95:	0f b6 7d d4          	movzbl -0x2c(%ebp),%edi
    6e99:	e9 36 fa ff ff       	jmp    68d4 <filter_bilinear+0x174>
    6e9e:	66 90                	xchg   %ax,%ax
    6ea0:	8b 45 c4             	mov    -0x3c(%ebp),%eax
    6ea3:	31 d2                	xor    %edx,%edx
    6ea5:	f7 31                	divl   (%ecx)
    6ea7:	89 d6                	mov    %edx,%esi
    6ea9:	8b 45 c0             	mov    -0x40(%ebp),%eax
    6eac:	31 d2                	xor    %edx,%edx
    6eae:	31 db                	xor    %ebx,%ebx
    6eb0:	f7 71 04             	divl   0x4(%ecx)
    6eb3:	e9 85 fb ff ff       	jmp    6a3d <filter_bilinear+0x2dd>
    6eb8:	31 c0                	xor    %eax,%eax
    6eba:	e9 ac fa ff ff       	jmp    696b <filter_bilinear+0x20b>
    6ebf:	90                   	nop
    6ec0:	c7 45 e0 00 00 00 00 	movl   $0x0,-0x20(%ebp)
    6ec7:	e9 ef f9 ff ff       	jmp    68bb <filter_bilinear+0x15b>
    6ecc:	8d 74 26 00          	lea    0x0(%esi,%eiz,1),%esi
    6ed0:	8b 45 c4             	mov    -0x3c(%ebp),%eax
    6ed3:	83 7d 1c 03          	cmpl   $0x3,0x1c(%ebp)
    6ed7:	0f 94 c3             	sete   %bl
    6eda:	85 c0                	test   %eax,%eax
    6edc:	0f 88 76 01 00 00    	js     7058 <filter_bilinear+0x8f8>
    6ee2:	8b 39                	mov    (%ecx),%edi
    6ee4:	89 c6                	mov    %eax,%esi
    6ee6:	39 c7                	cmp    %eax,%edi
    6ee8:	0f 86 e2 00 00 00    	jbe    6fd0 <filter_bilinear+0x870>
    6eee:	8b 55 c0             	mov    -0x40(%ebp),%edx
    6ef1:	85 d2                	test   %edx,%edx
    6ef3:	0f 88 cc 01 00 00    	js     70c5 <filter_bilinear+0x965>
    6ef9:	89 c6                	mov    %eax,%esi
    6efb:	31 d2                	xor    %edx,%edx
    6efd:	8b 41 04             	mov    0x4(%ecx),%eax
    6f00:	8b 7d c0             	mov    -0x40(%ebp),%edi
    6f03:	39 c7                	cmp    %eax,%edi
    6f05:	0f 83 de 00 00 00    	jae    6fe9 <filter_bilinear+0x889>
    6f0b:	88 d3                	mov    %dl,%bl
    6f0d:	89 fa                	mov    %edi,%edx
    6f0f:	e9 31 fb ff ff       	jmp    6a45 <filter_bilinear+0x2e5>
    6f14:	c7 45 e0 00 00 00 00 	movl   $0x0,-0x20(%ebp)
    6f1b:	90                   	nop
    6f1c:	8d 74 26 00          	lea    0x0(%esi,%eiz,1),%esi
    6f20:	8b 45 c0             	mov    -0x40(%ebp),%eax
    6f23:	31 d2                	xor    %edx,%edx
    6f25:	f7 71 04             	divl   0x4(%ecx)
    6f28:	89 d6                	mov    %edx,%esi
    6f2a:	e9 9d fe ff ff       	jmp    6dcc <filter_bilinear+0x66c>
    6f2f:	90                   	nop
    6f30:	85 d2                	test   %edx,%edx
    6f32:	78 e0                	js     6f14 <filter_bilinear+0x7b4>
    6f34:	c6 45 d4 00          	movb   $0x0,-0x2c(%ebp)
    6f38:	e9 48 f9 ff ff       	jmp    6885 <filter_bilinear+0x125>
    6f3d:	8d 76 00             	lea    0x0(%esi),%esi
    6f40:	8b 45 cc             	mov    -0x34(%ebp),%eax
    6f43:	8d 77 ff             	lea    -0x1(%edi),%esi
    6f46:	85 c0                	test   %eax,%eax
    6f48:	0f 88 52 01 00 00    	js     70a0 <filter_bilinear+0x940>
    6f4e:	8b 51 04             	mov    0x4(%ecx),%edx
    6f51:	39 c2                	cmp    %eax,%edx
    6f53:	0f 86 9f 00 00 00    	jbe    6ff8 <filter_bilinear+0x898>
    6f59:	89 c2                	mov    %eax,%edx
    6f5b:	88 5d d5             	mov    %bl,-0x2b(%ebp)
    6f5e:	e9 2a fa ff ff       	jmp    698d <filter_bilinear+0x22d>
    6f63:	90                   	nop
    6f64:	8d 74 26 00          	lea    0x0(%esi,%eiz,1),%esi
    6f68:	8b 75 c0             	mov    -0x40(%ebp),%esi
    6f6b:	4a                   	dec    %edx
    6f6c:	85 f6                	test   %esi,%esi
    6f6e:	0f 88 3c 01 00 00    	js     70b0 <filter_bilinear+0x950>
    6f74:	8b 59 04             	mov    0x4(%ecx),%ebx
    6f77:	39 f3                	cmp    %esi,%ebx
    6f79:	0f 87 4d f9 ff ff    	ja     68cc <filter_bilinear+0x16c>
    6f7f:	8d 73 ff             	lea    -0x1(%ebx),%esi
    6f82:	e9 45 f9 ff ff       	jmp    68cc <filter_bilinear+0x16c>
    6f87:	90                   	nop
    6f88:	8b 55 cc             	mov    -0x34(%ebp),%edx
    6f8b:	4e                   	dec    %esi
    6f8c:	85 d2                	test   %edx,%edx
    6f8e:	0f 88 f4 00 00 00    	js     7088 <filter_bilinear+0x928>
    6f94:	8b 59 04             	mov    0x4(%ecx),%ebx
    6f97:	39 d3                	cmp    %edx,%ebx
    6f99:	0f 87 8c f9 ff ff    	ja     692b <filter_bilinear+0x1cb>
    6f9f:	8d 53 ff             	lea    -0x1(%ebx),%edx
    6fa2:	e9 84 f9 ff ff       	jmp    692b <filter_bilinear+0x1cb>
    6fa7:	90                   	nop
    6fa8:	8b 55 c0             	mov    -0x40(%ebp),%edx
    6fab:	4f                   	dec    %edi
    6fac:	85 d2                	test   %edx,%edx
    6fae:	0f 88 cc 00 00 00    	js     7080 <filter_bilinear+0x920>
    6fb4:	8b 59 04             	mov    0x4(%ecx),%ebx
    6fb7:	89 d6                	mov    %edx,%esi
    6fb9:	39 d3                	cmp    %edx,%ebx
    6fbb:	0f 87 a7 f8 ff ff    	ja     6868 <filter_bilinear+0x108>
    6fc1:	8d 73 ff             	lea    -0x1(%ebx),%esi
    6fc4:	e9 9f f8 ff ff       	jmp    6868 <filter_bilinear+0x108>
    6fc9:	8d b4 26 00 00 00 00 	lea    0x0(%esi,%eiz,1),%esi
    6fd0:	8b 55 c0             	mov    -0x40(%ebp),%edx
    6fd3:	8d 77 ff             	lea    -0x1(%edi),%esi
    6fd6:	85 d2                	test   %edx,%edx
    6fd8:	0f 88 ee 00 00 00    	js     70cc <filter_bilinear+0x96c>
    6fde:	8b 41 04             	mov    0x4(%ecx),%eax
    6fe1:	39 d0                	cmp    %edx,%eax
    6fe3:	0f 87 54 fa ff ff    	ja     6a3d <filter_bilinear+0x2dd>
    6fe9:	8d 50 ff             	lea    -0x1(%eax),%edx
    6fec:	e9 4c fa ff ff       	jmp    6a3d <filter_bilinear+0x2dd>
    6ff1:	8d b4 26 00 00 00 00 	lea    0x0(%esi,%eiz,1),%esi
    6ff8:	4a                   	dec    %edx
    6ff9:	88 5d d5             	mov    %bl,-0x2b(%ebp)
    6ffc:	e9 8c f9 ff ff       	jmp    698d <filter_bilinear+0x22d>
    7001:	8d b4 26 00 00 00 00 	lea    0x0(%esi,%eiz,1),%esi
    7008:	8b 75 cc             	mov    -0x34(%ebp),%esi
    700b:	85 f6                	test   %esi,%esi
    700d:	0f 88 a4 00 00 00    	js     70b7 <filter_bilinear+0x957>
    7013:	88 5d d5             	mov    %bl,-0x2b(%ebp)
    7016:	31 f6                	xor    %esi,%esi
    7018:	e9 e6 fc ff ff       	jmp    6d03 <filter_bilinear+0x5a3>
    701d:	8d 76 00             	lea    0x0(%esi),%esi
    7020:	8a 55 d4             	mov    -0x2c(%ebp),%dl
    7023:	31 ff                	xor    %edi,%edi
    7025:	e9 07 fe ff ff       	jmp    6e31 <filter_bilinear+0x6d1>
    702a:	8d b6 00 00 00 00    	lea    0x0(%esi),%esi
    7030:	89 fb                	mov    %edi,%ebx
    7032:	31 d2                	xor    %edx,%edx
    7034:	88 5d d4             	mov    %bl,-0x2c(%ebp)
    7037:	e9 40 fe ff ff       	jmp    6e7c <filter_bilinear+0x71c>
    703c:	8d 74 26 00          	lea    0x0(%esi,%eiz,1),%esi
    7040:	89 fb                	mov    %edi,%ebx
    7042:	31 f6                	xor    %esi,%esi
    7044:	88 5d c0             	mov    %bl,-0x40(%ebp)
    7047:	e9 00 fd ff ff       	jmp    6d4c <filter_bilinear+0x5ec>
    704c:	8d 74 26 00          	lea    0x0(%esi,%eiz,1),%esi
    7050:	31 d2                	xor    %edx,%edx
    7052:	e9 73 f9 ff ff       	jmp    69ca <filter_bilinear+0x26a>
    7057:	90                   	nop
    7058:	8b 7d c0             	mov    -0x40(%ebp),%edi
    705b:	85 ff                	test   %edi,%edi
    705d:	78 74                	js     70d3 <filter_bilinear+0x973>
    705f:	88 da                	mov    %bl,%dl
    7061:	31 f6                	xor    %esi,%esi
    7063:	e9 95 fe ff ff       	jmp    6efd <filter_bilinear+0x79d>
    7068:	31 f6                	xor    %esi,%esi
    706a:	e9 65 f8 ff ff       	jmp    68d4 <filter_bilinear+0x174>
    706f:	90                   	nop
    7070:	31 d2                	xor    %edx,%edx
    7072:	e9 bc f8 ff ff       	jmp    6933 <filter_bilinear+0x1d3>
    7077:	90                   	nop
    7078:	31 f6                	xor    %esi,%esi
    707a:	e9 f1 f7 ff ff       	jmp    6870 <filter_bilinear+0x110>
    707f:	90                   	nop
    7080:	31 f6                	xor    %esi,%esi
    7082:	e9 e1 f7 ff ff       	jmp    6868 <filter_bilinear+0x108>
    7087:	90                   	nop
    7088:	31 d2                	xor    %edx,%edx
    708a:	e9 9c f8 ff ff       	jmp    692b <filter_bilinear+0x1cb>
    708f:	90                   	nop
    7090:	88 5d d5             	mov    %bl,-0x2b(%ebp)
    7093:	31 d2                	xor    %edx,%edx
    7095:	e9 12 f9 ff ff       	jmp    69ac <filter_bilinear+0x24c>
    709a:	8d b6 00 00 00 00    	lea    0x0(%esi),%esi
    70a0:	88 5d d5             	mov    %bl,-0x2b(%ebp)
    70a3:	31 d2                	xor    %edx,%edx
    70a5:	e9 e3 f8 ff ff       	jmp    698d <filter_bilinear+0x22d>
    70aa:	8d b6 00 00 00 00    	lea    0x0(%esi),%esi
    70b0:	31 f6                	xor    %esi,%esi
    70b2:	e9 15 f8 ff ff       	jmp    68cc <filter_bilinear+0x16c>
    70b7:	31 c0                	xor    %eax,%eax
    70b9:	88 5d d5             	mov    %bl,-0x2b(%ebp)
    70bc:	31 f6                	xor    %esi,%esi
    70be:	31 d2                	xor    %edx,%edx
    70c0:	e9 d5 f8 ff ff       	jmp    699a <filter_bilinear+0x23a>
    70c5:	31 d2                	xor    %edx,%edx
    70c7:	e9 90 f9 ff ff       	jmp    6a5c <filter_bilinear+0x2fc>
    70cc:	31 d2                	xor    %edx,%edx
    70ce:	e9 6a f9 ff ff       	jmp    6a3d <filter_bilinear+0x2dd>
    70d3:	31 f6                	xor    %esi,%esi
    70d5:	31 c0                	xor    %eax,%eax
    70d7:	31 d2                	xor    %edx,%edx
    70d9:	e9 6c f9 ff ff       	jmp    6a4a <filter_bilinear+0x2ea>
    70de:	66 90                	xchg   %ax,%ax

000070e0 <filter_bicubic>:
    70e0:	55                   	push   %ebp
    70e1:	31 c0                	xor    %eax,%eax
    70e3:	89 e5                	mov    %esp,%ebp
    70e5:	5d                   	pop    %ebp
    70e6:	c3                   	ret    
    70e7:	66 90                	xchg   %ax,%ax
    70e9:	66 90                	xchg   %ax,%ax
    70eb:	66 90                	xchg   %ax,%ax
    70ed:	66 90                	xchg   %ax,%ax
    70ef:	90                   	nop

000070f0 <transform_product>:
    70f0:	55                   	push   %ebp
    70f1:	89 e5                	mov    %esp,%ebp
    70f3:	8b 45 10             	mov    0x10(%ebp),%eax
    70f6:	8b 55 0c             	mov    0xc(%ebp),%edx
    70f9:	8b 4d 08             	mov    0x8(%ebp),%ecx
    70fc:	dd 00                	fldl   (%eax)
    70fe:	dc 0a                	fmull  (%edx)
    7100:	d9 ee                	fldz   
    7102:	dc c1                	fadd   %st,%st(1)
    7104:	dd 42 08             	fldl   0x8(%edx)
    7107:	dd 40 18             	fldl   0x18(%eax)
    710a:	d9 c0                	fld    %st(0)
    710c:	d8 ca                	fmul   %st(2),%st
    710e:	de c4                	faddp  %st,%st(4)
    7110:	dd 42 10             	fldl   0x10(%edx)
    7113:	dd 40 30             	fldl   0x30(%eax)
    7116:	d9 c0                	fld    %st(0)
    7118:	d8 ca                	fmul   %st(2),%st
    711a:	de c6                	faddp  %st,%st(6)
    711c:	d9 cd                	fxch   %st(5)
    711e:	dd 19                	fstpl  (%ecx)
    7120:	dd 02                	fldl   (%edx)
    7122:	dd 40 08             	fldl   0x8(%eax)
    7125:	d8 c9                	fmul   %st(1),%st
    7127:	d8 c5                	fadd   %st(5),%st
    7129:	d9 cc                	fxch   %st(4)
    712b:	dc 48 20             	fmull  0x20(%eax)
    712e:	de c4                	faddp  %st,%st(4)
    7130:	dd 40 38             	fldl   0x38(%eax)
    7133:	d8 ca                	fmul   %st(2),%st
    7135:	de c4                	faddp  %st,%st(4)
    7137:	d9 cb                	fxch   %st(3)
    7139:	dd 59 08             	fstpl  0x8(%ecx)
    713c:	d9 ca                	fxch   %st(2)
    713e:	dc 48 10             	fmull  0x10(%eax)
    7141:	d8 c3                	fadd   %st(3),%st
    7143:	dd 42 08             	fldl   0x8(%edx)
    7146:	dc 48 28             	fmull  0x28(%eax)
    7149:	de c1                	faddp  %st,%st(1)
    714b:	d9 ca                	fxch   %st(2)
    714d:	dc 48 40             	fmull  0x40(%eax)
    7150:	de c2                	faddp  %st,%st(2)
    7152:	d9 c9                	fxch   %st(1)
    7154:	dd 59 10             	fstpl  0x10(%ecx)
    7157:	dd 42 18             	fldl   0x18(%edx)
    715a:	dc 08                	fmull  (%eax)
    715c:	d8 c2                	fadd   %st(2),%st
    715e:	d9 c9                	fxch   %st(1)
    7160:	dc 4a 20             	fmull  0x20(%edx)
    7163:	de c1                	faddp  %st,%st(1)
    7165:	d9 ca                	fxch   %st(2)
    7167:	dc 4a 28             	fmull  0x28(%edx)
    716a:	de c2                	faddp  %st,%st(2)
    716c:	d9 c9                	fxch   %st(1)
    716e:	dd 59 18             	fstpl  0x18(%ecx)
    7171:	dd 42 18             	fldl   0x18(%edx)
    7174:	dc 48 08             	fmull  0x8(%eax)
    7177:	d8 c1                	fadd   %st(1),%st
    7179:	dd 42 20             	fldl   0x20(%edx)
    717c:	dc 48 20             	fmull  0x20(%eax)
    717f:	de c1                	faddp  %st,%st(1)
    7181:	dd 42 28             	fldl   0x28(%edx)
    7184:	dd 40 38             	fldl   0x38(%eax)
    7187:	d8 c9                	fmul   %st(1),%st
    7189:	de c2                	faddp  %st,%st(2)
    718b:	d9 c9                	fxch   %st(1)
    718d:	dd 59 20             	fstpl  0x20(%ecx)
    7190:	dd 42 18             	fldl   0x18(%edx)
    7193:	dc 48 10             	fmull  0x10(%eax)
    7196:	d8 c2                	fadd   %st(2),%st
    7198:	dd 42 20             	fldl   0x20(%edx)
    719b:	dc 48 28             	fmull  0x28(%eax)
    719e:	de c1                	faddp  %st,%st(1)
    71a0:	d9 c9                	fxch   %st(1)
    71a2:	dc 48 40             	fmull  0x40(%eax)
    71a5:	de c1                	faddp  %st,%st(1)
    71a7:	dd 59 28             	fstpl  0x28(%ecx)
    71aa:	dd 42 30             	fldl   0x30(%edx)
    71ad:	dc 08                	fmull  (%eax)
    71af:	d8 c1                	fadd   %st(1),%st
    71b1:	dd 42 38             	fldl   0x38(%edx)
    71b4:	dc 48 18             	fmull  0x18(%eax)
    71b7:	de c1                	faddp  %st,%st(1)
    71b9:	dd 42 40             	fldl   0x40(%edx)
    71bc:	dc 48 30             	fmull  0x30(%eax)
    71bf:	de c1                	faddp  %st,%st(1)
    71c1:	dd 59 30             	fstpl  0x30(%ecx)
    71c4:	dd 42 30             	fldl   0x30(%edx)
    71c7:	dc 48 08             	fmull  0x8(%eax)
    71ca:	d8 c1                	fadd   %st(1),%st
    71cc:	dd 42 38             	fldl   0x38(%edx)
    71cf:	dc 48 20             	fmull  0x20(%eax)
    71d2:	de c1                	faddp  %st,%st(1)
    71d4:	dd 42 40             	fldl   0x40(%edx)
    71d7:	dd 40 38             	fldl   0x38(%eax)
    71da:	d8 c9                	fmul   %st(1),%st
    71dc:	de c2                	faddp  %st,%st(2)
    71de:	d9 c9                	fxch   %st(1)
    71e0:	dd 59 38             	fstpl  0x38(%ecx)
    71e3:	dd 42 30             	fldl   0x30(%edx)
    71e6:	dc 48 10             	fmull  0x10(%eax)
    71e9:	de c2                	faddp  %st,%st(2)
    71eb:	dd 42 38             	fldl   0x38(%edx)
    71ee:	dc 48 28             	fmull  0x28(%eax)
    71f1:	de c2                	faddp  %st,%st(2)
    71f3:	dc 48 40             	fmull  0x40(%eax)
    71f6:	de c1                	faddp  %st,%st(1)
    71f8:	dd 59 40             	fstpl  0x40(%ecx)
    71fb:	5d                   	pop    %ebp
    71fc:	c3                   	ret    
    71fd:	8d 76 00             	lea    0x0(%esi),%esi

00007200 <transform_invert>:
    7200:	55                   	push   %ebp
    7201:	89 e5                	mov    %esp,%ebp
    7203:	83 ec 18             	sub    $0x18,%esp
    7206:	8b 45 08             	mov    0x8(%ebp),%eax
    7209:	dd 40 20             	fldl   0x20(%eax)
    720c:	dd 40 40             	fldl   0x40(%eax)
    720f:	d8 c9                	fmul   %st(1),%st
    7211:	dd 40 28             	fldl   0x28(%eax)
    7214:	dc 48 38             	fmull  0x38(%eax)
    7217:	de e9                	fsubrp %st,%st(1)
    7219:	dd 40 30             	fldl   0x30(%eax)
    721c:	dd 40 18             	fldl   0x18(%eax)
    721f:	dd 40 28             	fldl   0x28(%eax)
    7222:	d8 ca                	fmul   %st(2),%st
    7224:	dd 40 40             	fldl   0x40(%eax)
    7227:	d8 ca                	fmul   %st(2),%st
    7229:	de e9                	fsubrp %st,%st(1)
    722b:	d9 c9                	fxch   %st(1)
    722d:	dd 55 e8             	fstl   -0x18(%ebp)
    7230:	dd 40 38             	fldl   0x38(%eax)
    7233:	de c9                	fmulp  %st,%st(1)
    7235:	d9 cc                	fxch   %st(4)
    7237:	dd 55 f8             	fstl   -0x8(%ebp)
    723a:	d9 ca                	fxch   %st(2)
    723c:	dd 55 f0             	fstl   -0x10(%ebp)
    723f:	de ca                	fmulp  %st,%st(2)
    7241:	d9 cb                	fxch   %st(3)
    7243:	de e1                	fsubp  %st,%st(1)
    7245:	dd 40 10             	fldl   0x10(%eax)
    7248:	dd 40 08             	fldl   0x8(%eax)
    724b:	dd 00                	fldl   (%eax)
    724d:	d9 c4                	fld    %st(4)
    724f:	d8 c9                	fmul   %st(1),%st
    7251:	d9 c6                	fld    %st(6)
    7253:	d8 cb                	fmul   %st(3),%st
    7255:	de c1                	faddp  %st,%st(1)
    7257:	d9 c4                	fld    %st(4)
    7259:	d8 cc                	fmul   %st(4),%st
    725b:	de c1                	faddp  %st,%st(1)
    725d:	d8 3d b4 78 00 00    	fdivrs 0x78b4
    7263:	dc cd                	fmul   %st,%st(5)
    7265:	d9 cd                	fxch   %st(5)
    7267:	dd 18                	fstpl  (%eax)
    7269:	d9 cd                	fxch   %st(5)
    726b:	d8 cc                	fmul   %st(4),%st
    726d:	dd 58 18             	fstpl  0x18(%eax)
    7270:	d9 ca                	fxch   %st(2)
    7272:	d8 cb                	fmul   %st(3),%st
    7274:	dd 58 30             	fstpl  0x30(%eax)
    7277:	dd 40 38             	fldl   0x38(%eax)
    727a:	d8 c9                	fmul   %st(1),%st
    727c:	dd 40 40             	fldl   0x40(%eax)
    727f:	d8 cb                	fmul   %st(3),%st
    7281:	de e9                	fsubrp %st,%st(1)
    7283:	d8 cb                	fmul   %st(3),%st
    7285:	dd 58 08             	fstpl  0x8(%eax)
    7288:	dd 40 40             	fldl   0x40(%eax)
    728b:	d8 cc                	fmul   %st(4),%st
    728d:	dd 45 f0             	fldl   -0x10(%ebp)
    7290:	d9 c0                	fld    %st(0)
    7292:	d8 cb                	fmul   %st(3),%st
    7294:	de ea                	fsubrp %st,%st(2)
    7296:	d9 c9                	fxch   %st(1)
    7298:	d8 cc                	fmul   %st(4),%st
    729a:	dd 58 20             	fstpl  0x20(%eax)
    729d:	d8 ca                	fmul   %st(2),%st
    729f:	dd 40 38             	fldl   0x38(%eax)
    72a2:	d8 cd                	fmul   %st(5),%st
    72a4:	de e9                	fsubrp %st,%st(1)
    72a6:	d8 cb                	fmul   %st(3),%st
    72a8:	dd 58 38             	fstpl  0x38(%eax)
    72ab:	dd 40 28             	fldl   0x28(%eax)
    72ae:	d8 ca                	fmul   %st(2),%st
    72b0:	dd 45 f8             	fldl   -0x8(%ebp)
    72b3:	d9 c0                	fld    %st(0)
    72b5:	d8 cb                	fmul   %st(3),%st
    72b7:	de ea                	fsubrp %st,%st(2)
    72b9:	d9 c9                	fxch   %st(1)
    72bb:	d8 cc                	fmul   %st(4),%st
    72bd:	dd 58 10             	fstpl  0x10(%eax)
    72c0:	dd 45 e8             	fldl   -0x18(%ebp)
    72c3:	dc ca                	fmul   %st,%st(2)
    72c5:	dd 40 28             	fldl   0x28(%eax)
    72c8:	d8 ce                	fmul   %st(6),%st
    72ca:	de eb                	fsubrp %st,%st(3)
    72cc:	d9 ca                	fxch   %st(2)
    72ce:	d8 cc                	fmul   %st(4),%st
    72d0:	dd 58 28             	fstpl  0x28(%eax)
    72d3:	de cc                	fmulp  %st,%st(4)
    72d5:	de c9                	fmulp  %st,%st(1)
    72d7:	de ea                	fsubrp %st,%st(2)
    72d9:	de c9                	fmulp  %st,%st(1)
    72db:	dd 58 40             	fstpl  0x40(%eax)
    72de:	c9                   	leave  
    72df:	c3                   	ret    

000072e0 <transform_identity>:
    72e0:	55                   	push   %ebp
    72e1:	89 e5                	mov    %esp,%ebp
    72e3:	d9 e8                	fld1   
    72e5:	8b 45 08             	mov    0x8(%ebp),%eax
    72e8:	dd 10                	fstl   (%eax)
    72ea:	d9 ee                	fldz   
    72ec:	dd 50 18             	fstl   0x18(%eax)
    72ef:	dd 50 30             	fstl   0x30(%eax)
    72f2:	dd 50 08             	fstl   0x8(%eax)
    72f5:	d9 c9                	fxch   %st(1)
    72f7:	dd 50 20             	fstl   0x20(%eax)
    72fa:	d9 c9                	fxch   %st(1)
    72fc:	dd 50 38             	fstl   0x38(%eax)
    72ff:	dd 50 10             	fstl   0x10(%eax)
    7302:	dd 58 28             	fstpl  0x28(%eax)
    7305:	dd 58 40             	fstpl  0x40(%eax)
    7308:	5d                   	pop    %ebp
    7309:	c3                   	ret    
    730a:	8d b6 00 00 00 00    	lea    0x0(%esi),%esi

00007310 <transform_translate>:
    7310:	55                   	push   %ebp
    7311:	89 e5                	mov    %esp,%ebp
    7313:	83 ec 08             	sub    $0x8,%esp
    7316:	8b 45 08             	mov    0x8(%ebp),%eax
    7319:	dd 00                	fldl   (%eax)
    731b:	dd 40 08             	fldl   0x8(%eax)
    731e:	dd 40 10             	fldl   0x10(%eax)
    7321:	d9 ee                	fldz   
    7323:	d9 c3                	fld    %st(3)
    7325:	d8 c1                	fadd   %st(1),%st
    7327:	dd 40 18             	fldl   0x18(%eax)
    732a:	d8 ca                	fmul   %st(2),%st
    732c:	dd 55 f8             	fstl   -0x8(%ebp)
    732f:	de c1                	faddp  %st,%st(1)
    7331:	dd 45 0c             	fldl   0xc(%ebp)
    7334:	dc 48 30             	fmull  0x30(%eax)
    7337:	de c1                	faddp  %st,%st(1)
    7339:	dd 18                	fstpl  (%eax)
    733b:	d9 c2                	fld    %st(2)
    733d:	d8 c1                	fadd   %st(1),%st
    733f:	dd 40 20             	fldl   0x20(%eax)
    7342:	d8 ca                	fmul   %st(2),%st
    7344:	d9 c0                	fld    %st(0)
    7346:	d9 ca                	fxch   %st(2)
    7348:	de c1                	faddp  %st,%st(1)
    734a:	dd 45 0c             	fldl   0xc(%ebp)
    734d:	dc 48 38             	fmull  0x38(%eax)
    7350:	de c1                	faddp  %st,%st(1)
    7352:	dd 58 08             	fstpl  0x8(%eax)
    7355:	d9 c2                	fld    %st(2)
    7357:	d8 c2                	fadd   %st(2),%st
    7359:	dd 40 28             	fldl   0x28(%eax)
    735c:	d8 cb                	fmul   %st(3),%st
    735e:	dc c1                	fadd   %st,%st(1)
    7360:	dd 45 0c             	fldl   0xc(%ebp)
    7363:	dc 48 40             	fmull  0x40(%eax)
    7366:	de c2                	faddp  %st,%st(2)
    7368:	d9 c9                	fxch   %st(1)
    736a:	dd 58 10             	fstpl  0x10(%eax)
    736d:	d9 cd                	fxch   %st(5)
    736f:	d8 ca                	fmul   %st(2),%st
    7371:	d8 c2                	fadd   %st(2),%st
    7373:	dd 40 18             	fldl   0x18(%eax)
    7376:	d8 c1                	fadd   %st(1),%st
    7378:	dd 45 14             	fldl   0x14(%ebp)
    737b:	dc 48 30             	fmull  0x30(%eax)
    737e:	de c1                	faddp  %st,%st(1)
    7380:	dd 58 18             	fstpl  0x18(%eax)
    7383:	d9 cc                	fxch   %st(4)
    7385:	d8 ca                	fmul   %st(2),%st
    7387:	d8 c2                	fadd   %st(2),%st
    7389:	dd 40 20             	fldl   0x20(%eax)
    738c:	d8 c1                	fadd   %st(1),%st
    738e:	dd 45 14             	fldl   0x14(%ebp)
    7391:	dc 48 38             	fmull  0x38(%eax)
    7394:	de c1                	faddp  %st,%st(1)
    7396:	dd 58 20             	fstpl  0x20(%eax)
    7399:	d9 cb                	fxch   %st(3)
    739b:	d8 ca                	fmul   %st(2),%st
    739d:	de c2                	faddp  %st,%st(2)
    739f:	dd 40 28             	fldl   0x28(%eax)
    73a2:	d8 c2                	fadd   %st(2),%st
    73a4:	dd 45 14             	fldl   0x14(%ebp)
    73a7:	dc 48 40             	fmull  0x40(%eax)
    73aa:	de c1                	faddp  %st,%st(1)
    73ac:	dd 58 28             	fstpl  0x28(%eax)
    73af:	d9 cb                	fxch   %st(3)
    73b1:	dc 45 f8             	faddl  -0x8(%ebp)
    73b4:	dc 40 30             	faddl  0x30(%eax)
    73b7:	dd 58 30             	fstpl  0x30(%eax)
    73ba:	d9 c9                	fxch   %st(1)
    73bc:	de c2                	faddp  %st,%st(2)
    73be:	d9 c9                	fxch   %st(1)
    73c0:	dc 40 38             	faddl  0x38(%eax)
    73c3:	dd 58 38             	fstpl  0x38(%eax)
    73c6:	de c1                	faddp  %st,%st(1)
    73c8:	dc 40 40             	faddl  0x40(%eax)
    73cb:	dd 58 40             	fstpl  0x40(%eax)
    73ce:	c9                   	leave  
    73cf:	c3                   	ret    

000073d0 <transform_scale>:
    73d0:	55                   	push   %ebp
    73d1:	89 e5                	mov    %esp,%ebp
    73d3:	83 ec 18             	sub    $0x18,%esp
    73d6:	8b 45 08             	mov    0x8(%ebp),%eax
    73d9:	dd 45 0c             	fldl   0xc(%ebp)
    73dc:	dd 00                	fldl   (%eax)
    73de:	dd 40 08             	fldl   0x8(%eax)
    73e1:	dd 40 10             	fldl   0x10(%eax)
    73e4:	d9 c3                	fld    %st(3)
    73e6:	d8 cb                	fmul   %st(3),%st
    73e8:	d9 ee                	fldz   
    73ea:	dc c1                	fadd   %st,%st(1)
    73ec:	dd 40 18             	fldl   0x18(%eax)
    73ef:	d8 c9                	fmul   %st(1),%st
    73f1:	dd 55 e8             	fstl   -0x18(%ebp)
    73f4:	de c2                	faddp  %st,%st(2)
    73f6:	dd 40 30             	fldl   0x30(%eax)
    73f9:	d8 c9                	fmul   %st(1),%st
    73fb:	dc c2                	fadd   %st,%st(2)
    73fd:	d9 ca                	fxch   %st(2)
    73ff:	dd 18                	fstpl  (%eax)
    7401:	d9 c5                	fld    %st(5)
    7403:	d8 cc                	fmul   %st(4),%st
    7405:	d8 c1                	fadd   %st(1),%st
    7407:	dd 40 20             	fldl   0x20(%eax)
    740a:	d8 ca                	fmul   %st(2),%st
    740c:	dd 55 f0             	fstl   -0x10(%ebp)
    740f:	de c1                	faddp  %st,%st(1)
    7411:	dd 40 38             	fldl   0x38(%eax)
    7414:	d8 ca                	fmul   %st(2),%st
    7416:	dd 55 f8             	fstl   -0x8(%ebp)
    7419:	de c1                	faddp  %st,%st(1)
    741b:	dd 58 08             	fstpl  0x8(%eax)
    741e:	d9 cd                	fxch   %st(5)
    7420:	d8 ca                	fmul   %st(2),%st
    7422:	d8 c5                	fadd   %st(5),%st
    7424:	dd 40 28             	fldl   0x28(%eax)
    7427:	d8 ce                	fmul   %st(6),%st
    7429:	dc c1                	fadd   %st,%st(1)
    742b:	dd 40 40             	fldl   0x40(%eax)
    742e:	d8 cf                	fmul   %st(7),%st
    7430:	dc c2                	fadd   %st,%st(2)
    7432:	d9 ca                	fxch   %st(2)
    7434:	dd 58 10             	fstpl  0x10(%eax)
    7437:	d9 cd                	fxch   %st(5)
    7439:	d8 ce                	fmul   %st(6),%st
    743b:	d8 c6                	fadd   %st(6),%st
    743d:	dd 45 14             	fldl   0x14(%ebp)
    7440:	dc 48 18             	fmull  0x18(%eax)
    7443:	d8 c1                	fadd   %st(1),%st
    7445:	de c3                	faddp  %st,%st(3)
    7447:	d9 ca                	fxch   %st(2)
    7449:	dd 58 18             	fstpl  0x18(%eax)
    744c:	d9 cb                	fxch   %st(3)
    744e:	d8 cd                	fmul   %st(5),%st
    7450:	d8 c5                	fadd   %st(5),%st
    7452:	dd 45 14             	fldl   0x14(%ebp)
    7455:	dc 48 20             	fmull  0x20(%eax)
    7458:	d8 c1                	fadd   %st(1),%st
    745a:	dc 45 f8             	faddl  -0x8(%ebp)
    745d:	dd 58 20             	fstpl  0x20(%eax)
    7460:	d9 ca                	fxch   %st(2)
    7462:	d8 cd                	fmul   %st(5),%st
    7464:	de c5                	faddp  %st,%st(5)
    7466:	dd 45 14             	fldl   0x14(%ebp)
    7469:	dc 48 28             	fmull  0x28(%eax)
    746c:	d8 c5                	fadd   %st(5),%st
    746e:	de c3                	faddp  %st,%st(3)
    7470:	d9 ca                	fxch   %st(2)
    7472:	dd 58 28             	fstpl  0x28(%eax)
    7475:	d9 c9                	fxch   %st(1)
    7477:	dc 45 e8             	faddl  -0x18(%ebp)
    747a:	dc 40 30             	faddl  0x30(%eax)
    747d:	dd 58 30             	fstpl  0x30(%eax)
    7480:	dc 45 f0             	faddl  -0x10(%ebp)
    7483:	dc 40 38             	faddl  0x38(%eax)
    7486:	dd 58 38             	fstpl  0x38(%eax)
    7489:	de c1                	faddp  %st,%st(1)
    748b:	dc 40 40             	faddl  0x40(%eax)
    748e:	dd 58 40             	fstpl  0x40(%eax)
    7491:	c9                   	leave  
    7492:	c3                   	ret    
    7493:	8d b6 00 00 00 00    	lea    0x0(%esi),%esi
    7499:	8d bc 27 00 00 00 00 	lea    0x0(%edi,%eiz,1),%edi

000074a0 <transform_rotate>:
    74a0:	55                   	push   %ebp
    74a1:	89 e5                	mov    %esp,%ebp
    74a3:	53                   	push   %ebx
    74a4:	83 ec 54             	sub    $0x54,%esp
    74a7:	dd 45 0c             	fldl   0xc(%ebp)
    74aa:	8b 5d 08             	mov    0x8(%ebp),%ebx
    74ad:	dd 55 f0             	fstl   -0x10(%ebp)
    74b0:	dd 1c 24             	fstpl  (%esp)
    74b3:	e8 28 06 00 00       	call   7ae0 <cos_f64@plt>
    74b8:	58                   	pop    %eax
    74b9:	8b 4d f4             	mov    -0xc(%ebp),%ecx
    74bc:	8b 45 f0             	mov    -0x10(%ebp),%eax
    74bf:	dd 5d e0             	fstpl  -0x20(%ebp)
    74c2:	5a                   	pop    %edx
    74c3:	51                   	push   %ecx
    74c4:	50                   	push   %eax
    74c5:	e8 76 08 00 00       	call   7d40 <sin_f64@plt>
    74ca:	58                   	pop    %eax
    74cb:	8b 4d f4             	mov    -0xc(%ebp),%ecx
    74ce:	dd 5d e8             	fstpl  -0x18(%ebp)
    74d1:	8b 45 f0             	mov    -0x10(%ebp),%eax
    74d4:	5a                   	pop    %edx
    74d5:	51                   	push   %ecx
    74d6:	50                   	push   %eax
    74d7:	e8 64 08 00 00       	call   7d40 <sin_f64@plt>
    74dc:	58                   	pop    %eax
    74dd:	d9 e0                	fchs   
    74df:	8b 4d f4             	mov    -0xc(%ebp),%ecx
    74e2:	8b 45 f0             	mov    -0x10(%ebp),%eax
    74e5:	dd 5d c8             	fstpl  -0x38(%ebp)
    74e8:	5a                   	pop    %edx
    74e9:	51                   	push   %ecx
    74ea:	50                   	push   %eax
    74eb:	e8 f0 05 00 00       	call   7ae0 <cos_f64@plt>
    74f0:	dd 03                	fldl   (%ebx)
    74f2:	dd 43 08             	fldl   0x8(%ebx)
    74f5:	83 c4 10             	add    $0x10,%esp
    74f8:	dd 5d f0             	fstpl  -0x10(%ebp)
    74fb:	dd 43 10             	fldl   0x10(%ebx)
    74fe:	dd 43 18             	fldl   0x18(%ebx)
    7501:	dd 43 20             	fldl   0x20(%ebx)
    7504:	dd 43 28             	fldl   0x28(%ebx)
    7507:	dd 5d d0             	fstpl  -0x30(%ebp)
    750a:	dd 45 e0             	fldl   -0x20(%ebp)
    750d:	d8 cc                	fmul   %st(4),%st
    750f:	d9 ee                	fldz   
    7511:	dc c1                	fadd   %st,%st(1)
    7513:	d9 cb                	fxch   %st(3)
    7515:	dd 55 d8             	fstl   -0x28(%ebp)
    7518:	dd 45 c8             	fldl   -0x38(%ebp)
    751b:	dc c9                	fmul   %st,%st(1)
    751d:	d9 ca                	fxch   %st(2)
    751f:	de c1                	faddp  %st,%st(1)
    7521:	dd 43 30             	fldl   0x30(%ebx)
    7524:	d8 cc                	fmul   %st(4),%st
    7526:	dd 55 c0             	fstl   -0x40(%ebp)
    7529:	de c1                	faddp  %st,%st(1)
    752b:	dd 1b                	fstpl  (%ebx)
    752d:	dd 45 e0             	fldl   -0x20(%ebp)
    7530:	dc 4d f0             	fmull  -0x10(%ebp)
    7533:	d8 c3                	fadd   %st(3),%st
    7535:	d9 c1                	fld    %st(1)
    7537:	d8 cb                	fmul   %st(3),%st
    7539:	de c1                	faddp  %st,%st(1)
    753b:	dd 43 38             	fldl   0x38(%ebx)
    753e:	d8 cc                	fmul   %st(4),%st
    7540:	dd 55 c8             	fstl   -0x38(%ebp)
    7543:	de c1                	faddp  %st,%st(1)
    7545:	dd 5b 08             	fstpl  0x8(%ebx)
    7548:	dd 45 e0             	fldl   -0x20(%ebp)
    754b:	d8 cc                	fmul   %st(4),%st
    754d:	d8 c3                	fadd   %st(3),%st
    754f:	dd 45 d0             	fldl   -0x30(%ebp)
    7552:	de ca                	fmulp  %st,%st(2)
    7554:	de c1                	faddp  %st,%st(1)
    7556:	dd 43 40             	fldl   0x40(%ebx)
    7559:	d8 cb                	fmul   %st(3),%st
    755b:	dc c1                	fadd   %st,%st(1)
    755d:	d9 c9                	fxch   %st(1)
    755f:	dd 5b 10             	fstpl  0x10(%ebx)
    7562:	dd 45 e8             	fldl   -0x18(%ebp)
    7565:	d8 cd                	fmul   %st(5),%st
    7567:	d8 c3                	fadd   %st(3),%st
    7569:	dd 45 d8             	fldl   -0x28(%ebp)
    756c:	d8 cf                	fmul   %st(7),%st
    756e:	de c1                	faddp  %st,%st(1)
    7570:	dc 45 c0             	faddl  -0x40(%ebp)
    7573:	dd 5b 18             	fstpl  0x18(%ebx)
    7576:	dd 45 e8             	fldl   -0x18(%ebp)
    7579:	dc 4d f0             	fmull  -0x10(%ebp)
    757c:	d8 c3                	fadd   %st(3),%st
    757e:	d9 c6                	fld    %st(6)
    7580:	d8 cb                	fmul   %st(3),%st
    7582:	de c1                	faddp  %st,%st(1)
    7584:	dc 45 c8             	faddl  -0x38(%ebp)
    7587:	dd 5b 20             	fstpl  0x20(%ebx)
    758a:	dd 45 e8             	fldl   -0x18(%ebp)
    758d:	d8 cc                	fmul   %st(4),%st
    758f:	d8 c3                	fadd   %st(3),%st
    7591:	dd 45 d0             	fldl   -0x30(%ebp)
    7594:	dc cf                	fmul   %st,%st(7)
    7596:	d9 cf                	fxch   %st(7)
    7598:	de c1                	faddp  %st,%st(1)
    759a:	de c1                	faddp  %st,%st(1)
    759c:	dd 5b 28             	fstpl  0x28(%ebx)
    759f:	d9 cb                	fxch   %st(3)
    75a1:	d8 c9                	fmul   %st(1),%st
    75a3:	d8 c1                	fadd   %st(1),%st
    75a5:	dd 45 d8             	fldl   -0x28(%ebp)
    75a8:	d8 ca                	fmul   %st(2),%st
    75aa:	de c1                	faddp  %st,%st(1)
    75ac:	dc 43 30             	faddl  0x30(%ebx)
    75af:	dd 5b 30             	fstpl  0x30(%ebx)
    75b2:	dd 45 f0             	fldl   -0x10(%ebp)
    75b5:	d8 c9                	fmul   %st(1),%st
    75b7:	d8 c1                	fadd   %st(1),%st
    75b9:	d9 cb                	fxch   %st(3)
    75bb:	d8 c9                	fmul   %st(1),%st
    75bd:	de c3                	faddp  %st,%st(3)
    75bf:	d9 ca                	fxch   %st(2)
    75c1:	dc 43 38             	faddl  0x38(%ebx)
    75c4:	dd 5b 38             	fstpl  0x38(%ebx)
    75c7:	d8 c9                	fmul   %st(1),%st
    75c9:	d8 c1                	fadd   %st(1),%st
    75cb:	d9 c9                	fxch   %st(1)
    75cd:	de ca                	fmulp  %st,%st(2)
    75cf:	de c1                	faddp  %st,%st(1)
    75d1:	dc 43 40             	faddl  0x40(%ebx)
    75d4:	dd 5b 40             	fstpl  0x40(%ebx)
    75d7:	8b 5d fc             	mov    -0x4(%ebp),%ebx
    75da:	c9                   	leave  
    75db:	c3                   	ret    
    75dc:	8d 74 26 00          	lea    0x0(%esi,%eiz,1),%esi

000075e0 <transform_is_fast>:
    75e0:	55                   	push   %ebp
    75e1:	89 e5                	mov    %esp,%ebp
    75e3:	53                   	push   %ebx
    75e4:	83 ec 14             	sub    $0x14,%esp
    75e7:	8b 5d 08             	mov    0x8(%ebp),%ebx
    75ea:	d9 e8                	fld1   
    75ec:	dd 03                	fldl   (%ebx)
    75ee:	dd e9                	fucomp %st(1)
    75f0:	df e0                	fnstsw %ax
    75f2:	80 e4 45             	and    $0x45,%ah
    75f5:	80 fc 40             	cmp    $0x40,%ah
    75f8:	75 36                	jne    7630 <transform_is_fast+0x50>
    75fa:	d9 ee                	fldz   
    75fc:	dd 43 08             	fldl   0x8(%ebx)
    75ff:	dd e9                	fucomp %st(1)
    7601:	df e0                	fnstsw %ax
    7603:	80 e4 45             	and    $0x45,%ah
    7606:	80 f4 40             	xor    $0x40,%ah
    7609:	75 2d                	jne    7638 <transform_is_fast+0x58>
    760b:	dd 43 18             	fldl   0x18(%ebx)
    760e:	dd e9                	fucomp %st(1)
    7610:	df e0                	fnstsw %ax
    7612:	80 e4 45             	and    $0x45,%ah
    7615:	80 f4 40             	xor    $0x40,%ah
    7618:	75 26                	jne    7640 <transform_is_fast+0x60>
    761a:	dd 43 20             	fldl   0x20(%ebx)
    761d:	dd ea                	fucomp %st(2)
    761f:	df e0                	fnstsw %ax
    7621:	dd d9                	fstp   %st(1)
    7623:	80 e4 45             	and    $0x45,%ah
    7626:	80 f4 40             	xor    $0x40,%ah
    7629:	74 25                	je     7650 <transform_is_fast+0x70>
    762b:	dd d8                	fstp   %st(0)
    762d:	eb 19                	jmp    7648 <transform_is_fast+0x68>
    762f:	90                   	nop
    7630:	dd d8                	fstp   %st(0)
    7632:	eb 14                	jmp    7648 <transform_is_fast+0x68>
    7634:	8d 74 26 00          	lea    0x0(%esi,%eiz,1),%esi
    7638:	dd d8                	fstp   %st(0)
    763a:	dd d8                	fstp   %st(0)
    763c:	eb 0a                	jmp    7648 <transform_is_fast+0x68>
    763e:	66 90                	xchg   %ax,%ax
    7640:	dd d8                	fstp   %st(0)
    7642:	dd d8                	fstp   %st(0)
    7644:	8d 74 26 00          	lea    0x0(%esi,%eiz,1),%esi
    7648:	31 c0                	xor    %eax,%eax
    764a:	8b 5d fc             	mov    -0x4(%ebp),%ebx
    764d:	c9                   	leave  
    764e:	c3                   	ret    
    764f:	90                   	nop
    7650:	dd 5d e8             	fstpl  -0x18(%ebp)
    7653:	83 ec 10             	sub    $0x10,%esp
    7656:	dd 43 10             	fldl   0x10(%ebx)
    7659:	dd 14 24             	fstl   (%esp)
    765c:	dd 5d f0             	fstpl  -0x10(%ebp)
    765f:	e8 6c 05 00 00       	call   7bd0 <trunc_f64@plt>
    7664:	83 c4 10             	add    $0x10,%esp
    7667:	dd 45 f0             	fldl   -0x10(%ebp)
    766a:	de e1                	fsubp  %st,%st(1)
    766c:	dd 45 e8             	fldl   -0x18(%ebp)
    766f:	d9 c9                	fxch   %st(1)
    7671:	da e9                	fucompp 
    7673:	df e0                	fnstsw %ax
    7675:	80 e4 45             	and    $0x45,%ah
    7678:	80 f4 40             	xor    $0x40,%ah
    767b:	75 cb                	jne    7648 <transform_is_fast+0x68>
    767d:	dd 43 28             	fldl   0x28(%ebx)
    7680:	83 ec 10             	sub    $0x10,%esp
    7683:	dd 14 24             	fstl   (%esp)
    7686:	dd 5d f0             	fstpl  -0x10(%ebp)
    7689:	e8 42 05 00 00       	call   7bd0 <trunc_f64@plt>
    768e:	83 c4 10             	add    $0x10,%esp
    7691:	dd 45 f0             	fldl   -0x10(%ebp)
    7694:	de e1                	fsubp  %st,%st(1)
    7696:	dd 45 e8             	fldl   -0x18(%ebp)
    7699:	d9 c9                	fxch   %st(1)
    769b:	da e9                	fucompp 
    769d:	df e0                	fnstsw %ax
    769f:	80 e4 45             	and    $0x45,%ah
    76a2:	80 fc 40             	cmp    $0x40,%ah
    76a5:	0f 94 c0             	sete   %al
    76a8:	eb a0                	jmp    764a <transform_is_fast+0x6a>
    76aa:	8d b6 00 00 00 00    	lea    0x0(%esi),%esi

000076b0 <transform_apply_linear>:
    76b0:	55                   	push   %ebp
    76b1:	89 e5                	mov    %esp,%ebp
    76b3:	8b 4d 0c             	mov    0xc(%ebp),%ecx
    76b6:	8b 55 10             	mov    0x10(%ebp),%edx
    76b9:	8b 45 08             	mov    0x8(%ebp),%eax
    76bc:	dd 01                	fldl   (%ecx)
    76be:	dd 02                	fldl   (%edx)
    76c0:	dd 00                	fldl   (%eax)
    76c2:	d8 ca                	fmul   %st(2),%st
    76c4:	dd 40 08             	fldl   0x8(%eax)
    76c7:	d8 ca                	fmul   %st(2),%st
    76c9:	de c1                	faddp  %st,%st(1)
    76cb:	dd 19                	fstpl  (%ecx)
    76cd:	d9 c9                	fxch   %st(1)
    76cf:	dc 48 18             	fmull  0x18(%eax)
    76d2:	d9 c9                	fxch   %st(1)
    76d4:	dc 48 20             	fmull  0x20(%eax)
    76d7:	de c1                	faddp  %st,%st(1)
    76d9:	dd 1a                	fstpl  (%edx)
    76db:	5d                   	pop    %ebp
    76dc:	c3                   	ret    
    76dd:	8d 76 00             	lea    0x0(%esi),%esi

000076e0 <transform_apply_affine>:
    76e0:	55                   	push   %ebp
    76e1:	89 e5                	mov    %esp,%ebp
    76e3:	8b 4d 0c             	mov    0xc(%ebp),%ecx
    76e6:	8b 55 10             	mov    0x10(%ebp),%edx
    76e9:	8b 45 08             	mov    0x8(%ebp),%eax
    76ec:	dd 01                	fldl   (%ecx)
    76ee:	dd 02                	fldl   (%edx)
    76f0:	dd 00                	fldl   (%eax)
    76f2:	d8 ca                	fmul   %st(2),%st
    76f4:	dd 40 08             	fldl   0x8(%eax)
    76f7:	d8 ca                	fmul   %st(2),%st
    76f9:	de c1                	faddp  %st,%st(1)
    76fb:	dc 40 10             	faddl  0x10(%eax)
    76fe:	dd 19                	fstpl  (%ecx)
    7700:	d9 c9                	fxch   %st(1)
    7702:	dc 48 18             	fmull  0x18(%eax)
    7705:	d9 c9                	fxch   %st(1)
    7707:	dc 48 20             	fmull  0x20(%eax)
    770a:	de c1                	faddp  %st,%st(1)
    770c:	dc 40 28             	faddl  0x28(%eax)
    770f:	dd 1a                	fstpl  (%edx)
    7711:	5d                   	pop    %ebp
    7712:	c3                   	ret    
    7713:	76 74                	jbe    7789 <transform_apply_affine+0xa9>
    7715:	65 72 6d             	gs jb  7785 <transform_apply_affine+0xa5>
    7718:	00 25 73 3a 20 43    	add    %ah,0x43203a73
    771e:	61                   	popa   
    771f:	6e                   	outsb  %ds:(%esi),(%dx)
    7720:	6e                   	outsb  %ds:(%esi),(%dx)
    7721:	6f                   	outsl  %ds:(%esi),(%dx)
    7722:	74 20                	je     7744 <transform_apply_affine+0x64>
    7724:	6f                   	outsl  %ds:(%esi),(%dx)
    7725:	70 65                	jo     778c <transform_apply_affine+0xac>
    7727:	6e                   	outsb  %ds:(%esi),(%dx)
    7728:	20 6d 61             	and    %ch,0x61(%ebp)
    772b:	69 6e 20 77 69 6e 64 	imul   $0x646e6977,0x20(%esi),%ebp
    7732:	6f                   	outsl  %ds:(%esi),(%dx)
    7733:	77 2e                	ja     7763 <transform_apply_affine+0x83>
    7735:	0a 00                	or     (%eax),%al
    7737:	25 73 3a 20 43       	and    $0x43203a73,%eax
    773c:	61                   	popa   
    773d:	6e                   	outsb  %ds:(%esi),(%dx)
    773e:	6e                   	outsb  %ds:(%esi),(%dx)
    773f:	6f                   	outsl  %ds:(%esi),(%dx)
    7740:	74 20                	je     7762 <transform_apply_affine+0x82>
    7742:	63 72 65             	arpl   %si,0x65(%edx)
    7745:	61                   	popa   
    7746:	74 65                	je     77ad <transform_apply_affine+0xcd>
    7748:	20 77 69             	and    %dh,0x69(%edi)
    774b:	64 67 65 74 73       	fs addr16 gs je 77c3 <color_table+0x3>
    7750:	2e 0a 00             	or     %cs:(%eax),%al
    7753:	90                   	nop
    7754:	25 73 3a 20 43       	and    $0x43203a73,%eax
    7759:	6f                   	outsl  %ds:(%esi),(%dx)
    775a:	6d                   	insl   (%dx),%es:(%edi)
    775b:	70 6f                	jo     77cc <color_table+0xc>
    775d:	73 69                	jae    77c8 <color_table+0x8>
    775f:	74 6f                	je     77d0 <color_table+0x10>
    7761:	72 20                	jb     7783 <transform_apply_affine+0xa3>
    7763:	73 65                	jae    77ca <color_table+0xa>
    7765:	72 76                	jb     77dd <color_table+0x1d>
    7767:	65 72 20             	gs jb  778a <transform_apply_affine+0xaa>
    776a:	6e                   	outsb  %ds:(%esi),(%dx)
    776b:	6f                   	outsl  %ds:(%esi),(%dx)
    776c:	74 20                	je     778e <transform_apply_affine+0xae>
    776e:	73 70                	jae    77e0 <color_table+0x20>
    7770:	65 63 69 66          	arpl   %bp,%gs:0x66(%ecx)
    7774:	69 65 64 2e 0a 00 00 	imul   $0xa2e,0x64(%ebp),%esp
    777b:	00 25 73 2f 25 6c    	add    %ah,0x6c252f73
    7781:	6c                   	insb   (%dx),%es:(%edi)
    7782:	75 00                	jne    7784 <transform_apply_affine+0xa4>
    7784:	2f                   	das    
    7785:	61                   	popa   
    7786:	70 70                	jo     77f8 <color_table+0x38>
    7788:	2f                   	das    
    7789:	62 64 73 68          	bound  %esp,0x68(%ebx,%esi,2)
    778d:	00 2d 2d 00 2d 2d    	add    %ch,0x2d2d002d
    7793:	77 61                	ja     77f6 <color_table+0x36>
    7795:	69 74 00 2d 2d 6d 73 	imul   $0x67736d2d,0x2d(%eax,%eax,1),%esi
    779c:	67 
    779d:	00 2f                	add    %ch,(%edi)
    779f:	6c                   	insb   (%dx),%es:(%edi)
    77a0:	6f                   	outsl  %ds:(%esi),(%dx)
    77a1:	63 00                	arpl   %ax,(%eax)
    77a3:	2f                   	das    
    77a4:	61                   	popa   
    77a5:	70 70                	jo     7817 <color_table+0x57>
    77a7:	2f                   	das    
    77a8:	67 65 74 74          	addr16 gs je 7820 <color_table+0x60>
    77ac:	65 72 6d             	gs jb  781c <color_table+0x5c>
    77af:	00 66 90             	add    %ah,-0x70(%esi)
    77b2:	66 90                	xchg   %ax,%ax
    77b4:	66 90                	xchg   %ax,%ax
    77b6:	66 90                	xchg   %ax,%ax
    77b8:	66 90                	xchg   %ax,%ax
    77ba:	66 90                	xchg   %ax,%ax
    77bc:	66 90                	xchg   %ax,%ax
    77be:	66 90                	xchg   %ax,%ax

000077c0 <color_table>:
    77c0:	00 00 00 ff f0 00 00 ff 00 f0 00 ff f0 f0 00 ff     ................
    77d0:	00 00 f0 ff f0 00 f0 ff 00 f0 f0 ff f0 f0 f0 ff     ................
    77e0:	00 00 00 ff ff 00 00 ff 00 ff 00 ff ff ff 00 ff     ................
    77f0:	00 00 ff ff ff 00 ff ff 00 ff ff ff ff ff ff ff     ................
    7800:	30 3a 00 00 d8 38 00 00 b0 38 00 00 80 38 00 00     0:...8...8...8..
    7810:	58 38 00 00 c8 36 00 00 a8 36 00 00 20 36 00 00     X8...6...6.. 6..
    7820:	38 39 00 00                                         89..

00007824 <cross_mask>:
    7824:	00 00 02 18 06 0c 0c 06 18 03 b0 01 e0 00 e0 00     ................
    7834:	b0 01 18 03 0c 06 06 0c 03 18 00 00                 ............

00007840 <cross_texture>:
    7840:	00 00 02 08 04 04 08 02 10 01 a0 00 40 00 a0 00     ............@...
    7850:	10 01 08 02 04 04 02 08 01 10 00 00 00 00 00 3f     ...............?
    7860:	64 72 61 77 63 74 78 2e 63 00 73 75 72 66 61 63     drawctx.c.surfac
    7870:	65 00 73 6f 75 72 63 65 2e 63 00 73 6f 75 72 63     e.source.c.sourc
    7880:	65 5f 69 73 5f 66 61 73 74 28 73 6f 75 72 63 65     e_is_fast(source
    7890:	29 00 66 90 00 00 7f 43 73 75 72 66 61 63 65 2e     ).f....Csurface.
    78a0:	63 00 77 69 64 74 68 00 68 65 69 67 68 74 00 78     c.width.height.x
    78b0:	00 79 00 90 00 00 80 3f                             .y.....?

Disassembly of section .plt:

00007ac0 <__main@plt-0x10>:
    7ac0:	ff 35 b4 4f 01 00    	pushl  0x14fb4
    7ac6:	ff 25 b8 4f 01 00    	jmp    *0x14fb8
    7acc:	00 00                	add    %al,(%eax)
	...

00007ad0 <__main@plt>:
    7ad0:	ff 25 bc 4f 01 00    	jmp    *0x14fbc
    7ad6:	68 00 00 00 00       	push   $0x0
    7adb:	e9 e0 ff ff ff       	jmp    7ac0 <cross_texture+0x280>

00007ae0 <cos_f64@plt>:
    7ae0:	ff 25 c0 4f 01 00    	jmp    *0x14fc0
    7ae6:	68 08 00 00 00       	push   $0x8
    7aeb:	e9 d0 ff ff ff       	jmp    7ac0 <cross_texture+0x280>

00007af0 <win_grab@plt>:
    7af0:	ff 25 c4 4f 01 00    	jmp    *0x14fc4
    7af6:	68 10 00 00 00       	push   $0x10
    7afb:	e9 c0 ff ff ff       	jmp    7ac0 <cross_texture+0x280>

00007b00 <task_retval@plt>:
    7b00:	ff 25 c8 4f 01 00    	jmp    *0x14fc8
    7b06:	68 18 00 00 00       	push   $0x18
    7b0b:	e9 b0 ff ff ff       	jmp    7ac0 <cross_texture+0x280>

00007b10 <loc_service_connect@plt>:
    7b10:	ff 25 cc 4f 01 00    	jmp    *0x14fcc
    7b16:	68 20 00 00 00       	push   $0x20
    7b1b:	e9 a0 ff ff ff       	jmp    7ac0 <cross_texture+0x280>

00007b20 <printf@plt>:
    7b20:	ff 25 d0 4f 01 00    	jmp    *0x14fd0
    7b26:	68 28 00 00 00       	push   $0x28
    7b2b:	e9 90 ff ff ff       	jmp    7ac0 <cross_texture+0x280>

00007b30 <async_hangup@plt>:
    7b30:	ff 25 d4 4f 01 00    	jmp    *0x14fd4
    7b36:	68 30 00 00 00       	push   $0x30
    7b3b:	e9 80 ff ff ff       	jmp    7ac0 <cross_texture+0x280>

00007b40 <chargrid_set_style@plt>:
    7b40:	ff 25 d8 4f 01 00    	jmp    *0x14fd8
    7b46:	68 38 00 00 00       	push   $0x38
    7b4b:	e9 70 ff ff ff       	jmp    7ac0 <cross_texture+0x280>

00007b50 <chargrid_create@plt>:
    7b50:	ff 25 dc 4f 01 00    	jmp    *0x14fdc
    7b56:	68 40 00 00 00       	push   $0x40
    7b5b:	e9 60 ff ff ff       	jmp    7ac0 <cross_texture+0x280>

00007b60 <chargrid_set_cursor@plt>:
    7b60:	ff 25 e0 4f 01 00    	jmp    *0x14fe0
    7b66:	68 48 00 00 00       	push   $0x48
    7b6b:	e9 50 ff ff ff       	jmp    7ac0 <cross_texture+0x280>

00007b70 <snprintf@plt>:
    7b70:	ff 25 e4 4f 01 00    	jmp    *0x14fe4
    7b76:	68 50 00 00 00       	push   $0x50
    7b7b:	e9 40 ff ff ff       	jmp    7ac0 <cross_texture+0x280>

00007b80 <loc_service_register@plt>:
    7b80:	ff 25 e8 4f 01 00    	jmp    *0x14fe8
    7b86:	68 58 00 00 00       	push   $0x58
    7b8b:	e9 30 ff ff ff       	jmp    7ac0 <cross_texture+0x280>

00007b90 <chargrid_backspace@plt>:
    7b90:	ff 25 ec 4f 01 00    	jmp    *0x14fec
    7b96:	68 60 00 00 00       	push   $0x60
    7b9b:	e9 20 ff ff ff       	jmp    7ac0 <cross_texture+0x280>

00007ba0 <str_decode@plt>:
    7ba0:	ff 25 f0 4f 01 00    	jmp    *0x14ff0
    7ba6:	68 68 00 00 00       	push   $0x68
    7bab:	e9 10 ff ff ff       	jmp    7ac0 <cross_texture+0x280>

00007bb0 <malloc@plt>:
    7bb0:	ff 25 f4 4f 01 00    	jmp    *0x14ff4
    7bb6:	68 70 00 00 00       	push   $0x70
    7bbb:	e9 00 ff ff ff       	jmp    7ac0 <cross_texture+0x280>

00007bc0 <chargrid_clear@plt>:
    7bc0:	ff 25 f8 4f 01 00    	jmp    *0x14ff8
    7bc6:	68 78 00 00 00       	push   $0x78
    7bcb:	e9 f0 fe ff ff       	jmp    7ac0 <cross_texture+0x280>

00007bd0 <trunc_f64@plt>:
    7bd0:	ff 25 fc 4f 01 00    	jmp    *0x14ffc
    7bd6:	68 80 00 00 00       	push   $0x80
    7bdb:	e9 e0 fe ff ff       	jmp    7ac0 <cross_texture+0x280>

00007be0 <loc_service_get_id@plt>:
    7be0:	ff 25 00 50 01 00    	jmp    *0x15000
    7be6:	68 88 00 00 00       	push   $0x88
    7beb:	e9 d0 fe ff ff       	jmp    7ac0 <cross_texture+0x280>

00007bf0 <as_area_destroy@plt>:
    7bf0:	ff 25 04 50 01 00    	jmp    *0x15004
    7bf6:	68 90 00 00 00       	push   $0x90
    7bfb:	e9 c0 fe ff ff       	jmp    7ac0 <cross_texture+0x280>

00007c00 <async_answer_0@plt>:
    7c00:	ff 25 08 50 01 00    	jmp    *0x15008
    7c06:	68 98 00 00 00       	push   $0x98
    7c0b:	e9 b0 fe ff ff       	jmp    7ac0 <cross_texture+0x280>

00007c10 <win_resize@plt>:
    7c10:	ff 25 0c 50 01 00    	jmp    *0x1500c
    7c16:	68 a0 00 00 00       	push   $0xa0
    7c1b:	e9 a0 fe ff ff       	jmp    7ac0 <cross_texture+0x280>

00007c20 <assert_abort@plt>:
    7c20:	ff 25 10 50 01 00    	jmp    *0x15010
    7c26:	68 a8 00 00 00       	push   $0xa8
    7c2b:	e9 90 fe ff ff       	jmp    7ac0 <cross_texture+0x280>

00007c30 <calloc@plt>:
    7c30:	ff 25 14 50 01 00    	jmp    *0x15014
    7c36:	68 b0 00 00 00       	push   $0xb0
    7c3b:	e9 80 fe ff ff       	jmp    7ac0 <cross_texture+0x280>

00007c40 <con_conn@plt>:
    7c40:	ff 25 18 50 01 00    	jmp    *0x15018
    7c46:	68 b8 00 00 00       	push   $0xb8
    7c4b:	e9 70 fe ff ff       	jmp    7ac0 <cross_texture+0x280>

00007c50 <chargrid_set_cursor_visibility@plt>:
    7c50:	ff 25 1c 50 01 00    	jmp    *0x1501c
    7c56:	68 c0 00 00 00       	push   $0xc0
    7c5b:	e9 60 fe ff ff       	jmp    7ac0 <cross_texture+0x280>

00007c60 <wstr_to_str@plt>:
    7c60:	ff 25 20 50 01 00    	jmp    *0x15020
    7c66:	68 c8 00 00 00       	push   $0xc8
    7c6b:	e9 50 fe ff ff       	jmp    7ac0 <cross_texture+0x280>

00007c70 <chargrid_get_cursor@plt>:
    7c70:	ff 25 24 50 01 00    	jmp    *0x15024
    7c76:	68 d0 00 00 00       	push   $0xd0
    7c7b:	e9 40 fe ff ff       	jmp    7ac0 <cross_texture+0x280>

00007c80 <fibril_mutex_unlock@plt>:
    7c80:	ff 25 28 50 01 00    	jmp    *0x15028
    7c86:	68 d8 00 00 00       	push   $0xd8
    7c8b:	e9 30 fe ff ff       	jmp    7ac0 <cross_texture+0x280>

00007c90 <str_dup@plt>:
    7c90:	ff 25 2c 50 01 00    	jmp    *0x1502c
    7c96:	68 e0 00 00 00       	push   $0xe0
    7c9b:	e9 20 fe ff ff       	jmp    7ac0 <cross_texture+0x280>

00007ca0 <fibril_mutex_initialize@plt>:
    7ca0:	ff 25 30 50 01 00    	jmp    *0x15030
    7ca6:	68 e8 00 00 00       	push   $0xe8
    7cab:	e9 10 fe ff ff       	jmp    7ac0 <cross_texture+0x280>

00007cb0 <chargrid_set_color@plt>:
    7cb0:	ff 25 34 50 01 00    	jmp    *0x15034
    7cb6:	68 f0 00 00 00       	push   $0xf0
    7cbb:	e9 00 fe ff ff       	jmp    7ac0 <cross_texture+0x280>

00007cc0 <win_get_event@plt>:
    7cc0:	ff 25 38 50 01 00    	jmp    *0x15038
    7cc6:	68 f8 00 00 00       	push   $0xf8
    7ccb:	e9 f0 fd ff ff       	jmp    7ac0 <cross_texture+0x280>

00007cd0 <con_srvs_init@plt>:
    7cd0:	ff 25 3c 50 01 00    	jmp    *0x1503c
    7cd6:	68 00 01 00 00       	push   $0x100
    7cdb:	e9 e0 fd ff ff       	jmp    7ac0 <cross_texture+0x280>

00007ce0 <prodcons_initialize@plt>:
    7ce0:	ff 25 40 50 01 00    	jmp    *0x15040
    7ce6:	68 08 01 00 00       	push   $0x108
    7ceb:	e9 d0 fd ff ff       	jmp    7ac0 <cross_texture+0x280>

00007cf0 <win_register@plt>:
    7cf0:	ff 25 44 50 01 00    	jmp    *0x15044
    7cf6:	68 10 01 00 00       	push   $0x110
    7cfb:	e9 c0 fd ff ff       	jmp    7ac0 <cross_texture+0x280>

00007d00 <task_get_id@plt>:
    7d00:	ff 25 48 50 01 00    	jmp    *0x15048
    7d06:	68 18 01 00 00       	push   $0x118
    7d0b:	e9 b0 fd ff ff       	jmp    7ac0 <cross_texture+0x280>

00007d10 <prodcons_consume@plt>:
    7d10:	ff 25 4c 50 01 00    	jmp    *0x1504c
    7d16:	68 20 01 00 00       	push   $0x120
    7d1b:	e9 a0 fd ff ff       	jmp    7ac0 <cross_texture+0x280>

00007d20 <chargrid_get_cursor_visibility@plt>:
    7d20:	ff 25 50 50 01 00    	jmp    *0x15050
    7d26:	68 28 01 00 00       	push   $0x128
    7d2b:	e9 90 fd ff ff       	jmp    7ac0 <cross_texture+0x280>

00007d30 <memset@plt>:
    7d30:	ff 25 54 50 01 00    	jmp    *0x15054
    7d36:	68 30 01 00 00       	push   $0x130
    7d3b:	e9 80 fd ff ff       	jmp    7ac0 <cross_texture+0x280>

00007d40 <sin_f64@plt>:
    7d40:	ff 25 58 50 01 00    	jmp    *0x15058
    7d46:	68 38 01 00 00       	push   $0x138
    7d4b:	e9 70 fd ff ff       	jmp    7ac0 <cross_texture+0x280>

00007d50 <chargrid_newline@plt>:
    7d50:	ff 25 5c 50 01 00    	jmp    *0x1505c
    7d56:	68 40 01 00 00       	push   $0x140
    7d5b:	e9 60 fd ff ff       	jmp    7ac0 <cross_texture+0x280>

00007d60 <chargrid_cursor_at@plt>:
    7d60:	ff 25 60 50 01 00    	jmp    *0x15060
    7d66:	68 48 01 00 00       	push   $0x148
    7d6b:	e9 50 fd ff ff       	jmp    7ac0 <cross_texture+0x280>

00007d70 <chargrid_tabstop@plt>:
    7d70:	ff 25 64 50 01 00    	jmp    *0x15064
    7d76:	68 50 01 00 00       	push   $0x150
    7d7b:	e9 40 fd ff ff       	jmp    7ac0 <cross_texture+0x280>

00007d80 <win_damage@plt>:
    7d80:	ff 25 68 50 01 00    	jmp    *0x15068
    7d86:	68 58 01 00 00       	push   $0x158
    7d8b:	e9 30 fd ff ff       	jmp    7ac0 <cross_texture+0x280>

00007d90 <loc_server_register@plt>:
    7d90:	ff 25 6c 50 01 00    	jmp    *0x1506c
    7d96:	68 60 01 00 00       	push   $0x160
    7d9b:	e9 20 fd ff ff       	jmp    7ac0 <cross_texture+0x280>

00007da0 <str_size@plt>:
    7da0:	ff 25 70 50 01 00    	jmp    *0x15070
    7da6:	68 68 01 00 00       	push   $0x168
    7dab:	e9 10 fd ff ff       	jmp    7ac0 <cross_texture+0x280>

00007db0 <chargrid_destroy@plt>:
    7db0:	ff 25 74 50 01 00    	jmp    *0x15074
    7db6:	68 70 01 00 00       	push   $0x170
    7dbb:	e9 00 fd ff ff       	jmp    7ac0 <cross_texture+0x280>

00007dc0 <win_close@plt>:
    7dc0:	ff 25 78 50 01 00    	jmp    *0x15078
    7dc6:	68 78 01 00 00       	push   $0x178
    7dcb:	e9 f0 fc ff ff       	jmp    7ac0 <cross_texture+0x280>

00007dd0 <prodcons_produce@plt>:
    7dd0:	ff 25 7c 50 01 00    	jmp    *0x1507c
    7dd6:	68 80 01 00 00       	push   $0x180
    7ddb:	e9 e0 fc ff ff       	jmp    7ac0 <cross_texture+0x280>

00007de0 <chargrid_get_top_row@plt>:
    7de0:	ff 25 80 50 01 00    	jmp    *0x15080
    7de6:	68 88 01 00 00       	push   $0x188
    7deb:	e9 d0 fc ff ff       	jmp    7ac0 <cross_texture+0x280>

00007df0 <exit@plt>:
    7df0:	ff 25 84 50 01 00    	jmp    *0x15084
    7df6:	68 90 01 00 00       	push   $0x190
    7dfb:	e9 c0 fc ff ff       	jmp    7ac0 <cross_texture+0x280>

00007e00 <fibril_create_generic@plt>:
    7e00:	ff 25 88 50 01 00    	jmp    *0x15088
    7e06:	68 98 01 00 00       	push   $0x198
    7e0b:	e9 b0 fc ff ff       	jmp    7ac0 <cross_texture+0x280>

00007e10 <fibril_add_ready@plt>:
    7e10:	ff 25 8c 50 01 00    	jmp    *0x1508c
    7e16:	68 a0 01 00 00       	push   $0x1a0
    7e1b:	e9 a0 fc ff ff       	jmp    7ac0 <cross_texture+0x280>

00007e20 <fibril_switch@plt>:
    7e20:	ff 25 90 50 01 00    	jmp    *0x15090
    7e26:	68 a8 01 00 00       	push   $0x1a8
    7e2b:	e9 90 fc ff ff       	jmp    7ac0 <cross_texture+0x280>

00007e30 <as_area_create@plt>:
    7e30:	ff 25 94 50 01 00    	jmp    *0x15094
    7e36:	68 b0 01 00 00       	push   $0x1b0
    7e3b:	e9 80 fc ff ff       	jmp    7ac0 <cross_texture+0x280>

00007e40 <__syscall_fast@plt>:
    7e40:	ff 25 98 50 01 00    	jmp    *0x15098
    7e46:	68 b8 01 00 00       	push   $0x1b8
    7e4b:	e9 70 fc ff ff       	jmp    7ac0 <cross_texture+0x280>

00007e50 <async_set_fallback_port_handler@plt>:
    7e50:	ff 25 9c 50 01 00    	jmp    *0x1509c
    7e56:	68 c0 01 00 00       	push   $0x1c0
    7e5b:	e9 60 fc ff ff       	jmp    7ac0 <cross_texture+0x280>

00007e60 <chargrid_set_rgb_color@plt>:
    7e60:	ff 25 a0 50 01 00    	jmp    *0x150a0
    7e66:	68 c8 01 00 00       	push   $0x1c8
    7e6b:	e9 50 fc ff ff       	jmp    7ac0 <cross_texture+0x280>

00007e70 <task_spawnl@plt>:
    7e70:	ff 25 a4 50 01 00    	jmp    *0x150a4
    7e76:	68 d0 01 00 00       	push   $0x1d0
    7e7b:	e9 40 fc ff ff       	jmp    7ac0 <cross_texture+0x280>

00007e80 <win_close_request@plt>:
    7e80:	ff 25 a8 50 01 00    	jmp    *0x150a8
    7e86:	68 d8 01 00 00       	push   $0x1d8
    7e8b:	e9 30 fc ff ff       	jmp    7ac0 <cross_texture+0x280>

00007e90 <chargrid_putchar@plt>:
    7e90:	ff 25 ac 50 01 00    	jmp    *0x150ac
    7e96:	68 e0 01 00 00       	push   $0x1e0
    7e9b:	e9 20 fc ff ff       	jmp    7ac0 <cross_texture+0x280>

00007ea0 <free@plt>:
    7ea0:	ff 25 b0 50 01 00    	jmp    *0x150b0
    7ea6:	68 e8 01 00 00       	push   $0x1e8
    7eab:	e9 10 fc ff ff       	jmp    7ac0 <cross_texture+0x280>

00007eb0 <fibril_mutex_lock@plt>:
    7eb0:	ff 25 b4 50 01 00    	jmp    *0x150b4
    7eb6:	68 f0 01 00 00       	push   $0x1f0
    7ebb:	e9 00 fc ff ff       	jmp    7ac0 <cross_texture+0x280>
