
ne2k:     file format elf32-i386


Disassembly of section .init:

000010f4 <__entry>:
    10f4:	66 8c d0             	mov    %ss,%ax
    10f7:	8e d8                	mov    %eax,%ds
    10f9:	8e c0                	mov    %eax,%es
    10fb:	8e e0                	mov    %eax,%fs
    10fd:	b8 01 00 00 00       	mov    $0x1,%eax
    1102:	0f a2                	cpuid  
    1104:	0f ba e2 0b          	bt     $0xb,%edx
    1108:	73 0c                	jae    1116 <__entry+0x22>
    110a:	8d 05 a0 42 01 00    	lea    0x142a0,%eax
    1110:	c7 00 40 1b 01 00    	movl   $0x11b40,(%eax)
    1116:	6a 00                	push   $0x0
    1118:	6a 00                	push   $0x0
    111a:	89 e5                	mov    %esp,%ebp
    111c:	57                   	push   %edi
    111d:	e8 de 03 01 00       	call   11500 <__main@plt>

Disassembly of section .text:

00001140 <ne2k_download.isra.2>:
    1140:	55                   	push   %ebp
    1141:	89 e5                	mov    %esp,%ebp
    1143:	57                   	push   %edi
    1144:	56                   	push   %esi
    1145:	53                   	push   %ebx
    1146:	83 ec 34             	sub    $0x34,%esp
    1149:	89 c6                	mov    %eax,%esi
    114b:	89 cf                	mov    %ecx,%edi
    114d:	8b 4d 0c             	mov    0xc(%ebp),%ecx
    1150:	81 e1 fe 00 00 00    	and    $0xfe,%ecx
    1156:	8b 45 0c             	mov    0xc(%ebp),%eax
    1159:	51                   	push   %ecx
    115a:	8b 0e                	mov    (%esi),%ecx
    115c:	83 e0 fe             	and    $0xfffffffe,%eax
    115f:	89 55 d0             	mov    %edx,-0x30(%ebp)
    1162:	8d 51 0a             	lea    0xa(%ecx),%edx
    1165:	8b 5d 08             	mov    0x8(%ebp),%ebx
    1168:	52                   	push   %edx
    1169:	89 45 d4             	mov    %eax,-0x2c(%ebp)
    116c:	e8 7f 06 01 00       	call   117f0 <pio_write_8@plt>
    1171:	58                   	pop    %eax
    1172:	8b 0e                	mov    (%esi),%ecx
    1174:	8b 45 d4             	mov    -0x2c(%ebp),%eax
    1177:	5a                   	pop    %edx
    1178:	0f b6 d4             	movzbl %ah,%edx
    117b:	52                   	push   %edx
    117c:	8d 51 0b             	lea    0xb(%ecx),%edx
    117f:	52                   	push   %edx
    1180:	e8 6b 06 01 00       	call   117f0 <pio_write_8@plt>
    1185:	59                   	pop    %ecx
    1186:	31 d2                	xor    %edx,%edx
    1188:	8b 0e                	mov    (%esi),%ecx
    118a:	88 da                	mov    %bl,%dl
    118c:	58                   	pop    %eax
    118d:	52                   	push   %edx
    118e:	8d 51 08             	lea    0x8(%ecx),%edx
    1191:	52                   	push   %edx
    1192:	e8 59 06 01 00       	call   117f0 <pio_write_8@plt>
    1197:	8b 0e                	mov    (%esi),%ecx
    1199:	58                   	pop    %eax
    119a:	0f b6 df             	movzbl %bh,%ebx
    119d:	5a                   	pop    %edx
    119e:	8d 51 09             	lea    0x9(%ecx),%edx
    11a1:	53                   	push   %ebx
    11a2:	52                   	push   %edx
    11a3:	e8 48 06 01 00       	call   117f0 <pio_write_8@plt>
    11a8:	8b 36                	mov    (%esi),%esi
    11aa:	59                   	pop    %ecx
    11ab:	5b                   	pop    %ebx
    11ac:	6a 0a                	push   $0xa
    11ae:	56                   	push   %esi
    11af:	e8 3c 06 01 00       	call   117f0 <pio_write_8@plt>
    11b4:	8b 45 d4             	mov    -0x2c(%ebp),%eax
    11b7:	83 c4 10             	add    $0x10,%esp
    11ba:	85 c0                	test   %eax,%eax
    11bc:	74 37                	je     11f5 <ne2k_download.isra.2+0xb5>
    11be:	8b 45 d0             	mov    -0x30(%ebp),%eax
    11c1:	31 f6                	xor    %esi,%esi
    11c3:	8b 18                	mov    (%eax),%ebx
    11c5:	89 f0                	mov    %esi,%eax
    11c7:	89 de                	mov    %ebx,%esi
    11c9:	89 c3                	mov    %eax,%ebx
    11cb:	90                   	nop
    11cc:	8d 74 26 00          	lea    0x0(%esi,%eiz,1),%esi
    11d0:	83 ec 0c             	sub    $0xc,%esp
    11d3:	56                   	push   %esi
    11d4:	e8 07 07 01 00       	call   118e0 <pio_read_16@plt>
    11d9:	66 89 04 1f          	mov    %ax,(%edi,%ebx,1)
    11dd:	83 c3 02             	add    $0x2,%ebx
    11e0:	83 c4 10             	add    $0x10,%esp
    11e3:	39 5d d4             	cmp    %ebx,-0x2c(%ebp)
    11e6:	77 e8                	ja     11d0 <ne2k_download.isra.2+0x90>
    11e8:	8b 45 d4             	mov    -0x2c(%ebp),%eax
    11eb:	8b 5d 0c             	mov    0xc(%ebp),%ebx
    11ee:	29 c3                	sub    %eax,%ebx
    11f0:	01 c7                	add    %eax,%edi
    11f2:	89 5d 0c             	mov    %ebx,0xc(%ebp)
    11f5:	8b 4d 0c             	mov    0xc(%ebp),%ecx
    11f8:	85 c9                	test   %ecx,%ecx
    11fa:	74 2a                	je     1226 <ne2k_download.isra.2+0xe6>
    11fc:	83 7d 0c 01          	cmpl   $0x1,0xc(%ebp)
    1200:	75 2c                	jne    122e <ne2k_download.isra.2+0xee>
    1202:	8b 45 d0             	mov    -0x30(%ebp),%eax
    1205:	83 ec 0c             	sub    $0xc,%esp
    1208:	8b 00                	mov    (%eax),%eax
    120a:	50                   	push   %eax
    120b:	e8 d0 06 01 00       	call   118e0 <pio_read_16@plt>
    1210:	83 c4 0c             	add    $0xc,%esp
    1213:	66 89 45 e6          	mov    %ax,-0x1a(%ebp)
    1217:	8d 45 e6             	lea    -0x1a(%ebp),%eax
    121a:	6a 01                	push   $0x1
    121c:	50                   	push   %eax
    121d:	57                   	push   %edi
    121e:	e8 6d 04 01 00       	call   11690 <memcpy@plt>
    1223:	83 c4 10             	add    $0x10,%esp
    1226:	8d 65 f4             	lea    -0xc(%ebp),%esp
    1229:	5b                   	pop    %ebx
    122a:	5e                   	pop    %esi
    122b:	5f                   	pop    %edi
    122c:	5d                   	pop    %ebp
    122d:	c3                   	ret    
    122e:	52                   	push   %edx
    122f:	68 85 00 00 00       	push   $0x85
    1234:	68 29 f4 00 00       	push   $0xf429
    1239:	68 32 f4 00 00       	push   $0xf432
    123e:	e8 3d 05 01 00       	call   11780 <assert_abort@plt>
    1243:	8d b6 00 00 00 00    	lea    0x0(%esi),%esi
    1249:	8d bc 27 00 00 00 00 	lea    0x0(%edi,%eiz,1),%edi

00001250 <ne2k_probe>:
    1250:	55                   	push   %ebp
    1251:	89 e5                	mov    %esp,%ebp
    1253:	57                   	push   %edi
    1254:	56                   	push   %esi
    1255:	53                   	push   %ebx
    1256:	83 ec 18             	sub    $0x18,%esp
    1259:	8b 75 08             	mov    0x8(%ebp),%esi
    125c:	8b 46 04             	mov    0x4(%esi),%eax
    125f:	83 c0 1f             	add    $0x1f,%eax
    1262:	50                   	push   %eax
    1263:	e8 f8 04 01 00       	call   11760 <pio_read_8@plt>
    1268:	89 c7                	mov    %eax,%edi
    126a:	c7 04 24 d0 07 00 00 	movl   $0x7d0,(%esp)
    1271:	89 fb                	mov    %edi,%ebx
    1273:	e8 d8 03 01 00       	call   11650 <usleep@plt>
    1278:	58                   	pop    %eax
    1279:	8b 46 04             	mov    0x4(%esi),%eax
    127c:	83 c0 1f             	add    $0x1f,%eax
    127f:	81 e3 ff 00 00 00    	and    $0xff,%ebx
    1285:	5a                   	pop    %edx
    1286:	53                   	push   %ebx
    1287:	50                   	push   %eax
    1288:	e8 63 05 01 00       	call   117f0 <pio_write_8@plt>
    128d:	c7 04 24 d0 07 00 00 	movl   $0x7d0,(%esp)
    1294:	e8 b7 03 01 00       	call   11650 <usleep@plt>
    1299:	8b 7e 04             	mov    0x4(%esi),%edi
    129c:	59                   	pop    %ecx
    129d:	5b                   	pop    %ebx
    129e:	6a 21                	push   $0x21
    12a0:	57                   	push   %edi
    12a1:	bb 00 10 00 00       	mov    $0x1000,%ebx
    12a6:	e8 45 05 01 00       	call   117f0 <pio_write_8@plt>
    12ab:	83 c4 10             	add    $0x10,%esp
    12ae:	eb 03                	jmp    12b3 <ne2k_probe+0x63>
    12b0:	4b                   	dec    %ebx
    12b1:	74 16                	je     12c9 <ne2k_probe+0x79>
    12b3:	83 ec 0c             	sub    $0xc,%esp
    12b6:	8b 46 04             	mov    0x4(%esi),%eax
    12b9:	83 c0 07             	add    $0x7,%eax
    12bc:	50                   	push   %eax
    12bd:	e8 9e 04 01 00       	call   11760 <pio_read_8@plt>
    12c2:	83 c4 10             	add    $0x10,%esp
    12c5:	84 c0                	test   %al,%al
    12c7:	74 e7                	je     12b0 <ne2k_probe+0x60>
    12c9:	83 ec 0c             	sub    $0xc,%esp
    12cc:	8b 46 04             	mov    0x4(%esi),%eax
    12cf:	50                   	push   %eax
    12d0:	e8 8b 04 01 00       	call   11760 <pio_read_8@plt>
    12d5:	83 e0 25             	and    $0x25,%eax
    12d8:	83 c4 10             	add    $0x10,%esp
    12db:	3c 21                	cmp    $0x21,%al
    12dd:	0f 85 b5 00 00 00    	jne    1398 <ne2k_probe+0x148>
    12e3:	52                   	push   %edx
    12e4:	52                   	push   %edx
    12e5:	8b 46 04             	mov    0x4(%esi),%eax
    12e8:	6a 20                	push   $0x20
    12ea:	83 c0 0c             	add    $0xc,%eax
    12ed:	50                   	push   %eax
    12ee:	e8 fd 04 01 00       	call   117f0 <pio_write_8@plt>
    12f3:	8b 46 04             	mov    0x4(%esi),%eax
    12f6:	59                   	pop    %ecx
    12f7:	83 c0 0d             	add    $0xd,%eax
    12fa:	5b                   	pop    %ebx
    12fb:	6a 00                	push   $0x0
    12fd:	50                   	push   %eax
    12fe:	e8 ed 04 01 00       	call   117f0 <pio_write_8@plt>
    1303:	5f                   	pop    %edi
    1304:	58                   	pop    %eax
    1305:	8b 46 04             	mov    0x4(%esi),%eax
    1308:	83 c0 0e             	add    $0xe,%eax
    130b:	6a 29                	push   $0x29
    130d:	50                   	push   %eax
    130e:	e8 dd 04 01 00       	call   117f0 <pio_write_8@plt>
    1313:	58                   	pop    %eax
    1314:	8b 46 04             	mov    0x4(%esi),%eax
    1317:	83 c0 0a             	add    $0xa,%eax
    131a:	5a                   	pop    %edx
    131b:	6a 0c                	push   $0xc
    131d:	50                   	push   %eax
    131e:	e8 cd 04 01 00       	call   117f0 <pio_write_8@plt>
    1323:	8b 46 04             	mov    0x4(%esi),%eax
    1326:	83 c0 0b             	add    $0xb,%eax
    1329:	59                   	pop    %ecx
    132a:	5b                   	pop    %ebx
    132b:	6a 00                	push   $0x0
    132d:	50                   	push   %eax
    132e:	e8 bd 04 01 00       	call   117f0 <pio_write_8@plt>
    1333:	5f                   	pop    %edi
    1334:	58                   	pop    %eax
    1335:	8b 46 04             	mov    0x4(%esi),%eax
    1338:	6a 00                	push   $0x0
    133a:	83 c0 08             	add    $0x8,%eax
    133d:	50                   	push   %eax
    133e:	e8 ad 04 01 00       	call   117f0 <pio_write_8@plt>
    1343:	58                   	pop    %eax
    1344:	8b 46 04             	mov    0x4(%esi),%eax
    1347:	83 c0 09             	add    $0x9,%eax
    134a:	5a                   	pop    %edx
    134b:	6a 00                	push   $0x0
    134d:	50                   	push   %eax
    134e:	e8 9d 04 01 00       	call   117f0 <pio_write_8@plt>
    1353:	8b 7e 04             	mov    0x4(%esi),%edi
    1356:	59                   	pop    %ecx
    1357:	5b                   	pop    %ebx
    1358:	6a 0a                	push   $0xa
    135a:	57                   	push   %edi
    135b:	8d 5e 10             	lea    0x10(%esi),%ebx
    135e:	e8 8d 04 01 00       	call   117f0 <pio_write_8@plt>
    1363:	8d 7e 16             	lea    0x16(%esi),%edi
    1366:	83 c4 10             	add    $0x10,%esp
    1369:	8d b4 26 00 00 00 00 	lea    0x0(%esi,%eiz,1),%esi
    1370:	83 ec 0c             	sub    $0xc,%esp
    1373:	8b 46 08             	mov    0x8(%esi),%eax
    1376:	43                   	inc    %ebx
    1377:	50                   	push   %eax
    1378:	e8 63 05 01 00       	call   118e0 <pio_read_16@plt>
    137d:	88 43 ff             	mov    %al,-0x1(%ebx)
    1380:	83 c4 10             	add    $0x10,%esp
    1383:	39 df                	cmp    %ebx,%edi
    1385:	75 e9                	jne    1370 <ne2k_probe+0x120>
    1387:	8d 65 f4             	lea    -0xc(%ebp),%esp
    138a:	31 c0                	xor    %eax,%eax
    138c:	5b                   	pop    %ebx
    138d:	5e                   	pop    %esi
    138e:	5f                   	pop    %edi
    138f:	5d                   	pop    %ebp
    1390:	c3                   	ret    
    1391:	8d b4 26 00 00 00 00 	lea    0x0(%esi,%eiz,1),%esi
    1398:	8d 65 f4             	lea    -0xc(%ebp),%esp
    139b:	b8 f7 fe ff ff       	mov    $0xfffffef7,%eax
    13a0:	5b                   	pop    %ebx
    13a1:	5e                   	pop    %esi
    13a2:	5f                   	pop    %edi
    13a3:	5d                   	pop    %ebp
    13a4:	c3                   	ret    
    13a5:	8d 74 26 00          	lea    0x0(%esi,%eiz,1),%esi
    13a9:	8d bc 27 00 00 00 00 	lea    0x0(%edi,%eiz,1),%edi

000013b0 <ne2k_set_physical_address>:
    13b0:	55                   	push   %ebp
    13b1:	89 e5                	mov    %esp,%ebp
    13b3:	57                   	push   %edi
    13b4:	56                   	push   %esi
    13b5:	53                   	push   %ebx
    13b6:	83 ec 10             	sub    $0x10,%esp
    13b9:	8b 75 08             	mov    0x8(%ebp),%esi
    13bc:	8b 4d 0c             	mov    0xc(%ebp),%ecx
    13bf:	6a 06                	push   $0x6
    13c1:	51                   	push   %ecx
    13c2:	8d 5e 10             	lea    0x10(%esi),%ebx
    13c5:	53                   	push   %ebx
    13c6:	e8 c5 02 01 00       	call   11690 <memcpy@plt>
    13cb:	5f                   	pop    %edi
    13cc:	58                   	pop    %eax
    13cd:	8b 46 04             	mov    0x4(%esi),%eax
    13d0:	6a 21                	push   $0x21
    13d2:	50                   	push   %eax
    13d3:	e8 18 04 01 00       	call   117f0 <pio_write_8@plt>
    13d8:	58                   	pop    %eax
    13d9:	8b 46 04             	mov    0x4(%esi),%eax
    13dc:	83 c0 0a             	add    $0xa,%eax
    13df:	5a                   	pop    %edx
    13e0:	6a 0c                	push   $0xc
    13e2:	50                   	push   %eax
    13e3:	e8 08 04 01 00       	call   117f0 <pio_write_8@plt>
    13e8:	8b 46 04             	mov    0x4(%esi),%eax
    13eb:	83 c0 0b             	add    $0xb,%eax
    13ee:	59                   	pop    %ecx
    13ef:	5f                   	pop    %edi
    13f0:	6a 00                	push   $0x0
    13f2:	50                   	push   %eax
    13f3:	e8 f8 03 01 00       	call   117f0 <pio_write_8@plt>
    13f8:	58                   	pop    %eax
    13f9:	8b 46 04             	mov    0x4(%esi),%eax
    13fc:	83 c0 08             	add    $0x8,%eax
    13ff:	5a                   	pop    %edx
    1400:	6a 00                	push   $0x0
    1402:	50                   	push   %eax
    1403:	e8 e8 03 01 00       	call   117f0 <pio_write_8@plt>
    1408:	8b 46 04             	mov    0x4(%esi),%eax
    140b:	83 c0 09             	add    $0x9,%eax
    140e:	59                   	pop    %ecx
    140f:	5f                   	pop    %edi
    1410:	6a 00                	push   $0x0
    1412:	50                   	push   %eax
    1413:	e8 d8 03 01 00       	call   117f0 <pio_write_8@plt>
    1418:	8b 4e 04             	mov    0x4(%esi),%ecx
    141b:	58                   	pop    %eax
    141c:	5a                   	pop    %edx
    141d:	6a 12                	push   $0x12
    141f:	51                   	push   %ecx
    1420:	8d 7e 16             	lea    0x16(%esi),%edi
    1423:	e8 c8 03 01 00       	call   117f0 <pio_write_8@plt>
    1428:	83 c4 10             	add    $0x10,%esp
    142b:	90                   	nop
    142c:	8d 74 26 00          	lea    0x0(%esi,%eiz,1),%esi
    1430:	50                   	push   %eax
    1431:	50                   	push   %eax
    1432:	31 c0                	xor    %eax,%eax
    1434:	8b 56 08             	mov    0x8(%esi),%edx
    1437:	8a 03                	mov    (%ebx),%al
    1439:	43                   	inc    %ebx
    143a:	50                   	push   %eax
    143b:	52                   	push   %edx
    143c:	e8 6f 03 01 00       	call   117b0 <pio_write_16@plt>
    1441:	83 c4 10             	add    $0x10,%esp
    1444:	39 fb                	cmp    %edi,%ebx
    1446:	75 e8                	jne    1430 <ne2k_set_physical_address+0x80>
    1448:	8d 65 f4             	lea    -0xc(%ebp),%esp
    144b:	5b                   	pop    %ebx
    144c:	5e                   	pop    %esi
    144d:	5f                   	pop    %edi
    144e:	5d                   	pop    %ebp
    144f:	c3                   	ret    

00001450 <ne2k_up>:
    1450:	55                   	push   %ebp
    1451:	89 e5                	mov    %esp,%ebp
    1453:	57                   	push   %edi
    1454:	56                   	push   %esi
    1455:	53                   	push   %ebx
    1456:	83 ec 0c             	sub    $0xc,%esp
    1459:	8b 5d 08             	mov    0x8(%ebp),%ebx
    145c:	80 7b 3c 00          	cmpb   $0x0,0x3c(%ebx)
    1460:	0f 84 d6 02 00 00    	je     173c <ne2k_up+0x2ec>
    1466:	83 ec 0c             	sub    $0xc,%esp
    1469:	8b 43 04             	mov    0x4(%ebx),%eax
    146c:	83 c0 1f             	add    $0x1f,%eax
    146f:	50                   	push   %eax
    1470:	e8 eb 02 01 00       	call   11760 <pio_read_8@plt>
    1475:	89 c7                	mov    %eax,%edi
    1477:	c7 04 24 d0 07 00 00 	movl   $0x7d0,(%esp)
    147e:	e8 cd 01 01 00       	call   11650 <usleep@plt>
    1483:	59                   	pop    %ecx
    1484:	8b 43 04             	mov    0x4(%ebx),%eax
    1487:	5e                   	pop    %esi
    1488:	89 fe                	mov    %edi,%esi
    148a:	83 c0 1f             	add    $0x1f,%eax
    148d:	81 e6 ff 00 00 00    	and    $0xff,%esi
    1493:	56                   	push   %esi
    1494:	50                   	push   %eax
    1495:	e8 56 03 01 00       	call   117f0 <pio_write_8@plt>
    149a:	c7 04 24 d0 07 00 00 	movl   $0x7d0,(%esp)
    14a1:	e8 aa 01 01 00       	call   11650 <usleep@plt>
    14a6:	5f                   	pop    %edi
    14a7:	58                   	pop    %eax
    14a8:	8b 43 04             	mov    0x4(%ebx),%eax
    14ab:	6a 21                	push   $0x21
    14ad:	50                   	push   %eax
    14ae:	be 00 10 00 00       	mov    $0x1000,%esi
    14b3:	e8 38 03 01 00       	call   117f0 <pio_write_8@plt>
    14b8:	83 c4 10             	add    $0x10,%esp
    14bb:	eb 06                	jmp    14c3 <ne2k_up+0x73>
    14bd:	8d 76 00             	lea    0x0(%esi),%esi
    14c0:	4e                   	dec    %esi
    14c1:	74 16                	je     14d9 <ne2k_up+0x89>
    14c3:	83 ec 0c             	sub    $0xc,%esp
    14c6:	8b 43 04             	mov    0x4(%ebx),%eax
    14c9:	83 c0 07             	add    $0x7,%eax
    14cc:	50                   	push   %eax
    14cd:	e8 8e 02 01 00       	call   11760 <pio_read_8@plt>
    14d2:	83 c4 10             	add    $0x10,%esp
    14d5:	84 c0                	test   %al,%al
    14d7:	74 e7                	je     14c0 <ne2k_up+0x70>
    14d9:	83 ec 0c             	sub    $0xc,%esp
    14dc:	8d 43 24             	lea    0x24(%ebx),%eax
    14df:	c6 43 18 00          	movb   $0x0,0x18(%ebx)
    14e3:	c6 43 20 40          	movb   $0x40,0x20(%ebx)
    14e7:	50                   	push   %eax
    14e8:	e8 83 03 01 00       	call   11870 <fibril_mutex_initialize@plt>
    14ed:	8d 43 34             	lea    0x34(%ebx),%eax
    14f0:	89 04 24             	mov    %eax,(%esp)
    14f3:	e8 e8 02 01 00       	call   117e0 <fibril_condvar_initialize@plt>
    14f8:	8a 43 20             	mov    0x20(%ebx),%al
    14fb:	8b 4b 04             	mov    0x4(%ebx),%ecx
    14fe:	83 c0 06             	add    $0x6,%eax
    1501:	88 43 16             	mov    %al,0x16(%ebx)
    1504:	8a 43 20             	mov    0x20(%ebx),%al
    1507:	83 c0 40             	add    $0x40,%eax
    150a:	88 43 17             	mov    %al,0x17(%ebx)
    150d:	58                   	pop    %eax
    150e:	5a                   	pop    %edx
    150f:	6a 21                	push   $0x21
    1511:	51                   	push   %ecx
    1512:	e8 d9 02 01 00       	call   117f0 <pio_write_8@plt>
    1517:	8b 43 04             	mov    0x4(%ebx),%eax
    151a:	83 c0 0e             	add    $0xe,%eax
    151d:	5e                   	pop    %esi
    151e:	5f                   	pop    %edi
    151f:	6a 29                	push   $0x29
    1521:	50                   	push   %eax
    1522:	e8 c9 02 01 00       	call   117f0 <pio_write_8@plt>
    1527:	58                   	pop    %eax
    1528:	8b 43 04             	mov    0x4(%ebx),%eax
    152b:	83 c0 0a             	add    $0xa,%eax
    152e:	5a                   	pop    %edx
    152f:	6a 00                	push   $0x0
    1531:	50                   	push   %eax
    1532:	e8 b9 02 01 00       	call   117f0 <pio_write_8@plt>
    1537:	8b 43 04             	mov    0x4(%ebx),%eax
    153a:	83 c0 0b             	add    $0xb,%eax
    153d:	59                   	pop    %ecx
    153e:	5e                   	pop    %esi
    153f:	6a 00                	push   $0x0
    1541:	50                   	push   %eax
    1542:	e8 a9 02 01 00       	call   117f0 <pio_write_8@plt>
    1547:	5f                   	pop    %edi
    1548:	58                   	pop    %eax
    1549:	31 c0                	xor    %eax,%eax
    154b:	8a 43 50             	mov    0x50(%ebx),%al
    154e:	50                   	push   %eax
    154f:	8b 43 04             	mov    0x4(%ebx),%eax
    1552:	83 c0 0c             	add    $0xc,%eax
    1555:	50                   	push   %eax
    1556:	e8 95 02 01 00       	call   117f0 <pio_write_8@plt>
    155b:	58                   	pop    %eax
    155c:	8b 43 04             	mov    0x4(%ebx),%eax
    155f:	83 c0 0d             	add    $0xd,%eax
    1562:	5a                   	pop    %edx
    1563:	6a 02                	push   $0x2
    1565:	50                   	push   %eax
    1566:	e8 85 02 01 00       	call   117f0 <pio_write_8@plt>
    156b:	31 c0                	xor    %eax,%eax
    156d:	8a 43 16             	mov    0x16(%ebx),%al
    1570:	59                   	pop    %ecx
    1571:	5e                   	pop    %esi
    1572:	50                   	push   %eax
    1573:	8b 43 04             	mov    0x4(%ebx),%eax
    1576:	83 c0 03             	add    $0x3,%eax
    1579:	50                   	push   %eax
    157a:	e8 71 02 01 00       	call   117f0 <pio_write_8@plt>
    157f:	5f                   	pop    %edi
    1580:	58                   	pop    %eax
    1581:	31 c0                	xor    %eax,%eax
    1583:	8a 43 16             	mov    0x16(%ebx),%al
    1586:	50                   	push   %eax
    1587:	8b 43 04             	mov    0x4(%ebx),%eax
    158a:	40                   	inc    %eax
    158b:	50                   	push   %eax
    158c:	e8 5f 02 01 00       	call   117f0 <pio_write_8@plt>
    1591:	58                   	pop    %eax
    1592:	31 c0                	xor    %eax,%eax
    1594:	8a 43 17             	mov    0x17(%ebx),%al
    1597:	5a                   	pop    %edx
    1598:	50                   	push   %eax
    1599:	8b 43 04             	mov    0x4(%ebx),%eax
    159c:	83 c0 02             	add    $0x2,%eax
    159f:	50                   	push   %eax
    15a0:	e8 4b 02 01 00       	call   117f0 <pio_write_8@plt>
    15a5:	8b 43 04             	mov    0x4(%ebx),%eax
    15a8:	59                   	pop    %ecx
    15a9:	83 c0 07             	add    $0x7,%eax
    15ac:	5e                   	pop    %esi
    15ad:	68 ff 00 00 00       	push   $0xff
    15b2:	50                   	push   %eax
    15b3:	e8 38 02 01 00       	call   117f0 <pio_write_8@plt>
    15b8:	5f                   	pop    %edi
    15b9:	58                   	pop    %eax
    15ba:	8b 43 04             	mov    0x4(%ebx),%eax
    15bd:	83 c0 0f             	add    $0xf,%eax
    15c0:	6a 3f                	push   $0x3f
    15c2:	50                   	push   %eax
    15c3:	e8 28 02 01 00       	call   117f0 <pio_write_8@plt>
    15c8:	8b 4b 04             	mov    0x4(%ebx),%ecx
    15cb:	58                   	pop    %eax
    15cc:	5a                   	pop    %edx
    15cd:	6a 61                	push   $0x61
    15cf:	51                   	push   %ecx
    15d0:	e8 1b 02 01 00       	call   117f0 <pio_write_8@plt>
    15d5:	31 c0                	xor    %eax,%eax
    15d7:	5e                   	pop    %esi
    15d8:	8a 43 10             	mov    0x10(%ebx),%al
    15db:	5f                   	pop    %edi
    15dc:	50                   	push   %eax
    15dd:	8b 43 04             	mov    0x4(%ebx),%eax
    15e0:	40                   	inc    %eax
    15e1:	50                   	push   %eax
    15e2:	e8 09 02 01 00       	call   117f0 <pio_write_8@plt>
    15e7:	58                   	pop    %eax
    15e8:	31 c0                	xor    %eax,%eax
    15ea:	8a 43 11             	mov    0x11(%ebx),%al
    15ed:	5a                   	pop    %edx
    15ee:	50                   	push   %eax
    15ef:	8b 43 04             	mov    0x4(%ebx),%eax
    15f2:	83 c0 02             	add    $0x2,%eax
    15f5:	50                   	push   %eax
    15f6:	e8 f5 01 01 00       	call   117f0 <pio_write_8@plt>
    15fb:	31 c0                	xor    %eax,%eax
    15fd:	59                   	pop    %ecx
    15fe:	8a 43 12             	mov    0x12(%ebx),%al
    1601:	5e                   	pop    %esi
    1602:	50                   	push   %eax
    1603:	8b 43 04             	mov    0x4(%ebx),%eax
    1606:	83 c0 03             	add    $0x3,%eax
    1609:	50                   	push   %eax
    160a:	e8 e1 01 01 00       	call   117f0 <pio_write_8@plt>
    160f:	5f                   	pop    %edi
    1610:	58                   	pop    %eax
    1611:	31 c0                	xor    %eax,%eax
    1613:	8a 43 13             	mov    0x13(%ebx),%al
    1616:	50                   	push   %eax
    1617:	8b 43 04             	mov    0x4(%ebx),%eax
    161a:	83 c0 04             	add    $0x4,%eax
    161d:	50                   	push   %eax
    161e:	e8 cd 01 01 00       	call   117f0 <pio_write_8@plt>
    1623:	58                   	pop    %eax
    1624:	31 c0                	xor    %eax,%eax
    1626:	8a 43 14             	mov    0x14(%ebx),%al
    1629:	5a                   	pop    %edx
    162a:	50                   	push   %eax
    162b:	8b 43 04             	mov    0x4(%ebx),%eax
    162e:	83 c0 05             	add    $0x5,%eax
    1631:	50                   	push   %eax
    1632:	e8 b9 01 01 00       	call   117f0 <pio_write_8@plt>
    1637:	31 c0                	xor    %eax,%eax
    1639:	59                   	pop    %ecx
    163a:	8a 43 15             	mov    0x15(%ebx),%al
    163d:	5e                   	pop    %esi
    163e:	50                   	push   %eax
    163f:	8b 43 04             	mov    0x4(%ebx),%eax
    1642:	83 c0 06             	add    $0x6,%eax
    1645:	50                   	push   %eax
    1646:	e8 a5 01 01 00       	call   117f0 <pio_write_8@plt>
    164b:	5f                   	pop    %edi
    164c:	58                   	pop    %eax
    164d:	8b 43 04             	mov    0x4(%ebx),%eax
    1650:	6a 00                	push   $0x0
    1652:	83 c0 08             	add    $0x8,%eax
    1655:	50                   	push   %eax
    1656:	e8 95 01 01 00       	call   117f0 <pio_write_8@plt>
    165b:	58                   	pop    %eax
    165c:	8b 43 04             	mov    0x4(%ebx),%eax
    165f:	83 c0 09             	add    $0x9,%eax
    1662:	5a                   	pop    %edx
    1663:	6a 00                	push   $0x0
    1665:	50                   	push   %eax
    1666:	e8 85 01 01 00       	call   117f0 <pio_write_8@plt>
    166b:	8b 43 04             	mov    0x4(%ebx),%eax
    166e:	83 c0 0a             	add    $0xa,%eax
    1671:	59                   	pop    %ecx
    1672:	5e                   	pop    %esi
    1673:	6a 00                	push   $0x0
    1675:	50                   	push   %eax
    1676:	e8 75 01 01 00       	call   117f0 <pio_write_8@plt>
    167b:	5f                   	pop    %edi
    167c:	58                   	pop    %eax
    167d:	8b 43 04             	mov    0x4(%ebx),%eax
    1680:	6a 00                	push   $0x0
    1682:	83 c0 0b             	add    $0xb,%eax
    1685:	50                   	push   %eax
    1686:	e8 65 01 01 00       	call   117f0 <pio_write_8@plt>
    168b:	58                   	pop    %eax
    168c:	8b 43 04             	mov    0x4(%ebx),%eax
    168f:	83 c0 0c             	add    $0xc,%eax
    1692:	5a                   	pop    %edx
    1693:	6a 00                	push   $0x0
    1695:	50                   	push   %eax
    1696:	e8 55 01 01 00       	call   117f0 <pio_write_8@plt>
    169b:	8b 43 04             	mov    0x4(%ebx),%eax
    169e:	83 c0 0d             	add    $0xd,%eax
    16a1:	59                   	pop    %ecx
    16a2:	5e                   	pop    %esi
    16a3:	6a 00                	push   $0x0
    16a5:	50                   	push   %eax
    16a6:	e8 45 01 01 00       	call   117f0 <pio_write_8@plt>
    16ab:	5f                   	pop    %edi
    16ac:	58                   	pop    %eax
    16ad:	8b 43 04             	mov    0x4(%ebx),%eax
    16b0:	6a 00                	push   $0x0
    16b2:	83 c0 0e             	add    $0xe,%eax
    16b5:	50                   	push   %eax
    16b6:	e8 35 01 01 00       	call   117f0 <pio_write_8@plt>
    16bb:	58                   	pop    %eax
    16bc:	8b 43 04             	mov    0x4(%ebx),%eax
    16bf:	83 c0 0f             	add    $0xf,%eax
    16c2:	5a                   	pop    %edx
    16c3:	6a 00                	push   $0x0
    16c5:	50                   	push   %eax
    16c6:	e8 25 01 01 00       	call   117f0 <pio_write_8@plt>
    16cb:	8a 43 16             	mov    0x16(%ebx),%al
    16ce:	8d 50 01             	lea    0x1(%eax),%edx
    16d1:	31 c0                	xor    %eax,%eax
    16d3:	88 d0                	mov    %dl,%al
    16d5:	59                   	pop    %ecx
    16d6:	5e                   	pop    %esi
    16d7:	50                   	push   %eax
    16d8:	8b 43 04             	mov    0x4(%ebx),%eax
    16db:	83 c0 07             	add    $0x7,%eax
    16de:	50                   	push   %eax
    16df:	e8 0c 01 01 00       	call   117f0 <pio_write_8@plt>
    16e4:	5f                   	pop    %edi
    16e5:	58                   	pop    %eax
    16e6:	8b 43 04             	mov    0x4(%ebx),%eax
    16e9:	6a 22                	push   $0x22
    16eb:	50                   	push   %eax
    16ec:	e8 ff 00 01 00       	call   117f0 <pio_write_8@plt>
    16f1:	58                   	pop    %eax
    16f2:	8b 43 04             	mov    0x4(%ebx),%eax
    16f5:	83 c0 0d             	add    $0xd,%eax
    16f8:	5a                   	pop    %edx
    16f9:	6a 00                	push   $0x0
    16fb:	50                   	push   %eax
    16fc:	e8 ef 00 01 00       	call   117f0 <pio_write_8@plt>
    1701:	8b 43 04             	mov    0x4(%ebx),%eax
    1704:	83 c0 0d             	add    $0xd,%eax
    1707:	89 04 24             	mov    %eax,(%esp)
    170a:	e8 51 00 01 00       	call   11760 <pio_read_8@plt>
    170f:	8b 43 04             	mov    0x4(%ebx),%eax
    1712:	83 c0 0e             	add    $0xe,%eax
    1715:	89 04 24             	mov    %eax,(%esp)
    1718:	e8 43 00 01 00       	call   11760 <pio_read_8@plt>
    171d:	8b 43 04             	mov    0x4(%ebx),%eax
    1720:	83 c0 0f             	add    $0xf,%eax
    1723:	89 04 24             	mov    %eax,(%esp)
    1726:	e8 35 00 01 00       	call   11760 <pio_read_8@plt>
    172b:	c6 43 3d 01          	movb   $0x1,0x3d(%ebx)
    172f:	83 c4 10             	add    $0x10,%esp
    1732:	31 c0                	xor    %eax,%eax
    1734:	8d 65 f4             	lea    -0xc(%ebp),%esp
    1737:	5b                   	pop    %ebx
    1738:	5e                   	pop    %esi
    1739:	5f                   	pop    %edi
    173a:	5d                   	pop    %ebp
    173b:	c3                   	ret    
    173c:	b8 f7 fe ff ff       	mov    $0xfffffef7,%eax
    1741:	eb f1                	jmp    1734 <ne2k_up+0x2e4>
    1743:	8d b6 00 00 00 00    	lea    0x0(%esi),%esi
    1749:	8d bc 27 00 00 00 00 	lea    0x0(%edi,%eiz,1),%edi

00001750 <ne2k_down>:
    1750:	55                   	push   %ebp
    1751:	89 e5                	mov    %esp,%ebp
    1753:	57                   	push   %edi
    1754:	56                   	push   %esi
    1755:	53                   	push   %ebx
    1756:	83 ec 0c             	sub    $0xc,%esp
    1759:	8b 75 08             	mov    0x8(%ebp),%esi
    175c:	80 7e 3c 00          	cmpb   $0x0,0x3c(%esi)
    1760:	74 06                	je     1768 <ne2k_down+0x18>
    1762:	80 7e 3d 00          	cmpb   $0x0,0x3d(%esi)
    1766:	75 08                	jne    1770 <ne2k_down+0x20>
    1768:	8d 65 f4             	lea    -0xc(%ebp),%esp
    176b:	5b                   	pop    %ebx
    176c:	5e                   	pop    %esi
    176d:	5f                   	pop    %edi
    176e:	5d                   	pop    %ebp
    176f:	c3                   	ret    
    1770:	50                   	push   %eax
    1771:	50                   	push   %eax
    1772:	8b 56 04             	mov    0x4(%esi),%edx
    1775:	6a 21                	push   $0x21
    1777:	52                   	push   %edx
    1778:	e8 73 00 01 00       	call   117f0 <pio_write_8@plt>
    177d:	8b 46 04             	mov    0x4(%esi),%eax
    1780:	83 c0 1f             	add    $0x1f,%eax
    1783:	89 04 24             	mov    %eax,(%esp)
    1786:	e8 d5 ff 00 00       	call   11760 <pio_read_8@plt>
    178b:	89 c7                	mov    %eax,%edi
    178d:	c7 04 24 d0 07 00 00 	movl   $0x7d0,(%esp)
    1794:	e8 b7 fe 00 00       	call   11650 <usleep@plt>
    1799:	59                   	pop    %ecx
    179a:	8b 46 04             	mov    0x4(%esi),%eax
    179d:	5b                   	pop    %ebx
    179e:	89 fb                	mov    %edi,%ebx
    17a0:	83 c0 1f             	add    $0x1f,%eax
    17a3:	81 e3 ff 00 00 00    	and    $0xff,%ebx
    17a9:	53                   	push   %ebx
    17aa:	50                   	push   %eax
    17ab:	e8 40 00 01 00       	call   117f0 <pio_write_8@plt>
    17b0:	c7 04 24 d0 07 00 00 	movl   $0x7d0,(%esp)
    17b7:	e8 94 fe 00 00       	call   11650 <usleep@plt>
    17bc:	5f                   	pop    %edi
    17bd:	58                   	pop    %eax
    17be:	8b 46 04             	mov    0x4(%esi),%eax
    17c1:	6a 21                	push   $0x21
    17c3:	50                   	push   %eax
    17c4:	bb 00 10 00 00       	mov    $0x1000,%ebx
    17c9:	e8 22 00 01 00       	call   117f0 <pio_write_8@plt>
    17ce:	83 c4 10             	add    $0x10,%esp
    17d1:	eb 08                	jmp    17db <ne2k_down+0x8b>
    17d3:	90                   	nop
    17d4:	8d 74 26 00          	lea    0x0(%esi,%eiz,1),%esi
    17d8:	4b                   	dec    %ebx
    17d9:	74 16                	je     17f1 <ne2k_down+0xa1>
    17db:	83 ec 0c             	sub    $0xc,%esp
    17de:	8b 46 04             	mov    0x4(%esi),%eax
    17e1:	83 c0 07             	add    $0x7,%eax
    17e4:	50                   	push   %eax
    17e5:	e8 76 ff 00 00       	call   11760 <pio_read_8@plt>
    17ea:	83 c4 10             	add    $0x10,%esp
    17ed:	84 c0                	test   %al,%al
    17ef:	74 e7                	je     17d8 <ne2k_down+0x88>
    17f1:	c6 46 3d 00          	movb   $0x0,0x3d(%esi)
    17f5:	8d 65 f4             	lea    -0xc(%ebp),%esp
    17f8:	5b                   	pop    %ebx
    17f9:	5e                   	pop    %esi
    17fa:	5f                   	pop    %edi
    17fb:	5d                   	pop    %ebp
    17fc:	c3                   	ret    
    17fd:	8d 76 00             	lea    0x0(%esi),%esi

00001800 <ne2k_send>:
    1800:	55                   	push   %ebp
    1801:	89 e5                	mov    %esp,%ebp
    1803:	57                   	push   %edi
    1804:	56                   	push   %esi
    1805:	53                   	push   %ebx
    1806:	83 ec 38             	sub    $0x38,%esp
    1809:	8b 45 08             	mov    0x8(%ebp),%eax
    180c:	50                   	push   %eax
    180d:	e8 6e b5 00 00       	call   cd80 <nic_get_specific>
    1812:	83 c4 10             	add    $0x10,%esp
    1815:	80 78 3c 00          	cmpb   $0x0,0x3c(%eax)
    1819:	0f 84 f7 01 00 00    	je     1a16 <ne2k_send+0x216>
    181f:	89 c3                	mov    %eax,%ebx
    1821:	80 78 3d 00          	cmpb   $0x0,0x3d(%eax)
    1825:	0f 84 d6 01 00 00    	je     1a01 <ne2k_send+0x201>
    182b:	83 ec 0c             	sub    $0xc,%esp
    182e:	8d 70 24             	lea    0x24(%eax),%esi
    1831:	8d 7b 34             	lea    0x34(%ebx),%edi
    1834:	56                   	push   %esi
    1835:	e8 86 03 01 00       	call   11bc0 <fibril_mutex_lock@plt>
    183a:	83 c4 10             	add    $0x10,%esp
    183d:	80 7b 18 00          	cmpb   $0x0,0x18(%ebx)
    1841:	74 17                	je     185a <ne2k_send+0x5a>
    1843:	90                   	nop
    1844:	8d 74 26 00          	lea    0x0(%esi,%eiz,1),%esi
    1848:	50                   	push   %eax
    1849:	50                   	push   %eax
    184a:	56                   	push   %esi
    184b:	57                   	push   %edi
    184c:	e8 bf fe 00 00       	call   11710 <fibril_condvar_wait@plt>
    1851:	83 c4 10             	add    $0x10,%esp
    1854:	80 7b 18 00          	cmpb   $0x0,0x18(%ebx)
    1858:	75 ee                	jne    1848 <ne2k_send+0x48>
    185a:	8b 45 10             	mov    0x10(%ebp),%eax
    185d:	83 e8 3c             	sub    $0x3c,%eax
    1860:	3d b2 05 00 00       	cmp    $0x5b2,%eax
    1865:	0f 87 6d 01 00 00    	ja     19d8 <ne2k_send+0x1d8>
    186b:	8b 45 10             	mov    0x10(%ebp),%eax
    186e:	8b 4d 10             	mov    0x10(%ebp),%ecx
    1871:	0f b6 7b 20          	movzbl 0x20(%ebx),%edi
    1875:	40                   	inc    %eax
    1876:	52                   	push   %edx
    1877:	52                   	push   %edx
    1878:	89 45 d0             	mov    %eax,-0x30(%ebp)
    187b:	89 c2                	mov    %eax,%edx
    187d:	8b 43 04             	mov    0x4(%ebx),%eax
    1880:	81 e2 fe 00 00 00    	and    $0xfe,%edx
    1886:	83 e1 fe             	and    $0xfffffffe,%ecx
    1889:	52                   	push   %edx
    188a:	8d 50 0a             	lea    0xa(%eax),%edx
    188d:	52                   	push   %edx
    188e:	89 4d d4             	mov    %ecx,-0x2c(%ebp)
    1891:	e8 5a ff 00 00       	call   117f0 <pio_write_8@plt>
    1896:	59                   	pop    %ecx
    1897:	58                   	pop    %eax
    1898:	8b 45 d0             	mov    -0x30(%ebp),%eax
    189b:	c1 e8 08             	shr    $0x8,%eax
    189e:	81 e7 ff 00 00 00    	and    $0xff,%edi
    18a4:	c1 e7 08             	shl    $0x8,%edi
    18a7:	50                   	push   %eax
    18a8:	c1 ef 08             	shr    $0x8,%edi
    18ab:	8b 43 04             	mov    0x4(%ebx),%eax
    18ae:	83 c0 0b             	add    $0xb,%eax
    18b1:	50                   	push   %eax
    18b2:	e8 39 ff 00 00       	call   117f0 <pio_write_8@plt>
    18b7:	58                   	pop    %eax
    18b8:	8b 43 04             	mov    0x4(%ebx),%eax
    18bb:	83 c0 08             	add    $0x8,%eax
    18be:	5a                   	pop    %edx
    18bf:	6a 00                	push   $0x0
    18c1:	50                   	push   %eax
    18c2:	e8 29 ff 00 00       	call   117f0 <pio_write_8@plt>
    18c7:	59                   	pop    %ecx
    18c8:	58                   	pop    %eax
    18c9:	8b 43 04             	mov    0x4(%ebx),%eax
    18cc:	83 c0 09             	add    $0x9,%eax
    18cf:	57                   	push   %edi
    18d0:	50                   	push   %eax
    18d1:	e8 1a ff 00 00       	call   117f0 <pio_write_8@plt>
    18d6:	8b 4b 04             	mov    0x4(%ebx),%ecx
    18d9:	58                   	pop    %eax
    18da:	5a                   	pop    %edx
    18db:	6a 12                	push   $0x12
    18dd:	51                   	push   %ecx
    18de:	e8 0d ff 00 00       	call   117f0 <pio_write_8@plt>
    18e3:	8b 7d d4             	mov    -0x2c(%ebp),%edi
    18e6:	83 c4 10             	add    $0x10,%esp
    18e9:	8b 45 10             	mov    0x10(%ebp),%eax
    18ec:	85 ff                	test   %edi,%edi
    18ee:	74 48                	je     1938 <ne2k_send+0x138>
    18f0:	31 ff                	xor    %edi,%edi
    18f2:	8b 43 08             	mov    0x8(%ebx),%eax
    18f5:	89 5d d0             	mov    %ebx,-0x30(%ebp)
    18f8:	89 75 cc             	mov    %esi,-0x34(%ebp)
    18fb:	89 c3                	mov    %eax,%ebx
    18fd:	89 fe                	mov    %edi,%esi
    18ff:	8b 7d 0c             	mov    0xc(%ebp),%edi
    1902:	8d b6 00 00 00 00    	lea    0x0(%esi),%esi
    1908:	31 d2                	xor    %edx,%edx
    190a:	50                   	push   %eax
    190b:	50                   	push   %eax
    190c:	66 8b 14 37          	mov    (%edi,%esi,1),%dx
    1910:	83 c6 02             	add    $0x2,%esi
    1913:	52                   	push   %edx
    1914:	53                   	push   %ebx
    1915:	e8 96 fe 00 00       	call   117b0 <pio_write_16@plt>
    191a:	83 c4 10             	add    $0x10,%esp
    191d:	39 75 d4             	cmp    %esi,-0x2c(%ebp)
    1920:	77 e6                	ja     1908 <ne2k_send+0x108>
    1922:	8b 4d d4             	mov    -0x2c(%ebp),%ecx
    1925:	8b 7d 0c             	mov    0xc(%ebp),%edi
    1928:	8b 45 10             	mov    0x10(%ebp),%eax
    192b:	01 cf                	add    %ecx,%edi
    192d:	8b 5d d0             	mov    -0x30(%ebp),%ebx
    1930:	8b 75 cc             	mov    -0x34(%ebp),%esi
    1933:	29 c8                	sub    %ecx,%eax
    1935:	89 7d 0c             	mov    %edi,0xc(%ebp)
    1938:	85 c0                	test   %eax,%eax
    193a:	74 32                	je     196e <ne2k_send+0x16e>
    193c:	48                   	dec    %eax
    193d:	0f 85 a9 00 00 00    	jne    19ec <ne2k_send+0x1ec>
    1943:	8b 45 0c             	mov    0xc(%ebp),%eax
    1946:	57                   	push   %edi
    1947:	6a 01                	push   $0x1
    1949:	50                   	push   %eax
    194a:	8d 45 e6             	lea    -0x1a(%ebp),%eax
    194d:	66 c7 45 e6 00 00    	movw   $0x0,-0x1a(%ebp)
    1953:	50                   	push   %eax
    1954:	e8 37 fd 00 00       	call   11690 <memcpy@plt>
    1959:	58                   	pop    %eax
    195a:	31 c0                	xor    %eax,%eax
    195c:	66 8b 45 e6          	mov    -0x1a(%ebp),%ax
    1960:	8b 4b 08             	mov    0x8(%ebx),%ecx
    1963:	5a                   	pop    %edx
    1964:	50                   	push   %eax
    1965:	51                   	push   %ecx
    1966:	e8 45 fe 00 00       	call   117b0 <pio_write_16@plt>
    196b:	83 c4 10             	add    $0x10,%esp
    196e:	8b 45 10             	mov    0x10(%ebp),%eax
    1971:	c6 43 18 01          	movb   $0x1,0x18(%ebx)
    1975:	89 43 1c             	mov    %eax,0x1c(%ebx)
    1978:	50                   	push   %eax
    1979:	50                   	push   %eax
    197a:	31 c0                	xor    %eax,%eax
    197c:	8a 43 20             	mov    0x20(%ebx),%al
    197f:	50                   	push   %eax
    1980:	8b 43 04             	mov    0x4(%ebx),%eax
    1983:	83 c0 04             	add    $0x4,%eax
    1986:	50                   	push   %eax
    1987:	e8 64 fe 00 00       	call   117f0 <pio_write_8@plt>
    198c:	31 c0                	xor    %eax,%eax
    198e:	5a                   	pop    %edx
    198f:	8a 45 10             	mov    0x10(%ebp),%al
    1992:	59                   	pop    %ecx
    1993:	50                   	push   %eax
    1994:	8b 43 04             	mov    0x4(%ebx),%eax
    1997:	83 c0 05             	add    $0x5,%eax
    199a:	50                   	push   %eax
    199b:	e8 50 fe 00 00       	call   117f0 <pio_write_8@plt>
    19a0:	5f                   	pop    %edi
    19a1:	58                   	pop    %eax
    19a2:	8b 45 10             	mov    0x10(%ebp),%eax
    19a5:	c1 e8 08             	shr    $0x8,%eax
    19a8:	50                   	push   %eax
    19a9:	8b 43 04             	mov    0x4(%ebx),%eax
    19ac:	83 c0 06             	add    $0x6,%eax
    19af:	50                   	push   %eax
    19b0:	e8 3b fe 00 00       	call   117f0 <pio_write_8@plt>
    19b5:	8b 4b 04             	mov    0x4(%ebx),%ecx
    19b8:	58                   	pop    %eax
    19b9:	5a                   	pop    %edx
    19ba:	6a 06                	push   $0x6
    19bc:	51                   	push   %ecx
    19bd:	e8 2e fe 00 00       	call   117f0 <pio_write_8@plt>
    19c2:	89 34 24             	mov    %esi,(%esp)
    19c5:	e8 76 fe 00 00       	call   11840 <fibril_mutex_unlock@plt>
    19ca:	83 c4 10             	add    $0x10,%esp
    19cd:	8d 65 f4             	lea    -0xc(%ebp),%esp
    19d0:	5b                   	pop    %ebx
    19d1:	5e                   	pop    %esi
    19d2:	5f                   	pop    %edi
    19d3:	5d                   	pop    %ebp
    19d4:	c3                   	ret    
    19d5:	8d 76 00             	lea    0x0(%esi),%esi
    19d8:	83 ec 0c             	sub    $0xc,%esp
    19db:	56                   	push   %esi
    19dc:	e8 5f fe 00 00       	call   11840 <fibril_mutex_unlock@plt>
    19e1:	83 c4 10             	add    $0x10,%esp
    19e4:	8d 65 f4             	lea    -0xc(%ebp),%esp
    19e7:	5b                   	pop    %ebx
    19e8:	5e                   	pop    %esi
    19e9:	5f                   	pop    %edi
    19ea:	5d                   	pop    %ebp
    19eb:	c3                   	ret    
    19ec:	53                   	push   %ebx
    19ed:	68 9e 00 00 00       	push   $0x9e
    19f2:	68 29 f4 00 00       	push   $0xf429
    19f7:	68 32 f4 00 00       	push   $0xf432
    19fc:	e8 7f fd 00 00       	call   11780 <assert_abort@plt>
    1a01:	50                   	push   %eax
    1a02:	68 9d 01 00 00       	push   $0x19d
    1a07:	68 29 f4 00 00       	push   $0xf429
    1a0c:	68 49 f4 00 00       	push   $0xf449
    1a11:	e8 6a fd 00 00       	call   11780 <assert_abort@plt>
    1a16:	50                   	push   %eax
    1a17:	68 9c 01 00 00       	push   $0x19c
    1a1c:	68 29 f4 00 00       	push   $0xf429
    1a21:	68 3c f4 00 00       	push   $0xf43c
    1a26:	e8 55 fd 00 00       	call   11780 <assert_abort@plt>
    1a2b:	90                   	nop
    1a2c:	8d 74 26 00          	lea    0x0(%esi,%eiz,1),%esi

00001a30 <ne2k_interrupt>:
    1a30:	55                   	push   %ebp
    1a31:	89 e5                	mov    %esp,%ebp
    1a33:	57                   	push   %edi
    1a34:	56                   	push   %esi
    1a35:	53                   	push   %ebx
    1a36:	83 ec 58             	sub    $0x58,%esp
    1a39:	8b 55 0c             	mov    0xc(%ebp),%edx
    1a3c:	8b 45 08             	mov    0x8(%ebp),%eax
    1a3f:	89 d7                	mov    %edx,%edi
    1a41:	89 55 c4             	mov    %edx,-0x3c(%ebp)
    1a44:	50                   	push   %eax
    1a45:	89 45 bc             	mov    %eax,-0x44(%ebp)
    1a48:	8b 5d 10             	mov    0x10(%ebp),%ebx
    1a4b:	e8 30 b3 00 00       	call   cd80 <nic_get_specific>
    1a50:	89 fa                	mov    %edi,%edx
    1a52:	83 c4 10             	add    $0x10,%esp
    1a55:	89 c6                	mov    %eax,%esi
    1a57:	83 e2 0a             	and    $0xa,%edx
    1a5a:	74 69                	je     1ac5 <ne2k_interrupt+0x95>
    1a5c:	f6 c3 04             	test   $0x4,%bl
    1a5f:	0f 85 ab 04 00 00    	jne    1f10 <ne2k_interrupt+0x4e0>
    1a65:	f6 c3 01             	test   $0x1,%bl
    1a68:	0f 85 cc 04 00 00    	jne    1f3a <ne2k_interrupt+0x50a>
    1a6e:	f6 c3 08             	test   $0x8,%bl
    1a71:	0f 85 11 05 00 00    	jne    1f88 <ne2k_interrupt+0x558>
    1a77:	f6 c3 10             	test   $0x10,%bl
    1a7a:	0f 85 d0 04 00 00    	jne    1f50 <ne2k_interrupt+0x520>
    1a80:	f6 c3 20             	test   $0x20,%bl
    1a83:	0f 84 17 05 00 00    	je     1fa0 <ne2k_interrupt+0x570>
    1a89:	83 46 5c 01          	addl   $0x1,0x5c(%esi)
    1a8d:	83 56 60 00          	adcl   $0x0,0x60(%esi)
    1a91:	8d b4 26 00 00 00 00 	lea    0x0(%esi,%eiz,1),%esi
    1a98:	83 ec 0c             	sub    $0xc,%esp
    1a9b:	8d 5e 24             	lea    0x24(%esi),%ebx
    1a9e:	53                   	push   %ebx
    1a9f:	e8 1c 01 01 00       	call   11bc0 <fibril_mutex_lock@plt>
    1aa4:	83 c4 10             	add    $0x10,%esp
    1aa7:	80 7e 18 00          	cmpb   $0x0,0x18(%esi)
    1aab:	0f 85 b7 04 00 00    	jne    1f68 <ne2k_interrupt+0x538>
    1ab1:	83 46 54 01          	addl   $0x1,0x54(%esi)
    1ab5:	83 56 58 00          	adcl   $0x0,0x58(%esi)
    1ab9:	83 ec 0c             	sub    $0xc,%esp
    1abc:	53                   	push   %ebx
    1abd:	e8 7e fd 00 00       	call   11840 <fibril_mutex_unlock@plt>
    1ac2:	83 c4 10             	add    $0x10,%esp
    1ac5:	f6 45 c4 20          	testb  $0x20,-0x3c(%ebp)
    1ac9:	0f 85 a1 03 00 00    	jne    1e70 <ne2k_interrupt+0x440>
    1acf:	f6 45 c4 01          	testb  $0x1,-0x3c(%ebp)
    1ad3:	75 2b                	jne    1b00 <ne2k_interrupt+0xd0>
    1ad5:	80 7d c4 00          	cmpb   $0x0,-0x3c(%ebp)
    1ad9:	0f 88 a8 02 00 00    	js     1d87 <ne2k_interrupt+0x357>
    1adf:	c7 45 0c 3f 00 00 00 	movl   $0x3f,0xc(%ebp)
    1ae6:	8b 46 04             	mov    0x4(%esi),%eax
    1ae9:	83 c0 0f             	add    $0xf,%eax
    1aec:	89 45 08             	mov    %eax,0x8(%ebp)
    1aef:	8d 65 f4             	lea    -0xc(%ebp),%esp
    1af2:	5b                   	pop    %ebx
    1af3:	5e                   	pop    %esi
    1af4:	5f                   	pop    %edi
    1af5:	5d                   	pop    %ebp
    1af6:	e9 f5 fc 00 00       	jmp    117f0 <pio_write_8@plt>
    1afb:	90                   	nop
    1afc:	8d 74 26 00          	lea    0x0(%esi,%eiz,1),%esi
    1b00:	83 ec 0c             	sub    $0xc,%esp
    1b03:	8b 5d bc             	mov    -0x44(%ebp),%ebx
    1b06:	53                   	push   %ebx
    1b07:	e8 74 b2 00 00       	call   cd80 <nic_get_specific>
    1b0c:	89 c7                	mov    %eax,%edi
    1b0e:	e8 ad a7 00 00       	call   c2c0 <nic_alloc_frame_list>
    1b13:	83 c4 10             	add    $0x10,%esp
    1b16:	89 45 b8             	mov    %eax,-0x48(%ebp)
    1b19:	c7 45 d0 00 00 00 00 	movl   $0x0,-0x30(%ebp)
    1b20:	89 75 b4             	mov    %esi,-0x4c(%ebp)
    1b23:	eb 5a                	jmp    1b7f <ne2k_interrupt+0x14f>
    1b25:	8d 76 00             	lea    0x0(%esi),%esi
    1b28:	8a 4d e5             	mov    -0x1b(%ebp),%cl
    1b2b:	8a 57 16             	mov    0x16(%edi),%dl
    1b2e:	88 4d c3             	mov    %cl,-0x3d(%ebp)
    1b31:	38 d1                	cmp    %dl,%cl
    1b33:	72 1b                	jb     1b50 <ne2k_interrupt+0x120>
    1b35:	3a 4f 17             	cmp    0x17(%edi),%cl
    1b38:	77 16                	ja     1b50 <ne2k_interrupt+0x120>
    1b3a:	8a 4d e4             	mov    -0x1c(%ebp),%cl
    1b3d:	f6 c1 08             	test   $0x8,%cl
    1b40:	0f 84 52 01 00 00    	je     1c98 <ne2k_interrupt+0x268>
    1b46:	83 47 64 01          	addl   $0x1,0x64(%edi)
    1b4a:	83 57 68 00          	adcl   $0x0,0x68(%edi)
    1b4e:	66 90                	xchg   %ax,%ax
    1b50:	38 55 d4             	cmp    %dl,-0x2c(%ebp)
    1b53:	0f 84 21 01 00 00    	je     1c7a <ne2k_interrupt+0x24a>
    1b59:	8a 5d d4             	mov    -0x2c(%ebp),%bl
    1b5c:	50                   	push   %eax
    1b5d:	4b                   	dec    %ebx
    1b5e:	50                   	push   %eax
    1b5f:	88 d8                	mov    %bl,%al
    1b61:	31 db                	xor    %ebx,%ebx
    1b63:	88 c3                	mov    %al,%bl
    1b65:	53                   	push   %ebx
    1b66:	8b 47 04             	mov    0x4(%edi),%eax
    1b69:	83 c0 03             	add    $0x3,%eax
    1b6c:	50                   	push   %eax
    1b6d:	e8 7e fc 00 00       	call   117f0 <pio_write_8@plt>
    1b72:	83 c4 10             	add    $0x10,%esp
    1b75:	83 7d d0 0f          	cmpl   $0xf,-0x30(%ebp)
    1b79:	0f 87 e9 01 00 00    	ja     1d68 <ne2k_interrupt+0x338>
    1b7f:	83 ec 0c             	sub    $0xc,%esp
    1b82:	8b 47 04             	mov    0x4(%edi),%eax
    1b85:	83 c0 03             	add    $0x3,%eax
    1b88:	50                   	push   %eax
    1b89:	e8 d2 fb 00 00       	call   11760 <pio_read_8@plt>
    1b8e:	83 c4 10             	add    $0x10,%esp
    1b91:	8d 58 01             	lea    0x1(%eax),%ebx
    1b94:	3a 5f 17             	cmp    0x17(%edi),%bl
    1b97:	0f 84 f3 00 00 00    	je     1c90 <ne2k_interrupt+0x260>
    1b9d:	50                   	push   %eax
    1b9e:	50                   	push   %eax
    1b9f:	6a 42                	push   $0x42
    1ba1:	8b 47 04             	mov    0x4(%edi),%eax
    1ba4:	50                   	push   %eax
    1ba5:	e8 46 fc 00 00       	call   117f0 <pio_write_8@plt>
    1baa:	8b 47 04             	mov    0x4(%edi),%eax
    1bad:	83 c0 07             	add    $0x7,%eax
    1bb0:	89 04 24             	mov    %eax,(%esp)
    1bb3:	e8 a8 fb 00 00       	call   11760 <pio_read_8@plt>
    1bb8:	89 c6                	mov    %eax,%esi
    1bba:	88 45 d4             	mov    %al,-0x2c(%ebp)
    1bbd:	58                   	pop    %eax
    1bbe:	5a                   	pop    %edx
    1bbf:	6a 02                	push   $0x2
    1bc1:	8b 4f 04             	mov    0x4(%edi),%ecx
    1bc4:	51                   	push   %ecx
    1bc5:	e8 26 fc 00 00       	call   117f0 <pio_write_8@plt>
    1bca:	89 f0                	mov    %esi,%eax
    1bcc:	83 c4 10             	add    $0x10,%esp
    1bcf:	38 d8                	cmp    %bl,%al
    1bd1:	0f 84 91 01 00 00    	je     1d68 <ne2k_interrupt+0x338>
    1bd7:	88 d8                	mov    %bl,%al
    1bd9:	51                   	push   %ecx
    1bda:	25 ff 00 00 00       	and    $0xff,%eax
    1bdf:	51                   	push   %ecx
    1be0:	89 45 c8             	mov    %eax,-0x38(%ebp)
    1be3:	6a 04                	push   $0x4
    1be5:	c1 e0 08             	shl    $0x8,%eax
    1be8:	89 c6                	mov    %eax,%esi
    1bea:	89 45 cc             	mov    %eax,-0x34(%ebp)
    1bed:	8b 47 04             	mov    0x4(%edi),%eax
    1bf0:	83 c0 0a             	add    $0xa,%eax
    1bf3:	50                   	push   %eax
    1bf4:	e8 f7 fb 00 00       	call   117f0 <pio_write_8@plt>
    1bf9:	58                   	pop    %eax
    1bfa:	5a                   	pop    %edx
    1bfb:	6a 00                	push   $0x0
    1bfd:	8b 47 04             	mov    0x4(%edi),%eax
    1c00:	83 c0 0b             	add    $0xb,%eax
    1c03:	50                   	push   %eax
    1c04:	e8 e7 fb 00 00       	call   117f0 <pio_write_8@plt>
    1c09:	59                   	pop    %ecx
    1c0a:	58                   	pop    %eax
    1c0b:	6a 00                	push   $0x0
    1c0d:	8b 47 04             	mov    0x4(%edi),%eax
    1c10:	83 c0 08             	add    $0x8,%eax
    1c13:	50                   	push   %eax
    1c14:	e8 d7 fb 00 00       	call   117f0 <pio_write_8@plt>
    1c19:	58                   	pop    %eax
    1c1a:	89 f0                	mov    %esi,%eax
    1c1c:	c1 e8 08             	shr    $0x8,%eax
    1c1f:	5a                   	pop    %edx
    1c20:	50                   	push   %eax
    1c21:	8b 47 04             	mov    0x4(%edi),%eax
    1c24:	83 c0 09             	add    $0x9,%eax
    1c27:	50                   	push   %eax
    1c28:	e8 c3 fb 00 00       	call   117f0 <pio_write_8@plt>
    1c2d:	59                   	pop    %ecx
    1c2e:	5e                   	pop    %esi
    1c2f:	6a 0a                	push   $0xa
    1c31:	8b 47 04             	mov    0x4(%edi),%eax
    1c34:	50                   	push   %eax
    1c35:	e8 b6 fb 00 00       	call   117f0 <pio_write_8@plt>
    1c3a:	8b 77 08             	mov    0x8(%edi),%esi
    1c3d:	89 34 24             	mov    %esi,(%esp)
    1c40:	e8 9b fc 00 00       	call   118e0 <pio_read_16@plt>
    1c45:	89 34 24             	mov    %esi,(%esp)
    1c48:	66 89 45 e4          	mov    %ax,-0x1c(%ebp)
    1c4c:	e8 8f fc 00 00       	call   118e0 <pio_read_16@plt>
    1c51:	83 c4 10             	add    $0x10,%esp
    1c54:	89 c2                	mov    %eax,%edx
    1c56:	66 89 45 e6          	mov    %ax,-0x1a(%ebp)
    1c5a:	31 c0                	xor    %eax,%eax
    1c5c:	66 89 d0             	mov    %dx,%ax
    1c5f:	8d 50 c0             	lea    -0x40(%eax),%edx
    1c62:	81 fa b2 05 00 00    	cmp    $0x5b2,%edx
    1c68:	0f 86 ba fe ff ff    	jbe    1b28 <ne2k_interrupt+0xf8>
    1c6e:	8a 57 16             	mov    0x16(%edi),%dl
    1c71:	38 55 d4             	cmp    %dl,-0x2c(%ebp)
    1c74:	0f 85 df fe ff ff    	jne    1b59 <ne2k_interrupt+0x129>
    1c7a:	50                   	push   %eax
    1c7b:	50                   	push   %eax
    1c7c:	8a 47 17             	mov    0x17(%edi),%al
    1c7f:	8d 48 ff             	lea    -0x1(%eax),%ecx
    1c82:	31 c0                	xor    %eax,%eax
    1c84:	88 c8                	mov    %cl,%al
    1c86:	50                   	push   %eax
    1c87:	e9 da fe ff ff       	jmp    1b66 <ne2k_interrupt+0x136>
    1c8c:	8d 74 26 00          	lea    0x0(%esi,%eiz,1),%esi
    1c90:	8a 5f 16             	mov    0x16(%edi),%bl
    1c93:	e9 05 ff ff ff       	jmp    1b9d <ne2k_interrupt+0x16d>
    1c98:	83 e1 01             	and    $0x1,%ecx
    1c9b:	0f 84 b7 00 00 00    	je     1d58 <ne2k_interrupt+0x328>
    1ca1:	80 7f 3d 00          	cmpb   $0x0,0x3d(%edi)
    1ca5:	0f 84 ad 00 00 00    	je     1d58 <ne2k_interrupt+0x328>
    1cab:	8b 55 b8             	mov    -0x48(%ebp),%edx
    1cae:	85 d2                	test   %edx,%edx
    1cb0:	0f 84 b2 00 00 00    	je     1d68 <ne2k_interrupt+0x338>
    1cb6:	83 ec 0c             	sub    $0xc,%esp
    1cb9:	83 e8 04             	sub    $0x4,%eax
    1cbc:	89 45 d4             	mov    %eax,-0x2c(%ebp)
    1cbf:	8b 45 bc             	mov    -0x44(%ebp),%eax
    1cc2:	50                   	push   %eax
    1cc3:	e8 b8 b0 00 00       	call   cd80 <nic_get_specific>
    1cc8:	8b 4d d4             	mov    -0x2c(%ebp),%ecx
    1ccb:	89 c6                	mov    %eax,%esi
    1ccd:	58                   	pop    %eax
    1cce:	8b 45 bc             	mov    -0x44(%ebp),%eax
    1cd1:	5a                   	pop    %edx
    1cd2:	51                   	push   %ecx
    1cd3:	50                   	push   %eax
    1cd4:	e8 57 a4 00 00       	call   c130 <nic_alloc_frame>
    1cd9:	83 c4 10             	add    $0x10,%esp
    1cdc:	89 c2                	mov    %eax,%edx
    1cde:	89 45 b0             	mov    %eax,-0x50(%ebp)
    1ce1:	85 c0                	test   %eax,%eax
    1ce3:	0f 84 7f 00 00 00    	je     1d68 <ne2k_interrupt+0x338>
    1ce9:	8b 45 d4             	mov    -0x2c(%ebp),%eax
    1cec:	51                   	push   %ecx
    1ced:	50                   	push   %eax
    1cee:	6a 00                	push   $0x0
    1cf0:	8b 42 08             	mov    0x8(%edx),%eax
    1cf3:	50                   	push   %eax
    1cf4:	e8 57 fc 00 00       	call   11950 <memset@plt>
    1cf9:	8b 45 d4             	mov    -0x2c(%ebp),%eax
    1cfc:	8a 56 17             	mov    0x17(%esi),%dl
    1cff:	c1 e8 08             	shr    $0x8,%eax
    1d02:	83 c4 10             	add    $0x10,%esp
    1d05:	01 d8                	add    %ebx,%eax
    1d07:	38 d0                	cmp    %dl,%al
    1d09:	0f 83 b4 02 00 00    	jae    1fc3 <ne2k_interrupt+0x593>
    1d0f:	8b 45 b0             	mov    -0x50(%ebp),%eax
    1d12:	8d 56 08             	lea    0x8(%esi),%edx
    1d15:	8b 48 08             	mov    0x8(%eax),%ecx
    1d18:	53                   	push   %ebx
    1d19:	53                   	push   %ebx
    1d1a:	8b 5d cc             	mov    -0x34(%ebp),%ebx
    1d1d:	8d 46 04             	lea    0x4(%esi),%eax
    1d20:	83 c3 04             	add    $0x4,%ebx
    1d23:	8b 75 d4             	mov    -0x2c(%ebp),%esi
    1d26:	56                   	push   %esi
    1d27:	53                   	push   %ebx
    1d28:	e8 13 f4 ff ff       	call   1140 <ne2k_download.isra.2>
    1d2d:	83 c4 10             	add    $0x10,%esp
    1d30:	8b 55 b0             	mov    -0x50(%ebp),%edx
    1d33:	8b 4d b8             	mov    -0x48(%ebp),%ecx
    1d36:	50                   	push   %eax
    1d37:	50                   	push   %eax
    1d38:	52                   	push   %edx
    1d39:	51                   	push   %ecx
    1d3a:	e8 21 a6 00 00       	call   c360 <nic_frame_list_append>
    1d3f:	8b 5d d0             	mov    -0x30(%ebp),%ebx
    1d42:	43                   	inc    %ebx
    1d43:	8a 45 c3             	mov    -0x3d(%ebp),%al
    1d46:	89 5d d0             	mov    %ebx,-0x30(%ebp)
    1d49:	8a 57 16             	mov    0x16(%edi),%dl
    1d4c:	83 c4 10             	add    $0x10,%esp
    1d4f:	88 45 d4             	mov    %al,-0x2c(%ebp)
    1d52:	e9 f9 fd ff ff       	jmp    1b50 <ne2k_interrupt+0x120>
    1d57:	90                   	nop
    1d58:	8a 45 c3             	mov    -0x3d(%ebp),%al
    1d5b:	88 45 d4             	mov    %al,-0x2c(%ebp)
    1d5e:	e9 ed fd ff ff       	jmp    1b50 <ne2k_interrupt+0x120>
    1d63:	90                   	nop
    1d64:	8d 74 26 00          	lea    0x0(%esi,%eiz,1),%esi
    1d68:	8b 5d b8             	mov    -0x48(%ebp),%ebx
    1d6b:	8b 7d bc             	mov    -0x44(%ebp),%edi
    1d6e:	51                   	push   %ecx
    1d6f:	51                   	push   %ecx
    1d70:	53                   	push   %ebx
    1d71:	57                   	push   %edi
    1d72:	8b 75 b4             	mov    -0x4c(%ebp),%esi
    1d75:	e8 16 aa 00 00       	call   c790 <nic_received_frame_list>
    1d7a:	83 c4 10             	add    $0x10,%esp
    1d7d:	80 7d c4 00          	cmpb   $0x0,-0x3c(%ebp)
    1d81:	0f 89 58 fd ff ff    	jns    1adf <ne2k_interrupt+0xaf>
    1d87:	83 ec 0c             	sub    $0xc,%esp
    1d8a:	8d 7e 24             	lea    0x24(%esi),%edi
    1d8d:	57                   	push   %edi
    1d8e:	e8 2d fe 00 00       	call   11bc0 <fibril_mutex_lock@plt>
    1d93:	58                   	pop    %eax
    1d94:	5a                   	pop    %edx
    1d95:	6a 21                	push   $0x21
    1d97:	8b 4e 04             	mov    0x4(%esi),%ecx
    1d9a:	51                   	push   %ecx
    1d9b:	e8 50 fa 00 00       	call   117f0 <pio_write_8@plt>
    1da0:	5b                   	pop    %ebx
    1da1:	58                   	pop    %eax
    1da2:	6a 00                	push   $0x0
    1da4:	bb 00 10 00 00       	mov    $0x1000,%ebx
    1da9:	8b 46 04             	mov    0x4(%esi),%eax
    1dac:	83 c0 0a             	add    $0xa,%eax
    1daf:	50                   	push   %eax
    1db0:	e8 3b fa 00 00       	call   117f0 <pio_write_8@plt>
    1db5:	58                   	pop    %eax
    1db6:	5a                   	pop    %edx
    1db7:	6a 00                	push   $0x0
    1db9:	8b 46 04             	mov    0x4(%esi),%eax
    1dbc:	83 c0 0b             	add    $0xb,%eax
    1dbf:	50                   	push   %eax
    1dc0:	e8 2b fa 00 00       	call   117f0 <pio_write_8@plt>
    1dc5:	83 c4 10             	add    $0x10,%esp
    1dc8:	eb 09                	jmp    1dd3 <ne2k_interrupt+0x3a3>
    1dca:	8d b6 00 00 00 00    	lea    0x0(%esi),%esi
    1dd0:	4b                   	dec    %ebx
    1dd1:	74 16                	je     1de9 <ne2k_interrupt+0x3b9>
    1dd3:	83 ec 0c             	sub    $0xc,%esp
    1dd6:	8b 46 04             	mov    0x4(%esi),%eax
    1dd9:	83 c0 07             	add    $0x7,%eax
    1ddc:	50                   	push   %eax
    1ddd:	e8 7e f9 00 00       	call   11760 <pio_read_8@plt>
    1de2:	83 c4 10             	add    $0x10,%esp
    1de5:	84 c0                	test   %al,%al
    1de7:	79 e7                	jns    1dd0 <ne2k_interrupt+0x3a0>
    1de9:	53                   	push   %ebx
    1dea:	53                   	push   %ebx
    1deb:	6a 16                	push   $0x16
    1ded:	8b 46 04             	mov    0x4(%esi),%eax
    1df0:	83 c0 0d             	add    $0xd,%eax
    1df3:	50                   	push   %eax
    1df4:	e8 f7 f9 00 00       	call   117f0 <pio_write_8@plt>
    1df9:	58                   	pop    %eax
    1dfa:	5a                   	pop    %edx
    1dfb:	6a 22                	push   $0x22
    1dfd:	8b 4e 04             	mov    0x4(%esi),%ecx
    1e00:	51                   	push   %ecx
    1e01:	e8 ea f9 00 00       	call   117f0 <pio_write_8@plt>
    1e06:	5b                   	pop    %ebx
    1e07:	58                   	pop    %eax
    1e08:	6a 00                	push   $0x0
    1e0a:	bb 00 10 00 00       	mov    $0x1000,%ebx
    1e0f:	8b 46 04             	mov    0x4(%esi),%eax
    1e12:	83 c0 0d             	add    $0xd,%eax
    1e15:	50                   	push   %eax
    1e16:	e8 d5 f9 00 00       	call   117f0 <pio_write_8@plt>
    1e1b:	83 c4 10             	add    $0x10,%esp
    1e1e:	eb 03                	jmp    1e23 <ne2k_interrupt+0x3f3>
    1e20:	4b                   	dec    %ebx
    1e21:	74 16                	je     1e39 <ne2k_interrupt+0x409>
    1e23:	83 ec 0c             	sub    $0xc,%esp
    1e26:	8b 46 04             	mov    0x4(%esi),%eax
    1e29:	83 c0 07             	add    $0x7,%eax
    1e2c:	50                   	push   %eax
    1e2d:	e8 2e f9 00 00       	call   11760 <pio_read_8@plt>
    1e32:	83 c4 10             	add    $0x10,%esp
    1e35:	a8 40                	test   $0x40,%al
    1e37:	74 e7                	je     1e20 <ne2k_interrupt+0x3f0>
    1e39:	83 ec 0c             	sub    $0xc,%esp
    1e3c:	8b 46 04             	mov    0x4(%esi),%eax
    1e3f:	83 c0 07             	add    $0x7,%eax
    1e42:	50                   	push   %eax
    1e43:	e8 18 f9 00 00       	call   11760 <pio_read_8@plt>
    1e48:	25 bf 00 00 00       	and    $0xbf,%eax
    1e4d:	5a                   	pop    %edx
    1e4e:	59                   	pop    %ecx
    1e4f:	50                   	push   %eax
    1e50:	8b 46 04             	mov    0x4(%esi),%eax
    1e53:	83 c0 07             	add    $0x7,%eax
    1e56:	50                   	push   %eax
    1e57:	e8 94 f9 00 00       	call   117f0 <pio_write_8@plt>
    1e5c:	c6 46 18 00          	movb   $0x0,0x18(%esi)
    1e60:	89 3c 24             	mov    %edi,(%esp)
    1e63:	e8 d8 f9 00 00       	call   11840 <fibril_mutex_unlock@plt>
    1e68:	83 c4 10             	add    $0x10,%esp
    1e6b:	e9 6f fc ff ff       	jmp    1adf <ne2k_interrupt+0xaf>
    1e70:	83 ec 0c             	sub    $0xc,%esp
    1e73:	8b 46 04             	mov    0x4(%esi),%eax
    1e76:	83 c0 0d             	add    $0xd,%eax
    1e79:	31 db                	xor    %ebx,%ebx
    1e7b:	50                   	push   %eax
    1e7c:	e8 df f8 00 00       	call   11760 <pio_read_8@plt>
    1e81:	88 c3                	mov    %al,%bl
    1e83:	83 c4 10             	add    $0x10,%esp
    1e86:	8b 7d bc             	mov    -0x44(%ebp),%edi
    1e89:	85 db                	test   %ebx,%ebx
    1e8b:	74 14                	je     1ea1 <ne2k_interrupt+0x471>
    1e8d:	8d 76 00             	lea    0x0(%esi),%esi
    1e90:	50                   	push   %eax
    1e91:	6a 01                	push   $0x1
    1e93:	6a 03                	push   $0x3
    1e95:	57                   	push   %edi
    1e96:	e8 95 b0 00 00       	call   cf30 <nic_report_receive_error>
    1e9b:	83 c4 10             	add    $0x10,%esp
    1e9e:	4b                   	dec    %ebx
    1e9f:	75 ef                	jne    1e90 <ne2k_interrupt+0x460>
    1ea1:	83 ec 0c             	sub    $0xc,%esp
    1ea4:	8b 46 04             	mov    0x4(%esi),%eax
    1ea7:	83 c0 0e             	add    $0xe,%eax
    1eaa:	31 db                	xor    %ebx,%ebx
    1eac:	50                   	push   %eax
    1ead:	e8 ae f8 00 00       	call   11760 <pio_read_8@plt>
    1eb2:	88 c3                	mov    %al,%bl
    1eb4:	83 c4 10             	add    $0x10,%esp
    1eb7:	8b 7d bc             	mov    -0x44(%ebp),%edi
    1eba:	85 db                	test   %ebx,%ebx
    1ebc:	74 13                	je     1ed1 <ne2k_interrupt+0x4a1>
    1ebe:	66 90                	xchg   %ax,%ax
    1ec0:	50                   	push   %eax
    1ec1:	6a 01                	push   $0x1
    1ec3:	6a 04                	push   $0x4
    1ec5:	57                   	push   %edi
    1ec6:	e8 65 b0 00 00       	call   cf30 <nic_report_receive_error>
    1ecb:	83 c4 10             	add    $0x10,%esp
    1ece:	4b                   	dec    %ebx
    1ecf:	75 ef                	jne    1ec0 <ne2k_interrupt+0x490>
    1ed1:	83 ec 0c             	sub    $0xc,%esp
    1ed4:	8b 46 04             	mov    0x4(%esi),%eax
    1ed7:	83 c0 0f             	add    $0xf,%eax
    1eda:	31 db                	xor    %ebx,%ebx
    1edc:	50                   	push   %eax
    1edd:	e8 7e f8 00 00       	call   11760 <pio_read_8@plt>
    1ee2:	88 c3                	mov    %al,%bl
    1ee4:	83 c4 10             	add    $0x10,%esp
    1ee7:	8b 7d bc             	mov    -0x44(%ebp),%edi
    1eea:	85 db                	test   %ebx,%ebx
    1eec:	0f 84 dd fb ff ff    	je     1acf <ne2k_interrupt+0x9f>
    1ef2:	8d b6 00 00 00 00    	lea    0x0(%esi),%esi
    1ef8:	50                   	push   %eax
    1ef9:	6a 01                	push   $0x1
    1efb:	6a 06                	push   $0x6
    1efd:	57                   	push   %edi
    1efe:	e8 2d b0 00 00       	call   cf30 <nic_report_receive_error>
    1f03:	83 c4 10             	add    $0x10,%esp
    1f06:	4b                   	dec    %ebx
    1f07:	75 ef                	jne    1ef8 <ne2k_interrupt+0x4c8>
    1f09:	e9 c1 fb ff ff       	jmp    1acf <ne2k_interrupt+0x9f>
    1f0e:	66 90                	xchg   %ax,%ax
    1f10:	83 ec 0c             	sub    $0xc,%esp
    1f13:	8b 40 04             	mov    0x4(%eax),%eax
    1f16:	83 c0 05             	add    $0x5,%eax
    1f19:	50                   	push   %eax
    1f1a:	e8 41 f8 00 00       	call   11760 <pio_read_8@plt>
    1f1f:	8b 7d bc             	mov    -0x44(%ebp),%edi
    1f22:	83 e0 0f             	and    $0xf,%eax
    1f25:	5a                   	pop    %edx
    1f26:	59                   	pop    %ecx
    1f27:	50                   	push   %eax
    1f28:	57                   	push   %edi
    1f29:	e8 02 b1 00 00       	call   d030 <nic_report_collisions>
    1f2e:	83 c4 10             	add    $0x10,%esp
    1f31:	f6 c3 01             	test   $0x1,%bl
    1f34:	0f 84 34 fb ff ff    	je     1a6e <ne2k_interrupt+0x3e>
    1f3a:	50                   	push   %eax
    1f3b:	8b 45 bc             	mov    -0x44(%ebp),%eax
    1f3e:	6a 00                	push   $0x0
    1f40:	6a 01                	push   $0x1
    1f42:	50                   	push   %eax
    1f43:	e8 d8 ae 00 00       	call   ce20 <nic_report_send_ok>
    1f48:	83 c4 10             	add    $0x10,%esp
    1f4b:	e9 48 fb ff ff       	jmp    1a98 <ne2k_interrupt+0x68>
    1f50:	8b 5d bc             	mov    -0x44(%ebp),%ebx
    1f53:	51                   	push   %ecx
    1f54:	6a 01                	push   $0x1
    1f56:	6a 02                	push   $0x2
    1f58:	53                   	push   %ebx
    1f59:	e8 12 af 00 00       	call   ce70 <nic_report_send_error>
    1f5e:	83 c4 10             	add    $0x10,%esp
    1f61:	e9 32 fb ff ff       	jmp    1a98 <ne2k_interrupt+0x68>
    1f66:	66 90                	xchg   %ax,%ax
    1f68:	83 ec 0c             	sub    $0xc,%esp
    1f6b:	8d 46 34             	lea    0x34(%esi),%eax
    1f6e:	c6 46 18 00          	movb   $0x0,0x18(%esi)
    1f72:	c7 46 1c 00 00 00 00 	movl   $0x0,0x1c(%esi)
    1f79:	50                   	push   %eax
    1f7a:	e8 a1 f8 00 00       	call   11820 <fibril_condvar_broadcast@plt>
    1f7f:	83 c4 10             	add    $0x10,%esp
    1f82:	e9 32 fb ff ff       	jmp    1ab9 <ne2k_interrupt+0x89>
    1f87:	90                   	nop
    1f88:	8b 45 bc             	mov    -0x44(%ebp),%eax
    1f8b:	57                   	push   %edi
    1f8c:	6a 01                	push   $0x1
    1f8e:	6a 01                	push   $0x1
    1f90:	50                   	push   %eax
    1f91:	e8 da ae 00 00       	call   ce70 <nic_report_send_error>
    1f96:	83 c4 10             	add    $0x10,%esp
    1f99:	e9 fa fa ff ff       	jmp    1a98 <ne2k_interrupt+0x68>
    1f9e:	66 90                	xchg   %ax,%ax
    1fa0:	f6 c3 40             	test   $0x40,%bl
    1fa3:	75 7f                	jne    2024 <ne2k_interrupt+0x5f4>
    1fa5:	84 db                	test   %bl,%bl
    1fa7:	0f 89 eb fa ff ff    	jns    1a98 <ne2k_interrupt+0x68>
    1fad:	50                   	push   %eax
    1fae:	8b 45 bc             	mov    -0x44(%ebp),%eax
    1fb1:	6a 01                	push   $0x1
    1fb3:	6a 05                	push   $0x5
    1fb5:	50                   	push   %eax
    1fb6:	e8 b5 ae 00 00       	call   ce70 <nic_report_send_error>
    1fbb:	83 c4 10             	add    $0x10,%esp
    1fbe:	e9 d5 fa ff ff       	jmp    1a98 <ne2k_interrupt+0x68>
    1fc3:	31 c0                	xor    %eax,%eax
    1fc5:	8b 4d b0             	mov    -0x50(%ebp),%ecx
    1fc8:	88 d0                	mov    %dl,%al
    1fca:	8b 55 c8             	mov    -0x38(%ebp),%edx
    1fcd:	29 d0                	sub    %edx,%eax
    1fcf:	8b 49 08             	mov    0x8(%ecx),%ecx
    1fd2:	c1 e0 08             	shl    $0x8,%eax
    1fd5:	8d 56 08             	lea    0x8(%esi),%edx
    1fd8:	8d 58 fc             	lea    -0x4(%eax),%ebx
    1fdb:	8d 46 04             	lea    0x4(%esi),%eax
    1fde:	89 45 c8             	mov    %eax,-0x38(%ebp)
    1fe1:	50                   	push   %eax
    1fe2:	50                   	push   %eax
    1fe3:	8b 45 cc             	mov    -0x34(%ebp),%eax
    1fe6:	83 c0 04             	add    $0x4,%eax
    1fe9:	53                   	push   %ebx
    1fea:	50                   	push   %eax
    1feb:	8d 46 04             	lea    0x4(%esi),%eax
    1fee:	89 55 cc             	mov    %edx,-0x34(%ebp)
    1ff1:	e8 4a f1 ff ff       	call   1140 <ne2k_download.isra.2>
    1ff6:	8b 4d b0             	mov    -0x50(%ebp),%ecx
    1ff9:	8b 41 08             	mov    0x8(%ecx),%eax
    1ffc:	01 d8                	add    %ebx,%eax
    1ffe:	89 c1                	mov    %eax,%ecx
    2000:	58                   	pop    %eax
    2001:	8b 45 d4             	mov    -0x2c(%ebp),%eax
    2004:	5a                   	pop    %edx
    2005:	29 d8                	sub    %ebx,%eax
    2007:	8b 55 cc             	mov    -0x34(%ebp),%edx
    200a:	50                   	push   %eax
    200b:	31 c0                	xor    %eax,%eax
    200d:	8a 46 16             	mov    0x16(%esi),%al
    2010:	c1 e0 08             	shl    $0x8,%eax
    2013:	50                   	push   %eax
    2014:	8b 45 c8             	mov    -0x38(%ebp),%eax
    2017:	e8 24 f1 ff ff       	call   1140 <ne2k_download.isra.2>
    201c:	83 c4 10             	add    $0x10,%esp
    201f:	e9 0c fd ff ff       	jmp    1d30 <ne2k_interrupt+0x300>
    2024:	8b 55 bc             	mov    -0x44(%ebp),%edx
    2027:	50                   	push   %eax
    2028:	6a 01                	push   $0x1
    202a:	6a 04                	push   $0x4
    202c:	52                   	push   %edx
    202d:	e8 3e ae 00 00       	call   ce70 <nic_report_send_error>
    2032:	83 c4 10             	add    $0x10,%esp
    2035:	e9 5e fa ff ff       	jmp    1a98 <ne2k_interrupt+0x68>
    203a:	8d b6 00 00 00 00    	lea    0x0(%esi),%esi

00002040 <ne2k_set_accept_bcast>:
    2040:	55                   	push   %ebp
    2041:	89 e5                	mov    %esp,%ebp
    2043:	8b 55 08             	mov    0x8(%ebp),%edx
    2046:	8b 4d 0c             	mov    0xc(%ebp),%ecx
    2049:	85 c9                	test   %ecx,%ecx
    204b:	8a 42 50             	mov    0x50(%edx),%al
    204e:	75 20                	jne    2070 <ne2k_set_accept_bcast+0x30>
    2050:	83 e0 fb             	and    $0xfffffffb,%eax
    2053:	88 c1                	mov    %al,%cl
    2055:	31 c0                	xor    %eax,%eax
    2057:	88 4a 50             	mov    %cl,0x50(%edx)
    205a:	88 c8                	mov    %cl,%al
    205c:	89 45 0c             	mov    %eax,0xc(%ebp)
    205f:	8b 42 04             	mov    0x4(%edx),%eax
    2062:	83 c0 0c             	add    $0xc,%eax
    2065:	89 45 08             	mov    %eax,0x8(%ebp)
    2068:	5d                   	pop    %ebp
    2069:	e9 82 f7 00 00       	jmp    117f0 <pio_write_8@plt>
    206e:	66 90                	xchg   %ax,%ax
    2070:	83 c8 04             	or     $0x4,%eax
    2073:	88 c1                	mov    %al,%cl
    2075:	eb de                	jmp    2055 <ne2k_set_accept_bcast+0x15>
    2077:	89 f6                	mov    %esi,%esi
    2079:	8d bc 27 00 00 00 00 	lea    0x0(%edi,%eiz,1),%edi

00002080 <ne2k_set_accept_mcast>:
    2080:	55                   	push   %ebp
    2081:	89 e5                	mov    %esp,%ebp
    2083:	8b 55 08             	mov    0x8(%ebp),%edx
    2086:	8b 4d 0c             	mov    0xc(%ebp),%ecx
    2089:	85 c9                	test   %ecx,%ecx
    208b:	8a 42 50             	mov    0x50(%edx),%al
    208e:	75 20                	jne    20b0 <ne2k_set_accept_mcast+0x30>
    2090:	83 e0 f7             	and    $0xfffffff7,%eax
    2093:	88 c1                	mov    %al,%cl
    2095:	31 c0                	xor    %eax,%eax
    2097:	88 4a 50             	mov    %cl,0x50(%edx)
    209a:	88 c8                	mov    %cl,%al
    209c:	89 45 0c             	mov    %eax,0xc(%ebp)
    209f:	8b 42 04             	mov    0x4(%edx),%eax
    20a2:	83 c0 0c             	add    $0xc,%eax
    20a5:	89 45 08             	mov    %eax,0x8(%ebp)
    20a8:	5d                   	pop    %ebp
    20a9:	e9 42 f7 00 00       	jmp    117f0 <pio_write_8@plt>
    20ae:	66 90                	xchg   %ax,%ax
    20b0:	83 c8 08             	or     $0x8,%eax
    20b3:	88 c1                	mov    %al,%cl
    20b5:	eb de                	jmp    2095 <ne2k_set_accept_mcast+0x15>
    20b7:	89 f6                	mov    %esi,%esi
    20b9:	8d bc 27 00 00 00 00 	lea    0x0(%edi,%eiz,1),%edi

000020c0 <ne2k_set_promisc_phys>:
    20c0:	55                   	push   %ebp
    20c1:	89 e5                	mov    %esp,%ebp
    20c3:	8b 55 08             	mov    0x8(%ebp),%edx
    20c6:	8b 4d 0c             	mov    0xc(%ebp),%ecx
    20c9:	85 c9                	test   %ecx,%ecx
    20cb:	8a 42 50             	mov    0x50(%edx),%al
    20ce:	75 20                	jne    20f0 <ne2k_set_promisc_phys+0x30>
    20d0:	83 e0 ef             	and    $0xffffffef,%eax
    20d3:	88 c1                	mov    %al,%cl
    20d5:	31 c0                	xor    %eax,%eax
    20d7:	88 4a 50             	mov    %cl,0x50(%edx)
    20da:	88 c8                	mov    %cl,%al
    20dc:	89 45 0c             	mov    %eax,0xc(%ebp)
    20df:	8b 42 04             	mov    0x4(%edx),%eax
    20e2:	83 c0 0c             	add    $0xc,%eax
    20e5:	89 45 08             	mov    %eax,0x8(%ebp)
    20e8:	5d                   	pop    %ebp
    20e9:	e9 02 f7 00 00       	jmp    117f0 <pio_write_8@plt>
    20ee:	66 90                	xchg   %ax,%ax
    20f0:	83 c8 10             	or     $0x10,%eax
    20f3:	88 c1                	mov    %al,%cl
    20f5:	eb de                	jmp    20d5 <ne2k_set_promisc_phys+0x15>
    20f7:	89 f6                	mov    %esi,%esi
    20f9:	8d bc 27 00 00 00 00 	lea    0x0(%edi,%eiz,1),%edi

00002100 <ne2k_set_mcast_hash>:
    2100:	55                   	push   %ebp
    2101:	89 e5                	mov    %esp,%ebp
    2103:	57                   	push   %edi
    2104:	56                   	push   %esi
    2105:	53                   	push   %ebx
    2106:	83 ec 14             	sub    $0x14,%esp
    2109:	8b 5d 08             	mov    0x8(%ebp),%ebx
    210c:	8b 75 0c             	mov    0xc(%ebp),%esi
    210f:	6a 61                	push   $0x61
    2111:	8b 7d 10             	mov    0x10(%ebp),%edi
    2114:	8b 43 04             	mov    0x4(%ebx),%eax
    2117:	50                   	push   %eax
    2118:	e8 d3 f6 00 00       	call   117f0 <pio_write_8@plt>
    211d:	5a                   	pop    %edx
    211e:	89 f0                	mov    %esi,%eax
    2120:	59                   	pop    %ecx
    2121:	31 c9                	xor    %ecx,%ecx
    2123:	88 c1                	mov    %al,%cl
    2125:	51                   	push   %ecx
    2126:	8b 43 04             	mov    0x4(%ebx),%eax
    2129:	83 c0 08             	add    $0x8,%eax
    212c:	50                   	push   %eax
    212d:	e8 be f6 00 00       	call   117f0 <pio_write_8@plt>
    2132:	58                   	pop    %eax
    2133:	89 f0                	mov    %esi,%eax
    2135:	5a                   	pop    %edx
    2136:	89 fa                	mov    %edi,%edx
    2138:	0f ac d0 08          	shrd   $0x8,%edx,%eax
    213c:	31 d2                	xor    %edx,%edx
    213e:	88 c2                	mov    %al,%dl
    2140:	52                   	push   %edx
    2141:	8b 43 04             	mov    0x4(%ebx),%eax
    2144:	83 c0 09             	add    $0x9,%eax
    2147:	50                   	push   %eax
    2148:	e8 a3 f6 00 00       	call   117f0 <pio_write_8@plt>
    214d:	59                   	pop    %ecx
    214e:	89 fa                	mov    %edi,%edx
    2150:	58                   	pop    %eax
    2151:	89 f0                	mov    %esi,%eax
    2153:	0f ac d0 10          	shrd   $0x10,%edx,%eax
    2157:	31 d2                	xor    %edx,%edx
    2159:	88 c2                	mov    %al,%dl
    215b:	52                   	push   %edx
    215c:	8b 43 04             	mov    0x4(%ebx),%eax
    215f:	83 c0 0a             	add    $0xa,%eax
    2162:	50                   	push   %eax
    2163:	e8 88 f6 00 00       	call   117f0 <pio_write_8@plt>
    2168:	58                   	pop    %eax
    2169:	89 f0                	mov    %esi,%eax
    216b:	5a                   	pop    %edx
    216c:	89 fa                	mov    %edi,%edx
    216e:	0f ac d0 18          	shrd   $0x18,%edx,%eax
    2172:	31 d2                	xor    %edx,%edx
    2174:	88 c2                	mov    %al,%dl
    2176:	52                   	push   %edx
    2177:	8b 43 04             	mov    0x4(%ebx),%eax
    217a:	83 c0 0b             	add    $0xb,%eax
    217d:	50                   	push   %eax
    217e:	e8 6d f6 00 00       	call   117f0 <pio_write_8@plt>
    2183:	59                   	pop    %ecx
    2184:	89 f8                	mov    %edi,%eax
    2186:	31 c9                	xor    %ecx,%ecx
    2188:	5e                   	pop    %esi
    2189:	88 c1                	mov    %al,%cl
    218b:	51                   	push   %ecx
    218c:	8b 43 04             	mov    0x4(%ebx),%eax
    218f:	83 c0 0c             	add    $0xc,%eax
    2192:	50                   	push   %eax
    2193:	e8 58 f6 00 00       	call   117f0 <pio_write_8@plt>
    2198:	58                   	pop    %eax
    2199:	89 f8                	mov    %edi,%eax
    219b:	0f b6 c4             	movzbl %ah,%eax
    219e:	5a                   	pop    %edx
    219f:	50                   	push   %eax
    21a0:	8b 43 04             	mov    0x4(%ebx),%eax
    21a3:	83 c0 0d             	add    $0xd,%eax
    21a6:	50                   	push   %eax
    21a7:	e8 44 f6 00 00       	call   117f0 <pio_write_8@plt>
    21ac:	89 f8                	mov    %edi,%eax
    21ae:	59                   	pop    %ecx
    21af:	c1 e8 10             	shr    $0x10,%eax
    21b2:	31 c9                	xor    %ecx,%ecx
    21b4:	88 c1                	mov    %al,%cl
    21b6:	5e                   	pop    %esi
    21b7:	51                   	push   %ecx
    21b8:	8b 43 04             	mov    0x4(%ebx),%eax
    21bb:	83 c0 0e             	add    $0xe,%eax
    21be:	50                   	push   %eax
    21bf:	e8 2c f6 00 00       	call   117f0 <pio_write_8@plt>
    21c4:	58                   	pop    %eax
    21c5:	89 f8                	mov    %edi,%eax
    21c7:	c1 e8 18             	shr    $0x18,%eax
    21ca:	5a                   	pop    %edx
    21cb:	50                   	push   %eax
    21cc:	8b 43 04             	mov    0x4(%ebx),%eax
    21cf:	83 c0 0f             	add    $0xf,%eax
    21d2:	50                   	push   %eax
    21d3:	e8 18 f6 00 00       	call   117f0 <pio_write_8@plt>
    21d8:	c7 45 0c 22 00 00 00 	movl   $0x22,0xc(%ebp)
    21df:	83 c4 10             	add    $0x10,%esp
    21e2:	8b 43 04             	mov    0x4(%ebx),%eax
    21e5:	89 45 08             	mov    %eax,0x8(%ebp)
    21e8:	8d 65 f4             	lea    -0xc(%ebp),%esp
    21eb:	5b                   	pop    %ebx
    21ec:	5e                   	pop    %esi
    21ed:	5f                   	pop    %edi
    21ee:	5d                   	pop    %ebp
    21ef:	e9 fc f5 00 00       	jmp    117f0 <pio_write_8@plt>
    21f4:	66 90                	xchg   %ax,%ax
    21f6:	66 90                	xchg   %ax,%ax
    21f8:	66 90                	xchg   %ax,%ax
    21fa:	66 90                	xchg   %ax,%ax
    21fc:	66 90                	xchg   %ax,%ax
    21fe:	66 90                	xchg   %ax,%ax

00002200 <ne2k_set_address>:
    2200:	55                   	push   %ebp
    2201:	89 e5                	mov    %esp,%ebp
    2203:	57                   	push   %edi
    2204:	56                   	push   %esi
    2205:	53                   	push   %ebx
    2206:	83 ec 18             	sub    $0x18,%esp
    2209:	8b 5d 08             	mov    0x8(%ebp),%ebx
    220c:	8b 75 0c             	mov    0xc(%ebp),%esi
    220f:	53                   	push   %ebx
    2210:	e8 6b 11 00 00       	call   3380 <ddf_fun_get_dev>
    2215:	89 04 24             	mov    %eax,(%esp)
    2218:	e8 93 10 00 00       	call   32b0 <ddf_dev_data_get>
    221d:	5a                   	pop    %edx
    221e:	89 c7                	mov    %eax,%edi
    2220:	59                   	pop    %ecx
    2221:	56                   	push   %esi
    2222:	50                   	push   %eax
    2223:	e8 18 a2 00 00       	call   c440 <nic_report_address>
    2228:	83 c4 10             	add    $0x10,%esp
    222b:	85 c0                	test   %eax,%eax
    222d:	75 21                	jne    2250 <ne2k_set_address+0x50>
    222f:	83 ec 0c             	sub    $0xc,%esp
    2232:	89 c3                	mov    %eax,%ebx
    2234:	57                   	push   %edi
    2235:	e8 46 ab 00 00       	call   cd80 <nic_get_specific>
    223a:	5a                   	pop    %edx
    223b:	59                   	pop    %ecx
    223c:	56                   	push   %esi
    223d:	50                   	push   %eax
    223e:	e8 6d f1 ff ff       	call   13b0 <ne2k_set_physical_address>
    2243:	83 c4 10             	add    $0x10,%esp
    2246:	8d 65 f4             	lea    -0xc(%ebp),%esp
    2249:	89 d8                	mov    %ebx,%eax
    224b:	5b                   	pop    %ebx
    224c:	5e                   	pop    %esi
    224d:	5f                   	pop    %edi
    224e:	5d                   	pop    %ebp
    224f:	c3                   	ret    
    2250:	bb f2 ff ff ff       	mov    $0xfffffff2,%ebx
    2255:	eb ef                	jmp    2246 <ne2k_set_address+0x46>
    2257:	89 f6                	mov    %esi,%esi
    2259:	8d bc 27 00 00 00 00 	lea    0x0(%edi,%eiz,1),%edi

00002260 <ne2k_on_broadcast_mode_change>:
    2260:	55                   	push   %ebp
    2261:	89 e5                	mov    %esp,%ebp
    2263:	83 ec 14             	sub    $0x14,%esp
    2266:	8b 45 08             	mov    0x8(%ebp),%eax
    2269:	50                   	push   %eax
    226a:	e8 11 ab 00 00       	call   cd80 <nic_get_specific>
    226f:	83 c4 10             	add    $0x10,%esp
    2272:	83 7d 0c 01          	cmpl   $0x1,0xc(%ebp)
    2276:	74 20                	je     2298 <ne2k_on_broadcast_mode_change+0x38>
    2278:	83 7d 0c 02          	cmpl   $0x2,0xc(%ebp)
    227c:	75 12                	jne    2290 <ne2k_on_broadcast_mode_change+0x30>
    227e:	52                   	push   %edx
    227f:	52                   	push   %edx
    2280:	6a 01                	push   $0x1
    2282:	50                   	push   %eax
    2283:	e8 b8 fd ff ff       	call   2040 <ne2k_set_accept_bcast>
    2288:	83 c4 10             	add    $0x10,%esp
    228b:	31 c0                	xor    %eax,%eax
    228d:	c9                   	leave  
    228e:	c3                   	ret    
    228f:	90                   	nop
    2290:	b8 f5 ff ff ff       	mov    $0xfffffff5,%eax
    2295:	c9                   	leave  
    2296:	c3                   	ret    
    2297:	90                   	nop
    2298:	51                   	push   %ecx
    2299:	51                   	push   %ecx
    229a:	6a 00                	push   $0x0
    229c:	50                   	push   %eax
    229d:	e8 9e fd ff ff       	call   2040 <ne2k_set_accept_bcast>
    22a2:	83 c4 10             	add    $0x10,%esp
    22a5:	31 c0                	xor    %eax,%eax
    22a7:	c9                   	leave  
    22a8:	c3                   	ret    
    22a9:	8d b4 26 00 00 00 00 	lea    0x0(%esi,%eiz,1),%esi

000022b0 <ne2k_on_multicast_mode_change>:
    22b0:	55                   	push   %ebp
    22b1:	89 e5                	mov    %esp,%ebp
    22b3:	57                   	push   %edi
    22b4:	56                   	push   %esi
    22b5:	53                   	push   %ebx
    22b6:	83 ec 18             	sub    $0x18,%esp
    22b9:	8b 75 08             	mov    0x8(%ebp),%esi
    22bc:	8b 5d 0c             	mov    0xc(%ebp),%ebx
    22bf:	56                   	push   %esi
    22c0:	e8 bb aa 00 00       	call   cd80 <nic_get_specific>
    22c5:	83 c4 10             	add    $0x10,%esp
    22c8:	89 c7                	mov    %eax,%edi
    22ca:	83 fb 02             	cmp    $0x2,%ebx
    22cd:	74 61                	je     2330 <ne2k_on_multicast_mode_change+0x80>
    22cf:	83 fb 03             	cmp    $0x3,%ebx
    22d2:	74 3c                	je     2310 <ne2k_on_multicast_mode_change+0x60>
    22d4:	4b                   	dec    %ebx
    22d5:	b8 f5 ff ff ff       	mov    $0xfffffff5,%eax
    22da:	74 0c                	je     22e8 <ne2k_on_multicast_mode_change+0x38>
    22dc:	8d 65 f4             	lea    -0xc(%ebp),%esp
    22df:	5b                   	pop    %ebx
    22e0:	5e                   	pop    %esi
    22e1:	5f                   	pop    %edi
    22e2:	5d                   	pop    %ebp
    22e3:	c3                   	ret    
    22e4:	8d 74 26 00          	lea    0x0(%esi,%eiz,1),%esi
    22e8:	50                   	push   %eax
    22e9:	50                   	push   %eax
    22ea:	6a 00                	push   $0x0
    22ec:	57                   	push   %edi
    22ed:	e8 8e fd ff ff       	call   2080 <ne2k_set_accept_mcast>
    22f2:	6a ff                	push   $0xffffffff
    22f4:	6a 01                	push   $0x1
    22f6:	6a ff                	push   $0xffffffff
    22f8:	56                   	push   %esi
    22f9:	e8 92 a8 00 00       	call   cb90 <nic_report_hw_filtering>
    22fe:	83 c4 20             	add    $0x20,%esp
    2301:	8d 65 f4             	lea    -0xc(%ebp),%esp
    2304:	31 c0                	xor    %eax,%eax
    2306:	5b                   	pop    %ebx
    2307:	5e                   	pop    %esi
    2308:	5f                   	pop    %edi
    2309:	5d                   	pop    %ebp
    230a:	c3                   	ret    
    230b:	90                   	nop
    230c:	8d 74 26 00          	lea    0x0(%esi,%eiz,1),%esi
    2310:	50                   	push   %eax
    2311:	50                   	push   %eax
    2312:	6a 01                	push   $0x1
    2314:	57                   	push   %edi
    2315:	e8 66 fd ff ff       	call   2080 <ne2k_set_accept_mcast>
    231a:	83 c4 0c             	add    $0xc,%esp
    231d:	6a ff                	push   $0xffffffff
    231f:	6a ff                	push   $0xffffffff
    2321:	57                   	push   %edi
    2322:	e8 d9 fd ff ff       	call   2100 <ne2k_set_mcast_hash>
    2327:	eb c9                	jmp    22f2 <ne2k_on_multicast_mode_change+0x42>
    2329:	8d b4 26 00 00 00 00 	lea    0x0(%esi,%eiz,1),%esi
    2330:	52                   	push   %edx
    2331:	52                   	push   %edx
    2332:	6a 01                	push   $0x1
    2334:	50                   	push   %eax
    2335:	e8 46 fd ff ff       	call   2080 <ne2k_set_accept_mcast>
    233a:	8b 45 14             	mov    0x14(%ebp),%eax
    233d:	59                   	pop    %ecx
    233e:	5b                   	pop    %ebx
    233f:	50                   	push   %eax
    2340:	8b 45 10             	mov    0x10(%ebp),%eax
    2343:	50                   	push   %eax
    2344:	e8 67 a8 00 00       	call   cbb0 <nic_mcast_hash>
    2349:	83 c4 0c             	add    $0xc,%esp
    234c:	52                   	push   %edx
    234d:	50                   	push   %eax
    234e:	57                   	push   %edi
    234f:	e8 ac fd ff ff       	call   2100 <ne2k_set_mcast_hash>
    2354:	6a ff                	push   $0xffffffff
    2356:	6a 00                	push   $0x0
    2358:	eb 9c                	jmp    22f6 <ne2k_on_multicast_mode_change+0x46>
    235a:	8d b6 00 00 00 00    	lea    0x0(%esi),%esi

00002360 <ne2k_on_unicast_mode_change>:
    2360:	55                   	push   %ebp
    2361:	89 e5                	mov    %esp,%ebp
    2363:	56                   	push   %esi
    2364:	53                   	push   %ebx
    2365:	83 ec 0c             	sub    $0xc,%esp
    2368:	8b 75 08             	mov    0x8(%ebp),%esi
    236b:	8b 5d 0c             	mov    0xc(%ebp),%ebx
    236e:	56                   	push   %esi
    236f:	e8 0c aa 00 00       	call   cd80 <nic_get_specific>
    2374:	83 c4 10             	add    $0x10,%esp
    2377:	83 fb 02             	cmp    $0x2,%ebx
    237a:	74 7c                	je     23f8 <ne2k_on_unicast_mode_change+0x98>
    237c:	76 5a                	jbe    23d8 <ne2k_on_unicast_mode_change+0x78>
    237e:	83 fb 03             	cmp    $0x3,%ebx
    2381:	74 2d                	je     23b0 <ne2k_on_unicast_mode_change+0x50>
    2383:	83 fb 04             	cmp    $0x4,%ebx
    2386:	75 60                	jne    23e8 <ne2k_on_unicast_mode_change+0x88>
    2388:	52                   	push   %edx
    2389:	52                   	push   %edx
    238a:	6a 01                	push   $0x1
    238c:	50                   	push   %eax
    238d:	e8 2e fd ff ff       	call   20c0 <ne2k_set_promisc_phys>
    2392:	6a ff                	push   $0xffffffff
    2394:	6a ff                	push   $0xffffffff
    2396:	6a 01                	push   $0x1
    2398:	56                   	push   %esi
    2399:	e8 f2 a7 00 00       	call   cb90 <nic_report_hw_filtering>
    239e:	83 c4 20             	add    $0x20,%esp
    23a1:	8d 65 f8             	lea    -0x8(%ebp),%esp
    23a4:	31 c0                	xor    %eax,%eax
    23a6:	5b                   	pop    %ebx
    23a7:	5e                   	pop    %esi
    23a8:	5d                   	pop    %ebp
    23a9:	c3                   	ret    
    23aa:	8d b6 00 00 00 00    	lea    0x0(%esi),%esi
    23b0:	51                   	push   %ecx
    23b1:	51                   	push   %ecx
    23b2:	6a 01                	push   $0x1
    23b4:	50                   	push   %eax
    23b5:	e8 06 fd ff ff       	call   20c0 <ne2k_set_promisc_phys>
    23ba:	6a ff                	push   $0xffffffff
    23bc:	6a ff                	push   $0xffffffff
    23be:	6a 00                	push   $0x0
    23c0:	56                   	push   %esi
    23c1:	e8 ca a7 00 00       	call   cb90 <nic_report_hw_filtering>
    23c6:	83 c4 20             	add    $0x20,%esp
    23c9:	8d 65 f8             	lea    -0x8(%ebp),%esp
    23cc:	31 c0                	xor    %eax,%eax
    23ce:	5b                   	pop    %ebx
    23cf:	5e                   	pop    %esi
    23d0:	5d                   	pop    %ebp
    23d1:	c3                   	ret    
    23d2:	8d b6 00 00 00 00    	lea    0x0(%esi),%esi
    23d8:	4b                   	dec    %ebx
    23d9:	75 0d                	jne    23e8 <ne2k_on_unicast_mode_change+0x88>
    23db:	52                   	push   %edx
    23dc:	52                   	push   %edx
    23dd:	6a 00                	push   $0x0
    23df:	eb d3                	jmp    23b4 <ne2k_on_unicast_mode_change+0x54>
    23e1:	8d b4 26 00 00 00 00 	lea    0x0(%esi,%eiz,1),%esi
    23e8:	8d 65 f8             	lea    -0x8(%ebp),%esp
    23eb:	b8 f5 ff ff ff       	mov    $0xfffffff5,%eax
    23f0:	5b                   	pop    %ebx
    23f1:	5e                   	pop    %esi
    23f2:	5d                   	pop    %ebp
    23f3:	c3                   	ret    
    23f4:	8d 74 26 00          	lea    0x0(%esi,%eiz,1),%esi
    23f8:	53                   	push   %ebx
    23f9:	53                   	push   %ebx
    23fa:	6a 00                	push   $0x0
    23fc:	eb 8e                	jmp    238c <ne2k_on_unicast_mode_change+0x2c>
    23fe:	66 90                	xchg   %ax,%ax

00002400 <ne2k_on_stopping>:
    2400:	55                   	push   %ebp
    2401:	89 e5                	mov    %esp,%ebp
    2403:	53                   	push   %ebx
    2404:	83 ec 10             	sub    $0x10,%esp
    2407:	8b 45 08             	mov    0x8(%ebp),%eax
    240a:	50                   	push   %eax
    240b:	e8 70 a9 00 00       	call   cd80 <nic_get_specific>
    2410:	89 c3                	mov    %eax,%ebx
    2412:	5a                   	pop    %edx
    2413:	8b 48 0c             	mov    0xc(%eax),%ecx
    2416:	51                   	push   %ecx
    2417:	e8 14 f7 00 00       	call   11b30 <irc_disable_interrupt@plt>
    241c:	c6 43 50 0c          	movb   $0xc,0x50(%ebx)
    2420:	89 1c 24             	mov    %ebx,(%esp)
    2423:	e8 28 f3 ff ff       	call   1750 <ne2k_down>
    2428:	31 c0                	xor    %eax,%eax
    242a:	8b 5d fc             	mov    -0x4(%ebp),%ebx
    242d:	c9                   	leave  
    242e:	c3                   	ret    
    242f:	90                   	nop

00002430 <ne2k_on_activating>:
    2430:	55                   	push   %ebp
    2431:	89 e5                	mov    %esp,%ebp
    2433:	53                   	push   %ebx
    2434:	83 ec 20             	sub    $0x20,%esp
    2437:	8b 55 08             	mov    0x8(%ebp),%edx
    243a:	52                   	push   %edx
    243b:	e8 40 a9 00 00       	call   cd80 <nic_get_specific>
    2440:	89 c3                	mov    %eax,%ebx
    2442:	83 c4 10             	add    $0x10,%esp
    2445:	31 c0                	xor    %eax,%eax
    2447:	80 7b 3d 00          	cmpb   $0x0,0x3d(%ebx)
    244b:	74 0b                	je     2458 <ne2k_on_activating+0x28>
    244d:	8b 5d fc             	mov    -0x4(%ebp),%ebx
    2450:	c9                   	leave  
    2451:	c3                   	ret    
    2452:	8d b6 00 00 00 00    	lea    0x0(%esi),%esi
    2458:	83 ec 0c             	sub    $0xc,%esp
    245b:	53                   	push   %ebx
    245c:	e8 ef ef ff ff       	call   1450 <ne2k_up>
    2461:	83 c4 10             	add    $0x10,%esp
    2464:	85 c0                	test   %eax,%eax
    2466:	75 e5                	jne    244d <ne2k_on_activating+0x1d>
    2468:	83 ec 0c             	sub    $0xc,%esp
    246b:	8b 43 0c             	mov    0xc(%ebx),%eax
    246e:	50                   	push   %eax
    246f:	e8 bc f1 00 00       	call   11630 <irc_enable_interrupt@plt>
    2474:	83 c4 10             	add    $0x10,%esp
    2477:	85 c0                	test   %eax,%eax
    2479:	74 d2                	je     244d <ne2k_on_activating+0x1d>
    247b:	83 ec 0c             	sub    $0xc,%esp
    247e:	89 45 f4             	mov    %eax,-0xc(%ebp)
    2481:	53                   	push   %ebx
    2482:	e8 c9 f2 ff ff       	call   1750 <ne2k_down>
    2487:	83 c4 10             	add    $0x10,%esp
    248a:	8b 45 f4             	mov    -0xc(%ebp),%eax
    248d:	eb be                	jmp    244d <ne2k_on_activating+0x1d>
    248f:	90                   	nop

00002490 <ne2k_interrupt_handler>:
    2490:	55                   	push   %ebp
    2491:	89 e5                	mov    %esp,%ebp
    2493:	56                   	push   %esi
    2494:	53                   	push   %ebx
    2495:	83 ec 0c             	sub    $0xc,%esp
    2498:	8b 45 10             	mov    0x10(%ebp),%eax
    249b:	8b 5d 0c             	mov    0xc(%ebp),%ebx
    249e:	8b 75 08             	mov    0x8(%ebp),%esi
    24a1:	50                   	push   %eax
    24a2:	e8 09 0e 00 00       	call   32b0 <ddf_dev_data_get>
    24a7:	83 c4 0c             	add    $0xc,%esp
    24aa:	31 d2                	xor    %edx,%edx
    24ac:	8a 53 0c             	mov    0xc(%ebx),%dl
    24af:	52                   	push   %edx
    24b0:	31 d2                	xor    %edx,%edx
    24b2:	8a 53 08             	mov    0x8(%ebx),%dl
    24b5:	52                   	push   %edx
    24b6:	50                   	push   %eax
    24b7:	e8 74 f5 ff ff       	call   1a30 <ne2k_interrupt>
    24bc:	89 75 08             	mov    %esi,0x8(%ebp)
    24bf:	c7 45 0c 00 00 00 00 	movl   $0x0,0xc(%ebp)
    24c6:	83 c4 10             	add    $0x10,%esp
    24c9:	8d 65 f8             	lea    -0x8(%ebp),%esp
    24cc:	5b                   	pop    %ebx
    24cd:	5e                   	pop    %esi
    24ce:	5d                   	pop    %ebp
    24cf:	e9 2c f2 00 00       	jmp    11700 <async_answer_0@plt>
    24d4:	8d b6 00 00 00 00    	lea    0x0(%esi),%esi
    24da:	8d bf 00 00 00 00    	lea    0x0(%edi),%edi

000024e0 <ne2k_dev_add>:
    24e0:	55                   	push   %ebp
    24e1:	89 e5                	mov    %esp,%ebp
    24e3:	57                   	push   %edi
    24e4:	56                   	push   %esi
    24e5:	53                   	push   %ebx
    24e6:	83 ec 68             	sub    $0x68,%esp
    24e9:	8b 45 08             	mov    0x8(%ebp),%eax
    24ec:	50                   	push   %eax
    24ed:	e8 2e a5 00 00       	call   ca20 <nic_create_and_bind>
    24f2:	83 c4 10             	add    $0x10,%esp
    24f5:	85 c0                	test   %eax,%eax
    24f7:	0f 84 e6 03 00 00    	je     28e3 <ne2k_dev_add+0x403>
    24fd:	89 c3                	mov    %eax,%ebx
    24ff:	57                   	push   %edi
    2500:	57                   	push   %edi
    2501:	68 00 18 00 00       	push   $0x1800
    2506:	50                   	push   %eax
    2507:	e8 f4 9a 00 00       	call   c000 <nic_set_send_frame_handler>
    250c:	68 00 24 00 00       	push   $0x2400
    2511:	6a 00                	push   $0x0
    2513:	68 30 24 00 00       	push   $0x2430
    2518:	53                   	push   %ebx
    2519:	e8 02 9b 00 00       	call   c020 <nic_set_state_change_handlers>
    251e:	83 c4 18             	add    $0x18,%esp
    2521:	6a 00                	push   $0x0
    2523:	6a 00                	push   $0x0
    2525:	68 60 22 00 00       	push   $0x2260
    252a:	68 b0 22 00 00       	push   $0x22b0
    252f:	68 60 23 00 00       	push   $0x2360
    2534:	53                   	push   %ebx
    2535:	e8 16 9b 00 00       	call   c050 <nic_set_filtering_change_handlers>
    253a:	83 c4 14             	add    $0x14,%esp
    253d:	6a 6c                	push   $0x6c
    253f:	e8 6c f1 00 00       	call   116b0 <malloc@plt>
    2544:	83 c4 10             	add    $0x10,%esp
    2547:	89 45 a4             	mov    %eax,-0x5c(%ebp)
    254a:	89 c7                	mov    %eax,%edi
    254c:	85 c0                	test   %eax,%eax
    254e:	0f 84 80 03 00 00    	je     28d4 <ne2k_dev_add+0x3f4>
    2554:	50                   	push   %eax
    2555:	6a 6c                	push   $0x6c
    2557:	6a 00                	push   $0x0
    2559:	57                   	push   %edi
    255a:	e8 f1 f3 00 00       	call   11950 <memset@plt>
    255f:	58                   	pop    %eax
    2560:	5a                   	pop    %edx
    2561:	57                   	push   %edi
    2562:	53                   	push   %ebx
    2563:	e8 28 a8 00 00       	call   cd90 <nic_set_specific>
    2568:	83 c4 0c             	add    $0xc,%esp
    256b:	8d 45 c8             	lea    -0x38(%ebp),%eax
    256e:	6a 20                	push   $0x20
    2570:	6a 00                	push   $0x0
    2572:	50                   	push   %eax
    2573:	e8 d8 f3 00 00       	call   11950 <memset@plt>
    2578:	8d 45 c8             	lea    -0x38(%ebp),%eax
    257b:	59                   	pop    %ecx
    257c:	5e                   	pop    %esi
    257d:	50                   	push   %eax
    257e:	53                   	push   %ebx
    257f:	e8 6c 9b 00 00       	call   c0f0 <nic_get_resources>
    2584:	83 c4 10             	add    $0x10,%esp
    2587:	89 c6                	mov    %eax,%esi
    2589:	85 c0                	test   %eax,%eax
    258b:	75 10                	jne    259d <ne2k_dev_add+0xbd>
    258d:	8b 45 c8             	mov    -0x38(%ebp),%eax
    2590:	be f2 ff ff ff       	mov    $0xfffffff2,%esi
    2595:	85 c0                	test   %eax,%eax
    2597:	0f 85 a3 00 00 00    	jne    2640 <ne2k_dev_add+0x160>
    259d:	83 ec 0c             	sub    $0xc,%esp
    25a0:	8b 45 cc             	mov    -0x34(%ebp),%eax
    25a3:	50                   	push   %eax
    25a4:	e8 f7 f5 00 00       	call   11ba0 <free@plt>
    25a9:	58                   	pop    %eax
    25aa:	8b 45 e4             	mov    -0x1c(%ebp),%eax
    25ad:	50                   	push   %eax
    25ae:	e8 ed f5 00 00       	call   11ba0 <free@plt>
    25b3:	8b 55 dc             	mov    -0x24(%ebp),%edx
    25b6:	58                   	pop    %eax
    25b7:	52                   	push   %edx
    25b8:	e8 e3 f5 00 00       	call   11ba0 <free@plt>
    25bd:	8b 5d d4             	mov    -0x2c(%ebp),%ebx
    25c0:	59                   	pop    %ecx
    25c1:	53                   	push   %ebx
    25c2:	e8 d9 f5 00 00       	call   11ba0 <free@plt>
    25c7:	83 c4 0c             	add    $0xc,%esp
    25ca:	8d 45 c8             	lea    -0x38(%ebp),%eax
    25cd:	6a 20                	push   $0x20
    25cf:	6a 00                	push   $0x0
    25d1:	50                   	push   %eax
    25d2:	e8 79 f3 00 00       	call   11950 <memset@plt>
    25d7:	83 c4 10             	add    $0x10,%esp
    25da:	83 ec 0c             	sub    $0xc,%esp
    25dd:	8b 45 08             	mov    0x8(%ebp),%eax
    25e0:	50                   	push   %eax
    25e1:	e8 ca 0c 00 00       	call   32b0 <ddf_dev_data_get>
    25e6:	83 c4 10             	add    $0x10,%esp
    25e9:	85 c0                	test   %eax,%eax
    25eb:	74 49                	je     2636 <ne2k_dev_add+0x156>
    25ed:	83 ec 0c             	sub    $0xc,%esp
    25f0:	8b 45 08             	mov    0x8(%ebp),%eax
    25f3:	50                   	push   %eax
    25f4:	e8 b7 0c 00 00       	call   32b0 <ddf_dev_data_get>
    25f9:	89 04 24             	mov    %eax,(%esp)
    25fc:	e8 7f a7 00 00       	call   cd80 <nic_get_specific>
    2601:	83 c4 10             	add    $0x10,%esp
    2604:	85 c0                	test   %eax,%eax
    2606:	74 1f                	je     2627 <ne2k_dev_add+0x147>
    2608:	83 ec 0c             	sub    $0xc,%esp
    260b:	8b 58 44             	mov    0x44(%eax),%ebx
    260e:	89 45 a4             	mov    %eax,-0x5c(%ebp)
    2611:	53                   	push   %ebx
    2612:	e8 89 f5 00 00       	call   11ba0 <free@plt>
    2617:	8b 45 a4             	mov    -0x5c(%ebp),%eax
    261a:	5f                   	pop    %edi
    261b:	8b 40 4c             	mov    0x4c(%eax),%eax
    261e:	50                   	push   %eax
    261f:	e8 7c f5 00 00       	call   11ba0 <free@plt>
    2624:	83 c4 10             	add    $0x10,%esp
    2627:	83 ec 0c             	sub    $0xc,%esp
    262a:	8b 4d 08             	mov    0x8(%ebp),%ecx
    262d:	51                   	push   %ecx
    262e:	e8 2d a5 00 00       	call   cb60 <nic_unbind_and_destroy>
    2633:	83 c4 10             	add    $0x10,%esp
    2636:	8d 65 f4             	lea    -0xc(%ebp),%esp
    2639:	89 f0                	mov    %esi,%eax
    263b:	5b                   	pop    %ebx
    263c:	5e                   	pop    %esi
    263d:	5f                   	pop    %edi
    263e:	5d                   	pop    %ebp
    263f:	c3                   	ret    
    2640:	8b 45 e0             	mov    -0x20(%ebp),%eax
    2643:	85 c0                	test   %eax,%eax
    2645:	0f 84 52 ff ff ff    	je     259d <ne2k_dev_add+0xbd>
    264b:	8b 45 e4             	mov    -0x1c(%ebp),%eax
    264e:	83 78 10 1f          	cmpl   $0x1f,0x10(%eax)
    2652:	0f 86 45 ff ff ff    	jbe    259d <ne2k_dev_add+0xbd>
    2658:	83 ec 0c             	sub    $0xc,%esp
    265b:	8d 7d b0             	lea    -0x50(%ebp),%edi
    265e:	53                   	push   %ebx
    265f:	e8 1c a7 00 00       	call   cd80 <nic_get_specific>
    2664:	89 c2                	mov    %eax,%edx
    2666:	8b 45 cc             	mov    -0x34(%ebp),%eax
    2669:	8b 75 e4             	mov    -0x1c(%ebp),%esi
    266c:	89 55 a0             	mov    %edx,-0x60(%ebp)
    266f:	8b 08                	mov    (%eax),%ecx
    2671:	89 4a 0c             	mov    %ecx,0xc(%edx)
    2674:	b9 06 00 00 00       	mov    $0x6,%ecx
    2679:	f3 a5                	rep movsl %ds:(%esi),%es:(%edi)
    267b:	8b 4d b0             	mov    -0x50(%ebp),%ecx
    267e:	89 0a                	mov    %ecx,(%edx)
    2680:	89 04 24             	mov    %eax,(%esp)
    2683:	e8 18 f5 00 00       	call   11ba0 <free@plt>
    2688:	58                   	pop    %eax
    2689:	8b 45 e4             	mov    -0x1c(%ebp),%eax
    268c:	50                   	push   %eax
    268d:	e8 0e f5 00 00       	call   11ba0 <free@plt>
    2692:	8b 55 dc             	mov    -0x24(%ebp),%edx
    2695:	58                   	pop    %eax
    2696:	52                   	push   %edx
    2697:	e8 04 f5 00 00       	call   11ba0 <free@plt>
    269c:	8b 75 d4             	mov    -0x2c(%ebp),%esi
    269f:	59                   	pop    %ecx
    26a0:	56                   	push   %esi
    26a1:	e8 fa f4 00 00       	call   11ba0 <free@plt>
    26a6:	83 c4 0c             	add    $0xc,%esp
    26a9:	8d 45 c8             	lea    -0x38(%ebp),%eax
    26ac:	6a 20                	push   $0x20
    26ae:	6a 00                	push   $0x0
    26b0:	50                   	push   %eax
    26b1:	e8 9a f2 00 00       	call   11950 <memset@plt>
    26b6:	8b 55 a0             	mov    -0x60(%ebp),%edx
    26b9:	5f                   	pop    %edi
    26ba:	58                   	pop    %eax
    26bb:	8d 42 04             	lea    0x4(%edx),%eax
    26be:	50                   	push   %eax
    26bf:	8d 45 b0             	lea    -0x50(%ebp),%eax
    26c2:	50                   	push   %eax
    26c3:	e8 d8 ef 00 00       	call   116a0 <pio_enable_range@plt>
    26c8:	83 c4 10             	add    $0x10,%esp
    26cb:	85 c0                	test   %eax,%eax
    26cd:	0f 85 98 01 00 00    	jne    286b <ne2k_dev_add+0x38b>
    26d3:	8b 55 a0             	mov    -0x60(%ebp),%edx
    26d6:	83 ec 0c             	sub    $0xc,%esp
    26d9:	8b 42 04             	mov    0x4(%edx),%eax
    26dc:	c6 42 50 0c          	movb   $0xc,0x50(%edx)
    26e0:	83 c0 10             	add    $0x10,%eax
    26e3:	c6 42 3c 00          	movb   $0x0,0x3c(%edx)
    26e7:	89 42 08             	mov    %eax,0x8(%edx)
    26ea:	c6 42 3d 00          	movb   $0x0,0x3d(%edx)
    26ee:	52                   	push   %edx
    26ef:	e8 5c eb ff ff       	call   1250 <ne2k_probe>
    26f4:	83 c4 10             	add    $0x10,%esp
    26f7:	85 c0                	test   %eax,%eax
    26f9:	0f 85 ee 01 00 00    	jne    28ed <ne2k_dev_add+0x40d>
    26ff:	8b 55 a0             	mov    -0x60(%ebp),%edx
    2702:	83 ec 0c             	sub    $0xc,%esp
    2705:	c6 42 3c 01          	movb   $0x1,0x3c(%edx)
    2709:	53                   	push   %ebx
    270a:	e8 71 a6 00 00       	call   cd80 <nic_get_specific>
    270f:	83 c4 10             	add    $0x10,%esp
    2712:	89 c7                	mov    %eax,%edi
    2714:	8b 40 48             	mov    0x48(%eax),%eax
    2717:	85 c0                	test   %eax,%eax
    2719:	0f 85 8d 00 00 00    	jne    27ac <ne2k_dev_add+0x2cc>
    271f:	83 ec 0c             	sub    $0xc,%esp
    2722:	6a 08                	push   $0x8
    2724:	e8 87 ef 00 00       	call   116b0 <malloc@plt>
    2729:	83 c4 10             	add    $0x10,%esp
    272c:	89 c6                	mov    %eax,%esi
    272e:	85 c0                	test   %eax,%eax
    2730:	0f 84 cb 01 00 00    	je     2901 <ne2k_dev_add+0x421>
    2736:	50                   	push   %eax
    2737:	6a 08                	push   $0x8
    2739:	68 8c 40 01 00       	push   $0x1408c
    273e:	56                   	push   %esi
    273f:	e8 4c ef 00 00       	call   11690 <memcpy@plt>
    2744:	8b 07                	mov    (%edi),%eax
    2746:	89 06                	mov    %eax,(%esi)
    2748:	c7 04 24 8c 00 00 00 	movl   $0x8c,(%esp)
    274f:	e8 5c ef 00 00       	call   116b0 <malloc@plt>
    2754:	83 c4 10             	add    $0x10,%esp
    2757:	89 c2                	mov    %eax,%edx
    2759:	85 c0                	test   %eax,%eax
    275b:	0f 84 94 01 00 00    	je     28f5 <ne2k_dev_add+0x415>
    2761:	89 55 a0             	mov    %edx,-0x60(%ebp)
    2764:	50                   	push   %eax
    2765:	68 8c 00 00 00       	push   $0x8c
    276a:	68 00 40 01 00       	push   $0x14000
    276f:	52                   	push   %edx
    2770:	e8 1b ef 00 00       	call   11690 <memcpy@plt>
    2775:	8b 0f                	mov    (%edi),%ecx
    2777:	8b 55 a0             	mov    -0x60(%ebp),%edx
    277a:	83 c4 10             	add    $0x10,%esp
    277d:	8d 41 07             	lea    0x7(%ecx),%eax
    2780:	89 42 04             	mov    %eax,0x4(%edx)
    2783:	89 45 a0             	mov    %eax,-0x60(%ebp)
    2786:	8d 41 0f             	lea    0xf(%ecx),%eax
    2789:	83 c1 04             	add    $0x4,%ecx
    278c:	89 42 40             	mov    %eax,0x40(%edx)
    278f:	8b 45 a0             	mov    -0x60(%ebp),%eax
    2792:	89 42 54             	mov    %eax,0x54(%edx)
    2795:	89 4a 68             	mov    %ecx,0x68(%edx)
    2798:	c7 47 40 01 00 00 00 	movl   $0x1,0x40(%edi)
    279f:	89 77 44             	mov    %esi,0x44(%edi)
    27a2:	c7 47 48 07 00 00 00 	movl   $0x7,0x48(%edi)
    27a9:	89 57 4c             	mov    %edx,0x4c(%edi)
    27ac:	83 ec 0c             	sub    $0xc,%esp
    27af:	8b 77 0c             	mov    0xc(%edi),%esi
    27b2:	53                   	push   %ebx
    27b3:	e8 08 a6 00 00       	call   cdc0 <nic_get_ddf_dev>
    27b8:	8d 57 40             	lea    0x40(%edi),%edx
    27bb:	52                   	push   %edx
    27bc:	68 90 24 00 00       	push   $0x2490
    27c1:	56                   	push   %esi
    27c2:	50                   	push   %eax
    27c3:	e8 98 13 00 00       	call   3b60 <register_interrupt_handler>
    27c8:	83 c4 20             	add    $0x20,%esp
    27cb:	85 c0                	test   %eax,%eax
    27cd:	0f 85 2e 01 00 00    	jne    2901 <ne2k_dev_add+0x421>
    27d3:	50                   	push   %eax
    27d4:	50                   	push   %eax
    27d5:	8b 45 a4             	mov    -0x5c(%ebp),%eax
    27d8:	83 c0 10             	add    $0x10,%eax
    27db:	50                   	push   %eax
    27dc:	53                   	push   %ebx
    27dd:	e8 5e 9c 00 00       	call   c440 <nic_report_address>
    27e2:	83 c4 10             	add    $0x10,%esp
    27e5:	89 c6                	mov    %eax,%esi
    27e7:	85 c0                	test   %eax,%eax
    27e9:	0f 85 eb fd ff ff    	jne    25da <ne2k_dev_add+0xfa>
    27ef:	83 ec 0c             	sub    $0xc,%esp
    27f2:	53                   	push   %ebx
    27f3:	e8 c8 a5 00 00       	call   cdc0 <nic_get_ddf_dev>
    27f8:	83 c4 0c             	add    $0xc,%esp
    27fb:	68 52 f4 00 00       	push   $0xf452
    2800:	6a 02                	push   $0x2
    2802:	50                   	push   %eax
    2803:	e8 98 0b 00 00       	call   33a0 <ddf_fun_create>
    2808:	83 c4 10             	add    $0x10,%esp
    280b:	89 c7                	mov    %eax,%edi
    280d:	85 c0                	test   %eax,%eax
    280f:	74 76                	je     2887 <ne2k_dev_add+0x3a7>
    2811:	50                   	push   %eax
    2812:	50                   	push   %eax
    2813:	57                   	push   %edi
    2814:	53                   	push   %ebx
    2815:	e8 c6 a5 00 00       	call   cde0 <nic_set_ddf_fun>
    281a:	58                   	pop    %eax
    281b:	5a                   	pop    %edx
    281c:	68 00 43 01 00       	push   $0x14300
    2821:	57                   	push   %edi
    2822:	e8 29 11 00 00       	call   3950 <ddf_fun_set_ops>
    2827:	89 3c 24             	mov    %edi,(%esp)
    282a:	e8 31 0e 00 00       	call   3660 <ddf_fun_bind>
    282f:	83 c4 10             	add    $0x10,%esp
    2832:	89 c6                	mov    %eax,%esi
    2834:	85 c0                	test   %eax,%eax
    2836:	75 40                	jne    2878 <ne2k_dev_add+0x398>
    2838:	52                   	push   %edx
    2839:	52                   	push   %edx
    283a:	68 58 f4 00 00       	push   $0xf458
    283f:	57                   	push   %edi
    2840:	e8 6b 11 00 00       	call   39b0 <ddf_fun_add_to_category>
    2845:	83 c4 10             	add    $0x10,%esp
    2848:	89 c6                	mov    %eax,%esi
    284a:	85 c0                	test   %eax,%eax
    284c:	0f 84 e4 fd ff ff    	je     2636 <ne2k_dev_add+0x156>
    2852:	83 ec 0c             	sub    $0xc,%esp
    2855:	57                   	push   %edi
    2856:	e8 35 0f 00 00       	call   3790 <ddf_fun_unbind>
    285b:	89 3c 24             	mov    %edi,(%esp)
    285e:	e8 cd 0c 00 00       	call   3530 <ddf_fun_destroy>
    2863:	83 c4 10             	add    $0x10,%esp
    2866:	e9 cb fd ff ff       	jmp    2636 <ne2k_dev_add+0x156>
    286b:	be f4 ff ff ff       	mov    $0xfffffff4,%esi
    2870:	e9 65 fd ff ff       	jmp    25da <ne2k_dev_add+0xfa>
    2875:	8d 76 00             	lea    0x0(%esi),%esi
    2878:	83 ec 0c             	sub    $0xc,%esp
    287b:	57                   	push   %edi
    287c:	e8 af 0c 00 00       	call   3530 <ddf_fun_destroy>
    2881:	58                   	pop    %eax
    2882:	e9 56 fd ff ff       	jmp    25dd <ne2k_dev_add+0xfd>
    2887:	83 ec 0c             	sub    $0xc,%esp
    288a:	8b 45 08             	mov    0x8(%ebp),%eax
    288d:	50                   	push   %eax
    288e:	e8 1d 0a 00 00       	call   32b0 <ddf_dev_data_get>
    2893:	83 c4 10             	add    $0x10,%esp
    2896:	85 c0                	test   %eax,%eax
    2898:	74 49                	je     28e3 <ne2k_dev_add+0x403>
    289a:	83 ec 0c             	sub    $0xc,%esp
    289d:	8b 7d 08             	mov    0x8(%ebp),%edi
    28a0:	57                   	push   %edi
    28a1:	e8 0a 0a 00 00       	call   32b0 <ddf_dev_data_get>
    28a6:	89 04 24             	mov    %eax,(%esp)
    28a9:	e8 d2 a4 00 00       	call   cd80 <nic_get_specific>
    28ae:	83 c4 10             	add    $0x10,%esp
    28b1:	85 c0                	test   %eax,%eax
    28b3:	74 1f                	je     28d4 <ne2k_dev_add+0x3f4>
    28b5:	83 ec 0c             	sub    $0xc,%esp
    28b8:	8b 48 44             	mov    0x44(%eax),%ecx
    28bb:	89 45 a4             	mov    %eax,-0x5c(%ebp)
    28be:	51                   	push   %ecx
    28bf:	e8 dc f2 00 00       	call   11ba0 <free@plt>
    28c4:	8b 45 a4             	mov    -0x5c(%ebp),%eax
    28c7:	5b                   	pop    %ebx
    28c8:	8b 70 4c             	mov    0x4c(%eax),%esi
    28cb:	56                   	push   %esi
    28cc:	e8 cf f2 00 00       	call   11ba0 <free@plt>
    28d1:	83 c4 10             	add    $0x10,%esp
    28d4:	83 ec 0c             	sub    $0xc,%esp
    28d7:	8b 45 08             	mov    0x8(%ebp),%eax
    28da:	50                   	push   %eax
    28db:	e8 80 a2 00 00       	call   cb60 <nic_unbind_and_destroy>
    28e0:	83 c4 10             	add    $0x10,%esp
    28e3:	be fe ff ff ff       	mov    $0xfffffffe,%esi
    28e8:	e9 49 fd ff ff       	jmp    2636 <ne2k_dev_add+0x156>
    28ed:	83 ce ff             	or     $0xffffffff,%esi
    28f0:	e9 e5 fc ff ff       	jmp    25da <ne2k_dev_add+0xfa>
    28f5:	83 ec 0c             	sub    $0xc,%esp
    28f8:	56                   	push   %esi
    28f9:	e8 a2 f2 00 00       	call   11ba0 <free@plt>
    28fe:	83 c4 10             	add    $0x10,%esp
    2901:	be f2 ff ff ff       	mov    $0xfffffff2,%esi
    2906:	e9 cf fc ff ff       	jmp    25da <ne2k_dev_add+0xfa>
    290b:	66 90                	xchg   %ax,%ax
    290d:	66 90                	xchg   %ax,%ax
    290f:	90                   	nop

00002910 <main>:
    2910:	8d 4c 24 04          	lea    0x4(%esp),%ecx
    2914:	83 e4 f0             	and    $0xfffffff0,%esp
    2917:	ff 71 fc             	pushl  -0x4(%ecx)
    291a:	55                   	push   %ebp
    291b:	89 e5                	mov    %esp,%ebp
    291d:	51                   	push   %ecx
    291e:	83 ec 0c             	sub    $0xc,%esp
    2921:	68 5c f4 00 00       	push   $0xf45c
    2926:	68 64 f4 00 00       	push   $0xf464
    292b:	e8 40 ec 00 00       	call   11570 <printf@plt>
    2930:	c7 04 24 5c f4 00 00 	movl   $0xf45c,(%esp)
    2937:	e8 84 92 00 00       	call   bbc0 <nic_driver_init>
    293c:	83 c4 0c             	add    $0xc,%esp
    293f:	68 40 3f 01 00       	push   $0x13f40
    2944:	68 00 43 01 00       	push   $0x14300
    2949:	68 28 3f 01 00       	push   $0x13f28
    294e:	e8 dd 92 00 00       	call   bc30 <nic_driver_implement>
    2953:	c7 04 24 20 3f 01 00 	movl   $0x13f20,(%esp)
    295a:	e8 a1 10 00 00       	call   3a00 <ddf_driver_main>
    295f:	8b 4d fc             	mov    -0x4(%ebp),%ecx
    2962:	c9                   	leave  
    2963:	8d 61 fc             	lea    -0x4(%ecx),%esp
    2966:	c3                   	ret    
    2967:	66 90                	xchg   %ax,%ax
    2969:	66 90                	xchg   %ax,%ax
    296b:	66 90                	xchg   %ax,%ax
    296d:	66 90                	xchg   %ax,%ax
    296f:	90                   	nop

00002970 <fun_del_ref>:
    2970:	55                   	push   %ebp
    2971:	83 ca ff             	or     $0xffffffff,%edx
    2974:	89 e5                	mov    %esp,%ebp
    2976:	57                   	push   %edi
    2977:	56                   	push   %esi
    2978:	53                   	push   %ebx
    2979:	83 ec 1c             	sub    $0x1c,%esp
    297c:	8b 70 0c             	mov    0xc(%eax),%esi
    297f:	f0 0f c1 50 08       	lock xadd %edx,0x8(%eax)
    2984:	4a                   	dec    %edx
    2985:	74 69                	je     29f0 <fun_del_ref+0x80>
    2987:	83 c8 ff             	or     $0xffffffff,%eax
    298a:	f0 0f c1 46 04       	lock xadd %eax,0x4(%esi)
    298f:	48                   	dec    %eax
    2990:	74 0e                	je     29a0 <fun_del_ref+0x30>
    2992:	8d 65 f4             	lea    -0xc(%ebp),%esp
    2995:	5b                   	pop    %ebx
    2996:	5e                   	pop    %esi
    2997:	5f                   	pop    %edi
    2998:	5d                   	pop    %ebp
    2999:	c3                   	ret    
    299a:	8d b6 00 00 00 00    	lea    0x0(%esi),%esi
    29a0:	8b 46 08             	mov    0x8(%esi),%eax
    29a3:	85 c0                	test   %eax,%eax
    29a5:	74 0c                	je     29b3 <fun_del_ref+0x43>
    29a7:	83 ec 0c             	sub    $0xc,%esp
    29aa:	50                   	push   %eax
    29ab:	e8 d0 eb 00 00       	call   11580 <async_hangup@plt>
    29b0:	83 c4 10             	add    $0x10,%esp
    29b3:	8b 46 10             	mov    0x10(%esi),%eax
    29b6:	85 c0                	test   %eax,%eax
    29b8:	74 0c                	je     29c6 <fun_del_ref+0x56>
    29ba:	83 ec 0c             	sub    $0xc,%esp
    29bd:	50                   	push   %eax
    29be:	e8 dd f1 00 00       	call   11ba0 <free@plt>
    29c3:	83 c4 10             	add    $0x10,%esp
    29c6:	8b 46 0c             	mov    0xc(%esi),%eax
    29c9:	85 c0                	test   %eax,%eax
    29cb:	74 0c                	je     29d9 <fun_del_ref+0x69>
    29cd:	83 ec 0c             	sub    $0xc,%esp
    29d0:	50                   	push   %eax
    29d1:	e8 ca f1 00 00       	call   11ba0 <free@plt>
    29d6:	83 c4 10             	add    $0x10,%esp
    29d9:	83 ec 0c             	sub    $0xc,%esp
    29dc:	56                   	push   %esi
    29dd:	e8 be f1 00 00       	call   11ba0 <free@plt>
    29e2:	83 c4 10             	add    $0x10,%esp
    29e5:	8d 65 f4             	lea    -0xc(%ebp),%esp
    29e8:	5b                   	pop    %ebx
    29e9:	5e                   	pop    %esi
    29ea:	5f                   	pop    %edi
    29eb:	5d                   	pop    %ebp
    29ec:	c3                   	ret    
    29ed:	8d 76 00             	lea    0x0(%esi),%esi
    29f0:	8b 58 1c             	mov    0x1c(%eax),%ebx
    29f3:	89 c7                	mov    %eax,%edi
    29f5:	8d 40 18             	lea    0x18(%eax),%eax
    29f8:	89 45 e4             	mov    %eax,-0x1c(%ebp)
    29fb:	39 d8                	cmp    %ebx,%eax
    29fd:	74 49                	je     2a48 <fun_del_ref+0xd8>
    29ff:	90                   	nop
    2a00:	8b 0b                	mov    (%ebx),%ecx
    2a02:	85 c9                	test   %ecx,%ecx
    2a04:	74 0e                	je     2a14 <fun_del_ref+0xa4>
    2a06:	8b 53 04             	mov    0x4(%ebx),%edx
    2a09:	85 d2                	test   %edx,%edx
    2a0b:	74 07                	je     2a14 <fun_del_ref+0xa4>
    2a0d:	89 0a                	mov    %ecx,(%edx)
    2a0f:	8b 0b                	mov    (%ebx),%ecx
    2a11:	89 51 04             	mov    %edx,0x4(%ecx)
    2a14:	8b 53 08             	mov    0x8(%ebx),%edx
    2a17:	c7 03 00 00 00 00    	movl   $0x0,(%ebx)
    2a1d:	c7 43 04 00 00 00 00 	movl   $0x0,0x4(%ebx)
    2a24:	85 d2                	test   %edx,%edx
    2a26:	74 0c                	je     2a34 <fun_del_ref+0xc4>
    2a28:	83 ec 0c             	sub    $0xc,%esp
    2a2b:	52                   	push   %edx
    2a2c:	e8 6f f1 00 00       	call   11ba0 <free@plt>
    2a31:	83 c4 10             	add    $0x10,%esp
    2a34:	83 ec 0c             	sub    $0xc,%esp
    2a37:	53                   	push   %ebx
    2a38:	e8 63 f1 00 00       	call   11ba0 <free@plt>
    2a3d:	8b 5f 1c             	mov    0x1c(%edi),%ebx
    2a40:	83 c4 10             	add    $0x10,%esp
    2a43:	3b 5d e4             	cmp    -0x1c(%ebp),%ebx
    2a46:	75 b8                	jne    2a00 <fun_del_ref+0x90>
    2a48:	8b 57 20             	mov    0x20(%edi),%edx
    2a4b:	85 d2                	test   %edx,%edx
    2a4d:	74 0c                	je     2a5b <fun_del_ref+0xeb>
    2a4f:	83 ec 0c             	sub    $0xc,%esp
    2a52:	52                   	push   %edx
    2a53:	e8 48 f1 00 00       	call   11ba0 <free@plt>
    2a58:	83 c4 10             	add    $0x10,%esp
    2a5b:	8b 57 14             	mov    0x14(%edi),%edx
    2a5e:	85 d2                	test   %edx,%edx
    2a60:	74 0c                	je     2a6e <fun_del_ref+0xfe>
    2a62:	83 ec 0c             	sub    $0xc,%esp
    2a65:	52                   	push   %edx
    2a66:	e8 35 f1 00 00       	call   11ba0 <free@plt>
    2a6b:	83 c4 10             	add    $0x10,%esp
    2a6e:	83 ec 0c             	sub    $0xc,%esp
    2a71:	57                   	push   %edi
    2a72:	e8 29 f1 00 00       	call   11ba0 <free@plt>
    2a77:	83 c4 10             	add    $0x10,%esp
    2a7a:	e9 08 ff ff ff       	jmp    2987 <fun_del_ref+0x17>
    2a7f:	90                   	nop

00002a80 <driver_connection_gen.constprop.7>:
    2a80:	55                   	push   %ebp
    2a81:	89 e5                	mov    %esp,%ebp
    2a83:	57                   	push   %edi
    2a84:	56                   	push   %esi
    2a85:	53                   	push   %ebx
    2a86:	83 ec 58             	sub    $0x58,%esp
    2a89:	89 d3                	mov    %edx,%ebx
    2a8b:	8b 72 08             	mov    0x8(%edx),%esi
    2a8e:	89 45 b4             	mov    %eax,-0x4c(%ebp)
    2a91:	68 94 40 01 00       	push   $0x14094
    2a96:	e8 25 f1 00 00       	call   11bc0 <fibril_mutex_lock@plt>
    2a9b:	c7 04 24 94 40 01 00 	movl   $0x14094,(%esp)
    2aa2:	e8 79 eb 00 00       	call   11620 <fibril_mutex_is_locked@plt>
    2aa7:	83 c4 10             	add    $0x10,%esp
    2aaa:	84 c0                	test   %al,%al
    2aac:	0f 84 71 02 00 00    	je     2d23 <driver_connection_gen.constprop.7+0x2a3>
    2ab2:	a1 a8 40 01 00       	mov    0x140a8,%eax
    2ab7:	3d a4 40 01 00       	cmp    $0x140a4,%eax
    2abc:	8d 78 d4             	lea    -0x2c(%eax),%edi
    2abf:	75 18                	jne    2ad9 <driver_connection_gen.constprop.7+0x59>
    2ac1:	e9 22 02 00 00       	jmp    2ce8 <driver_connection_gen.constprop.7+0x268>
    2ac6:	66 90                	xchg   %ax,%ax
    2ac8:	8b 40 04             	mov    0x4(%eax),%eax
    2acb:	3d a4 40 01 00       	cmp    $0x140a4,%eax
    2ad0:	8d 78 d4             	lea    -0x2c(%eax),%edi
    2ad3:	0f 84 0f 02 00 00    	je     2ce8 <driver_connection_gen.constprop.7+0x268>
    2ad9:	3b 77 04             	cmp    0x4(%edi),%esi
    2adc:	75 ea                	jne    2ac8 <driver_connection_gen.constprop.7+0x48>
    2ade:	8b 47 0c             	mov    0xc(%edi),%eax
    2ae1:	f0 ff 40 04          	lock incl 0x4(%eax)
    2ae5:	f0 ff 47 08          	lock incl 0x8(%edi)
    2ae9:	83 ec 0c             	sub    $0xc,%esp
    2aec:	68 94 40 01 00       	push   $0x14094
    2af1:	e8 4a ed 00 00       	call   11840 <fibril_mutex_unlock@plt>
    2af6:	8b 47 28             	mov    0x28(%edi),%eax
    2af9:	83 c4 10             	add    $0x10,%esp
    2afc:	85 c0                	test   %eax,%eax
    2afe:	74 20                	je     2b20 <driver_connection_gen.constprop.7+0xa0>
    2b00:	8b 55 b4             	mov    -0x4c(%ebp),%edx
    2b03:	56                   	push   %esi
    2b04:	57                   	push   %edi
    2b05:	53                   	push   %ebx
    2b06:	52                   	push   %edx
    2b07:	ff d0                	call   *%eax
    2b09:	89 f8                	mov    %edi,%eax
    2b0b:	e8 60 fe ff ff       	call   2970 <fun_del_ref>
    2b10:	83 c4 10             	add    $0x10,%esp
    2b13:	8d 65 f4             	lea    -0xc(%ebp),%esp
    2b16:	5b                   	pop    %ebx
    2b17:	5e                   	pop    %esi
    2b18:	5f                   	pop    %edi
    2b19:	5d                   	pop    %ebp
    2b1a:	c3                   	ret    
    2b1b:	90                   	nop
    2b1c:	8d 74 26 00          	lea    0x0(%esi,%eiz,1),%esi
    2b20:	8b 47 24             	mov    0x24(%edi),%eax
    2b23:	85 c0                	test   %eax,%eax
    2b25:	0f 84 a5 01 00 00    	je     2cd0 <driver_connection_gen.constprop.7+0x250>
    2b2b:	8b 00                	mov    (%eax),%eax
    2b2d:	85 c0                	test   %eax,%eax
    2b2f:	0f 84 9b 01 00 00    	je     2cd0 <driver_connection_gen.constprop.7+0x250>
    2b35:	83 ec 0c             	sub    $0xc,%esp
    2b38:	57                   	push   %edi
    2b39:	ff d0                	call   *%eax
    2b3b:	8b 4d b4             	mov    -0x4c(%ebp),%ecx
    2b3e:	89 c3                	mov    %eax,%ebx
    2b40:	58                   	pop    %eax
    2b41:	5a                   	pop    %edx
    2b42:	53                   	push   %ebx
    2b43:	51                   	push   %ecx
    2b44:	e8 b7 eb 00 00       	call   11700 <async_answer_0@plt>
    2b49:	83 c4 10             	add    $0x10,%esp
    2b4c:	85 db                	test   %ebx,%ebx
    2b4e:	0f 85 70 01 00 00    	jne    2cc4 <driver_connection_gen.constprop.7+0x244>
    2b54:	8d 74 26 00          	lea    0x0(%esi,%eiz,1),%esi
    2b58:	50                   	push   %eax
    2b59:	50                   	push   %eax
    2b5a:	8d 45 c4             	lea    -0x3c(%ebp),%eax
    2b5d:	6a 00                	push   $0x0
    2b5f:	50                   	push   %eax
    2b60:	e8 5b ee 00 00       	call   119c0 <async_get_call_timeout@plt>
    2b65:	8b 5d c4             	mov    -0x3c(%ebp),%ebx
    2b68:	83 c4 10             	add    $0x10,%esp
    2b6b:	89 45 b4             	mov    %eax,-0x4c(%ebp)
    2b6e:	85 db                	test   %ebx,%ebx
    2b70:	0f 84 e2 00 00 00    	je     2c58 <driver_connection_gen.constprop.7+0x1d8>
    2b76:	83 ec 0c             	sub    $0xc,%esp
    2b79:	81 eb 00 04 00 00    	sub    $0x400,%ebx
    2b7f:	53                   	push   %ebx
    2b80:	e8 cb 0f 00 00       	call   3b50 <is_valid_iface_idx>
    2b85:	83 c4 10             	add    $0x10,%esp
    2b88:	84 c0                	test   %al,%al
    2b8a:	75 2c                	jne    2bb8 <driver_connection_gen.constprop.7+0x138>
    2b8c:	8b 47 24             	mov    0x24(%edi),%eax
    2b8f:	85 c0                	test   %eax,%eax
    2b91:	0f 84 91 00 00 00    	je     2c28 <driver_connection_gen.constprop.7+0x1a8>
    2b97:	8b 40 44             	mov    0x44(%eax),%eax
    2b9a:	85 c0                	test   %eax,%eax
    2b9c:	0f 84 86 00 00 00    	je     2c28 <driver_connection_gen.constprop.7+0x1a8>
    2ba2:	8d 4d c4             	lea    -0x3c(%ebp),%ecx
    2ba5:	52                   	push   %edx
    2ba6:	51                   	push   %ecx
    2ba7:	8b 4d b4             	mov    -0x4c(%ebp),%ecx
    2baa:	51                   	push   %ecx
    2bab:	57                   	push   %edi
    2bac:	ff d0                	call   *%eax
    2bae:	83 c4 10             	add    $0x10,%esp
    2bb1:	eb a5                	jmp    2b58 <driver_connection_gen.constprop.7+0xd8>
    2bb3:	90                   	nop
    2bb4:	8d 74 26 00          	lea    0x0(%esi,%eiz,1),%esi
    2bb8:	83 ec 0c             	sub    $0xc,%esp
    2bbb:	53                   	push   %ebx
    2bbc:	e8 8f 0f 00 00       	call   3b50 <is_valid_iface_idx>
    2bc1:	83 c4 10             	add    $0x10,%esp
    2bc4:	84 c0                	test   %al,%al
    2bc6:	0f 84 69 01 00 00    	je     2d35 <driver_connection_gen.constprop.7+0x2b5>
    2bcc:	8b 47 24             	mov    0x24(%edi),%eax
    2bcf:	85 c0                	test   %eax,%eax
    2bd1:	0f 84 b9 00 00 00    	je     2c90 <driver_connection_gen.constprop.7+0x210>
    2bd7:	8b 44 98 08          	mov    0x8(%eax,%ebx,4),%eax
    2bdb:	89 45 b0             	mov    %eax,-0x50(%ebp)
    2bde:	85 c0                	test   %eax,%eax
    2be0:	0f 84 aa 00 00 00    	je     2c90 <driver_connection_gen.constprop.7+0x210>
    2be6:	83 ec 0c             	sub    $0xc,%esp
    2be9:	53                   	push   %ebx
    2bea:	e8 11 0f 00 00       	call   3b00 <get_remote_iface>
    2bef:	83 c4 10             	add    $0x10,%esp
    2bf2:	85 c0                	test   %eax,%eax
    2bf4:	0f 84 50 01 00 00    	je     2d4a <driver_connection_gen.constprop.7+0x2ca>
    2bfa:	8b 4d c8             	mov    -0x38(%ebp),%ecx
    2bfd:	52                   	push   %edx
    2bfe:	52                   	push   %edx
    2bff:	51                   	push   %ecx
    2c00:	50                   	push   %eax
    2c01:	e8 2a 0f 00 00       	call   3b30 <get_remote_method>
    2c06:	83 c4 10             	add    $0x10,%esp
    2c09:	85 c0                	test   %eax,%eax
    2c0b:	0f 84 9f 00 00 00    	je     2cb0 <driver_connection_gen.constprop.7+0x230>
    2c11:	8d 55 c4             	lea    -0x3c(%ebp),%edx
    2c14:	8b 4d b0             	mov    -0x50(%ebp),%ecx
    2c17:	52                   	push   %edx
    2c18:	8b 55 b4             	mov    -0x4c(%ebp),%edx
    2c1b:	52                   	push   %edx
    2c1c:	51                   	push   %ecx
    2c1d:	57                   	push   %edi
    2c1e:	ff d0                	call   *%eax
    2c20:	83 c4 10             	add    $0x10,%esp
    2c23:	e9 30 ff ff ff       	jmp    2b58 <driver_connection_gen.constprop.7+0xd8>
    2c28:	50                   	push   %eax
    2c29:	a1 48 43 01 00       	mov    0x14348,%eax
    2c2e:	53                   	push   %ebx
    2c2f:	8b 00                	mov    (%eax),%eax
    2c31:	50                   	push   %eax
    2c32:	68 14 f6 00 00       	push   $0xf614
    2c37:	e8 34 e9 00 00       	call   11570 <printf@plt>
    2c3c:	5b                   	pop    %ebx
    2c3d:	58                   	pop    %eax
    2c3e:	8b 45 b4             	mov    -0x4c(%ebp),%eax
    2c41:	6a f5                	push   $0xfffffff5
    2c43:	50                   	push   %eax
    2c44:	e8 b7 ea 00 00       	call   11700 <async_answer_0@plt>
    2c49:	83 c4 10             	add    $0x10,%esp
    2c4c:	e9 07 ff ff ff       	jmp    2b58 <driver_connection_gen.constprop.7+0xd8>
    2c51:	8d b4 26 00 00 00 00 	lea    0x0(%esi,%eiz,1),%esi
    2c58:	8b 47 24             	mov    0x24(%edi),%eax
    2c5b:	85 c0                	test   %eax,%eax
    2c5d:	74 10                	je     2c6f <driver_connection_gen.constprop.7+0x1ef>
    2c5f:	8b 40 04             	mov    0x4(%eax),%eax
    2c62:	85 c0                	test   %eax,%eax
    2c64:	74 09                	je     2c6f <driver_connection_gen.constprop.7+0x1ef>
    2c66:	83 ec 0c             	sub    $0xc,%esp
    2c69:	57                   	push   %edi
    2c6a:	ff d0                	call   *%eax
    2c6c:	83 c4 10             	add    $0x10,%esp
    2c6f:	8b 75 b4             	mov    -0x4c(%ebp),%esi
    2c72:	53                   	push   %ebx
    2c73:	53                   	push   %ebx
    2c74:	6a 00                	push   $0x0
    2c76:	56                   	push   %esi
    2c77:	e8 84 ea 00 00       	call   11700 <async_answer_0@plt>
    2c7c:	89 f8                	mov    %edi,%eax
    2c7e:	e8 ed fc ff ff       	call   2970 <fun_del_ref>
    2c83:	83 c4 10             	add    $0x10,%esp
    2c86:	8d 65 f4             	lea    -0xc(%ebp),%esp
    2c89:	5b                   	pop    %ebx
    2c8a:	5e                   	pop    %esi
    2c8b:	5f                   	pop    %edi
    2c8c:	5d                   	pop    %ebp
    2c8d:	c3                   	ret    
    2c8e:	66 90                	xchg   %ax,%ax
    2c90:	50                   	push   %eax
    2c91:	50                   	push   %eax
    2c92:	a1 48 43 01 00       	mov    0x14348,%eax
    2c97:	8b 00                	mov    (%eax),%eax
    2c99:	50                   	push   %eax
    2c9a:	68 50 f6 00 00       	push   $0xf650
    2c9f:	e8 cc e8 00 00       	call   11570 <printf@plt>
    2ca4:	83 c4 0c             	add    $0xc,%esp
    2ca7:	53                   	push   %ebx
    2ca8:	56                   	push   %esi
    2ca9:	68 74 f6 00 00       	push   $0xf674
    2cae:	eb 87                	jmp    2c37 <driver_connection_gen.constprop.7+0x1b7>
    2cb0:	50                   	push   %eax
    2cb1:	50                   	push   %eax
    2cb2:	a1 48 43 01 00       	mov    0x14348,%eax
    2cb7:	8b 00                	mov    (%eax),%eax
    2cb9:	50                   	push   %eax
    2cba:	68 ac f6 00 00       	push   $0xf6ac
    2cbf:	e9 73 ff ff ff       	jmp    2c37 <driver_connection_gen.constprop.7+0x1b7>
    2cc4:	89 f8                	mov    %edi,%eax
    2cc6:	e8 a5 fc ff ff       	call   2970 <fun_del_ref>
    2ccb:	e9 43 fe ff ff       	jmp    2b13 <driver_connection_gen.constprop.7+0x93>
    2cd0:	8b 55 b4             	mov    -0x4c(%ebp),%edx
    2cd3:	50                   	push   %eax
    2cd4:	50                   	push   %eax
    2cd5:	6a 00                	push   $0x0
    2cd7:	52                   	push   %edx
    2cd8:	e8 23 ea 00 00       	call   11700 <async_answer_0@plt>
    2cdd:	83 c4 10             	add    $0x10,%esp
    2ce0:	e9 73 fe ff ff       	jmp    2b58 <driver_connection_gen.constprop.7+0xd8>
    2ce5:	8d 76 00             	lea    0x0(%esi),%esi
    2ce8:	83 ec 0c             	sub    $0xc,%esp
    2ceb:	68 94 40 01 00       	push   $0x14094
    2cf0:	e8 4b eb 00 00       	call   11840 <fibril_mutex_unlock@plt>
    2cf5:	a1 48 43 01 00       	mov    0x14348,%eax
    2cfa:	83 c4 0c             	add    $0xc,%esp
    2cfd:	8b 08                	mov    (%eax),%ecx
    2cff:	56                   	push   %esi
    2d00:	51                   	push   %ecx
    2d01:	68 e8 f6 00 00       	push   $0xf6e8
    2d06:	e8 65 e8 00 00       	call   11570 <printf@plt>
    2d0b:	8b 7d b4             	mov    -0x4c(%ebp),%edi
    2d0e:	5b                   	pop    %ebx
    2d0f:	5e                   	pop    %esi
    2d10:	6a ff                	push   $0xffffffff
    2d12:	57                   	push   %edi
    2d13:	e8 e8 e9 00 00       	call   11700 <async_answer_0@plt>
    2d18:	83 c4 10             	add    $0x10,%esp
    2d1b:	8d 65 f4             	lea    -0xc(%ebp),%esp
    2d1e:	5b                   	pop    %ebx
    2d1f:	5e                   	pop    %esi
    2d20:	5f                   	pop    %edi
    2d21:	5d                   	pop    %ebp
    2d22:	c3                   	ret    
    2d23:	51                   	push   %ecx
    2d24:	6a 6b                	push   $0x6b
    2d26:	68 90 f4 00 00       	push   $0xf490
    2d2b:	68 e8 f5 00 00       	push   $0xf5e8
    2d30:	e8 4b ea 00 00       	call   11780 <assert_abort@plt>
    2d35:	50                   	push   %eax
    2d36:	68 fb 02 00 00       	push   $0x2fb
    2d3b:	68 90 f4 00 00       	push   $0xf490
    2d40:	68 a1 f4 00 00       	push   $0xf4a1
    2d45:	e8 36 ea 00 00       	call   11780 <assert_abort@plt>
    2d4a:	53                   	push   %ebx
    2d4b:	68 aa 01 00 00       	push   $0x1aa
    2d50:	68 90 f4 00 00       	push   $0xf490
    2d55:	68 b9 f4 00 00       	push   $0xf4b9
    2d5a:	e8 21 ea 00 00       	call   11780 <assert_abort@plt>
    2d5f:	90                   	nop

00002d60 <driver_connection_driver>:
    2d60:	55                   	push   %ebp
    2d61:	89 e5                	mov    %esp,%ebp
    2d63:	8b 55 0c             	mov    0xc(%ebp),%edx
    2d66:	8b 45 08             	mov    0x8(%ebp),%eax
    2d69:	5d                   	pop    %ebp
    2d6a:	e9 11 fd ff ff       	jmp    2a80 <driver_connection_gen.constprop.7>
    2d6f:	90                   	nop

00002d70 <driver_connection_client>:
    2d70:	55                   	push   %ebp
    2d71:	89 e5                	mov    %esp,%ebp
    2d73:	8b 55 0c             	mov    0xc(%ebp),%edx
    2d76:	8b 45 08             	mov    0x8(%ebp),%eax
    2d79:	5d                   	pop    %ebp
    2d7a:	e9 01 fd ff ff       	jmp    2a80 <driver_connection_gen.constprop.7>
    2d7f:	90                   	nop

00002d80 <driver_connection_devman>:
    2d80:	55                   	push   %ebp
    2d81:	89 e5                	mov    %esp,%ebp
    2d83:	57                   	push   %edi
    2d84:	56                   	push   %esi
    2d85:	53                   	push   %ebx
    2d86:	83 ec 54             	sub    $0x54,%esp
    2d89:	8d 75 c4             	lea    -0x3c(%ebp),%esi
    2d8c:	8b 45 08             	mov    0x8(%ebp),%eax
    2d8f:	6a 00                	push   $0x0
    2d91:	50                   	push   %eax
    2d92:	e8 69 e9 00 00       	call   11700 <async_answer_0@plt>
    2d97:	83 c4 10             	add    $0x10,%esp
    2d9a:	8d b6 00 00 00 00    	lea    0x0(%esi),%esi
    2da0:	50                   	push   %eax
    2da1:	50                   	push   %eax
    2da2:	6a 00                	push   $0x0
    2da4:	56                   	push   %esi
    2da5:	e8 16 ec 00 00       	call   119c0 <async_get_call_timeout@plt>
    2daa:	83 c4 10             	add    $0x10,%esp
    2dad:	89 c3                	mov    %eax,%ebx
    2daf:	8b 45 c4             	mov    -0x3c(%ebp),%eax
    2db2:	85 c0                	test   %eax,%eax
    2db4:	0f 84 de 03 00 00    	je     3198 <driver_connection_devman+0x418>
    2dba:	2d 00 04 00 00       	sub    $0x400,%eax
    2dbf:	83 f8 04             	cmp    $0x4,%eax
    2dc2:	0f 87 b8 03 00 00    	ja     3180 <driver_connection_devman+0x400>
    2dc8:	8b 7d c8             	mov    -0x38(%ebp),%edi
    2dcb:	ff 24 85 98 f7 00 00 	jmp    *0xf798(,%eax,4)
    2dd2:	8d b6 00 00 00 00    	lea    0x0(%esi),%esi
    2dd8:	83 ec 0c             	sub    $0xc,%esp
    2ddb:	68 94 40 01 00       	push   $0x14094
    2de0:	e8 db ed 00 00       	call   11bc0 <fibril_mutex_lock@plt>
    2de5:	c7 04 24 94 40 01 00 	movl   $0x14094,(%esp)
    2dec:	e8 2f e8 00 00       	call   11620 <fibril_mutex_is_locked@plt>
    2df1:	83 c4 10             	add    $0x10,%esp
    2df4:	84 c0                	test   %al,%al
    2df6:	0f 84 5a 04 00 00    	je     3256 <driver_connection_devman+0x4d6>
    2dfc:	a1 a8 40 01 00       	mov    0x140a8,%eax
    2e01:	3d a4 40 01 00       	cmp    $0x140a4,%eax
    2e06:	8d 50 d4             	lea    -0x2c(%eax),%edx
    2e09:	75 16                	jne    2e21 <driver_connection_devman+0xa1>
    2e0b:	e9 90 03 00 00       	jmp    31a0 <driver_connection_devman+0x420>
    2e10:	8b 40 04             	mov    0x4(%eax),%eax
    2e13:	3d a4 40 01 00       	cmp    $0x140a4,%eax
    2e18:	8d 50 d4             	lea    -0x2c(%eax),%edx
    2e1b:	0f 84 7f 03 00 00    	je     31a0 <driver_connection_devman+0x420>
    2e21:	3b 7a 04             	cmp    0x4(%edx),%edi
    2e24:	75 ea                	jne    2e10 <driver_connection_devman+0x90>
    2e26:	8b 42 0c             	mov    0xc(%edx),%eax
    2e29:	f0 ff 40 04          	lock incl 0x4(%eax)
    2e2d:	f0 ff 42 08          	lock incl 0x8(%edx)
    2e31:	83 ec 0c             	sub    $0xc,%esp
    2e34:	89 55 b4             	mov    %edx,-0x4c(%ebp)
    2e37:	68 94 40 01 00       	push   $0x14094
    2e3c:	e8 ff e9 00 00       	call   11840 <fibril_mutex_unlock@plt>
    2e41:	a1 48 43 01 00       	mov    0x14348,%eax
    2e46:	83 c4 10             	add    $0x10,%esp
    2e49:	8b 55 b4             	mov    -0x4c(%ebp),%edx
    2e4c:	8b 40 04             	mov    0x4(%eax),%eax
    2e4f:	8b 40 0c             	mov    0xc(%eax),%eax
    2e52:	85 c0                	test   %eax,%eax
    2e54:	0f 84 76 03 00 00    	je     31d0 <driver_connection_devman+0x450>
    2e5a:	83 ec 0c             	sub    $0xc,%esp
    2e5d:	52                   	push   %edx
    2e5e:	ff d0                	call   *%eax
    2e60:	83 c4 10             	add    $0x10,%esp
    2e63:	89 c7                	mov    %eax,%edi
    2e65:	8b 55 b4             	mov    -0x4c(%ebp),%edx
    2e68:	89 d0                	mov    %edx,%eax
    2e6a:	e8 01 fb ff ff       	call   2970 <fun_del_ref>
    2e6f:	51                   	push   %ecx
    2e70:	51                   	push   %ecx
    2e71:	57                   	push   %edi
    2e72:	53                   	push   %ebx
    2e73:	e8 88 e8 00 00       	call   11700 <async_answer_0@plt>
    2e78:	83 c4 10             	add    $0x10,%esp
    2e7b:	e9 20 ff ff ff       	jmp    2da0 <driver_connection_devman+0x20>
    2e80:	83 ec 0c             	sub    $0xc,%esp
    2e83:	68 ac 40 01 00       	push   $0x140ac
    2e88:	e8 33 ed 00 00       	call   11bc0 <fibril_mutex_lock@plt>
    2e8d:	c7 04 24 ac 40 01 00 	movl   $0x140ac,(%esp)
    2e94:	e8 87 e7 00 00       	call   11620 <fibril_mutex_is_locked@plt>
    2e99:	83 c4 10             	add    $0x10,%esp
    2e9c:	84 c0                	test   %al,%al
    2e9e:	0f 84 a0 03 00 00    	je     3244 <driver_connection_devman+0x4c4>
    2ea4:	a1 c0 40 01 00       	mov    0x140c0,%eax
    2ea9:	3d bc 40 01 00       	cmp    $0x140bc,%eax
    2eae:	8d 50 ec             	lea    -0x14(%eax),%edx
    2eb1:	75 16                	jne    2ec9 <driver_connection_devman+0x149>
    2eb3:	e9 08 03 00 00       	jmp    31c0 <driver_connection_devman+0x440>
    2eb8:	8b 40 04             	mov    0x4(%eax),%eax
    2ebb:	3d bc 40 01 00       	cmp    $0x140bc,%eax
    2ec0:	8d 50 ec             	lea    -0x14(%eax),%edx
    2ec3:	0f 84 f7 02 00 00    	je     31c0 <driver_connection_devman+0x440>
    2ec9:	3b 78 ec             	cmp    -0x14(%eax),%edi
    2ecc:	75 ea                	jne    2eb8 <driver_connection_devman+0x138>
    2ece:	8d 7a 04             	lea    0x4(%edx),%edi
    2ed1:	f0 ff 42 04          	lock incl 0x4(%edx)
    2ed5:	83 ec 0c             	sub    $0xc,%esp
    2ed8:	89 55 b4             	mov    %edx,-0x4c(%ebp)
    2edb:	68 ac 40 01 00       	push   $0x140ac
    2ee0:	e8 5b e9 00 00       	call   11840 <fibril_mutex_unlock@plt>
    2ee5:	a1 48 43 01 00       	mov    0x14348,%eax
    2eea:	83 c4 10             	add    $0x10,%esp
    2eed:	8b 40 04             	mov    0x4(%eax),%eax
    2ef0:	8b 40 08             	mov    0x8(%eax),%eax
    2ef3:	85 c0                	test   %eax,%eax
    2ef5:	0f 85 88 00 00 00    	jne    2f83 <driver_connection_devman+0x203>
    2efb:	b8 f5 ff ff ff       	mov    $0xfffffff5,%eax
    2f00:	e9 63 02 00 00       	jmp    3168 <driver_connection_devman+0x3e8>
    2f05:	8d 76 00             	lea    0x0(%esi),%esi
    2f08:	83 ec 0c             	sub    $0xc,%esp
    2f0b:	68 ac 40 01 00       	push   $0x140ac
    2f10:	e8 ab ec 00 00       	call   11bc0 <fibril_mutex_lock@plt>
    2f15:	c7 04 24 ac 40 01 00 	movl   $0x140ac,(%esp)
    2f1c:	e8 ff e6 00 00       	call   11620 <fibril_mutex_is_locked@plt>
    2f21:	83 c4 10             	add    $0x10,%esp
    2f24:	84 c0                	test   %al,%al
    2f26:	0f 84 18 03 00 00    	je     3244 <driver_connection_devman+0x4c4>
    2f2c:	a1 c0 40 01 00       	mov    0x140c0,%eax
    2f31:	3d bc 40 01 00       	cmp    $0x140bc,%eax
    2f36:	8d 50 ec             	lea    -0x14(%eax),%edx
    2f39:	75 16                	jne    2f51 <driver_connection_devman+0x1d1>
    2f3b:	e9 80 02 00 00       	jmp    31c0 <driver_connection_devman+0x440>
    2f40:	8b 40 04             	mov    0x4(%eax),%eax
    2f43:	3d bc 40 01 00       	cmp    $0x140bc,%eax
    2f48:	8d 50 ec             	lea    -0x14(%eax),%edx
    2f4b:	0f 84 6f 02 00 00    	je     31c0 <driver_connection_devman+0x440>
    2f51:	3b 78 ec             	cmp    -0x14(%eax),%edi
    2f54:	75 ea                	jne    2f40 <driver_connection_devman+0x1c0>
    2f56:	8d 7a 04             	lea    0x4(%edx),%edi
    2f59:	f0 ff 42 04          	lock incl 0x4(%edx)
    2f5d:	83 ec 0c             	sub    $0xc,%esp
    2f60:	89 55 b4             	mov    %edx,-0x4c(%ebp)
    2f63:	68 ac 40 01 00       	push   $0x140ac
    2f68:	e8 d3 e8 00 00       	call   11840 <fibril_mutex_unlock@plt>
    2f6d:	a1 48 43 01 00       	mov    0x14348,%eax
    2f72:	83 c4 10             	add    $0x10,%esp
    2f75:	8b 40 04             	mov    0x4(%eax),%eax
    2f78:	8b 40 04             	mov    0x4(%eax),%eax
    2f7b:	85 c0                	test   %eax,%eax
    2f7d:	0f 84 78 ff ff ff    	je     2efb <driver_connection_devman+0x17b>
    2f83:	83 ec 0c             	sub    $0xc,%esp
    2f86:	8b 55 b4             	mov    -0x4c(%ebp),%edx
    2f89:	52                   	push   %edx
    2f8a:	ff d0                	call   *%eax
    2f8c:	83 c4 10             	add    $0x10,%esp
    2f8f:	8b 55 b4             	mov    -0x4c(%ebp),%edx
    2f92:	85 c0                	test   %eax,%eax
    2f94:	0f 85 ce 01 00 00    	jne    3168 <driver_connection_devman+0x3e8>
    2f9a:	83 c9 ff             	or     $0xffffffff,%ecx
    2f9d:	f0 0f c1 0f          	lock xadd %ecx,(%edi)
    2fa1:	49                   	dec    %ecx
    2fa2:	0f 85 c0 01 00 00    	jne    3168 <driver_connection_devman+0x3e8>
    2fa8:	8b 42 08             	mov    0x8(%edx),%eax
    2fab:	85 c0                	test   %eax,%eax
    2fad:	74 0f                	je     2fbe <driver_connection_devman+0x23e>
    2faf:	83 ec 0c             	sub    $0xc,%esp
    2fb2:	50                   	push   %eax
    2fb3:	e8 c8 e5 00 00       	call   11580 <async_hangup@plt>
    2fb8:	83 c4 10             	add    $0x10,%esp
    2fbb:	8b 55 b4             	mov    -0x4c(%ebp),%edx
    2fbe:	8b 42 10             	mov    0x10(%edx),%eax
    2fc1:	85 c0                	test   %eax,%eax
    2fc3:	74 12                	je     2fd7 <driver_connection_devman+0x257>
    2fc5:	83 ec 0c             	sub    $0xc,%esp
    2fc8:	89 55 b4             	mov    %edx,-0x4c(%ebp)
    2fcb:	50                   	push   %eax
    2fcc:	e8 cf eb 00 00       	call   11ba0 <free@plt>
    2fd1:	83 c4 10             	add    $0x10,%esp
    2fd4:	8b 55 b4             	mov    -0x4c(%ebp),%edx
    2fd7:	8b 42 0c             	mov    0xc(%edx),%eax
    2fda:	85 c0                	test   %eax,%eax
    2fdc:	74 12                	je     2ff0 <driver_connection_devman+0x270>
    2fde:	83 ec 0c             	sub    $0xc,%esp
    2fe1:	89 55 b4             	mov    %edx,-0x4c(%ebp)
    2fe4:	50                   	push   %eax
    2fe5:	e8 b6 eb 00 00       	call   11ba0 <free@plt>
    2fea:	83 c4 10             	add    $0x10,%esp
    2fed:	8b 55 b4             	mov    -0x4c(%ebp),%edx
    2ff0:	83 ec 0c             	sub    $0xc,%esp
    2ff3:	52                   	push   %edx
    2ff4:	e8 a7 eb 00 00       	call   11ba0 <free@plt>
    2ff9:	83 c4 10             	add    $0x10,%esp
    2ffc:	31 c0                	xor    %eax,%eax
    2ffe:	e9 65 01 00 00       	jmp    3168 <driver_connection_devman+0x3e8>
    3003:	90                   	nop
    3004:	8d 74 26 00          	lea    0x0(%esi,%eiz,1),%esi
    3008:	50                   	push   %eax
    3009:	50                   	push   %eax
    300a:	8d 45 c0             	lea    -0x40(%ebp),%eax
    300d:	6a 00                	push   $0x0
    300f:	c7 45 c0 00 00 00 00 	movl   $0x0,-0x40(%ebp)
    3016:	6a 00                	push   $0x0
    3018:	6a 00                	push   $0x0
    301a:	6a 00                	push   $0x0
    301c:	6a 01                	push   $0x1
    301e:	50                   	push   %eax
    301f:	e8 8c ea 00 00       	call   11ab0 <async_data_write_accept@plt>
    3024:	83 c4 20             	add    $0x20,%esp
    3027:	85 c0                	test   %eax,%eax
    3029:	0f 85 39 01 00 00    	jne    3168 <driver_connection_devman+0x3e8>
    302f:	50                   	push   %eax
    3030:	50                   	push   %eax
    3031:	6a 1c                	push   $0x1c
    3033:	6a 01                	push   $0x1
    3035:	e8 66 e7 00 00       	call   117a0 <calloc@plt>
    303a:	83 c4 10             	add    $0x10,%esp
    303d:	89 c2                	mov    %eax,%edx
    303f:	85 c0                	test   %eax,%eax
    3041:	0f 84 df 01 00 00    	je     3226 <driver_connection_devman+0x4a6>
    3047:	f0 ff 40 04          	lock incl 0x4(%eax)
    304b:	89 38                	mov    %edi,(%eax)
    304d:	8b 45 c0             	mov    -0x40(%ebp),%eax
    3050:	89 42 0c             	mov    %eax,0xc(%edx)
    3053:	a1 48 43 01 00       	mov    0x14348,%eax
    3058:	83 ec 0c             	sub    $0xc,%esp
    305b:	89 55 b4             	mov    %edx,-0x4c(%ebp)
    305e:	8b 40 04             	mov    0x4(%eax),%eax
    3061:	52                   	push   %edx
    3062:	ff 10                	call   *(%eax)
    3064:	83 c4 10             	add    $0x10,%esp
    3067:	89 c7                	mov    %eax,%edi
    3069:	85 c0                	test   %eax,%eax
    306b:	8b 55 b4             	mov    -0x4c(%ebp),%edx
    306e:	0f 84 66 01 00 00    	je     31da <driver_connection_devman+0x45a>
    3074:	83 c8 ff             	or     $0xffffffff,%eax
    3077:	f0 0f c1 42 04       	lock xadd %eax,0x4(%edx)
    307c:	48                   	dec    %eax
    307d:	0f 85 ec fd ff ff    	jne    2e6f <driver_connection_devman+0xef>
    3083:	8b 42 08             	mov    0x8(%edx),%eax
    3086:	85 c0                	test   %eax,%eax
    3088:	74 12                	je     309c <driver_connection_devman+0x31c>
    308a:	83 ec 0c             	sub    $0xc,%esp
    308d:	89 55 b4             	mov    %edx,-0x4c(%ebp)
    3090:	50                   	push   %eax
    3091:	e8 ea e4 00 00       	call   11580 <async_hangup@plt>
    3096:	83 c4 10             	add    $0x10,%esp
    3099:	8b 55 b4             	mov    -0x4c(%ebp),%edx
    309c:	8b 42 10             	mov    0x10(%edx),%eax
    309f:	85 c0                	test   %eax,%eax
    30a1:	74 12                	je     30b5 <driver_connection_devman+0x335>
    30a3:	83 ec 0c             	sub    $0xc,%esp
    30a6:	89 55 b4             	mov    %edx,-0x4c(%ebp)
    30a9:	50                   	push   %eax
    30aa:	e8 f1 ea 00 00       	call   11ba0 <free@plt>
    30af:	83 c4 10             	add    $0x10,%esp
    30b2:	8b 55 b4             	mov    -0x4c(%ebp),%edx
    30b5:	8b 42 0c             	mov    0xc(%edx),%eax
    30b8:	85 c0                	test   %eax,%eax
    30ba:	74 12                	je     30ce <driver_connection_devman+0x34e>
    30bc:	83 ec 0c             	sub    $0xc,%esp
    30bf:	89 55 b4             	mov    %edx,-0x4c(%ebp)
    30c2:	50                   	push   %eax
    30c3:	e8 d8 ea 00 00       	call   11ba0 <free@plt>
    30c8:	83 c4 10             	add    $0x10,%esp
    30cb:	8b 55 b4             	mov    -0x4c(%ebp),%edx
    30ce:	83 ec 0c             	sub    $0xc,%esp
    30d1:	52                   	push   %edx
    30d2:	e8 c9 ea 00 00       	call   11ba0 <free@plt>
    30d7:	83 c4 10             	add    $0x10,%esp
    30da:	e9 90 fd ff ff       	jmp    2e6f <driver_connection_devman+0xef>
    30df:	90                   	nop
    30e0:	83 ec 0c             	sub    $0xc,%esp
    30e3:	68 94 40 01 00       	push   $0x14094
    30e8:	e8 d3 ea 00 00       	call   11bc0 <fibril_mutex_lock@plt>
    30ed:	c7 04 24 94 40 01 00 	movl   $0x14094,(%esp)
    30f4:	e8 27 e5 00 00       	call   11620 <fibril_mutex_is_locked@plt>
    30f9:	83 c4 10             	add    $0x10,%esp
    30fc:	84 c0                	test   %al,%al
    30fe:	0f 84 52 01 00 00    	je     3256 <driver_connection_devman+0x4d6>
    3104:	a1 a8 40 01 00       	mov    0x140a8,%eax
    3109:	3d a4 40 01 00       	cmp    $0x140a4,%eax
    310e:	8d 50 d4             	lea    -0x2c(%eax),%edx
    3111:	75 12                	jne    3125 <driver_connection_devman+0x3a5>
    3113:	e9 88 00 00 00       	jmp    31a0 <driver_connection_devman+0x420>
    3118:	8b 40 04             	mov    0x4(%eax),%eax
    311b:	3d a4 40 01 00       	cmp    $0x140a4,%eax
    3120:	8d 50 d4             	lea    -0x2c(%eax),%edx
    3123:	74 7b                	je     31a0 <driver_connection_devman+0x420>
    3125:	3b 7a 04             	cmp    0x4(%edx),%edi
    3128:	75 ee                	jne    3118 <driver_connection_devman+0x398>
    312a:	8b 42 0c             	mov    0xc(%edx),%eax
    312d:	f0 ff 40 04          	lock incl 0x4(%eax)
    3131:	f0 ff 42 08          	lock incl 0x8(%edx)
    3135:	83 ec 0c             	sub    $0xc,%esp
    3138:	89 55 b4             	mov    %edx,-0x4c(%ebp)
    313b:	68 94 40 01 00       	push   $0x14094
    3140:	e8 fb e6 00 00       	call   11840 <fibril_mutex_unlock@plt>
    3145:	a1 48 43 01 00       	mov    0x14348,%eax
    314a:	83 c4 10             	add    $0x10,%esp
    314d:	8b 40 04             	mov    0x4(%eax),%eax
    3150:	8b 40 10             	mov    0x10(%eax),%eax
    3153:	85 c0                	test   %eax,%eax
    3155:	0f 84 a0 fd ff ff    	je     2efb <driver_connection_devman+0x17b>
    315b:	83 ec 0c             	sub    $0xc,%esp
    315e:	8b 55 b4             	mov    -0x4c(%ebp),%edx
    3161:	52                   	push   %edx
    3162:	ff d0                	call   *%eax
    3164:	83 c4 10             	add    $0x10,%esp
    3167:	90                   	nop
    3168:	52                   	push   %edx
    3169:	52                   	push   %edx
    316a:	50                   	push   %eax
    316b:	53                   	push   %ebx
    316c:	e8 8f e5 00 00       	call   11700 <async_answer_0@plt>
    3171:	83 c4 10             	add    $0x10,%esp
    3174:	e9 27 fc ff ff       	jmp    2da0 <driver_connection_devman+0x20>
    3179:	8d b4 26 00 00 00 00 	lea    0x0(%esi,%eiz,1),%esi
    3180:	50                   	push   %eax
    3181:	50                   	push   %eax
    3182:	6a f5                	push   $0xfffffff5
    3184:	53                   	push   %ebx
    3185:	e8 76 e5 00 00       	call   11700 <async_answer_0@plt>
    318a:	83 c4 10             	add    $0x10,%esp
    318d:	e9 0e fc ff ff       	jmp    2da0 <driver_connection_devman+0x20>
    3192:	8d b6 00 00 00 00    	lea    0x0(%esi),%esi
    3198:	8d 65 f4             	lea    -0xc(%ebp),%esp
    319b:	5b                   	pop    %ebx
    319c:	5e                   	pop    %esi
    319d:	5f                   	pop    %edi
    319e:	5d                   	pop    %ebp
    319f:	c3                   	ret    
    31a0:	83 ec 0c             	sub    $0xc,%esp
    31a3:	68 94 40 01 00       	push   $0x14094
    31a8:	e8 93 e6 00 00       	call   11840 <fibril_mutex_unlock@plt>
    31ad:	58                   	pop    %eax
    31ae:	5a                   	pop    %edx
    31af:	6a ff                	push   $0xffffffff
    31b1:	53                   	push   %ebx
    31b2:	e8 49 e5 00 00       	call   11700 <async_answer_0@plt>
    31b7:	83 c4 10             	add    $0x10,%esp
    31ba:	e9 e1 fb ff ff       	jmp    2da0 <driver_connection_devman+0x20>
    31bf:	90                   	nop
    31c0:	83 ec 0c             	sub    $0xc,%esp
    31c3:	68 ac 40 01 00       	push   $0x140ac
    31c8:	eb de                	jmp    31a8 <driver_connection_devman+0x428>
    31ca:	8d b6 00 00 00 00    	lea    0x0(%esi),%esi
    31d0:	bf f5 ff ff ff       	mov    $0xfffffff5,%edi
    31d5:	e9 8e fc ff ff       	jmp    2e68 <driver_connection_devman+0xe8>
    31da:	83 ec 0c             	sub    $0xc,%esp
    31dd:	89 55 b4             	mov    %edx,-0x4c(%ebp)
    31e0:	68 ac 40 01 00       	push   $0x140ac
    31e5:	e8 d6 e9 00 00       	call   11bc0 <fibril_mutex_lock@plt>
    31ea:	8b 55 b4             	mov    -0x4c(%ebp),%edx
    31ed:	8b 0d bc 40 01 00    	mov    0x140bc,%ecx
    31f3:	8d 42 14             	lea    0x14(%edx),%eax
    31f6:	c7 42 18 bc 40 01 00 	movl   $0x140bc,0x18(%edx)
    31fd:	89 4a 14             	mov    %ecx,0x14(%edx)
    3200:	89 41 04             	mov    %eax,0x4(%ecx)
    3203:	a3 bc 40 01 00       	mov    %eax,0x140bc
    3208:	c7 04 24 ac 40 01 00 	movl   $0x140ac,(%esp)
    320f:	e8 2c e6 00 00       	call   11840 <fibril_mutex_unlock@plt>
    3214:	5f                   	pop    %edi
    3215:	58                   	pop    %eax
    3216:	6a 00                	push   $0x0
    3218:	53                   	push   %ebx
    3219:	e8 e2 e4 00 00       	call   11700 <async_answer_0@plt>
    321e:	83 c4 10             	add    $0x10,%esp
    3221:	e9 7a fb ff ff       	jmp    2da0 <driver_connection_devman+0x20>
    3226:	83 ec 0c             	sub    $0xc,%esp
    3229:	8b 4d c0             	mov    -0x40(%ebp),%ecx
    322c:	51                   	push   %ecx
    322d:	e8 6e e9 00 00       	call   11ba0 <free@plt>
    3232:	5f                   	pop    %edi
    3233:	58                   	pop    %eax
    3234:	6a fe                	push   $0xfffffffe
    3236:	53                   	push   %ebx
    3237:	e8 c4 e4 00 00       	call   11700 <async_answer_0@plt>
    323c:	83 c4 10             	add    $0x10,%esp
    323f:	e9 5c fb ff ff       	jmp    2da0 <driver_connection_devman+0x20>
    3244:	56                   	push   %esi
    3245:	6a 5f                	push   $0x5f
    3247:	68 90 f4 00 00       	push   $0xf490
    324c:	68 34 f7 00 00       	push   $0xf734
    3251:	e8 2a e5 00 00       	call   11780 <assert_abort@plt>
    3256:	53                   	push   %ebx
    3257:	6a 6b                	push   $0x6b
    3259:	68 90 f4 00 00       	push   $0xf490
    325e:	68 e8 f5 00 00       	push   $0xf5e8
    3263:	e8 18 e5 00 00       	call   11780 <assert_abort@plt>
    3268:	90                   	nop
    3269:	8d b4 26 00 00 00 00 	lea    0x0(%esi,%eiz,1),%esi

00003270 <ddf_dev_data_alloc>:
    3270:	55                   	push   %ebp
    3271:	89 e5                	mov    %esp,%ebp
    3273:	53                   	push   %ebx
    3274:	53                   	push   %ebx
    3275:	8b 5d 08             	mov    0x8(%ebp),%ebx
    3278:	8b 43 10             	mov    0x10(%ebx),%eax
    327b:	85 c0                	test   %eax,%eax
    327d:	75 1c                	jne    329b <ddf_dev_data_alloc+0x2b>
    327f:	8b 55 0c             	mov    0xc(%ebp),%edx
    3282:	50                   	push   %eax
    3283:	50                   	push   %eax
    3284:	52                   	push   %edx
    3285:	6a 01                	push   $0x1
    3287:	e8 14 e5 00 00       	call   117a0 <calloc@plt>
    328c:	83 c4 10             	add    $0x10,%esp
    328f:	85 c0                	test   %eax,%eax
    3291:	74 03                	je     3296 <ddf_dev_data_alloc+0x26>
    3293:	89 43 10             	mov    %eax,0x10(%ebx)
    3296:	8b 5d fc             	mov    -0x4(%ebp),%ebx
    3299:	c9                   	leave  
    329a:	c3                   	ret    
    329b:	51                   	push   %ecx
    329c:	68 39 02 00 00       	push   $0x239
    32a1:	68 90 f4 00 00       	push   $0xf490
    32a6:	68 cb f4 00 00       	push   $0xf4cb
    32ab:	e8 d0 e4 00 00       	call   11780 <assert_abort@plt>

000032b0 <ddf_dev_data_get>:
    32b0:	55                   	push   %ebp
    32b1:	89 e5                	mov    %esp,%ebp
    32b3:	8b 45 08             	mov    0x8(%ebp),%eax
    32b6:	5d                   	pop    %ebp
    32b7:	8b 40 10             	mov    0x10(%eax),%eax
    32ba:	c3                   	ret    
    32bb:	90                   	nop
    32bc:	8d 74 26 00          	lea    0x0(%esi,%eiz,1),%esi

000032c0 <ddf_dev_get_handle>:
    32c0:	55                   	push   %ebp
    32c1:	89 e5                	mov    %esp,%ebp
    32c3:	8b 45 08             	mov    0x8(%ebp),%eax
    32c6:	5d                   	pop    %ebp
    32c7:	8b 00                	mov    (%eax),%eax
    32c9:	c3                   	ret    
    32ca:	8d b6 00 00 00 00    	lea    0x0(%esi),%esi

000032d0 <ddf_dev_get_name>:
    32d0:	55                   	push   %ebp
    32d1:	89 e5                	mov    %esp,%ebp
    32d3:	8b 45 08             	mov    0x8(%ebp),%eax
    32d6:	5d                   	pop    %ebp
    32d7:	8b 40 0c             	mov    0xc(%eax),%eax
    32da:	c3                   	ret    
    32db:	90                   	nop
    32dc:	8d 74 26 00          	lea    0x0(%esi,%eiz,1),%esi

000032e0 <ddf_dev_parent_sess_create>:
    32e0:	55                   	push   %ebp
    32e1:	89 e5                	mov    %esp,%ebp
    32e3:	53                   	push   %ebx
    32e4:	53                   	push   %ebx
    32e5:	8b 5d 08             	mov    0x8(%ebp),%ebx
    32e8:	8b 43 08             	mov    0x8(%ebx),%eax
    32eb:	85 c0                	test   %eax,%eax
    32ed:	75 14                	jne    3303 <ddf_dev_parent_sess_create+0x23>
    32ef:	50                   	push   %eax
    32f0:	50                   	push   %eax
    32f1:	6a 01                	push   $0x1
    32f3:	8b 13                	mov    (%ebx),%edx
    32f5:	52                   	push   %edx
    32f6:	e8 c5 e2 00 00       	call   115c0 <devman_parent_device_connect@plt>
    32fb:	89 43 08             	mov    %eax,0x8(%ebx)
    32fe:	8b 5d fc             	mov    -0x4(%ebp),%ebx
    3301:	c9                   	leave  
    3302:	c3                   	ret    
    3303:	51                   	push   %ecx
    3304:	68 64 02 00 00       	push   $0x264
    3309:	68 90 f4 00 00       	push   $0xf490
    330e:	68 e4 f4 00 00       	push   $0xf4e4
    3313:	e8 68 e4 00 00       	call   11780 <assert_abort@plt>
    3318:	90                   	nop
    3319:	8d b4 26 00 00 00 00 	lea    0x0(%esi,%eiz,1),%esi

00003320 <ddf_dev_parent_sess_get>:
    3320:	55                   	push   %ebp
    3321:	89 e5                	mov    %esp,%ebp
    3323:	8b 45 08             	mov    0x8(%ebp),%eax
    3326:	5d                   	pop    %ebp
    3327:	8b 40 08             	mov    0x8(%eax),%eax
    332a:	c3                   	ret    
    332b:	90                   	nop
    332c:	8d 74 26 00          	lea    0x0(%esi,%eiz,1),%esi

00003330 <ddf_fun_set_name>:
    3330:	55                   	push   %ebp
    3331:	89 e5                	mov    %esp,%ebp
    3333:	53                   	push   %ebx
    3334:	51                   	push   %ecx
    3335:	8b 5d 08             	mov    0x8(%ebp),%ebx
    3338:	8b 43 14             	mov    0x14(%ebx),%eax
    333b:	85 c0                	test   %eax,%eax
    333d:	75 23                	jne    3362 <ddf_fun_set_name+0x32>
    333f:	83 ec 0c             	sub    $0xc,%esp
    3342:	8b 45 0c             	mov    0xc(%ebp),%eax
    3345:	50                   	push   %eax
    3346:	e8 15 e5 00 00       	call   11860 <str_dup@plt>
    334b:	83 c4 10             	add    $0x10,%esp
    334e:	89 43 14             	mov    %eax,0x14(%ebx)
    3351:	85 c0                	test   %eax,%eax
    3353:	8b 5d fc             	mov    -0x4(%ebp),%ebx
    3356:	0f 94 c0             	sete   %al
    3359:	25 ff 00 00 00       	and    $0xff,%eax
    335e:	c9                   	leave  
    335f:	f7 d8                	neg    %eax
    3361:	c3                   	ret    
    3362:	52                   	push   %edx
    3363:	68 7d 02 00 00       	push   $0x27d
    3368:	68 90 f4 00 00       	push   $0xf490
    336d:	68 fd f4 00 00       	push   $0xf4fd
    3372:	e8 09 e4 00 00       	call   11780 <assert_abort@plt>
    3377:	89 f6                	mov    %esi,%esi
    3379:	8d bc 27 00 00 00 00 	lea    0x0(%edi,%eiz,1),%edi

00003380 <ddf_fun_get_dev>:
    3380:	55                   	push   %ebp
    3381:	89 e5                	mov    %esp,%ebp
    3383:	8b 45 08             	mov    0x8(%ebp),%eax
    3386:	5d                   	pop    %ebp
    3387:	8b 40 0c             	mov    0xc(%eax),%eax
    338a:	c3                   	ret    
    338b:	90                   	nop
    338c:	8d 74 26 00          	lea    0x0(%esi,%eiz,1),%esi

00003390 <ddf_fun_get_handle>:
    3390:	55                   	push   %ebp
    3391:	89 e5                	mov    %esp,%ebp
    3393:	8b 45 08             	mov    0x8(%ebp),%eax
    3396:	5d                   	pop    %ebp
    3397:	8b 40 04             	mov    0x4(%eax),%eax
    339a:	c3                   	ret    
    339b:	90                   	nop
    339c:	8d 74 26 00          	lea    0x0(%esi,%eiz,1),%esi

000033a0 <ddf_fun_create>:
    33a0:	55                   	push   %ebp
    33a1:	89 e5                	mov    %esp,%ebp
    33a3:	57                   	push   %edi
    33a4:	56                   	push   %esi
    33a5:	53                   	push   %ebx
    33a6:	83 ec 14             	sub    $0x14,%esp
    33a9:	8b 75 08             	mov    0x8(%ebp),%esi
    33ac:	6a 34                	push   $0x34
    33ae:	6a 01                	push   $0x1
    33b0:	e8 eb e3 00 00       	call   117a0 <calloc@plt>
    33b5:	83 c4 10             	add    $0x10,%esp
    33b8:	89 c3                	mov    %eax,%ebx
    33ba:	85 c0                	test   %eax,%eax
    33bc:	74 48                	je     3406 <ddf_fun_create+0x66>
    33be:	8d 78 18             	lea    0x18(%eax),%edi
    33c1:	c7 40 2c 00 00 00 00 	movl   $0x0,0x2c(%eax)
    33c8:	89 78 18             	mov    %edi,0x18(%eax)
    33cb:	89 78 1c             	mov    %edi,0x1c(%eax)
    33ce:	c7 40 30 00 00 00 00 	movl   $0x0,0x30(%eax)
    33d5:	89 70 0c             	mov    %esi,0xc(%eax)
    33d8:	f0 ff 46 04          	lock incl 0x4(%esi)
    33dc:	f0 ff 40 08          	lock incl 0x8(%eax)
    33e0:	c6 00 00             	movb   $0x0,(%eax)
    33e3:	8b 55 10             	mov    0x10(%ebp),%edx
    33e6:	8b 45 0c             	mov    0xc(%ebp),%eax
    33e9:	85 d2                	test   %edx,%edx
    33eb:	89 43 10             	mov    %eax,0x10(%ebx)
    33ee:	74 16                	je     3406 <ddf_fun_create+0x66>
    33f0:	83 ec 0c             	sub    $0xc,%esp
    33f3:	8b 45 10             	mov    0x10(%ebp),%eax
    33f6:	50                   	push   %eax
    33f7:	e8 64 e4 00 00       	call   11860 <str_dup@plt>
    33fc:	83 c4 10             	add    $0x10,%esp
    33ff:	89 43 14             	mov    %eax,0x14(%ebx)
    3402:	85 c0                	test   %eax,%eax
    3404:	74 0a                	je     3410 <ddf_fun_create+0x70>
    3406:	8d 65 f4             	lea    -0xc(%ebp),%esp
    3409:	89 d8                	mov    %ebx,%eax
    340b:	5b                   	pop    %ebx
    340c:	5e                   	pop    %esi
    340d:	5f                   	pop    %edi
    340e:	5d                   	pop    %ebp
    340f:	c3                   	ret    
    3410:	8b 73 1c             	mov    0x1c(%ebx),%esi
    3413:	39 f7                	cmp    %esi,%edi
    3415:	0f 84 85 00 00 00    	je     34a0 <ddf_fun_create+0x100>
    341b:	90                   	nop
    341c:	8d 74 26 00          	lea    0x0(%esi,%eiz,1),%esi
    3420:	8b 0e                	mov    (%esi),%ecx
    3422:	85 c9                	test   %ecx,%ecx
    3424:	74 0e                	je     3434 <ddf_fun_create+0x94>
    3426:	8b 46 04             	mov    0x4(%esi),%eax
    3429:	85 c0                	test   %eax,%eax
    342b:	74 07                	je     3434 <ddf_fun_create+0x94>
    342d:	89 08                	mov    %ecx,(%eax)
    342f:	8b 0e                	mov    (%esi),%ecx
    3431:	89 41 04             	mov    %eax,0x4(%ecx)
    3434:	8b 46 08             	mov    0x8(%esi),%eax
    3437:	c7 06 00 00 00 00    	movl   $0x0,(%esi)
    343d:	c7 46 04 00 00 00 00 	movl   $0x0,0x4(%esi)
    3444:	85 c0                	test   %eax,%eax
    3446:	74 0c                	je     3454 <ddf_fun_create+0xb4>
    3448:	83 ec 0c             	sub    $0xc,%esp
    344b:	50                   	push   %eax
    344c:	e8 4f e7 00 00       	call   11ba0 <free@plt>
    3451:	83 c4 10             	add    $0x10,%esp
    3454:	83 ec 0c             	sub    $0xc,%esp
    3457:	56                   	push   %esi
    3458:	e8 43 e7 00 00       	call   11ba0 <free@plt>
    345d:	8b 73 1c             	mov    0x1c(%ebx),%esi
    3460:	83 c4 10             	add    $0x10,%esp
    3463:	39 f7                	cmp    %esi,%edi
    3465:	75 b9                	jne    3420 <ddf_fun_create+0x80>
    3467:	8b 43 20             	mov    0x20(%ebx),%eax
    346a:	85 c0                	test   %eax,%eax
    346c:	74 0c                	je     347a <ddf_fun_create+0xda>
    346e:	83 ec 0c             	sub    $0xc,%esp
    3471:	50                   	push   %eax
    3472:	e8 29 e7 00 00       	call   11ba0 <free@plt>
    3477:	83 c4 10             	add    $0x10,%esp
    347a:	8b 43 14             	mov    0x14(%ebx),%eax
    347d:	85 c0                	test   %eax,%eax
    347f:	74 0c                	je     348d <ddf_fun_create+0xed>
    3481:	83 ec 0c             	sub    $0xc,%esp
    3484:	50                   	push   %eax
    3485:	e8 16 e7 00 00       	call   11ba0 <free@plt>
    348a:	83 c4 10             	add    $0x10,%esp
    348d:	83 ec 0c             	sub    $0xc,%esp
    3490:	53                   	push   %ebx
    3491:	31 db                	xor    %ebx,%ebx
    3493:	e8 08 e7 00 00       	call   11ba0 <free@plt>
    3498:	83 c4 10             	add    $0x10,%esp
    349b:	e9 66 ff ff ff       	jmp    3406 <ddf_fun_create+0x66>
    34a0:	8b 43 20             	mov    0x20(%ebx),%eax
    34a3:	85 c0                	test   %eax,%eax
    34a5:	75 c7                	jne    346e <ddf_fun_create+0xce>
    34a7:	eb e4                	jmp    348d <ddf_fun_create+0xed>
    34a9:	8d b4 26 00 00 00 00 	lea    0x0(%esi,%eiz,1),%esi

000034b0 <ddf_fun_data_alloc>:
    34b0:	55                   	push   %ebp
    34b1:	89 e5                	mov    %esp,%ebp
    34b3:	53                   	push   %ebx
    34b4:	50                   	push   %eax
    34b5:	8b 5d 08             	mov    0x8(%ebp),%ebx
    34b8:	80 3b 00             	cmpb   $0x0,(%ebx)
    34bb:	75 23                	jne    34e0 <ddf_fun_data_alloc+0x30>
    34bd:	8b 43 20             	mov    0x20(%ebx),%eax
    34c0:	85 c0                	test   %eax,%eax
    34c2:	75 31                	jne    34f5 <ddf_fun_data_alloc+0x45>
    34c4:	8b 55 0c             	mov    0xc(%ebp),%edx
    34c7:	50                   	push   %eax
    34c8:	50                   	push   %eax
    34c9:	52                   	push   %edx
    34ca:	6a 01                	push   $0x1
    34cc:	e8 cf e2 00 00       	call   117a0 <calloc@plt>
    34d1:	83 c4 10             	add    $0x10,%esp
    34d4:	85 c0                	test   %eax,%eax
    34d6:	74 03                	je     34db <ddf_fun_data_alloc+0x2b>
    34d8:	89 43 20             	mov    %eax,0x20(%ebx)
    34db:	8b 5d fc             	mov    -0x4(%ebp),%ebx
    34de:	c9                   	leave  
    34df:	c3                   	ret    
    34e0:	50                   	push   %eax
    34e1:	68 c9 02 00 00       	push   $0x2c9
    34e6:	68 90 f4 00 00       	push   $0xf490
    34eb:	68 0f f5 00 00       	push   $0xf50f
    34f0:	e8 8b e2 00 00       	call   11780 <assert_abort@plt>
    34f5:	51                   	push   %ecx
    34f6:	68 ca 02 00 00       	push   $0x2ca
    34fb:	68 90 f4 00 00       	push   $0xf490
    3500:	68 23 f5 00 00       	push   $0xf523
    3505:	e8 76 e2 00 00       	call   11780 <assert_abort@plt>
    350a:	8d b6 00 00 00 00    	lea    0x0(%esi),%esi

00003510 <ddf_fun_data_get>:
    3510:	55                   	push   %ebp
    3511:	89 e5                	mov    %esp,%ebp
    3513:	8b 45 08             	mov    0x8(%ebp),%eax
    3516:	5d                   	pop    %ebp
    3517:	8b 40 20             	mov    0x20(%eax),%eax
    351a:	c3                   	ret    
    351b:	90                   	nop
    351c:	8d 74 26 00          	lea    0x0(%esi,%eiz,1),%esi

00003520 <ddf_fun_get_name>:
    3520:	55                   	push   %ebp
    3521:	89 e5                	mov    %esp,%ebp
    3523:	8b 45 08             	mov    0x8(%ebp),%eax
    3526:	5d                   	pop    %ebp
    3527:	8b 40 14             	mov    0x14(%eax),%eax
    352a:	c3                   	ret    
    352b:	90                   	nop
    352c:	8d 74 26 00          	lea    0x0(%esi,%eiz,1),%esi

00003530 <ddf_fun_destroy>:
    3530:	55                   	push   %ebp
    3531:	89 e5                	mov    %esp,%ebp
    3533:	57                   	push   %edi
    3534:	56                   	push   %esi
    3535:	53                   	push   %ebx
    3536:	83 ec 1c             	sub    $0x1c,%esp
    3539:	8b 7d 08             	mov    0x8(%ebp),%edi
    353c:	80 3f 00             	cmpb   $0x0,(%edi)
    353f:	0f 85 fa 00 00 00    	jne    363f <ddf_fun_destroy+0x10f>
    3545:	8b 77 0c             	mov    0xc(%edi),%esi
    3548:	83 ca ff             	or     $0xffffffff,%edx
    354b:	f0 0f c1 57 08       	lock xadd %edx,0x8(%edi)
    3550:	4a                   	dec    %edx
    3551:	74 5d                	je     35b0 <ddf_fun_destroy+0x80>
    3553:	83 c8 ff             	or     $0xffffffff,%eax
    3556:	f0 0f c1 46 04       	lock xadd %eax,0x4(%esi)
    355b:	48                   	dec    %eax
    355c:	74 0a                	je     3568 <ddf_fun_destroy+0x38>
    355e:	8d 65 f4             	lea    -0xc(%ebp),%esp
    3561:	5b                   	pop    %ebx
    3562:	5e                   	pop    %esi
    3563:	5f                   	pop    %edi
    3564:	5d                   	pop    %ebp
    3565:	c3                   	ret    
    3566:	66 90                	xchg   %ax,%ax
    3568:	8b 46 08             	mov    0x8(%esi),%eax
    356b:	85 c0                	test   %eax,%eax
    356d:	74 0c                	je     357b <ddf_fun_destroy+0x4b>
    356f:	83 ec 0c             	sub    $0xc,%esp
    3572:	50                   	push   %eax
    3573:	e8 08 e0 00 00       	call   11580 <async_hangup@plt>
    3578:	83 c4 10             	add    $0x10,%esp
    357b:	8b 46 10             	mov    0x10(%esi),%eax
    357e:	85 c0                	test   %eax,%eax
    3580:	74 0c                	je     358e <ddf_fun_destroy+0x5e>
    3582:	83 ec 0c             	sub    $0xc,%esp
    3585:	50                   	push   %eax
    3586:	e8 15 e6 00 00       	call   11ba0 <free@plt>
    358b:	83 c4 10             	add    $0x10,%esp
    358e:	8b 46 0c             	mov    0xc(%esi),%eax
    3591:	85 c0                	test   %eax,%eax
    3593:	74 0c                	je     35a1 <ddf_fun_destroy+0x71>
    3595:	83 ec 0c             	sub    $0xc,%esp
    3598:	50                   	push   %eax
    3599:	e8 02 e6 00 00       	call   11ba0 <free@plt>
    359e:	83 c4 10             	add    $0x10,%esp
    35a1:	89 75 08             	mov    %esi,0x8(%ebp)
    35a4:	8d 65 f4             	lea    -0xc(%ebp),%esp
    35a7:	5b                   	pop    %ebx
    35a8:	5e                   	pop    %esi
    35a9:	5f                   	pop    %edi
    35aa:	5d                   	pop    %ebp
    35ab:	e9 f0 e5 00 00       	jmp    11ba0 <free@plt>
    35b0:	8d 47 18             	lea    0x18(%edi),%eax
    35b3:	8b 5f 1c             	mov    0x1c(%edi),%ebx
    35b6:	89 45 e4             	mov    %eax,-0x1c(%ebp)
    35b9:	39 d8                	cmp    %ebx,%eax
    35bb:	74 4b                	je     3608 <ddf_fun_destroy+0xd8>
    35bd:	8d 76 00             	lea    0x0(%esi),%esi
    35c0:	8b 0b                	mov    (%ebx),%ecx
    35c2:	85 c9                	test   %ecx,%ecx
    35c4:	74 0e                	je     35d4 <ddf_fun_destroy+0xa4>
    35c6:	8b 53 04             	mov    0x4(%ebx),%edx
    35c9:	85 d2                	test   %edx,%edx
    35cb:	74 07                	je     35d4 <ddf_fun_destroy+0xa4>
    35cd:	89 0a                	mov    %ecx,(%edx)
    35cf:	8b 0b                	mov    (%ebx),%ecx
    35d1:	89 51 04             	mov    %edx,0x4(%ecx)
    35d4:	8b 53 08             	mov    0x8(%ebx),%edx
    35d7:	c7 03 00 00 00 00    	movl   $0x0,(%ebx)
    35dd:	c7 43 04 00 00 00 00 	movl   $0x0,0x4(%ebx)
    35e4:	85 d2                	test   %edx,%edx
    35e6:	74 0c                	je     35f4 <ddf_fun_destroy+0xc4>
    35e8:	83 ec 0c             	sub    $0xc,%esp
    35eb:	52                   	push   %edx
    35ec:	e8 af e5 00 00       	call   11ba0 <free@plt>
    35f1:	83 c4 10             	add    $0x10,%esp
    35f4:	83 ec 0c             	sub    $0xc,%esp
    35f7:	53                   	push   %ebx
    35f8:	e8 a3 e5 00 00       	call   11ba0 <free@plt>
    35fd:	8b 5f 1c             	mov    0x1c(%edi),%ebx
    3600:	83 c4 10             	add    $0x10,%esp
    3603:	3b 5d e4             	cmp    -0x1c(%ebp),%ebx
    3606:	75 b8                	jne    35c0 <ddf_fun_destroy+0x90>
    3608:	8b 57 20             	mov    0x20(%edi),%edx
    360b:	85 d2                	test   %edx,%edx
    360d:	74 0c                	je     361b <ddf_fun_destroy+0xeb>
    360f:	83 ec 0c             	sub    $0xc,%esp
    3612:	52                   	push   %edx
    3613:	e8 88 e5 00 00       	call   11ba0 <free@plt>
    3618:	83 c4 10             	add    $0x10,%esp
    361b:	8b 57 14             	mov    0x14(%edi),%edx
    361e:	85 d2                	test   %edx,%edx
    3620:	74 0c                	je     362e <ddf_fun_destroy+0xfe>
    3622:	83 ec 0c             	sub    $0xc,%esp
    3625:	52                   	push   %edx
    3626:	e8 75 e5 00 00       	call   11ba0 <free@plt>
    362b:	83 c4 10             	add    $0x10,%esp
    362e:	83 ec 0c             	sub    $0xc,%esp
    3631:	57                   	push   %edi
    3632:	e8 69 e5 00 00       	call   11ba0 <free@plt>
    3637:	83 c4 10             	add    $0x10,%esp
    363a:	e9 14 ff ff ff       	jmp    3553 <ddf_fun_destroy+0x23>
    363f:	50                   	push   %eax
    3640:	68 ee 02 00 00       	push   $0x2ee
    3645:	68 90 f4 00 00       	push   $0xf490
    364a:	68 0f f5 00 00       	push   $0xf50f
    364f:	e8 2c e1 00 00       	call   11780 <assert_abort@plt>
    3654:	8d b6 00 00 00 00    	lea    0x0(%esi),%esi
    365a:	8d bf 00 00 00 00    	lea    0x0(%edi),%edi

00003660 <ddf_fun_bind>:
    3660:	55                   	push   %ebp
    3661:	89 e5                	mov    %esp,%ebp
    3663:	53                   	push   %ebx
    3664:	83 ec 14             	sub    $0x14,%esp
    3667:	8b 5d 08             	mov    0x8(%ebp),%ebx
    366a:	80 3b 00             	cmpb   $0x0,(%ebx)
    366d:	0f 85 d2 00 00 00    	jne    3745 <ddf_fun_bind+0xe5>
    3673:	8b 43 14             	mov    0x14(%ebx),%eax
    3676:	85 c0                	test   %eax,%eax
    3678:	0f 84 f1 00 00 00    	je     376f <ddf_fun_bind+0x10f>
    367e:	8b 43 0c             	mov    0xc(%ebx),%eax
    3681:	85 c0                	test   %eax,%eax
    3683:	0f 84 d1 00 00 00    	je     375a <ddf_fun_bind+0xfa>
    3689:	83 ec 0c             	sub    $0xc,%esp
    368c:	68 94 40 01 00       	push   $0x14094
    3691:	e8 2a e5 00 00       	call   11bc0 <fibril_mutex_lock@plt>
    3696:	8b 15 a4 40 01 00    	mov    0x140a4,%edx
    369c:	8d 43 2c             	lea    0x2c(%ebx),%eax
    369f:	89 53 2c             	mov    %edx,0x2c(%ebx)
    36a2:	c7 43 30 a4 40 01 00 	movl   $0x140a4,0x30(%ebx)
    36a9:	89 42 04             	mov    %eax,0x4(%edx)
    36ac:	a3 a4 40 01 00       	mov    %eax,0x140a4
    36b1:	c7 04 24 94 40 01 00 	movl   $0x14094,(%esp)
    36b8:	e8 83 e1 00 00       	call   11840 <fibril_mutex_unlock@plt>
    36bd:	8d 43 04             	lea    0x4(%ebx),%eax
    36c0:	8b 53 10             	mov    0x10(%ebx),%edx
    36c3:	89 04 24             	mov    %eax,(%esp)
    36c6:	8b 43 0c             	mov    0xc(%ebx),%eax
    36c9:	8b 4b 14             	mov    0x14(%ebx),%ecx
    36cc:	8b 00                	mov    (%eax),%eax
    36ce:	50                   	push   %eax
    36cf:	8d 43 18             	lea    0x18(%ebx),%eax
    36d2:	50                   	push   %eax
    36d3:	52                   	push   %edx
    36d4:	51                   	push   %ecx
    36d5:	e8 76 e0 00 00       	call   11750 <devman_add_function@plt>
    36da:	83 c4 20             	add    $0x20,%esp
    36dd:	85 c0                	test   %eax,%eax
    36df:	75 0f                	jne    36f0 <ddf_fun_bind+0x90>
    36e1:	c6 03 01             	movb   $0x1,(%ebx)
    36e4:	8b 5d fc             	mov    -0x4(%ebp),%ebx
    36e7:	c9                   	leave  
    36e8:	c3                   	ret    
    36e9:	8d b4 26 00 00 00 00 	lea    0x0(%esi,%eiz,1),%esi
    36f0:	83 ec 0c             	sub    $0xc,%esp
    36f3:	89 45 f4             	mov    %eax,-0xc(%ebp)
    36f6:	68 94 40 01 00       	push   $0x14094
    36fb:	e8 c0 e4 00 00       	call   11bc0 <fibril_mutex_lock@plt>
    3700:	8b 4b 2c             	mov    0x2c(%ebx),%ecx
    3703:	83 c4 10             	add    $0x10,%esp
    3706:	8b 45 f4             	mov    -0xc(%ebp),%eax
    3709:	85 c9                	test   %ecx,%ecx
    370b:	74 0f                	je     371c <ddf_fun_bind+0xbc>
    370d:	8b 53 30             	mov    0x30(%ebx),%edx
    3710:	85 d2                	test   %edx,%edx
    3712:	74 08                	je     371c <ddf_fun_bind+0xbc>
    3714:	89 0a                	mov    %ecx,(%edx)
    3716:	8b 4b 2c             	mov    0x2c(%ebx),%ecx
    3719:	89 51 04             	mov    %edx,0x4(%ecx)
    371c:	83 ec 0c             	sub    $0xc,%esp
    371f:	c7 43 2c 00 00 00 00 	movl   $0x0,0x2c(%ebx)
    3726:	c7 43 30 00 00 00 00 	movl   $0x0,0x30(%ebx)
    372d:	89 45 f4             	mov    %eax,-0xc(%ebp)
    3730:	68 94 40 01 00       	push   $0x14094
    3735:	e8 06 e1 00 00       	call   11840 <fibril_mutex_unlock@plt>
    373a:	8b 45 f4             	mov    -0xc(%ebp),%eax
    373d:	83 c4 10             	add    $0x10,%esp
    3740:	8b 5d fc             	mov    -0x4(%ebp),%ebx
    3743:	c9                   	leave  
    3744:	c3                   	ret    
    3745:	50                   	push   %eax
    3746:	68 12 03 00 00       	push   $0x312
    374b:	68 90 f4 00 00       	push   $0xf490
    3750:	68 0f f5 00 00       	push   $0xf50f
    3755:	e8 26 e0 00 00       	call   11780 <assert_abort@plt>
    375a:	53                   	push   %ebx
    375b:	68 14 03 00 00       	push   $0x314
    3760:	68 90 f4 00 00       	push   $0xf490
    3765:	68 4e f5 00 00       	push   $0xf54e
    376a:	e8 11 e0 00 00       	call   11780 <assert_abort@plt>
    376f:	50                   	push   %eax
    3770:	68 13 03 00 00       	push   $0x313
    3775:	68 90 f4 00 00       	push   $0xf490
    377a:	68 3c f5 00 00       	push   $0xf53c
    377f:	e8 fc df 00 00       	call   11780 <assert_abort@plt>
    3784:	8d b6 00 00 00 00    	lea    0x0(%esi),%esi
    378a:	8d bf 00 00 00 00    	lea    0x0(%edi),%edi

00003790 <ddf_fun_unbind>:
    3790:	55                   	push   %ebp
    3791:	89 e5                	mov    %esp,%ebp
    3793:	53                   	push   %ebx
    3794:	83 ec 14             	sub    $0x14,%esp
    3797:	8b 5d 08             	mov    0x8(%ebp),%ebx
    379a:	80 3b 00             	cmpb   $0x0,(%ebx)
    379d:	74 71                	je     3810 <ddf_fun_unbind+0x80>
    379f:	83 ec 0c             	sub    $0xc,%esp
    37a2:	8b 43 04             	mov    0x4(%ebx),%eax
    37a5:	50                   	push   %eax
    37a6:	e8 25 e0 00 00       	call   117d0 <devman_remove_function@plt>
    37ab:	83 c4 10             	add    $0x10,%esp
    37ae:	85 c0                	test   %eax,%eax
    37b0:	74 06                	je     37b8 <ddf_fun_unbind+0x28>
    37b2:	8b 5d fc             	mov    -0x4(%ebp),%ebx
    37b5:	c9                   	leave  
    37b6:	c3                   	ret    
    37b7:	90                   	nop
    37b8:	83 ec 0c             	sub    $0xc,%esp
    37bb:	89 45 f4             	mov    %eax,-0xc(%ebp)
    37be:	68 94 40 01 00       	push   $0x14094
    37c3:	e8 f8 e3 00 00       	call   11bc0 <fibril_mutex_lock@plt>
    37c8:	8b 4b 2c             	mov    0x2c(%ebx),%ecx
    37cb:	83 c4 10             	add    $0x10,%esp
    37ce:	8b 45 f4             	mov    -0xc(%ebp),%eax
    37d1:	85 c9                	test   %ecx,%ecx
    37d3:	74 0f                	je     37e4 <ddf_fun_unbind+0x54>
    37d5:	8b 53 30             	mov    0x30(%ebx),%edx
    37d8:	85 d2                	test   %edx,%edx
    37da:	74 08                	je     37e4 <ddf_fun_unbind+0x54>
    37dc:	89 0a                	mov    %ecx,(%edx)
    37de:	8b 4b 2c             	mov    0x2c(%ebx),%ecx
    37e1:	89 51 04             	mov    %edx,0x4(%ecx)
    37e4:	83 ec 0c             	sub    $0xc,%esp
    37e7:	c7 43 2c 00 00 00 00 	movl   $0x0,0x2c(%ebx)
    37ee:	c7 43 30 00 00 00 00 	movl   $0x0,0x30(%ebx)
    37f5:	89 45 f4             	mov    %eax,-0xc(%ebp)
    37f8:	68 94 40 01 00       	push   $0x14094
    37fd:	e8 3e e0 00 00       	call   11840 <fibril_mutex_unlock@plt>
    3802:	c6 03 00             	movb   $0x0,(%ebx)
    3805:	8b 45 f4             	mov    -0xc(%ebp),%eax
    3808:	83 c4 10             	add    $0x10,%esp
    380b:	8b 5d fc             	mov    -0x4(%ebp),%ebx
    380e:	c9                   	leave  
    380f:	c3                   	ret    
    3810:	52                   	push   %edx
    3811:	68 2e 03 00 00       	push   $0x32e
    3816:	68 90 f4 00 00       	push   $0xf490
    381b:	68 5f f5 00 00       	push   $0xf55f
    3820:	e8 5b df 00 00       	call   11780 <assert_abort@plt>
    3825:	8d 74 26 00          	lea    0x0(%esi,%eiz,1),%esi
    3829:	8d bc 27 00 00 00 00 	lea    0x0(%edi,%eiz,1),%edi

00003830 <ddf_fun_online>:
    3830:	55                   	push   %ebp
    3831:	89 e5                	mov    %esp,%ebp
    3833:	83 ec 08             	sub    $0x8,%esp
    3836:	8b 45 08             	mov    0x8(%ebp),%eax
    3839:	80 38 00             	cmpb   $0x0,(%eax)
    383c:	74 0c                	je     384a <ddf_fun_online+0x1a>
    383e:	8b 40 04             	mov    0x4(%eax),%eax
    3841:	89 45 08             	mov    %eax,0x8(%ebp)
    3844:	c9                   	leave  
    3845:	e9 f6 dd 00 00       	jmp    11640 <devman_drv_fun_online@plt>
    384a:	50                   	push   %eax
    384b:	68 43 03 00 00       	push   $0x343
    3850:	68 90 f4 00 00       	push   $0xf490
    3855:	68 5f f5 00 00       	push   $0xf55f
    385a:	e8 21 df 00 00       	call   11780 <assert_abort@plt>
    385f:	90                   	nop

00003860 <ddf_fun_offline>:
    3860:	55                   	push   %ebp
    3861:	89 e5                	mov    %esp,%ebp
    3863:	83 ec 08             	sub    $0x8,%esp
    3866:	8b 45 08             	mov    0x8(%ebp),%eax
    3869:	80 38 00             	cmpb   $0x0,(%eax)
    386c:	74 0c                	je     387a <ddf_fun_offline+0x1a>
    386e:	8b 40 04             	mov    0x4(%eax),%eax
    3871:	89 45 08             	mov    %eax,0x8(%ebp)
    3874:	c9                   	leave  
    3875:	e9 46 e0 00 00       	jmp    118c0 <devman_drv_fun_offline@plt>
    387a:	50                   	push   %eax
    387b:	68 55 03 00 00       	push   $0x355
    3880:	68 90 f4 00 00       	push   $0xf490
    3885:	68 5f f5 00 00       	push   $0xf55f
    388a:	e8 f1 de 00 00       	call   11780 <assert_abort@plt>
    388f:	90                   	nop

00003890 <ddf_fun_add_match_id>:
    3890:	55                   	push   %ebp
    3891:	89 e5                	mov    %esp,%ebp
    3893:	57                   	push   %edi
    3894:	56                   	push   %esi
    3895:	53                   	push   %ebx
    3896:	83 ec 0c             	sub    $0xc,%esp
    3899:	8b 5d 08             	mov    0x8(%ebp),%ebx
    389c:	8b 75 10             	mov    0x10(%ebp),%esi
    389f:	80 3b 00             	cmpb   $0x0,(%ebx)
    38a2:	0f 85 89 00 00 00    	jne    3931 <ddf_fun_add_match_id+0xa1>
    38a8:	83 7b 10 01          	cmpl   $0x1,0x10(%ebx)
    38ac:	75 6e                	jne    391c <ddf_fun_add_match_id+0x8c>
    38ae:	83 ec 0c             	sub    $0xc,%esp
    38b1:	6a 10                	push   $0x10
    38b3:	e8 f8 dd 00 00       	call   116b0 <malloc@plt>
    38b8:	83 c4 0c             	add    $0xc,%esp
    38bb:	89 c7                	mov    %eax,%edi
    38bd:	6a 10                	push   $0x10
    38bf:	6a 00                	push   $0x0
    38c1:	50                   	push   %eax
    38c2:	e8 89 e0 00 00       	call   11950 <memset@plt>
    38c7:	8b 55 0c             	mov    0xc(%ebp),%edx
    38ca:	58                   	pop    %eax
    38cb:	52                   	push   %edx
    38cc:	e8 8f df 00 00       	call   11860 <str_dup@plt>
    38d1:	8d 53 18             	lea    0x18(%ebx),%edx
    38d4:	89 47 08             	mov    %eax,0x8(%edi)
    38d7:	8b 43 1c             	mov    0x1c(%ebx),%eax
    38da:	83 c4 10             	add    $0x10,%esp
    38dd:	89 77 0c             	mov    %esi,0xc(%edi)
    38e0:	39 c2                	cmp    %eax,%edx
    38e2:	74 18                	je     38fc <ddf_fun_add_match_id+0x6c>
    38e4:	39 70 0c             	cmp    %esi,0xc(%eax)
    38e7:	73 0c                	jae    38f5 <ddf_fun_add_match_id+0x65>
    38e9:	eb 2d                	jmp    3918 <ddf_fun_add_match_id+0x88>
    38eb:	90                   	nop
    38ec:	8d 74 26 00          	lea    0x0(%esi,%eiz,1),%esi
    38f0:	3b 70 0c             	cmp    0xc(%eax),%esi
    38f3:	77 23                	ja     3918 <ddf_fun_add_match_id+0x88>
    38f5:	8b 40 04             	mov    0x4(%eax),%eax
    38f8:	39 c2                	cmp    %eax,%edx
    38fa:	75 f4                	jne    38f0 <ddf_fun_add_match_id+0x60>
    38fc:	8b 02                	mov    (%edx),%eax
    38fe:	89 57 04             	mov    %edx,0x4(%edi)
    3901:	89 07                	mov    %eax,(%edi)
    3903:	8b 02                	mov    (%edx),%eax
    3905:	89 78 04             	mov    %edi,0x4(%eax)
    3908:	89 3a                	mov    %edi,(%edx)
    390a:	8d 65 f4             	lea    -0xc(%ebp),%esp
    390d:	31 c0                	xor    %eax,%eax
    390f:	5b                   	pop    %ebx
    3910:	5e                   	pop    %esi
    3911:	5f                   	pop    %edi
    3912:	5d                   	pop    %ebp
    3913:	c3                   	ret    
    3914:	8d 74 26 00          	lea    0x0(%esi,%eiz,1),%esi
    3918:	89 c2                	mov    %eax,%edx
    391a:	eb e0                	jmp    38fc <ddf_fun_add_match_id+0x6c>
    391c:	51                   	push   %ecx
    391d:	68 6f 03 00 00       	push   $0x36f
    3922:	68 90 f4 00 00       	push   $0xf490
    3927:	68 72 f5 00 00       	push   $0xf572
    392c:	e8 4f de 00 00       	call   11780 <assert_abort@plt>
    3931:	53                   	push   %ebx
    3932:	68 6e 03 00 00       	push   $0x36e
    3937:	68 90 f4 00 00       	push   $0xf490
    393c:	68 0f f5 00 00       	push   $0xf50f
    3941:	e8 3a de 00 00       	call   11780 <assert_abort@plt>
    3946:	8d 76 00             	lea    0x0(%esi),%esi
    3949:	8d bc 27 00 00 00 00 	lea    0x0(%edi,%eiz,1),%edi

00003950 <ddf_fun_set_ops>:
    3950:	55                   	push   %ebp
    3951:	89 e5                	mov    %esp,%ebp
    3953:	83 ec 08             	sub    $0x8,%esp
    3956:	8b 45 08             	mov    0x8(%ebp),%eax
    3959:	8b 48 28             	mov    0x28(%eax),%ecx
    395c:	85 c9                	test   %ecx,%ecx
    395e:	75 08                	jne    3968 <ddf_fun_set_ops+0x18>
    3960:	8b 55 0c             	mov    0xc(%ebp),%edx
    3963:	89 50 24             	mov    %edx,0x24(%eax)
    3966:	c9                   	leave  
    3967:	c3                   	ret    
    3968:	50                   	push   %eax
    3969:	68 7f 03 00 00       	push   $0x37f
    396e:	68 90 f4 00 00       	push   $0xf490
    3973:	68 8a f5 00 00       	push   $0xf58a
    3978:	e8 03 de 00 00       	call   11780 <assert_abort@plt>
    397d:	8d 76 00             	lea    0x0(%esi),%esi

00003980 <ddf_fun_set_conn_handler>:
    3980:	55                   	push   %ebp
    3981:	89 e5                	mov    %esp,%ebp
    3983:	83 ec 08             	sub    $0x8,%esp
    3986:	8b 45 08             	mov    0x8(%ebp),%eax
    3989:	8b 48 24             	mov    0x24(%eax),%ecx
    398c:	85 c9                	test   %ecx,%ecx
    398e:	75 08                	jne    3998 <ddf_fun_set_conn_handler+0x18>
    3990:	8b 55 0c             	mov    0xc(%ebp),%edx
    3993:	89 50 28             	mov    %edx,0x28(%eax)
    3996:	c9                   	leave  
    3997:	c3                   	ret    
    3998:	50                   	push   %eax
    3999:	68 89 03 00 00       	push   $0x389
    399e:	68 90 f4 00 00       	push   $0xf490
    39a3:	68 a4 f5 00 00       	push   $0xf5a4
    39a8:	e8 d3 dd 00 00       	call   11780 <assert_abort@plt>
    39ad:	8d 76 00             	lea    0x0(%esi),%esi

000039b0 <ddf_fun_add_to_category>:
    39b0:	55                   	push   %ebp
    39b1:	89 e5                	mov    %esp,%ebp
    39b3:	83 ec 08             	sub    $0x8,%esp
    39b6:	8b 45 08             	mov    0x8(%ebp),%eax
    39b9:	8b 55 0c             	mov    0xc(%ebp),%edx
    39bc:	80 38 00             	cmpb   $0x0,(%eax)
    39bf:	74 15                	je     39d6 <ddf_fun_add_to_category+0x26>
    39c1:	83 78 10 02          	cmpl   $0x2,0x10(%eax)
    39c5:	75 24                	jne    39eb <ddf_fun_add_to_category+0x3b>
    39c7:	89 55 0c             	mov    %edx,0xc(%ebp)
    39ca:	8b 40 04             	mov    0x4(%eax),%eax
    39cd:	89 45 08             	mov    %eax,0x8(%ebp)
    39d0:	c9                   	leave  
    39d1:	e9 ea dc 00 00       	jmp    116c0 <devman_add_device_to_category@plt>
    39d6:	52                   	push   %edx
    39d7:	68 9c 03 00 00       	push   $0x39c
    39dc:	68 90 f4 00 00       	push   $0xf490
    39e1:	68 5f f5 00 00       	push   $0xf55f
    39e6:	e8 95 dd 00 00       	call   11780 <assert_abort@plt>
    39eb:	50                   	push   %eax
    39ec:	68 9d 03 00 00       	push   $0x39d
    39f1:	68 90 f4 00 00       	push   $0xf490
    39f6:	68 b5 f5 00 00       	push   $0xf5b5
    39fb:	e8 80 dd 00 00       	call   11780 <assert_abort@plt>

00003a00 <ddf_driver_main>:
    3a00:	55                   	push   %ebp
    3a01:	89 e5                	mov    %esp,%ebp
    3a03:	56                   	push   %esi
    3a04:	53                   	push   %ebx
    3a05:	83 ec 10             	sub    $0x10,%esp
    3a08:	8d 75 f4             	lea    -0xc(%ebp),%esi
    3a0b:	8b 45 08             	mov    0x8(%ebp),%eax
    3a0e:	56                   	push   %esi
    3a0f:	a3 48 43 01 00       	mov    %eax,0x14348
    3a14:	6a 00                	push   $0x0
    3a16:	68 60 2d 00 00       	push   $0x2d60
    3a1b:	68 41 26 9b c9       	push   $0xc99b2641
    3a20:	e8 4b e0 00 00       	call   11a70 <async_create_port@plt>
    3a25:	83 c4 10             	add    $0x10,%esp
    3a28:	89 c3                	mov    %eax,%ebx
    3a2a:	85 c0                	test   %eax,%eax
    3a2c:	74 0a                	je     3a38 <ddf_driver_main+0x38>
    3a2e:	8d 65 f8             	lea    -0x8(%ebp),%esp
    3a31:	89 d8                	mov    %ebx,%eax
    3a33:	5b                   	pop    %ebx
    3a34:	5e                   	pop    %esi
    3a35:	5d                   	pop    %ebp
    3a36:	c3                   	ret    
    3a37:	90                   	nop
    3a38:	56                   	push   %esi
    3a39:	6a 00                	push   $0x0
    3a3b:	68 80 2d 00 00       	push   $0x2d80
    3a40:	68 41 26 9b db       	push   $0xdb9b2641
    3a45:	e8 26 e0 00 00       	call   11a70 <async_create_port@plt>
    3a4a:	83 c4 10             	add    $0x10,%esp
    3a4d:	89 c3                	mov    %eax,%ebx
    3a4f:	85 c0                	test   %eax,%eax
    3a51:	75 db                	jne    3a2e <ddf_driver_main+0x2e>
    3a53:	51                   	push   %ecx
    3a54:	51                   	push   %ecx
    3a55:	6a 00                	push   $0x0
    3a57:	68 70 2d 00 00       	push   $0x2d70
    3a5c:	e8 ff e0 00 00       	call   11b60 <async_set_fallback_port_handler@plt>
    3a61:	a1 48 43 01 00       	mov    0x14348,%eax
    3a66:	8b 30                	mov    (%eax),%esi
    3a68:	5b                   	pop    %ebx
    3a69:	56                   	push   %esi
    3a6a:	e8 d1 de 00 00       	call   11940 <devman_driver_register@plt>
    3a6f:	83 c4 10             	add    $0x10,%esp
    3a72:	89 c3                	mov    %eax,%ebx
    3a74:	85 c0                	test   %eax,%eax
    3a76:	74 30                	je     3aa8 <ddf_driver_main+0xa8>
    3a78:	b8 cf f5 00 00       	mov    $0xf5cf,%eax
    3a7d:	83 fb f7             	cmp    $0xfffffff7,%ebx
    3a80:	74 0c                	je     3a8e <ddf_driver_main+0x8e>
    3a82:	83 ec 0c             	sub    $0xc,%esp
    3a85:	53                   	push   %ebx
    3a86:	e8 85 df 00 00       	call   11a10 <str_error@plt>
    3a8b:	83 c4 10             	add    $0x10,%esp
    3a8e:	52                   	push   %edx
    3a8f:	52                   	push   %edx
    3a90:	50                   	push   %eax
    3a91:	68 5c f7 00 00       	push   $0xf75c
    3a96:	e8 d5 da 00 00       	call   11570 <printf@plt>
    3a9b:	83 c4 10             	add    $0x10,%esp
    3a9e:	8d 65 f8             	lea    -0x8(%ebp),%esp
    3aa1:	89 d8                	mov    %ebx,%eax
    3aa3:	5b                   	pop    %ebx
    3aa4:	5e                   	pop    %esi
    3aa5:	5d                   	pop    %ebp
    3aa6:	c3                   	ret    
    3aa7:	90                   	nop
    3aa8:	83 ec 0c             	sub    $0xc,%esp
    3aab:	6a 00                	push   $0x0
    3aad:	e8 8e da 00 00       	call   11540 <task_retval@plt>
    3ab2:	83 c4 10             	add    $0x10,%esp
    3ab5:	89 c3                	mov    %eax,%ebx
    3ab7:	85 c0                	test   %eax,%eax
    3ab9:	0f 85 6f ff ff ff    	jne    3a2e <ddf_driver_main+0x2e>
    3abf:	83 c8 ff             	or     $0xffffffff,%eax
    3ac2:	f0 0f c1 05 a4 42 01 	lock xadd %eax,0x142a4
    3ac9:	00 
    3aca:	48                   	dec    %eax
    3acb:	78 12                	js     3adf <ddf_driver_main+0xdf>
    3acd:	83 ec 0c             	sub    $0xc,%esp
    3ad0:	6a 03                	push   $0x3
    3ad2:	e8 39 e0 00 00       	call   11b10 <fibril_switch@plt>
    3ad7:	83 c4 10             	add    $0x10,%esp
    3ada:	e9 4f ff ff ff       	jmp    3a2e <ddf_driver_main+0x2e>
    3adf:	50                   	push   %eax
    3ae0:	6a 0b                	push   $0xb
    3ae2:	6a 00                	push   $0x0
    3ae4:	6a 00                	push   $0x0
    3ae6:	6a 00                	push   $0x0
    3ae8:	6a 00                	push   $0x0
    3aea:	6a 00                	push   $0x0
    3aec:	68 a4 42 01 00       	push   $0x142a4
    3af1:	ff 15 a0 42 01 00    	call   *0x142a0
    3af7:	83 c4 20             	add    $0x20,%esp
    3afa:	eb d1                	jmp    3acd <ddf_driver_main+0xcd>
    3afc:	66 90                	xchg   %ax,%ax
    3afe:	66 90                	xchg   %ax,%ax

00003b00 <get_remote_iface>:
    3b00:	55                   	push   %ebp
    3b01:	89 e5                	mov    %esp,%ebp
    3b03:	83 ec 08             	sub    $0x8,%esp
    3b06:	8b 45 08             	mov    0x8(%ebp),%eax
    3b09:	83 f8 0e             	cmp    $0xe,%eax
    3b0c:	77 09                	ja     3b17 <get_remote_iface+0x17>
    3b0e:	8b 04 85 c0 f7 00 00 	mov    0xf7c0(,%eax,4),%eax
    3b15:	c9                   	leave  
    3b16:	c3                   	ret    
    3b17:	50                   	push   %eax
    3b18:	6a 4f                	push   $0x4f
    3b1a:	68 ac f7 00 00       	push   $0xf7ac
    3b1f:	68 a1 f4 00 00       	push   $0xf4a1
    3b24:	e8 57 dc 00 00       	call   11780 <assert_abort@plt>
    3b29:	8d b4 26 00 00 00 00 	lea    0x0(%esi,%eiz,1),%esi

00003b30 <get_remote_method>:
    3b30:	55                   	push   %ebp
    3b31:	89 e5                	mov    %esp,%ebp
    3b33:	8b 55 08             	mov    0x8(%ebp),%edx
    3b36:	8b 45 0c             	mov    0xc(%ebp),%eax
    3b39:	39 02                	cmp    %eax,(%edx)
    3b3b:	76 0b                	jbe    3b48 <get_remote_method+0x18>
    3b3d:	8b 52 04             	mov    0x4(%edx),%edx
    3b40:	5d                   	pop    %ebp
    3b41:	8b 04 82             	mov    (%edx,%eax,4),%eax
    3b44:	c3                   	ret    
    3b45:	8d 76 00             	lea    0x0(%esi),%esi
    3b48:	31 c0                	xor    %eax,%eax
    3b4a:	5d                   	pop    %ebp
    3b4b:	c3                   	ret    
    3b4c:	8d 74 26 00          	lea    0x0(%esi,%eiz,1),%esi

00003b50 <is_valid_iface_idx>:
    3b50:	55                   	push   %ebp
    3b51:	89 e5                	mov    %esp,%ebp
    3b53:	83 7d 08 0e          	cmpl   $0xe,0x8(%ebp)
    3b57:	5d                   	pop    %ebp
    3b58:	0f 96 c0             	setbe  %al
    3b5b:	c3                   	ret    
    3b5c:	66 90                	xchg   %ax,%ax
    3b5e:	66 90                	xchg   %ax,%ax

00003b60 <register_interrupt_handler>:
    3b60:	55                   	push   %ebp
    3b61:	89 e5                	mov    %esp,%ebp
    3b63:	83 ec 14             	sub    $0x14,%esp
    3b66:	8b 45 08             	mov    0x8(%ebp),%eax
    3b69:	8b 55 14             	mov    0x14(%ebp),%edx
    3b6c:	8b 4d 10             	mov    0x10(%ebp),%ecx
    3b6f:	52                   	push   %edx
    3b70:	50                   	push   %eax
    3b71:	51                   	push   %ecx
    3b72:	8b 00                	mov    (%eax),%eax
    3b74:	50                   	push   %eax
    3b75:	8b 45 0c             	mov    0xc(%ebp),%eax
    3b78:	50                   	push   %eax
    3b79:	e8 62 db 00 00       	call   116e0 <async_irq_subscribe@plt>
    3b7e:	c9                   	leave  
    3b7f:	c3                   	ret    

00003b80 <unregister_interrupt_handler>:
    3b80:	55                   	push   %ebp
    3b81:	89 e5                	mov    %esp,%ebp
    3b83:	8b 55 08             	mov    0x8(%ebp),%edx
    3b86:	8b 45 0c             	mov    0xc(%ebp),%eax
    3b89:	8b 12                	mov    (%edx),%edx
    3b8b:	89 45 08             	mov    %eax,0x8(%ebp)
    3b8e:	89 55 0c             	mov    %edx,0xc(%ebp)
    3b91:	5d                   	pop    %ebp
    3b92:	e9 e9 da 00 00       	jmp    11680 <async_irq_unsubscribe@plt>
    3b97:	66 90                	xchg   %ax,%ax
    3b99:	66 90                	xchg   %ax,%ax
    3b9b:	66 90                	xchg   %ax,%ax
    3b9d:	66 90                	xchg   %ax,%ax
    3b9f:	90                   	nop

00003ba0 <remote_audio_mixer_set_item_level>:
    3ba0:	55                   	push   %ebp
    3ba1:	89 e5                	mov    %esp,%ebp
    3ba3:	53                   	push   %ebx
    3ba4:	51                   	push   %ecx
    3ba5:	8b 45 0c             	mov    0xc(%ebp),%eax
    3ba8:	8b 4d 08             	mov    0x8(%ebp),%ecx
    3bab:	8b 5d 10             	mov    0x10(%ebp),%ebx
    3bae:	8b 55 14             	mov    0x14(%ebp),%edx
    3bb1:	8b 40 0c             	mov    0xc(%eax),%eax
    3bb4:	85 c0                	test   %eax,%eax
    3bb6:	74 20                	je     3bd8 <remote_audio_mixer_set_item_level+0x38>
    3bb8:	83 ec 04             	sub    $0x4,%esp
    3bbb:	ff 72 0c             	pushl  0xc(%edx)
    3bbe:	8b 52 08             	mov    0x8(%edx),%edx
    3bc1:	52                   	push   %edx
    3bc2:	51                   	push   %ecx
    3bc3:	ff d0                	call   *%eax
    3bc5:	89 5d 08             	mov    %ebx,0x8(%ebp)
    3bc8:	83 c4 10             	add    $0x10,%esp
    3bcb:	8b 5d fc             	mov    -0x4(%ebp),%ebx
    3bce:	89 45 0c             	mov    %eax,0xc(%ebp)
    3bd1:	c9                   	leave  
    3bd2:	e9 29 db 00 00       	jmp    11700 <async_answer_0@plt>
    3bd7:	90                   	nop
    3bd8:	89 5d 08             	mov    %ebx,0x8(%ebp)
    3bdb:	8b 5d fc             	mov    -0x4(%ebp),%ebx
    3bde:	c7 45 0c f5 ff ff ff 	movl   $0xfffffff5,0xc(%ebp)
    3be5:	c9                   	leave  
    3be6:	e9 15 db 00 00       	jmp    11700 <async_answer_0@plt>
    3beb:	90                   	nop
    3bec:	8d 74 26 00          	lea    0x0(%esi,%eiz,1),%esi

00003bf0 <remote_audio_mixer_get_item_level>:
    3bf0:	55                   	push   %ebp
    3bf1:	89 e5                	mov    %esp,%ebp
    3bf3:	83 ec 18             	sub    $0x18,%esp
    3bf6:	8b 45 0c             	mov    0xc(%ebp),%eax
    3bf9:	8b 40 08             	mov    0x8(%eax),%eax
    3bfc:	85 c0                	test   %eax,%eax
    3bfe:	74 30                	je     3c30 <remote_audio_mixer_get_item_level+0x40>
    3c00:	8b 55 14             	mov    0x14(%ebp),%edx
    3c03:	c7 45 f4 00 00 00 00 	movl   $0x0,-0xc(%ebp)
    3c0a:	8b 52 08             	mov    0x8(%edx),%edx
    3c0d:	51                   	push   %ecx
    3c0e:	8d 4d f4             	lea    -0xc(%ebp),%ecx
    3c11:	51                   	push   %ecx
    3c12:	52                   	push   %edx
    3c13:	8b 55 08             	mov    0x8(%ebp),%edx
    3c16:	52                   	push   %edx
    3c17:	ff d0                	call   *%eax
    3c19:	83 c4 0c             	add    $0xc,%esp
    3c1c:	8b 4d f4             	mov    -0xc(%ebp),%ecx
    3c1f:	51                   	push   %ecx
    3c20:	50                   	push   %eax
    3c21:	8b 45 10             	mov    0x10(%ebp),%eax
    3c24:	50                   	push   %eax
    3c25:	e8 c6 dd 00 00       	call   119f0 <async_answer_1@plt>
    3c2a:	83 c4 10             	add    $0x10,%esp
    3c2d:	c9                   	leave  
    3c2e:	c3                   	ret    
    3c2f:	90                   	nop
    3c30:	50                   	push   %eax
    3c31:	50                   	push   %eax
    3c32:	8b 45 10             	mov    0x10(%ebp),%eax
    3c35:	6a f5                	push   $0xfffffff5
    3c37:	50                   	push   %eax
    3c38:	e8 c3 da 00 00       	call   11700 <async_answer_0@plt>
    3c3d:	83 c4 10             	add    $0x10,%esp
    3c40:	c9                   	leave  
    3c41:	c3                   	ret    
    3c42:	8d b4 26 00 00 00 00 	lea    0x0(%esi,%eiz,1),%esi
    3c49:	8d bc 27 00 00 00 00 	lea    0x0(%edi,%eiz,1),%edi

00003c50 <remote_audio_mixer_get_item_info>:
    3c50:	55                   	push   %ebp
    3c51:	89 e5                	mov    %esp,%ebp
    3c53:	56                   	push   %esi
    3c54:	53                   	push   %ebx
    3c55:	83 ec 10             	sub    $0x10,%esp
    3c58:	8b 45 0c             	mov    0xc(%ebp),%eax
    3c5b:	8b 40 04             	mov    0x4(%eax),%eax
    3c5e:	85 c0                	test   %eax,%eax
    3c60:	0f 84 c2 00 00 00    	je     3d28 <remote_audio_mixer_get_item_info+0xd8>
    3c66:	8b 55 14             	mov    0x14(%ebp),%edx
    3c69:	8d 4d ec             	lea    -0x14(%ebp),%ecx
    3c6c:	c7 45 e8 00 00 00 00 	movl   $0x0,-0x18(%ebp)
    3c73:	c7 45 ec 00 00 00 00 	movl   $0x0,-0x14(%ebp)
    3c7a:	8b 52 08             	mov    0x8(%edx),%edx
    3c7d:	51                   	push   %ecx
    3c7e:	8d 4d e8             	lea    -0x18(%ebp),%ecx
    3c81:	51                   	push   %ecx
    3c82:	8b 4d 08             	mov    0x8(%ebp),%ecx
    3c85:	52                   	push   %edx
    3c86:	51                   	push   %ecx
    3c87:	ff d0                	call   *%eax
    3c89:	83 c4 10             	add    $0x10,%esp
    3c8c:	89 c6                	mov    %eax,%esi
    3c8e:	8b 45 e8             	mov    -0x18(%ebp),%eax
    3c91:	85 c0                	test   %eax,%eax
    3c93:	74 5b                	je     3cf0 <remote_audio_mixer_get_item_info+0xa0>
    3c95:	83 ec 0c             	sub    $0xc,%esp
    3c98:	50                   	push   %eax
    3c99:	e8 32 dd 00 00       	call   119d0 <str_size@plt>
    3c9e:	8b 55 10             	mov    0x10(%ebp),%edx
    3ca1:	8d 58 01             	lea    0x1(%eax),%ebx
    3ca4:	8b 45 ec             	mov    -0x14(%ebp),%eax
    3ca7:	50                   	push   %eax
    3ca8:	53                   	push   %ebx
    3ca9:	56                   	push   %esi
    3caa:	52                   	push   %edx
    3cab:	e8 80 db 00 00       	call   11830 <async_answer_2@plt>
    3cb0:	83 c4 20             	add    $0x20,%esp
    3cb3:	85 f6                	test   %esi,%esi
    3cb5:	75 2f                	jne    3ce6 <remote_audio_mixer_get_item_info+0x96>
    3cb7:	85 db                	test   %ebx,%ebx
    3cb9:	74 2b                	je     3ce6 <remote_audio_mixer_get_item_info+0x96>
    3cbb:	50                   	push   %eax
    3cbc:	50                   	push   %eax
    3cbd:	8d 45 f0             	lea    -0x10(%ebp),%eax
    3cc0:	50                   	push   %eax
    3cc1:	8d 45 f4             	lea    -0xc(%ebp),%eax
    3cc4:	50                   	push   %eax
    3cc5:	e8 96 dc 00 00       	call   11960 <async_data_read_receive@plt>
    3cca:	83 c4 10             	add    $0x10,%esp
    3ccd:	84 c0                	test   %al,%al
    3ccf:	74 6f                	je     3d40 <remote_audio_mixer_get_item_info+0xf0>
    3cd1:	3b 5d f0             	cmp    -0x10(%ebp),%ebx
    3cd4:	74 3a                	je     3d10 <remote_audio_mixer_get_item_info+0xc0>
    3cd6:	50                   	push   %eax
    3cd7:	50                   	push   %eax
    3cd8:	8b 45 f4             	mov    -0xc(%ebp),%eax
    3cdb:	6a fd                	push   $0xfffffffd
    3cdd:	50                   	push   %eax
    3cde:	e8 1d da 00 00       	call   11700 <async_answer_0@plt>
    3ce3:	83 c4 10             	add    $0x10,%esp
    3ce6:	8d 65 f8             	lea    -0x8(%ebp),%esp
    3ce9:	5b                   	pop    %ebx
    3cea:	5e                   	pop    %esi
    3ceb:	5d                   	pop    %ebp
    3cec:	c3                   	ret    
    3ced:	8d 76 00             	lea    0x0(%esi),%esi
    3cf0:	8b 45 ec             	mov    -0x14(%ebp),%eax
    3cf3:	8b 55 10             	mov    0x10(%ebp),%edx
    3cf6:	50                   	push   %eax
    3cf7:	6a 00                	push   $0x0
    3cf9:	56                   	push   %esi
    3cfa:	52                   	push   %edx
    3cfb:	e8 30 db 00 00       	call   11830 <async_answer_2@plt>
    3d00:	83 c4 10             	add    $0x10,%esp
    3d03:	8d 65 f8             	lea    -0x8(%ebp),%esp
    3d06:	5b                   	pop    %ebx
    3d07:	5e                   	pop    %esi
    3d08:	5d                   	pop    %ebp
    3d09:	c3                   	ret    
    3d0a:	8d b6 00 00 00 00    	lea    0x0(%esi),%esi
    3d10:	8b 75 f4             	mov    -0xc(%ebp),%esi
    3d13:	51                   	push   %ecx
    3d14:	53                   	push   %ebx
    3d15:	8b 5d e8             	mov    -0x18(%ebp),%ebx
    3d18:	53                   	push   %ebx
    3d19:	56                   	push   %esi
    3d1a:	e8 41 d9 00 00       	call   11660 <async_data_read_finalize@plt>
    3d1f:	83 c4 10             	add    $0x10,%esp
    3d22:	eb c2                	jmp    3ce6 <remote_audio_mixer_get_item_info+0x96>
    3d24:	8d 74 26 00          	lea    0x0(%esi,%eiz,1),%esi
    3d28:	8b 75 10             	mov    0x10(%ebp),%esi
    3d2b:	53                   	push   %ebx
    3d2c:	53                   	push   %ebx
    3d2d:	6a f5                	push   $0xfffffff5
    3d2f:	56                   	push   %esi
    3d30:	e8 cb d9 00 00       	call   11700 <async_answer_0@plt>
    3d35:	83 c4 10             	add    $0x10,%esp
    3d38:	8d 65 f8             	lea    -0x8(%ebp),%esp
    3d3b:	5b                   	pop    %ebx
    3d3c:	5e                   	pop    %esi
    3d3d:	5d                   	pop    %ebp
    3d3e:	c3                   	ret    
    3d3f:	90                   	nop
    3d40:	50                   	push   %eax
    3d41:	50                   	push   %eax
    3d42:	8b 45 f4             	mov    -0xc(%ebp),%eax
    3d45:	6a f8                	push   $0xfffffff8
    3d47:	50                   	push   %eax
    3d48:	e8 b3 d9 00 00       	call   11700 <async_answer_0@plt>
    3d4d:	83 c4 10             	add    $0x10,%esp
    3d50:	eb 94                	jmp    3ce6 <remote_audio_mixer_get_item_info+0x96>
    3d52:	8d b4 26 00 00 00 00 	lea    0x0(%esi,%eiz,1),%esi
    3d59:	8d bc 27 00 00 00 00 	lea    0x0(%edi,%eiz,1),%edi

00003d60 <remote_audio_mixer_get_info>:
    3d60:	55                   	push   %ebp
    3d61:	89 e5                	mov    %esp,%ebp
    3d63:	56                   	push   %esi
    3d64:	53                   	push   %ebx
    3d65:	83 ec 10             	sub    $0x10,%esp
    3d68:	8b 45 0c             	mov    0xc(%ebp),%eax
    3d6b:	8b 00                	mov    (%eax),%eax
    3d6d:	85 c0                	test   %eax,%eax
    3d6f:	0f 84 bb 00 00 00    	je     3e30 <remote_audio_mixer_get_info+0xd0>
    3d75:	8d 55 ec             	lea    -0x14(%ebp),%edx
    3d78:	8b 5d 08             	mov    0x8(%ebp),%ebx
    3d7b:	c7 45 e8 00 00 00 00 	movl   $0x0,-0x18(%ebp)
    3d82:	c7 45 ec 00 00 00 00 	movl   $0x0,-0x14(%ebp)
    3d89:	51                   	push   %ecx
    3d8a:	52                   	push   %edx
    3d8b:	8d 55 e8             	lea    -0x18(%ebp),%edx
    3d8e:	52                   	push   %edx
    3d8f:	53                   	push   %ebx
    3d90:	ff d0                	call   *%eax
    3d92:	83 c4 10             	add    $0x10,%esp
    3d95:	89 c6                	mov    %eax,%esi
    3d97:	8b 45 e8             	mov    -0x18(%ebp),%eax
    3d9a:	85 c0                	test   %eax,%eax
    3d9c:	74 5a                	je     3df8 <remote_audio_mixer_get_info+0x98>
    3d9e:	83 ec 0c             	sub    $0xc,%esp
    3da1:	50                   	push   %eax
    3da2:	e8 29 dc 00 00       	call   119d0 <str_size@plt>
    3da7:	8b 55 10             	mov    0x10(%ebp),%edx
    3daa:	8d 58 01             	lea    0x1(%eax),%ebx
    3dad:	8b 45 ec             	mov    -0x14(%ebp),%eax
    3db0:	50                   	push   %eax
    3db1:	53                   	push   %ebx
    3db2:	56                   	push   %esi
    3db3:	52                   	push   %edx
    3db4:	e8 77 da 00 00       	call   11830 <async_answer_2@plt>
    3db9:	83 c4 20             	add    $0x20,%esp
    3dbc:	85 f6                	test   %esi,%esi
    3dbe:	75 2f                	jne    3def <remote_audio_mixer_get_info+0x8f>
    3dc0:	85 db                	test   %ebx,%ebx
    3dc2:	74 2b                	je     3def <remote_audio_mixer_get_info+0x8f>
    3dc4:	50                   	push   %eax
    3dc5:	50                   	push   %eax
    3dc6:	8d 45 f0             	lea    -0x10(%ebp),%eax
    3dc9:	50                   	push   %eax
    3dca:	8d 45 f4             	lea    -0xc(%ebp),%eax
    3dcd:	50                   	push   %eax
    3dce:	e8 8d db 00 00       	call   11960 <async_data_read_receive@plt>
    3dd3:	83 c4 10             	add    $0x10,%esp
    3dd6:	84 c0                	test   %al,%al
    3dd8:	74 6e                	je     3e48 <remote_audio_mixer_get_info+0xe8>
    3dda:	3b 5d f0             	cmp    -0x10(%ebp),%ebx
    3ddd:	74 39                	je     3e18 <remote_audio_mixer_get_info+0xb8>
    3ddf:	50                   	push   %eax
    3de0:	50                   	push   %eax
    3de1:	8b 45 f4             	mov    -0xc(%ebp),%eax
    3de4:	6a fd                	push   $0xfffffffd
    3de6:	50                   	push   %eax
    3de7:	e8 14 d9 00 00       	call   11700 <async_answer_0@plt>
    3dec:	83 c4 10             	add    $0x10,%esp
    3def:	8d 65 f8             	lea    -0x8(%ebp),%esp
    3df2:	5b                   	pop    %ebx
    3df3:	5e                   	pop    %esi
    3df4:	5d                   	pop    %ebp
    3df5:	c3                   	ret    
    3df6:	66 90                	xchg   %ax,%ax
    3df8:	8b 45 ec             	mov    -0x14(%ebp),%eax
    3dfb:	8b 55 10             	mov    0x10(%ebp),%edx
    3dfe:	50                   	push   %eax
    3dff:	6a 00                	push   $0x0
    3e01:	56                   	push   %esi
    3e02:	52                   	push   %edx
    3e03:	e8 28 da 00 00       	call   11830 <async_answer_2@plt>
    3e08:	83 c4 10             	add    $0x10,%esp
    3e0b:	8d 65 f8             	lea    -0x8(%ebp),%esp
    3e0e:	5b                   	pop    %ebx
    3e0f:	5e                   	pop    %esi
    3e10:	5d                   	pop    %ebp
    3e11:	c3                   	ret    
    3e12:	8d b6 00 00 00 00    	lea    0x0(%esi),%esi
    3e18:	8b 75 f4             	mov    -0xc(%ebp),%esi
    3e1b:	51                   	push   %ecx
    3e1c:	53                   	push   %ebx
    3e1d:	8b 5d e8             	mov    -0x18(%ebp),%ebx
    3e20:	53                   	push   %ebx
    3e21:	56                   	push   %esi
    3e22:	e8 39 d8 00 00       	call   11660 <async_data_read_finalize@plt>
    3e27:	83 c4 10             	add    $0x10,%esp
    3e2a:	eb c3                	jmp    3def <remote_audio_mixer_get_info+0x8f>
    3e2c:	8d 74 26 00          	lea    0x0(%esi,%eiz,1),%esi
    3e30:	8b 45 10             	mov    0x10(%ebp),%eax
    3e33:	56                   	push   %esi
    3e34:	56                   	push   %esi
    3e35:	6a f5                	push   $0xfffffff5
    3e37:	50                   	push   %eax
    3e38:	e8 c3 d8 00 00       	call   11700 <async_answer_0@plt>
    3e3d:	83 c4 10             	add    $0x10,%esp
    3e40:	8d 65 f8             	lea    -0x8(%ebp),%esp
    3e43:	5b                   	pop    %ebx
    3e44:	5e                   	pop    %esi
    3e45:	5d                   	pop    %ebp
    3e46:	c3                   	ret    
    3e47:	90                   	nop
    3e48:	50                   	push   %eax
    3e49:	50                   	push   %eax
    3e4a:	8b 45 f4             	mov    -0xc(%ebp),%eax
    3e4d:	6a f8                	push   $0xfffffff8
    3e4f:	50                   	push   %eax
    3e50:	e8 ab d8 00 00       	call   11700 <async_answer_0@plt>
    3e55:	83 c4 10             	add    $0x10,%esp
    3e58:	eb 95                	jmp    3def <remote_audio_mixer_get_info+0x8f>
    3e5a:	8d b6 00 00 00 00    	lea    0x0(%esi),%esi

00003e60 <audio_mixer_get_info>:
    3e60:	55                   	push   %ebp
    3e61:	89 e5                	mov    %esp,%ebp
    3e63:	57                   	push   %edi
    3e64:	56                   	push   %esi
    3e65:	53                   	push   %ebx
    3e66:	83 ec 2c             	sub    $0x2c,%esp
    3e69:	8b 75 08             	mov    0x8(%ebp),%esi
    3e6c:	85 f6                	test   %esi,%esi
    3e6e:	0f 84 bc 00 00 00    	je     3f30 <audio_mixer_get_info+0xd0>
    3e74:	50                   	push   %eax
    3e75:	8d 45 e4             	lea    -0x1c(%ebp),%eax
    3e78:	6a 00                	push   $0x0
    3e7a:	6a 00                	push   $0x0
    3e7c:	6a 00                	push   $0x0
    3e7e:	50                   	push   %eax
    3e7f:	8d 45 e0             	lea    -0x20(%ebp),%eax
    3e82:	50                   	push   %eax
    3e83:	6a 00                	push   $0x0
    3e85:	6a 00                	push   $0x0
    3e87:	6a 00                	push   $0x0
    3e89:	6a 00                	push   $0x0
    3e8b:	68 03 04 00 00       	push   $0x403
    3e90:	56                   	push   %esi
    3e91:	e8 5a d8 00 00       	call   116f0 <async_req_fast@plt>
    3e96:	83 c4 30             	add    $0x30,%esp
    3e99:	89 c3                	mov    %eax,%ebx
    3e9b:	85 c0                	test   %eax,%eax
    3e9d:	8b 45 0c             	mov    0xc(%ebp),%eax
    3ea0:	0f 94 c2             	sete   %dl
    3ea3:	85 c0                	test   %eax,%eax
    3ea5:	74 04                	je     3eab <audio_mixer_get_info+0x4b>
    3ea7:	84 d2                	test   %dl,%dl
    3ea9:	75 1d                	jne    3ec8 <audio_mixer_get_info+0x68>
    3eab:	8b 45 10             	mov    0x10(%ebp),%eax
    3eae:	85 c0                	test   %eax,%eax
    3eb0:	74 57                	je     3f09 <audio_mixer_get_info+0xa9>
    3eb2:	84 d2                	test   %dl,%dl
    3eb4:	74 53                	je     3f09 <audio_mixer_get_info+0xa9>
    3eb6:	8b 4d 10             	mov    0x10(%ebp),%ecx
    3eb9:	8b 45 e4             	mov    -0x1c(%ebp),%eax
    3ebc:	89 01                	mov    %eax,(%ecx)
    3ebe:	89 d8                	mov    %ebx,%eax
    3ec0:	8d 65 f4             	lea    -0xc(%ebp),%esp
    3ec3:	5b                   	pop    %ebx
    3ec4:	5e                   	pop    %esi
    3ec5:	5f                   	pop    %edi
    3ec6:	5d                   	pop    %ebp
    3ec7:	c3                   	ret    
    3ec8:	8b 45 e0             	mov    -0x20(%ebp),%eax
    3ecb:	88 55 d4             	mov    %dl,-0x2c(%ebp)
    3ece:	57                   	push   %edi
    3ecf:	57                   	push   %edi
    3ed0:	50                   	push   %eax
    3ed1:	6a 01                	push   $0x1
    3ed3:	e8 c8 d8 00 00       	call   117a0 <calloc@plt>
    3ed8:	83 c4 10             	add    $0x10,%esp
    3edb:	89 c7                	mov    %eax,%edi
    3edd:	85 c0                	test   %eax,%eax
    3edf:	8a 55 d4             	mov    -0x2c(%ebp),%dl
    3ee2:	74 53                	je     3f37 <audio_mixer_get_info+0xd7>
    3ee4:	8b 4d e0             	mov    -0x20(%ebp),%ecx
    3ee7:	88 55 d4             	mov    %dl,-0x2c(%ebp)
    3eea:	52                   	push   %edx
    3eeb:	51                   	push   %ecx
    3eec:	50                   	push   %eax
    3eed:	56                   	push   %esi
    3eee:	e8 7d da 00 00       	call   11970 <async_data_read_start@plt>
    3ef3:	83 c4 10             	add    $0x10,%esp
    3ef6:	8a 55 d4             	mov    -0x2c(%ebp),%dl
    3ef9:	85 c0                	test   %eax,%eax
    3efb:	75 1b                	jne    3f18 <audio_mixer_get_info+0xb8>
    3efd:	8b 45 0c             	mov    0xc(%ebp),%eax
    3f00:	89 38                	mov    %edi,(%eax)
    3f02:	8b 45 10             	mov    0x10(%ebp),%eax
    3f05:	85 c0                	test   %eax,%eax
    3f07:	75 a9                	jne    3eb2 <audio_mixer_get_info+0x52>
    3f09:	8d 65 f4             	lea    -0xc(%ebp),%esp
    3f0c:	89 d8                	mov    %ebx,%eax
    3f0e:	5b                   	pop    %ebx
    3f0f:	5e                   	pop    %esi
    3f10:	5f                   	pop    %edi
    3f11:	5d                   	pop    %ebp
    3f12:	c3                   	ret    
    3f13:	90                   	nop
    3f14:	8d 74 26 00          	lea    0x0(%esi,%eiz,1),%esi
    3f18:	83 ec 0c             	sub    $0xc,%esp
    3f1b:	89 45 d4             	mov    %eax,-0x2c(%ebp)
    3f1e:	57                   	push   %edi
    3f1f:	e8 7c dc 00 00       	call   11ba0 <free@plt>
    3f24:	83 c4 10             	add    $0x10,%esp
    3f27:	8b 45 d4             	mov    -0x2c(%ebp),%eax
    3f2a:	eb 94                	jmp    3ec0 <audio_mixer_get_info+0x60>
    3f2c:	8d 74 26 00          	lea    0x0(%esi,%eiz,1),%esi
    3f30:	b8 f2 ff ff ff       	mov    $0xfffffff2,%eax
    3f35:	eb 89                	jmp    3ec0 <audio_mixer_get_info+0x60>
    3f37:	53                   	push   %ebx
    3f38:	6a 00                	push   $0x0
    3f3a:	6a ff                	push   $0xffffffff
    3f3c:	56                   	push   %esi
    3f3d:	e8 2e da 00 00       	call   11970 <async_data_read_start@plt>
    3f42:	83 c4 10             	add    $0x10,%esp
    3f45:	b8 fe ff ff ff       	mov    $0xfffffffe,%eax
    3f4a:	e9 71 ff ff ff       	jmp    3ec0 <audio_mixer_get_info+0x60>
    3f4f:	90                   	nop

00003f50 <audio_mixer_get_item_info>:
    3f50:	55                   	push   %ebp
    3f51:	89 e5                	mov    %esp,%ebp
    3f53:	57                   	push   %edi
    3f54:	56                   	push   %esi
    3f55:	53                   	push   %ebx
    3f56:	83 ec 2c             	sub    $0x2c,%esp
    3f59:	8b 75 08             	mov    0x8(%ebp),%esi
    3f5c:	85 f6                	test   %esi,%esi
    3f5e:	0f 84 c4 00 00 00    	je     4028 <audio_mixer_get_item_info+0xd8>
    3f64:	50                   	push   %eax
    3f65:	8d 45 e4             	lea    -0x1c(%ebp),%eax
    3f68:	6a 00                	push   $0x0
    3f6a:	6a 00                	push   $0x0
    3f6c:	6a 00                	push   $0x0
    3f6e:	50                   	push   %eax
    3f6f:	8d 45 e0             	lea    -0x20(%ebp),%eax
    3f72:	50                   	push   %eax
    3f73:	8b 45 0c             	mov    0xc(%ebp),%eax
    3f76:	6a 00                	push   $0x0
    3f78:	6a 00                	push   $0x0
    3f7a:	50                   	push   %eax
    3f7b:	6a 01                	push   $0x1
    3f7d:	68 03 04 00 00       	push   $0x403
    3f82:	56                   	push   %esi
    3f83:	e8 68 d7 00 00       	call   116f0 <async_req_fast@plt>
    3f88:	83 c4 30             	add    $0x30,%esp
    3f8b:	89 c3                	mov    %eax,%ebx
    3f8d:	85 c0                	test   %eax,%eax
    3f8f:	8b 45 10             	mov    0x10(%ebp),%eax
    3f92:	0f 94 c2             	sete   %dl
    3f95:	85 c0                	test   %eax,%eax
    3f97:	74 04                	je     3f9d <audio_mixer_get_item_info+0x4d>
    3f99:	84 d2                	test   %dl,%dl
    3f9b:	75 23                	jne    3fc0 <audio_mixer_get_item_info+0x70>
    3f9d:	8b 45 14             	mov    0x14(%ebp),%eax
    3fa0:	85 c0                	test   %eax,%eax
    3fa2:	74 5d                	je     4001 <audio_mixer_get_item_info+0xb1>
    3fa4:	84 d2                	test   %dl,%dl
    3fa6:	74 59                	je     4001 <audio_mixer_get_item_info+0xb1>
    3fa8:	8b 4d 14             	mov    0x14(%ebp),%ecx
    3fab:	8b 45 e4             	mov    -0x1c(%ebp),%eax
    3fae:	89 01                	mov    %eax,(%ecx)
    3fb0:	89 d8                	mov    %ebx,%eax
    3fb2:	8d 65 f4             	lea    -0xc(%ebp),%esp
    3fb5:	5b                   	pop    %ebx
    3fb6:	5e                   	pop    %esi
    3fb7:	5f                   	pop    %edi
    3fb8:	5d                   	pop    %ebp
    3fb9:	c3                   	ret    
    3fba:	8d b6 00 00 00 00    	lea    0x0(%esi),%esi
    3fc0:	8b 45 e0             	mov    -0x20(%ebp),%eax
    3fc3:	88 55 d4             	mov    %dl,-0x2c(%ebp)
    3fc6:	57                   	push   %edi
    3fc7:	57                   	push   %edi
    3fc8:	50                   	push   %eax
    3fc9:	6a 01                	push   $0x1
    3fcb:	e8 d0 d7 00 00       	call   117a0 <calloc@plt>
    3fd0:	83 c4 10             	add    $0x10,%esp
    3fd3:	89 c7                	mov    %eax,%edi
    3fd5:	85 c0                	test   %eax,%eax
    3fd7:	8a 55 d4             	mov    -0x2c(%ebp),%dl
    3fda:	74 53                	je     402f <audio_mixer_get_item_info+0xdf>
    3fdc:	8b 4d e0             	mov    -0x20(%ebp),%ecx
    3fdf:	88 55 d4             	mov    %dl,-0x2c(%ebp)
    3fe2:	52                   	push   %edx
    3fe3:	51                   	push   %ecx
    3fe4:	50                   	push   %eax
    3fe5:	56                   	push   %esi
    3fe6:	e8 85 d9 00 00       	call   11970 <async_data_read_start@plt>
    3feb:	83 c4 10             	add    $0x10,%esp
    3fee:	8a 55 d4             	mov    -0x2c(%ebp),%dl
    3ff1:	85 c0                	test   %eax,%eax
    3ff3:	75 1b                	jne    4010 <audio_mixer_get_item_info+0xc0>
    3ff5:	8b 45 10             	mov    0x10(%ebp),%eax
    3ff8:	89 38                	mov    %edi,(%eax)
    3ffa:	8b 45 14             	mov    0x14(%ebp),%eax
    3ffd:	85 c0                	test   %eax,%eax
    3fff:	75 a3                	jne    3fa4 <audio_mixer_get_item_info+0x54>
    4001:	8d 65 f4             	lea    -0xc(%ebp),%esp
    4004:	89 d8                	mov    %ebx,%eax
    4006:	5b                   	pop    %ebx
    4007:	5e                   	pop    %esi
    4008:	5f                   	pop    %edi
    4009:	5d                   	pop    %ebp
    400a:	c3                   	ret    
    400b:	90                   	nop
    400c:	8d 74 26 00          	lea    0x0(%esi,%eiz,1),%esi
    4010:	83 ec 0c             	sub    $0xc,%esp
    4013:	89 45 d4             	mov    %eax,-0x2c(%ebp)
    4016:	57                   	push   %edi
    4017:	e8 84 db 00 00       	call   11ba0 <free@plt>
    401c:	83 c4 10             	add    $0x10,%esp
    401f:	8b 45 d4             	mov    -0x2c(%ebp),%eax
    4022:	eb 8e                	jmp    3fb2 <audio_mixer_get_item_info+0x62>
    4024:	8d 74 26 00          	lea    0x0(%esi,%eiz,1),%esi
    4028:	b8 f2 ff ff ff       	mov    $0xfffffff2,%eax
    402d:	eb 83                	jmp    3fb2 <audio_mixer_get_item_info+0x62>
    402f:	53                   	push   %ebx
    4030:	6a 00                	push   $0x0
    4032:	6a ff                	push   $0xffffffff
    4034:	56                   	push   %esi
    4035:	e8 36 d9 00 00       	call   11970 <async_data_read_start@plt>
    403a:	83 c4 10             	add    $0x10,%esp
    403d:	b8 fe ff ff ff       	mov    $0xfffffffe,%eax
    4042:	e9 6b ff ff ff       	jmp    3fb2 <audio_mixer_get_item_info+0x62>
    4047:	89 f6                	mov    %esi,%esi
    4049:	8d bc 27 00 00 00 00 	lea    0x0(%edi,%eiz,1),%edi

00004050 <audio_mixer_set_item_level>:
    4050:	55                   	push   %ebp
    4051:	89 e5                	mov    %esp,%ebp
    4053:	83 ec 08             	sub    $0x8,%esp
    4056:	8b 45 08             	mov    0x8(%ebp),%eax
    4059:	85 c0                	test   %eax,%eax
    405b:	74 2b                	je     4088 <audio_mixer_set_item_level+0x38>
    405d:	8b 4d 10             	mov    0x10(%ebp),%ecx
    4060:	52                   	push   %edx
    4061:	8b 55 0c             	mov    0xc(%ebp),%edx
    4064:	6a 00                	push   $0x0
    4066:	6a 00                	push   $0x0
    4068:	6a 00                	push   $0x0
    406a:	6a 00                	push   $0x0
    406c:	6a 00                	push   $0x0
    406e:	6a 00                	push   $0x0
    4070:	51                   	push   %ecx
    4071:	52                   	push   %edx
    4072:	6a 02                	push   $0x2
    4074:	68 03 04 00 00       	push   $0x403
    4079:	50                   	push   %eax
    407a:	e8 71 d6 00 00       	call   116f0 <async_req_fast@plt>
    407f:	83 c4 30             	add    $0x30,%esp
    4082:	c9                   	leave  
    4083:	c3                   	ret    
    4084:	8d 74 26 00          	lea    0x0(%esi,%eiz,1),%esi
    4088:	b8 f2 ff ff ff       	mov    $0xfffffff2,%eax
    408d:	c9                   	leave  
    408e:	c3                   	ret    
    408f:	90                   	nop

00004090 <audio_mixer_get_item_level>:
    4090:	55                   	push   %ebp
    4091:	89 e5                	mov    %esp,%ebp
    4093:	53                   	push   %ebx
    4094:	83 ec 14             	sub    $0x14,%esp
    4097:	8b 45 08             	mov    0x8(%ebp),%eax
    409a:	8b 5d 10             	mov    0x10(%ebp),%ebx
    409d:	85 c0                	test   %eax,%eax
    409f:	74 37                	je     40d8 <audio_mixer_get_item_level+0x48>
    40a1:	8b 4d 0c             	mov    0xc(%ebp),%ecx
    40a4:	52                   	push   %edx
    40a5:	8d 55 f4             	lea    -0xc(%ebp),%edx
    40a8:	6a 00                	push   $0x0
    40aa:	6a 00                	push   $0x0
    40ac:	6a 00                	push   $0x0
    40ae:	6a 00                	push   $0x0
    40b0:	52                   	push   %edx
    40b1:	6a 00                	push   $0x0
    40b3:	6a 00                	push   $0x0
    40b5:	51                   	push   %ecx
    40b6:	6a 03                	push   $0x3
    40b8:	68 03 04 00 00       	push   $0x403
    40bd:	50                   	push   %eax
    40be:	e8 2d d6 00 00       	call   116f0 <async_req_fast@plt>
    40c3:	83 c4 30             	add    $0x30,%esp
    40c6:	85 c0                	test   %eax,%eax
    40c8:	75 09                	jne    40d3 <audio_mixer_get_item_level+0x43>
    40ca:	85 db                	test   %ebx,%ebx
    40cc:	74 05                	je     40d3 <audio_mixer_get_item_level+0x43>
    40ce:	8b 55 f4             	mov    -0xc(%ebp),%edx
    40d1:	89 13                	mov    %edx,(%ebx)
    40d3:	8b 5d fc             	mov    -0x4(%ebp),%ebx
    40d6:	c9                   	leave  
    40d7:	c3                   	ret    
    40d8:	b8 f2 ff ff ff       	mov    $0xfffffff2,%eax
    40dd:	eb f4                	jmp    40d3 <audio_mixer_get_item_level+0x43>
    40df:	90                   	nop

000040e0 <remote_audio_pcm_stop_capture>:
    40e0:	55                   	push   %ebp
    40e1:	89 e5                	mov    %esp,%ebp
    40e3:	53                   	push   %ebx
    40e4:	50                   	push   %eax
    40e5:	8b 45 14             	mov    0x14(%ebp),%eax
    40e8:	8b 4d 08             	mov    0x8(%ebp),%ecx
    40eb:	8b 5d 10             	mov    0x10(%ebp),%ebx
    40ee:	8b 50 08             	mov    0x8(%eax),%edx
    40f1:	85 d2                	test   %edx,%edx
    40f3:	8b 55 0c             	mov    0xc(%ebp),%edx
    40f6:	0f 95 c0             	setne  %al
    40f9:	8b 52 2c             	mov    0x2c(%edx),%edx
    40fc:	85 d2                	test   %edx,%edx
    40fe:	74 20                	je     4120 <remote_audio_pcm_stop_capture+0x40>
    4100:	83 ec 08             	sub    $0x8,%esp
    4103:	25 ff 00 00 00       	and    $0xff,%eax
    4108:	50                   	push   %eax
    4109:	51                   	push   %ecx
    410a:	ff d2                	call   *%edx
    410c:	89 5d 08             	mov    %ebx,0x8(%ebp)
    410f:	83 c4 10             	add    $0x10,%esp
    4112:	8b 5d fc             	mov    -0x4(%ebp),%ebx
    4115:	89 45 0c             	mov    %eax,0xc(%ebp)
    4118:	c9                   	leave  
    4119:	e9 e2 d5 00 00       	jmp    11700 <async_answer_0@plt>
    411e:	66 90                	xchg   %ax,%ax
    4120:	89 5d 08             	mov    %ebx,0x8(%ebp)
    4123:	b8 f5 ff ff ff       	mov    $0xfffffff5,%eax
    4128:	8b 5d fc             	mov    -0x4(%ebp),%ebx
    412b:	89 45 0c             	mov    %eax,0xc(%ebp)
    412e:	c9                   	leave  
    412f:	e9 cc d5 00 00       	jmp    11700 <async_answer_0@plt>
    4134:	8d b6 00 00 00 00    	lea    0x0(%esi),%esi
    413a:	8d bf 00 00 00 00    	lea    0x0(%edi),%edi

00004140 <remote_audio_pcm_start_capture>:
    4140:	55                   	push   %ebp
    4141:	89 e5                	mov    %esp,%ebp
    4143:	57                   	push   %edi
    4144:	56                   	push   %esi
    4145:	53                   	push   %ebx
    4146:	83 ec 0c             	sub    $0xc,%esp
    4149:	8b 55 14             	mov    0x14(%ebp),%edx
    414c:	8b 7d 0c             	mov    0xc(%ebp),%edi
    414f:	8b 4d 08             	mov    0x8(%ebp),%ecx
    4152:	8b 5d 10             	mov    0x10(%ebp),%ebx
    4155:	8b 42 10             	mov    0x10(%edx),%eax
    4158:	8b 7f 28             	mov    0x28(%edi),%edi
    415b:	89 c6                	mov    %eax,%esi
    415d:	25 ff ff 00 00       	and    $0xffff,%eax
    4162:	c1 ee 10             	shr    $0x10,%esi
    4165:	85 ff                	test   %edi,%edi
    4167:	74 27                	je     4190 <remote_audio_pcm_start_capture+0x50>
    4169:	83 ec 0c             	sub    $0xc,%esp
    416c:	50                   	push   %eax
    416d:	8b 42 0c             	mov    0xc(%edx),%eax
    4170:	50                   	push   %eax
    4171:	56                   	push   %esi
    4172:	8b 52 08             	mov    0x8(%edx),%edx
    4175:	52                   	push   %edx
    4176:	51                   	push   %ecx
    4177:	ff d7                	call   *%edi
    4179:	83 c4 20             	add    $0x20,%esp
    417c:	89 5d 08             	mov    %ebx,0x8(%ebp)
    417f:	89 45 0c             	mov    %eax,0xc(%ebp)
    4182:	8d 65 f4             	lea    -0xc(%ebp),%esp
    4185:	5b                   	pop    %ebx
    4186:	5e                   	pop    %esi
    4187:	5f                   	pop    %edi
    4188:	5d                   	pop    %ebp
    4189:	e9 72 d5 00 00       	jmp    11700 <async_answer_0@plt>
    418e:	66 90                	xchg   %ax,%ax
    4190:	b8 f5 ff ff ff       	mov    $0xfffffff5,%eax
    4195:	eb e5                	jmp    417c <remote_audio_pcm_start_capture+0x3c>
    4197:	89 f6                	mov    %esi,%esi
    4199:	8d bc 27 00 00 00 00 	lea    0x0(%edi,%eiz,1),%edi

000041a0 <remote_audio_pcm_stop_playback>:
    41a0:	55                   	push   %ebp
    41a1:	89 e5                	mov    %esp,%ebp
    41a3:	53                   	push   %ebx
    41a4:	50                   	push   %eax
    41a5:	8b 45 14             	mov    0x14(%ebp),%eax
    41a8:	8b 4d 08             	mov    0x8(%ebp),%ecx
    41ab:	8b 5d 10             	mov    0x10(%ebp),%ebx
    41ae:	8b 50 08             	mov    0x8(%eax),%edx
    41b1:	85 d2                	test   %edx,%edx
    41b3:	8b 55 0c             	mov    0xc(%ebp),%edx
    41b6:	0f 95 c0             	setne  %al
    41b9:	8b 52 24             	mov    0x24(%edx),%edx
    41bc:	85 d2                	test   %edx,%edx
    41be:	74 20                	je     41e0 <remote_audio_pcm_stop_playback+0x40>
    41c0:	83 ec 08             	sub    $0x8,%esp
    41c3:	25 ff 00 00 00       	and    $0xff,%eax
    41c8:	50                   	push   %eax
    41c9:	51                   	push   %ecx
    41ca:	ff d2                	call   *%edx
    41cc:	89 5d 08             	mov    %ebx,0x8(%ebp)
    41cf:	83 c4 10             	add    $0x10,%esp
    41d2:	8b 5d fc             	mov    -0x4(%ebp),%ebx
    41d5:	89 45 0c             	mov    %eax,0xc(%ebp)
    41d8:	c9                   	leave  
    41d9:	e9 22 d5 00 00       	jmp    11700 <async_answer_0@plt>
    41de:	66 90                	xchg   %ax,%ax
    41e0:	89 5d 08             	mov    %ebx,0x8(%ebp)
    41e3:	b8 f5 ff ff ff       	mov    $0xfffffff5,%eax
    41e8:	8b 5d fc             	mov    -0x4(%ebp),%ebx
    41eb:	89 45 0c             	mov    %eax,0xc(%ebp)
    41ee:	c9                   	leave  
    41ef:	e9 0c d5 00 00       	jmp    11700 <async_answer_0@plt>
    41f4:	8d b6 00 00 00 00    	lea    0x0(%esi),%esi
    41fa:	8d bf 00 00 00 00    	lea    0x0(%edi),%edi

00004200 <remote_audio_pcm_start_playback>:
    4200:	55                   	push   %ebp
    4201:	89 e5                	mov    %esp,%ebp
    4203:	57                   	push   %edi
    4204:	56                   	push   %esi
    4205:	53                   	push   %ebx
    4206:	83 ec 0c             	sub    $0xc,%esp
    4209:	8b 4d 14             	mov    0x14(%ebp),%ecx
    420c:	8b 7d 0c             	mov    0xc(%ebp),%edi
    420f:	8b 75 08             	mov    0x8(%ebp),%esi
    4212:	8b 5d 10             	mov    0x10(%ebp),%ebx
    4215:	8b 41 10             	mov    0x10(%ecx),%eax
    4218:	8b 7f 20             	mov    0x20(%edi),%edi
    421b:	89 c2                	mov    %eax,%edx
    421d:	25 ff ff 00 00       	and    $0xffff,%eax
    4222:	c1 ea 10             	shr    $0x10,%edx
    4225:	81 e2 ff 00 00 00    	and    $0xff,%edx
    422b:	85 ff                	test   %edi,%edi
    422d:	74 29                	je     4258 <remote_audio_pcm_start_playback+0x58>
    422f:	83 ec 0c             	sub    $0xc,%esp
    4232:	50                   	push   %eax
    4233:	8b 41 0c             	mov    0xc(%ecx),%eax
    4236:	50                   	push   %eax
    4237:	52                   	push   %edx
    4238:	8b 51 08             	mov    0x8(%ecx),%edx
    423b:	52                   	push   %edx
    423c:	56                   	push   %esi
    423d:	ff d7                	call   *%edi
    423f:	83 c4 20             	add    $0x20,%esp
    4242:	89 5d 08             	mov    %ebx,0x8(%ebp)
    4245:	89 45 0c             	mov    %eax,0xc(%ebp)
    4248:	8d 65 f4             	lea    -0xc(%ebp),%esp
    424b:	5b                   	pop    %ebx
    424c:	5e                   	pop    %esi
    424d:	5f                   	pop    %edi
    424e:	5d                   	pop    %ebp
    424f:	e9 ac d4 00 00       	jmp    11700 <async_answer_0@plt>
    4254:	8d 74 26 00          	lea    0x0(%esi,%eiz,1),%esi
    4258:	b8 f5 ff ff ff       	mov    $0xfffffff5,%eax
    425d:	eb e3                	jmp    4242 <remote_audio_pcm_start_playback+0x42>
    425f:	90                   	nop

00004260 <remote_audio_pcm_release_buffer>:
    4260:	55                   	push   %ebp
    4261:	89 e5                	mov    %esp,%ebp
    4263:	53                   	push   %ebx
    4264:	50                   	push   %eax
    4265:	8b 45 0c             	mov    0xc(%ebp),%eax
    4268:	8b 55 08             	mov    0x8(%ebp),%edx
    426b:	8b 5d 10             	mov    0x10(%ebp),%ebx
    426e:	8b 40 14             	mov    0x14(%eax),%eax
    4271:	85 c0                	test   %eax,%eax
    4273:	74 1b                	je     4290 <remote_audio_pcm_release_buffer+0x30>
    4275:	83 ec 0c             	sub    $0xc,%esp
    4278:	52                   	push   %edx
    4279:	ff d0                	call   *%eax
    427b:	89 5d 08             	mov    %ebx,0x8(%ebp)
    427e:	83 c4 10             	add    $0x10,%esp
    4281:	8b 5d fc             	mov    -0x4(%ebp),%ebx
    4284:	89 45 0c             	mov    %eax,0xc(%ebp)
    4287:	c9                   	leave  
    4288:	e9 73 d4 00 00       	jmp    11700 <async_answer_0@plt>
    428d:	8d 76 00             	lea    0x0(%esi),%esi
    4290:	89 5d 08             	mov    %ebx,0x8(%ebp)
    4293:	b8 f5 ff ff ff       	mov    $0xfffffff5,%eax
    4298:	8b 5d fc             	mov    -0x4(%ebp),%ebx
    429b:	89 45 0c             	mov    %eax,0xc(%ebp)
    429e:	c9                   	leave  
    429f:	e9 5c d4 00 00       	jmp    11700 <async_answer_0@plt>
    42a4:	8d b6 00 00 00 00    	lea    0x0(%esi),%esi
    42aa:	8d bf 00 00 00 00    	lea    0x0(%edi),%edi

000042b0 <remote_audio_pcm_events_unregister>:
    42b0:	55                   	push   %ebp
    42b1:	89 e5                	mov    %esp,%ebp
    42b3:	57                   	push   %edi
    42b4:	56                   	push   %esi
    42b5:	53                   	push   %ebx
    42b6:	83 ec 0c             	sub    $0xc,%esp
    42b9:	8b 5d 0c             	mov    0xc(%ebp),%ebx
    42bc:	8b 75 08             	mov    0x8(%ebp),%esi
    42bf:	8b 7d 10             	mov    0x10(%ebp),%edi
    42c2:	8b 43 1c             	mov    0x1c(%ebx),%eax
    42c5:	85 c0                	test   %eax,%eax
    42c7:	74 3f                	je     4308 <remote_audio_pcm_events_unregister+0x58>
    42c9:	8b 4b 18             	mov    0x18(%ebx),%ecx
    42cc:	85 c9                	test   %ecx,%ecx
    42ce:	74 38                	je     4308 <remote_audio_pcm_events_unregister+0x58>
    42d0:	83 ec 0c             	sub    $0xc,%esp
    42d3:	56                   	push   %esi
    42d4:	ff d0                	call   *%eax
    42d6:	83 c4 10             	add    $0x10,%esp
    42d9:	85 c0                	test   %eax,%eax
    42db:	74 14                	je     42f1 <remote_audio_pcm_events_unregister+0x41>
    42dd:	83 ec 0c             	sub    $0xc,%esp
    42e0:	50                   	push   %eax
    42e1:	e8 9a d2 00 00       	call   11580 <async_hangup@plt>
    42e6:	58                   	pop    %eax
    42e7:	5a                   	pop    %edx
    42e8:	6a 00                	push   $0x0
    42ea:	56                   	push   %esi
    42eb:	ff 53 18             	call   *0x18(%ebx)
    42ee:	83 c4 10             	add    $0x10,%esp
    42f1:	89 7d 08             	mov    %edi,0x8(%ebp)
    42f4:	c7 45 0c 00 00 00 00 	movl   $0x0,0xc(%ebp)
    42fb:	8d 65 f4             	lea    -0xc(%ebp),%esp
    42fe:	5b                   	pop    %ebx
    42ff:	5e                   	pop    %esi
    4300:	5f                   	pop    %edi
    4301:	5d                   	pop    %ebp
    4302:	e9 f9 d3 00 00       	jmp    11700 <async_answer_0@plt>
    4307:	90                   	nop
    4308:	89 7d 08             	mov    %edi,0x8(%ebp)
    430b:	c7 45 0c f5 ff ff ff 	movl   $0xfffffff5,0xc(%ebp)
    4312:	8d 65 f4             	lea    -0xc(%ebp),%esp
    4315:	5b                   	pop    %ebx
    4316:	5e                   	pop    %esi
    4317:	5f                   	pop    %edi
    4318:	5d                   	pop    %ebp
    4319:	e9 e2 d3 00 00       	jmp    11700 <async_answer_0@plt>
    431e:	66 90                	xchg   %ax,%ax

00004320 <remote_audio_pcm_get_buffer_pos>:
    4320:	55                   	push   %ebp
    4321:	89 e5                	mov    %esp,%ebp
    4323:	83 ec 18             	sub    $0x18,%esp
    4326:	8b 45 0c             	mov    0xc(%ebp),%eax
    4329:	c7 45 f4 00 00 00 00 	movl   $0x0,-0xc(%ebp)
    4330:	8b 40 0c             	mov    0xc(%eax),%eax
    4333:	85 c0                	test   %eax,%eax
    4335:	74 29                	je     4360 <remote_audio_pcm_get_buffer_pos+0x40>
    4337:	8b 4d 08             	mov    0x8(%ebp),%ecx
