
usbhid:     file format elf32-i386


Disassembly of section .init:

000010f4 <__entry>:
    10f4:	66 8c d0             	mov    %ss,%ax
    10f7:	8e d8                	mov    %eax,%ds
    10f9:	8e c0                	mov    %eax,%es
    10fb:	8e e0                	mov    %eax,%fs
    10fd:	b8 01 00 00 00       	mov    $0x1,%eax
    1102:	0f a2                	cpuid  
    1104:	0f ba e2 0b          	bt     $0xb,%edx
    1108:	73 0c                	jae    1116 <__entry+0x22>
    110a:	8d 05 40 dc 01 00    	lea    0x1dc40,%eax
    1110:	c7 00 90 b4 01 00    	movl   $0x1b490,(%eax)
    1116:	6a 00                	push   $0x0
    1118:	6a 00                	push   $0x0
    111a:	89 e5                	mov    %esp,%ebp
    111c:	57                   	push   %edi
    111d:	e8 6e 9e 01 00       	call   1af90 <__main@plt>

Disassembly of section .text:

00001140 <usb_hid_device_rem>:
    1140:	55                   	push   %ebp
    1141:	b8 f5 ff ff ff       	mov    $0xfffffff5,%eax
    1146:	89 e5                	mov    %esp,%ebp
    1148:	5d                   	pop    %ebp
    1149:	c3                   	ret    
    114a:	8d b6 00 00 00 00    	lea    0x0(%esi),%esi

00001150 <usb_hid_device_add>:
    1150:	55                   	push   %ebp
    1151:	89 e5                	mov    %esp,%ebp
    1153:	57                   	push   %edi
    1154:	56                   	push   %esi
    1155:	53                   	push   %ebx
    1156:	83 ec 0c             	sub    $0xc,%esp
    1159:	8b 5d 08             	mov    0x8(%ebp),%ebx
    115c:	68 24 4e 01 00       	push   $0x14e24
    1161:	68 de 4f 01 00       	push   $0x14fde
    1166:	6a 04                	push   $0x4
    1168:	6a ff                	push   $0xffffffff
    116a:	e8 d1 9f 01 00       	call   1b140 <log_msg@plt>
    116f:	83 c4 10             	add    $0x10,%esp
    1172:	85 db                	test   %ebx,%ebx
    1174:	0f 84 17 01 00 00    	je     1291 <usb_hid_device_add+0x141>
    117a:	83 ec 0c             	sub    $0xc,%esp
    117d:	53                   	push   %ebx
    117e:	e8 fd 72 00 00       	call   8480 <usb_device_get_iface_number>
    1183:	83 c4 10             	add    $0x10,%esp
    1186:	85 c0                	test   %eax,%eax
    1188:	0f 88 ea 00 00 00    	js     1278 <usb_hid_device_add+0x128>
    118e:	50                   	push   %eax
    118f:	50                   	push   %eax
    1190:	6a 50                	push   $0x50
    1192:	53                   	push   %ebx
    1193:	e8 b8 7c 00 00       	call   8e50 <usb_device_data_alloc>
    1198:	83 c4 10             	add    $0x10,%esp
    119b:	89 c6                	mov    %eax,%esi
    119d:	85 c0                	test   %eax,%eax
    119f:	0f 84 08 01 00 00    	je     12ad <usb_hid_device_add+0x15d>
    11a5:	57                   	push   %edi
    11a6:	57                   	push   %edi
    11a7:	53                   	push   %ebx
    11a8:	50                   	push   %eax
    11a9:	e8 32 02 00 00       	call   13e0 <usb_hid_init>
    11ae:	83 c4 10             	add    $0x10,%esp
    11b1:	89 c7                	mov    %eax,%edi
    11b3:	85 c0                	test   %eax,%eax
    11b5:	0f 85 95 00 00 00    	jne    1250 <usb_hid_device_add+0x100>
    11bb:	50                   	push   %eax
    11bc:	68 88 4d 01 00       	push   $0x14d88
    11c1:	6a 04                	push   $0x4
    11c3:	6a ff                	push   $0xffffffff
    11c5:	e8 76 9f 01 00       	call   1b140 <log_msg@plt>
    11ca:	83 c4 0c             	add    $0xc,%esp
    11cd:	8b 46 04             	mov    0x4(%esi),%eax
    11d0:	56                   	push   %esi
    11d1:	68 40 1e 00 00       	push   $0x1e40
    11d6:	6a ff                	push   $0xffffffff
    11d8:	8b 50 0c             	mov    0xc(%eax),%edx
    11db:	8b 48 1c             	mov    0x1c(%eax),%ecx
    11de:	52                   	push   %edx
    11df:	68 e0 1c 00 00       	push   $0x1ce0
    11e4:	51                   	push   %ecx
    11e5:	53                   	push   %ebx
    11e6:	e8 95 83 00 00       	call   9580 <usb_device_auto_poll_desc>
    11eb:	83 c4 20             	add    $0x20,%esp
    11ee:	89 c7                	mov    %eax,%edi
    11f0:	85 c0                	test   %eax,%eax
    11f2:	75 2c                	jne    1220 <usb_hid_device_add+0xd0>
    11f4:	83 ec 0c             	sub    $0xc,%esp
    11f7:	c6 46 4c 01          	movb   $0x1,0x4c(%esi)
    11fb:	53                   	push   %ebx
    11fc:	e8 7f 7b 00 00       	call   8d80 <usb_device_get_name>
    1201:	50                   	push   %eax
    1202:	68 8e 4c 01 00       	push   $0x14c8e
    1207:	6a 03                	push   $0x3
    1209:	6a ff                	push   $0xffffffff
    120b:	e8 30 9f 01 00       	call   1b140 <log_msg@plt>
    1210:	83 c4 20             	add    $0x20,%esp
    1213:	8d 65 f4             	lea    -0xc(%ebp),%esp
    1216:	89 f8                	mov    %edi,%eax
    1218:	5b                   	pop    %ebx
    1219:	5e                   	pop    %esi
    121a:	5f                   	pop    %edi
    121b:	5d                   	pop    %ebp
    121c:	c3                   	ret    
    121d:	8d 76 00             	lea    0x0(%esi),%esi
    1220:	83 ec 0c             	sub    $0xc,%esp
    1223:	53                   	push   %ebx
    1224:	e8 57 7b 00 00       	call   8d80 <usb_device_get_name>
    1229:	50                   	push   %eax
    122a:	68 b0 4d 01 00       	push   $0x14db0
    122f:	6a 01                	push   $0x1
    1231:	6a ff                	push   $0xffffffff
    1233:	e8 08 9f 01 00       	call   1b140 <log_msg@plt>
    1238:	83 c4 14             	add    $0x14,%esp
    123b:	56                   	push   %esi
    123c:	e8 af 0c 00 00       	call   1ef0 <usb_hid_deinit>
    1241:	83 c4 10             	add    $0x10,%esp
    1244:	8d 65 f4             	lea    -0xc(%ebp),%esp
    1247:	89 f8                	mov    %edi,%eax
    1249:	5b                   	pop    %ebx
    124a:	5e                   	pop    %esi
    124b:	5f                   	pop    %edi
    124c:	5d                   	pop    %ebp
    124d:	c3                   	ret    
    124e:	66 90                	xchg   %ax,%ax
    1250:	53                   	push   %ebx
    1251:	68 60 4d 01 00       	push   $0x14d60
    1256:	6a 01                	push   $0x1
    1258:	6a ff                	push   $0xffffffff
    125a:	e8 e1 9e 01 00       	call   1b140 <log_msg@plt>
    125f:	89 34 24             	mov    %esi,(%esp)
    1262:	e8 89 0c 00 00       	call   1ef0 <usb_hid_deinit>
    1267:	83 c4 10             	add    $0x10,%esp
    126a:	8d 65 f4             	lea    -0xc(%ebp),%esp
    126d:	89 f8                	mov    %edi,%eax
    126f:	5b                   	pop    %ebx
    1270:	5e                   	pop    %esi
    1271:	5f                   	pop    %edi
    1272:	5d                   	pop    %ebp
    1273:	c3                   	ret    
    1274:	8d 74 26 00          	lea    0x0(%esi,%eiz,1),%esi
    1278:	50                   	push   %eax
    1279:	68 04 4d 01 00       	push   $0x14d04
    127e:	6a 01                	push   $0x1
    1280:	6a ff                	push   $0xffffffff
    1282:	bf f5 ff ff ff       	mov    $0xfffffff5,%edi
    1287:	e8 b4 9e 01 00       	call   1b140 <log_msg@plt>
    128c:	83 c4 10             	add    $0x10,%esp
    128f:	eb 82                	jmp    1213 <usb_hid_device_add+0xc3>
    1291:	50                   	push   %eax
    1292:	68 d8 4c 01 00       	push   $0x14cd8
    1297:	6a 01                	push   $0x1
    1299:	6a ff                	push   $0xffffffff
    129b:	bf f2 ff ff ff       	mov    $0xfffffff2,%edi
    12a0:	e8 9b 9e 01 00       	call   1b140 <log_msg@plt>
    12a5:	83 c4 10             	add    $0x10,%esp
    12a8:	e9 66 ff ff ff       	jmp    1213 <usb_hid_device_add+0xc3>
    12ad:	50                   	push   %eax
    12ae:	68 34 4d 01 00       	push   $0x14d34
    12b3:	6a 01                	push   $0x1
    12b5:	6a ff                	push   $0xffffffff
    12b7:	bf fe ff ff ff       	mov    $0xfffffffe,%edi
    12bc:	e8 7f 9e 01 00       	call   1b140 <log_msg@plt>
    12c1:	83 c4 10             	add    $0x10,%esp
    12c4:	e9 4a ff ff ff       	jmp    1213 <usb_hid_device_add+0xc3>
    12c9:	8d b4 26 00 00 00 00 	lea    0x0(%esi,%eiz,1),%esi

000012d0 <usb_hid_device_gone>:
    12d0:	55                   	push   %ebp
    12d1:	89 e5                	mov    %esp,%ebp
    12d3:	57                   	push   %edi
    12d4:	56                   	push   %esi
    12d5:	53                   	push   %ebx
    12d6:	83 ec 0c             	sub    $0xc,%esp
    12d9:	8b 7d 08             	mov    0x8(%ebp),%edi
    12dc:	85 ff                	test   %edi,%edi
    12de:	0f 84 a0 00 00 00    	je     1384 <usb_hid_device_gone+0xb4>
    12e4:	83 ec 0c             	sub    $0xc,%esp
    12e7:	57                   	push   %edi
    12e8:	e8 c3 7b 00 00       	call   8eb0 <usb_device_data_get>
    12ed:	83 c4 10             	add    $0x10,%esp
    12f0:	89 c6                	mov    %eax,%esi
    12f2:	85 c0                	test   %eax,%eax
    12f4:	74 79                	je     136f <usb_hid_device_gone+0x9f>
    12f6:	8a 40 4c             	mov    0x4c(%eax),%al
    12f9:	bb 64 00 00 00       	mov    $0x64,%ebx
    12fe:	84 c0                	test   %al,%al
    1300:	75 09                	jne    130b <usb_hid_device_gone+0x3b>
    1302:	eb 1e                	jmp    1322 <usb_hid_device_gone+0x52>
    1304:	8d 74 26 00          	lea    0x0(%esi,%eiz,1),%esi
    1308:	4b                   	dec    %ebx
    1309:	74 17                	je     1322 <usb_hid_device_gone+0x52>
    130b:	83 ec 0c             	sub    $0xc,%esp
    130e:	68 a0 86 01 00       	push   $0x186a0
    1313:	e8 28 a0 01 00       	call   1b340 <async_usleep@plt>
    1318:	8a 46 4c             	mov    0x4c(%esi),%al
    131b:	83 c4 10             	add    $0x10,%esp
    131e:	84 c0                	test   %al,%al
    1320:	75 e6                	jne    1308 <usb_hid_device_gone+0x38>
    1322:	8a 46 4c             	mov    0x4c(%esi),%al
    1325:	84 c0                	test   %al,%al
    1327:	75 2d                	jne    1356 <usb_hid_device_gone+0x86>
    1329:	83 ec 0c             	sub    $0xc,%esp
    132c:	56                   	push   %esi
    132d:	e8 be 0b 00 00       	call   1ef0 <usb_hid_deinit>
    1332:	89 3c 24             	mov    %edi,(%esp)
    1335:	e8 46 7a 00 00       	call   8d80 <usb_device_get_name>
    133a:	50                   	push   %eax
    133b:	68 b5 4c 01 00       	push   $0x14cb5
    1340:	6a 05                	push   $0x5
    1342:	6a ff                	push   $0xffffffff
    1344:	e8 f7 9d 01 00       	call   1b140 <log_msg@plt>
    1349:	83 c4 20             	add    $0x20,%esp
    134c:	31 c0                	xor    %eax,%eax
    134e:	8d 65 f4             	lea    -0xc(%ebp),%esp
    1351:	5b                   	pop    %ebx
    1352:	5e                   	pop    %esi
    1353:	5f                   	pop    %edi
    1354:	5d                   	pop    %ebp
    1355:	c3                   	ret    
    1356:	50                   	push   %eax
    1357:	68 dc 4d 01 00       	push   $0x14ddc
    135c:	6a 01                	push   $0x1
    135e:	6a ff                	push   $0xffffffff
    1360:	e8 db 9d 01 00       	call   1b140 <log_msg@plt>
    1365:	83 c4 10             	add    $0x10,%esp
    1368:	b8 f1 ff ff ff       	mov    $0xfffffff1,%eax
    136d:	eb df                	jmp    134e <usb_hid_device_gone+0x7e>
    136f:	52                   	push   %edx
    1370:	68 8d 00 00 00       	push   $0x8d
    1375:	68 a6 4c 01 00       	push   $0x14ca6
    137a:	68 ad 4c 01 00       	push   $0x14cad
    137f:	e8 0c 9e 01 00       	call   1b190 <assert_abort@plt>
    1384:	51                   	push   %ecx
    1385:	68 8b 00 00 00       	push   $0x8b
    138a:	68 a6 4c 01 00       	push   $0x14ca6
    138f:	68 90 4e 01 00       	push   $0x14e90
    1394:	e8 f7 9d 01 00       	call   1b190 <assert_abort@plt>
    1399:	66 90                	xchg   %ax,%ax
    139b:	66 90                	xchg   %ax,%ax
    139d:	66 90                	xchg   %ax,%ax
    139f:	90                   	nop

000013a0 <main>:
    13a0:	8d 4c 24 04          	lea    0x4(%esp),%ecx
    13a4:	83 e4 f0             	and    $0xfffffff0,%esp
    13a7:	ff 71 fc             	pushl  -0x4(%ecx)
    13aa:	55                   	push   %ebp
    13ab:	89 e5                	mov    %esp,%ebp
    13ad:	51                   	push   %ecx
    13ae:	83 ec 10             	sub    $0x10,%esp
    13b1:	68 00 4e 01 00       	push   $0x14e00
    13b6:	e8 35 9c 01 00       	call   1aff0 <printf@plt>
    13bb:	c7 04 24 cf 4c 01 00 	movl   $0x14ccf,(%esp)
    13c2:	e8 99 9c 01 00       	call   1b060 <log_init@plt>
    13c7:	c7 04 24 38 4e 01 00 	movl   $0x14e38,(%esp)
    13ce:	e8 6d 6b 00 00       	call   7f40 <usb_driver_main>
    13d3:	8b 4d fc             	mov    -0x4(%ebp),%ecx
    13d6:	c9                   	leave  
    13d7:	8d 61 fc             	lea    -0x4(%ecx),%esp
    13da:	c3                   	ret    
    13db:	66 90                	xchg   %ax,%ax
    13dd:	66 90                	xchg   %ax,%ax
    13df:	90                   	nop

000013e0 <usb_hid_init>:
    13e0:	55                   	push   %ebp
    13e1:	89 e5                	mov    %esp,%ebp
    13e3:	57                   	push   %edi
    13e4:	56                   	push   %esi
    13e5:	53                   	push   %ebx
    13e6:	83 ec 3c             	sub    $0x3c,%esp
    13e9:	8b 45 08             	mov    0x8(%ebp),%eax
    13ec:	8b 5d 0c             	mov    0xc(%ebp),%ebx
    13ef:	85 c0                	test   %eax,%eax
    13f1:	0f 84 79 08 00 00    	je     1c70 <usb_hid_init+0x890>
    13f7:	85 db                	test   %ebx,%ebx
    13f9:	0f 84 5c 08 00 00    	je     1c5b <usb_hid_init+0x87b>
    13ff:	50                   	push   %eax
    1400:	68 1c 50 01 00       	push   $0x1501c
    1405:	6a 04                	push   $0x4
    1407:	6a ff                	push   $0xffffffff
    1409:	e8 32 9d 01 00       	call   1b140 <log_msg@plt>
    140e:	8b 45 08             	mov    0x8(%ebp),%eax
    1411:	83 c0 18             	add    $0x18,%eax
    1414:	31 f6                	xor    %esi,%esi
    1416:	89 45 cc             	mov    %eax,-0x34(%ebp)
    1419:	89 04 24             	mov    %eax,(%esp)
    141c:	e8 4f 30 00 00       	call   4470 <usb_hid_report_init>
    1421:	8b 45 08             	mov    0x8(%ebp),%eax
    1424:	83 c4 10             	add    $0x10,%esp
    1427:	89 18                	mov    %ebx,(%eax)
    1429:	c7 40 04 00 00 00 00 	movl   $0x0,0x4(%eax)
    1430:	8b 04 f5 e8 53 01 00 	mov    0x153e8(,%esi,8),%eax
    1437:	57                   	push   %edi
    1438:	57                   	push   %edi
    1439:	50                   	push   %eax
    143a:	53                   	push   %ebx
    143b:	e8 80 6f 00 00       	call   83c0 <usb_device_get_mapped_ep_desc>
    1440:	83 c4 10             	add    $0x10,%esp
    1443:	85 c0                	test   %eax,%eax
    1445:	74 07                	je     144e <usb_hid_init+0x6e>
    1447:	8a 50 30             	mov    0x30(%eax),%dl
    144a:	84 d2                	test   %dl,%dl
    144c:	75 18                	jne    1466 <usb_hid_init+0x86>
    144e:	46                   	inc    %esi
    144f:	83 fe 03             	cmp    $0x3,%esi
    1452:	75 dc                	jne    1430 <usb_hid_init+0x50>
    1454:	c7 45 d4 f5 ff ff ff 	movl   $0xfffffff5,-0x2c(%ebp)
    145b:	8b 45 d4             	mov    -0x2c(%ebp),%eax
    145e:	8d 65 f4             	lea    -0xc(%ebp),%esp
    1461:	5b                   	pop    %ebx
    1462:	5e                   	pop    %esi
    1463:	5f                   	pop    %edi
    1464:	5d                   	pop    %ebp
    1465:	c3                   	ret    
    1466:	89 45 e4             	mov    %eax,-0x1c(%ebp)
    1469:	8b 04 f5 ec 53 01 00 	mov    0x153ec(,%esi,8),%eax
    1470:	88 55 d3             	mov    %dl,-0x2d(%ebp)
    1473:	50                   	push   %eax
    1474:	68 59 4e 01 00       	push   $0x14e59
    1479:	6a 04                	push   $0x4
    147b:	6a ff                	push   $0xffffffff
    147d:	e8 be 9c 01 00       	call   1b140 <log_msg@plt>
    1482:	8b 4d 08             	mov    0x8(%ebp),%ecx
    1485:	8b 45 e4             	mov    -0x1c(%ebp),%eax
    1488:	8b 55 cc             	mov    -0x34(%ebp),%edx
    148b:	89 41 04             	mov    %eax,0x4(%ecx)
    148e:	89 c8                	mov    %ecx,%eax
    1490:	83 c0 14             	add    $0x14,%eax
    1493:	50                   	push   %eax
    1494:	8b 45 08             	mov    0x8(%ebp),%eax
    1497:	83 c0 10             	add    $0x10,%eax
    149a:	50                   	push   %eax
    149b:	8b 45 08             	mov    0x8(%ebp),%eax
    149e:	52                   	push   %edx
    149f:	8b 08                	mov    (%eax),%ecx
    14a1:	51                   	push   %ecx
    14a2:	e8 19 60 00 00       	call   74c0 <usb_hid_process_report_descriptor>
    14a7:	83 c4 20             	add    $0x20,%esp
    14aa:	89 45 d4             	mov    %eax,-0x2c(%ebp)
    14ad:	85 c0                	test   %eax,%eax
    14af:	0f 85 5b 01 00 00    	jne    1610 <usb_hid_init+0x230>
    14b5:	a1 00 54 01 00       	mov    0x15400,%eax
    14ba:	89 65 c0             	mov    %esp,-0x40(%ebp)
    14bd:	8d 04 85 12 00 00 00 	lea    0x12(,%eax,4),%eax
    14c4:	83 e0 f0             	and    $0xfffffff0,%eax
    14c7:	29 c4                	sub    %eax,%esp
    14c9:	a1 00 54 01 00       	mov    0x15400,%eax
    14ce:	89 65 c4             	mov    %esp,-0x3c(%ebp)
    14d1:	85 c0                	test   %eax,%eax
    14d3:	0f 84 19 01 00 00    	je     15f2 <usb_hid_init+0x212>
    14d9:	bf 34 54 01 00       	mov    $0x15434,%edi
    14de:	c7 45 c8 00 00 00 00 	movl   $0x0,-0x38(%ebp)
    14e5:	89 7d e0             	mov    %edi,-0x20(%ebp)
    14e8:	c7 45 dc 00 00 00 00 	movl   $0x0,-0x24(%ebp)
    14ef:	8b 7d cc             	mov    -0x34(%ebp),%edi
    14f2:	8d b6 00 00 00 00    	lea    0x0(%esi),%esi
    14f8:	8b 45 e0             	mov    -0x20(%ebp),%eax
    14fb:	8b 58 f8             	mov    -0x8(%eax),%ebx
    14fe:	85 db                	test   %ebx,%ebx
    1500:	0f 88 52 03 00 00    	js     1858 <usb_hid_init+0x478>
    1506:	8b 70 fc             	mov    -0x4(%eax),%esi
    1509:	85 f6                	test   %esi,%esi
    150b:	0f 88 ef 01 00 00    	js     1700 <usb_hid_init+0x320>
    1511:	83 ec 0c             	sub    $0xc,%esp
    1514:	56                   	push   %esi
    1515:	53                   	push   %ebx
    1516:	68 f4 52 01 00       	push   $0x152f4
    151b:	6a 04                	push   $0x4
    151d:	6a ff                	push   $0xffffffff
    151f:	e8 1c 9c 01 00       	call   1b140 <log_msg@plt>
    1524:	8b 45 08             	mov    0x8(%ebp),%eax
    1527:	83 c4 20             	add    $0x20,%esp
    152a:	8b 00                	mov    (%eax),%eax
    152c:	85 c0                	test   %eax,%eax
    152e:	0f 84 51 07 00 00    	je     1c85 <usb_hid_init+0x8a5>
    1534:	83 ec 0c             	sub    $0xc,%esp
    1537:	50                   	push   %eax
    1538:	e8 a3 6f 00 00       	call   84e0 <usb_device_descriptors>
    153d:	31 d2                	xor    %edx,%edx
    153f:	83 c4 10             	add    $0x10,%esp
    1542:	66 8b 50 08          	mov    0x8(%eax),%dx
    1546:	39 d3                	cmp    %edx,%ebx
    1548:	0f 84 e2 01 00 00    	je     1730 <usb_hid_init+0x350>
    154e:	8b 45 e0             	mov    -0x20(%ebp),%eax
    1551:	8b 70 ec             	mov    -0x14(%eax),%esi
    1554:	85 f6                	test   %esi,%esi
    1556:	74 70                	je     15c8 <usb_hid_init+0x1e8>
    1558:	50                   	push   %eax
    1559:	68 a4 50 01 00       	push   $0x150a4
    155e:	6a 04                	push   $0x4
    1560:	6a ff                	push   $0xffffffff
    1562:	e8 d9 9b 01 00       	call   1b140 <log_msg@plt>
    1567:	e8 54 5d 00 00       	call   72c0 <usb_hid_report_path>
    156c:	83 c4 10             	add    $0x10,%esp
    156f:	89 c3                	mov    %eax,%ebx
    1571:	c6 45 d2 00          	movb   $0x0,-0x2e(%ebp)
    1575:	85 c0                	test   %eax,%eax
    1577:	0f 84 0e 06 00 00    	je     1b8b <usb_hid_init+0x7ab>
    157d:	8d 76 00             	lea    0x0(%esi),%esi
    1580:	8b 46 04             	mov    0x4(%esi),%eax
    1583:	8b 16                	mov    (%esi),%edx
    1585:	85 c0                	test   %eax,%eax
    1587:	75 08                	jne    1591 <usb_hid_init+0x1b1>
    1589:	85 d2                	test   %edx,%edx
    158b:	0f 84 2f 02 00 00    	je     17c0 <usb_hid_init+0x3e0>
    1591:	51                   	push   %ecx
    1592:	50                   	push   %eax
    1593:	52                   	push   %edx
    1594:	53                   	push   %ebx
    1595:	e8 e6 57 00 00       	call   6d80 <usb_hid_report_path_append_item>
    159a:	83 c6 08             	add    $0x8,%esi
    159d:	83 c4 10             	add    $0x10,%esp
    15a0:	85 c0                	test   %eax,%eax
    15a2:	74 dc                	je     1580 <usb_hid_init+0x1a0>
    15a4:	50                   	push   %eax
    15a5:	68 cc 50 01 00       	push   $0x150cc
    15aa:	6a 04                	push   $0x4
    15ac:	6a ff                	push   $0xffffffff
    15ae:	e8 8d 9b 01 00       	call   1b140 <log_msg@plt>
    15b3:	89 1c 24             	mov    %ebx,(%esp)
    15b6:	e8 45 5d 00 00       	call   7300 <usb_hid_report_path_free>
    15bb:	83 c4 10             	add    $0x10,%esp
    15be:	80 7d d2 00          	cmpb   $0x0,-0x2e(%ebp)
    15c2:	0f 85 d0 01 00 00    	jne    1798 <usb_hid_init+0x3b8>
    15c8:	8b 4d dc             	mov    -0x24(%ebp),%ecx
    15cb:	8b 5d e0             	mov    -0x20(%ebp),%ebx
    15ce:	41                   	inc    %ecx
    15cf:	83 c3 28             	add    $0x28,%ebx
    15d2:	89 4d dc             	mov    %ecx,-0x24(%ebp)
    15d5:	89 5d e0             	mov    %ebx,-0x20(%ebp)
    15d8:	8b 45 dc             	mov    -0x24(%ebp),%eax
    15db:	39 05 00 54 01 00    	cmp    %eax,0x15400
    15e1:	0f 85 11 ff ff ff    	jne    14f8 <usb_hid_init+0x118>
    15e7:	8b 5d c8             	mov    -0x38(%ebp),%ebx
    15ea:	85 db                	test   %ebx,%ebx
    15ec:	0f 85 10 05 00 00    	jne    1b02 <usb_hid_init+0x722>
    15f2:	8b 45 08             	mov    0x8(%ebp),%eax
    15f5:	c7 40 0c 00 00 00 00 	movl   $0x0,0xc(%eax)
    15fc:	c7 40 08 00 00 00 00 	movl   $0x0,0x8(%eax)
    1603:	8b 45 08             	mov    0x8(%ebp),%eax
    1606:	8b 65 c0             	mov    -0x40(%ebp),%esp
    1609:	8b 40 0c             	mov    0xc(%eax),%eax
    160c:	eb 27                	jmp    1635 <usb_hid_init+0x255>
    160e:	66 90                	xchg   %ax,%ax
    1610:	50                   	push   %eax
    1611:	68 f0 50 01 00       	push   $0x150f0
    1616:	6a 01                	push   $0x1
    1618:	6a ff                	push   $0xffffffff
    161a:	e8 21 9b 01 00       	call   1b140 <log_msg@plt>
    161f:	8b 45 08             	mov    0x8(%ebp),%eax
    1622:	83 c4 10             	add    $0x10,%esp
    1625:	c7 40 08 00 00 00 00 	movl   $0x0,0x8(%eax)
    162c:	c7 40 0c 00 00 00 00 	movl   $0x0,0xc(%eax)
    1633:	31 c0                	xor    %eax,%eax
    1635:	50                   	push   %eax
    1636:	68 20 51 01 00       	push   $0x15120
    163b:	6a 04                	push   $0x4
    163d:	6a ff                	push   $0xffffffff
    163f:	e8 fc 9a 01 00       	call   1b140 <log_msg@plt>
    1644:	8b 45 08             	mov    0x8(%ebp),%eax
    1647:	8b 40 0c             	mov    0xc(%eax),%eax
    164a:	83 c4 10             	add    $0x10,%esp
    164d:	85 c0                	test   %eax,%eax
    164f:	75 69                	jne    16ba <usb_hid_init+0x2da>
    1651:	8b 45 08             	mov    0x8(%ebp),%eax
    1654:	8b 40 08             	mov    0x8(%eax),%eax
    1657:	85 c0                	test   %eax,%eax
    1659:	0f 85 bc 05 00 00    	jne    1c1b <usb_hid_init+0x83b>
    165f:	50                   	push   %eax
    1660:	68 54 51 01 00       	push   $0x15154
    1665:	6a 03                	push   $0x3
    1667:	6a ff                	push   $0xffffffff
    1669:	e8 d2 9a 01 00       	call   1b140 <log_msg@plt>
    166e:	8b 45 08             	mov    0x8(%ebp),%eax
    1671:	8b 40 04             	mov    0x4(%eax),%eax
    1674:	83 c4 10             	add    $0x10,%esp
    1677:	8b 40 2c             	mov    0x2c(%eax),%eax
    167a:	8a 40 07             	mov    0x7(%eax),%al
    167d:	3c 01                	cmp    $0x1,%al
    167f:	0f 84 f0 03 00 00    	je     1a75 <usb_hid_init+0x695>
    1685:	3c 02                	cmp    $0x2,%al
    1687:	0f 85 81 03 00 00    	jne    1a0e <usb_hid_init+0x62e>
    168d:	50                   	push   %eax
    168e:	68 b8 51 01 00       	push   $0x151b8
    1693:	6a 03                	push   $0x3
    1695:	6a ff                	push   $0xffffffff
    1697:	e8 a4 9a 01 00       	call   1b140 <log_msg@plt>
    169c:	8b 4d 08             	mov    0x8(%ebp),%ecx
    169f:	5a                   	pop    %edx
    16a0:	51                   	push   %ecx
    16a1:	e8 fa 24 00 00       	call   3ba0 <usb_mouse_set_boot_protocol>
    16a6:	83 c4 10             	add    $0x10,%esp
    16a9:	89 45 d4             	mov    %eax,-0x2c(%ebp)
    16ac:	85 c0                	test   %eax,%eax
    16ae:	8b 45 08             	mov    0x8(%ebp),%eax
    16b1:	0f 84 09 05 00 00    	je     1bc0 <usb_hid_init+0x7e0>
    16b7:	8b 40 0c             	mov    0xc(%eax),%eax
    16ba:	50                   	push   %eax
    16bb:	68 08 52 01 00       	push   $0x15208
    16c0:	6a 04                	push   $0x4
    16c2:	6a ff                	push   $0xffffffff
    16c4:	e8 77 9a 01 00       	call   1b140 <log_msg@plt>
    16c9:	8b 45 08             	mov    0x8(%ebp),%eax
    16cc:	8b 40 0c             	mov    0xc(%eax),%eax
    16cf:	83 c4 10             	add    $0x10,%esp
    16d2:	85 c0                	test   %eax,%eax
    16d4:	0f 85 de 01 00 00    	jne    18b8 <usb_hid_init+0x4d8>
    16da:	8b 45 08             	mov    0x8(%ebp),%eax
    16dd:	8b 78 08             	mov    0x8(%eax),%edi
    16e0:	85 ff                	test   %edi,%edi
    16e2:	0f 85 af 05 00 00    	jne    1c97 <usb_hid_init+0x8b7>
    16e8:	53                   	push   %ebx
    16e9:	68 3c 52 01 00       	push   $0x1523c
    16ee:	6a 01                	push   $0x1
    16f0:	6a ff                	push   $0xffffffff
    16f2:	e8 49 9a 01 00       	call   1b140 <log_msg@plt>
    16f7:	83 c4 10             	add    $0x10,%esp
    16fa:	e9 55 fd ff ff       	jmp    1454 <usb_hid_init+0x74>
    16ff:	90                   	nop
    1700:	83 ec 0c             	sub    $0xc,%esp
    1703:	8b 45 dc             	mov    -0x24(%ebp),%eax
    1706:	53                   	push   %ebx
    1707:	50                   	push   %eax
    1708:	68 3c 50 01 00       	push   $0x1503c
    170d:	6a 02                	push   $0x2
    170f:	6a ff                	push   $0xffffffff
    1711:	e8 2a 9a 01 00       	call   1b140 <log_msg@plt>
    1716:	8b 45 e0             	mov    -0x20(%ebp),%eax
    1719:	83 c4 20             	add    $0x20,%esp
    171c:	8b 70 ec             	mov    -0x14(%eax),%esi
    171f:	85 f6                	test   %esi,%esi
    1721:	0f 85 31 fe ff ff    	jne    1558 <usb_hid_init+0x178>
    1727:	e9 9c fe ff ff       	jmp    15c8 <usb_hid_init+0x1e8>
    172c:	8d 74 26 00          	lea    0x0(%esi,%eiz,1),%esi
    1730:	66 8b 48 0a          	mov    0xa(%eax),%cx
    1734:	81 e1 ff ff 00 00    	and    $0xffff,%ecx
    173a:	39 ce                	cmp    %ecx,%esi
    173c:	0f 85 0c fe ff ff    	jne    154e <usb_hid_init+0x16e>
    1742:	53                   	push   %ebx
    1743:	68 9e 4f 01 00       	push   $0x14f9e
    1748:	6a 04                	push   $0x4
    174a:	6a ff                	push   $0xffffffff
    174c:	e8 ef 99 01 00       	call   1b140 <log_msg@plt>
    1751:	8b 45 e0             	mov    -0x20(%ebp),%eax
    1754:	8b 70 ec             	mov    -0x14(%eax),%esi
    1757:	83 c4 10             	add    $0x10,%esp
    175a:	85 f6                	test   %esi,%esi
    175c:	74 3a                	je     1798 <usb_hid_init+0x3b8>
    175e:	51                   	push   %ecx
    175f:	68 a4 50 01 00       	push   $0x150a4
    1764:	6a 04                	push   $0x4
    1766:	6a ff                	push   $0xffffffff
    1768:	e8 d3 99 01 00       	call   1b140 <log_msg@plt>
    176d:	e8 4e 5b 00 00       	call   72c0 <usb_hid_report_path>
    1772:	83 c4 10             	add    $0x10,%esp
    1775:	89 c3                	mov    %eax,%ebx
    1777:	8a 45 d3             	mov    -0x2d(%ebp),%al
    177a:	88 45 d2             	mov    %al,-0x2e(%ebp)
    177d:	85 db                	test   %ebx,%ebx
    177f:	0f 85 fb fd ff ff    	jne    1580 <usb_hid_init+0x1a0>
    1785:	52                   	push   %edx
    1786:	68 65 4e 01 00       	push   $0x14e65
    178b:	6a 04                	push   $0x4
    178d:	6a ff                	push   $0xffffffff
    178f:	e8 ac 99 01 00       	call   1b140 <log_msg@plt>
    1794:	83 c4 10             	add    $0x10,%esp
    1797:	90                   	nop
    1798:	56                   	push   %esi
    1799:	68 c7 4e 01 00       	push   $0x14ec7
    179e:	6a 04                	push   $0x4
    17a0:	6a ff                	push   $0xffffffff
    17a2:	e8 99 99 01 00       	call   1b140 <log_msg@plt>
    17a7:	8b 45 c8             	mov    -0x38(%ebp),%eax
    17aa:	8b 4d c4             	mov    -0x3c(%ebp),%ecx
    17ad:	8b 55 e0             	mov    -0x20(%ebp),%edx
    17b0:	83 c4 10             	add    $0x10,%esp
    17b3:	89 14 81             	mov    %edx,(%ecx,%eax,4)
    17b6:	40                   	inc    %eax
    17b7:	89 45 c8             	mov    %eax,-0x38(%ebp)
    17ba:	e9 09 fe ff ff       	jmp    15c8 <usb_hid_init+0x1e8>
    17bf:	90                   	nop
    17c0:	8b 75 e0             	mov    -0x20(%ebp),%esi
    17c3:	8b 46 f4             	mov    -0xc(%esi),%eax
    17c6:	89 45 d8             	mov    %eax,-0x28(%ebp)
    17c9:	50                   	push   %eax
    17ca:	68 94 4e 01 00       	push   $0x14e94
    17cf:	6a 04                	push   $0x4
    17d1:	6a ff                	push   $0xffffffff
    17d3:	e8 68 99 01 00       	call   1b140 <log_msg@plt>
    17d8:	8a 46 f0             	mov    -0x10(%esi),%al
    17db:	83 c4 10             	add    $0x10,%esp
    17de:	eb 42                	jmp    1822 <usb_hid_init+0x442>
    17e0:	83 ec 0c             	sub    $0xc,%esp
    17e3:	8b 45 d8             	mov    -0x28(%ebp),%eax
    17e6:	6a 01                	push   $0x1
    17e8:	50                   	push   %eax
    17e9:	53                   	push   %ebx
    17ea:	6a 00                	push   $0x0
    17ec:	57                   	push   %edi
    17ed:	e8 ae 53 00 00       	call   6ba0 <usb_hid_report_get_sibling>
    17f2:	83 c4 20             	add    $0x20,%esp
    17f5:	50                   	push   %eax
    17f6:	89 45 e4             	mov    %eax,-0x1c(%ebp)
    17f9:	68 bc 4e 01 00       	push   $0x14ebc
    17fe:	6a 04                	push   $0x4
    1800:	6a ff                	push   $0xffffffff
    1802:	e8 39 99 01 00       	call   1b140 <log_msg@plt>
    1807:	8b 45 e4             	mov    -0x1c(%ebp),%eax
    180a:	83 c4 10             	add    $0x10,%esp
    180d:	85 c0                	test   %eax,%eax
    180f:	75 77                	jne    1888 <usb_hid_init+0x4a8>
    1811:	50                   	push   %eax
    1812:	6a 01                	push   $0x1
    1814:	56                   	push   %esi
    1815:	57                   	push   %edi
    1816:	e8 55 54 00 00       	call   6c70 <usb_hid_get_next_report_id>
    181b:	83 c4 10             	add    $0x10,%esp
    181e:	84 c0                	test   %al,%al
    1820:	74 7e                	je     18a0 <usb_hid_init+0x4c0>
    1822:	89 c6                	mov    %eax,%esi
    1824:	88 45 e4             	mov    %al,-0x1c(%ebp)
    1827:	81 e6 ff 00 00 00    	and    $0xff,%esi
    182d:	56                   	push   %esi
    182e:	68 a7 4e 01 00       	push   $0x14ea7
    1833:	6a 04                	push   $0x4
    1835:	6a ff                	push   $0xffffffff
    1837:	e8 04 99 01 00       	call   1b140 <log_msg@plt>
    183c:	8a 45 e4             	mov    -0x1c(%ebp),%al
    183f:	83 c4 10             	add    $0x10,%esp
    1842:	84 c0                	test   %al,%al
    1844:	74 9a                	je     17e0 <usb_hid_init+0x400>
    1846:	50                   	push   %eax
    1847:	50                   	push   %eax
    1848:	56                   	push   %esi
    1849:	53                   	push   %ebx
    184a:	e8 51 5c 00 00       	call   74a0 <usb_hid_report_path_set_report_id>
    184f:	83 c4 10             	add    $0x10,%esp
    1852:	eb 8c                	jmp    17e0 <usb_hid_init+0x400>
    1854:	8d 74 26 00          	lea    0x0(%esi,%eiz,1),%esi
    1858:	8b 40 fc             	mov    -0x4(%eax),%eax
    185b:	85 c0                	test   %eax,%eax
    185d:	0f 88 eb fc ff ff    	js     154e <usb_hid_init+0x16e>
    1863:	83 ec 0c             	sub    $0xc,%esp
    1866:	50                   	push   %eax
    1867:	8b 45 dc             	mov    -0x24(%ebp),%eax
    186a:	50                   	push   %eax
    186b:	68 70 50 01 00       	push   $0x15070
    1870:	6a 02                	push   $0x2
    1872:	6a ff                	push   $0xffffffff
    1874:	e8 c7 98 01 00       	call   1b140 <log_msg@plt>
    1879:	83 c4 20             	add    $0x20,%esp
    187c:	e9 cd fc ff ff       	jmp    154e <usb_hid_init+0x16e>
    1881:	8d b4 26 00 00 00 00 	lea    0x0(%esi,%eiz,1),%esi
    1888:	83 ec 0c             	sub    $0xc,%esp
    188b:	53                   	push   %ebx
    188c:	e8 6f 5a 00 00       	call   7300 <usb_hid_report_path_free>
    1891:	83 c4 10             	add    $0x10,%esp
    1894:	e9 ff fe ff ff       	jmp    1798 <usb_hid_init+0x3b8>
    1899:	8d b4 26 00 00 00 00 	lea    0x0(%esi,%eiz,1),%esi
    18a0:	83 ec 0c             	sub    $0xc,%esp
    18a3:	53                   	push   %ebx
    18a4:	e8 57 5a 00 00       	call   7300 <usb_hid_report_path_free>
    18a9:	83 c4 10             	add    $0x10,%esp
    18ac:	e9 0d fd ff ff       	jmp    15be <usb_hid_init+0x1de>
    18b1:	8d b4 26 00 00 00 00 	lea    0x0(%esi,%eiz,1),%esi
    18b8:	31 f6                	xor    %esi,%esi
    18ba:	31 ff                	xor    %edi,%edi
    18bc:	89 f1                	mov    %esi,%ecx
    18be:	8b 75 08             	mov    0x8(%ebp),%esi
    18c1:	88 4d e4             	mov    %cl,-0x1c(%ebp)
    18c4:	eb 3a                	jmp    1900 <usb_hid_init+0x520>
    18c6:	66 90                	xchg   %ax,%ax
    18c8:	57                   	push   %edi
    18c9:	68 15 4f 01 00       	push   $0x14f15
    18ce:	6a 04                	push   $0x4
    18d0:	6a ff                	push   $0xffffffff
    18d2:	e8 69 98 01 00       	call   1b140 <log_msg@plt>
    18d7:	8b 46 08             	mov    0x8(%esi),%eax
    18da:	01 c3                	add    %eax,%ebx
    18dc:	58                   	pop    %eax
    18dd:	5a                   	pop    %edx
    18de:	8d 43 10             	lea    0x10(%ebx),%eax
    18e1:	50                   	push   %eax
    18e2:	56                   	push   %esi
    18e3:	ff 13                	call   *(%ebx)
    18e5:	83 c4 10             	add    $0x10,%esp
    18e8:	89 c3                	mov    %eax,%ebx
    18ea:	85 c0                	test   %eax,%eax
    18ec:	0f 85 f6 00 00 00    	jne    19e8 <usb_hid_init+0x608>
    18f2:	8a 4d d3             	mov    -0x2d(%ebp),%cl
    18f5:	8b 46 0c             	mov    0xc(%esi),%eax
    18f8:	88 4d e4             	mov    %cl,-0x1c(%ebp)
    18fb:	47                   	inc    %edi
    18fc:	39 c7                	cmp    %eax,%edi
    18fe:	73 1b                	jae    191b <usb_hid_init+0x53b>
    1900:	8d 1c bf             	lea    (%edi,%edi,4),%ebx
    1903:	8b 4e 08             	mov    0x8(%esi),%ecx
    1906:	c1 e3 02             	shl    $0x2,%ebx
    1909:	8b 0c 19             	mov    (%ecx,%ebx,1),%ecx
    190c:	85 c9                	test   %ecx,%ecx
    190e:	75 b8                	jne    18c8 <usb_hid_init+0x4e8>
    1910:	8a 4d d3             	mov    -0x2d(%ebp),%cl
    1913:	47                   	inc    %edi
    1914:	88 4d e4             	mov    %cl,-0x1c(%ebp)
    1917:	39 c7                	cmp    %eax,%edi
    1919:	72 e5                	jb     1900 <usb_hid_init+0x520>
    191b:	0f b6 75 e4          	movzbl -0x1c(%ebp),%esi
    191f:	89 f0                	mov    %esi,%eax
    1921:	84 c0                	test   %al,%al
    1923:	0f 84 32 fb ff ff    	je     145b <usb_hid_init+0x7b>
    1929:	31 f6                	xor    %esi,%esi
    192b:	31 db                	xor    %ebx,%ebx
    192d:	8b 7d cc             	mov    -0x34(%ebp),%edi
    1930:	50                   	push   %eax
    1931:	68 31 4f 01 00       	push   $0x14f31
    1936:	6a 04                	push   $0x4
    1938:	6a ff                	push   $0xffffffff
    193a:	e8 01 98 01 00       	call   1b140 <log_msg@plt>
    193f:	83 c4 0c             	add    $0xc,%esp
    1942:	88 d8                	mov    %bl,%al
    1944:	6a 01                	push   $0x1
    1946:	25 ff 00 00 00       	and    $0xff,%eax
    194b:	50                   	push   %eax
    194c:	89 c3                	mov    %eax,%ebx
    194e:	57                   	push   %edi
    194f:	e8 0c 47 00 00       	call   6060 <usb_hid_report_byte_size>
    1954:	89 04 24             	mov    %eax,(%esp)
    1957:	89 45 e4             	mov    %eax,-0x1c(%ebp)
    195a:	53                   	push   %ebx
    195b:	68 4e 4f 01 00       	push   $0x14f4e
    1960:	6a 04                	push   $0x4
    1962:	6a ff                	push   $0xffffffff
    1964:	e8 d7 97 01 00       	call   1b140 <log_msg@plt>
    1969:	8b 45 e4             	mov    -0x1c(%ebp),%eax
    196c:	83 c4 20             	add    $0x20,%esp
    196f:	39 c6                	cmp    %eax,%esi
    1971:	73 02                	jae    1975 <usb_hid_init+0x595>
    1973:	89 c6                	mov    %eax,%esi
    1975:	50                   	push   %eax
    1976:	68 68 4f 01 00       	push   $0x14f68
    197b:	6a 04                	push   $0x4
    197d:	6a ff                	push   $0xffffffff
    197f:	e8 bc 97 01 00       	call   1b140 <log_msg@plt>
    1984:	83 c4 0c             	add    $0xc,%esp
    1987:	6a 01                	push   $0x1
    1989:	53                   	push   %ebx
    198a:	57                   	push   %edi
    198b:	e8 e0 52 00 00       	call   6c70 <usb_hid_get_next_report_id>
    1990:	83 c4 10             	add    $0x10,%esp
    1993:	88 c3                	mov    %al,%bl
    1995:	84 c0                	test   %al,%al
    1997:	75 97                	jne    1930 <usb_hid_init+0x550>
    1999:	56                   	push   %esi
    199a:	68 a8 52 01 00       	push   $0x152a8
    199f:	6a 04                	push   $0x4
    19a1:	6a ff                	push   $0xffffffff
    19a3:	e8 98 97 01 00       	call   1b140 <log_msg@plt>
    19a8:	8b 45 08             	mov    0x8(%ebp),%eax
    19ab:	8b 40 3c             	mov    0x3c(%eax),%eax
    19ae:	83 c4 10             	add    $0x10,%esp
    19b1:	85 c0                	test   %eax,%eax
    19b3:	0f 85 f3 02 00 00    	jne    1cac <usb_hid_init+0x8cc>
    19b9:	57                   	push   %edi
    19ba:	57                   	push   %edi
    19bb:	56                   	push   %esi
    19bc:	6a 01                	push   $0x1
    19be:	e8 ed 97 01 00       	call   1b1b0 <calloc@plt>
    19c3:	8b 4d 08             	mov    0x8(%ebp),%ecx
    19c6:	83 c4 10             	add    $0x10,%esp
    19c9:	85 c0                	test   %eax,%eax
    19cb:	89 41 3c             	mov    %eax,0x3c(%ecx)
    19ce:	0f 84 ce 01 00 00    	je     1ba2 <usb_hid_init+0x7c2>
    19d4:	89 71 44             	mov    %esi,0x44(%ecx)
    19d7:	c7 45 d4 00 00 00 00 	movl   $0x0,-0x2c(%ebp)
    19de:	e9 78 fa ff ff       	jmp    145b <usb_hid_init+0x7b>
    19e3:	90                   	nop
    19e4:	8d 74 26 00          	lea    0x0(%esi,%eiz,1),%esi
    19e8:	83 ec 0c             	sub    $0xc,%esp
    19eb:	50                   	push   %eax
    19ec:	e8 cf 99 01 00       	call   1b3c0 <str_error@plt>
    19f1:	50                   	push   %eax
    19f2:	68 74 52 01 00       	push   $0x15274
    19f7:	6a 02                	push   $0x2
    19f9:	6a ff                	push   $0xffffffff
    19fb:	e8 40 97 01 00       	call   1b140 <log_msg@plt>
    1a00:	8b 46 0c             	mov    0xc(%esi),%eax
    1a03:	83 c4 20             	add    $0x20,%esp
    1a06:	89 5d d4             	mov    %ebx,-0x2c(%ebp)
    1a09:	e9 ed fe ff ff       	jmp    18fb <usb_hid_init+0x51b>
    1a0e:	50                   	push   %eax
    1a0f:	68 e0 51 01 00       	push   $0x151e0
    1a14:	6a 03                	push   $0x3
    1a16:	6a ff                	push   $0xffffffff
    1a18:	e8 23 97 01 00       	call   1b140 <log_msg@plt>
    1a1d:	8b 45 08             	mov    0x8(%ebp),%eax
    1a20:	8b 40 0c             	mov    0xc(%eax),%eax
    1a23:	83 c4 10             	add    $0x10,%esp
    1a26:	85 c0                	test   %eax,%eax
    1a28:	0f 85 1b 02 00 00    	jne    1c49 <usb_hid_init+0x869>
    1a2e:	83 ec 0c             	sub    $0xc,%esp
    1a31:	6a 14                	push   $0x14
    1a33:	e8 98 96 01 00       	call   1b0d0 <malloc@plt>
    1a38:	8b 4d 08             	mov    0x8(%ebp),%ecx
    1a3b:	83 c4 10             	add    $0x10,%esp
    1a3e:	85 c0                	test   %eax,%eax
    1a40:	89 41 08             	mov    %eax,0x8(%ecx)
    1a43:	0f 84 f9 01 00 00    	je     1c42 <usb_hid_init+0x862>
    1a49:	c7 00 f0 21 00 00    	movl   $0x21f0,(%eax)
    1a4f:	c7 40 08 e0 22 00 00 	movl   $0x22e0,0x8(%eax)
    1a56:	c7 40 0c 00 00 00 00 	movl   $0x0,0xc(%eax)
    1a5d:	c7 40 04 90 21 00 00 	movl   $0x2190,0x4(%eax)
    1a64:	c7 41 0c 01 00 00 00 	movl   $0x1,0xc(%ecx)
    1a6b:	b8 01 00 00 00       	mov    $0x1,%eax
    1a70:	e9 45 fc ff ff       	jmp    16ba <usb_hid_init+0x2da>
    1a75:	57                   	push   %edi
    1a76:	68 94 51 01 00       	push   $0x15194
    1a7b:	6a 03                	push   $0x3
    1a7d:	6a ff                	push   $0xffffffff
    1a7f:	e8 bc 96 01 00       	call   1b140 <log_msg@plt>
    1a84:	58                   	pop    %eax
    1a85:	8b 45 08             	mov    0x8(%ebp),%eax
    1a88:	50                   	push   %eax
    1a89:	e8 62 16 00 00       	call   30f0 <usb_kbd_set_boot_protocol>
    1a8e:	83 c4 10             	add    $0x10,%esp
    1a91:	89 45 d4             	mov    %eax,-0x2c(%ebp)
    1a94:	85 c0                	test   %eax,%eax
    1a96:	8b 45 08             	mov    0x8(%ebp),%eax
    1a99:	0f 85 18 fc ff ff    	jne    16b7 <usb_hid_init+0x2d7>
    1a9f:	8b 70 0c             	mov    0xc(%eax),%esi
    1aa2:	85 f6                	test   %esi,%esi
    1aa4:	0f 85 17 02 00 00    	jne    1cc1 <usb_hid_init+0x8e1>
    1aaa:	83 ec 0c             	sub    $0xc,%esp
    1aad:	6a 14                	push   $0x14
    1aaf:	e8 1c 96 01 00       	call   1b0d0 <malloc@plt>
    1ab4:	8b 4d 08             	mov    0x8(%ebp),%ecx
    1ab7:	83 c4 10             	add    $0x10,%esp
    1aba:	85 c0                	test   %eax,%eax
    1abc:	89 41 08             	mov    %eax,0x8(%ecx)
    1abf:	0f 84 7d 01 00 00    	je     1c42 <usb_hid_init+0x862>
    1ac5:	8b 15 34 54 01 00    	mov    0x15434,%edx
    1acb:	c7 41 0c 01 00 00 00 	movl   $0x1,0xc(%ecx)
    1ad2:	89 10                	mov    %edx,(%eax)
    1ad4:	8b 15 38 54 01 00    	mov    0x15438,%edx
    1ada:	89 50 04             	mov    %edx,0x4(%eax)
    1add:	8b 15 3c 54 01 00    	mov    0x1543c,%edx
    1ae3:	89 50 08             	mov    %edx,0x8(%eax)
    1ae6:	8b 15 40 54 01 00    	mov    0x15440,%edx
    1aec:	89 50 0c             	mov    %edx,0xc(%eax)
    1aef:	8b 15 44 54 01 00    	mov    0x15444,%edx
    1af5:	89 50 10             	mov    %edx,0x10(%eax)
    1af8:	b8 01 00 00 00       	mov    $0x1,%eax
    1afd:	e9 b8 fb ff ff       	jmp    16ba <usb_hid_init+0x2da>
    1b02:	8d 7b 01             	lea    0x1(%ebx),%edi
    1b05:	52                   	push   %edx
    1b06:	52                   	push   %edx
    1b07:	6a 14                	push   $0x14
    1b09:	57                   	push   %edi
    1b0a:	e8 a1 96 01 00       	call   1b1b0 <calloc@plt>
    1b0f:	89 c6                	mov    %eax,%esi
    1b11:	8b 45 08             	mov    0x8(%ebp),%eax
    1b14:	83 c4 10             	add    $0x10,%esp
    1b17:	85 f6                	test   %esi,%esi
    1b19:	89 70 08             	mov    %esi,0x8(%eax)
    1b1c:	0f 84 e1 fa ff ff    	je     1603 <usb_hid_init+0x223>
    1b22:	8b 4d c4             	mov    -0x3c(%ebp),%ecx
    1b25:	89 f0                	mov    %esi,%eax
    1b27:	89 75 e4             	mov    %esi,-0x1c(%ebp)
    1b2a:	8d 1c 99             	lea    (%ecx,%ebx,4),%ebx
    1b2d:	8d 76 00             	lea    0x0(%esi),%esi
    1b30:	8b 11                	mov    (%ecx),%edx
    1b32:	83 c1 04             	add    $0x4,%ecx
    1b35:	83 c0 14             	add    $0x14,%eax
    1b38:	8b 32                	mov    (%edx),%esi
    1b3a:	89 70 ec             	mov    %esi,-0x14(%eax)
    1b3d:	8b 72 04             	mov    0x4(%edx),%esi
    1b40:	89 70 f0             	mov    %esi,-0x10(%eax)
    1b43:	8b 72 08             	mov    0x8(%edx),%esi
    1b46:	89 70 f4             	mov    %esi,-0xc(%eax)
    1b49:	8b 72 0c             	mov    0xc(%edx),%esi
    1b4c:	8b 52 10             	mov    0x10(%edx),%edx
    1b4f:	89 70 f8             	mov    %esi,-0x8(%eax)
    1b52:	89 50 fc             	mov    %edx,-0x4(%eax)
    1b55:	39 d9                	cmp    %ebx,%ecx
    1b57:	75 d7                	jne    1b30 <usb_hid_init+0x750>
    1b59:	8b 45 c8             	mov    -0x38(%ebp),%eax
    1b5c:	8b 75 e4             	mov    -0x1c(%ebp),%esi
    1b5f:	8d 04 80             	lea    (%eax,%eax,4),%eax
    1b62:	8d 04 86             	lea    (%esi,%eax,4),%eax
    1b65:	c7 40 0c 00 00 00 00 	movl   $0x0,0xc(%eax)
    1b6c:	c7 00 f0 21 00 00    	movl   $0x21f0,(%eax)
    1b72:	c7 40 08 e0 22 00 00 	movl   $0x22e0,0x8(%eax)
    1b79:	c7 40 04 90 21 00 00 	movl   $0x2190,0x4(%eax)
    1b80:	8b 45 08             	mov    0x8(%ebp),%eax
    1b83:	89 78 0c             	mov    %edi,0xc(%eax)
    1b86:	e9 78 fa ff ff       	jmp    1603 <usb_hid_init+0x223>
    1b8b:	53                   	push   %ebx
    1b8c:	68 65 4e 01 00       	push   $0x14e65
    1b91:	6a 04                	push   $0x4
    1b93:	6a ff                	push   $0xffffffff
    1b95:	e8 a6 95 01 00       	call   1b140 <log_msg@plt>
    1b9a:	83 c4 10             	add    $0x10,%esp
    1b9d:	e9 26 fa ff ff       	jmp    15c8 <usb_hid_init+0x1e8>
    1ba2:	50                   	push   %eax
    1ba3:	68 c8 52 01 00       	push   $0x152c8
    1ba8:	6a 01                	push   $0x1
    1baa:	6a ff                	push   $0xffffffff
    1bac:	e8 8f 95 01 00       	call   1b140 <log_msg@plt>
    1bb1:	83 c4 10             	add    $0x10,%esp
    1bb4:	c7 45 d4 fe ff ff ff 	movl   $0xfffffffe,-0x2c(%ebp)
    1bbb:	e9 9b f8 ff ff       	jmp    145b <usb_hid_init+0x7b>
    1bc0:	8b 40 0c             	mov    0xc(%eax),%eax
    1bc3:	85 c0                	test   %eax,%eax
    1bc5:	75 69                	jne    1c30 <usb_hid_init+0x850>
    1bc7:	83 ec 0c             	sub    $0xc,%esp
    1bca:	6a 14                	push   $0x14
    1bcc:	e8 ff 94 01 00       	call   1b0d0 <malloc@plt>
    1bd1:	8b 4d 08             	mov    0x8(%ebp),%ecx
    1bd4:	83 c4 10             	add    $0x10,%esp
    1bd7:	85 c0                	test   %eax,%eax
    1bd9:	89 41 08             	mov    %eax,0x8(%ecx)
    1bdc:	74 64                	je     1c42 <usb_hid_init+0x862>
    1bde:	8b 15 84 54 01 00    	mov    0x15484,%edx
    1be4:	c7 41 0c 01 00 00 00 	movl   $0x1,0xc(%ecx)
    1beb:	89 10                	mov    %edx,(%eax)
    1bed:	8b 15 88 54 01 00    	mov    0x15488,%edx
    1bf3:	89 50 04             	mov    %edx,0x4(%eax)
    1bf6:	8b 15 8c 54 01 00    	mov    0x1548c,%edx
    1bfc:	89 50 08             	mov    %edx,0x8(%eax)
    1bff:	8b 15 90 54 01 00    	mov    0x15490,%edx
    1c05:	89 50 0c             	mov    %edx,0xc(%eax)
    1c08:	8b 15 94 54 01 00    	mov    0x15494,%edx
    1c0e:	89 50 10             	mov    %edx,0x10(%eax)
    1c11:	b8 01 00 00 00       	mov    $0x1,%eax
    1c16:	e9 9f fa ff ff       	jmp    16ba <usb_hid_init+0x2da>
    1c1b:	50                   	push   %eax
    1c1c:	68 7d 01 00 00       	push   $0x17d
    1c21:	68 50 4e 01 00       	push   $0x14e50
    1c26:	68 db 4e 01 00       	push   $0x14edb
    1c2b:	e8 60 95 01 00       	call   1b190 <assert_abort@plt>
    1c30:	50                   	push   %eax
    1c31:	6a 52                	push   $0x52
    1c33:	68 50 4e 01 00       	push   $0x14e50
    1c38:	68 f7 4e 01 00       	push   $0x14ef7
    1c3d:	e8 4e 95 01 00       	call   1b190 <assert_abort@plt>
    1c42:	89 c8                	mov    %ecx,%eax
    1c44:	e9 6e fa ff ff       	jmp    16b7 <usb_hid_init+0x2d7>
    1c49:	50                   	push   %eax
    1c4a:	6a 62                	push   $0x62
    1c4c:	68 50 4e 01 00       	push   $0x14e50
    1c51:	68 f7 4e 01 00       	push   $0x14ef7
    1c56:	e8 35 95 01 00       	call   1b190 <assert_abort@plt>
    1c5b:	50                   	push   %eax
    1c5c:	68 5b 01 00 00       	push   $0x15b
    1c61:	68 50 4e 01 00       	push   $0x14e50
    1c66:	68 90 4e 01 00       	push   $0x14e90
    1c6b:	e8 20 95 01 00       	call   1b190 <assert_abort@plt>
    1c70:	50                   	push   %eax
    1c71:	68 5a 01 00 00       	push   $0x15a
    1c76:	68 50 4e 01 00       	push   $0x14e50
    1c7b:	68 ad 4c 01 00       	push   $0x14cad
    1c80:	e8 0b 95 01 00       	call   1b190 <assert_abort@plt>
    1c85:	50                   	push   %eax
    1c86:	6a 77                	push   $0x77
    1c88:	68 50 4e 01 00       	push   $0x14e50
    1c8d:	68 83 4e 01 00       	push   $0x14e83
    1c92:	e8 f9 94 01 00       	call   1b190 <assert_abort@plt>
    1c97:	56                   	push   %esi
    1c98:	68 9b 01 00 00       	push   $0x19b
    1c9d:	68 50 4e 01 00       	push   $0x14e50
    1ca2:	68 db 4e 01 00       	push   $0x14edb
    1ca7:	e8 e4 94 01 00       	call   1b190 <assert_abort@plt>
    1cac:	50                   	push   %eax
    1cad:	68 3c 01 00 00       	push   $0x13c
    1cb2:	68 50 4e 01 00       	push   $0x14e50
    1cb7:	68 80 4f 01 00       	push   $0x14f80
    1cbc:	e8 cf 94 01 00       	call   1b190 <assert_abort@plt>
    1cc1:	53                   	push   %ebx
    1cc2:	6a 42                	push   $0x42
    1cc4:	68 50 4e 01 00       	push   $0x14e50
    1cc9:	68 f7 4e 01 00       	push   $0x14ef7
    1cce:	e8 bd 94 01 00       	call   1b190 <assert_abort@plt>
    1cd3:	8d b6 00 00 00 00    	lea    0x0(%esi),%esi
    1cd9:	8d bc 27 00 00 00 00 	lea    0x0(%edi,%eiz,1),%edi

00001ce0 <usb_hid_polling_callback>:
    1ce0:	55                   	push   %ebp
    1ce1:	89 e5                	mov    %esp,%ebp
    1ce3:	57                   	push   %edi
    1ce4:	56                   	push   %esi
    1ce5:	53                   	push   %ebx
    1ce6:	83 ec 1c             	sub    $0x1c,%esp
    1ce9:	8b 7d 0c             	mov    0xc(%ebp),%edi
    1cec:	8b 75 14             	mov    0x14(%ebp),%esi
    1cef:	85 ff                	test   %edi,%edi
    1cf1:	8b 5d 10             	mov    0x10(%ebp),%ebx
    1cf4:	0f 94 c2             	sete   %dl
    1cf7:	85 f6                	test   %esi,%esi
    1cf9:	0f 94 c0             	sete   %al
    1cfc:	09 c2                	or     %eax,%edx
    1cfe:	8b 45 08             	mov    0x8(%ebp),%eax
    1d01:	85 c0                	test   %eax,%eax
    1d03:	0f 94 c0             	sete   %al
    1d06:	08 c2                	or     %al,%dl
    1d08:	0f 85 aa 00 00 00    	jne    1db8 <usb_hid_polling_callback+0xd8>
    1d0e:	8b 46 3c             	mov    0x3c(%esi),%eax
    1d11:	85 c0                	test   %eax,%eax
    1d13:	0f 84 08 01 00 00    	je     1e21 <usb_hid_polling_callback+0x141>
    1d19:	88 55 e7             	mov    %dl,-0x19(%ebp)
    1d1c:	50                   	push   %eax
    1d1d:	6a 00                	push   $0x0
    1d1f:	53                   	push   %ebx
    1d20:	57                   	push   %edi
    1d21:	e8 fa 9a 00 00       	call   b820 <usb_debug_str_buffer>
    1d26:	5a                   	pop    %edx
    1d27:	59                   	pop    %ecx
    1d28:	50                   	push   %eax
    1d29:	8b 46 44             	mov    0x44(%esi),%eax
    1d2c:	50                   	push   %eax
    1d2d:	53                   	push   %ebx
    1d2e:	68 ca 4f 01 00       	push   $0x14fca
    1d33:	6a 04                	push   $0x4
    1d35:	6a ff                	push   $0xffffffff
    1d37:	e8 04 94 01 00       	call   1b140 <log_msg@plt>
    1d3c:	83 c4 20             	add    $0x20,%esp
    1d3f:	8a 55 e7             	mov    -0x19(%ebp),%dl
    1d42:	3b 5e 44             	cmp    0x44(%esi),%ebx
    1d45:	0f 86 b5 00 00 00    	jbe    1e00 <usb_hid_polling_callback+0x120>
    1d4b:	8d 46 38             	lea    0x38(%esi),%eax
    1d4e:	88 55 e7             	mov    %dl,-0x19(%ebp)
    1d51:	50                   	push   %eax
    1d52:	8d 46 18             	lea    0x18(%esi),%eax
    1d55:	53                   	push   %ebx
    1d56:	57                   	push   %edi
    1d57:	50                   	push   %eax
    1d58:	e8 b3 45 00 00       	call   6310 <usb_hid_parse_report>
    1d5d:	83 c4 10             	add    $0x10,%esp
    1d60:	8a 55 e7             	mov    -0x19(%ebp),%dl
    1d63:	85 c0                	test   %eax,%eax
    1d65:	75 71                	jne    1dd8 <usb_hid_polling_callback+0xf8>
    1d67:	8b 7e 0c             	mov    0xc(%esi),%edi
    1d6a:	85 ff                	test   %edi,%edi
    1d6c:	74 39                	je     1da7 <usb_hid_polling_callback+0xc7>
    1d6e:	31 db                	xor    %ebx,%ebx
    1d70:	eb 0b                	jmp    1d7d <usb_hid_polling_callback+0x9d>
    1d72:	8d b6 00 00 00 00    	lea    0x0(%esi),%esi
    1d78:	43                   	inc    %ebx
    1d79:	39 fb                	cmp    %edi,%ebx
    1d7b:	73 2a                	jae    1da7 <usb_hid_polling_callback+0xc7>
    1d7d:	8d 04 9b             	lea    (%ebx,%ebx,4),%eax
    1d80:	8b 4e 08             	mov    0x8(%esi),%ecx
    1d83:	8d 0c 81             	lea    (%ecx,%eax,4),%ecx
    1d86:	8b 41 08             	mov    0x8(%ecx),%eax
    1d89:	85 c0                	test   %eax,%eax
    1d8b:	74 eb                	je     1d78 <usb_hid_polling_callback+0x98>
    1d8d:	84 d2                	test   %dl,%dl
    1d8f:	75 e7                	jne    1d78 <usb_hid_polling_callback+0x98>
    1d91:	52                   	push   %edx
    1d92:	52                   	push   %edx
    1d93:	8b 49 10             	mov    0x10(%ecx),%ecx
    1d96:	43                   	inc    %ebx
    1d97:	51                   	push   %ecx
    1d98:	56                   	push   %esi
    1d99:	ff d0                	call   *%eax
    1d9b:	8b 7e 0c             	mov    0xc(%esi),%edi
    1d9e:	83 c4 10             	add    $0x10,%esp
    1da1:	88 c2                	mov    %al,%dl
    1da3:	39 fb                	cmp    %edi,%ebx
    1da5:	72 d6                	jb     1d7d <usb_hid_polling_callback+0x9d>
    1da7:	8d 65 f4             	lea    -0xc(%ebp),%esp
    1daa:	88 d0                	mov    %dl,%al
    1dac:	5b                   	pop    %ebx
    1dad:	5e                   	pop    %esi
    1dae:	5f                   	pop    %edi
    1daf:	5d                   	pop    %ebp
    1db0:	c3                   	ret    
    1db1:	8d b4 26 00 00 00 00 	lea    0x0(%esi,%eiz,1),%esi
    1db8:	50                   	push   %eax
    1db9:	68 30 53 01 00       	push   $0x15330
    1dbe:	6a 01                	push   $0x1
    1dc0:	6a ff                	push   $0xffffffff
    1dc2:	e8 79 93 01 00       	call   1b140 <log_msg@plt>
    1dc7:	83 c4 10             	add    $0x10,%esp
    1dca:	8d 65 f4             	lea    -0xc(%ebp),%esp
    1dcd:	31 d2                	xor    %edx,%edx
    1dcf:	88 d0                	mov    %dl,%al
    1dd1:	5b                   	pop    %ebx
    1dd2:	5e                   	pop    %esi
    1dd3:	5f                   	pop    %edi
    1dd4:	5d                   	pop    %ebp
    1dd5:	c3                   	ret    
    1dd6:	66 90                	xchg   %ax,%ax
    1dd8:	83 ec 0c             	sub    $0xc,%esp
    1ddb:	50                   	push   %eax
    1ddc:	e8 df 95 01 00       	call   1b3c0 <str_error@plt>
    1de1:	50                   	push   %eax
    1de2:	68 58 53 01 00       	push   $0x15358
    1de7:	6a 02                	push   $0x2
    1de9:	6a ff                	push   $0xffffffff
    1deb:	e8 50 93 01 00       	call   1b140 <log_msg@plt>
    1df0:	83 c4 20             	add    $0x20,%esp
    1df3:	8a 55 e7             	mov    -0x19(%ebp),%dl
    1df6:	e9 6c ff ff ff       	jmp    1d67 <usb_hid_polling_callback+0x87>
    1dfb:	90                   	nop
    1dfc:	8d 74 26 00          	lea    0x0(%esi,%eiz,1),%esi
    1e00:	50                   	push   %eax
    1e01:	53                   	push   %ebx
    1e02:	57                   	push   %edi
    1e03:	8b 46 3c             	mov    0x3c(%esi),%eax
    1e06:	50                   	push   %eax
    1e07:	e8 b4 92 01 00       	call   1b0c0 <memcpy@plt>
    1e0c:	8b 46 48             	mov    0x48(%esi),%eax
    1e0f:	89 5e 40             	mov    %ebx,0x40(%esi)
    1e12:	40                   	inc    %eax
    1e13:	83 c4 10             	add    $0x10,%esp
    1e16:	89 46 48             	mov    %eax,0x48(%esi)
    1e19:	8a 55 e7             	mov    -0x19(%ebp),%dl
    1e1c:	e9 2a ff ff ff       	jmp    1d4b <usb_hid_polling_callback+0x6b>
    1e21:	50                   	push   %eax
    1e22:	68 cd 01 00 00       	push   $0x1cd
    1e27:	68 50 4e 01 00       	push   $0x14e50
    1e2c:	68 ac 4f 01 00       	push   $0x14fac
    1e31:	e8 5a 93 01 00       	call   1b190 <assert_abort@plt>
    1e36:	8d 76 00             	lea    0x0(%esi),%esi
    1e39:	8d bc 27 00 00 00 00 	lea    0x0(%edi,%eiz,1),%edi

00001e40 <usb_hid_polling_ended_callback>:
    1e40:	55                   	push   %ebp
    1e41:	89 e5                	mov    %esp,%ebp
    1e43:	57                   	push   %edi
    1e44:	56                   	push   %esi
    1e45:	53                   	push   %ebx
    1e46:	83 ec 0c             	sub    $0xc,%esp
    1e49:	8b 75 08             	mov    0x8(%ebp),%esi
    1e4c:	8b 7d 10             	mov    0x10(%ebp),%edi
    1e4f:	8a 45 0c             	mov    0xc(%ebp),%al
    1e52:	85 f6                	test   %esi,%esi
    1e54:	74 4a                	je     1ea0 <usb_hid_polling_ended_callback+0x60>
    1e56:	85 ff                	test   %edi,%edi
    1e58:	74 5b                	je     1eb5 <usb_hid_polling_ended_callback+0x75>
    1e5a:	8b 4f 0c             	mov    0xc(%edi),%ecx
    1e5d:	89 c6                	mov    %eax,%esi
    1e5f:	31 db                	xor    %ebx,%ebx
    1e61:	81 e6 ff 00 00 00    	and    $0xff,%esi
    1e67:	85 c9                	test   %ecx,%ecx
    1e69:	74 29                	je     1e94 <usb_hid_polling_ended_callback+0x54>
    1e6b:	90                   	nop
    1e6c:	8d 74 26 00          	lea    0x0(%esi,%eiz,1),%esi
    1e70:	8d 04 9b             	lea    (%ebx,%ebx,4),%eax
    1e73:	8b 57 08             	mov    0x8(%edi),%edx
    1e76:	8d 14 82             	lea    (%edx,%eax,4),%edx
    1e79:	8b 42 0c             	mov    0xc(%edx),%eax
    1e7c:	85 c0                	test   %eax,%eax
    1e7e:	74 0f                	je     1e8f <usb_hid_polling_ended_callback+0x4f>
    1e80:	51                   	push   %ecx
    1e81:	56                   	push   %esi
    1e82:	8b 52 10             	mov    0x10(%edx),%edx
    1e85:	52                   	push   %edx
    1e86:	57                   	push   %edi
    1e87:	ff d0                	call   *%eax
    1e89:	8b 4f 0c             	mov    0xc(%edi),%ecx
    1e8c:	83 c4 10             	add    $0x10,%esp
    1e8f:	43                   	inc    %ebx
    1e90:	39 cb                	cmp    %ecx,%ebx
    1e92:	72 dc                	jb     1e70 <usb_hid_polling_ended_callback+0x30>
    1e94:	c6 47 4c 00          	movb   $0x0,0x4c(%edi)
    1e98:	8d 65 f4             	lea    -0xc(%ebp),%esp
    1e9b:	5b                   	pop    %ebx
    1e9c:	5e                   	pop    %esi
    1e9d:	5f                   	pop    %edi
    1e9e:	5d                   	pop    %ebp
    1e9f:	c3                   	ret    
    1ea0:	53                   	push   %ebx
    1ea1:	68 f0 01 00 00       	push   $0x1f0
    1ea6:	68 50 4e 01 00       	push   $0x14e50
    1eab:	68 90 4e 01 00       	push   $0x14e90
    1eb0:	e8 db 92 01 00       	call   1b190 <assert_abort@plt>
    1eb5:	51                   	push   %ecx
    1eb6:	68 f1 01 00 00       	push   $0x1f1
    1ebb:	68 50 4e 01 00       	push   $0x14e50
    1ec0:	68 e2 4f 01 00       	push   $0x14fe2
    1ec5:	e8 c6 92 01 00       	call   1b190 <assert_abort@plt>
    1eca:	8d b6 00 00 00 00    	lea    0x0(%esi),%esi

00001ed0 <usb_hid_new_report>:
    1ed0:	55                   	push   %ebp
    1ed1:	89 e5                	mov    %esp,%ebp
    1ed3:	8b 45 08             	mov    0x8(%ebp),%eax
    1ed6:	8b 50 48             	mov    0x48(%eax),%edx
    1ed9:	42                   	inc    %edx
    1eda:	89 50 48             	mov    %edx,0x48(%eax)
    1edd:	5d                   	pop    %ebp
    1ede:	c3                   	ret    
    1edf:	90                   	nop

00001ee0 <usb_hid_report_number>:
    1ee0:	55                   	push   %ebp
    1ee1:	89 e5                	mov    %esp,%ebp
    1ee3:	8b 45 08             	mov    0x8(%ebp),%eax
    1ee6:	5d                   	pop    %ebp
    1ee7:	8b 40 48             	mov    0x48(%eax),%eax
    1eea:	c3                   	ret    
    1eeb:	90                   	nop
    1eec:	8d 74 26 00          	lea    0x0(%esi,%eiz,1),%esi

00001ef0 <usb_hid_deinit>:
    1ef0:	55                   	push   %ebp
    1ef1:	89 e5                	mov    %esp,%ebp
    1ef3:	57                   	push   %edi
    1ef4:	56                   	push   %esi
    1ef5:	53                   	push   %ebx
    1ef6:	83 ec 0c             	sub    $0xc,%esp
    1ef9:	8b 75 08             	mov    0x8(%ebp),%esi
    1efc:	85 f6                	test   %esi,%esi
    1efe:	0f 84 95 00 00 00    	je     1f99 <usb_hid_deinit+0xa9>
    1f04:	8b 46 08             	mov    0x8(%esi),%eax
    1f07:	8b 56 0c             	mov    0xc(%esi),%edx
    1f0a:	85 c0                	test   %eax,%eax
    1f0c:	74 72                	je     1f80 <usb_hid_deinit+0x90>
    1f0e:	83 ec 0c             	sub    $0xc,%esp
    1f11:	52                   	push   %edx
    1f12:	50                   	push   %eax
    1f13:	68 c0 53 01 00       	push   $0x153c0
    1f18:	6a 04                	push   $0x4
    1f1a:	6a ff                	push   $0xffffffff
    1f1c:	e8 1f 92 01 00       	call   1b140 <log_msg@plt>
    1f21:	8b 4e 0c             	mov    0xc(%esi),%ecx
    1f24:	83 c4 20             	add    $0x20,%esp
    1f27:	8b 7e 08             	mov    0x8(%esi),%edi
    1f2a:	85 c9                	test   %ecx,%ecx
    1f2c:	74 26                	je     1f54 <usb_hid_deinit+0x64>
    1f2e:	31 db                	xor    %ebx,%ebx
    1f30:	8d 04 9b             	lea    (%ebx,%ebx,4),%eax
    1f33:	8d 14 87             	lea    (%edi,%eax,4),%edx
    1f36:	8b 42 04             	mov    0x4(%edx),%eax
    1f39:	85 c0                	test   %eax,%eax
    1f3b:	74 12                	je     1f4f <usb_hid_deinit+0x5f>
    1f3d:	51                   	push   %ecx
    1f3e:	51                   	push   %ecx
    1f3f:	8b 7a 10             	mov    0x10(%edx),%edi
    1f42:	57                   	push   %edi
    1f43:	56                   	push   %esi
    1f44:	ff d0                	call   *%eax
    1f46:	8b 4e 0c             	mov    0xc(%esi),%ecx
    1f49:	8b 7e 08             	mov    0x8(%esi),%edi
    1f4c:	83 c4 10             	add    $0x10,%esp
    1f4f:	43                   	inc    %ebx
    1f50:	39 cb                	cmp    %ecx,%ebx
    1f52:	72 dc                	jb     1f30 <usb_hid_deinit+0x40>
    1f54:	83 ec 0c             	sub    $0xc,%esp
    1f57:	83 c6 18             	add    $0x18,%esi
    1f5a:	57                   	push   %edi
    1f5b:	e8 60 95 01 00       	call   1b4c0 <free@plt>
    1f60:	8b 56 f8             	mov    -0x8(%esi),%edx
    1f63:	58                   	pop    %eax
    1f64:	52                   	push   %edx
    1f65:	e8 56 95 01 00       	call   1b4c0 <free@plt>
    1f6a:	89 75 08             	mov    %esi,0x8(%ebp)
    1f6d:	83 c4 10             	add    $0x10,%esp
    1f70:	8d 65 f4             	lea    -0xc(%ebp),%esp
    1f73:	5b                   	pop    %ebx
    1f74:	5e                   	pop    %esi
    1f75:	5f                   	pop    %edi
    1f76:	5d                   	pop    %ebp
    1f77:	e9 a4 3f 00 00       	jmp    5f20 <usb_hid_report_deinit>
    1f7c:	8d 74 26 00          	lea    0x0(%esi,%eiz,1),%esi
    1f80:	85 d2                	test   %edx,%edx
    1f82:	74 8a                	je     1f0e <usb_hid_deinit+0x1e>
    1f84:	50                   	push   %eax
    1f85:	68 0c 02 00 00       	push   $0x20c
    1f8a:	68 50 4e 01 00       	push   $0x14e50
    1f8f:	68 80 53 01 00       	push   $0x15380
    1f94:	e8 f7 91 01 00       	call   1b190 <assert_abort@plt>
    1f99:	50                   	push   %eax
    1f9a:	68 0b 02 00 00       	push   $0x20b
    1f9f:	68 50 4e 01 00       	push   $0x14e50
    1fa4:	68 ad 4c 01 00       	push   $0x14cad
    1fa9:	e8 e2 91 01 00       	call   1b190 <assert_abort@plt>
    1fae:	66 90                	xchg   %ax,%ax

00001fb0 <usb_generic_hid_client_connected>:
    1fb0:	55                   	push   %ebp
    1fb1:	89 e5                	mov    %esp,%ebp
    1fb3:	83 ec 0c             	sub    $0xc,%esp
    1fb6:	68 f0 54 01 00       	push   $0x154f0
    1fbb:	6a 04                	push   $0x4
    1fbd:	6a ff                	push   $0xffffffff
    1fbf:	e8 7c 91 01 00       	call   1b140 <log_msg@plt>
    1fc4:	31 c0                	xor    %eax,%eax
    1fc6:	c9                   	leave  
    1fc7:	c3                   	ret    
    1fc8:	90                   	nop
    1fc9:	8d b4 26 00 00 00 00 	lea    0x0(%esi,%eiz,1),%esi

00001fd0 <usb_generic_get_report_descriptor>:
    1fd0:	55                   	push   %ebp
    1fd1:	89 e5                	mov    %esp,%ebp
    1fd3:	53                   	push   %ebx
    1fd4:	83 ec 08             	sub    $0x8,%esp
    1fd7:	68 10 55 01 00       	push   $0x15510
    1fdc:	6a 05                	push   $0x5
    1fde:	6a ff                	push   $0xffffffff
    1fe0:	e8 5b 91 01 00       	call   1b140 <log_msg@plt>
    1fe5:	58                   	pop    %eax
    1fe6:	8b 45 08             	mov    0x8(%ebp),%eax
    1fe9:	50                   	push   %eax
    1fea:	e8 61 a4 00 00       	call   c450 <ddf_fun_data_get>
    1fef:	83 c4 10             	add    $0x10,%esp
    1ff2:	8b 18                	mov    (%eax),%ebx
    1ff4:	8b 43 14             	mov    0x14(%ebx),%eax
    1ff7:	3b 45 10             	cmp    0x10(%ebp),%eax
    1ffa:	77 24                	ja     2020 <usb_generic_get_report_descriptor+0x50>
    1ffc:	52                   	push   %edx
    1ffd:	50                   	push   %eax
    1ffe:	8b 4b 10             	mov    0x10(%ebx),%ecx
    2001:	8b 45 0c             	mov    0xc(%ebp),%eax
    2004:	51                   	push   %ecx
    2005:	50                   	push   %eax
    2006:	e8 b5 90 01 00       	call   1b0c0 <memcpy@plt>
    200b:	8b 45 14             	mov    0x14(%ebp),%eax
    200e:	8b 53 14             	mov    0x14(%ebx),%edx
    2011:	83 c4 10             	add    $0x10,%esp
    2014:	89 10                	mov    %edx,(%eax)
    2016:	31 c0                	xor    %eax,%eax
    2018:	8b 5d fc             	mov    -0x4(%ebp),%ebx
    201b:	c9                   	leave  
    201c:	c3                   	ret    
    201d:	8d 76 00             	lea    0x0(%esi),%esi
    2020:	b8 f2 ff ff ff       	mov    $0xfffffff2,%eax
    2025:	eb f1                	jmp    2018 <usb_generic_get_report_descriptor+0x48>
    2027:	89 f6                	mov    %esi,%esi
    2029:	8d bc 27 00 00 00 00 	lea    0x0(%edi,%eiz,1),%edi

00002030 <usb_generic_get_report_descriptor_length>:
    2030:	55                   	push   %ebp
    2031:	89 e5                	mov    %esp,%ebp
    2033:	53                   	push   %ebx
    2034:	83 ec 08             	sub    $0x8,%esp
    2037:	68 38 55 01 00       	push   $0x15538
    203c:	6a 04                	push   $0x4
    203e:	6a ff                	push   $0xffffffff
    2040:	e8 fb 90 01 00       	call   1b140 <log_msg@plt>
    2045:	8b 4d 08             	mov    0x8(%ebp),%ecx
    2048:	5a                   	pop    %edx
    2049:	51                   	push   %ecx
    204a:	e8 01 a4 00 00       	call   c450 <ddf_fun_data_get>
    204f:	8b 18                	mov    (%eax),%ebx
    2051:	8b 43 14             	mov    0x14(%ebx),%eax
    2054:	50                   	push   %eax
    2055:	68 64 55 01 00       	push   $0x15564
    205a:	6a 05                	push   $0x5
    205c:	6a ff                	push   $0xffffffff
    205e:	e8 dd 90 01 00       	call   1b140 <log_msg@plt>
    2063:	8b 43 14             	mov    0x14(%ebx),%eax
    2066:	8b 5d fc             	mov    -0x4(%ebp),%ebx
    2069:	c9                   	leave  
    206a:	c3                   	ret    
    206b:	90                   	nop
    206c:	8d 74 26 00          	lea    0x0(%esi,%eiz,1),%esi

00002070 <usb_generic_hid_get_event_length>:
    2070:	55                   	push   %ebp
    2071:	89 e5                	mov    %esp,%ebp
    2073:	53                   	push   %ebx
    2074:	83 ec 10             	sub    $0x10,%esp
    2077:	8b 5d 08             	mov    0x8(%ebp),%ebx
    207a:	53                   	push   %ebx
    207b:	e8 d0 a3 00 00       	call   c450 <ddf_fun_data_get>
    2080:	89 04 24             	mov    %eax,(%esp)
    2083:	53                   	push   %ebx
    2084:	68 88 55 01 00       	push   $0x15588
    2089:	6a 05                	push   $0x5
    208b:	6a ff                	push   $0xffffffff
    208d:	e8 ae 90 01 00       	call   1b140 <log_msg@plt>
    2092:	83 c4 14             	add    $0x14,%esp
    2095:	53                   	push   %ebx
    2096:	e8 b5 a3 00 00       	call   c450 <ddf_fun_data_get>
    209b:	8b 18                	mov    (%eax),%ebx
    209d:	58                   	pop    %eax
    209e:	8b 53 44             	mov    0x44(%ebx),%edx
    20a1:	52                   	push   %edx
    20a2:	53                   	push   %ebx
    20a3:	68 c8 55 01 00       	push   $0x155c8
    20a8:	6a 05                	push   $0x5
    20aa:	6a ff                	push   $0xffffffff
    20ac:	e8 8f 90 01 00       	call   1b140 <log_msg@plt>
    20b1:	8b 43 44             	mov    0x44(%ebx),%eax
    20b4:	8b 5d fc             	mov    -0x4(%ebp),%ebx
    20b7:	c9                   	leave  
    20b8:	c3                   	ret    
    20b9:	8d b4 26 00 00 00 00 	lea    0x0(%esi,%eiz,1),%esi

000020c0 <usb_generic_hid_get_event>:
    20c0:	55                   	push   %ebp
    20c1:	89 e5                	mov    %esp,%ebp
    20c3:	57                   	push   %edi
    20c4:	56                   	push   %esi
    20c5:	53                   	push   %ebx
    20c6:	83 ec 10             	sub    $0x10,%esp
    20c9:	8b 75 14             	mov    0x14(%ebp),%esi
    20cc:	8b 5d 18             	mov    0x18(%ebp),%ebx
    20cf:	68 ae 56 01 00       	push   $0x156ae
    20d4:	6a 05                	push   $0x5
    20d6:	6a ff                	push   $0xffffffff
    20d8:	e8 63 90 01 00       	call   1b140 <log_msg@plt>
    20dd:	83 c4 10             	add    $0x10,%esp
    20e0:	85 f6                	test   %esi,%esi
    20e2:	0f 94 c2             	sete   %dl
    20e5:	85 db                	test   %ebx,%ebx
    20e7:	0f 94 c0             	sete   %al
    20ea:	08 c2                	or     %al,%dl
    20ec:	0f 85 7e 00 00 00    	jne    2170 <usb_generic_hid_get_event+0xb0>
    20f2:	8b 7d 0c             	mov    0xc(%ebp),%edi
    20f5:	85 ff                	test   %edi,%edi
    20f7:	74 77                	je     2170 <usb_generic_hid_get_event+0xb0>
    20f9:	83 ec 0c             	sub    $0xc,%esp
    20fc:	8b 4d 08             	mov    0x8(%ebp),%ecx
    20ff:	51                   	push   %ecx
    2100:	e8 4b a3 00 00       	call   c450 <ddf_fun_data_get>
    2105:	83 c4 10             	add    $0x10,%esp
    2108:	8b 38                	mov    (%eax),%edi
    210a:	8b 47 40             	mov    0x40(%edi),%eax
    210d:	3b 45 10             	cmp    0x10(%ebp),%eax
    2110:	77 3e                	ja     2150 <usb_generic_hid_get_event+0x90>
    2112:	52                   	push   %edx
    2113:	50                   	push   %eax
    2114:	8b 4f 3c             	mov    0x3c(%edi),%ecx
    2117:	8b 45 0c             	mov    0xc(%ebp),%eax
    211a:	51                   	push   %ecx
    211b:	50                   	push   %eax
    211c:	e8 9f 8f 01 00       	call   1b0c0 <memcpy@plt>
    2121:	8b 47 40             	mov    0x40(%edi),%eax
    2124:	89 06                	mov    %eax,(%esi)
    2126:	89 3c 24             	mov    %edi,(%esp)
    2129:	e8 b2 fd ff ff       	call   1ee0 <usb_hid_report_number>
    212e:	83 c4 0c             	add    $0xc,%esp
    2131:	89 03                	mov    %eax,(%ebx)
    2133:	68 4f 57 01 00       	push   $0x1574f
    2138:	6a 05                	push   $0x5
    213a:	6a ff                	push   $0xffffffff
    213c:	e8 ff 8f 01 00       	call   1b140 <log_msg@plt>
    2141:	83 c4 10             	add    $0x10,%esp
    2144:	31 c0                	xor    %eax,%eax
    2146:	8d 65 f4             	lea    -0xc(%ebp),%esp
    2149:	5b                   	pop    %ebx
    214a:	5e                   	pop    %esi
    214b:	5f                   	pop    %edi
    214c:	5d                   	pop    %ebp
    214d:	c3                   	ret    
    214e:	66 90                	xchg   %ax,%ax
    2150:	83 ec 0c             	sub    $0xc,%esp
    2153:	8b 55 10             	mov    0x10(%ebp),%edx
    2156:	52                   	push   %edx
    2157:	50                   	push   %eax
    2158:	68 f4 55 01 00       	push   $0x155f4
    215d:	6a 04                	push   $0x4
    215f:	6a ff                	push   $0xffffffff
    2161:	e8 da 8f 01 00       	call   1b140 <log_msg@plt>
    2166:	83 c4 20             	add    $0x20,%esp
    2169:	b8 f2 ff ff ff       	mov    $0xfffffff2,%eax
    216e:	eb d6                	jmp    2146 <usb_generic_hid_get_event+0x86>
    2170:	53                   	push   %ebx
    2171:	68 c7 56 01 00       	push   $0x156c7
    2176:	6a 04                	push   $0x4
    2178:	6a ff                	push   $0xffffffff
    217a:	e8 c1 8f 01 00       	call   1b140 <log_msg@plt>
    217f:	83 c4 10             	add    $0x10,%esp
    2182:	b8 f2 ff ff ff       	mov    $0xfffffff2,%eax
    2187:	eb bd                	jmp    2146 <usb_generic_hid_get_event+0x86>
    2189:	8d b4 26 00 00 00 00 	lea    0x0(%esi,%eiz,1),%esi

00002190 <usb_generic_hid_deinit>:
    2190:	55                   	push   %ebp
    2191:	89 e5                	mov    %esp,%ebp
    2193:	53                   	push   %ebx
    2194:	52                   	push   %edx
    2195:	8b 5d 0c             	mov    0xc(%ebp),%ebx
    2198:	85 db                	test   %ebx,%ebx
    219a:	74 4e                	je     21ea <usb_generic_hid_deinit+0x5a>
    219c:	83 ec 0c             	sub    $0xc,%esp
    219f:	53                   	push   %ebx
    21a0:	e8 2b a5 00 00       	call   c6d0 <ddf_fun_unbind>
    21a5:	83 c4 10             	add    $0x10,%esp
    21a8:	85 c0                	test   %eax,%eax
    21aa:	75 2c                	jne    21d8 <usb_generic_hid_deinit+0x48>
    21ac:	83 ec 0c             	sub    $0xc,%esp
    21af:	53                   	push   %ebx
    21b0:	e8 ab a2 00 00       	call   c460 <ddf_fun_get_name>
    21b5:	50                   	push   %eax
    21b6:	68 d3 56 01 00       	push   $0x156d3
    21bb:	6a 05                	push   $0x5
    21bd:	6a ff                	push   $0xffffffff
    21bf:	e8 7c 8f 01 00       	call   1b140 <log_msg@plt>
    21c4:	89 5d 08             	mov    %ebx,0x8(%ebp)
    21c7:	83 c4 20             	add    $0x20,%esp
    21ca:	8b 5d fc             	mov    -0x4(%ebp),%ebx
    21cd:	c9                   	leave  
    21ce:	e9 9d a2 00 00       	jmp    c470 <ddf_fun_destroy>
    21d3:	90                   	nop
    21d4:	8d 74 26 00          	lea    0x0(%esi,%eiz,1),%esi
    21d8:	50                   	push   %eax
    21d9:	68 1c 56 01 00       	push   $0x1561c
    21de:	6a 01                	push   $0x1
    21e0:	6a ff                	push   $0xffffffff
    21e2:	e8 59 8f 01 00       	call   1b140 <log_msg@plt>
    21e7:	83 c4 10             	add    $0x10,%esp
    21ea:	8b 5d fc             	mov    -0x4(%ebp),%ebx
    21ed:	c9                   	leave  
    21ee:	c3                   	ret    
    21ef:	90                   	nop

000021f0 <usb_generic_hid_init>:
    21f0:	55                   	push   %ebp
    21f1:	89 e5                	mov    %esp,%ebp
    21f3:	56                   	push   %esi
    21f4:	53                   	push   %ebx
    21f5:	8b 75 08             	mov    0x8(%ebp),%esi
    21f8:	85 f6                	test   %esi,%esi
    21fa:	0f 84 b8 00 00 00    	je     22b8 <usb_generic_hid_init+0xc8>
    2200:	a1 bc d4 01 00       	mov    0x1d4bc,%eax
    2205:	50                   	push   %eax
    2206:	68 e0 56 01 00       	push   $0x156e0
    220b:	6a 04                	push   $0x4
    220d:	6a ff                	push   $0xffffffff
    220f:	e8 2c 8f 01 00       	call   1b140 <log_msg@plt>
    2214:	83 c4 0c             	add    $0xc,%esp
    2217:	a1 bc d4 01 00       	mov    0x1d4bc,%eax
    221c:	50                   	push   %eax
    221d:	8b 06                	mov    (%esi),%eax
    221f:	6a 02                	push   $0x2
    2221:	50                   	push   %eax
    2222:	e8 99 6b 00 00       	call   8dc0 <usb_device_ddf_fun_create>
    2227:	83 c4 10             	add    $0x10,%esp
    222a:	89 c3                	mov    %eax,%ebx
    222c:	85 c0                	test   %eax,%eax
    222e:	0f 84 8b 00 00 00    	je     22bf <usb_generic_hid_init+0xcf>
    2234:	50                   	push   %eax
    2235:	50                   	push   %eax
    2236:	6a 04                	push   $0x4
    2238:	53                   	push   %ebx
    2239:	e8 b2 a1 00 00       	call   c3f0 <ddf_fun_data_alloc>
    223e:	89 30                	mov    %esi,(%eax)
    2240:	5a                   	pop    %edx
    2241:	59                   	pop    %ecx
    2242:	68 60 d4 01 00       	push   $0x1d460
    2247:	53                   	push   %ebx
    2248:	e8 43 a6 00 00       	call   c890 <ddf_fun_set_ops>
    224d:	89 1c 24             	mov    %ebx,(%esp)
    2250:	e8 4b a3 00 00       	call   c5a0 <ddf_fun_bind>
    2255:	83 c4 10             	add    $0x10,%esp
    2258:	89 c6                	mov    %eax,%esi
    225a:	85 c0                	test   %eax,%eax
    225c:	75 2a                	jne    2288 <usb_generic_hid_init+0x98>
    225e:	83 ec 0c             	sub    $0xc,%esp
    2261:	53                   	push   %ebx
    2262:	e8 69 a0 00 00       	call   c2d0 <ddf_fun_get_handle>
    2267:	50                   	push   %eax
    2268:	68 8c 56 01 00       	push   $0x1568c
    226d:	6a 04                	push   $0x4
    226f:	6a ff                	push   $0xffffffff
    2271:	e8 ca 8e 01 00       	call   1b140 <log_msg@plt>
    2276:	8b 45 0c             	mov    0xc(%ebp),%eax
    2279:	83 c4 20             	add    $0x20,%esp
    227c:	89 18                	mov    %ebx,(%eax)
    227e:	8d 65 f8             	lea    -0x8(%ebp),%esp
    2281:	89 f0                	mov    %esi,%eax
    2283:	5b                   	pop    %ebx
    2284:	5e                   	pop    %esi
    2285:	5d                   	pop    %ebp
    2286:	c3                   	ret    
    2287:	90                   	nop
    2288:	83 ec 0c             	sub    $0xc,%esp
    228b:	50                   	push   %eax
    228c:	e8 2f 91 01 00       	call   1b3c0 <str_error@plt>
    2291:	50                   	push   %eax
    2292:	68 68 56 01 00       	push   $0x15668
    2297:	6a 01                	push   $0x1
    2299:	6a ff                	push   $0xffffffff
    229b:	e8 a0 8e 01 00       	call   1b140 <log_msg@plt>
    22a0:	83 c4 14             	add    $0x14,%esp
    22a3:	53                   	push   %ebx
    22a4:	e8 c7 a1 00 00       	call   c470 <ddf_fun_destroy>
    22a9:	83 c4 10             	add    $0x10,%esp
    22ac:	8d 65 f8             	lea    -0x8(%ebp),%esp
    22af:	89 f0                	mov    %esi,%eax
    22b1:	5b                   	pop    %ebx
    22b2:	5e                   	pop    %esi
    22b3:	5d                   	pop    %ebp
    22b4:	c3                   	ret    
    22b5:	8d 76 00             	lea    0x0(%esi),%esi
    22b8:	be f2 ff ff ff       	mov    $0xfffffff2,%esi
    22bd:	eb bf                	jmp    227e <usb_generic_hid_init+0x8e>
    22bf:	53                   	push   %ebx
    22c0:	68 40 56 01 00       	push   $0x15640
    22c5:	6a 01                	push   $0x1
    22c7:	6a ff                	push   $0xffffffff
    22c9:	be fe ff ff ff       	mov    $0xfffffffe,%esi
    22ce:	e8 6d 8e 01 00       	call   1b140 <log_msg@plt>
    22d3:	83 c4 10             	add    $0x10,%esp
    22d6:	eb a6                	jmp    227e <usb_generic_hid_init+0x8e>
    22d8:	90                   	nop
    22d9:	8d b4 26 00 00 00 00 	lea    0x0(%esi,%eiz,1),%esi

000022e0 <usb_generic_hid_polling_callback>:
    22e0:	55                   	push   %ebp
    22e1:	b0 01                	mov    $0x1,%al
    22e3:	89 e5                	mov    %esp,%ebp
    22e5:	5d                   	pop    %ebp
    22e6:	c3                   	ret    
    22e7:	66 90                	xchg   %ax,%ax
    22e9:	66 90                	xchg   %ax,%ax
    22eb:	66 90                	xchg   %ax,%ax
    22ed:	66 90                	xchg   %ax,%ax
    22ef:	90                   	nop

000022f0 <usbhid_parse_scancode>:
    22f0:	55                   	push   %ebp
    22f1:	83 c8 ff             	or     $0xffffffff,%eax
    22f4:	89 e5                	mov    %esp,%ebp
    22f6:	81 7d 08 fe 00 00 00 	cmpl   $0xfe,0x8(%ebp)
    22fd:	76 09                	jbe    2308 <usbhid_parse_scancode+0x18>
    22ff:	5d                   	pop    %ebp
    2300:	c3                   	ret    
    2301:	8d b4 26 00 00 00 00 	lea    0x0(%esi,%eiz,1),%esi
    2308:	8b 45 08             	mov    0x8(%ebp),%eax
    230b:	5d                   	pop    %ebp
    230c:	8b 04 85 c0 d4 01 00 	mov    0x1d4c0(,%eax,4),%eax
    2313:	c3                   	ret    
    2314:	66 90                	xchg   %ax,%ax
    2316:	66 90                	xchg   %ax,%ax
    2318:	66 90                	xchg   %ax,%ax
    231a:	66 90                	xchg   %ax,%ax
    231c:	66 90                	xchg   %ax,%ax
    231e:	66 90                	xchg   %ax,%ax

00002320 <usb_kbd_set_led.part.0>:
    2320:	55                   	push   %ebp
    2321:	89 e5                	mov    %esp,%ebp
    2323:	57                   	push   %edi
    2324:	56                   	push   %esi
    2325:	53                   	push   %ebx
    2326:	83 ec 20             	sub    $0x20,%esp
    2329:	89 c6                	mov    %eax,%esi
    232b:	8b 42 48             	mov    0x48(%edx),%eax
    232e:	89 d7                	mov    %edx,%edi
    2330:	c1 e0 02             	shl    $0x2,%eax
    2333:	8d 5e 18             	lea    0x18(%esi),%ebx
    2336:	50                   	push   %eax
    2337:	6a 00                	push   $0x0
    2339:	8b 42 50             	mov    0x50(%edx),%eax
    233c:	50                   	push   %eax
    233d:	e8 9e 8f 01 00       	call   1b2e0 <memset@plt>
    2342:	83 c4 0c             	add    $0xc,%esp
    2345:	68 18 57 01 00       	push   $0x15718
    234a:	6a 04                	push   $0x4
    234c:	6a ff                	push   $0xffffffff
    234e:	e8 ed 8d 01 00       	call   1b140 <log_msg@plt>
    2353:	c7 04 24 02 00 00 00 	movl   $0x2,(%esp)
    235a:	6a 03                	push   $0x3
    235c:	8b 47 4c             	mov    0x4c(%edi),%eax
    235f:	50                   	push   %eax
    2360:	6a 00                	push   $0x0
    2362:	eb 29                	jmp    238d <usb_kbd_set_led.part.0+0x6d>
    2364:	8d 74 26 00          	lea    0x0(%esi,%eiz,1),%esi
    2368:	66 83 f9 02          	cmp    $0x2,%cx
    236c:	74 42                	je     23b0 <usb_kbd_set_led.part.0+0x90>
    236e:	66 83 f9 03          	cmp    $0x3,%cx
    2372:	75 0d                	jne    2381 <usb_kbd_set_led.part.0+0x61>
    2374:	f6 47 15 01          	testb  $0x1,0x15(%edi)
    2378:	74 07                	je     2381 <usb_kbd_set_led.part.0+0x61>
    237a:	c7 40 3c 01 00 00 00 	movl   $0x1,0x3c(%eax)
    2381:	83 ec 0c             	sub    $0xc,%esp
    2384:	6a 02                	push   $0x2
    2386:	6a 03                	push   $0x3
    2388:	8b 57 4c             	mov    0x4c(%edi),%edx
    238b:	52                   	push   %edx
    238c:	50                   	push   %eax
    238d:	53                   	push   %ebx
    238e:	e8 0d 48 00 00       	call   6ba0 <usb_hid_report_get_sibling>
    2393:	83 c4 20             	add    $0x20,%esp
    2396:	85 c0                	test   %eax,%eax
    2398:	74 1e                	je     23b8 <usb_kbd_set_led.part.0+0x98>
    239a:	66 8b 48 0a          	mov    0xa(%eax),%cx
    239e:	66 83 f9 01          	cmp    $0x1,%cx
    23a2:	75 c4                	jne    2368 <usb_kbd_set_led.part.0+0x48>
    23a4:	f6 47 14 80          	testb  $0x80,0x14(%edi)
    23a8:	74 d7                	je     2381 <usb_kbd_set_led.part.0+0x61>
    23aa:	eb ce                	jmp    237a <usb_kbd_set_led.part.0+0x5a>
    23ac:	8d 74 26 00          	lea    0x0(%esi,%eiz,1),%esi
    23b0:	f6 47 14 40          	testb  $0x40,0x14(%edi)
    23b4:	74 cb                	je     2381 <usb_kbd_set_led.part.0+0x61>
    23b6:	eb c2                	jmp    237a <usb_kbd_set_led.part.0+0x5a>
    23b8:	8b 4f 44             	mov    0x44(%edi),%ecx
    23bb:	51                   	push   %ecx
    23bc:	8b 47 40             	mov    0x40(%edi),%eax
    23bf:	50                   	push   %eax
    23c0:	6a 00                	push   $0x0
    23c2:	53                   	push   %ebx
    23c3:	e8 48 43 00 00       	call   6710 <usb_hid_report_output_translate>
    23c8:	83 c4 10             	add    $0x10,%esp
    23cb:	85 c0                	test   %eax,%eax
    23cd:	0f 85 7d 00 00 00    	jne    2450 <usb_kbd_set_led.part.0+0x130>
    23d3:	52                   	push   %edx
    23d4:	6a 00                	push   $0x0
    23d6:	8b 4f 44             	mov    0x44(%edi),%ecx
    23d9:	51                   	push   %ecx
    23da:	8b 5f 40             	mov    0x40(%edi),%ebx
    23dd:	53                   	push   %ebx
    23de:	e8 3d 94 00 00       	call   b820 <usb_debug_str_buffer>
    23e3:	50                   	push   %eax
    23e4:	68 31 57 01 00       	push   $0x15731
    23e9:	6a 04                	push   $0x4
    23eb:	6a ff                	push   $0xffffffff
    23ed:	e8 4e 8d 01 00       	call   1b140 <log_msg@plt>
    23f2:	83 c4 14             	add    $0x14,%esp
    23f5:	8b 57 44             	mov    0x44(%edi),%edx
    23f8:	8b 06                	mov    (%esi),%eax
    23fa:	89 55 e4             	mov    %edx,-0x1c(%ebp)
    23fd:	8b 7f 40             	mov    0x40(%edi),%edi
    2400:	50                   	push   %eax
    2401:	e8 7a 60 00 00       	call   8480 <usb_device_get_iface_number>
    2406:	89 c3                	mov    %eax,%ebx
    2408:	58                   	pop    %eax
    2409:	8b 06                	mov    (%esi),%eax
    240b:	50                   	push   %eax
    240c:	e8 7f 5f 00 00       	call   8390 <usb_device_get_default_pipe>
    2411:	8b 55 e4             	mov    -0x1c(%ebp),%edx
    2414:	89 14 24             	mov    %edx,(%esp)
    2417:	57                   	push   %edi
    2418:	6a 02                	push   $0x2
    241a:	53                   	push   %ebx
    241b:	50                   	push   %eax
    241c:	e8 5f 54 00 00       	call   7880 <usbhid_req_set_report>
    2421:	83 c4 20             	add    $0x20,%esp
    2424:	85 c0                	test   %eax,%eax
    2426:	75 08                	jne    2430 <usb_kbd_set_led.part.0+0x110>
    2428:	8d 65 f4             	lea    -0xc(%ebp),%esp
    242b:	5b                   	pop    %ebx
    242c:	5e                   	pop    %esi
    242d:	5f                   	pop    %edi
    242e:	5d                   	pop    %ebp
    242f:	c3                   	ret    
    2430:	50                   	push   %eax
    2431:	68 40 58 01 00       	push   $0x15840
    2436:	6a 02                	push   $0x2
    2438:	6a ff                	push   $0xffffffff
    243a:	e8 01 8d 01 00       	call   1b140 <log_msg@plt>
    243f:	83 c4 10             	add    $0x10,%esp
    2442:	8d 65 f4             	lea    -0xc(%ebp),%esp
    2445:	5b                   	pop    %ebx
    2446:	5e                   	pop    %esi
    2447:	5f                   	pop    %edi
    2448:	5d                   	pop    %ebp
    2449:	c3                   	ret    
    244a:	8d b6 00 00 00 00    	lea    0x0(%esi),%esi
    2450:	50                   	push   %eax
    2451:	68 0c 58 01 00       	push   $0x1580c
    2456:	6a 02                	push   $0x2
    2458:	6a ff                	push   $0xffffffff
    245a:	e8 e1 8c 01 00       	call   1b140 <log_msg@plt>
    245f:	83 c4 10             	add    $0x10,%esp
    2462:	8d 65 f4             	lea    -0xc(%ebp),%esp
    2465:	5b                   	pop    %ebx
    2466:	5e                   	pop    %esi
    2467:	5f                   	pop    %edi
    2468:	5d                   	pop    %ebp
    2469:	c3                   	ret    
    246a:	8d b6 00 00 00 00    	lea    0x0(%esi),%esi

00002470 <default_connection_handler>:
    2470:	55                   	push   %ebp
    2471:	89 e5                	mov    %esp,%ebp
    2473:	57                   	push   %edi
    2474:	56                   	push   %esi
    2475:	53                   	push   %ebx
    2476:	83 ec 28             	sub    $0x28,%esp
    2479:	8b 75 10             	mov    0x10(%ebp),%esi
    247c:	8b 45 08             	mov    0x8(%ebp),%eax
    247f:	8b 7d 0c             	mov    0xc(%ebp),%edi
    2482:	8b 1e                	mov    (%esi),%ebx
    2484:	50                   	push   %eax
    2485:	e8 c6 9f 00 00       	call   c450 <ddf_fun_data_get>
    248a:	83 c4 10             	add    $0x10,%esp
    248d:	89 c1                	mov    %eax,%ecx
    248f:	83 fb 03             	cmp    $0x3,%ebx
    2492:	74 64                	je     24f8 <default_connection_handler+0x88>
    2494:	81 fb 11 04 00 00    	cmp    $0x411,%ebx
    249a:	75 2c                	jne    24c8 <default_connection_handler+0x58>
    249c:	8b 46 04             	mov    0x4(%esi),%eax
    249f:	8b 71 44             	mov    0x44(%ecx),%esi
    24a2:	89 41 14             	mov    %eax,0x14(%ecx)
    24a5:	85 f6                	test   %esi,%esi
    24a7:	74 09                	je     24b2 <default_connection_handler+0x42>
    24a9:	89 ca                	mov    %ecx,%edx
    24ab:	8b 01                	mov    (%ecx),%eax
    24ad:	e8 6e fe ff ff       	call   2320 <usb_kbd_set_led.part.0>
    24b2:	89 7d 08             	mov    %edi,0x8(%ebp)
    24b5:	c7 45 0c 00 00 00 00 	movl   $0x0,0xc(%ebp)
    24bc:	8d 65 f4             	lea    -0xc(%ebp),%esp
    24bf:	5b                   	pop    %ebx
    24c0:	5e                   	pop    %esi
    24c1:	5f                   	pop    %edi
    24c2:	5d                   	pop    %ebp
    24c3:	e9 58 8c 01 00       	jmp    1b120 <async_answer_0@plt>
    24c8:	83 ec 0c             	sub    $0xc,%esp
    24cb:	53                   	push   %ebx
    24cc:	68 80 5d 01 00       	push   $0x15d80
    24d1:	68 53 57 01 00       	push   $0x15753
    24d6:	6a 01                	push   $0x1
    24d8:	6a ff                	push   $0xffffffff
    24da:	e8 61 8c 01 00       	call   1b140 <log_msg@plt>
    24df:	83 c4 20             	add    $0x20,%esp
    24e2:	c7 45 0c f2 ff ff ff 	movl   $0xfffffff2,0xc(%ebp)
    24e9:	89 7d 08             	mov    %edi,0x8(%ebp)
    24ec:	8d 65 f4             	lea    -0xc(%ebp),%esp
    24ef:	5b                   	pop    %ebx
    24f0:	5e                   	pop    %esi
    24f1:	5f                   	pop    %edi
    24f2:	5d                   	pop    %ebp
    24f3:	e9 28 8c 01 00       	jmp    1b120 <async_answer_0@plt>
    24f8:	89 45 e4             	mov    %eax,-0x1c(%ebp)
    24fb:	53                   	push   %ebx
    24fc:	53                   	push   %ebx
    24fd:	56                   	push   %esi
    24fe:	6a 01                	push   $0x1
    2500:	e8 1b 8d 01 00       	call   1b220 <async_callback_receive_start@plt>
    2505:	83 c4 10             	add    $0x10,%esp
    2508:	8b 4d e4             	mov    -0x1c(%ebp),%ecx
    250b:	85 c0                	test   %eax,%eax
    250d:	74 59                	je     2568 <default_connection_handler+0xf8>
    250f:	8b 51 1c             	mov    0x1c(%ecx),%edx
    2512:	85 d2                	test   %edx,%edx
    2514:	74 32                	je     2548 <default_connection_handler+0xd8>
    2516:	68 80 5d 01 00       	push   $0x15d80
    251b:	68 8c 58 01 00       	push   $0x1588c
    2520:	6a 01                	push   $0x1
    2522:	6a ff                	push   $0xffffffff
    2524:	e8 17 8c 01 00       	call   1b140 <log_msg@plt>
    2529:	89 7d 08             	mov    %edi,0x8(%ebp)
    252c:	c7 45 0c fd ff ff ff 	movl   $0xfffffffd,0xc(%ebp)
    2533:	83 c4 10             	add    $0x10,%esp
    2536:	8d 65 f4             	lea    -0xc(%ebp),%esp
    2539:	5b                   	pop    %ebx
    253a:	5e                   	pop    %esi
    253b:	5f                   	pop    %edi
    253c:	5d                   	pop    %ebp
    253d:	e9 de 8b 01 00       	jmp    1b120 <async_answer_0@plt>
    2542:	8d b6 00 00 00 00    	lea    0x0(%esi),%esi
    2548:	89 41 1c             	mov    %eax,0x1c(%ecx)
    254b:	68 80 5d 01 00       	push   $0x15d80
    2550:	68 4b 57 01 00       	push   $0x1574b
    2555:	6a 04                	push   $0x4
    2557:	6a ff                	push   $0xffffffff
    2559:	e8 e2 8b 01 00       	call   1b140 <log_msg@plt>
    255e:	83 c4 10             	add    $0x10,%esp
    2561:	e9 4c ff ff ff       	jmp    24b2 <default_connection_handler+0x42>
    2566:	66 90                	xchg   %ax,%ax
    2568:	51                   	push   %ecx
    2569:	68 60 58 01 00       	push   $0x15860
    256e:	6a 02                	push   $0x2
    2570:	6a ff                	push   $0xffffffff
    2572:	e8 c9 8b 01 00       	call   1b140 <log_msg@plt>
    2577:	83 c4 10             	add    $0x10,%esp
    257a:	c7 45 0c 06 d5 ff ff 	movl   $0xffffd506,0xc(%ebp)
    2581:	e9 63 ff ff ff       	jmp    24e9 <default_connection_handler+0x79>
    2586:	8d 76 00             	lea    0x0(%esi),%esi
    2589:	8d bc 27 00 00 00 00 	lea    0x0(%edi,%eiz,1),%edi

00002590 <usb_kbd_check_key_changes.isra.2>:
    2590:	55                   	push   %ebp
    2591:	89 e5                	mov    %esp,%ebp
    2593:	57                   	push   %edi
    2594:	56                   	push   %esi
    2595:	53                   	push   %ebx
    2596:	81 ec 1c 02 00 00    	sub    $0x21c,%esp
    259c:	89 c7                	mov    %eax,%edi
    259e:	89 85 e4 fd ff ff    	mov    %eax,-0x21c(%ebp)
    25a4:	8b 40 0c             	mov    0xc(%eax),%eax
    25a7:	8b 57 08             	mov    0x8(%edi),%edx
    25aa:	85 c0                	test   %eax,%eax
    25ac:	0f 84 d4 02 00 00    	je     2886 <usb_kbd_check_key_changes.isra.2+0x2f6>
    25b2:	83 3a 01             	cmpl   $0x1,(%edx)
    25b5:	0f 84 55 02 00 00    	je     2810 <usb_kbd_check_key_changes.isra.2+0x280>
    25bb:	31 c9                	xor    %ecx,%ecx
    25bd:	eb 0b                	jmp    25ca <usb_kbd_check_key_changes.isra.2+0x3a>
    25bf:	90                   	nop
    25c0:	83 3c 8a 01          	cmpl   $0x1,(%edx,%ecx,4)
    25c4:	0f 84 46 02 00 00    	je     2810 <usb_kbd_check_key_changes.isra.2+0x280>
    25ca:	41                   	inc    %ecx
    25cb:	39 c8                	cmp    %ecx,%eax
    25cd:	75 f1                	jne    25c0 <usb_kbd_check_key_changes.isra.2+0x30>
    25cf:	8b bd e4 fd ff ff    	mov    -0x21c(%ebp),%edi
    25d5:	8b 4f 04             	mov    0x4(%edi),%ecx
    25d8:	31 ff                	xor    %edi,%edi
    25da:	8d b6 00 00 00 00    	lea    0x0(%esi),%esi
    25e0:	8b 1c b9             	mov    (%ecx,%edi,4),%ebx
    25e3:	85 c0                	test   %eax,%eax
    25e5:	74 1f                	je     2606 <usb_kbd_check_key_changes.isra.2+0x76>
    25e7:	3b 1a                	cmp    (%edx),%ebx
    25e9:	0f 84 d2 00 00 00    	je     26c1 <usb_kbd_check_key_changes.isra.2+0x131>
    25ef:	31 f6                	xor    %esi,%esi
    25f1:	eb 0e                	jmp    2601 <usb_kbd_check_key_changes.isra.2+0x71>
    25f3:	90                   	nop
    25f4:	8d 74 26 00          	lea    0x0(%esi,%eiz,1),%esi
    25f8:	3b 1c b2             	cmp    (%edx,%esi,4),%ebx
    25fb:	0f 84 c0 00 00 00    	je     26c1 <usb_kbd_check_key_changes.isra.2+0x131>
    2601:	46                   	inc    %esi
    2602:	39 c6                	cmp    %eax,%esi
    2604:	75 f2                	jne    25f8 <usb_kbd_check_key_changes.isra.2+0x68>
    2606:	83 ec 0c             	sub    $0xc,%esp
    2609:	53                   	push   %ebx
    260a:	e8 e1 fc ff ff       	call   22f0 <usbhid_parse_scancode>
    260f:	83 c4 10             	add    $0x10,%esp
    2612:	89 c6                	mov    %eax,%esi
    2614:	83 f8 58             	cmp    $0x58,%eax
    2617:	0f 94 c2             	sete   %dl
    261a:	83 f8 4b             	cmp    $0x4b,%eax
    261d:	0f 94 c0             	sete   %al
    2620:	08 c2                	or     %al,%dl
    2622:	75 17                	jne    263b <usb_kbd_check_key_changes.isra.2+0xab>
    2624:	83 fe 1c             	cmp    $0x1c,%esi
    2627:	74 12                	je     263b <usb_kbd_check_key_changes.isra.2+0xab>
    2629:	8b 85 e4 fd ff ff    	mov    -0x21c(%ebp),%eax
    262f:	51                   	push   %ecx
    2630:	51                   	push   %ecx
    2631:	56                   	push   %esi
    2632:	50                   	push   %eax
    2633:	e8 e8 0c 00 00       	call   3320 <usb_kbd_repeat_stop>
    2638:	83 c4 10             	add    $0x10,%esp
    263b:	83 ec 0c             	sub    $0xc,%esp
    263e:	56                   	push   %esi
    263f:	6a 01                	push   $0x1
    2641:	68 b0 58 01 00       	push   $0x158b0
    2646:	6a 05                	push   $0x5
    2648:	6a ff                	push   $0xffffffff
    264a:	e8 f1 8a 01 00       	call   1b140 <log_msg@plt>
    264f:	8b 85 e4 fd ff ff    	mov    -0x21c(%ebp),%eax
    2655:	83 c4 20             	add    $0x20,%esp
    2658:	8b 40 1c             	mov    0x1c(%eax),%eax
    265b:	85 c0                	test   %eax,%eax
    265d:	0f 84 f5 01 00 00    	je     2858 <usb_kbd_check_key_changes.isra.2+0x2c8>
    2663:	83 ec 0c             	sub    $0xc,%esp
    2666:	50                   	push   %eax
    2667:	e8 44 8d 01 00       	call   1b3b0 <async_exchange_begin@plt>
    266c:	83 c4 10             	add    $0x10,%esp
    266f:	85 c0                	test   %eax,%eax
    2671:	0f 84 ca 01 00 00    	je     2841 <usb_kbd_check_key_changes.isra.2+0x2b1>
    2677:	56                   	push   %esi
    2678:	89 85 e0 fd ff ff    	mov    %eax,-0x220(%ebp)
    267e:	6a 01                	push   $0x1
    2680:	68 00 04 00 00       	push   $0x400
    2685:	50                   	push   %eax
    2686:	e8 65 8e 01 00       	call   1b4f0 <async_msg_2@plt>
    268b:	8b 85 e0 fd ff ff    	mov    -0x220(%ebp),%eax
    2691:	89 04 24             	mov    %eax,(%esp)
    2694:	e8 e7 8a 01 00       	call   1b180 <async_exchange_end@plt>
    2699:	83 c4 10             	add    $0x10,%esp
    269c:	83 ec 0c             	sub    $0xc,%esp
    269f:	53                   	push   %ebx
    26a0:	56                   	push   %esi
    26a1:	68 30 59 01 00       	push   $0x15930
    26a6:	6a 05                	push   $0x5
    26a8:	6a ff                	push   $0xffffffff
    26aa:	e8 91 8a 01 00       	call   1b140 <log_msg@plt>
    26af:	8b 85 e4 fd ff ff    	mov    -0x21c(%ebp),%eax
    26b5:	83 c4 20             	add    $0x20,%esp
    26b8:	8b 50 08             	mov    0x8(%eax),%edx
    26bb:	8b 48 04             	mov    0x4(%eax),%ecx
    26be:	8b 40 0c             	mov    0xc(%eax),%eax
    26c1:	47                   	inc    %edi
    26c2:	39 c7                	cmp    %eax,%edi
    26c4:	0f 82 16 ff ff ff    	jb     25e0 <usb_kbd_check_key_changes.isra.2+0x50>
    26ca:	85 c0                	test   %eax,%eax
    26cc:	0f 84 f3 00 00 00    	je     27c5 <usb_kbd_check_key_changes.isra.2+0x235>
    26d2:	31 ff                	xor    %edi,%edi
    26d4:	8d 74 26 00          	lea    0x0(%esi,%eiz,1),%esi
    26d8:	8b 1c ba             	mov    (%edx,%edi,4),%ebx
    26db:	85 c0                	test   %eax,%eax
    26dd:	74 1f                	je     26fe <usb_kbd_check_key_changes.isra.2+0x16e>
    26df:	3b 19                	cmp    (%ecx),%ebx
    26e1:	0f 84 d2 00 00 00    	je     27b9 <usb_kbd_check_key_changes.isra.2+0x229>
    26e7:	31 f6                	xor    %esi,%esi
    26e9:	eb 0e                	jmp    26f9 <usb_kbd_check_key_changes.isra.2+0x169>
    26eb:	90                   	nop
    26ec:	8d 74 26 00          	lea    0x0(%esi,%eiz,1),%esi
    26f0:	3b 1c b1             	cmp    (%ecx,%esi,4),%ebx
    26f3:	0f 84 c0 00 00 00    	je     27b9 <usb_kbd_check_key_changes.isra.2+0x229>
    26f9:	46                   	inc    %esi
    26fa:	39 c6                	cmp    %eax,%esi
    26fc:	75 f2                	jne    26f0 <usb_kbd_check_key_changes.isra.2+0x160>
    26fe:	83 ec 0c             	sub    $0xc,%esp
    2701:	53                   	push   %ebx
    2702:	e8 e9 fb ff ff       	call   22f0 <usbhid_parse_scancode>
    2707:	83 c4 10             	add    $0x10,%esp
    270a:	89 c6                	mov    %eax,%esi
    270c:	83 f8 58             	cmp    $0x58,%eax
    270f:	0f 94 c2             	sete   %dl
    2712:	83 f8 4b             	cmp    $0x4b,%eax
    2715:	0f 94 c0             	sete   %al
    2718:	08 c2                	or     %al,%dl
    271a:	75 17                	jne    2733 <usb_kbd_check_key_changes.isra.2+0x1a3>
    271c:	83 fe 1c             	cmp    $0x1c,%esi
    271f:	74 12                	je     2733 <usb_kbd_check_key_changes.isra.2+0x1a3>
    2721:	8b 95 e4 fd ff ff    	mov    -0x21c(%ebp),%edx
    2727:	50                   	push   %eax
    2728:	50                   	push   %eax
    2729:	56                   	push   %esi
    272a:	52                   	push   %edx
    272b:	e8 c0 0b 00 00       	call   32f0 <usb_kbd_repeat_start>
    2730:	83 c4 10             	add    $0x10,%esp
    2733:	83 ec 0c             	sub    $0xc,%esp
    2736:	56                   	push   %esi
    2737:	6a 00                	push   $0x0
    2739:	68 b0 58 01 00       	push   $0x158b0
    273e:	6a 05                	push   $0x5
    2740:	6a ff                	push   $0xffffffff
    2742:	e8 f9 89 01 00       	call   1b140 <log_msg@plt>
    2747:	8b 85 e4 fd ff ff    	mov    -0x21c(%ebp),%eax
    274d:	83 c4 20             	add    $0x20,%esp
    2750:	8b 40 1c             	mov    0x1c(%eax),%eax
    2753:	85 c0                	test   %eax,%eax
    2755:	0f 84 14 01 00 00    	je     286f <usb_kbd_check_key_changes.isra.2+0x2df>
    275b:	83 ec 0c             	sub    $0xc,%esp
    275e:	50                   	push   %eax
    275f:	e8 4c 8c 01 00       	call   1b3b0 <async_exchange_begin@plt>
    2764:	83 c4 10             	add    $0x10,%esp
    2767:	85 c0                	test   %eax,%eax
    2769:	0f 84 bb 00 00 00    	je     282a <usb_kbd_check_key_changes.isra.2+0x29a>
    276f:	56                   	push   %esi
    2770:	89 85 e0 fd ff ff    	mov    %eax,-0x220(%ebp)
    2776:	6a 00                	push   $0x0
    2778:	68 00 04 00 00       	push   $0x400
    277d:	50                   	push   %eax
    277e:	e8 6d 8d 01 00       	call   1b4f0 <async_msg_2@plt>
    2783:	8b 85 e0 fd ff ff    	mov    -0x220(%ebp),%eax
    2789:	89 04 24             	mov    %eax,(%esp)
    278c:	e8 ef 89 01 00       	call   1b180 <async_exchange_end@plt>
    2791:	83 c4 10             	add    $0x10,%esp
    2794:	83 ec 0c             	sub    $0xc,%esp
    2797:	53                   	push   %ebx
    2798:	56                   	push   %esi
    2799:	68 50 59 01 00       	push   $0x15950
    279e:	6a 05                	push   $0x5
    27a0:	6a ff                	push   $0xffffffff
    27a2:	e8 99 89 01 00       	call   1b140 <log_msg@plt>
    27a7:	8b 85 e4 fd ff ff    	mov    -0x21c(%ebp),%eax
    27ad:	83 c4 20             	add    $0x20,%esp
    27b0:	8b 50 08             	mov    0x8(%eax),%edx
    27b3:	8b 48 04             	mov    0x4(%eax),%ecx
    27b6:	8b 40 0c             	mov    0xc(%eax),%eax
    27b9:	47                   	inc    %edi
    27ba:	39 c7                	cmp    %eax,%edi
    27bc:	0f 82 16 ff ff ff    	jb     26d8 <usb_kbd_check_key_changes.isra.2+0x148>
    27c2:	c1 e0 02             	shl    $0x2,%eax
    27c5:	53                   	push   %ebx
    27c6:	50                   	push   %eax
    27c7:	52                   	push   %edx
    27c8:	51                   	push   %ecx
    27c9:	e8 f2 88 01 00       	call   1b0c0 <memcpy@plt>
    27ce:	8b 85 e4 fd ff ff    	mov    -0x21c(%ebp),%eax
    27d4:	5e                   	pop    %esi
    27d5:	5f                   	pop    %edi
    27d6:	6a 00                	push   $0x0
    27d8:	8b 48 04             	mov    0x4(%eax),%ecx
    27db:	8b 50 0c             	mov    0xc(%eax),%edx
    27de:	8d 9d e8 fd ff ff    	lea    -0x218(%ebp),%ebx
    27e4:	52                   	push   %edx
    27e5:	6a 04                	push   $0x4
    27e7:	51                   	push   %ecx
    27e8:	68 00 02 00 00       	push   $0x200
    27ed:	53                   	push   %ebx
    27ee:	e8 ad a2 00 00       	call   caa0 <ddf_dump_buffer>
    27f3:	83 c4 20             	add    $0x20,%esp
    27f6:	53                   	push   %ebx
    27f7:	68 85 57 01 00       	push   $0x15785
    27fc:	6a 05                	push   $0x5
    27fe:	6a ff                	push   $0xffffffff
    2800:	e8 3b 89 01 00       	call   1b140 <log_msg@plt>
    2805:	83 c4 10             	add    $0x10,%esp
    2808:	8d 65 f4             	lea    -0xc(%ebp),%esp
    280b:	5b                   	pop    %ebx
    280c:	5e                   	pop    %esi
    280d:	5f                   	pop    %edi
    280e:	5d                   	pop    %ebp
    280f:	c3                   	ret    
    2810:	50                   	push   %eax
    2811:	68 6c 57 01 00       	push   $0x1576c
    2816:	6a 01                	push   $0x1
    2818:	6a ff                	push   $0xffffffff
    281a:	e8 21 89 01 00       	call   1b140 <log_msg@plt>
    281f:	83 c4 10             	add    $0x10,%esp
    2822:	8d 65 f4             	lea    -0xc(%ebp),%esp
    2825:	5b                   	pop    %ebx
    2826:	5e                   	pop    %esi
    2827:	5f                   	pop    %edi
    2828:	5d                   	pop    %ebp
    2829:	c3                   	ret    
    282a:	50                   	push   %eax
    282b:	68 10 59 01 00       	push   $0x15910
    2830:	6a 02                	push   $0x2
    2832:	6a ff                	push   $0xffffffff
    2834:	e8 07 89 01 00       	call   1b140 <log_msg@plt>
    2839:	83 c4 10             	add    $0x10,%esp
    283c:	e9 53 ff ff ff       	jmp    2794 <usb_kbd_check_key_changes.isra.2+0x204>
    2841:	50                   	push   %eax
    2842:	68 10 59 01 00       	push   $0x15910
    2847:	6a 02                	push   $0x2
    2849:	6a ff                	push   $0xffffffff
    284b:	e8 f0 88 01 00       	call   1b140 <log_msg@plt>
    2850:	83 c4 10             	add    $0x10,%esp
    2853:	e9 44 fe ff ff       	jmp    269c <usb_kbd_check_key_changes.isra.2+0x10c>
    2858:	50                   	push   %eax
    2859:	68 dc 58 01 00       	push   $0x158dc
    285e:	6a 02                	push   $0x2
    2860:	6a ff                	push   $0xffffffff
    2862:	e8 d9 88 01 00       	call   1b140 <log_msg@plt>
    2867:	83 c4 10             	add    $0x10,%esp
    286a:	e9 2d fe ff ff       	jmp    269c <usb_kbd_check_key_changes.isra.2+0x10c>
    286f:	50                   	push   %eax
    2870:	68 dc 58 01 00       	push   $0x158dc
    2875:	6a 02                	push   $0x2
    2877:	6a ff                	push   $0xffffffff
    2879:	e8 c2 88 01 00       	call   1b140 <log_msg@plt>
    287e:	83 c4 10             	add    $0x10,%esp
    2881:	e9 0e ff ff ff       	jmp    2794 <usb_kbd_check_key_changes.isra.2+0x204>
    2886:	8b 4f 04             	mov    0x4(%edi),%ecx
    2889:	e9 37 ff ff ff       	jmp    27c5 <usb_kbd_check_key_changes.isra.2+0x235>
    288e:	66 90                	xchg   %ax,%ax

00002890 <usb_kbd_push_ev>:
    2890:	55                   	push   %ebp
    2891:	89 e5                	mov    %esp,%ebp
    2893:	57                   	push   %edi
    2894:	56                   	push   %esi
    2895:	53                   	push   %ebx
    2896:	83 ec 18             	sub    $0x18,%esp
    2899:	8b 5d 08             	mov    0x8(%ebp),%ebx
    289c:	8b 75 0c             	mov    0xc(%ebp),%esi
    289f:	8b 7d 10             	mov    0x10(%ebp),%edi
    28a2:	57                   	push   %edi
    28a3:	56                   	push   %esi
    28a4:	68 b0 58 01 00       	push   $0x158b0
    28a9:	6a 05                	push   $0x5
    28ab:	6a ff                	push   $0xffffffff
    28ad:	e8 8e 88 01 00       	call   1b140 <log_msg@plt>
    28b2:	8b 43 1c             	mov    0x1c(%ebx),%eax
    28b5:	83 c4 20             	add    $0x20,%esp
    28b8:	85 c0                	test   %eax,%eax
    28ba:	74 5c                	je     2918 <usb_kbd_push_ev+0x88>
    28bc:	83 ec 0c             	sub    $0xc,%esp
    28bf:	50                   	push   %eax
    28c0:	e8 eb 8a 01 00       	call   1b3b0 <async_exchange_begin@plt>
    28c5:	83 c4 10             	add    $0x10,%esp
    28c8:	89 c3                	mov    %eax,%ebx
    28ca:	85 c0                	test   %eax,%eax
    28cc:	74 22                	je     28f0 <usb_kbd_push_ev+0x60>
    28ce:	57                   	push   %edi
    28cf:	56                   	push   %esi
    28d0:	68 00 04 00 00       	push   $0x400
    28d5:	50                   	push   %eax
    28d6:	e8 15 8c 01 00       	call   1b4f0 <async_msg_2@plt>
    28db:	89 5d 08             	mov    %ebx,0x8(%ebp)
    28de:	83 c4 10             	add    $0x10,%esp
    28e1:	8d 65 f4             	lea    -0xc(%ebp),%esp
    28e4:	5b                   	pop    %ebx
    28e5:	5e                   	pop    %esi
    28e6:	5f                   	pop    %edi
    28e7:	5d                   	pop    %ebp
    28e8:	e9 93 88 01 00       	jmp    1b180 <async_exchange_end@plt>
    28ed:	8d 76 00             	lea    0x0(%esi),%esi
    28f0:	c7 45 10 10 59 01 00 	movl   $0x15910,0x10(%ebp)
    28f7:	c7 45 0c 02 00 00 00 	movl   $0x2,0xc(%ebp)
    28fe:	c7 45 08 ff ff ff ff 	movl   $0xffffffff,0x8(%ebp)
    2905:	8d 65 f4             	lea    -0xc(%ebp),%esp
    2908:	5b                   	pop    %ebx
    2909:	5e                   	pop    %esi
    290a:	5f                   	pop    %edi
    290b:	5d                   	pop    %ebp
    290c:	e9 2f 88 01 00       	jmp    1b140 <log_msg@plt>
    2911:	8d b4 26 00 00 00 00 	lea    0x0(%esi,%eiz,1),%esi
    2918:	c7 45 10 dc 58 01 00 	movl   $0x158dc,0x10(%ebp)
    291f:	eb d6                	jmp    28f7 <usb_kbd_push_ev+0x67>
    2921:	eb 0d                	jmp    2930 <usb_kbd_polling_callback>
    2923:	90                   	nop
    2924:	90                   	nop
    2925:	90                   	nop
    2926:	90                   	nop
    2927:	90                   	nop
    2928:	90                   	nop
    2929:	90                   	nop
    292a:	90                   	nop
    292b:	90                   	nop
    292c:	90                   	nop
    292d:	90                   	nop
    292e:	90                   	nop
    292f:	90                   	nop

00002930 <usb_kbd_polling_callback>:
    2930:	55                   	push   %ebp
    2931:	89 e5                	mov    %esp,%ebp
    2933:	57                   	push   %edi
    2934:	56                   	push   %esi
    2935:	53                   	push   %ebx
    2936:	83 ec 1c             	sub    $0x1c,%esp
    2939:	8b 5d 08             	mov    0x8(%ebp),%ebx
    293c:	8b 75 0c             	mov    0xc(%ebp),%esi
    293f:	85 db                	test   %ebx,%ebx
    2941:	0f 84 f1 00 00 00    	je     2a38 <usb_kbd_polling_callback+0x108>
    2947:	85 f6                	test   %esi,%esi
    2949:	0f 84 e9 00 00 00    	je     2a38 <usb_kbd_polling_callback+0x108>
    294f:	e8 6c 49 00 00       	call   72c0 <usb_hid_report_path>
    2954:	89 45 e4             	mov    %eax,-0x1c(%ebp)
    2957:	85 c0                	test   %eax,%eax
    2959:	0f 84 25 01 00 00    	je     2a84 <usb_kbd_polling_callback+0x154>
    295f:	8b 55 e4             	mov    -0x1c(%ebp),%edx
    2962:	50                   	push   %eax
    2963:	6a 00                	push   $0x0
    2965:	6a 07                	push   $0x7
    2967:	52                   	push   %edx
    2968:	e8 13 44 00 00       	call   6d80 <usb_hid_report_path_append_item>
    296d:	83 c4 10             	add    $0x10,%esp
    2970:	85 c0                	test   %eax,%eax
    2972:	0f 85 f0 00 00 00    	jne    2a68 <usb_kbd_polling_callback+0x138>
    2978:	50                   	push   %eax
    2979:	50                   	push   %eax
    297a:	31 c0                	xor    %eax,%eax
    297c:	8b 7d e4             	mov    -0x1c(%ebp),%edi
    297f:	8a 43 38             	mov    0x38(%ebx),%al
    2982:	50                   	push   %eax
    2983:	57                   	push   %edi
    2984:	e8 17 4b 00 00       	call   74a0 <usb_hid_report_path_set_report_id>
    2989:	8d 43 18             	lea    0x18(%ebx),%eax
    298c:	c7 04 24 01 00 00 00 	movl   $0x1,(%esp)
    2993:	89 45 e0             	mov    %eax,-0x20(%ebp)
    2996:	6a 03                	push   $0x3
    2998:	57                   	push   %edi
    2999:	6a 00                	push   $0x0
    299b:	50                   	push   %eax
    299c:	e8 ff 41 00 00       	call   6ba0 <usb_hid_report_get_sibling>
    29a1:	83 c4 20             	add    $0x20,%esp
    29a4:	89 c7                	mov    %eax,%edi
    29a6:	85 c0                	test   %eax,%eax
    29a8:	0f 84 9a 00 00 00    	je     2a48 <usb_kbd_polling_callback+0x118>
    29ae:	31 db                	xor    %ebx,%ebx
    29b0:	eb 44                	jmp    29f6 <usb_kbd_polling_callback+0xc6>
    29b2:	8d b6 00 00 00 00    	lea    0x0(%esi),%esi
    29b8:	8b 56 08             	mov    0x8(%esi),%edx
    29bb:	31 c0                	xor    %eax,%eax
    29bd:	83 ec 0c             	sub    $0xc,%esp
    29c0:	66 8b 47 0a          	mov    0xa(%edi),%ax
    29c4:	89 04 9a             	mov    %eax,(%edx,%ebx,4)
    29c7:	50                   	push   %eax
    29c8:	53                   	push   %ebx
    29c9:	68 ba 57 01 00       	push   $0x157ba
    29ce:	6a 05                	push   $0x5
    29d0:	6a ff                	push   $0xffffffff
    29d2:	e8 69 87 01 00       	call   1b140 <log_msg@plt>
    29d7:	83 c4 14             	add    $0x14,%esp
    29da:	8b 45 e4             	mov    -0x1c(%ebp),%eax
    29dd:	8b 55 e0             	mov    -0x20(%ebp),%edx
    29e0:	6a 01                	push   $0x1
    29e2:	6a 03                	push   $0x3
    29e4:	50                   	push   %eax
    29e5:	57                   	push   %edi
    29e6:	52                   	push   %edx
    29e7:	e8 b4 41 00 00       	call   6ba0 <usb_hid_report_get_sibling>
    29ec:	43                   	inc    %ebx
    29ed:	83 c4 20             	add    $0x20,%esp
    29f0:	89 c7                	mov    %eax,%edi
    29f2:	85 c0                	test   %eax,%eax
    29f4:	74 52                	je     2a48 <usb_kbd_polling_callback+0x118>
    29f6:	50                   	push   %eax
    29f7:	50                   	push   %eax
    29f8:	31 c0                	xor    %eax,%eax
    29fa:	66 8b 47 0a          	mov    0xa(%edi),%ax
    29fe:	50                   	push   %eax
    29ff:	8b 47 3c             	mov    0x3c(%edi),%eax
    2a02:	50                   	push   %eax
    2a03:	57                   	push   %edi
    2a04:	68 c4 59 01 00       	push   $0x159c4
    2a09:	6a 05                	push   $0x5
    2a0b:	6a ff                	push   $0xffffffff
    2a0d:	e8 2e 87 01 00       	call   1b140 <log_msg@plt>
    2a12:	83 c4 20             	add    $0x20,%esp
    2a15:	39 5e 0c             	cmp    %ebx,0xc(%esi)
    2a18:	76 72                	jbe    2a8c <usb_kbd_polling_callback+0x15c>
    2a1a:	8b 4f 3c             	mov    0x3c(%edi),%ecx
    2a1d:	85 c9                	test   %ecx,%ecx
    2a1f:	75 97                	jne    29b8 <usb_kbd_polling_callback+0x88>
    2a21:	8b 46 08             	mov    0x8(%esi),%eax
    2a24:	83 ec 0c             	sub    $0xc,%esp
    2a27:	c7 04 98 00 00 00 00 	movl   $0x0,(%eax,%ebx,4)
    2a2e:	6a 00                	push   $0x0
    2a30:	eb 96                	jmp    29c8 <usb_kbd_polling_callback+0x98>
    2a32:	8d b6 00 00 00 00    	lea    0x0(%esi),%esi
    2a38:	8d 65 f4             	lea    -0xc(%ebp),%esp
    2a3b:	31 c0                	xor    %eax,%eax
    2a3d:	5b                   	pop    %ebx
    2a3e:	5e                   	pop    %esi
    2a3f:	5f                   	pop    %edi
    2a40:	5d                   	pop    %ebp
    2a41:	c3                   	ret    
    2a42:	8d b6 00 00 00 00    	lea    0x0(%esi),%esi
    2a48:	83 ec 0c             	sub    $0xc,%esp
    2a4b:	8b 45 e4             	mov    -0x1c(%ebp),%eax
    2a4e:	50                   	push   %eax
    2a4f:	e8 ac 48 00 00       	call   7300 <usb_hid_report_path_free>
    2a54:	89 f0                	mov    %esi,%eax
    2a56:	e8 35 fb ff ff       	call   2590 <usb_kbd_check_key_changes.isra.2>
    2a5b:	83 c4 10             	add    $0x10,%esp
    2a5e:	8d 65 f4             	lea    -0xc(%ebp),%esp
    2a61:	b0 01                	mov    $0x1,%al
    2a63:	5b                   	pop    %ebx
    2a64:	5e                   	pop    %esi
    2a65:	5f                   	pop    %edi
    2a66:	5d                   	pop    %ebp
    2a67:	c3                   	ret    
    2a68:	50                   	push   %eax
    2a69:	68 98 59 01 00       	push   $0x15998
    2a6e:	6a 01                	push   $0x1
    2a70:	6a ff                	push   $0xffffffff
    2a72:	e8 c9 86 01 00       	call   1b140 <log_msg@plt>
    2a77:	83 c4 10             	add    $0x10,%esp
    2a7a:	8d 65 f4             	lea    -0xc(%ebp),%esp
    2a7d:	b0 01                	mov    $0x1,%al
    2a7f:	5b                   	pop    %ebx
    2a80:	5e                   	pop    %esi
    2a81:	5f                   	pop    %edi
    2a82:	5d                   	pop    %ebp
    2a83:	c3                   	ret    
    2a84:	51                   	push   %ecx
    2a85:	68 70 59 01 00       	push   $0x15970
    2a8a:	eb e2                	jmp    2a6e <usb_kbd_polling_callback+0x13e>
    2a8c:	53                   	push   %ebx
    2a8d:	68 c9 01 00 00       	push   $0x1c9
    2a92:	68 96 57 01 00       	push   $0x15796
    2a97:	68 a3 57 01 00       	push   $0x157a3
    2a9c:	e8 ef 86 01 00       	call   1b190 <assert_abort@plt>
    2aa1:	eb 0d                	jmp    2ab0 <usb_kbd_is_initialized>
    2aa3:	90                   	nop
    2aa4:	90                   	nop
    2aa5:	90                   	nop
    2aa6:	90                   	nop
    2aa7:	90                   	nop
    2aa8:	90                   	nop
    2aa9:	90                   	nop
    2aaa:	90                   	nop
    2aab:	90                   	nop
    2aac:	90                   	nop
    2aad:	90                   	nop
    2aae:	90                   	nop
    2aaf:	90                   	nop

00002ab0 <usb_kbd_is_initialized>:
    2ab0:	55                   	push   %ebp
    2ab1:	89 e5                	mov    %esp,%ebp
    2ab3:	8b 45 08             	mov    0x8(%ebp),%eax
    2ab6:	5d                   	pop    %ebp
    2ab7:	83 78 54 01          	cmpl   $0x1,0x54(%eax)
    2abb:	0f 94 c0             	sete   %al
    2abe:	25 ff 00 00 00       	and    $0xff,%eax
    2ac3:	c3                   	ret    
    2ac4:	8d b6 00 00 00 00    	lea    0x0(%esi),%esi
    2aca:	8d bf 00 00 00 00    	lea    0x0(%edi),%edi

00002ad0 <usb_kbd_is_ready_to_destroy>:
    2ad0:	55                   	push   %ebp
    2ad1:	89 e5                	mov    %esp,%ebp
    2ad3:	8b 45 08             	mov    0x8(%ebp),%eax
    2ad6:	5d                   	pop    %ebp
    2ad7:	83 78 54 ff          	cmpl   $0xffffffff,0x54(%eax)
    2adb:	0f 94 c0             	sete   %al
    2ade:	25 ff 00 00 00       	and    $0xff,%eax
    2ae3:	c3                   	ret    
    2ae4:	8d b6 00 00 00 00    	lea    0x0(%esi),%esi
    2aea:	8d bf 00 00 00 00    	lea    0x0(%edi),%edi

00002af0 <usb_kbd_destroy>:
    2af0:	55                   	push   %ebp
    2af1:	89 e5                	mov    %esp,%ebp
    2af3:	56                   	push   %esi
    2af4:	53                   	push   %ebx
    2af5:	8b 75 08             	mov    0x8(%ebp),%esi
    2af8:	85 f6                	test   %esi,%esi
    2afa:	0f 84 c6 00 00 00    	je     2bc6 <usb_kbd_destroy+0xd6>
    2b00:	8b 46 1c             	mov    0x1c(%esi),%eax
    2b03:	85 c0                	test   %eax,%eax
    2b05:	74 0c                	je     2b13 <usb_kbd_destroy+0x23>
    2b07:	83 ec 0c             	sub    $0xc,%esp
    2b0a:	50                   	push   %eax
    2b0b:	e8 f0 84 01 00       	call   1b000 <async_hangup@plt>
    2b10:	83 c4 10             	add    $0x10,%esp
    2b13:	8d 5e 30             	lea    0x30(%esi),%ebx
    2b16:	66 90                	xchg   %ax,%ax
    2b18:	83 ec 0c             	sub    $0xc,%esp
    2b1b:	53                   	push   %ebx
    2b1c:	e8 5f 85 01 00       	call   1b080 <fibril_mutex_is_locked@plt>
    2b21:	83 c4 10             	add    $0x10,%esp
    2b24:	84 c0                	test   %al,%al
    2b26:	75 f0                	jne    2b18 <usb_kbd_destroy+0x28>
    2b28:	83 ec 0c             	sub    $0xc,%esp
    2b2b:	8b 4e 08             	mov    0x8(%esi),%ecx
    2b2e:	51                   	push   %ecx
    2b2f:	e8 8c 89 01 00       	call   1b4c0 <free@plt>
    2b34:	8b 46 04             	mov    0x4(%esi),%eax
    2b37:	5b                   	pop    %ebx
    2b38:	50                   	push   %eax
    2b39:	e8 82 89 01 00       	call   1b4c0 <free@plt>
    2b3e:	58                   	pop    %eax
    2b3f:	8b 46 50             	mov    0x50(%esi),%eax
    2b42:	50                   	push   %eax
    2b43:	e8 78 89 01 00       	call   1b4c0 <free@plt>
    2b48:	58                   	pop    %eax
    2b49:	8b 46 4c             	mov    0x4c(%esi),%eax
    2b4c:	50                   	push   %eax
    2b4d:	e8 ae 47 00 00       	call   7300 <usb_hid_report_path_free>
    2b52:	8b 56 40             	mov    0x40(%esi),%edx
    2b55:	58                   	pop    %eax
    2b56:	52                   	push   %edx
    2b57:	e8 94 3b 00 00       	call   66f0 <usb_hid_report_output_free>
    2b5c:	8b 46 58             	mov    0x58(%esi),%eax
    2b5f:	83 c4 10             	add    $0x10,%esp
    2b62:	85 c0                	test   %eax,%eax
    2b64:	74 60                	je     2bc6 <usb_kbd_destroy+0xd6>
    2b66:	83 ec 0c             	sub    $0xc,%esp
    2b69:	50                   	push   %eax
    2b6a:	e8 61 9b 00 00       	call   c6d0 <ddf_fun_unbind>
    2b6f:	83 c4 10             	add    $0x10,%esp
    2b72:	85 c0                	test   %eax,%eax
    2b74:	75 32                	jne    2ba8 <usb_kbd_destroy+0xb8>
    2b76:	83 ec 0c             	sub    $0xc,%esp
    2b79:	8b 46 58             	mov    0x58(%esi),%eax
    2b7c:	50                   	push   %eax
    2b7d:	e8 de 98 00 00       	call   c460 <ddf_fun_get_name>
    2b82:	50                   	push   %eax
    2b83:	68 d3 56 01 00       	push   $0x156d3
    2b88:	6a 05                	push   $0x5
    2b8a:	6a ff                	push   $0xffffffff
    2b8c:	e8 af 85 01 00       	call   1b140 <log_msg@plt>
    2b91:	8b 46 58             	mov    0x58(%esi),%eax
    2b94:	89 45 08             	mov    %eax,0x8(%ebp)
    2b97:	83 c4 20             	add    $0x20,%esp
    2b9a:	8d 65 f8             	lea    -0x8(%ebp),%esp
    2b9d:	5b                   	pop    %ebx
    2b9e:	5e                   	pop    %esi
    2b9f:	5d                   	pop    %ebp
    2ba0:	e9 cb 98 00 00       	jmp    c470 <ddf_fun_destroy>
    2ba5:	8d 76 00             	lea    0x0(%esi),%esi
    2ba8:	83 ec 0c             	sub    $0xc,%esp
    2bab:	8b 56 58             	mov    0x58(%esi),%edx
    2bae:	52                   	push   %edx
    2baf:	e8 ac 98 00 00       	call   c460 <ddf_fun_get_name>
    2bb4:	50                   	push   %eax
    2bb5:	68 d2 57 01 00       	push   $0x157d2
    2bba:	6a 02                	push   $0x2
    2bbc:	6a ff                	push   $0xffffffff
    2bbe:	e8 7d 85 01 00       	call   1b140 <log_msg@plt>
    2bc3:	83 c4 20             	add    $0x20,%esp
    2bc6:	8d 65 f8             	lea    -0x8(%ebp),%esp
    2bc9:	5b                   	pop    %ebx
    2bca:	5e                   	pop    %esi
    2bcb:	5d                   	pop    %ebp
    2bcc:	c3                   	ret    
    2bcd:	8d 76 00             	lea    0x0(%esi),%esi

00002bd0 <usb_kbd_init>:
    2bd0:	55                   	push   %ebp
    2bd1:	89 e5                	mov    %esp,%ebp
    2bd3:	57                   	push   %edi
    2bd4:	56                   	push   %esi
    2bd5:	53                   	push   %ebx
    2bd6:	83 ec 20             	sub    $0x20,%esp
    2bd9:	68 e8 59 01 00       	push   $0x159e8
    2bde:	6a 04                	push   $0x4
    2be0:	6a ff                	push   $0xffffffff
    2be2:	e8 59 85 01 00       	call   1b140 <log_msg@plt>
    2be7:	8b 45 08             	mov    0x8(%ebp),%eax
    2bea:	83 c4 10             	add    $0x10,%esp
    2bed:	85 c0                	test   %eax,%eax
    2bef:	0f 84 ff 03 00 00    	je     2ff4 <usb_kbd_init+0x424>
    2bf5:	8b 1d c4 d8 01 00    	mov    0x1d8c4,%ebx
    2bfb:	53                   	push   %ebx
    2bfc:	68 e0 56 01 00       	push   $0x156e0
    2c01:	6a 04                	push   $0x4
    2c03:	6a ff                	push   $0xffffffff
    2c05:	e8 36 85 01 00       	call   1b140 <log_msg@plt>
    2c0a:	8b 45 08             	mov    0x8(%ebp),%eax
    2c0d:	83 c4 0c             	add    $0xc,%esp
    2c10:	8b 35 c4 d8 01 00    	mov    0x1d8c4,%esi
    2c16:	8b 38                	mov    (%eax),%edi
    2c18:	56                   	push   %esi
    2c19:	6a 02                	push   $0x2
    2c1b:	57                   	push   %edi
    2c1c:	e8 9f 61 00 00       	call   8dc0 <usb_device_ddf_fun_create>
    2c21:	83 c4 10             	add    $0x10,%esp
    2c24:	89 c6                	mov    %eax,%esi
    2c26:	85 c0                	test   %eax,%eax
    2c28:	0f 84 e2 03 00 00    	je     3010 <usb_kbd_init+0x440>
    2c2e:	52                   	push   %edx
    2c2f:	52                   	push   %edx
    2c30:	6a 5c                	push   $0x5c
    2c32:	50                   	push   %eax
    2c33:	e8 b8 97 00 00       	call   c3f0 <ddf_fun_data_alloc>
    2c38:	83 c4 10             	add    $0x10,%esp
    2c3b:	89 c3                	mov    %eax,%ebx
    2c3d:	85 c0                	test   %eax,%eax
    2c3f:	0f 84 e7 03 00 00    	je     302c <usb_kbd_init+0x45c>
    2c45:	83 ec 0c             	sub    $0xc,%esp
    2c48:	8d 40 30             	lea    0x30(%eax),%eax
    2c4b:	50                   	push   %eax
    2c4c:	e8 ef 85 01 00       	call   1b240 <fibril_mutex_initialize@plt>
    2c51:	8b 45 08             	mov    0x8(%ebp),%eax
    2c54:	c7 43 54 00 00 00 00 	movl   $0x0,0x54(%ebx)
    2c5b:	89 03                	mov    %eax,(%ebx)
    2c5d:	c7 43 14 80 00 00 00 	movl   $0x80,0x14(%ebx)
    2c64:	c7 43 28 20 a1 07 00 	movl   $0x7a120,0x28(%ebx)
    2c6b:	c7 43 2c 50 c3 00 00 	movl   $0xc350,0x2c(%ebx)
    2c72:	e8 49 46 00 00       	call   72c0 <usb_hid_report_path>
    2c77:	83 c4 10             	add    $0x10,%esp
    2c7a:	89 c1                	mov    %eax,%ecx
    2c7c:	85 c0                	test   %eax,%eax
    2c7e:	0f 84 cc 03 00 00    	je     3050 <usb_kbd_init+0x480>
    2c84:	89 4d e4             	mov    %ecx,-0x1c(%ebp)
    2c87:	50                   	push   %eax
    2c88:	6a 00                	push   $0x0
    2c8a:	6a 07                	push   $0x7
    2c8c:	51                   	push   %ecx
    2c8d:	e8 ee 40 00 00       	call   6d80 <usb_hid_report_path_append_item>
    2c92:	83 c4 10             	add    $0x10,%esp
    2c95:	89 c7                	mov    %eax,%edi
    2c97:	85 c0                	test   %eax,%eax
    2c99:	8b 4d e4             	mov    -0x1c(%ebp),%ecx
    2c9c:	0f 85 66 02 00 00    	jne    2f08 <usb_kbd_init+0x338>
    2ca2:	57                   	push   %edi
    2ca3:	57                   	push   %edi
    2ca4:	6a 00                	push   $0x0
    2ca6:	51                   	push   %ecx
    2ca7:	89 4d e0             	mov    %ecx,-0x20(%ebp)
    2caa:	e8 f1 47 00 00       	call   74a0 <usb_hid_report_path_set_report_id>
    2caf:	83 c4 0c             	add    $0xc,%esp
    2cb2:	8b 45 08             	mov    0x8(%ebp),%eax
    2cb5:	83 c0 18             	add    $0x18,%eax
    2cb8:	6a 01                	push   $0x1
    2cba:	89 45 e4             	mov    %eax,-0x1c(%ebp)
    2cbd:	6a 00                	push   $0x0
    2cbf:	50                   	push   %eax
    2cc0:	e8 5b 33 00 00       	call   6020 <usb_hid_report_size>
    2cc5:	8b 4d e0             	mov    -0x20(%ebp),%ecx
    2cc8:	89 43 0c             	mov    %eax,0xc(%ebx)
    2ccb:	89 0c 24             	mov    %ecx,(%esp)
    2cce:	e8 2d 46 00 00       	call   7300 <usb_hid_report_path_free>
    2cd3:	8b 43 0c             	mov    0xc(%ebx),%eax
    2cd6:	50                   	push   %eax
    2cd7:	68 c0 5a 01 00       	push   $0x15ac0
    2cdc:	6a 04                	push   $0x4
    2cde:	6a ff                	push   $0xffffffff
    2ce0:	e8 5b 84 01 00       	call   1b140 <log_msg@plt>
    2ce5:	83 c4 18             	add    $0x18,%esp
    2ce8:	6a 04                	push   $0x4
    2cea:	8b 43 0c             	mov    0xc(%ebx),%eax
    2ced:	50                   	push   %eax
    2cee:	e8 bd 84 01 00       	call   1b1b0 <calloc@plt>
    2cf3:	83 c4 10             	add    $0x10,%esp
    2cf6:	89 43 08             	mov    %eax,0x8(%ebx)
    2cf9:	85 c0                	test   %eax,%eax
    2cfb:	0f 84 73 03 00 00    	je     3074 <usb_kbd_init+0x4a4>
    2d01:	50                   	push   %eax
    2d02:	50                   	push   %eax
    2d03:	6a 04                	push   $0x4
    2d05:	8b 43 0c             	mov    0xc(%ebx),%eax
    2d08:	50                   	push   %eax
    2d09:	e8 a2 84 01 00       	call   1b1b0 <calloc@plt>
    2d0e:	83 c4 10             	add    $0x10,%esp
    2d11:	89 43 04             	mov    %eax,0x4(%ebx)
    2d14:	85 c0                	test   %eax,%eax
    2d16:	0f 84 68 03 00 00    	je     3084 <usb_kbd_init+0x4b4>
    2d1c:	c7 43 44 00 00 00 00 	movl   $0x0,0x44(%ebx)
    2d23:	50                   	push   %eax
    2d24:	8d 43 44             	lea    0x44(%ebx),%eax
    2d27:	6a 00                	push   $0x0
    2d29:	50                   	push   %eax
    2d2a:	8b 45 e4             	mov    -0x1c(%ebp),%eax
    2d2d:	50                   	push   %eax
    2d2e:	e8 3d 39 00 00       	call   6670 <usb_hid_report_output>
    2d33:	83 c4 10             	add    $0x10,%esp
    2d36:	89 43 40             	mov    %eax,0x40(%ebx)
    2d39:	85 c0                	test   %eax,%eax
    2d3b:	0f 84 3b 03 00 00    	je     307c <usb_kbd_init+0x4ac>
    2d41:	8b 7b 44             	mov    0x44(%ebx),%edi
    2d44:	57                   	push   %edi
    2d45:	68 e8 57 01 00       	push   $0x157e8
    2d4a:	6a 04                	push   $0x4
    2d4c:	6a ff                	push   $0xffffffff
    2d4e:	e8 ed 83 01 00       	call   1b140 <log_msg@plt>
    2d53:	e8 68 45 00 00       	call   72c0 <usb_hid_report_path>
    2d58:	83 c4 10             	add    $0x10,%esp
    2d5b:	89 43 4c             	mov    %eax,0x4c(%ebx)
    2d5e:	85 c0                	test   %eax,%eax
    2d60:	0f 84 26 03 00 00    	je     308c <usb_kbd_init+0x4bc>
    2d66:	52                   	push   %edx
    2d67:	6a 00                	push   $0x0
    2d69:	6a 08                	push   $0x8
    2d6b:	50                   	push   %eax
    2d6c:	e8 0f 40 00 00       	call   6d80 <usb_hid_report_path_append_item>
    2d71:	83 c4 10             	add    $0x10,%esp
    2d74:	89 c7                	mov    %eax,%edi
    2d76:	85 c0                	test   %eax,%eax
    2d78:	0f 85 4a 01 00 00    	jne    2ec8 <usb_kbd_init+0x2f8>
    2d7e:	50                   	push   %eax
    2d7f:	8b 45 e4             	mov    -0x1c(%ebp),%eax
    2d82:	6a 02                	push   $0x2
    2d84:	6a 00                	push   $0x0
    2d86:	50                   	push   %eax
    2d87:	e8 94 32 00 00       	call   6020 <usb_hid_report_size>
    2d8c:	89 43 48             	mov    %eax,0x48(%ebx)
    2d8f:	50                   	push   %eax
    2d90:	68 a0 5b 01 00       	push   $0x15ba0
    2d95:	6a 04                	push   $0x4
    2d97:	6a ff                	push   $0xffffffff
    2d99:	e8 a2 83 01 00       	call   1b140 <log_msg@plt>
    2d9e:	83 c4 18             	add    $0x18,%esp
    2da1:	6a 04                	push   $0x4
    2da3:	8b 43 48             	mov    0x48(%ebx),%eax
    2da6:	50                   	push   %eax
    2da7:	e8 04 84 01 00       	call   1b1b0 <calloc@plt>
    2dac:	83 c4 10             	add    $0x10,%esp
    2daf:	89 43 50             	mov    %eax,0x50(%ebx)
    2db2:	85 c0                	test   %eax,%eax
    2db4:	0f 84 da 02 00 00    	je     3094 <usb_kbd_init+0x4c4>
    2dba:	8b 4b 44             	mov    0x44(%ebx),%ecx
    2dbd:	85 c9                	test   %ecx,%ecx
    2dbf:	0f 85 db 01 00 00    	jne    2fa0 <usb_kbd_init+0x3d0>
    2dc5:	8b 45 08             	mov    0x8(%ebp),%eax
    2dc8:	83 ec 0c             	sub    $0xc,%esp
    2dcb:	8b 38                	mov    (%eax),%edi
    2dcd:	57                   	push   %edi
    2dce:	e8 ad 56 00 00       	call   8480 <usb_device_get_iface_number>
    2dd3:	89 c7                	mov    %eax,%edi
    2dd5:	58                   	pop    %eax
    2dd6:	8b 45 08             	mov    0x8(%ebp),%eax
    2dd9:	8b 00                	mov    (%eax),%eax
    2ddb:	50                   	push   %eax
    2ddc:	e8 af 55 00 00       	call   8390 <usb_device_get_default_pipe>
    2de1:	83 c4 0c             	add    $0xc,%esp
    2de4:	6a 00                	push   $0x0
    2de6:	57                   	push   %edi
    2de7:	50                   	push   %eax
    2de8:	e8 f3 4b 00 00       	call   79e0 <usbhid_req_set_idle>
    2ded:	83 c4 0c             	add    $0xc,%esp
    2df0:	c7 43 54 01 00 00 00 	movl   $0x1,0x54(%ebx)
    2df7:	68 f4 5b 01 00       	push   $0x15bf4
    2dfc:	6a 04                	push   $0x4
    2dfe:	6a ff                	push   $0xffffffff
    2e00:	e8 3b 83 01 00       	call   1b140 <log_msg@plt>
    2e05:	58                   	pop    %eax
    2e06:	5a                   	pop    %edx
    2e07:	68 e0 d8 01 00       	push   $0x1d8e0
    2e0c:	56                   	push   %esi
    2e0d:	e8 7e 9a 00 00       	call   c890 <ddf_fun_set_ops>
    2e12:	89 34 24             	mov    %esi,(%esp)
    2e15:	e8 86 97 00 00       	call   c5a0 <ddf_fun_bind>
    2e1a:	83 c4 10             	add    $0x10,%esp
    2e1d:	89 c7                	mov    %eax,%edi
    2e1f:	85 c0                	test   %eax,%eax
    2e21:	0f 85 09 01 00 00    	jne    2f30 <usb_kbd_init+0x360>
    2e27:	83 ec 0c             	sub    $0xc,%esp
    2e2a:	56                   	push   %esi
    2e2b:	e8 a0 94 00 00       	call   c2d0 <ddf_fun_get_handle>
    2e30:	89 04 24             	mov    %eax,(%esp)
    2e33:	a1 c4 d8 01 00       	mov    0x1d8c4,%eax
    2e38:	50                   	push   %eax
    2e39:	68 1c 5c 01 00       	push   $0x15c1c
    2e3e:	6a 04                	push   $0x4
    2e40:	6a ff                	push   $0xffffffff
    2e42:	e8 f9 82 01 00       	call   1b140 <log_msg@plt>
    2e47:	83 c4 20             	add    $0x20,%esp
    2e4a:	a1 c0 d8 01 00       	mov    0x1d8c0,%eax
    2e4f:	50                   	push   %eax
    2e50:	68 40 5c 01 00       	push   $0x15c40
    2e55:	6a 04                	push   $0x4
    2e57:	6a ff                	push   $0xffffffff
    2e59:	e8 e2 82 01 00       	call   1b140 <log_msg@plt>
    2e5e:	8b 0d c0 d8 01 00    	mov    0x1d8c0,%ecx
    2e64:	58                   	pop    %eax
    2e65:	5a                   	pop    %edx
    2e66:	51                   	push   %ecx
    2e67:	56                   	push   %esi
    2e68:	e8 83 9a 00 00       	call   c8f0 <ddf_fun_add_to_category>
    2e6d:	83 c4 10             	add    $0x10,%esp
    2e70:	89 c7                	mov    %eax,%edi
    2e72:	85 c0                	test   %eax,%eax
    2e74:	0f 84 ee 00 00 00    	je     2f68 <usb_kbd_init+0x398>
    2e7a:	83 ec 0c             	sub    $0xc,%esp
    2e7d:	50                   	push   %eax
    2e7e:	e8 3d 85 01 00       	call   1b3c0 <str_error@plt>
    2e83:	89 04 24             	mov    %eax,(%esp)
    2e86:	a1 c0 d8 01 00       	mov    0x1d8c0,%eax
    2e8b:	50                   	push   %eax
    2e8c:	68 68 5c 01 00       	push   $0x15c68
    2e91:	6a 01                	push   $0x1
    2e93:	6a ff                	push   $0xffffffff
    2e95:	e8 a6 82 01 00       	call   1b140 <log_msg@plt>
    2e9a:	83 c4 14             	add    $0x14,%esp
    2e9d:	53                   	push   %ebx
    2e9e:	e8 4d fc ff ff       	call   2af0 <usb_kbd_destroy>
    2ea3:	89 34 24             	mov    %esi,(%esp)
    2ea6:	e8 25 98 00 00       	call   c6d0 <ddf_fun_unbind>
    2eab:	83 c4 10             	add    $0x10,%esp
    2eae:	85 c0                	test   %eax,%eax
    2eb0:	0f 85 fa 00 00 00    	jne    2fb0 <usb_kbd_init+0x3e0>
    2eb6:	83 ec 0c             	sub    $0xc,%esp
    2eb9:	56                   	push   %esi
    2eba:	e8 b1 95 00 00       	call   c470 <ddf_fun_destroy>
    2ebf:	83 c4 10             	add    $0x10,%esp
    2ec2:	eb 38                	jmp    2efc <usb_kbd_init+0x32c>
    2ec4:	8d 74 26 00          	lea    0x0(%esi,%eiz,1),%esi
    2ec8:	50                   	push   %eax
    2ec9:	68 74 5b 01 00       	push   $0x15b74
    2ece:	6a 01                	push   $0x1
    2ed0:	6a ff                	push   $0xffffffff
    2ed2:	e8 69 82 01 00       	call   1b140 <log_msg@plt>
    2ed7:	89 1c 24             	mov    %ebx,(%esp)
    2eda:	e8 11 fc ff ff       	call   2af0 <usb_kbd_destroy>
    2edf:	83 c4 10             	add    $0x10,%esp
    2ee2:	50                   	push   %eax
    2ee3:	68 f0 5c 01 00       	push   $0x15cf0
    2ee8:	6a 01                	push   $0x1
    2eea:	6a ff                	push   $0xffffffff
    2eec:	e8 4f 82 01 00       	call   1b140 <log_msg@plt>
    2ef1:	89 34 24             	mov    %esi,(%esp)
    2ef4:	e8 77 95 00 00       	call   c470 <ddf_fun_destroy>
    2ef9:	83 c4 10             	add    $0x10,%esp
    2efc:	8d 65 f4             	lea    -0xc(%ebp),%esp
    2eff:	89 f8                	mov    %edi,%eax
    2f01:	5b                   	pop    %ebx
    2f02:	5e                   	pop    %esi
    2f03:	5f                   	pop    %edi
    2f04:	5d                   	pop    %ebp
    2f05:	c3                   	ret    
    2f06:	66 90                	xchg   %ax,%ax
    2f08:	50                   	push   %eax
    2f09:	68 94 5a 01 00       	push   $0x15a94
    2f0e:	6a 01                	push   $0x1
    2f10:	6a ff                	push   $0xffffffff
    2f12:	e8 29 82 01 00       	call   1b140 <log_msg@plt>
    2f17:	8b 4d e4             	mov    -0x1c(%ebp),%ecx
    2f1a:	89 0c 24             	mov    %ecx,(%esp)
    2f1d:	e8 de 43 00 00       	call   7300 <usb_hid_report_path_free>
    2f22:	89 1c 24             	mov    %ebx,(%esp)
    2f25:	e8 c6 fb ff ff       	call   2af0 <usb_kbd_destroy>
    2f2a:	83 c4 10             	add    $0x10,%esp
    2f2d:	eb b3                	jmp    2ee2 <usb_kbd_init+0x312>
    2f2f:	90                   	nop
    2f30:	83 ec 0c             	sub    $0xc,%esp
    2f33:	50                   	push   %eax
    2f34:	e8 87 84 01 00       	call   1b3c0 <str_error@plt>
    2f39:	50                   	push   %eax
    2f3a:	68 68 56 01 00       	push   $0x15668
    2f3f:	6a 01                	push   $0x1
    2f41:	6a ff                	push   $0xffffffff
    2f43:	e8 f8 81 01 00       	call   1b140 <log_msg@plt>
    2f48:	83 c4 14             	add    $0x14,%esp
    2f4b:	53                   	push   %ebx
    2f4c:	e8 9f fb ff ff       	call   2af0 <usb_kbd_destroy>
    2f51:	89 34 24             	mov    %esi,(%esp)
    2f54:	e8 17 95 00 00       	call   c470 <ddf_fun_destroy>
    2f59:	83 c4 10             	add    $0x10,%esp
    2f5c:	8d 65 f4             	lea    -0xc(%ebp),%esp
    2f5f:	89 f8                	mov    %edi,%eax
    2f61:	5b                   	pop    %ebx
    2f62:	5e                   	pop    %esi
    2f63:	5f                   	pop    %edi
    2f64:	5d                   	pop    %ebp
    2f65:	c3                   	ret    
    2f66:	66 90                	xchg   %ax,%ax
    2f68:	51                   	push   %ecx
    2f69:	6a 00                	push   $0x0
    2f6b:	53                   	push   %ebx
    2f6c:	68 c0 31 00 00       	push   $0x31c0
    2f71:	e8 da 84 01 00       	call   1b450 <fibril_create_generic@plt>
    2f76:	83 c4 10             	add    $0x10,%esp
    2f79:	85 c0                	test   %eax,%eax
    2f7b:	74 53                	je     2fd0 <usb_kbd_init+0x400>
    2f7d:	83 ec 0c             	sub    $0xc,%esp
    2f80:	50                   	push   %eax
    2f81:	e8 da 84 01 00       	call   1b460 <fibril_add_ready@plt>
    2f86:	8b 45 0c             	mov    0xc(%ebp),%eax
    2f89:	89 73 58             	mov    %esi,0x58(%ebx)
    2f8c:	83 c4 10             	add    $0x10,%esp
    2f8f:	89 18                	mov    %ebx,(%eax)
    2f91:	8d 65 f4             	lea    -0xc(%ebp),%esp
    2f94:	89 f8                	mov    %edi,%eax
    2f96:	5b                   	pop    %ebx
    2f97:	5e                   	pop    %esi
    2f98:	5f                   	pop    %edi
    2f99:	5d                   	pop    %ebp
    2f9a:	c3                   	ret    
    2f9b:	90                   	nop
    2f9c:	8d 74 26 00          	lea    0x0(%esi,%eiz,1),%esi
    2fa0:	89 da                	mov    %ebx,%edx
    2fa2:	8b 45 08             	mov    0x8(%ebp),%eax
    2fa5:	e8 76 f3 ff ff       	call   2320 <usb_kbd_set_led.part.0>
    2faa:	e9 16 fe ff ff       	jmp    2dc5 <usb_kbd_init+0x1f5>
    2faf:	90                   	nop
    2fb0:	83 ec 0c             	sub    $0xc,%esp
    2fb3:	56                   	push   %esi
    2fb4:	e8 a7 94 00 00       	call   c460 <ddf_fun_get_name>
    2fb9:	50                   	push   %eax
    2fba:	68 98 5c 01 00       	push   $0x15c98
    2fbf:	6a 01                	push   $0x1
    2fc1:	6a ff                	push   $0xffffffff
    2fc3:	e8 78 81 01 00       	call   1b140 <log_msg@plt>
    2fc8:	83 c4 20             	add    $0x20,%esp
    2fcb:	e9 2c ff ff ff       	jmp    2efc <usb_kbd_init+0x32c>
    2fd0:	52                   	push   %edx
    2fd1:	68 c4 5c 01 00       	push   $0x15cc4
    2fd6:	6a 01                	push   $0x1
    2fd8:	6a ff                	push   $0xffffffff
    2fda:	bf fe ff ff ff       	mov    $0xfffffffe,%edi
    2fdf:	e8 5c 81 01 00       	call   1b140 <log_msg@plt>
    2fe4:	89 1c 24             	mov    %ebx,(%esp)
    2fe7:	e8 04 fb ff ff       	call   2af0 <usb_kbd_destroy>
    2fec:	83 c4 10             	add    $0x10,%esp
    2fef:	e9 08 ff ff ff       	jmp    2efc <usb_kbd_init+0x32c>
    2ff4:	50                   	push   %eax
    2ff5:	68 0c 5a 01 00       	push   $0x15a0c
    2ffa:	6a 01                	push   $0x1
    2ffc:	6a ff                	push   $0xffffffff
    2ffe:	bf f2 ff ff ff       	mov    $0xfffffff2,%edi
    3003:	e8 38 81 01 00       	call   1b140 <log_msg@plt>
    3008:	83 c4 10             	add    $0x10,%esp
    300b:	e9 ec fe ff ff       	jmp    2efc <usb_kbd_init+0x32c>
    3010:	51                   	push   %ecx
    3011:	68 40 56 01 00       	push   $0x15640
    3016:	6a 01                	push   $0x1
    3018:	6a ff                	push   $0xffffffff
    301a:	bf fe ff ff ff       	mov    $0xfffffffe,%edi
    301f:	e8 1c 81 01 00       	call   1b140 <log_msg@plt>
    3024:	83 c4 10             	add    $0x10,%esp
    3027:	e9 d0 fe ff ff       	jmp    2efc <usb_kbd_init+0x32c>
    302c:	50                   	push   %eax
    302d:	68 44 5a 01 00       	push   $0x15a44
    3032:	6a 01                	push   $0x1
    3034:	6a ff                	push   $0xffffffff
    3036:	bf fe ff ff ff       	mov    $0xfffffffe,%edi
    303b:	e8 00 81 01 00       	call   1b140 <log_msg@plt>
    3040:	89 34 24             	mov    %esi,(%esp)
    3043:	e8 28 94 00 00       	call   c470 <ddf_fun_destroy>
    3048:	83 c4 10             	add    $0x10,%esp
    304b:	e9 ac fe ff ff       	jmp    2efc <usb_kbd_init+0x32c>
    3050:	50                   	push   %eax
    3051:	68 70 5a 01 00       	push   $0x15a70
    3056:	6a 01                	push   $0x1
    3058:	6a ff                	push   $0xffffffff
    305a:	bf fe ff ff ff       	mov    $0xfffffffe,%edi
    305f:	e8 dc 80 01 00       	call   1b140 <log_msg@plt>
    3064:	89 1c 24             	mov    %ebx,(%esp)
    3067:	e8 84 fa ff ff       	call   2af0 <usb_kbd_destroy>
    306c:	83 c4 10             	add    $0x10,%esp
    306f:	e9 6e fe ff ff       	jmp    2ee2 <usb_kbd_init+0x312>
    3074:	52                   	push   %edx
    3075:	68 e0 5a 01 00       	push   $0x15ae0
    307a:	eb da                	jmp    3056 <usb_kbd_init+0x486>
    307c:	50                   	push   %eax
    307d:	68 24 5b 01 00       	push   $0x15b24
    3082:	eb d2                	jmp    3056 <usb_kbd_init+0x486>
    3084:	50                   	push   %eax
    3085:	68 00 5b 01 00       	push   $0x15b00
    308a:	eb ca                	jmp    3056 <usb_kbd_init+0x486>
    308c:	51                   	push   %ecx
    308d:	68 4c 5b 01 00       	push   $0x15b4c
    3092:	eb c2                	jmp    3056 <usb_kbd_init+0x486>
    3094:	57                   	push   %edi
    3095:	68 c4 5b 01 00       	push   $0x15bc4
    309a:	eb ba                	jmp    3056 <usb_kbd_init+0x486>
    309c:	8d 74 26 00          	lea    0x0(%esi,%eiz,1),%esi

000030a0 <usb_kbd_deinit>:
    30a0:	55                   	push   %ebp
    30a1:	89 e5                	mov    %esp,%ebp
    30a3:	53                   	push   %ebx
    30a4:	50                   	push   %eax
    30a5:	8b 5d 0c             	mov    0xc(%ebp),%ebx
    30a8:	85 db                	test   %ebx,%ebx
    30aa:	74 3c                	je     30e8 <usb_kbd_deinit+0x48>
    30ac:	83 7b 54 01          	cmpl   $0x1,0x54(%ebx)
    30b0:	74 0e                	je     30c0 <usb_kbd_deinit+0x20>
    30b2:	89 5d 08             	mov    %ebx,0x8(%ebp)
    30b5:	8b 5d fc             	mov    -0x4(%ebp),%ebx
    30b8:	c9                   	leave  
    30b9:	e9 32 fa ff ff       	jmp    2af0 <usb_kbd_destroy>
    30be:	66 90                	xchg   %ax,%ax
    30c0:	83 ec 0c             	sub    $0xc,%esp
    30c3:	c7 43 54 ff ff ff ff 	movl   $0xffffffff,0x54(%ebx)
    30ca:	68 10 27 00 00       	push   $0x2710
    30cf:	e8 6c 82 01 00       	call   1b340 <async_usleep@plt>
    30d4:	89 5d 08             	mov    %ebx,0x8(%ebp)
    30d7:	83 c4 10             	add    $0x10,%esp
    30da:	8b 5d fc             	mov    -0x4(%ebp),%ebx
    30dd:	c9                   	leave  
    30de:	e9 0d fa ff ff       	jmp    2af0 <usb_kbd_destroy>
    30e3:	90                   	nop
    30e4:	8d 74 26 00          	lea    0x0(%esi,%eiz,1),%esi
    30e8:	8b 5d fc             	mov    -0x4(%ebp),%ebx
    30eb:	c9                   	leave  
    30ec:	c3                   	ret    
    30ed:	8d 76 00             	lea    0x0(%esi),%esi

000030f0 <usb_kbd_set_boot_protocol>:
    30f0:	55                   	push   %ebp
    30f1:	89 e5                	mov    %esp,%ebp
    30f3:	56                   	push   %esi
    30f4:	53                   	push   %ebx
    30f5:	8b 75 08             	mov    0x8(%ebp),%esi
    30f8:	85 f6                	test   %esi,%esi
    30fa:	0f 84 9c 00 00 00    	je     319c <usb_kbd_set_boot_protocol+0xac>
    3100:	8d 46 18             	lea    0x18(%esi),%eax
    3103:	53                   	push   %ebx
    3104:	6a 3f                	push   $0x3f
    3106:	68 a0 5d 01 00       	push   $0x15da0
    310b:	50                   	push   %eax
    310c:	e8 df 26 00 00       	call   57f0 <usb_hid_parse_report_descriptor>
    3111:	83 c4 10             	add    $0x10,%esp
    3114:	89 c3                	mov    %eax,%ebx
    3116:	85 c0                	test   %eax,%eax
    3118:	75 5e                	jne    3178 <usb_kbd_set_boot_protocol+0x88>
    311a:	83 ec 0c             	sub    $0xc,%esp
    311d:	8b 06                	mov    (%esi),%eax
    311f:	50                   	push   %eax
    3120:	e8 5b 53 00 00       	call   8480 <usb_device_get_iface_number>
    3125:	8b 0e                	mov    (%esi),%ecx
    3127:	5a                   	pop    %edx
    3128:	89 c3                	mov    %eax,%ebx
    312a:	51                   	push   %ecx
    312b:	e8 60 52 00 00       	call   8390 <usb_device_get_default_pipe>
    3130:	83 c4 0c             	add    $0xc,%esp
    3133:	6a 00                	push   $0x0
    3135:	53                   	push   %ebx
    3136:	50                   	push   %eax
    3137:	e8 f4 47 00 00       	call   7930 <usbhid_req_set_protocol>
    313c:	83 c4 10             	add    $0x10,%esp
    313f:	89 c3                	mov    %eax,%ebx
    3141:	85 c0                	test   %eax,%eax
    3143:	75 0b                	jne    3150 <usb_kbd_set_boot_protocol+0x60>
    3145:	8d 65 f8             	lea    -0x8(%ebp),%esp
    3148:	89 d8                	mov    %ebx,%eax
    314a:	5b                   	pop    %ebx
    314b:	5e                   	pop    %esi
    314c:	5d                   	pop    %ebp
    314d:	c3                   	ret    
    314e:	66 90                	xchg   %ax,%ax
    3150:	83 ec 0c             	sub    $0xc,%esp
    3153:	50                   	push   %eax
    3154:	e8 67 82 01 00       	call   1b3c0 <str_error@plt>
    3159:	50                   	push   %eax
    315a:	68 4c 5d 01 00       	push   $0x15d4c
    315f:	6a 02                	push   $0x2
    3161:	6a ff                	push   $0xffffffff
    3163:	e8 d8 7f 01 00       	call   1b140 <log_msg@plt>
    3168:	83 c4 20             	add    $0x20,%esp
    316b:	8d 65 f8             	lea    -0x8(%ebp),%esp
    316e:	89 d8                	mov    %ebx,%eax
    3170:	5b                   	pop    %ebx
    3171:	5e                   	pop    %esi
    3172:	5d                   	pop    %ebp
    3173:	c3                   	ret    
    3174:	8d 74 26 00          	lea    0x0(%esi,%eiz,1),%esi
    3178:	83 ec 0c             	sub    $0xc,%esp
    317b:	50                   	push   %eax
    317c:	e8 3f 82 01 00       	call   1b3c0 <str_error@plt>
    3181:	50                   	push   %eax
    3182:	68 20 5d 01 00       	push   $0x15d20
    3187:	6a 01                	push   $0x1
    3189:	6a ff                	push   $0xffffffff
    318b:	e8 b0 7f 01 00       	call   1b140 <log_msg@plt>
    3190:	83 c4 20             	add    $0x20,%esp
    3193:	8d 65 f8             	lea    -0x8(%ebp),%esp
    3196:	89 d8                	mov    %ebx,%eax
    3198:	5b                   	pop    %ebx
    3199:	5e                   	pop    %esi
    319a:	5d                   	pop    %ebp
    319b:	c3                   	ret    
    319c:	56                   	push   %esi
    319d:	68 0b 03 00 00       	push   $0x30b
    31a2:	68 96 57 01 00       	push   $0x15796
    31a7:	68 ad 4c 01 00       	push   $0x14cad
    31ac:	e8 df 7f 01 00       	call   1b190 <assert_abort@plt>
    31b1:	66 90                	xchg   %ax,%ax
    31b3:	66 90                	xchg   %ax,%ax
    31b5:	66 90                	xchg   %ax,%ax
    31b7:	66 90                	xchg   %ax,%ax
    31b9:	66 90                	xchg   %ax,%ax
    31bb:	66 90                	xchg   %ax,%ax
    31bd:	66 90                	xchg   %ax,%ax
    31bf:	90                   	nop

000031c0 <usb_kbd_repeat_fibril>:
    31c0:	55                   	push   %ebp
    31c1:	89 e5                	mov    %esp,%ebp
    31c3:	57                   	push   %edi
    31c4:	56                   	push   %esi
    31c5:	53                   	push   %ebx
    31c6:	83 ec 20             	sub    $0x20,%esp
    31c9:	8b 5d 08             	mov    0x8(%ebp),%ebx
    31cc:	68 f8 5d 01 00       	push   $0x15df8
    31d1:	6a 04                	push   $0x4
    31d3:	6a ff                	push   $0xffffffff
    31d5:	e8 66 7f 01 00       	call   1b140 <log_msg@plt>
    31da:	83 c4 10             	add    $0x10,%esp
    31dd:	85 db                	test   %ebx,%ebx
    31df:	0f 84 eb 00 00 00    	je     32d0 <usb_kbd_repeat_fibril+0x110>
    31e5:	51                   	push   %ecx
    31e6:	68 20 5e 01 00       	push   $0x15e20
    31eb:	6a 04                	push   $0x4
    31ed:	6a ff                	push   $0xffffffff
    31ef:	8d 73 30             	lea    0x30(%ebx),%esi
    31f2:	e8 49 7f 01 00       	call   1b140 <log_msg@plt>
    31f7:	83 c4 10             	add    $0x10,%esp
    31fa:	eb 38                	jmp    3234 <usb_kbd_repeat_fibril+0x74>
    31fc:	8d 74 26 00          	lea    0x0(%esi,%eiz,1),%esi
    3200:	3b 43 24             	cmp    0x24(%ebx),%eax
    3203:	74 7b                	je     3280 <usb_kbd_repeat_fibril+0xc0>
    3205:	50                   	push   %eax
    3206:	68 4f 5e 01 00       	push   $0x15e4f
    320b:	6a 05                	push   $0x5
    320d:	6a ff                	push   $0xffffffff
    320f:	e8 2c 7f 01 00       	call   1b140 <log_msg@plt>
    3214:	8b 43 20             	mov    0x20(%ebx),%eax
    3217:	89 43 24             	mov    %eax,0x24(%ebx)
    321a:	8b 7b 28             	mov    0x28(%ebx),%edi
    321d:	83 c4 10             	add    $0x10,%esp
    3220:	83 ec 0c             	sub    $0xc,%esp
    3223:	56                   	push   %esi
    3224:	e8 e7 7f 01 00       	call   1b210 <fibril_mutex_unlock@plt>
    3229:	89 3c 24             	mov    %edi,(%esp)
    322c:	e8 0f 81 01 00       	call   1b340 <async_usleep@plt>
    3231:	83 c4 10             	add    $0x10,%esp
    3234:	83 ec 0c             	sub    $0xc,%esp
    3237:	53                   	push   %ebx
    3238:	e8 73 f8 ff ff       	call   2ab0 <usb_kbd_is_initialized>
    323d:	83 c4 10             	add    $0x10,%esp
    3240:	85 c0                	test   %eax,%eax
    3242:	74 6c                	je     32b0 <usb_kbd_repeat_fibril+0xf0>
    3244:	83 ec 0c             	sub    $0xc,%esp
    3247:	56                   	push   %esi
    3248:	e8 93 82 01 00       	call   1b4e0 <fibril_mutex_lock@plt>
    324d:	8b 43 20             	mov    0x20(%ebx),%eax
    3250:	83 c4 10             	add    $0x10,%esp
    3253:	85 c0                	test   %eax,%eax
    3255:	75 a9                	jne    3200 <usb_kbd_repeat_fibril+0x40>
    3257:	8b 43 24             	mov    0x24(%ebx),%eax
    325a:	bf 10 27 00 00       	mov    $0x2710,%edi
    325f:	85 c0                	test   %eax,%eax
    3261:	74 bd                	je     3220 <usb_kbd_repeat_fibril+0x60>
    3263:	50                   	push   %eax
    3264:	68 67 5e 01 00       	push   $0x15e67
    3269:	6a 05                	push   $0x5
    326b:	6a ff                	push   $0xffffffff
    326d:	e8 ce 7e 01 00       	call   1b140 <log_msg@plt>
    3272:	c7 43 24 00 00 00 00 	movl   $0x0,0x24(%ebx)
    3279:	83 c4 10             	add    $0x10,%esp
    327c:	eb a2                	jmp    3220 <usb_kbd_repeat_fibril+0x60>
    327e:	66 90                	xchg   %ax,%ax
    3280:	50                   	push   %eax
    3281:	68 3b 5e 01 00       	push   $0x15e3b
    3286:	6a 05                	push   $0x5
    3288:	6a ff                	push   $0xffffffff
    328a:	e8 b1 7e 01 00       	call   1b140 <log_msg@plt>
    328f:	83 c4 0c             	add    $0xc,%esp
    3292:	8b 43 24             	mov    0x24(%ebx),%eax
    3295:	50                   	push   %eax
    3296:	6a 00                	push   $0x0
    3298:	53                   	push   %ebx
    3299:	e8 f2 f5 ff ff       	call   2890 <usb_kbd_push_ev>
    329e:	8b 7b 2c             	mov    0x2c(%ebx),%edi
    32a1:	83 c4 10             	add    $0x10,%esp
    32a4:	e9 77 ff ff ff       	jmp    3220 <usb_kbd_repeat_fibril+0x60>
    32a9:	8d b4 26 00 00 00 00 	lea    0x0(%esi,%eiz,1),%esi
    32b0:	52                   	push   %edx
    32b1:	68 84 5e 01 00       	push   $0x15e84
    32b6:	6a 02                	push   $0x2
    32b8:	6a ff                	push   $0xffffffff
    32ba:	89 45 e4             	mov    %eax,-0x1c(%ebp)
    32bd:	e8 7e 7e 01 00       	call   1b140 <log_msg@plt>
    32c2:	83 c4 10             	add    $0x10,%esp
    32c5:	8b 45 e4             	mov    -0x1c(%ebp),%eax
    32c8:	8d 65 f4             	lea    -0xc(%ebp),%esp
    32cb:	5b                   	pop    %ebx
    32cc:	5e                   	pop    %esi
    32cd:	5f                   	pop    %edi
    32ce:	5d                   	pop    %ebp
    32cf:	c3                   	ret    
    32d0:	53                   	push   %ebx
    32d1:	68 14 5e 01 00       	push   $0x15e14
    32d6:	6a 01                	push   $0x1
    32d8:	6a ff                	push   $0xffffffff
    32da:	e8 61 7e 01 00       	call   1b140 <log_msg@plt>
    32df:	83 c4 10             	add    $0x10,%esp
    32e2:	b8 f2 ff ff ff       	mov    $0xfffffff2,%eax
    32e7:	eb df                	jmp    32c8 <usb_kbd_repeat_fibril+0x108>
    32e9:	8d b4 26 00 00 00 00 	lea    0x0(%esi,%eiz,1),%esi

000032f0 <usb_kbd_repeat_start>:
    32f0:	55                   	push   %ebp
    32f1:	89 e5                	mov    %esp,%ebp
    32f3:	57                   	push   %edi
    32f4:	56                   	push   %esi
    32f5:	53                   	push   %ebx
    32f6:	83 ec 18             	sub    $0x18,%esp
    32f9:	8b 75 08             	mov    0x8(%ebp),%esi
    32fc:	8b 7d 0c             	mov    0xc(%ebp),%edi
    32ff:	8d 5e 30             	lea    0x30(%esi),%ebx
    3302:	53                   	push   %ebx
    3303:	e8 d8 81 01 00       	call   1b4e0 <fibril_mutex_lock@plt>
    3308:	89 7e 20             	mov    %edi,0x20(%esi)
    330b:	83 c4 10             	add    $0x10,%esp
    330e:	89 5d 08             	mov    %ebx,0x8(%ebp)
    3311:	8d 65 f4             	lea    -0xc(%ebp),%esp
    3314:	5b                   	pop    %ebx
    3315:	5e                   	pop    %esi
    3316:	5f                   	pop    %edi
    3317:	5d                   	pop    %ebp
    3318:	e9 f3 7e 01 00       	jmp    1b210 <fibril_mutex_unlock@plt>
    331d:	8d 76 00             	lea    0x0(%esi),%esi

00003320 <usb_kbd_repeat_stop>:
    3320:	55                   	push   %ebp
    3321:	89 e5                	mov    %esp,%ebp
    3323:	57                   	push   %edi
    3324:	56                   	push   %esi
    3325:	53                   	push   %ebx
    3326:	83 ec 18             	sub    $0x18,%esp
    3329:	8b 5d 08             	mov    0x8(%ebp),%ebx
    332c:	8b 7d 0c             	mov    0xc(%ebp),%edi
    332f:	8d 73 30             	lea    0x30(%ebx),%esi
    3332:	56                   	push   %esi
    3333:	e8 a8 81 01 00       	call   1b4e0 <fibril_mutex_lock@plt>
    3338:	83 c4 10             	add    $0x10,%esp
    333b:	39 7b 20             	cmp    %edi,0x20(%ebx)
    333e:	75 07                	jne    3347 <usb_kbd_repeat_stop+0x27>
    3340:	c7 43 20 00 00 00 00 	movl   $0x0,0x20(%ebx)
    3347:	89 75 08             	mov    %esi,0x8(%ebp)
    334a:	8d 65 f4             	lea    -0xc(%ebp),%esp
    334d:	5b                   	pop    %ebx
    334e:	5e                   	pop    %esi
    334f:	5f                   	pop    %edi
    3350:	5d                   	pop    %ebp
    3351:	e9 ba 7e 01 00       	jmp    1b210 <fibril_mutex_unlock@plt>
    3356:	66 90                	xchg   %ax,%ax
    3358:	66 90                	xchg   %ax,%ax
    335a:	66 90                	xchg   %ax,%ax
    335c:	66 90                	xchg   %ax,%ax
    335e:	66 90                	xchg   %ax,%ax

00003360 <default_connection_handler>:
    3360:	55                   	push   %ebp
    3361:	89 e5                	mov    %esp,%ebp
    3363:	57                   	push   %edi
    3364:	56                   	push   %esi
    3365:	53                   	push   %ebx
    3366:	83 ec 28             	sub    $0x28,%esp
    3369:	8b 5d 08             	mov    0x8(%ebp),%ebx
    336c:	8b 45 0c             	mov    0xc(%ebp),%eax
    336f:	53                   	push   %ebx
    3370:	89 45 e4             	mov    %eax,-0x1c(%ebp)
    3373:	8b 7d 10             	mov    0x10(%ebp),%edi
    3376:	e8 d5 90 00 00       	call   c450 <ddf_fun_data_get>
    337b:	83 c4 10             	add    $0x10,%esp
    337e:	85 c0                	test   %eax,%eax
    3380:	0f 84 d2 00 00 00    	je     3458 <default_connection_handler+0xf8>
    3386:	83 ec 0c             	sub    $0xc,%esp
    3389:	89 c6                	mov    %eax,%esi
    338b:	53                   	push   %ebx
    338c:	e8 cf 90 00 00       	call   c460 <ddf_fun_get_name>
    3391:	89 04 24             	mov    %eax,(%esp)
    3394:	68 40 62 01 00       	push   $0x16240
    3399:	68 c1 5e 01 00       	push   $0x15ec1
    339e:	6a 04                	push   $0x4
    33a0:	6a ff                	push   $0xffffffff
    33a2:	e8 99 7d 01 00       	call   1b140 <log_msg@plt>
    33a7:	83 c4 14             	add    $0x14,%esp
    33aa:	8b 0e                	mov    (%esi),%ecx
    33ac:	51                   	push   %ecx
    33ad:	68 40 62 01 00       	push   $0x16240
    33b2:	68 d4 5e 01 00       	push   $0x15ed4
    33b7:	6a 04                	push   $0x4
    33b9:	6a ff                	push   $0xffffffff
    33bb:	e8 80 7d 01 00       	call   1b140 <log_msg@plt>
    33c0:	83 c4 18             	add    $0x18,%esp
    33c3:	57                   	push   %edi
    33c4:	6a 01                	push   $0x1
    33c6:	e8 55 7e 01 00       	call   1b220 <async_callback_receive_start@plt>
    33cb:	83 c4 10             	add    $0x10,%esp
    33ce:	89 c7                	mov    %eax,%edi
    33d0:	85 c0                	test   %eax,%eax
    33d2:	0f 84 a0 00 00 00    	je     3478 <default_connection_handler+0x118>
    33d8:	8b 16                	mov    (%esi),%edx
    33da:	85 d2                	test   %edx,%edx
    33dc:	74 3a                	je     3418 <default_connection_handler+0xb8>
    33de:	83 ec 0c             	sub    $0xc,%esp
    33e1:	53                   	push   %ebx
    33e2:	e8 79 90 00 00       	call   c460 <ddf_fun_get_name>
    33e7:	50                   	push   %eax
    33e8:	68 70 5f 01 00       	push   $0x15f70
    33ed:	6a 01                	push   $0x1
    33ef:	6a ff                	push   $0xffffffff
    33f1:	e8 4a 7d 01 00       	call   1b140 <log_msg@plt>
    33f6:	83 c4 18             	add    $0x18,%esp
    33f9:	8b 45 e4             	mov    -0x1c(%ebp),%eax
    33fc:	6a fd                	push   $0xfffffffd
    33fe:	50                   	push   %eax
    33ff:	e8 1c 7d 01 00       	call   1b120 <async_answer_0@plt>
    3404:	89 7d 08             	mov    %edi,0x8(%ebp)
    3407:	83 c4 10             	add    $0x10,%esp
    340a:	8d 65 f4             	lea    -0xc(%ebp),%esp
    340d:	5b                   	pop    %ebx
    340e:	5e                   	pop    %esi
    340f:	5f                   	pop    %edi
    3410:	5d                   	pop    %ebp
    3411:	e9 ea 7b 01 00       	jmp    1b000 <async_hangup@plt>
    3416:	66 90                	xchg   %ax,%ax
    3418:	83 ec 0c             	sub    $0xc,%esp
    341b:	89 06                	mov    %eax,(%esi)
    341d:	53                   	push   %ebx
    341e:	e8 3d 90 00 00       	call   c460 <ddf_fun_get_name>
    3423:	89 3c 24             	mov    %edi,(%esp)
    3426:	50                   	push   %eax
    3427:	68 4c 5f 01 00       	push   $0x15f4c
    342c:	6a 04                	push   $0x4
    342e:	6a ff                	push   $0xffffffff
    3430:	e8 0b 7d 01 00       	call   1b140 <log_msg@plt>
    3435:	83 c4 20             	add    $0x20,%esp
    3438:	c7 45 0c 00 00 00 00 	movl   $0x0,0xc(%ebp)
    343f:	8b 45 e4             	mov    -0x1c(%ebp),%eax
    3442:	89 45 08             	mov    %eax,0x8(%ebp)
    3445:	8d 65 f4             	lea    -0xc(%ebp),%esp
    3448:	5b                   	pop    %ebx
    3449:	5e                   	pop    %esi
    344a:	5f                   	pop    %edi
    344b:	5d                   	pop    %ebp
    344c:	e9 cf 7c 01 00       	jmp    1b120 <async_answer_0@plt>
    3451:	8d b4 26 00 00 00 00 	lea    0x0(%esi,%eiz,1),%esi
    3458:	68 40 62 01 00       	push   $0x16240
    345d:	68 a8 5e 01 00       	push   $0x15ea8
    3462:	6a 04                	push   $0x4
    3464:	6a ff                	push   $0xffffffff
    3466:	e8 d5 7c 01 00       	call   1b140 <log_msg@plt>
    346b:	83 c4 10             	add    $0x10,%esp
    346e:	c7 45 0c f2 ff ff ff 	movl   $0xfffffff2,0xc(%ebp)
    3475:	eb c8                	jmp    343f <default_connection_handler+0xdf>
    3477:	90                   	nop
    3478:	68 40 62 01 00       	push   $0x16240
    347d:	68 e8 5e 01 00       	push   $0x15ee8
    3482:	eb de                	jmp    3462 <default_connection_handler+0x102>
    3484:	8d b6 00 00 00 00    	lea    0x0(%esi),%esi
    348a:	8d bf 00 00 00 00    	lea    0x0(%edi),%edi

00003490 <usb_mouse_init>:
    3490:	55                   	push   %ebp
    3491:	89 e5                	mov    %esp,%ebp
    3493:	57                   	push   %edi
    3494:	56                   	push   %esi
    3495:	53                   	push   %ebx
    3496:	83 ec 20             	sub    $0x20,%esp
    3499:	68 94 5f 01 00       	push   $0x15f94
    349e:	6a 04                	push   $0x4
    34a0:	6a ff                	push   $0xffffffff
    34a2:	e8 99 7c 01 00       	call   1b140 <log_msg@plt>
    34a7:	8b 55 08             	mov    0x8(%ebp),%edx
    34aa:	83 c4 10             	add    $0x10,%esp
    34ad:	85 d2                	test   %edx,%edx
    34af:	0f 84 69 02 00 00    	je     371e <usb_mouse_init+0x28e>
    34b5:	a1 44 d9 01 00       	mov    0x1d944,%eax
    34ba:	50                   	push   %eax
    34bb:	68 e0 56 01 00       	push   $0x156e0
    34c0:	6a 04                	push   $0x4
    34c2:	6a ff                	push   $0xffffffff
    34c4:	e8 77 7c 01 00       	call   1b140 <log_msg@plt>
    34c9:	83 c4 0c             	add    $0xc,%esp
    34cc:	a1 44 d9 01 00       	mov    0x1d944,%eax
    34d1:	50                   	push   %eax
    34d2:	8b 45 08             	mov    0x8(%ebp),%eax
    34d5:	6a 02                	push   $0x2
    34d7:	8b 00                	mov    (%eax),%eax
    34d9:	50                   	push   %eax
    34da:	e8 e1 58 00 00       	call   8dc0 <usb_device_ddf_fun_create>
    34df:	83 c4 10             	add    $0x10,%esp
    34e2:	89 45 e4             	mov    %eax,-0x1c(%ebp)
    34e5:	85 c0                	test   %eax,%eax
    34e7:	0f 84 73 02 00 00    	je     3760 <usb_mouse_init+0x2d0>
    34ed:	8b 45 e4             	mov    -0x1c(%ebp),%eax
    34f0:	57                   	push   %edi
    34f1:	57                   	push   %edi
    34f2:	6a 10                	push   $0x10
    34f4:	50                   	push   %eax
    34f5:	e8 f6 8e 00 00       	call   c3f0 <ddf_fun_data_alloc>
    34fa:	83 c4 10             	add    $0x10,%esp
    34fd:	89 45 e0             	mov    %eax,-0x20(%ebp)
    3500:	85 c0                	test   %eax,%eax
    3502:	0f 84 32 02 00 00    	je     373a <usb_mouse_init+0x2aa>
    3508:	8b 45 08             	mov    0x8(%ebp),%eax
    350b:	31 db                	xor    %ebx,%ebx
    350d:	8a 58 38             	mov    0x38(%eax),%bl
    3510:	8d 78 18             	lea    0x18(%eax),%edi
    3513:	e8 a8 3d 00 00       	call   72c0 <usb_hid_report_path>
    3518:	89 c6                	mov    %eax,%esi
    351a:	50                   	push   %eax
    351b:	6a 00                	push   $0x0
    351d:	6a 09                	push   $0x9
    351f:	56                   	push   %esi
    3520:	e8 5b 38 00 00       	call   6d80 <usb_hid_report_path_append_item>
    3525:	58                   	pop    %eax
    3526:	5a                   	pop    %edx
    3527:	53                   	push   %ebx
    3528:	56                   	push   %esi
    3529:	31 db                	xor    %ebx,%ebx
    352b:	e8 70 3f 00 00       	call   74a0 <usb_hid_report_path_set_report_id>
    3530:	83 c4 10             	add    $0x10,%esp
    3533:	31 c0                	xor    %eax,%eax
    3535:	8d 76 00             	lea    0x0(%esi),%esi
    3538:	83 ec 0c             	sub    $0xc,%esp
    353b:	6a 01                	push   $0x1
    353d:	6a 03                	push   $0x3
    353f:	56                   	push   %esi
    3540:	50                   	push   %eax
    3541:	57                   	push   %edi
    3542:	e8 59 36 00 00       	call   6ba0 <usb_hid_report_get_sibling>
    3547:	83 c4 20             	add    $0x20,%esp
    354a:	85 c0                	test   %eax,%eax
    354c:	74 1a                	je     3568 <usb_mouse_init+0xd8>
    354e:	31 d2                	xor    %edx,%edx
    3550:	8b 48 24             	mov    0x24(%eax),%ecx
    3553:	66 8b 50 0a          	mov    0xa(%eax),%dx
    3557:	29 ca                	sub    %ecx,%edx
    3559:	39 d3                	cmp    %edx,%ebx
    355b:	73 db                	jae    3538 <usb_mouse_init+0xa8>
    355d:	89 d3                	mov    %edx,%ebx
    355f:	eb d7                	jmp    3538 <usb_mouse_init+0xa8>
    3561:	8d b4 26 00 00 00 00 	lea    0x0(%esi,%eiz,1),%esi
    3568:	83 ec 0c             	sub    $0xc,%esp
    356b:	43                   	inc    %ebx
    356c:	56                   	push   %esi
    356d:	e8 8e 3d 00 00       	call   7300 <usb_hid_report_path_free>
    3572:	8b 7d e0             	mov    -0x20(%ebp),%edi
    3575:	89 5f 08             	mov    %ebx,0x8(%edi)
    3578:	58                   	pop    %eax
    3579:	5a                   	pop    %edx
    357a:	6a 04                	push   $0x4
    357c:	53                   	push   %ebx
    357d:	e8 2e 7c 01 00       	call   1b1b0 <calloc@plt>
    3582:	83 c4 10             	add    $0x10,%esp
    3585:	89 47 04             	mov    %eax,0x4(%edi)
    3588:	85 c0                	test   %eax,%eax
    358a:	0f 84 a6 00 00 00    	je     3636 <usb_mouse_init+0x1a6>
    3590:	8b 45 08             	mov    0x8(%ebp),%eax
    3593:	83 ec 0c             	sub    $0xc,%esp
    3596:	8b 18                	mov    (%eax),%ebx
    3598:	53                   	push   %ebx
    3599:	e8 e2 4e 00 00       	call   8480 <usb_device_get_iface_number>
    359e:	89 c3                	mov    %eax,%ebx
    35a0:	8b 45 08             	mov    0x8(%ebp),%eax
    35a3:	5e                   	pop    %esi
    35a4:	8b 38                	mov    (%eax),%edi
    35a6:	57                   	push   %edi
    35a7:	e8 e4 4d 00 00       	call   8390 <usb_device_get_default_pipe>
    35ac:	83 c4 0c             	add    $0xc,%esp
    35af:	6a 00                	push   $0x0
    35b1:	53                   	push   %ebx
    35b2:	50                   	push   %eax
    35b3:	e8 28 44 00 00       	call   79e0 <usbhid_req_set_idle>
    35b8:	8b 7d e4             	mov    -0x1c(%ebp),%edi
    35bb:	58                   	pop    %eax
    35bc:	5a                   	pop    %edx
    35bd:	68 60 d9 01 00       	push   $0x1d960
    35c2:	57                   	push   %edi
    35c3:	e8 c8 92 00 00       	call   c890 <ddf_fun_set_ops>
    35c8:	89 3c 24             	mov    %edi,(%esp)
    35cb:	e8 d0 8f 00 00       	call   c5a0 <ddf_fun_bind>
    35d0:	83 c4 10             	add    $0x10,%esp
    35d3:	89 c3                	mov    %eax,%ebx
    35d5:	85 c0                	test   %eax,%eax
    35d7:	0f 85 9b 00 00 00    	jne    3678 <usb_mouse_init+0x1e8>
    35dd:	83 ec 0c             	sub    $0xc,%esp
    35e0:	8b 75 e4             	mov    -0x1c(%ebp),%esi
    35e3:	8b 1d 40 d9 01 00    	mov    0x1d940,%ebx
    35e9:	56                   	push   %esi
    35ea:	e8 71 8e 00 00       	call   c460 <ddf_fun_get_name>
    35ef:	89 1c 24             	mov    %ebx,(%esp)
    35f2:	50                   	push   %eax
    35f3:	68 d0 60 01 00       	push   $0x160d0
    35f8:	6a 04                	push   $0x4
    35fa:	6a ff                	push   $0xffffffff
    35fc:	e8 3f 7b 01 00       	call   1b140 <log_msg@plt>
    3601:	83 c4 18             	add    $0x18,%esp
    3604:	8b 0d 40 d9 01 00    	mov    0x1d940,%ecx
    360a:	51                   	push   %ecx
    360b:	56                   	push   %esi
    360c:	e8 df 92 00 00       	call   c8f0 <ddf_fun_add_to_category>
    3611:	83 c4 10             	add    $0x10,%esp
    3614:	89 c3                	mov    %eax,%ebx
    3616:	85 c0                	test   %eax,%eax
    3618:	0f 85 98 00 00 00    	jne    36b6 <usb_mouse_init+0x226>
    361e:	8b 4d e0             	mov    -0x20(%ebp),%ecx
    3621:	8b 45 0c             	mov    0xc(%ebp),%eax
    3624:	8b 75 e4             	mov    -0x1c(%ebp),%esi
    3627:	89 71 0c             	mov    %esi,0xc(%ecx)
    362a:	89 08                	mov    %ecx,(%eax)
    362c:	8d 65 f4             	lea    -0xc(%ebp),%esp
    362f:	89 d8                	mov    %ebx,%eax
    3631:	5b                   	pop    %ebx
    3632:	5e                   	pop    %esi
    3633:	5f                   	pop    %edi
    3634:	5d                   	pop    %ebp
    3635:	c3                   	ret    
    3636:	51                   	push   %ecx
    3637:	68 50 60 01 00       	push   $0x16050
    363c:	6a 01                	push   $0x1
    363e:	6a ff                	push   $0xffffffff
    3640:	e8 fb 7a 01 00       	call   1b140 <log_msg@plt>
    3645:	8b 75 e0             	mov    -0x20(%ebp),%esi
    3648:	5b                   	pop    %ebx
    3649:	56                   	push   %esi
    364a:	e8 71 7e 01 00       	call   1b4c0 <free@plt>
    364f:	83 c4 0c             	add    $0xc,%esp
    3652:	68 7c 60 01 00       	push   $0x1607c
    3657:	6a 01                	push   $0x1
    3659:	6a ff                	push   $0xffffffff
    365b:	e8 e0 7a 01 00       	call   1b140 <log_msg@plt>
    3660:	83 c4 10             	add    $0x10,%esp
    3663:	8d 65 f4             	lea    -0xc(%ebp),%esp
    3666:	bb fe ff ff ff       	mov    $0xfffffffe,%ebx
    366b:	89 d8                	mov    %ebx,%eax
    366d:	5b                   	pop    %ebx
    366e:	5e                   	pop    %esi
    366f:	5f                   	pop    %edi
    3670:	5d                   	pop    %ebp
    3671:	c3                   	ret    
    3672:	8d b6 00 00 00 00    	lea    0x0(%esi),%esi
    3678:	83 ec 0c             	sub    $0xc,%esp
    367b:	50                   	push   %eax
    367c:	e8 3f 7d 01 00       	call   1b3c0 <str_error@plt>
    3681:	8b 7d e4             	mov    -0x1c(%ebp),%edi
    3684:	89 c6                	mov    %eax,%esi
    3686:	89 3c 24             	mov    %edi,(%esp)
    3689:	e8 d2 8d 00 00       	call   c460 <ddf_fun_get_name>
    368e:	89 34 24             	mov    %esi,(%esp)
    3691:	50                   	push   %eax
    3692:	68 a8 60 01 00       	push   $0x160a8
    3697:	6a 01                	push   $0x1
    3699:	6a ff                	push   $0xffffffff
    369b:	e8 a0 7a 01 00       	call   1b140 <log_msg@plt>
    36a0:	83 c4 14             	add    $0x14,%esp
    36a3:	57                   	push   %edi
    36a4:	e8 c7 8d 00 00       	call   c470 <ddf_fun_destroy>
    36a9:	83 c4 10             	add    $0x10,%esp
    36ac:	8d 65 f4             	lea    -0xc(%ebp),%esp
    36af:	89 d8                	mov    %ebx,%eax
    36b1:	5b                   	pop    %ebx
    36b2:	5e                   	pop    %esi
    36b3:	5f                   	pop    %edi
    36b4:	5d                   	pop    %ebp
    36b5:	c3                   	ret    
    36b6:	83 ec 0c             	sub    $0xc,%esp
    36b9:	50                   	push   %eax
    36ba:	e8 01 7d 01 00       	call   1b3c0 <str_error@plt>
    36bf:	8b 15 40 d9 01 00    	mov    0x1d940,%edx
    36c5:	89 04 24             	mov    %eax,(%esp)
    36c8:	52                   	push   %edx
    36c9:	68 68 5c 01 00       	push   $0x15c68
    36ce:	6a 01                	push   $0x1
    36d0:	6a ff                	push   $0xffffffff
    36d2:	e8 69 7a 01 00       	call   1b140 <log_msg@plt>
    36d7:	83 c4 14             	add    $0x14,%esp
    36da:	8b 7d e4             	mov    -0x1c(%ebp),%edi
    36dd:	57                   	push   %edi
    36de:	e8 ed 8f 00 00       	call   c6d0 <ddf_fun_unbind>
    36e3:	83 c4 10             	add    $0x10,%esp
    36e6:	85 c0                	test   %eax,%eax
    36e8:	75 11                	jne    36fb <usb_mouse_init+0x26b>
    36ea:	83 ec 0c             	sub    $0xc,%esp
    36ed:	57                   	push   %edi
    36ee:	e8 7d 8d 00 00       	call   c470 <ddf_fun_destroy>
    36f3:	83 c4 10             	add    $0x10,%esp
    36f6:	e9 31 ff ff ff       	jmp    362c <usb_mouse_init+0x19c>
    36fb:	83 ec 0c             	sub    $0xc,%esp
    36fe:	8b 45 e4             	mov    -0x1c(%ebp),%eax
    3701:	50                   	push   %eax
    3702:	e8 59 8d 00 00       	call   c460 <ddf_fun_get_name>
    3707:	50                   	push   %eax
    3708:	68 fc 60 01 00       	push   $0x160fc
    370d:	6a 01                	push   $0x1
    370f:	6a ff                	push   $0xffffffff
    3711:	e8 2a 7a 01 00       	call   1b140 <log_msg@plt>
    3716:	83 c4 20             	add    $0x20,%esp
    3719:	e9 0e ff ff ff       	jmp    362c <usb_mouse_init+0x19c>
    371e:	50                   	push   %eax
    371f:	68 bc 5f 01 00       	push   $0x15fbc
    3724:	6a 01                	push   $0x1
    3726:	6a ff                	push   $0xffffffff
    3728:	bb f2 ff ff ff       	mov    $0xfffffff2,%ebx
    372d:	e8 0e 7a 01 00       	call   1b140 <log_msg@plt>
    3732:	83 c4 10             	add    $0x10,%esp
    3735:	e9 f2 fe ff ff       	jmp    362c <usb_mouse_init+0x19c>
    373a:	51                   	push   %ecx
    373b:	68 20 60 01 00       	push   $0x16020
    3740:	6a 01                	push   $0x1
    3742:	6a ff                	push   $0xffffffff
    3744:	e8 f7 79 01 00       	call   1b140 <log_msg@plt>
    3749:	8b 75 e4             	mov    -0x1c(%ebp),%esi
    374c:	5b                   	pop    %ebx
    374d:	56                   	push   %esi
    374e:	bb fe ff ff ff       	mov    $0xfffffffe,%ebx
    3753:	e8 18 8d 00 00       	call   c470 <ddf_fun_destroy>
    3758:	83 c4 10             	add    $0x10,%esp
    375b:	e9 cc fe ff ff       	jmp    362c <usb_mouse_init+0x19c>
    3760:	a1 44 d9 01 00       	mov    0x1d944,%eax
    3765:	50                   	push   %eax
    3766:	68 f4 5f 01 00       	push   $0x15ff4
    376b:	e9 e7 fe ff ff       	jmp    3657 <usb_mouse_init+0x1c7>

00003770 <usb_mouse_polling_callback>:
    3770:	55                   	push   %ebp
    3771:	89 e5                	mov    %esp,%ebp
    3773:	57                   	push   %edi
    3774:	56                   	push   %esi
    3775:	53                   	push   %ebx
    3776:	83 ec 1c             	sub    $0x1c,%esp
    3779:	8b 45 08             	mov    0x8(%ebp),%eax
    377c:	8b 75 0c             	mov    0xc(%ebp),%esi
    377f:	85 c0                	test   %eax,%eax
    3781:	0f 84 71 02 00 00    	je     39f8 <usb_mouse_polling_callback+0x288>
    3787:	85 f6                	test   %esi,%esi
    3789:	0f 84 69 02 00 00    	je     39f8 <usb_mouse_polling_callback+0x288>
    378f:	8b 3e                	mov    (%esi),%edi
    3791:	85 ff                	test   %edi,%edi
    3793:	0f 84 fb 02 00 00    	je     3a94 <usb_mouse_polling_callback+0x324>
    3799:	8b 4d 08             	mov    0x8(%ebp),%ecx
    379c:	8b 45 08             	mov    0x8(%ebp),%eax
    379f:	83 c0 18             	add    $0x18,%eax
    37a2:	0f b6 79 38          	movzbl 0x38(%ecx),%edi
    37a6:	89 45 e4             	mov    %eax,-0x1c(%ebp)
    37a9:	e8 12 3b 00 00       	call   72c0 <usb_hid_report_path>
    37ae:	81 e7 ff 00 00 00    	and    $0xff,%edi
    37b4:	89 c3                	mov    %eax,%ebx
    37b6:	50                   	push   %eax
    37b7:	6a 30                	push   $0x30
    37b9:	6a 01                	push   $0x1
    37bb:	53                   	push   %ebx
    37bc:	e8 bf 35 00 00       	call   6d80 <usb_hid_report_path_append_item>
    37c1:	58                   	pop    %eax
    37c2:	5a                   	pop    %edx
    37c3:	57                   	push   %edi
    37c4:	53                   	push   %ebx
    37c5:	e8 d6 3c 00 00       	call   74a0 <usb_hid_report_path_set_report_id>
    37ca:	8b 4d e4             	mov    -0x1c(%ebp),%ecx
    37cd:	c7 04 24 01 00 00 00 	movl   $0x1,(%esp)
    37d4:	6a 01                	push   $0x1
    37d6:	53                   	push   %ebx
    37d7:	6a 00                	push   $0x0
    37d9:	51                   	push   %ecx
    37da:	e8 c1 33 00 00       	call   6ba0 <usb_hid_report_get_sibling>
    37df:	83 c4 20             	add    $0x20,%esp
    37e2:	85 c0                	test   %eax,%eax
    37e4:	0f 84 2a 02 00 00    	je     3a14 <usb_mouse_polling_callback+0x2a4>
    37ea:	8b 40 3c             	mov    0x3c(%eax),%eax
    37ed:	89 45 dc             	mov    %eax,-0x24(%ebp)
    37f0:	83 ec 0c             	sub    $0xc,%esp
    37f3:	53                   	push   %ebx
    37f4:	e8 07 3b 00 00       	call   7300 <usb_hid_report_path_free>
    37f9:	8b 45 08             	mov    0x8(%ebp),%eax
    37fc:	0f b6 78 38          	movzbl 0x38(%eax),%edi
    3800:	e8 bb 3a 00 00       	call   72c0 <usb_hid_report_path>
    3805:	83 c4 0c             	add    $0xc,%esp
    3808:	89 c3                	mov    %eax,%ebx
    380a:	81 e7 ff 00 00 00    	and    $0xff,%edi
    3810:	6a 31                	push   $0x31
    3812:	6a 01                	push   $0x1
    3814:	50                   	push   %eax
    3815:	e8 66 35 00 00       	call   6d80 <usb_hid_report_path_append_item>
    381a:	58                   	pop    %eax
    381b:	5a                   	pop    %edx
    381c:	57                   	push   %edi
    381d:	53                   	push   %ebx
    381e:	e8 7d 3c 00 00       	call   74a0 <usb_hid_report_path_set_report_id>
    3823:	8b 4d e4             	mov    -0x1c(%ebp),%ecx
    3826:	c7 04 24 01 00 00 00 	movl   $0x1,(%esp)
    382d:	6a 01                	push   $0x1
    382f:	53                   	push   %ebx
    3830:	6a 00                	push   $0x0
    3832:	51                   	push   %ecx
    3833:	e8 68 33 00 00       	call   6ba0 <usb_hid_report_get_sibling>
    3838:	83 c4 20             	add    $0x20,%esp
    383b:	85 c0                	test   %eax,%eax
    383d:	0f 84 59 02 00 00    	je     3a9c <usb_mouse_polling_callback+0x32c>
    3843:	8b 40 3c             	mov    0x3c(%eax),%eax
    3846:	89 45 e0             	mov    %eax,-0x20(%ebp)
    3849:	83 ec 0c             	sub    $0xc,%esp
    384c:	53                   	push   %ebx
    384d:	e8 ae 3a 00 00       	call   7300 <usb_hid_report_path_free>
    3852:	8b 45 08             	mov    0x8(%ebp),%eax
    3855:	0f b6 78 38          	movzbl 0x38(%eax),%edi
    3859:	e8 62 3a 00 00       	call   72c0 <usb_hid_report_path>
    385e:	83 c4 0c             	add    $0xc,%esp
    3861:	89 c3                	mov    %eax,%ebx
    3863:	81 e7 ff 00 00 00    	and    $0xff,%edi
    3869:	6a 38                	push   $0x38
    386b:	6a 01                	push   $0x1
    386d:	50                   	push   %eax
    386e:	e8 0d 35 00 00       	call   6d80 <usb_hid_report_path_append_item>
    3873:	59                   	pop    %ecx
    3874:	58                   	pop    %eax
    3875:	57                   	push   %edi
    3876:	53                   	push   %ebx
    3877:	e8 24 3c 00 00       	call   74a0 <usb_hid_report_path_set_report_id>
    387c:	8b 45 e4             	mov    -0x1c(%ebp),%eax
    387f:	c7 04 24 01 00 00 00 	movl   $0x1,(%esp)
    3886:	6a 01                	push   $0x1
    3888:	53                   	push   %ebx
    3889:	6a 00                	push   $0x0
    388b:	50                   	push   %eax
    388c:	e8 0f 33 00 00       	call   6ba0 <usb_hid_report_get_sibling>
    3891:	83 c4 20             	add    $0x20,%esp
    3894:	85 c0                	test   %eax,%eax
    3896:	0f 84 14 02 00 00    	je     3ab0 <usb_mouse_polling_callback+0x340>
    389c:	8b 78 3c             	mov    0x3c(%eax),%edi
    389f:	83 ec 0c             	sub    $0xc,%esp
    38a2:	53                   	push   %ebx
    38a3:	e8 58 3a 00 00       	call   7300 <usb_hid_report_path_free>
    38a8:	8b 45 e0             	mov    -0x20(%ebp),%eax
    38ab:	8b 55 dc             	mov    -0x24(%ebp),%edx
    38ae:	09 d0                	or     %edx,%eax
    38b0:	83 c4 10             	add    $0x10,%esp
    38b3:	09 f8                	or     %edi,%eax
    38b5:	0f 85 95 01 00 00    	jne    3a50 <usb_mouse_polling_callback+0x2e0>
    38bb:	e8 00 3a 00 00       	call   72c0 <usb_hid_report_path>
    38c0:	89 45 e0             	mov    %eax,-0x20(%ebp)
    38c3:	85 c0                	test   %eax,%eax
    38c5:	0f 84 dd 01 00 00    	je     3aa8 <usb_mouse_polling_callback+0x338>
    38cb:	50                   	push   %eax
    38cc:	8b 45 e0             	mov    -0x20(%ebp),%eax
    38cf:	6a 00                	push   $0x0
    38d1:	6a 09                	push   $0x9
    38d3:	50                   	push   %eax
    38d4:	e8 a7 34 00 00       	call   6d80 <usb_hid_report_path_append_item>
    38d9:	83 c4 10             	add    $0x10,%esp
    38dc:	85 c0                	test   %eax,%eax
    38de:	0f 85 3c 01 00 00    	jne    3a20 <usb_mouse_polling_callback+0x2b0>
    38e4:	8b 7d 08             	mov    0x8(%ebp),%edi
    38e7:	50                   	push   %eax
    38e8:	50                   	push   %eax
    38e9:	31 c0                	xor    %eax,%eax
    38eb:	8a 47 38             	mov    0x38(%edi),%al
    38ee:	8b 7d e0             	mov    -0x20(%ebp),%edi
    38f1:	50                   	push   %eax
    38f2:	57                   	push   %edi
    38f3:	e8 a8 3b 00 00       	call   74a0 <usb_hid_report_path_set_report_id>
    38f8:	c7 04 24 01 00 00 00 	movl   $0x1,(%esp)
    38ff:	6a 03                	push   $0x3
    3901:	57                   	push   %edi
    3902:	6a 00                	push   $0x0
    3904:	e9 bb 00 00 00       	jmp    39c4 <usb_mouse_polling_callback+0x254>
    3909:	8d b4 26 00 00 00 00 	lea    0x0(%esi,%eiz,1),%esi
    3910:	83 ec 0c             	sub    $0xc,%esp
    3913:	31 c0                	xor    %eax,%eax
    3915:	66 8b 43 0a          	mov    0xa(%ebx),%ax
    3919:	50                   	push   %eax
    391a:	8b 7b 3c             	mov    0x3c(%ebx),%edi
    391d:	57                   	push   %edi
    391e:	68 1a 5f 01 00       	push   $0x15f1a
    3923:	6a 05                	push   $0x5
    3925:	6a ff                	push   $0xffffffff
    3927:	e8 14 78 01 00       	call   1b140 <log_msg@plt>
    392c:	31 d2                	xor    %edx,%edx
    392e:	66 8b 53 0a          	mov    0xa(%ebx),%dx
    3932:	8b 43 24             	mov    0x24(%ebx),%eax
    3935:	83 c4 20             	add    $0x20,%esp
    3938:	39 c2                	cmp    %eax,%edx
    393a:	0f 8e 8c 01 00 00    	jle    3acc <usb_mouse_polling_callback+0x35c>
    3940:	29 c2                	sub    %eax,%edx
    3942:	3b 56 08             	cmp    0x8(%esi),%edx
    3945:	0f 83 6c 01 00 00    	jae    3ab7 <usb_mouse_polling_callback+0x347>
    394b:	8d 3c 95 00 00 00 00 	lea    0x0(,%edx,4),%edi
    3952:	8b 46 04             	mov    0x4(%esi),%eax
    3955:	8b 4b 3c             	mov    0x3c(%ebx),%ecx
    3958:	39 0c 38             	cmp    %ecx,(%eax,%edi,1)
    395b:	74 5b                	je     39b8 <usb_mouse_polling_callback+0x248>
    395d:	83 ec 0c             	sub    $0xc,%esp
    3960:	8b 0e                	mov    (%esi),%ecx
    3962:	51                   	push   %ecx
    3963:	e8 48 7a 01 00       	call   1b3b0 <async_exchange_begin@plt>
    3968:	83 c4 10             	add    $0x10,%esp
    396b:	89 c1                	mov    %eax,%ecx
    396d:	85 c0                	test   %eax,%eax
    396f:	74 47                	je     39b8 <usb_mouse_polling_callback+0x248>
    3971:	52                   	push   %edx
    3972:	6a 00                	push   $0x0
    3974:	6a 00                	push   $0x0
    3976:	6a 00                	push   $0x0
    3978:	6a 00                	push   $0x0
    397a:	6a 00                	push   $0x0
    397c:	6a 00                	push   $0x0
    397e:	6a 00                	push   $0x0
    3980:	8b 53 3c             	mov    0x3c(%ebx),%edx
    3983:	31 c0                	xor    %eax,%eax
    3985:	85 d2                	test   %edx,%edx
    3987:	89 4d dc             	mov    %ecx,-0x24(%ebp)
    398a:	0f 95 c0             	setne  %al
    398d:	50                   	push   %eax
    398e:	31 c0                	xor    %eax,%eax
    3990:	66 8b 43 0a          	mov    0xa(%ebx),%ax
    3994:	50                   	push   %eax
    3995:	68 02 04 00 00       	push   $0x402
    399a:	51                   	push   %ecx
    399b:	e8 60 77 01 00       	call   1b100 <async_req_fast@plt>
    39a0:	83 c4 24             	add    $0x24,%esp
    39a3:	8b 4d dc             	mov    -0x24(%ebp),%ecx
    39a6:	51                   	push   %ecx
    39a7:	e8 d4 77 01 00       	call   1b180 <async_exchange_end@plt>
    39ac:	8b 46 04             	mov    0x4(%esi),%eax
    39af:	8b 4b 3c             	mov    0x3c(%ebx),%ecx
    39b2:	83 c4 10             	add    $0x10,%esp
    39b5:	89 0c 38             	mov    %ecx,(%eax,%edi,1)
    39b8:	83 ec 0c             	sub    $0xc,%esp
    39bb:	8b 45 e0             	mov    -0x20(%ebp),%eax
    39be:	6a 01                	push   $0x1
    39c0:	6a 03                	push   $0x3
    39c2:	50                   	push   %eax
    39c3:	53                   	push   %ebx
    39c4:	8b 45 e4             	mov    -0x1c(%ebp),%eax
    39c7:	50                   	push   %eax
    39c8:	e8 d3 31 00 00       	call   6ba0 <usb_hid_report_get_sibling>
    39cd:	83 c4 20             	add    $0x20,%esp
    39d0:	89 c3                	mov    %eax,%ebx
    39d2:	85 c0                	test   %eax,%eax
    39d4:	0f 85 36 ff ff ff    	jne    3910 <usb_mouse_polling_callback+0x1a0>
    39da:	83 ec 0c             	sub    $0xc,%esp
    39dd:	8b 45 e0             	mov    -0x20(%ebp),%eax
    39e0:	50                   	push   %eax
    39e1:	e8 1a 39 00 00       	call   7300 <usb_hid_report_path_free>
    39e6:	83 c4 10             	add    $0x10,%esp
    39e9:	8d 65 f4             	lea    -0xc(%ebp),%esp
    39ec:	b0 01                	mov    $0x1,%al
    39ee:	5b                   	pop    %ebx
    39ef:	5e                   	pop    %esi
    39f0:	5f                   	pop    %edi
    39f1:	5d                   	pop    %ebp
    39f2:	c3                   	ret    
    39f3:	90                   	nop
    39f4:	8d 74 26 00          	lea    0x0(%esi,%eiz,1),%esi
    39f8:	50                   	push   %eax
    39f9:	68 38 61 01 00       	push   $0x16138
    39fe:	6a 01                	push   $0x1
    3a00:	6a ff                	push   $0xffffffff
    3a02:	e8 39 77 01 00       	call   1b140 <log_msg@plt>
    3a07:	83 c4 10             	add    $0x10,%esp
    3a0a:	8d 65 f4             	lea    -0xc(%ebp),%esp
    3a0d:	31 c0                	xor    %eax,%eax
    3a0f:	5b                   	pop    %ebx
    3a10:	5e                   	pop    %esi
    3a11:	5f                   	pop    %edi
    3a12:	5d                   	pop    %ebp
    3a13:	c3                   	ret    
    3a14:	c7 45 dc 00 00 00 00 	movl   $0x0,-0x24(%ebp)
    3a1b:	e9 d0 fd ff ff       	jmp    37f0 <usb_mouse_polling_callback+0x80>
    3a20:	83 ec 0c             	sub    $0xc,%esp
    3a23:	8b 45 e0             	mov    -0x20(%ebp),%eax
    3a26:	50                   	push   %eax
    3a27:	e8 d4 38 00 00       	call   7300 <usb_hid_report_path_free>
    3a2c:	83 c4 0c             	add    $0xc,%esp
    3a2f:	68 94 61 01 00       	push   $0x16194
    3a34:	6a 02                	push   $0x2
    3a36:	6a ff                	push   $0xffffffff
    3a38:	e8 03 77 01 00       	call   1b140 <log_msg@plt>
    3a3d:	83 c4 10             	add    $0x10,%esp
    3a40:	8d 65 f4             	lea    -0xc(%ebp),%esp
    3a43:	b0 01                	mov    $0x1,%al
    3a45:	5b                   	pop    %ebx
    3a46:	5e                   	pop    %esi
    3a47:	5f                   	pop    %edi
    3a48:	5d                   	pop    %ebp
    3a49:	c3                   	ret    
    3a4a:	8d b6 00 00 00 00    	lea    0x0(%esi),%esi
    3a50:	83 ec 0c             	sub    $0xc,%esp
    3a53:	8b 06                	mov    (%esi),%eax
    3a55:	50                   	push   %eax
    3a56:	e8 55 79 01 00       	call   1b3b0 <async_exchange_begin@plt>
    3a5b:	83 c4 10             	add    $0x10,%esp
    3a5e:	85 c0                	test   %eax,%eax
    3a60:	0f 84 55 fe ff ff    	je     38bb <usb_mouse_polling_callback+0x14b>
    3a66:	83 ec 0c             	sub    $0xc,%esp
    3a69:	8b 4d e0             	mov    -0x20(%ebp),%ecx
    3a6c:	8b 5d dc             	mov    -0x24(%ebp),%ebx
    3a6f:	89 45 e0             	mov    %eax,-0x20(%ebp)
    3a72:	57                   	push   %edi
    3a73:	51                   	push   %ecx
    3a74:	53                   	push   %ebx
    3a75:	68 00 04 00 00       	push   $0x400
    3a7a:	50                   	push   %eax
    3a7b:	e8 40 78 01 00       	call   1b2c0 <async_msg_3@plt>
    3a80:	83 c4 14             	add    $0x14,%esp
    3a83:	8b 45 e0             	mov    -0x20(%ebp),%eax
    3a86:	50                   	push   %eax
    3a87:	e8 f4 76 01 00       	call   1b180 <async_exchange_end@plt>
    3a8c:	83 c4 10             	add    $0x10,%esp
    3a8f:	e9 27 fe ff ff       	jmp    38bb <usb_mouse_polling_callback+0x14b>
    3a94:	53                   	push   %ebx
    3a95:	68 ff 5e 01 00       	push   $0x15eff
    3a9a:	eb 98                	jmp    3a34 <usb_mouse_polling_callback+0x2c4>
    3a9c:	c7 45 e0 00 00 00 00 	movl   $0x0,-0x20(%ebp)
    3aa3:	e9 a1 fd ff ff       	jmp    3849 <usb_mouse_polling_callback+0xd9>
    3aa8:	52                   	push   %edx
    3aa9:	68 6c 61 01 00       	push   $0x1616c
    3aae:	eb 84                	jmp    3a34 <usb_mouse_polling_callback+0x2c4>
    3ab0:	31 ff                	xor    %edi,%edi
    3ab2:	e9 e8 fd ff ff       	jmp    389f <usb_mouse_polling_callback+0x12f>
    3ab7:	53                   	push   %ebx
    3ab8:	68 e0 00 00 00       	push   $0xe0
    3abd:	68 35 5f 01 00       	push   $0x15f35
    3ac2:	68 e0 61 01 00       	push   $0x161e0
    3ac7:	e8 c4 76 01 00       	call   1b190 <assert_abort@plt>
    3acc:	56                   	push   %esi
    3acd:	68 de 00 00 00       	push   $0xde
    3ad2:	68 35 5f 01 00       	push   $0x15f35
    3ad7:	68 bc 61 01 00       	push   $0x161bc
    3adc:	e8 af 76 01 00       	call   1b190 <assert_abort@plt>
    3ae1:	eb 0d                	jmp    3af0 <usb_mouse_deinit>
    3ae3:	90                   	nop
    3ae4:	90                   	nop
    3ae5:	90                   	nop
    3ae6:	90                   	nop
    3ae7:	90                   	nop
    3ae8:	90                   	nop
    3ae9:	90                   	nop
    3aea:	90                   	nop
    3aeb:	90                   	nop
    3aec:	90                   	nop
    3aed:	90                   	nop
    3aee:	90                   	nop
    3aef:	90                   	nop

00003af0 <usb_mouse_deinit>:
    3af0:	55                   	push   %ebp
    3af1:	89 e5                	mov    %esp,%ebp
    3af3:	53                   	push   %ebx
    3af4:	53                   	push   %ebx
    3af5:	8b 5d 0c             	mov    0xc(%ebp),%ebx
    3af8:	85 db                	test   %ebx,%ebx
    3afa:	74 5a                	je     3b56 <usb_mouse_deinit+0x66>
    3afc:	8b 03                	mov    (%ebx),%eax
    3afe:	85 c0                	test   %eax,%eax
    3b00:	74 10                	je     3b12 <usb_mouse_deinit+0x22>
    3b02:	83 ec 0c             	sub    $0xc,%esp
    3b05:	50                   	push   %eax
    3b06:	e8 f5 74 01 00       	call   1b000 <async_hangup@plt>
    3b0b:	83 c4 10             	add    $0x10,%esp
    3b0e:	85 c0                	test   %eax,%eax
    3b10:	75 5e                	jne    3b70 <usb_mouse_deinit+0x80>
    3b12:	83 ec 0c             	sub    $0xc,%esp
    3b15:	8b 53 04             	mov    0x4(%ebx),%edx
    3b18:	52                   	push   %edx
    3b19:	e8 a2 79 01 00       	call   1b4c0 <free@plt>
    3b1e:	8b 43 0c             	mov    0xc(%ebx),%eax
    3b21:	83 c4 10             	add    $0x10,%esp
    3b24:	85 c0                	test   %eax,%eax
    3b26:	74 2e                	je     3b56 <usb_mouse_deinit+0x66>
    3b28:	83 ec 0c             	sub    $0xc,%esp
    3b2b:	50                   	push   %eax
    3b2c:	e8 9f 8b 00 00       	call   c6d0 <ddf_fun_unbind>
    3b31:	83 c4 10             	add    $0x10,%esp
    3b34:	85 c0                	test   %eax,%eax
    3b36:	74 28                	je     3b60 <usb_mouse_deinit+0x70>
    3b38:	83 ec 0c             	sub    $0xc,%esp
    3b3b:	8b 43 0c             	mov    0xc(%ebx),%eax
    3b3e:	50                   	push   %eax
    3b3f:	e8 1c 89 00 00       	call   c460 <ddf_fun_get_name>
    3b44:	50                   	push   %eax
    3b45:	68 fc 60 01 00       	push   $0x160fc
    3b4a:	6a 01                	push   $0x1
    3b4c:	6a ff                	push   $0xffffffff
    3b4e:	e8 ed 75 01 00       	call   1b140 <log_msg@plt>
    3b53:	83 c4 20             	add    $0x20,%esp
    3b56:	8b 5d fc             	mov    -0x4(%ebp),%ebx
    3b59:	c9                   	leave  
    3b5a:	c3                   	ret    
    3b5b:	90                   	nop
    3b5c:	8d 74 26 00          	lea    0x0(%esi,%eiz,1),%esi
    3b60:	8b 43 0c             	mov    0xc(%ebx),%eax
    3b63:	8b 5d fc             	mov    -0x4(%ebp),%ebx
    3b66:	89 45 08             	mov    %eax,0x8(%ebp)
    3b69:	c9                   	leave  
    3b6a:	e9 01 89 00 00       	jmp    c470 <ddf_fun_destroy>
    3b6f:	90                   	nop
    3b70:	83 ec 0c             	sub    $0xc,%esp
    3b73:	50                   	push   %eax
    3b74:	e8 47 78 01 00       	call   1b3c0 <str_error@plt>
    3b79:	89 04 24             	mov    %eax,(%esp)
    3b7c:	8b 0b                	mov    (%ebx),%ecx
    3b7e:	51                   	push   %ecx
    3b7f:	68 04 62 01 00       	push   $0x16204
    3b84:	6a 02                	push   $0x2
    3b86:	6a ff                	push   $0xffffffff
    3b88:	e8 b3 75 01 00       	call   1b140 <log_msg@plt>
    3b8d:	83 c4 20             	add    $0x20,%esp
    3b90:	eb 80                	jmp    3b12 <usb_mouse_deinit+0x22>
    3b92:	8d b4 26 00 00 00 00 	lea    0x0(%esi,%eiz,1),%esi
    3b99:	8d bc 27 00 00 00 00 	lea    0x0(%edi,%eiz,1),%edi

00003ba0 <usb_mouse_set_boot_protocol>:
    3ba0:	55                   	push   %ebp
    3ba1:	89 e5                	mov    %esp,%ebp
    3ba3:	56                   	push   %esi
    3ba4:	53                   	push   %ebx
    3ba5:	53                   	push   %ebx
    3ba6:	8b 75 08             	mov    0x8(%ebp),%esi
    3ba9:	6a 32                	push   $0x32
    3bab:	68 60 62 01 00       	push   $0x16260
    3bb0:	8d 46 18             	lea    0x18(%esi),%eax
    3bb3:	50                   	push   %eax
    3bb4:	e8 37 1c 00 00       	call   57f0 <usb_hid_parse_report_descriptor>
    3bb9:	83 c4 10             	add    $0x10,%esp
    3bbc:	85 c0                	test   %eax,%eax
    3bbe:	75 60                	jne    3c20 <usb_mouse_set_boot_protocol+0x80>
    3bc0:	83 ec 0c             	sub    $0xc,%esp
    3bc3:	8b 06                	mov    (%esi),%eax
    3bc5:	50                   	push   %eax
    3bc6:	e8 b5 48 00 00       	call   8480 <usb_device_get_iface_number>
    3bcb:	8b 0e                	mov    (%esi),%ecx
    3bcd:	5a                   	pop    %edx
    3bce:	89 c3                	mov    %eax,%ebx
    3bd0:	51                   	push   %ecx
    3bd1:	e8 ba 47 00 00       	call   8390 <usb_device_get_default_pipe>
    3bd6:	83 c4 0c             	add    $0xc,%esp
    3bd9:	6a 00                	push   $0x0
    3bdb:	53                   	push   %ebx
    3bdc:	50                   	push   %eax
    3bdd:	e8 4e 3d 00 00       	call   7930 <usbhid_req_set_protocol>
    3be2:	83 c4 10             	add    $0x10,%esp
    3be5:	89 c3                	mov    %eax,%ebx
    3be7:	85 c0                	test   %eax,%eax
    3be9:	75 0d                	jne    3bf8 <usb_mouse_set_boot_protocol+0x58>
    3beb:	8d 65 f8             	lea    -0x8(%ebp),%esp
    3bee:	89 d8                	mov    %ebx,%eax
    3bf0:	5b                   	pop    %ebx
    3bf1:	5e                   	pop    %esi
    3bf2:	5d                   	pop    %ebp
    3bf3:	c3                   	ret    
    3bf4:	8d 74 26 00          	lea    0x0(%esi,%eiz,1),%esi
    3bf8:	83 ec 0c             	sub    $0xc,%esp
    3bfb:	50                   	push   %eax
    3bfc:	e8 bf 77 01 00       	call   1b3c0 <str_error@plt>
    3c01:	50                   	push   %eax
    3c02:	68 4c 5d 01 00       	push   $0x15d4c
    3c07:	6a 02                	push   $0x2
    3c09:	6a ff                	push   $0xffffffff
    3c0b:	e8 30 75 01 00       	call   1b140 <log_msg@plt>
    3c10:	83 c4 20             	add    $0x20,%esp
    3c13:	8d 65 f8             	lea    -0x8(%ebp),%esp
    3c16:	89 d8                	mov    %ebx,%eax
    3c18:	5b                   	pop    %ebx
    3c19:	5e                   	pop    %esi
    3c1a:	5d                   	pop    %ebp
    3c1b:	c3                   	ret    
    3c1c:	8d 74 26 00          	lea    0x0(%esi,%eiz,1),%esi
    3c20:	83 ec 0c             	sub    $0xc,%esp
    3c23:	89 c3                	mov    %eax,%ebx
    3c25:	50                   	push   %eax
    3c26:	e8 95 77 01 00       	call   1b3c0 <str_error@plt>
    3c2b:	50                   	push   %eax
    3c2c:	68 20 5d 01 00       	push   $0x15d20
    3c31:	6a 01                	push   $0x1
    3c33:	6a ff                	push   $0xffffffff
    3c35:	e8 06 75 01 00       	call   1b140 <log_msg@plt>
    3c3a:	83 c4 20             	add    $0x20,%esp
    3c3d:	8d 65 f8             	lea    -0x8(%ebp),%esp
    3c40:	89 d8                	mov    %ebx,%eax
    3c42:	5b                   	pop    %ebx
    3c43:	5e                   	pop    %esi
    3c44:	5d                   	pop    %ebp
    3c45:	c3                   	ret    
    3c46:	66 90                	xchg   %ax,%ax
    3c48:	66 90                	xchg   %ax,%ax
    3c4a:	66 90                	xchg   %ax,%ax
    3c4c:	66 90                	xchg   %ax,%ax
    3c4e:	66 90                	xchg   %ax,%ax

00003c50 <default_connection_handler>:
    3c50:	55                   	push   %ebp
    3c51:	89 e5                	mov    %esp,%ebp
    3c53:	57                   	push   %edi
    3c54:	56                   	push   %esi
    3c55:	53                   	push   %ebx
    3c56:	83 ec 10             	sub    $0x10,%esp
    3c59:	8b 5d 08             	mov    0x8(%ebp),%ebx
    3c5c:	8b 7d 10             	mov    0x10(%ebp),%edi
    3c5f:	68 ac 62 01 00       	push   $0x162ac
    3c64:	6a 04                	push   $0x4
    3c66:	6a ff                	push   $0xffffffff
    3c68:	8b 75 0c             	mov    0xc(%ebp),%esi
    3c6b:	e8 d0 74 01 00       	call   1b140 <log_msg@plt>
    3c70:	89 1c 24             	mov    %ebx,(%esp)
    3c73:	e8 d8 87 00 00       	call   c450 <ddf_fun_data_get>
    3c78:	59                   	pop    %ecx
    3c79:	89 c3                	mov    %eax,%ebx
    3c7b:	58                   	pop    %eax
    3c7c:	57                   	push   %edi
    3c7d:	6a 01                	push   $0x1
    3c7f:	e8 9c 75 01 00       	call   1b220 <async_callback_receive_start@plt>
    3c84:	83 c4 10             	add    $0x10,%esp
    3c87:	85 c0                	test   %eax,%eax
    3c89:	74 4d                	je     3cd8 <default_connection_handler+0x88>
    3c8b:	8b 13                	mov    (%ebx),%edx
    3c8d:	85 d2                	test   %edx,%edx
    3c8f:	74 17                	je     3ca8 <default_connection_handler+0x58>
    3c91:	c7 45 0c fd ff ff ff 	movl   $0xfffffffd,0xc(%ebp)
    3c98:	89 75 08             	mov    %esi,0x8(%ebp)
    3c9b:	8d 65 f4             	lea    -0xc(%ebp),%esp
    3c9e:	5b                   	pop    %ebx
    3c9f:	5e                   	pop    %esi
    3ca0:	5f                   	pop    %edi
    3ca1:	5d                   	pop    %ebp
    3ca2:	e9 79 74 01 00       	jmp    1b120 <async_answer_0@plt>
    3ca7:	90                   	nop
    3ca8:	89 03                	mov    %eax,(%ebx)
    3caa:	50                   	push   %eax
    3cab:	68 dc 62 01 00       	push   $0x162dc
    3cb0:	6a 04                	push   $0x4
    3cb2:	6a ff                	push   $0xffffffff
    3cb4:	e8 87 74 01 00       	call   1b140 <log_msg@plt>
    3cb9:	89 75 08             	mov    %esi,0x8(%ebp)
    3cbc:	c7 45 0c 00 00 00 00 	movl   $0x0,0xc(%ebp)
    3cc3:	83 c4 10             	add    $0x10,%esp
    3cc6:	8d 65 f4             	lea    -0xc(%ebp),%esp
    3cc9:	5b                   	pop    %ebx
    3cca:	5e                   	pop    %esi
    3ccb:	5f                   	pop    %edi
    3ccc:	5d                   	pop    %ebp
    3ccd:	e9 4e 74 01 00       	jmp    1b120 <async_answer_0@plt>
    3cd2:	8d b6 00 00 00 00    	lea    0x0(%esi),%esi
    3cd8:	c7 45 0c f2 ff ff ff 	movl   $0xfffffff2,0xc(%ebp)
    3cdf:	eb b7                	jmp    3c98 <default_connection_handler+0x48>
    3ce1:	eb 0d                	jmp    3cf0 <usb_multimedia_init>
    3ce3:	90                   	nop
    3ce4:	90                   	nop
    3ce5:	90                   	nop
    3ce6:	90                   	nop
    3ce7:	90                   	nop
    3ce8:	90                   	nop
    3ce9:	90                   	nop
    3cea:	90                   	nop
    3ceb:	90                   	nop
    3cec:	90                   	nop
    3ced:	90                   	nop
    3cee:	90                   	nop
    3cef:	90                   	nop

00003cf0 <usb_multimedia_init>:
    3cf0:	55                   	push   %ebp
    3cf1:	89 e5                	mov    %esp,%ebp
    3cf3:	56                   	push   %esi
    3cf4:	53                   	push   %ebx
    3cf5:	8b 5d 08             	mov    0x8(%ebp),%ebx
    3cf8:	85 db                	test   %ebx,%ebx
    3cfa:	0f 84 60 01 00 00    	je     3e60 <usb_multimedia_init+0x170>
    3d00:	8b 03                	mov    (%ebx),%eax
    3d02:	85 c0                	test   %eax,%eax
    3d04:	0f 84 56 01 00 00    	je     3e60 <usb_multimedia_init+0x170>
    3d0a:	50                   	push   %eax
    3d0b:	68 0c 63 01 00       	push   $0x1630c
    3d10:	6a 04                	push   $0x4
    3d12:	6a ff                	push   $0xffffffff
    3d14:	e8 27 74 01 00       	call   1b140 <log_msg@plt>
    3d19:	83 c4 0c             	add    $0xc,%esp
    3d1c:	8b 03                	mov    (%ebx),%eax
    3d1e:	68 8c 64 01 00       	push   $0x1648c
    3d23:	6a 02                	push   $0x2
    3d25:	50                   	push   %eax
    3d26:	e8 95 50 00 00       	call   8dc0 <usb_device_ddf_fun_create>
    3d2b:	83 c4 10             	add    $0x10,%esp
    3d2e:	89 c3                	mov    %eax,%ebx
    3d30:	85 c0                	test   %eax,%eax
    3d32:	0f 84 48 01 00 00    	je     3e80 <usb_multimedia_init+0x190>
    3d38:	52                   	push   %edx
    3d39:	52                   	push   %edx
    3d3a:	68 c0 d9 01 00       	push   $0x1d9c0
    3d3f:	50                   	push   %eax
    3d40:	e8 4b 8b 00 00       	call   c890 <ddf_fun_set_ops>
    3d45:	59                   	pop    %ecx
    3d46:	5e                   	pop    %esi
    3d47:	6a 04                	push   $0x4
    3d49:	53                   	push   %ebx
    3d4a:	e8 a1 86 00 00       	call   c3f0 <ddf_fun_data_alloc>
    3d4f:	83 c4 10             	add    $0x10,%esp
    3d52:	85 c0                	test   %eax,%eax
    3d54:	0f 84 10 01 00 00    	je     3e6a <usb_multimedia_init+0x17a>
    3d5a:	83 ec 0c             	sub    $0xc,%esp
    3d5d:	c7 00 00 00 00 00    	movl   $0x0,(%eax)
    3d63:	53                   	push   %ebx
    3d64:	e8 37 88 00 00       	call   c5a0 <ddf_fun_bind>
    3d69:	83 c4 10             	add    $0x10,%esp
    3d6c:	89 c6                	mov    %eax,%esi
    3d6e:	85 c0                	test   %eax,%eax
    3d70:	0f 85 a2 00 00 00    	jne    3e18 <usb_multimedia_init+0x128>
    3d76:	83 ec 0c             	sub    $0xc,%esp
    3d79:	53                   	push   %ebx
    3d7a:	e8 51 85 00 00       	call   c2d0 <ddf_fun_get_handle>
    3d7f:	50                   	push   %eax
    3d80:	68 48 63 01 00       	push   $0x16348
    3d85:	6a 04                	push   $0x4
    3d87:	6a ff                	push   $0xffffffff
    3d89:	e8 b2 73 01 00       	call   1b140 <log_msg@plt>
    3d8e:	83 c4 18             	add    $0x18,%esp
    3d91:	68 01 58 01 00       	push   $0x15801
    3d96:	53                   	push   %ebx
    3d97:	e8 54 8b 00 00       	call   c8f0 <ddf_fun_add_to_category>
    3d9c:	83 c4 10             	add    $0x10,%esp
    3d9f:	89 c6                	mov    %eax,%esi
    3da1:	85 c0                	test   %eax,%eax
    3da3:	75 23                	jne    3dc8 <usb_multimedia_init+0xd8>
    3da5:	8b 45 0c             	mov    0xc(%ebp),%eax
    3da8:	89 18                	mov    %ebx,(%eax)
    3daa:	50                   	push   %eax
    3dab:	68 d8 63 01 00       	push   $0x163d8
    3db0:	6a 04                	push   $0x4
    3db2:	6a ff                	push   $0xffffffff
    3db4:	e8 87 73 01 00       	call   1b140 <log_msg@plt>
    3db9:	83 c4 10             	add    $0x10,%esp
    3dbc:	8d 65 f8             	lea    -0x8(%ebp),%esp
    3dbf:	89 f0                	mov    %esi,%eax
    3dc1:	5b                   	pop    %ebx
    3dc2:	5e                   	pop    %esi
    3dc3:	5d                   	pop    %ebp
    3dc4:	c3                   	ret    
    3dc5:	8d 76 00             	lea    0x0(%esi),%esi
    3dc8:	83 ec 0c             	sub    $0xc,%esp
    3dcb:	50                   	push   %eax
    3dcc:	e8 ef 75 01 00       	call   1b3c0 <str_error@plt>
    3dd1:	50                   	push   %eax
    3dd2:	68 78 63 01 00       	push   $0x16378
    3dd7:	6a 01                	push   $0x1
    3dd9:	6a ff                	push   $0xffffffff
    3ddb:	e8 60 73 01 00       	call   1b140 <log_msg@plt>
    3de0:	83 c4 14             	add    $0x14,%esp
    3de3:	53                   	push   %ebx
    3de4:	e8 e7 88 00 00       	call   c6d0 <ddf_fun_unbind>
    3de9:	83 c4 10             	add    $0x10,%esp
    3dec:	85 c0                	test   %eax,%eax
    3dee:	74 58                	je     3e48 <usb_multimedia_init+0x158>
    3df0:	83 ec 0c             	sub    $0xc,%esp
    3df3:	53                   	push   %ebx
    3df4:	e8 67 86 00 00       	call   c460 <ddf_fun_get_name>
    3df9:	50                   	push   %eax
    3dfa:	68 b0 63 01 00       	push   $0x163b0
    3dff:	6a 01                	push   $0x1
    3e01:	6a ff                	push   $0xffffffff
    3e03:	e8 38 73 01 00       	call   1b140 <log_msg@plt>
    3e08:	83 c4 20             	add    $0x20,%esp
    3e0b:	8d 65 f8             	lea    -0x8(%ebp),%esp
    3e0e:	89 f0                	mov    %esi,%eax
    3e10:	5b                   	pop    %ebx
    3e11:	5e                   	pop    %esi
    3e12:	5d                   	pop    %ebp
    3e13:	c3                   	ret    
    3e14:	8d 74 26 00          	lea    0x0(%esi,%eiz,1),%esi
    3e18:	83 ec 0c             	sub    $0xc,%esp
    3e1b:	50                   	push   %eax
    3e1c:	e8 9f 75 01 00       	call   1b3c0 <str_error@plt>
    3e21:	50                   	push   %eax
    3e22:	68 68 56 01 00       	push   $0x15668
    3e27:	6a 01                	push   $0x1
    3e29:	6a ff                	push   $0xffffffff
    3e2b:	e8 10 73 01 00       	call   1b140 <log_msg@plt>
    3e30:	83 c4 14             	add    $0x14,%esp
    3e33:	53                   	push   %ebx
    3e34:	e8 37 86 00 00       	call   c470 <ddf_fun_destroy>
    3e39:	83 c4 10             	add    $0x10,%esp
    3e3c:	8d 65 f8             	lea    -0x8(%ebp),%esp
    3e3f:	89 f0                	mov    %esi,%eax
    3e41:	5b                   	pop    %ebx
    3e42:	5e                   	pop    %esi
    3e43:	5d                   	pop    %ebp
    3e44:	c3                   	ret    
    3e45:	8d 76 00             	lea    0x0(%esi),%esi
    3e48:	83 ec 0c             	sub    $0xc,%esp
    3e4b:	53                   	push   %ebx
    3e4c:	e8 1f 86 00 00       	call   c470 <ddf_fun_destroy>
    3e51:	83 c4 10             	add    $0x10,%esp
    3e54:	8d 65 f8             	lea    -0x8(%ebp),%esp
    3e57:	89 f0                	mov    %esi,%eax
    3e59:	5b                   	pop    %ebx
    3e5a:	5e                   	pop    %esi
    3e5b:	5d                   	pop    %ebp
    3e5c:	c3                   	ret    
    3e5d:	8d 76 00             	lea    0x0(%esi),%esi
    3e60:	be f2 ff ff ff       	mov    $0xfffffff2,%esi
    3e65:	e9 52 ff ff ff       	jmp    3dbc <usb_multimedia_init+0xcc>
    3e6a:	83 ec 0c             	sub    $0xc,%esp
    3e6d:	be fe ff ff ff       	mov    $0xfffffffe,%esi
    3e72:	53                   	push   %ebx
    3e73:	e8 f8 85 00 00       	call   c470 <ddf_fun_destroy>
    3e78:	83 c4 10             	add    $0x10,%esp
    3e7b:	e9 3c ff ff ff       	jmp    3dbc <usb_multimedia_init+0xcc>
    3e80:	50                   	push   %eax
    3e81:	68 40 56 01 00       	push   $0x15640
    3e86:	6a 01                	push   $0x1
    3e88:	6a ff                	push   $0xffffffff
    3e8a:	be fe ff ff ff       	mov    $0xfffffffe,%esi
    3e8f:	e8 ac 72 01 00       	call   1b140 <log_msg@plt>
    3e94:	83 c4 10             	add    $0x10,%esp
    3e97:	e9 20 ff ff ff       	jmp    3dbc <usb_multimedia_init+0xcc>
    3e9c:	8d 74 26 00          	lea    0x0(%esi,%eiz,1),%esi

00003ea0 <usb_multimedia_deinit>:
    3ea0:	55                   	push   %ebp
    3ea1:	89 e5                	mov    %esp,%ebp
    3ea3:	53                   	push   %ebx
    3ea4:	83 ec 10             	sub    $0x10,%esp
    3ea7:	8b 5d 0c             	mov    0xc(%ebp),%ebx
    3eaa:	53                   	push   %ebx
    3eab:	e8 a0 85 00 00       	call   c450 <ddf_fun_data_get>
    3eb0:	83 c4 10             	add    $0x10,%esp
    3eb3:	8b 00                	mov    (%eax),%eax
    3eb5:	85 c0                	test   %eax,%eax
    3eb7:	74 0c                	je     3ec5 <usb_multimedia_deinit+0x25>
    3eb9:	83 ec 0c             	sub    $0xc,%esp
    3ebc:	50                   	push   %eax
    3ebd:	e8 3e 71 01 00       	call   1b000 <async_hangup@plt>
    3ec2:	83 c4 10             	add    $0x10,%esp
    3ec5:	83 ec 0c             	sub    $0xc,%esp
    3ec8:	53                   	push   %ebx
    3ec9:	e8 02 88 00 00       	call   c6d0 <ddf_fun_unbind>
    3ece:	83 c4 10             	add    $0x10,%esp
    3ed1:	85 c0                	test   %eax,%eax
    3ed3:	75 2b                	jne    3f00 <usb_multimedia_deinit+0x60>
    3ed5:	83 ec 0c             	sub    $0xc,%esp
    3ed8:	53                   	push   %ebx
    3ed9:	e8 82 85 00 00       	call   c460 <ddf_fun_get_name>
    3ede:	50                   	push   %eax
    3edf:	68 d3 56 01 00       	push   $0x156d3
    3ee4:	6a 05                	push   $0x5
    3ee6:	6a ff                	push   $0xffffffff
    3ee8:	e8 53 72 01 00       	call   1b140 <log_msg@plt>
    3eed:	89 5d 08             	mov    %ebx,0x8(%ebp)
    3ef0:	83 c4 20             	add    $0x20,%esp
    3ef3:	8b 5d fc             	mov    -0x4(%ebp),%ebx
    3ef6:	c9                   	leave  
    3ef7:	e9 74 85 00 00       	jmp    c470 <ddf_fun_destroy>
    3efc:	8d 74 26 00          	lea    0x0(%esi,%eiz,1),%esi
    3f00:	83 ec 0c             	sub    $0xc,%esp
    3f03:	53                   	push   %ebx
    3f04:	e8 57 85 00 00       	call   c460 <ddf_fun_get_name>
    3f09:	50                   	push   %eax
    3f0a:	68 b0 63 01 00       	push   $0x163b0
    3f0f:	6a 01                	push   $0x1
    3f11:	6a ff                	push   $0xffffffff
    3f13:	e8 28 72 01 00       	call   1b140 <log_msg@plt>
    3f18:	83 c4 20             	add    $0x20,%esp
    3f1b:	8b 5d fc             	mov    -0x4(%ebp),%ebx
    3f1e:	c9                   	leave  
    3f1f:	c3                   	ret    

00003f20 <usb_multimedia_polling_callback>:
    3f20:	55                   	push   %ebp
    3f21:	89 e5                	mov    %esp,%ebp
    3f23:	57                   	push   %edi
    3f24:	56                   	push   %esi
    3f25:	53                   	push   %ebx
    3f26:	83 ec 1c             	sub    $0x1c,%esp
    3f29:	8b 75 08             	mov    0x8(%ebp),%esi
    3f2c:	85 f6                	test   %esi,%esi
    3f2e:	0f 84 54 01 00 00    	je     4088 <usb_multimedia_polling_callback+0x168>
    3f34:	83 ec 0c             	sub    $0xc,%esp
    3f37:	8b 55 0c             	mov    0xc(%ebp),%edx
    3f3a:	52                   	push   %edx
    3f3b:	e8 10 85 00 00       	call   c450 <ddf_fun_data_get>
    3f40:	89 45 e0             	mov    %eax,-0x20(%ebp)
    3f43:	e8 78 33 00 00       	call   72c0 <usb_hid_report_path>
    3f48:	83 c4 10             	add    $0x10,%esp
    3f4b:	89 c3                	mov    %eax,%ebx
    3f4d:	85 c0                	test   %eax,%eax
    3f4f:	0f 84 43 01 00 00    	je     4098 <usb_multimedia_polling_callback+0x178>
    3f55:	50                   	push   %eax
    3f56:	6a 00                	push   $0x0
    3f58:	6a 0c                	push   $0xc
    3f5a:	53                   	push   %ebx
    3f5b:	e8 20 2e 00 00       	call   6d80 <usb_hid_report_path_append_item>
    3f60:	83 c4 10             	add    $0x10,%esp
    3f63:	85 c0                	test   %eax,%eax
    3f65:	0f 85 05 01 00 00    	jne    4070 <usb_multimedia_polling_callback+0x150>
    3f6b:	50                   	push   %eax
    3f6c:	50                   	push   %eax
    3f6d:	31 c0                	xor    %eax,%eax
    3f6f:	83 c6 18             	add    $0x18,%esi
    3f72:	8a 46 20             	mov    0x20(%esi),%al
    3f75:	50                   	push   %eax
    3f76:	53                   	push   %ebx
    3f77:	e8 24 35 00 00       	call   74a0 <usb_hid_report_path_set_report_id>
    3f7c:	c7 04 24 01 00 00 00 	movl   $0x1,(%esp)
    3f83:	6a 03                	push   $0x3
    3f85:	53                   	push   %ebx
    3f86:	6a 00                	push   $0x0
    3f88:	eb 0f                	jmp    3f99 <usb_multimedia_polling_callback+0x79>
    3f8a:	8d b6 00 00 00 00    	lea    0x0(%esi),%esi
    3f90:	83 ec 0c             	sub    $0xc,%esp
    3f93:	6a 01                	push   $0x1
    3f95:	6a 03                	push   $0x3
    3f97:	53                   	push   %ebx
    3f98:	57                   	push   %edi
    3f99:	56                   	push   %esi
    3f9a:	e8 01 2c 00 00       	call   6ba0 <usb_hid_report_get_sibling>
    3f9f:	83 c4 20             	add    $0x20,%esp
    3fa2:	89 c7                	mov    %eax,%edi
    3fa4:	85 c0                	test   %eax,%eax
    3fa6:	0f 84 c4 00 00 00    	je     4070 <usb_multimedia_polling_callback+0x150>
    3fac:	8b 40 3c             	mov    0x3c(%eax),%eax
    3faf:	85 c0                	test   %eax,%eax
    3fb1:	74 dd                	je     3f90 <usb_multimedia_polling_callback+0x70>
    3fb3:	83 ec 0c             	sub    $0xc,%esp
    3fb6:	31 c9                	xor    %ecx,%ecx
    3fb8:	66 8b 4f 0a          	mov    0xa(%edi),%cx
    3fbc:	51                   	push   %ecx
    3fbd:	50                   	push   %eax
    3fbe:	68 10 64 01 00       	push   $0x16410
    3fc3:	6a 04                	push   $0x4
    3fc5:	6a ff                	push   $0xffffffff
    3fc7:	e8 74 71 01 00       	call   1b140 <log_msg@plt>
    3fcc:	83 c4 14             	add    $0x14,%esp
    3fcf:	31 c0                	xor    %eax,%eax
    3fd1:	66 8b 47 0a          	mov    0xa(%edi),%ax
    3fd5:	50                   	push   %eax
    3fd6:	e8 15 01 00 00       	call   40f0 <usb_multimedia_map_usage>
    3fdb:	89 45 e4             	mov    %eax,-0x1c(%ebp)
    3fde:	31 c0                	xor    %eax,%eax
    3fe0:	66 8b 47 0a          	mov    0xa(%edi),%ax
    3fe4:	89 04 24             	mov    %eax,(%esp)
    3fe7:	e8 74 38 00 00       	call   7860 <usbhid_multimedia_usage_to_str>
    3fec:	50                   	push   %eax
    3fed:	68 9c 64 01 00       	push   $0x1649c
    3ff2:	6a 03                	push   $0x3
    3ff4:	6a ff                	push   $0xffffffff
    3ff6:	e8 45 71 01 00       	call   1b140 <log_msg@plt>
    3ffb:	8b 45 e0             	mov    -0x20(%ebp),%eax
    3ffe:	83 c4 20             	add    $0x20,%esp
    4001:	85 c0                	test   %eax,%eax
    4003:	0f 84 ce 00 00 00    	je     40d7 <usb_multimedia_polling_callback+0x1b7>
    4009:	8b 45 e4             	mov    -0x1c(%ebp),%eax
    400c:	50                   	push   %eax
    400d:	68 3c 64 01 00       	push   $0x1643c
    4012:	6a 05                	push   $0x5
    4014:	6a ff                	push   $0xffffffff
    4016:	e8 25 71 01 00       	call   1b140 <log_msg@plt>
    401b:	8b 45 e0             	mov    -0x20(%ebp),%eax
    401e:	8b 00                	mov    (%eax),%eax
    4020:	83 c4 10             	add    $0x10,%esp
    4023:	85 c0                	test   %eax,%eax
    4025:	0f 84 95 00 00 00    	je     40c0 <usb_multimedia_polling_callback+0x1a0>
    402b:	83 ec 0c             	sub    $0xc,%esp
    402e:	50                   	push   %eax
    402f:	e8 7c 73 01 00       	call   1b3b0 <async_exchange_begin@plt>
    4034:	83 c4 10             	add    $0x10,%esp
    4037:	85 c0                	test   %eax,%eax
    4039:	74 6d                	je     40a8 <usb_multimedia_polling_callback+0x188>
    403b:	8b 4d e4             	mov    -0x1c(%ebp),%ecx
    403e:	52                   	push   %edx
    403f:	52                   	push   %edx
    4040:	6a 00                	push   $0x0
    4042:	6a 00                	push   $0x0
    4044:	51                   	push   %ecx
    4045:	6a 00                	push   $0x0
    4047:	68 00 04 00 00       	push   $0x400
    404c:	50                   	push   %eax
    404d:	89 45 e4             	mov    %eax,-0x1c(%ebp)
    4050:	e8 bb 6f 01 00       	call   1b010 <async_msg_4@plt>
    4055:	83 c4 14             	add    $0x14,%esp
    4058:	8b 45 e4             	mov    -0x1c(%ebp),%eax
    405b:	50                   	push   %eax
    405c:	e8 1f 71 01 00       	call   1b180 <async_exchange_end@plt>
    4061:	83 c4 10             	add    $0x10,%esp
    4064:	e9 27 ff ff ff       	jmp    3f90 <usb_multimedia_polling_callback+0x70>
    4069:	8d b4 26 00 00 00 00 	lea    0x0(%esi,%eiz,1),%esi
    4070:	83 ec 0c             	sub    $0xc,%esp
    4073:	53                   	push   %ebx
    4074:	e8 87 32 00 00       	call   7300 <usb_hid_report_path_free>
    4079:	83 c4 10             	add    $0x10,%esp
    407c:	8d 65 f4             	lea    -0xc(%ebp),%esp
    407f:	b0 01                	mov    $0x1,%al
    4081:	5b                   	pop    %ebx
    4082:	5e                   	pop    %esi
    4083:	5f                   	pop    %edi
    4084:	5d                   	pop    %ebp
    4085:	c3                   	ret    
    4086:	66 90                	xchg   %ax,%ax
    4088:	8d 65 f4             	lea    -0xc(%ebp),%esp
    408b:	31 c0                	xor    %eax,%eax
    408d:	5b                   	pop    %ebx
    408e:	5e                   	pop    %esi
    408f:	5f                   	pop    %edi
    4090:	5d                   	pop    %ebp
    4091:	c3                   	ret    
    4092:	8d b6 00 00 00 00    	lea    0x0(%esi),%esi
    4098:	8d 65 f4             	lea    -0xc(%ebp),%esp
    409b:	b0 01                	mov    $0x1,%al
    409d:	5b                   	pop    %ebx
    409e:	5e                   	pop    %esi
    409f:	5f                   	pop    %edi
    40a0:	5d                   	pop    %ebp
    40a1:	c3                   	ret    
    40a2:	8d b6 00 00 00 00    	lea    0x0(%esi),%esi
    40a8:	50                   	push   %eax
    40a9:	68 6c 64 01 00       	push   $0x1646c
    40ae:	6a 02                	push   $0x2
    40b0:	6a ff                	push   $0xffffffff
    40b2:	e8 89 70 01 00       	call   1b140 <log_msg@plt>
    40b7:	83 c4 10             	add    $0x10,%esp
    40ba:	e9 d1 fe ff ff       	jmp    3f90 <usb_multimedia_polling_callback+0x70>
    40bf:	90                   	nop
    40c0:	50                   	push   %eax
    40c1:	68 dc 58 01 00       	push   $0x158dc
    40c6:	6a 02                	push   $0x2
    40c8:	6a ff                	push   $0xffffffff
    40ca:	e8 71 70 01 00       	call   1b140 <log_msg@plt>
    40cf:	83 c4 10             	add    $0x10,%esp
    40d2:	e9 b9 fe ff ff       	jmp    3f90 <usb_multimedia_polling_callback+0x70>
    40d7:	50                   	push   %eax
    40d8:	68 82 00 00 00       	push   $0x82
    40dd:	68 ad 64 01 00       	push   $0x164ad
    40e2:	68 c5 64 01 00       	push   $0x164c5
    40e7:	e8 a4 70 01 00       	call   1b190 <assert_abort@plt>
    40ec:	66 90                	xchg   %ax,%ax
    40ee:	66 90                	xchg   %ax,%ax

000040f0 <usb_multimedia_map_usage>:
    40f0:	55                   	push   %ebp
    40f1:	83 c8 ff             	or     $0xffffffff,%eax
    40f4:	89 e5                	mov    %esp,%ebp
    40f6:	81 7d 08 9b 02 00 00 	cmpl   $0x29b,0x8(%ebp)
    40fd:	76 09                	jbe    4108 <usb_multimedia_map_usage+0x18>
    40ff:	5d                   	pop    %ebp
    4100:	c3                   	ret    
    4101:	8d b4 26 00 00 00 00 	lea    0x0(%esi,%eiz,1),%esi
    4108:	8b 45 08             	mov    0x8(%ebp),%eax
    410b:	5d                   	pop    %ebp
    410c:	8b 04 85 60 dc 01 00 	mov    0x1dc60(,%eax,4),%eax
    4113:	c3                   	ret    
    4114:	66 90                	xchg   %ax,%ax
    4116:	66 90                	xchg   %ax,%ax
    4118:	66 90                	xchg   %ax,%ax
    411a:	66 90                	xchg   %ax,%ax
    411c:	66 90                	xchg   %ax,%ax
    411e:	66 90                	xchg   %ax,%ax

00004120 <usb_blink1_color_set>:
    4120:	55                   	push   %ebp
    4121:	89 e5                	mov    %esp,%ebp
    4123:	56                   	push   %esi
    4124:	53                   	push   %ebx
    4125:	83 ec 1c             	sub    $0x1c,%esp
    4128:	8b 75 08             	mov    0x8(%ebp),%esi
    412b:	8b 5d 0c             	mov    0xc(%ebp),%ebx
    412e:	56                   	push   %esi
    412f:	e8 1c 83 00 00       	call   c450 <ddf_fun_data_get>
    4134:	83 c4 10             	add    $0x10,%esp
    4137:	85 c0                	test   %eax,%eax
    4139:	74 63                	je     419e <usb_blink1_color_set+0x7e>
    413b:	89 c6                	mov    %eax,%esi
    413d:	89 d8                	mov    %ebx,%eax
    413f:	c1 e8 10             	shr    $0x10,%eax
    4142:	88 5d f4             	mov    %bl,-0xc(%ebp)
    4145:	88 45 f2             	mov    %al,-0xe(%ebp)
    4148:	89 d8                	mov    %ebx,%eax
    414a:	c6 45 f5 00          	movb   $0x0,-0xb(%ebp)
    414e:	c6 45 f6 00          	movb   $0x0,-0xa(%ebp)
    4152:	c6 45 f7 00          	movb   $0x0,-0x9(%ebp)
    4156:	83 ec 0c             	sub    $0xc,%esp
    4159:	c1 e8 08             	shr    $0x8,%eax
    415c:	c6 45 f0 01          	movb   $0x1,-0x10(%ebp)
    4160:	88 45 f3             	mov    %al,-0xd(%ebp)
    4163:	8b 46 04             	mov    0x4(%esi),%eax
    4166:	c6 45 f1 6e          	movb   $0x6e,-0xf(%ebp)
    416a:	8b 00                	mov    (%eax),%eax
    416c:	50                   	push   %eax
    416d:	e8 0e 43 00 00       	call   8480 <usb_device_get_iface_number>
    4172:	89 c3                	mov    %eax,%ebx
    4174:	8b 46 04             	mov    0x4(%esi),%eax
    4177:	5a                   	pop    %edx
    4178:	8b 08                	mov    (%eax),%ecx
    417a:	51                   	push   %ecx
    417b:	e8 10 42 00 00       	call   8390 <usb_device_get_default_pipe>
    4180:	8d 55 f0             	lea    -0x10(%ebp),%edx
    4183:	c7 04 24 08 00 00 00 	movl   $0x8,(%esp)
    418a:	52                   	push   %edx
    418b:	6a 03                	push   $0x3
    418d:	53                   	push   %ebx
    418e:	50                   	push   %eax
    418f:	e8 ec 36 00 00       	call   7880 <usbhid_req_set_report>
    4194:	83 c4 20             	add    $0x20,%esp
    4197:	8d 65 f8             	lea    -0x8(%ebp),%esp
    419a:	5b                   	pop    %ebx
    419b:	5e                   	pop    %esi
    419c:	5d                   	pop    %ebp
    419d:	c3                   	ret    
    419e:	53                   	push   %ebx
    419f:	68 ac 5e 01 00       	push   $0x15eac
    41a4:	6a 04                	push   $0x4
    41a6:	6a ff                	push   $0xffffffff
    41a8:	e8 93 6f 01 00       	call   1b140 <log_msg@plt>
    41ad:	83 c4 10             	add    $0x10,%esp
    41b0:	b8 f2 ff ff ff       	mov    $0xfffffff2,%eax
    41b5:	eb e0                	jmp    4197 <usb_blink1_color_set+0x77>
    41b7:	89 f6                	mov    %esi,%esi
    41b9:	8d bc 27 00 00 00 00 	lea    0x0(%edi,%eiz,1),%edi

000041c0 <usb_blink1_init>:
    41c0:	55                   	push   %ebp
    41c1:	89 e5                	mov    %esp,%ebp
    41c3:	57                   	push   %edi
    41c4:	56                   	push   %esi
    41c5:	53                   	push   %ebx
    41c6:	83 ec 0c             	sub    $0xc,%esp
    41c9:	8b 55 08             	mov    0x8(%ebp),%edx
    41cc:	85 d2                	test   %edx,%edx
    41ce:	0f 84 35 01 00 00    	je     4309 <usb_blink1_init+0x149>
    41d4:	50                   	push   %eax
    41d5:	a1 70 da 01 00       	mov    0x1da70,%eax
    41da:	50                   	push   %eax
    41db:	8b 45 08             	mov    0x8(%ebp),%eax
    41de:	6a 02                	push   $0x2
    41e0:	8b 00                	mov    (%eax),%eax
    41e2:	50                   	push   %eax
    41e3:	e8 d8 4b 00 00       	call   8dc0 <usb_device_ddf_fun_create>
    41e8:	83 c4 10             	add    $0x10,%esp
    41eb:	89 c3                	mov    %eax,%ebx
    41ed:	85 c0                	test   %eax,%eax
    41ef:	0f 84 54 01 00 00    	je     4349 <usb_blink1_init+0x189>
    41f5:	50                   	push   %eax
    41f6:	50                   	push   %eax
    41f7:	6a 08                	push   $0x8
    41f9:	53                   	push   %ebx
    41fa:	e8 f1 81 00 00       	call   c3f0 <ddf_fun_data_alloc>
    41ff:	83 c4 10             	add    $0x10,%esp
    4202:	89 c7                	mov    %eax,%edi
    4204:	85 c0                	test   %eax,%eax
    4206:	0f 84 19 01 00 00    	je     4325 <usb_blink1_init+0x165>
    420c:	56                   	push   %esi
    420d:	56                   	push   %esi
    420e:	68 20 da 01 00       	push   $0x1da20
    4213:	53                   	push   %ebx
    4214:	e8 77 86 00 00       	call   c890 <ddf_fun_set_ops>
    4219:	89 1c 24             	mov    %ebx,(%esp)
    421c:	e8 7f 83 00 00       	call   c5a0 <ddf_fun_bind>
    4221:	83 c4 10             	add    $0x10,%esp
    4224:	89 c6                	mov    %eax,%esi
    4226:	85 c0                	test   %eax,%eax
    4228:	75 36                	jne    4260 <usb_blink1_init+0xa0>
    422a:	8b 0d 6c da 01 00    	mov    0x1da6c,%ecx
    4230:	52                   	push   %edx
    4231:	52                   	push   %edx
    4232:	51                   	push   %ecx
    4233:	53                   	push   %ebx
    4234:	e8 b7 86 00 00       	call   c8f0 <ddf_fun_add_to_category>
    4239:	83 c4 10             	add    $0x10,%esp
    423c:	89 c6                	mov    %eax,%esi
    423e:	85 c0                	test   %eax,%eax
    4240:	75 5e                	jne    42a0 <usb_blink1_init+0xe0>
    4242:	8b 45 08             	mov    0x8(%ebp),%eax
    4245:	89 1f                	mov    %ebx,(%edi)
    4247:	89 47 04             	mov    %eax,0x4(%edi)
    424a:	8b 45 0c             	mov    0xc(%ebp),%eax
    424d:	89 38                	mov    %edi,(%eax)
    424f:	8d 65 f4             	lea    -0xc(%ebp),%esp
    4252:	89 f0                	mov    %esi,%eax
    4254:	5b                   	pop    %ebx
    4255:	5e                   	pop    %esi
    4256:	5f                   	pop    %edi
    4257:	5d                   	pop    %ebp
    4258:	c3                   	ret    
    4259:	8d b4 26 00 00 00 00 	lea    0x0(%esi,%eiz,1),%esi
    4260:	83 ec 0c             	sub    $0xc,%esp
    4263:	50                   	push   %eax
    4264:	e8 57 71 01 00       	call   1b3c0 <str_error@plt>
    4269:	89 1c 24             	mov    %ebx,(%esp)
    426c:	89 c7                	mov    %eax,%edi
    426e:	e8 ed 81 00 00       	call   c460 <ddf_fun_get_name>
    4273:	89 3c 24             	mov    %edi,(%esp)
    4276:	50                   	push   %eax
    4277:	68 a8 60 01 00       	push   $0x160a8
    427c:	6a 01                	push   $0x1
    427e:	6a ff                	push   $0xffffffff
    4280:	e8 bb 6e 01 00       	call   1b140 <log_msg@plt>
    4285:	83 c4 14             	add    $0x14,%esp
    4288:	53                   	push   %ebx
    4289:	e8 e2 81 00 00       	call   c470 <ddf_fun_destroy>
    428e:	83 c4 10             	add    $0x10,%esp
    4291:	8d 65 f4             	lea    -0xc(%ebp),%esp
    4294:	89 f0                	mov    %esi,%eax
    4296:	5b                   	pop    %ebx
    4297:	5e                   	pop    %esi
    4298:	5f                   	pop    %edi
    4299:	5d                   	pop    %ebp
    429a:	c3                   	ret    
    429b:	90                   	nop
    429c:	8d 74 26 00          	lea    0x0(%esi,%eiz,1),%esi
    42a0:	83 ec 0c             	sub    $0xc,%esp
    42a3:	50                   	push   %eax
    42a4:	e8 17 71 01 00       	call   1b3c0 <str_error@plt>
    42a9:	89 04 24             	mov    %eax,(%esp)
    42ac:	a1 6c da 01 00       	mov    0x1da6c,%eax
    42b1:	50                   	push   %eax
    42b2:	68 68 5c 01 00       	push   $0x15c68
    42b7:	6a 01                	push   $0x1
    42b9:	6a ff                	push   $0xffffffff
    42bb:	e8 80 6e 01 00       	call   1b140 <log_msg@plt>
    42c0:	83 c4 14             	add    $0x14,%esp
    42c3:	53                   	push   %ebx
    42c4:	e8 07 84 00 00       	call   c6d0 <ddf_fun_unbind>
    42c9:	83 c4 10             	add    $0x10,%esp
    42cc:	89 c6                	mov    %eax,%esi
    42ce:	85 c0                	test   %eax,%eax
    42d0:	74 26                	je     42f8 <usb_blink1_init+0x138>
    42d2:	83 ec 0c             	sub    $0xc,%esp
    42d5:	53                   	push   %ebx
    42d6:	e8 85 81 00 00       	call   c460 <ddf_fun_get_name>
    42db:	50                   	push   %eax
    42dc:	68 fc 60 01 00       	push   $0x160fc
    42e1:	6a 01                	push   $0x1
    42e3:	6a ff                	push   $0xffffffff
    42e5:	e8 56 6e 01 00       	call   1b140 <log_msg@plt>
    42ea:	83 c4 20             	add    $0x20,%esp
    42ed:	e9 5d ff ff ff       	jmp    424f <usb_blink1_init+0x8f>
    42f2:	8d b6 00 00 00 00    	lea    0x0(%esi),%esi
    42f8:	83 ec 0c             	sub    $0xc,%esp
    42fb:	53                   	push   %ebx
    42fc:	e8 6f 81 00 00       	call   c470 <ddf_fun_destroy>
    4301:	83 c4 10             	add    $0x10,%esp
    4304:	e9 46 ff ff ff       	jmp    424f <usb_blink1_init+0x8f>
    4309:	50                   	push   %eax
    430a:	68 e4 64 01 00       	push   $0x164e4
    430f:	6a 01                	push   $0x1
    4311:	6a ff                	push   $0xffffffff
    4313:	be f2 ff ff ff       	mov    $0xfffffff2,%esi
    4318:	e8 23 6e 01 00       	call   1b140 <log_msg@plt>
    431d:	83 c4 10             	add    $0x10,%esp
    4320:	e9 2a ff ff ff       	jmp    424f <usb_blink1_init+0x8f>
    4325:	57                   	push   %edi
    4326:	68 1c 65 01 00       	push   $0x1651c
    432b:	6a 01                	push   $0x1
    432d:	6a ff                	push   $0xffffffff
    432f:	be fe ff ff ff       	mov    $0xfffffffe,%esi
    4334:	e8 07 6e 01 00       	call   1b140 <log_msg@plt>
    4339:	89 1c 24             	mov    %ebx,(%esp)
    433c:	e8 2f 81 00 00       	call   c470 <ddf_fun_destroy>
    4341:	83 c4 10             	add    $0x10,%esp
    4344:	e9 06 ff ff ff       	jmp    424f <usb_blink1_init+0x8f>
    4349:	a1 70 da 01 00       	mov    0x1da70,%eax
    434e:	be fe ff ff ff       	mov    $0xfffffffe,%esi
    4353:	50                   	push   %eax
    4354:	68 f4 5f 01 00       	push   $0x15ff4
    4359:	6a 01                	push   $0x1
    435b:	6a ff                	push   $0xffffffff
    435d:	e8 de 6d 01 00       	call   1b140 <log_msg@plt>
    4362:	83 c4 10             	add    $0x10,%esp
    4365:	e9 e5 fe ff ff       	jmp    424f <usb_blink1_init+0x8f>
    436a:	8d b6 00 00 00 00    	lea    0x0(%esi),%esi

00004370 <usb_blink1_deinit>:
    4370:	55                   	push   %ebp
    4371:	89 e5                	mov    %esp,%ebp
    4373:	53                   	push   %ebx
    4374:	51                   	push   %ecx
    4375:	8b 5d 0c             	mov    0xc(%ebp),%ebx
    4378:	85 db                	test   %ebx,%ebx
    437a:	74 41                	je     43bd <usb_blink1_deinit+0x4d>
    437c:	83 ec 0c             	sub    $0xc,%esp
    437f:	8b 13                	mov    (%ebx),%edx
    4381:	52                   	push   %edx
    4382:	e8 49 83 00 00       	call   c6d0 <ddf_fun_unbind>
    4387:	83 c4 10             	add    $0x10,%esp
    438a:	85 c0                	test   %eax,%eax
    438c:	75 12                	jne    43a0 <usb_blink1_deinit+0x30>
    438e:	8b 03                	mov    (%ebx),%eax
    4390:	8b 5d fc             	mov    -0x4(%ebp),%ebx
    4393:	89 45 08             	mov    %eax,0x8(%ebp)
    4396:	c9                   	leave  
    4397:	e9 d4 80 00 00       	jmp    c470 <ddf_fun_destroy>
    439c:	8d 74 26 00          	lea    0x0(%esi,%eiz,1),%esi
    43a0:	83 ec 0c             	sub    $0xc,%esp
    43a3:	8b 03                	mov    (%ebx),%eax
    43a5:	50                   	push   %eax
    43a6:	e8 b5 80 00 00       	call   c460 <ddf_fun_get_name>
    43ab:	50                   	push   %eax
    43ac:	68 fc 60 01 00       	push   $0x160fc
    43b1:	6a 01                	push   $0x1
    43b3:	6a ff                	push   $0xffffffff
    43b5:	e8 86 6d 01 00       	call   1b140 <log_msg@plt>
    43ba:	83 c4 20             	add    $0x20,%esp
    43bd:	8b 5d fc             	mov    -0x4(%ebp),%ebx
    43c0:	c9                   	leave  
    43c1:	c3                   	ret    
    43c2:	66 90                	xchg   %ax,%ax
    43c4:	66 90                	xchg   %ax,%ax
    43c6:	66 90                	xchg   %ax,%ax
    43c8:	66 90                	xchg   %ax,%ax
    43ca:	66 90                	xchg   %ax,%ax
    43cc:	66 90                	xchg   %ax,%ax
    43ce:	66 90                	xchg   %ax,%ax

000043d0 <usb_hid_report_path_try_insert>:
    43d0:	55                   	push   %ebp
    43d1:	89 e5                	mov    %esp,%ebp
    43d3:	57                   	push   %edi
    43d4:	56                   	push   %esi
    43d5:	53                   	push   %ebx
    43d6:	83 ec 1c             	sub    $0x1c,%esp
    43d9:	8b 45 08             	mov    0x8(%ebp),%eax
    43dc:	8b 5d 0c             	mov    0xc(%ebp),%ebx
    43df:	85 db                	test   %ebx,%ebx
    43e1:	8b 70 10             	mov    0x10(%eax),%esi
    43e4:	74 72                	je     4458 <usb_hid_report_path_try_insert+0x88>
    43e6:	83 c0 0c             	add    $0xc,%eax
    43e9:	89 45 e4             	mov    %eax,-0x1c(%ebp)
    43ec:	39 c6                	cmp    %eax,%esi
    43ee:	75 10                	jne    4400 <usb_hid_report_path_try_insert+0x30>
    43f0:	eb 2e                	jmp    4420 <usb_hid_report_path_try_insert+0x50>
    43f2:	8d b6 00 00 00 00    	lea    0x0(%esi),%esi
    43f8:	8b 76 04             	mov    0x4(%esi),%esi
    43fb:	3b 75 e4             	cmp    -0x1c(%ebp),%esi
    43fe:	74 20                	je     4420 <usb_hid_report_path_try_insert+0x50>
    4400:	8d 7e f8             	lea    -0x8(%esi),%edi
    4403:	51                   	push   %ecx
    4404:	6a 00                	push   $0x0
    4406:	53                   	push   %ebx
    4407:	57                   	push   %edi
    4408:	e8 43 2b 00 00       	call   6f50 <usb_hid_report_compare_usage_path>
    440d:	83 c4 10             	add    $0x10,%esp
    4410:	85 c0                	test   %eax,%eax
    4412:	75 e4                	jne    43f8 <usb_hid_report_path_try_insert+0x28>
    4414:	8d 65 f4             	lea    -0xc(%ebp),%esp
    4417:	89 f8                	mov    %edi,%eax
    4419:	5b                   	pop    %ebx
    441a:	5e                   	pop    %esi
    441b:	5f                   	pop    %edi
    441c:	5d                   	pop    %ebp
    441d:	c3                   	ret    
    441e:	66 90                	xchg   %ax,%ax
    4420:	83 ec 0c             	sub    $0xc,%esp
    4423:	53                   	push   %ebx
    4424:	e8 a7 2f 00 00       	call   73d0 <usb_hid_report_path_clone>
    4429:	83 c4 10             	add    $0x10,%esp
    442c:	89 c7                	mov    %eax,%edi
    442e:	85 c0                	test   %eax,%eax
    4430:	74 e2                	je     4414 <usb_hid_report_path_try_insert+0x44>
    4432:	8b 4d e4             	mov    -0x1c(%ebp),%ecx
    4435:	8d 47 08             	lea    0x8(%edi),%eax
    4438:	89 4f 0c             	mov    %ecx,0xc(%edi)
    443b:	8b 4d 08             	mov    0x8(%ebp),%ecx
    443e:	8b 51 0c             	mov    0xc(%ecx),%edx
    4441:	89 57 08             	mov    %edx,0x8(%edi)
    4444:	8b 51 0c             	mov    0xc(%ecx),%edx
    4447:	89 42 04             	mov    %eax,0x4(%edx)
    444a:	8b 51 14             	mov    0x14(%ecx),%edx
    444d:	42                   	inc    %edx
    444e:	89 41 0c             	mov    %eax,0xc(%ecx)
    4451:	89 51 14             	mov    %edx,0x14(%ecx)
    4454:	eb be                	jmp    4414 <usb_hid_report_path_try_insert+0x44>
    4456:	66 90                	xchg   %ax,%ax
    4458:	8d 65 f4             	lea    -0xc(%ebp),%esp
    445b:	31 ff                	xor    %edi,%edi
    445d:	89 f8                	mov    %edi,%eax
    445f:	5b                   	pop    %ebx
    4460:	5e                   	pop    %esi
    4461:	5f                   	pop    %edi
    4462:	5d                   	pop    %ebp
    4463:	c3                   	ret    
    4464:	8d b6 00 00 00 00    	lea    0x0(%esi),%esi
    446a:	8d bf 00 00 00 00    	lea    0x0(%edi),%edi

00004470 <usb_hid_report_init>:
    4470:	55                   	push   %ebp
    4471:	89 e5                	mov    %esp,%ebp
    4473:	53                   	push   %ebx
    4474:	52                   	push   %edx
    4475:	8b 5d 08             	mov    0x8(%ebp),%ebx
    4478:	85 db                	test   %ebx,%ebx
    447a:	74 34                	je     44b0 <usb_hid_report_init+0x40>
    447c:	50                   	push   %eax
    447d:	6a 20                	push   $0x20
    447f:	6a 00                	push   $0x0
    4481:	53                   	push   %ebx
    4482:	e8 59 6e 01 00       	call   1b2e0 <memset@plt>
    4487:	8d 43 04             	lea    0x4(%ebx),%eax
    448a:	89 43 04             	mov    %eax,0x4(%ebx)
    448d:	89 43 08             	mov    %eax,0x8(%ebx)
    4490:	8d 43 0c             	lea    0xc(%ebx),%eax
    4493:	c7 43 18 00 00 00 00 	movl   $0x0,0x18(%ebx)
    449a:	89 43 0c             	mov    %eax,0xc(%ebx)
    449d:	89 43 10             	mov    %eax,0x10(%ebx)
    44a0:	83 c4 10             	add    $0x10,%esp
    44a3:	31 c0                	xor    %eax,%eax
    44a5:	8b 5d fc             	mov    -0x4(%ebp),%ebx
    44a8:	c9                   	leave  
    44a9:	c3                   	ret    
    44aa:	8d b6 00 00 00 00    	lea    0x0(%esi),%esi
    44b0:	b8 f2 ff ff ff       	mov    $0xfffffff2,%eax
    44b5:	eb ee                	jmp    44a5 <usb_hid_report_init+0x35>
    44b7:	89 f6                	mov    %esi,%esi
    44b9:	8d bc 27 00 00 00 00 	lea    0x0(%edi,%eiz,1),%edi

000044c0 <usb_hid_report_append_fields>:
    44c0:	55                   	push   %ebp
    44c1:	89 e5                	mov    %esp,%ebp
    44c3:	57                   	push   %edi
    44c4:	56                   	push   %esi
    44c5:	53                   	push   %ebx
    44c6:	83 ec 3c             	sub    $0x3c,%esp
    44c9:	8b 45 08             	mov    0x8(%ebp),%eax
    44cc:	85 c0                	test   %eax,%eax
    44ce:	0f 84 6c 04 00 00    	je     4940 <usb_hid_report_append_fields+0x480>
    44d4:	8b 45 0c             	mov    0xc(%ebp),%eax
    44d7:	85 c0                	test   %eax,%eax
    44d9:	0f 84 61 04 00 00    	je     4940 <usb_hid_report_append_fields+0x480>
    44df:	8b 45 0c             	mov    0xc(%ebp),%eax
    44e2:	8b 80 04 00 04 00    	mov    0x40004(%eax),%eax
    44e8:	85 c0                	test   %eax,%eax
    44ea:	0f 8e 24 04 00 00    	jle    4914 <usb_hid_report_append_fields+0x454>
    44f0:	c1 e0 02             	shl    $0x2,%eax
    44f3:	83 ec 0c             	sub    $0xc,%esp
    44f6:	50                   	push   %eax
    44f7:	e8 d4 6b 01 00       	call   1b0d0 <malloc@plt>
    44fc:	89 c1                	mov    %eax,%ecx
    44fe:	89 45 c8             	mov    %eax,-0x38(%ebp)
    4501:	8b 45 0c             	mov    0xc(%ebp),%eax
    4504:	83 c4 0c             	add    $0xc,%esp
    4507:	8b 80 04 00 04 00    	mov    0x40004(%eax),%eax
    450d:	89 45 e4             	mov    %eax,-0x1c(%ebp)
    4510:	c1 e0 02             	shl    $0x2,%eax
    4513:	50                   	push   %eax
    4514:	8b 45 0c             	mov    0xc(%ebp),%eax
    4517:	83 c0 08             	add    $0x8,%eax
    451a:	50                   	push   %eax
    451b:	51                   	push   %ecx
    451c:	e8 9f 6b 01 00       	call   1b0c0 <memcpy@plt>
    4521:	8b 45 0c             	mov    0xc(%ebp),%eax
    4524:	8b 80 58 00 04 00    	mov    0x40058(%eax),%eax
    452a:	83 c4 10             	add    $0x10,%esp
    452d:	89 45 cc             	mov    %eax,-0x34(%ebp)
    4530:	8b 45 0c             	mov    0xc(%ebp),%eax
    4533:	8b 80 20 00 04 00    	mov    0x40020(%eax),%eax
    4539:	85 c0                	test   %eax,%eax
    453b:	0f 8e 1a 02 00 00    	jle    475b <usb_hid_report_append_fields+0x29b>
    4541:	8b 45 08             	mov    0x8(%ebp),%eax
    4544:	c7 45 c4 00 00 00 00 	movl   $0x0,-0x3c(%ebp)
    454b:	83 c0 0c             	add    $0xc,%eax
    454e:	c7 45 e0 00 00 00 00 	movl   $0x0,-0x20(%ebp)
    4555:	89 45 e4             	mov    %eax,-0x1c(%ebp)
    4558:	8b 45 08             	mov    0x8(%ebp),%eax
    455b:	83 c0 04             	add    $0x4,%eax
    455e:	89 45 dc             	mov    %eax,-0x24(%ebp)
    4561:	8d b4 26 00 00 00 00 	lea    0x0(%esi,%eiz,1),%esi
    4568:	83 ec 0c             	sub    $0xc,%esp
    456b:	6a 48                	push   $0x48
    456d:	e8 5e 6b 01 00       	call   1b0d0 <malloc@plt>
    4572:	83 c4 10             	add    $0x10,%esp
    4575:	89 c6                	mov    %eax,%esi
    4577:	85 c0                	test   %eax,%eax
    4579:	0f 84 77 03 00 00    	je     48f6 <usb_hid_report_append_fields+0x436>
    457f:	57                   	push   %edi
    4580:	6a 48                	push   $0x48
    4582:	6a 00                	push   $0x0
    4584:	50                   	push   %eax
    4585:	e8 56 6d 01 00       	call   1b2e0 <memset@plt>
    458a:	8d 46 40             	lea    0x40(%esi),%eax
    458d:	89 45 d0             	mov    %eax,-0x30(%ebp)
    4590:	8b 45 0c             	mov    0xc(%ebp),%eax
    4593:	83 c4 10             	add    $0x10,%esp
    4596:	c7 46 40 00 00 00 00 	movl   $0x0,0x40(%esi)
    459d:	8b 80 14 00 04 00    	mov    0x40014(%eax),%eax
    45a3:	c7 46 44 00 00 00 00 	movl   $0x0,0x44(%esi)
    45aa:	89 46 14             	mov    %eax,0x14(%esi)
    45ad:	8b 45 0c             	mov    0xc(%ebp),%eax
    45b0:	8b 80 18 00 04 00    	mov    0x40018(%eax),%eax
    45b6:	89 46 18             	mov    %eax,0x18(%esi)
    45b9:	8b 45 0c             	mov    0xc(%ebp),%eax
    45bc:	8b 80 48 00 04 00    	mov    0x40048(%eax),%eax
    45c2:	89 46 1c             	mov    %eax,0x1c(%esi)
    45c5:	8b 45 0c             	mov    0xc(%ebp),%eax
    45c8:	8b 80 4c 00 04 00    	mov    0x4004c(%eax),%eax
    45ce:	89 46 20             	mov    %eax,0x20(%esi)
    45d1:	8b 45 0c             	mov    0xc(%ebp),%eax
    45d4:	f6 80 50 00 04 00 02 	testb  $0x2,0x40050(%eax)
    45db:	0f 85 2f 02 00 00    	jne    4810 <usb_hid_report_append_fields+0x350>
    45e1:	8b 80 04 00 04 00    	mov    0x40004(%eax),%eax
    45e7:	c7 46 08 00 00 00 00 	movl   $0x0,0x8(%esi)
    45ee:	89 46 38             	mov    %eax,0x38(%esi)
    45f1:	8b 45 c8             	mov    -0x38(%ebp),%eax
    45f4:	89 46 34             	mov    %eax,0x34(%esi)
    45f7:	c7 45 c4 01 00 00 00 	movl   $0x1,-0x3c(%ebp)
