Archive member included to satisfy reference by file (symbol)

../../lib/pcut/libpcut.a(helenos.o)
                              test/parser.test.o (pcut_str_equals)
../../lib/pcut/libpcut.a(assert.o)
                              test/parser.test.o (pcut_failed_assertion_fmt)
../../lib/pcut/libpcut.a(main.o)
                              test/main.test.o (pcut_main)
../../lib/pcut/libpcut.a(print.o)
                              ../../lib/pcut/libpcut.a(main.o) (pcut_print_tests)
../../lib/pcut/libpcut.a(report.o)
                              ../../lib/pcut/libpcut.a(main.o) (pcut_report_register_handler)
../../lib/pcut/libpcut.a(tap.o)
                              ../../lib/pcut/libpcut.a(main.o) (pcut_report_tap)
../../lib/pcut/libpcut.a(xml.o)
                              ../../lib/pcut/libpcut.a(main.o) (pcut_report_xml)
../../lib/pcut/libpcut.a(run.o)
                              ../../lib/pcut/libpcut.a(assert.o) (pcut_failed_assertion)
../../lib/pcut/libpcut.a(list.o)
                              ../../lib/pcut/libpcut.a(main.o) (pcut_get_real_next)
liburi.a(uri.o)               test/parser.test.o (uri_parse)

Discarded input sections

 .debug_line    0x0000000000000000       0x53 /home/ayyuce/Desktop/HlnOS/HelenOS/uspace/lib/c/arch/ia32/src/entry.o
 .debug_info    0x0000000000000000       0x6c /home/ayyuce/Desktop/HlnOS/HelenOS/uspace/lib/c/arch/ia32/src/entry.o
 .debug_abbrev  0x0000000000000000       0x14 /home/ayyuce/Desktop/HlnOS/HelenOS/uspace/lib/c/arch/ia32/src/entry.o
 .debug_aranges
                0x0000000000000000       0x20 /home/ayyuce/Desktop/HlnOS/HelenOS/uspace/lib/c/arch/ia32/src/entry.o
 .debug_info    0x0000000000000000      0x32a test/main.test.o
 .debug_abbrev  0x0000000000000000      0x125 test/main.test.o
 .debug_aranges
                0x0000000000000000       0x20 test/main.test.o
 .debug_ranges  0x0000000000000000       0x10 test/main.test.o
 .debug_line    0x0000000000000000       0x90 test/main.test.o
 .debug_str     0x0000000000000000      0x3d5 test/main.test.o
 .comment       0x0000000000000000       0x12 test/main.test.o
 .note.GNU-stack
                0x0000000000000000        0x0 test/main.test.o
 .eh_frame      0x0000000000000000       0x44 test/main.test.o
 .debug_info    0x0000000000000000     0x1533 test/parser.test.o
 .debug_abbrev  0x0000000000000000      0x158 test/parser.test.o
 .debug_loc     0x0000000000000000     0x4010 test/parser.test.o
 .debug_aranges
                0x0000000000000000       0x20 test/parser.test.o
 .debug_ranges  0x0000000000000000      0x758 test/parser.test.o
 .debug_line    0x0000000000000000      0x6f6 test/parser.test.o
 .debug_str     0x0000000000000000      0x684 test/parser.test.o
 .comment       0x0000000000000000       0x12 test/parser.test.o
 .note.GNU-stack
                0x0000000000000000        0x0 test/parser.test.o
 .eh_frame      0x0000000000000000      0x184 test/parser.test.o
 .debug_info    0x0000000000000000      0xe00 ../../lib/pcut/libpcut.a(helenos.o)
 .debug_abbrev  0x0000000000000000      0x242 ../../lib/pcut/libpcut.a(helenos.o)
 .debug_loc     0x0000000000000000      0x1cd ../../lib/pcut/libpcut.a(helenos.o)
 .debug_aranges
                0x0000000000000000       0x20 ../../lib/pcut/libpcut.a(helenos.o)
 .debug_line    0x0000000000000000      0x32e ../../lib/pcut/libpcut.a(helenos.o)
 .debug_str     0x0000000000000000      0xce4 ../../lib/pcut/libpcut.a(helenos.o)
 .comment       0x0000000000000000       0x12 ../../lib/pcut/libpcut.a(helenos.o)
 .note.GNU-stack
                0x0000000000000000        0x0 ../../lib/pcut/libpcut.a(helenos.o)
 .eh_frame      0x0000000000000000      0x16c ../../lib/pcut/libpcut.a(helenos.o)
 .debug_info    0x0000000000000000      0x1e8 ../../lib/pcut/libpcut.a(assert.o)
 .debug_abbrev  0x0000000000000000       0xfe ../../lib/pcut/libpcut.a(assert.o)
 .debug_loc     0x0000000000000000       0x82 ../../lib/pcut/libpcut.a(assert.o)
 .debug_aranges
                0x0000000000000000       0x20 ../../lib/pcut/libpcut.a(assert.o)
 .debug_line    0x0000000000000000       0xc3 ../../lib/pcut/libpcut.a(assert.o)
 .debug_str     0x0000000000000000      0x27f ../../lib/pcut/libpcut.a(assert.o)
 .comment       0x0000000000000000       0x12 ../../lib/pcut/libpcut.a(assert.o)
 .note.GNU-stack
                0x0000000000000000        0x0 ../../lib/pcut/libpcut.a(assert.o)
 .eh_frame      0x0000000000000000       0x3c ../../lib/pcut/libpcut.a(assert.o)
 .debug_info    0x0000000000000000      0x9ed ../../lib/pcut/libpcut.a(main.o)
 .debug_abbrev  0x0000000000000000      0x283 ../../lib/pcut/libpcut.a(main.o)
 .debug_loc     0x0000000000000000      0x715 ../../lib/pcut/libpcut.a(main.o)
 .debug_aranges
                0x0000000000000000       0x20 ../../lib/pcut/libpcut.a(main.o)
 .debug_ranges  0x0000000000000000      0x130 ../../lib/pcut/libpcut.a(main.o)
 .debug_line    0x0000000000000000      0x20e ../../lib/pcut/libpcut.a(main.o)
 .debug_str     0x0000000000000000      0x66a ../../lib/pcut/libpcut.a(main.o)
 .comment       0x0000000000000000       0x12 ../../lib/pcut/libpcut.a(main.o)
 .note.GNU-stack
                0x0000000000000000        0x0 ../../lib/pcut/libpcut.a(main.o)
 .eh_frame      0x0000000000000000       0xa0 ../../lib/pcut/libpcut.a(main.o)
 .debug_info    0x0000000000000000      0x342 ../../lib/pcut/libpcut.a(print.o)
 .debug_abbrev  0x0000000000000000      0x12e ../../lib/pcut/libpcut.a(print.o)
 .debug_loc     0x0000000000000000       0x72 ../../lib/pcut/libpcut.a(print.o)
 .debug_aranges
                0x0000000000000000       0x20 ../../lib/pcut/libpcut.a(print.o)
 .debug_line    0x0000000000000000       0xcd ../../lib/pcut/libpcut.a(print.o)
 .debug_str     0x0000000000000000      0x35c ../../lib/pcut/libpcut.a(print.o)
 .comment       0x0000000000000000       0x12 ../../lib/pcut/libpcut.a(print.o)
 .note.GNU-stack
                0x0000000000000000        0x0 ../../lib/pcut/libpcut.a(print.o)
 .eh_frame      0x0000000000000000       0x68 ../../lib/pcut/libpcut.a(print.o)
 .debug_info    0x0000000000000000      0x6ac ../../lib/pcut/libpcut.a(report.o)
 .debug_abbrev  0x0000000000000000      0x1fa ../../lib/pcut/libpcut.a(report.o)
 .debug_loc     0x0000000000000000      0x270 ../../lib/pcut/libpcut.a(report.o)
 .debug_aranges
                0x0000000000000000       0x20 ../../lib/pcut/libpcut.a(report.o)
 .debug_ranges  0x0000000000000000       0x30 ../../lib/pcut/libpcut.a(report.o)
 .debug_line    0x0000000000000000      0x1ae ../../lib/pcut/libpcut.a(report.o)
 .debug_str     0x0000000000000000      0x548 ../../lib/pcut/libpcut.a(report.o)
 .comment       0x0000000000000000       0x12 ../../lib/pcut/libpcut.a(report.o)
 .note.GNU-stack
                0x0000000000000000        0x0 ../../lib/pcut/libpcut.a(report.o)
 .eh_frame      0x0000000000000000      0x198 ../../lib/pcut/libpcut.a(report.o)
 .debug_info    0x0000000000000000      0x62b ../../lib/pcut/libpcut.a(tap.o)
 .debug_abbrev  0x0000000000000000      0x1b4 ../../lib/pcut/libpcut.a(tap.o)
 .debug_loc     0x0000000000000000      0x36c ../../lib/pcut/libpcut.a(tap.o)
 .debug_aranges
                0x0000000000000000       0x20 ../../lib/pcut/libpcut.a(tap.o)
 .debug_ranges  0x0000000000000000       0x50 ../../lib/pcut/libpcut.a(tap.o)
 .debug_line    0x0000000000000000      0x112 ../../lib/pcut/libpcut.a(tap.o)
 .debug_str     0x0000000000000000      0x46e ../../lib/pcut/libpcut.a(tap.o)
 .comment       0x0000000000000000       0x12 ../../lib/pcut/libpcut.a(tap.o)
 .note.GNU-stack
                0x0000000000000000        0x0 ../../lib/pcut/libpcut.a(tap.o)
 .eh_frame      0x0000000000000000       0xf8 ../../lib/pcut/libpcut.a(tap.o)
 .debug_info    0x0000000000000000      0x668 ../../lib/pcut/libpcut.a(xml.o)
 .debug_abbrev  0x0000000000000000      0x195 ../../lib/pcut/libpcut.a(xml.o)
 .debug_loc     0x0000000000000000      0x39f ../../lib/pcut/libpcut.a(xml.o)
 .debug_aranges
                0x0000000000000000       0x20 ../../lib/pcut/libpcut.a(xml.o)
 .debug_ranges  0x0000000000000000       0x58 ../../lib/pcut/libpcut.a(xml.o)
 .debug_line    0x0000000000000000      0x10d ../../lib/pcut/libpcut.a(xml.o)
 .debug_str     0x0000000000000000      0x465 ../../lib/pcut/libpcut.a(xml.o)
 .comment       0x0000000000000000       0x12 ../../lib/pcut/libpcut.a(xml.o)
 .note.GNU-stack
                0x0000000000000000        0x0 ../../lib/pcut/libpcut.a(xml.o)
 .eh_frame      0x0000000000000000       0xec ../../lib/pcut/libpcut.a(xml.o)
 .debug_info    0x0000000000000000      0x658 ../../lib/pcut/libpcut.a(run.o)
 .debug_abbrev  0x0000000000000000      0x280 ../../lib/pcut/libpcut.a(run.o)
 .debug_loc     0x0000000000000000      0x11b ../../lib/pcut/libpcut.a(run.o)
 .debug_aranges
                0x0000000000000000       0x20 ../../lib/pcut/libpcut.a(run.o)
 .debug_ranges  0x0000000000000000       0x20 ../../lib/pcut/libpcut.a(run.o)
 .debug_line    0x0000000000000000      0x172 ../../lib/pcut/libpcut.a(run.o)
 .debug_str     0x0000000000000000      0x558 ../../lib/pcut/libpcut.a(run.o)
 .comment       0x0000000000000000       0x12 ../../lib/pcut/libpcut.a(run.o)
 .note.GNU-stack
                0x0000000000000000        0x0 ../../lib/pcut/libpcut.a(run.o)
 .eh_frame      0x0000000000000000       0xcc ../../lib/pcut/libpcut.a(run.o)
 .debug_info    0x0000000000000000      0x533 ../../lib/pcut/libpcut.a(list.o)
 .debug_abbrev  0x0000000000000000      0x1e9 ../../lib/pcut/libpcut.a(list.o)
 .debug_loc     0x0000000000000000      0x343 ../../lib/pcut/libpcut.a(list.o)
 .debug_aranges
                0x0000000000000000       0x20 ../../lib/pcut/libpcut.a(list.o)
 .debug_ranges  0x0000000000000000       0xc8 ../../lib/pcut/libpcut.a(list.o)
 .debug_line    0x0000000000000000      0x12e ../../lib/pcut/libpcut.a(list.o)
 .debug_str     0x0000000000000000      0x3a4 ../../lib/pcut/libpcut.a(list.o)
 .comment       0x0000000000000000       0x12 ../../lib/pcut/libpcut.a(list.o)
 .note.GNU-stack
                0x0000000000000000        0x0 ../../lib/pcut/libpcut.a(list.o)
 .eh_frame      0x0000000000000000       0xc8 ../../lib/pcut/libpcut.a(list.o)
 .debug_info    0x0000000000000000      0xcbd liburi.a(uri.o)
 .debug_abbrev  0x0000000000000000      0x212 liburi.a(uri.o)
 .debug_loc     0x0000000000000000      0xb3d liburi.a(uri.o)
 .debug_aranges
                0x0000000000000000       0x20 liburi.a(uri.o)
 .debug_ranges  0x0000000000000000      0x1f0 liburi.a(uri.o)
 .debug_line    0x0000000000000000      0x418 liburi.a(uri.o)
 .debug_str     0x0000000000000000      0x39c liburi.a(uri.o)
 .comment       0x0000000000000000       0x12 liburi.a(uri.o)
 .note.GNU-stack
                0x0000000000000000        0x0 liburi.a(uri.o)
 .eh_frame      0x0000000000000000      0x1f4 liburi.a(uri.o)

Memory Configuration

Name             Origin             Length             Attributes
*default*        0x0000000000000000 0xffffffffffffffff

Linker script and memory map

LOAD /home/ayyuce/Desktop/HlnOS/HelenOS/uspace/lib/c/arch/ia32/src/entry.o
                0x00000000000010f4                . = (0x1000 + SIZEOF_HEADERS)

.init           0x00000000000010f4       0x2e
 *(.init)
 .init          0x00000000000010f4       0x2e /home/ayyuce/Desktop/HlnOS/HelenOS/uspace/lib/c/arch/ia32/src/entry.o
                0x00000000000010f4                __entry

.text           0x0000000000001130     0x46d4
 *(.text .text.*)
 .text          0x0000000000001130        0x0 /home/ayyuce/Desktop/HlnOS/HelenOS/uspace/lib/c/arch/ia32/src/entry.o
 .text          0x0000000000001130        0x0 test/main.test.o
 .text.startup  0x0000000000001130       0x2a test/main.test.o
                0x0000000000001130                main
 *fill*         0x000000000000115a        0x6 
 .text          0x0000000000001160     0x1ee4 test/parser.test.o
 *fill*         0x0000000000003044        0xc 
 .text          0x0000000000003050      0x3d5 ../../lib/pcut/libpcut.a(helenos.o)
                0x00000000000030e0                pcut_str_equals
                0x0000000000003110                pcut_str_start_equals
                0x0000000000003140                pcut_str_size
                0x0000000000003150                pcut_str_to_int
                0x0000000000003170                pcut_str_find_char
                0x0000000000003180                pcut_str_error
                0x00000000000031c0                pcut_run_test_forking
                0x0000000000003420                pcut_hook_before_test
 *fill*         0x0000000000003425        0xb 
 .text          0x0000000000003430       0x85 ../../lib/pcut/libpcut.a(assert.o)
                0x0000000000003430                pcut_failed_assertion_fmt
 *fill*         0x00000000000034b5        0xb 
 .text          0x00000000000034c0      0x635 ../../lib/pcut/libpcut.a(main.o)
                0x00000000000034c0                pcut_is_arg_with_number
                0x0000000000003510                pcut_main
 *fill*         0x0000000000003af5        0xb 
 .text          0x0000000000003b00      0x132 ../../lib/pcut/libpcut.a(print.o)
                0x0000000000003b00                pcut_print_items
                0x0000000000003bb0                pcut_print_tests
 *fill*         0x0000000000003c32        0xe 
 .text          0x0000000000003c40      0x24a ../../lib/pcut/libpcut.a(report.o)
                0x0000000000003c40                pcut_print_fail_message
                0x0000000000003c90                pcut_report_register_handler
                0x0000000000003ca0                pcut_report_init
                0x0000000000003cc0                pcut_report_suite_start
                0x0000000000003ce0                pcut_report_suite_done
                0x0000000000003d00                pcut_report_test_start
                0x0000000000003d20                pcut_report_test_done
                0x0000000000003d50                pcut_report_test_done_unparsed
                0x0000000000003e70                pcut_report_done
 *fill*         0x0000000000003e8a        0x6 
 .text          0x0000000000003e90      0x260 ../../lib/pcut/libpcut.a(tap.o)
 .text          0x00000000000040f0      0x2dd ../../lib/pcut/libpcut.a(xml.o)
 *fill*         0x00000000000043cd        0x3 
 .text          0x00000000000043d0      0x2eb ../../lib/pcut/libpcut.a(run.o)
                0x0000000000004520                pcut_failed_assertion
                0x00000000000045f0                pcut_run_test_forked
                0x0000000000004640                pcut_run_test_single
                0x0000000000004690                pcut_get_test_timeout
 *fill*         0x00000000000046bb        0x5 
 .text          0x00000000000046c0      0x204 ../../lib/pcut/libpcut.a(list.o)
                0x00000000000046c0                pcut_get_real_next
                0x00000000000046f0                pcut_get_real
                0x0000000000004720                pcut_fix_list_get_real_head
                0x0000000000004890                pcut_count_tests
 *fill*         0x00000000000048c4        0xc 
 .text          0x00000000000048d0      0x857 liburi.a(uri.o)
                0x00000000000048d0                uri_parse
                0x0000000000004cd0                uri_scheme_parse
                0x0000000000004d40                uri_scheme_validate
                0x0000000000004da0                uri_percent_parse
                0x0000000000004e50                uri_user_info_parse
                0x0000000000004f20                uri_user_info_validate
                0x0000000000004f50                uri_port_parse
                0x0000000000004f90                uri_port_validate
                0x0000000000004fc0                uri_validate
                0x00000000000050c0                uri_destroy
 *(.rodata .rodata.*)
 .rodata.str1.1
                0x0000000000005127       0x23 test/main.test.o
 .rodata.str1.1
                0x000000000000514a      0x237 test/parser.test.o
                                        0x267 (size before relaxing)
 *fill*         0x0000000000005381        0x3 
 .rodata.str1.4
                0x0000000000005384       0xe4 test/parser.test.o
 .rodata.str1.1
                0x0000000000005468       0x26 ../../lib/pcut/libpcut.a(helenos.o)
 *fill*         0x000000000000548e        0x2 
 .rodata.str1.4
                0x0000000000005490       0x21 ../../lib/pcut/libpcut.a(helenos.o)
 .rodata.str1.1
                0x00000000000054b1        0x8 ../../lib/pcut/libpcut.a(assert.o)
 .rodata.str1.1
                0x00000000000054b9       0x85 ../../lib/pcut/libpcut.a(main.o)
 .rodata.str1.1
                0x000000000000553e       0x6d ../../lib/pcut/libpcut.a(print.o)
 *fill*         0x00000000000055ab        0x1 
 .rodata.str1.4
                0x00000000000055ac       0x2c ../../lib/pcut/libpcut.a(print.o)
 .rodata.str1.1
                0x00000000000055d8        0xc ../../lib/pcut/libpcut.a(report.o)
 .rodata.str1.4
                0x00000000000055e4       0x29 ../../lib/pcut/libpcut.a(tap.o)
 .rodata.str1.1
                0x000000000000560d       0x56 ../../lib/pcut/libpcut.a(tap.o)
                                         0x60 (size before relaxing)
 *fill*         0x0000000000005663        0x1 
 .rodata        0x0000000000005664       0x18 ../../lib/pcut/libpcut.a(tap.o)
 .rodata.str1.4
                0x000000000000567c       0x44 ../../lib/pcut/libpcut.a(xml.o)
 .rodata.str1.1
                0x00000000000056c0       0xb4 ../../lib/pcut/libpcut.a(xml.o)
                                         0xb8 (size before relaxing)
 .rodata        0x0000000000005774        0xc ../../lib/pcut/libpcut.a(xml.o)
 .rodata.str1.1
                0x0000000000005780        0x8 ../../lib/pcut/libpcut.a(run.o)
 .rodata.str1.1
                0x0000000000005780       0x10 liburi.a(uri.o)
 .rodata        0x0000000000005790       0x74 liburi.a(uri.o)

.rel.plt        0x0000000000005804      0x130
 *(.rel.plt)
 .rel.plt       0x0000000000005804      0x130 /home/ayyuce/Desktop/HlnOS/HelenOS/uspace/lib/c/arch/ia32/src/entry.o

.rel.dyn        0x0000000000005934       0x18
 *(.rel.*)
 .rel.got       0x0000000000005934        0x0 /home/ayyuce/Desktop/HlnOS/HelenOS/uspace/lib/c/arch/ia32/src/entry.o
 .rel.bss       0x0000000000005934       0x18 /home/ayyuce/Desktop/HlnOS/HelenOS/uspace/lib/c/arch/ia32/src/entry.o
 .rel.init      0x000000000000594c        0x0 /home/ayyuce/Desktop/HlnOS/HelenOS/uspace/lib/c/arch/ia32/src/entry.o
 .rel.text      0x000000000000594c        0x0 /home/ayyuce/Desktop/HlnOS/HelenOS/uspace/lib/c/arch/ia32/src/entry.o

.plt            0x0000000000005950      0x270
 *(.plt)
 .plt           0x0000000000005950      0x270 /home/ayyuce/Desktop/HlnOS/HelenOS/uspace/lib/c/arch/ia32/src/entry.o
                0x0000000000005960                longjmp
                0x0000000000005970                __main
                0x0000000000005980                printf
                0x0000000000005990                snprintf
                0x00000000000059a0                context_save
                0x00000000000059b0                task_wait
                0x00000000000059c0                str_ndup
                0x00000000000059d0                memcpy
                0x00000000000059e0                setvbuf
                0x00000000000059f0                malloc
                0x0000000000005a00                vsnprintf
                0x0000000000005a10                fibril_condvar_signal
                0x0000000000005a20                task_spawnvf
                0x0000000000005a30                strtol
                0x0000000000005a40                str_chr
                0x0000000000005a50                assert_abort
                0x0000000000005a60                fibril_condvar_wait_timeout
                0x0000000000005a70                str_uint8_t
                0x0000000000005a80                fibril_mutex_unlock
                0x0000000000005a90                read
                0x0000000000005aa0                task_kill
                0x0000000000005ab0                unlink
                0x0000000000005ac0                str_cmp
                0x0000000000005ad0                task_get_id
                0x0000000000005ae0                memset
                0x0000000000005af0                str_cpy
                0x0000000000005b00                str_size
                0x0000000000005b10                str_lcmp
                0x0000000000005b20                str_error
                0x0000000000005b30                exit
                0x0000000000005b40                fibril_create_generic
                0x0000000000005b50                fibril_add_ready
                0x0000000000005b60                fileno
                0x0000000000005b70                __syscall_fast
                0x0000000000005b80                open
                0x0000000000005b90                close
                0x0000000000005ba0                free
                0x0000000000005bb0                fibril_mutex_lock

.dynsym         0x0000000000005bc0      0x2c0
 *(.dynsym)
 .dynsym        0x0000000000005bc0      0x2c0 /home/ayyuce/Desktop/HlnOS/HelenOS/uspace/lib/c/arch/ia32/src/entry.o

.dynstr         0x0000000000005e80      0x1c7
 *(.dynstr)
 .dynstr        0x0000000000005e80      0x1c7 /home/ayyuce/Desktop/HlnOS/HelenOS/uspace/lib/c/arch/ia32/src/entry.o

.hash           0x0000000000006048      0x14c
 *(.hash)
 .hash          0x0000000000006048      0x14c /home/ayyuce/Desktop/HlnOS/HelenOS/uspace/lib/c/arch/ia32/src/entry.o

.interp         0x0000000000006194       0x13
 *(.interp)
 .interp        0x0000000000006194       0x13 /home/ayyuce/Desktop/HlnOS/HelenOS/uspace/lib/c/arch/ia32/src/entry.o
                0x00000000000071a7                . = (. + 0x1000)

.dynamic        0x00000000000071a8       0xa8
 *(.dynamic)
 .dynamic       0x00000000000071a8       0xa8 /home/ayyuce/Desktop/HlnOS/HelenOS/uspace/lib/c/arch/ia32/src/entry.o
                0x00000000000071a8                _DYNAMIC

.data           0x0000000000007260      0x404
 *(.data)
 .data          0x0000000000007260        0x0 /home/ayyuce/Desktop/HlnOS/HelenOS/uspace/lib/c/arch/ia32/src/entry.o
 .data          0x0000000000007260       0xec test/main.test.o
 *fill*         0x000000000000734c       0x14 
 .data          0x0000000000007360      0x2ac test/parser.test.o
                0x0000000000007360                pcut_exported_uri_parse
 .data          0x000000000000760c       0x18 ../../lib/pcut/libpcut.a(helenos.o)
 .data          0x0000000000007624        0x0 ../../lib/pcut/libpcut.a(assert.o)
 .data          0x0000000000007624       0x10 ../../lib/pcut/libpcut.a(main.o)
                0x0000000000007630                pcut_run_mode
 .data          0x0000000000007634        0x0 ../../lib/pcut/libpcut.a(print.o)
 .data          0x0000000000007634        0x0 ../../lib/pcut/libpcut.a(report.o)
 .data          0x0000000000007634       0x18 ../../lib/pcut/libpcut.a(tap.o)
                0x0000000000007634                pcut_report_tap
 .data          0x000000000000764c       0x18 ../../lib/pcut/libpcut.a(xml.o)
                0x000000000000764c                pcut_report_xml
 .data          0x0000000000007664        0x0 ../../lib/pcut/libpcut.a(run.o)
 .data          0x0000000000007664        0x0 ../../lib/pcut/libpcut.a(list.o)
 .data          0x0000000000007664        0x0 liburi.a(uri.o)

.data.rel
 *(.data.rel .data.rel.*)

.got            0x0000000000007664        0x0
 *(.got)
 .got           0x0000000000007664        0x0 /home/ayyuce/Desktop/HlnOS/HelenOS/uspace/lib/c/arch/ia32/src/entry.o

.got.plt        0x0000000000007664       0xa4
 *(.got.plt)
 .got.plt       0x0000000000007664       0xa4 /home/ayyuce/Desktop/HlnOS/HelenOS/uspace/lib/c/arch/ia32/src/entry.o
                0x0000000000007664                _GLOBAL_OFFSET_TABLE_

.tdata
 *(.tdata)
 *(.gnu.linkonce.tb.*)

.tbss
 *(.tbss)

.bss            0x0000000000007720     0x6380
 *(.dynbss)
 .dynbss        0x0000000000007720       0x1c /home/ayyuce/Desktop/HlnOS/HelenOS/uspace/lib/c/arch/ia32/src/entry.o
                0x0000000000007720                stdout
                0x0000000000007730                stdin
                0x0000000000007738                __syscall_fast_func
 *(COMMON)
 *(.bss)
 .bss           0x000000000000773c        0x0 /home/ayyuce/Desktop/HlnOS/HelenOS/uspace/lib/c/arch/ia32/src/entry.o
 .bss           0x000000000000773c        0x0 test/main.test.o
 *fill*         0x000000000000773c        0x4 
 .bss           0x0000000000007740       0x40 test/parser.test.o
 .bss           0x0000000000007780     0x4020 ../../lib/pcut/libpcut.a(helenos.o)
 .bss           0x000000000000b7a0      0x222 ../../lib/pcut/libpcut.a(assert.o)
 .bss           0x000000000000b9c2        0x0 ../../lib/pcut/libpcut.a(main.o)
 .bss           0x000000000000b9c2        0x0 ../../lib/pcut/libpcut.a(print.o)
 *fill*         0x000000000000b9c2       0x1e 
 .bss           0x000000000000b9e0     0x2004 ../../lib/pcut/libpcut.a(report.o)
 .bss           0x000000000000d9e4        0xc ../../lib/pcut/libpcut.a(tap.o)
 .bss           0x000000000000d9f0        0xc ../../lib/pcut/libpcut.a(xml.o)
 *fill*         0x000000000000d9fc        0x4 
 .bss           0x000000000000da00       0xa0 ../../lib/pcut/libpcut.a(run.o)
 .bss           0x000000000000daa0        0x0 ../../lib/pcut/libpcut.a(list.o)
 .bss           0x000000000000daa0        0x0 liburi.a(uri.o)

/DISCARD/
 *(*)
LOAD test/main.test.o
LOAD test/parser.test.o
LOAD ../../lib/pcut/libpcut.a
LOAD liburi.a
LOAD ../../lib/c/libc.so.0
LOAD ../../lib/softint/libsoftint.so.0
OUTPUT(test-liburi elf32-i386)
