Archive member included to satisfy reference by file (symbol)

../../../lib/block/libblock.a(block.o)
                              udf_ops.o (block_init)
../../../lib/fs/libfs.a(libfs.o)
                              udf.o (fs_register)

Discarded input sections

 .debug_line    0x0000000000000000       0x53 /home/ayyuce/Desktop/HlnOS/HelenOS/uspace/lib/c/arch/ia32/src/entry.o
 .debug_info    0x0000000000000000       0x6c /home/ayyuce/Desktop/HlnOS/HelenOS/uspace/lib/c/arch/ia32/src/entry.o
 .debug_abbrev  0x0000000000000000       0x14 /home/ayyuce/Desktop/HlnOS/HelenOS/uspace/lib/c/arch/ia32/src/entry.o
 .debug_aranges
                0x0000000000000000       0x20 /home/ayyuce/Desktop/HlnOS/HelenOS/uspace/lib/c/arch/ia32/src/entry.o
 .debug_info    0x0000000000000000      0xfd5 udf.o
 .debug_abbrev  0x0000000000000000      0x206 udf.o
 .debug_loc     0x0000000000000000       0xe0 udf.o
 .debug_aranges
                0x0000000000000000       0x20 udf.o
 .debug_ranges  0x0000000000000000       0x28 udf.o
 .debug_line    0x0000000000000000      0x2d5 udf.o
 .debug_str     0x0000000000000000      0xfaa udf.o
 .comment       0x0000000000000000       0x12 udf.o
 .note.GNU-stack
                0x0000000000000000        0x0 udf.o
 .eh_frame      0x0000000000000000       0x58 udf.o
 .debug_info    0x0000000000000000     0x290c udf_volume.o
 .debug_abbrev  0x0000000000000000      0x38e udf_volume.o
 .debug_loc     0x0000000000000000     0x125b udf_volume.o
 .debug_aranges
                0x0000000000000000       0x20 udf_volume.o
 .debug_ranges  0x0000000000000000      0x398 udf_volume.o
 .debug_line    0x0000000000000000      0x5eb udf_volume.o
 .debug_str     0x0000000000000000     0x1982 udf_volume.o
 .comment       0x0000000000000000       0x12 udf_volume.o
 .note.GNU-stack
                0x0000000000000000        0x0 udf_volume.o
 .eh_frame      0x0000000000000000       0xfc udf_volume.o
 .debug_info    0x0000000000000000     0x2328 udf_ops.o
 .debug_abbrev  0x0000000000000000      0x398 udf_ops.o
 .debug_loc     0x0000000000000000      0xacf udf_ops.o
 .debug_aranges
                0x0000000000000000       0x20 udf_ops.o
 .debug_ranges  0x0000000000000000      0x1c8 udf_ops.o
 .debug_line    0x0000000000000000      0x668 udf_ops.o
 .debug_str     0x0000000000000000     0x1208 udf_ops.o
 .comment       0x0000000000000000       0x12 udf_ops.o
 .note.GNU-stack
                0x0000000000000000        0x0 udf_ops.o
 .eh_frame      0x0000000000000000      0x48c udf_ops.o
 .debug_info    0x0000000000000000      0x607 udf_osta.o
 .debug_abbrev  0x0000000000000000      0x232 udf_osta.o
 .debug_loc     0x0000000000000000      0x8b6 udf_osta.o
 .debug_aranges
                0x0000000000000000       0x20 udf_osta.o
 .debug_ranges  0x0000000000000000      0x180 udf_osta.o
 .debug_line    0x0000000000000000      0x266 udf_osta.o
 .debug_str     0x0000000000000000      0x3a4 udf_osta.o
 .comment       0x0000000000000000       0x12 udf_osta.o
 .note.GNU-stack
                0x0000000000000000        0x0 udf_osta.o
 .eh_frame      0x0000000000000000       0x88 udf_osta.o
 .debug_info    0x0000000000000000      0x153 udf_cksum.o
 .debug_abbrev  0x0000000000000000       0xc2 udf_cksum.o
 .debug_loc     0x0000000000000000      0x1da udf_cksum.o
 .debug_aranges
                0x0000000000000000       0x20 udf_cksum.o
 .debug_line    0x0000000000000000       0x99 udf_cksum.o
 .debug_str     0x0000000000000000      0x1cf udf_cksum.o
 .comment       0x0000000000000000       0x12 udf_cksum.o
 .note.GNU-stack
                0x0000000000000000        0x0 udf_cksum.o
 .eh_frame      0x0000000000000000       0x68 udf_cksum.o
 .debug_info    0x0000000000000000     0x1efc udf_file.o
 .debug_abbrev  0x0000000000000000      0x3a1 udf_file.o
 .debug_loc     0x0000000000000000      0x91c udf_file.o
 .debug_aranges
                0x0000000000000000       0x20 udf_file.o
 .debug_ranges  0x0000000000000000      0x1e0 udf_file.o
 .debug_line    0x0000000000000000      0x591 udf_file.o
 .debug_str     0x0000000000000000     0x12cb udf_file.o
 .comment       0x0000000000000000       0x12 udf_file.o
 .note.GNU-stack
                0x0000000000000000        0x0 udf_file.o
 .eh_frame      0x0000000000000000      0x218 udf_file.o
 .debug_info    0x0000000000000000     0x13e6 udf_idx.o
 .debug_abbrev  0x0000000000000000      0x213 udf_idx.o
 .debug_loc     0x0000000000000000      0x106 udf_idx.o
 .debug_aranges
                0x0000000000000000       0x20 udf_idx.o
 .debug_ranges  0x0000000000000000       0x18 udf_idx.o
 .debug_line    0x0000000000000000      0x315 udf_idx.o
 .debug_str     0x0000000000000000      0xef4 udf_idx.o
 .comment       0x0000000000000000       0x12 udf_idx.o
 .note.GNU-stack
                0x0000000000000000        0x0 udf_idx.o
 .eh_frame      0x0000000000000000      0x148 udf_idx.o
 .debug_info    0x0000000000000000     0x2a1c ../../../lib/block/libblock.a(block.o)
 .debug_abbrev  0x0000000000000000      0x46d ../../../lib/block/libblock.a(block.o)
 .debug_loc     0x0000000000000000     0x1930 ../../../lib/block/libblock.a(block.o)
 .debug_aranges
                0x0000000000000000       0x28 ../../../lib/block/libblock.a(block.o)
 .debug_ranges  0x0000000000000000      0x5c8 ../../../lib/block/libblock.a(block.o)
 .debug_line    0x0000000000000000      0x8ef ../../../lib/block/libblock.a(block.o)
 .debug_str     0x0000000000000000     0x11f7 ../../../lib/block/libblock.a(block.o)
 .comment       0x0000000000000000       0x12 ../../../lib/block/libblock.a(block.o)
 .note.GNU-stack
                0x0000000000000000        0x0 ../../../lib/block/libblock.a(block.o)
 .eh_frame      0x0000000000000000      0x444 ../../../lib/block/libblock.a(block.o)
 .debug_info    0x0000000000000000     0x284f ../../../lib/fs/libfs.a(libfs.o)
 .debug_abbrev  0x0000000000000000      0x3d8 ../../../lib/fs/libfs.a(libfs.o)
 .debug_loc     0x0000000000000000     0x19c1 ../../../lib/fs/libfs.a(libfs.o)
 .debug_aranges
                0x0000000000000000       0x20 ../../../lib/fs/libfs.a(libfs.o)
 .debug_ranges  0x0000000000000000      0x3c8 ../../../lib/fs/libfs.a(libfs.o)
 .debug_line    0x0000000000000000      0x617 ../../../lib/fs/libfs.a(libfs.o)
 .debug_str     0x0000000000000000     0x1608 ../../../lib/fs/libfs.a(libfs.o)
 .comment       0x0000000000000000       0x12 ../../../lib/fs/libfs.a(libfs.o)
 .note.GNU-stack
                0x0000000000000000        0x0 ../../../lib/fs/libfs.a(libfs.o)
 .eh_frame      0x0000000000000000      0x150 ../../../lib/fs/libfs.a(libfs.o)

Memory Configuration

Name             Origin             Length             Attributes
*default*        0x0000000000000000 0xffffffffffffffff

Linker script and memory map

LOAD /home/ayyuce/Desktop/HlnOS/HelenOS/uspace/lib/c/arch/ia32/src/entry.o
                0x00000000000010f4                . = (0x1000 + SIZEOF_HEADERS)

.init           0x00000000000010f4       0x2e
 *(.init)
 .init          0x00000000000010f4       0x2e /home/ayyuce/Desktop/HlnOS/HelenOS/uspace/lib/c/arch/ia32/src/entry.o
                0x00000000000010f4                __entry

.text           0x0000000000001140     0x74d0
 *(.text .text.*)
 .text          0x0000000000001140        0x0 /home/ayyuce/Desktop/HlnOS/HelenOS/uspace/lib/c/arch/ia32/src/entry.o
 .text          0x0000000000001140        0x0 udf.o
 .text.startup  0x0000000000001140      0x167 udf.o
                0x0000000000001140                main
 *fill*         0x00000000000012a7        0x9 
 .text          0x00000000000012b0     0x1211 udf_volume.o
                0x00000000000012b0                udf_long_ad_to_pos
                0x0000000000001300                udf_volume_recongnition
                0x0000000000001450                udf_get_anchor_volume_descriptor
                0x0000000000001580                udf_read_volume_descriptor_sequence
 *fill*         0x00000000000024c1        0xf 
 .text          0x00000000000024d0      0xff9 udf_ops.o
 *fill*         0x00000000000034c9        0x7 
 .text          0x00000000000034d0      0x62f udf_osta.o
                0x00000000000034d0                udf_translate_name
                0x0000000000003940                udf_to_unix_name
 *fill*         0x0000000000003aff        0x1 
 .text          0x0000000000003b00       0x94 udf_cksum.o
                0x0000000000003b00                udf_unicode_cksum
                0x0000000000003b60                udf_tag_checksum
 *fill*         0x0000000000003b94        0xc 
 .text          0x0000000000003ba0      0xe8f udf_file.o
                0x0000000000003ba0                udf_read_allocation_sequence
                0x0000000000003f80                udf_read_icb
                0x0000000000004110                udf_node_get_core
                0x00000000000042b0                udf_get_fid_in_sector
                0x0000000000004530                udf_get_fid_in_allocator
                0x00000000000046e0                udf_get_fid
                0x00000000000047f0                udf_read_file
 *fill*         0x0000000000004a2f        0x1 
 .text          0x0000000000004a30      0x2ad udf_idx.o
                0x0000000000004aa0                udf_idx_init
                0x0000000000004ad0                udf_idx_fini
                0x0000000000004af0                udf_idx_get
                0x0000000000004b60                udf_idx_add
                0x0000000000004c50                udf_idx_del
 *fill*         0x0000000000004cdd        0x3 
 .text          0x0000000000004ce0     0x189f ../../../lib/block/libblock.a(block.o)
                0x0000000000004d20                block_init
                0x0000000000004ef0                block_bb_read
                0x0000000000005040                block_bb_get
                0x00000000000050c0                block_cache_init
                0x0000000000005200                block_cache_fini
                0x00000000000053b0                block_fini
                0x00000000000054d0                block_put
                0x00000000000057d0                block_get
                0x0000000000005d50                block_seqread
                0x0000000000005f10                block_read_direct
                0x0000000000005ff0                block_write_direct
                0x00000000000060d0                block_sync_cache
                0x0000000000006180                block_get_bsize
                0x0000000000006210                block_get_nblocks
                0x00000000000062a0                block_read_bytes_direct
                0x00000000000064d0                block_read_toc
 .text.unlikely
                0x000000000000657f       0x1a ../../../lib/block/libblock.a(block.o)
 *fill*         0x0000000000006599        0x7 
 .text          0x00000000000065a0     0x1535 ../../../lib/fs/libfs.a(libfs.o)
                0x0000000000007750                fs_register
                0x0000000000007890                fs_node_initialize
                0x00000000000078b0                fs_instance_create
                0x00000000000079b0                fs_instance_get
                0x0000000000007a30                fs_instance_destroy
 *(.rodata .rodata.*)
 .rodata.str1.1
                0x0000000000007ad5       0x56 udf.o
 *fill*         0x0000000000007b2b        0x1 
 .rodata.str1.4
                0x0000000000007b2c       0x48 udf.o
 .rodata.str1.4
                0x0000000000007b74      0x38a udf_volume.o
 .rodata.str1.1
                0x0000000000007efe       0x5b udf_volume.o
 *fill*         0x0000000000007f59        0x3 
 .rodata        0x0000000000007f5c       0x28 udf_volume.o
 .rodata.str1.1
                0x0000000000007f84       0x54 udf_ops.o
 .rodata.str1.4
                0x0000000000007fd8       0xdf udf_ops.o
 .rodata.str1.1
                0x00000000000080b7       0x18 udf_osta.o
 *fill*         0x00000000000080cf       0x11 
 .rodata        0x00000000000080e0      0x200 udf_cksum.o
 .rodata.str1.4
                0x00000000000082e0      0x171 udf_file.o
                                        0x1c1 (size before relaxing)
 .rodata.str1.1
                0x0000000000008451       0x1d udf_idx.o
 *fill*         0x000000000000846e        0x2 
 .rodata.str1.4
                0x0000000000008470       0x25 udf_idx.o
 .rodata.str1.1
                0x0000000000008495       0x4f ../../../lib/block/libblock.a(block.o)
 .rodata.str1.4
                0x00000000000084e4       0xe8 ../../../lib/block/libblock.a(block.o)
                                         0xe7 (size before relaxing)
 .rodata.str1.1
                0x00000000000085cc        0xc ../../../lib/fs/libfs.a(libfs.o)
 .rodata        0x00000000000085d8       0x38 ../../../lib/fs/libfs.a(libfs.o)

.rel.plt        0x0000000000008610      0x240
 *(.rel.plt)
 .rel.plt       0x0000000000008610      0x240 /home/ayyuce/Desktop/HlnOS/HelenOS/uspace/lib/c/arch/ia32/src/entry.o

.rel.dyn        0x0000000000008850       0x10
 *(.rel.*)
 .rel.got       0x0000000000008850        0x0 /home/ayyuce/Desktop/HlnOS/HelenOS/uspace/lib/c/arch/ia32/src/entry.o
 .rel.bss       0x0000000000008850       0x10 /home/ayyuce/Desktop/HlnOS/HelenOS/uspace/lib/c/arch/ia32/src/entry.o
 .rel.init      0x0000000000008860        0x0 /home/ayyuce/Desktop/HlnOS/HelenOS/uspace/lib/c/arch/ia32/src/entry.o
 .rel.text.startup
                0x0000000000008860        0x0 /home/ayyuce/Desktop/HlnOS/HelenOS/uspace/lib/c/arch/ia32/src/entry.o
 .rel.text      0x0000000000008860        0x0 /home/ayyuce/Desktop/HlnOS/HelenOS/uspace/lib/c/arch/ia32/src/entry.o
 .rel.text.unlikely
                0x0000000000008860        0x0 /home/ayyuce/Desktop/HlnOS/HelenOS/uspace/lib/c/arch/ia32/src/entry.o

.plt            0x0000000000008860      0x490
 *(.plt)
 .plt           0x0000000000008860      0x490 /home/ayyuce/Desktop/HlnOS/HelenOS/uspace/lib/c/arch/ia32/src/entry.o
                0x0000000000008870                __main
                0x0000000000008880                task_retval
                0x0000000000008890                loc_service_connect
                0x00000000000088a0                printf
                0x00000000000088b0                async_hangup
                0x00000000000088c0                async_data_write_forward_fast
                0x00000000000088d0                async_forward_slow
                0x00000000000088e0                async_wait_for
                0x00000000000088f0                hash_table_create
                0x0000000000008900                log_init
                0x0000000000008910                async_data_write_start
                0x0000000000008920                hash_table_insert
                0x0000000000008930                __errno
                0x0000000000008940                bd_write_blocks
                0x0000000000008950                bd_get_num_blocks
                0x0000000000008960                service_connect_blocking
                0x0000000000008970                async_data_read_finalize
                0x0000000000008980                async_share_in_start
                0x0000000000008990                bd_close
                0x00000000000089a0                memcpy
                0x00000000000089b0                async_clone_establish
                0x00000000000089c0                malloc
                0x00000000000089d0                bd_open
                0x00000000000089e0                ascii_check
                0x00000000000089f0                async_req_fast
                0x0000000000008a00                async_answer_0
                0x0000000000008a10                async_send_fast
                0x0000000000008a20                log_msg
                0x0000000000008a30                stacktrace_print
                0x0000000000008a40                __umoddi3
                0x0000000000008a50                __udivdi3
                0x0000000000008a60                bd_read_blocks
                0x0000000000008a70                utf16_to_str
                0x0000000000008a80                strtol
                0x0000000000008a90                async_exchange_end
                0x0000000000008aa0                fibril_mutex_trylock
                0x0000000000008ab0                assert_abort
                0x0000000000008ac0                calloc
                0x0000000000008ad0                stricmp
                0x0000000000008ae0                bd_read_toc
                0x0000000000008af0                fibril_mutex_unlock
                0x0000000000008b00                fibril_mutex_initialize
                0x0000000000008b10                async_answer_4
                0x0000000000008b20                async_clone_receive
                0x0000000000008b30                realloc
                0x0000000000008b40                async_answer_5
                0x0000000000008b50                memcmp
                0x0000000000008b60                async_create_callback_port
                0x0000000000008b70                str_cmp
                0x0000000000008b80                hash_table_remove_item
                0x0000000000008b90                memset
                0x0000000000008ba0                async_data_read_receive
                0x0000000000008bb0                bd_get_block_size
                0x0000000000008bc0                async_data_write_void
                0x0000000000008bd0                async_get_call_timeout
                0x0000000000008be0                str_size
                0x0000000000008bf0                str_lcmp
                0x0000000000008c00                bd_sync_cache
                0x0000000000008c10                async_answer_1
                0x0000000000008c20                async_exchange_begin
                0x0000000000008c30                async_answer_3
                0x0000000000008c40                hash_table_find
                0x0000000000008c50                async_data_write_accept
                0x0000000000008c60                fibril_rwlock_initialize
                0x0000000000008c70                async_forget
                0x0000000000008c80                fibril_switch
                0x0000000000008c90                __syscall_fast
                0x0000000000008ca0                str_ncpy
                0x0000000000008cb0                async_set_fallback_port_handler
                0x0000000000008cc0                hash_table_destroy
                0x0000000000008cd0                free
                0x0000000000008ce0                fibril_mutex_lock

.dynsym         0x0000000000008cf0      0x4d0
 *(.dynsym)
 .dynsym        0x0000000000008cf0      0x4d0 /home/ayyuce/Desktop/HlnOS/HelenOS/uspace/lib/c/arch/ia32/src/entry.o

.dynstr         0x00000000000091c0      0x498
 *(.dynstr)
 .dynstr        0x00000000000091c0      0x498 /home/ayyuce/Desktop/HlnOS/HelenOS/uspace/lib/c/arch/ia32/src/entry.o

.hash           0x0000000000009658      0x248
 *(.hash)
 .hash          0x0000000000009658      0x248 /home/ayyuce/Desktop/HlnOS/HelenOS/uspace/lib/c/arch/ia32/src/entry.o

.interp         0x00000000000098a0       0x13
 *(.interp)
 .interp        0x00000000000098a0       0x13 /home/ayyuce/Desktop/HlnOS/HelenOS/uspace/lib/c/arch/ia32/src/entry.o
                0x000000000000a8b3                . = (. + 0x1000)

.dynamic        0x000000000000a8b4       0xa8
 *(.dynamic)
 .dynamic       0x000000000000a8b4       0xa8 /home/ayyuce/Desktop/HlnOS/HelenOS/uspace/lib/c/arch/ia32/src/entry.o
                0x000000000000a8b4                _DYNAMIC

.data           0x000000000000a960       0xf4
 *(.data)
 .data          0x000000000000a960        0x0 /home/ayyuce/Desktop/HlnOS/HelenOS/uspace/lib/c/arch/ia32/src/entry.o
 .data          0x000000000000a960       0x20 udf.o
                0x000000000000a960                udf_vfs_info
 .data          0x000000000000a980        0x0 udf_volume.o
 .data          0x000000000000a980       0x6c udf_ops.o
                0x000000000000a980                udf_ops
                0x000000000000a9a0                udf_libfs_ops
 .data          0x000000000000a9ec        0x0 udf_osta.o
 .data          0x000000000000a9ec        0x0 udf_cksum.o
 .data          0x000000000000a9ec        0x0 udf_file.o
 .data          0x000000000000a9ec       0x24 udf_idx.o
 .data          0x000000000000aa10       0x2c ../../../lib/block/libblock.a(block.o)
 .data          0x000000000000aa3c       0x18 ../../../lib/fs/libfs.a(libfs.o)

.data.rel
 *(.data.rel .data.rel.*)

.got            0x000000000000aa54        0x0
 *(.got)
 .got           0x000000000000aa54        0x0 /home/ayyuce/Desktop/HlnOS/HelenOS/uspace/lib/c/arch/ia32/src/entry.o

.got.plt        0x000000000000aa54      0x12c
 *(.got.plt)
 .got.plt       0x000000000000aa54      0x12c /home/ayyuce/Desktop/HlnOS/HelenOS/uspace/lib/c/arch/ia32/src/entry.o
                0x000000000000aa54                _GLOBAL_OFFSET_TABLE_

.tdata
 *(.tdata)
 *(.gnu.linkonce.tb.*)

.tbss
 *(.tbss)

.bss            0x000000000000ab80       0x34
 *(.dynbss)
 .dynbss        0x000000000000ab80        0x8 /home/ayyuce/Desktop/HlnOS/HelenOS/uspace/lib/c/arch/ia32/src/entry.o
                0x000000000000ab80                __syscall_fast_func
                0x000000000000ab84                async_futex
 *(COMMON)
 *(.bss)
 .bss           0x000000000000ab88        0x0 /home/ayyuce/Desktop/HlnOS/HelenOS/uspace/lib/c/arch/ia32/src/entry.o
 .bss           0x000000000000ab88        0x0 udf.o
 .bss           0x000000000000ab88        0x0 udf_volume.o
 .bss           0x000000000000ab88        0x0 udf_ops.o
 .bss           0x000000000000ab88        0x0 udf_osta.o
 .bss           0x000000000000ab88        0x0 udf_cksum.o
 .bss           0x000000000000ab88        0x0 udf_file.o
 .bss           0x000000000000ab88       0x1c udf_idx.o
 .bss           0x000000000000aba4        0x0 ../../../lib/block/libblock.a(block.o)
 .bss           0x000000000000aba4       0x10 ../../../lib/fs/libfs.a(libfs.o)

/DISCARD/
 *(*)
LOAD udf.o
LOAD udf_volume.o
LOAD udf_ops.o
LOAD udf_osta.o
LOAD udf_cksum.o
LOAD udf_file.o
LOAD udf_idx.o
LOAD ../../../lib/block/libblock.a
LOAD ../../../lib/fs/libfs.a
LOAD ../../../lib/c/libc.so.0
LOAD ../../../lib/softint/libsoftint.so.0
OUTPUT(udf elf32-i386)
