
bithenge:     file format elf32-i386


Disassembly of section .init:

000010f4 <__entry>:
    10f4:	66 8c d0             	mov    %ss,%ax
    10f7:	8e d8                	mov    %eax,%ds
    10f9:	8e c0                	mov    %eax,%es
    10fb:	8e e0                	mov    %eax,%fs
    10fd:	b8 01 00 00 00       	mov    $0x1,%eax
    1102:	0f a2                	cpuid  
    1104:	0f ba e2 0b          	bt     $0xb,%edx
    1108:	73 0c                	jae    1116 <__entry+0x22>
    110a:	8d 05 20 3d 01 00    	lea    0x13d20,%eax
    1110:	c7 00 b0 20 01 00    	movl   $0x120b0,(%eax)
    1116:	6a 00                	push   $0x0
    1118:	6a 00                	push   $0x0
    111a:	89 e5                	mov    %esp,%ebp
    111c:	57                   	push   %edi
    111d:	e8 4e 0c 01 00       	call   11d70 <__main@plt>

Disassembly of section .text:

00001130 <bithenge_transform_dec_ref>:
    1130:	85 c0                	test   %eax,%eax
    1132:	74 1c                	je     1150 <bithenge_transform_dec_ref+0x20>
    1134:	55                   	push   %ebp
    1135:	89 e5                	mov    %esp,%ebp
    1137:	83 ec 08             	sub    $0x8,%esp
    113a:	8b 08                	mov    (%eax),%ecx
    113c:	85 c9                	test   %ecx,%ecx
    113e:	74 30                	je     1170 <bithenge_transform_dec_ref+0x40>
    1140:	8b 50 04             	mov    0x4(%eax),%edx
    1143:	85 d2                	test   %edx,%edx
    1145:	74 17                	je     115e <bithenge_transform_dec_ref+0x2e>
    1147:	4a                   	dec    %edx
    1148:	89 50 04             	mov    %edx,0x4(%eax)
    114b:	85 d2                	test   %edx,%edx
    114d:	74 02                	je     1151 <bithenge_transform_dec_ref+0x21>
    114f:	c9                   	leave  
    1150:	c3                   	ret    
    1151:	83 ec 0c             	sub    $0xc,%esp
    1154:	50                   	push   %eax
    1155:	ff 51 0c             	call   *0xc(%ecx)
    1158:	83 c4 10             	add    $0x10,%esp
    115b:	c9                   	leave  
    115c:	eb f2                	jmp    1150 <bithenge_transform_dec_ref+0x20>
    115e:	50                   	push   %eax
    115f:	6a 75                	push   $0x75
    1161:	68 0c 11 01 00       	push   $0x1110c
    1166:	68 6b 11 01 00       	push   $0x1116b
    116b:	e8 a0 0d 01 00       	call   11f10 <assert_abort@plt>
    1170:	52                   	push   %edx
    1171:	6a 74                	push   $0x74
    1173:	68 0c 11 01 00       	push   $0x1110c
    1178:	68 61 11 01 00       	push   $0x11161
    117d:	e8 8e 0d 01 00       	call   11f10 <assert_abort@plt>
    1182:	66 90                	xchg   %ax,%ax
    1184:	66 90                	xchg   %ax,%ax
    1186:	66 90                	xchg   %ax,%ax
    1188:	66 90                	xchg   %ax,%ax
    118a:	66 90                	xchg   %ax,%ax
    118c:	66 90                	xchg   %ax,%ax
    118e:	66 90                	xchg   %ax,%ax

00001190 <main>:
    1190:	8d 4c 24 04          	lea    0x4(%esp),%ecx
    1194:	83 e4 f0             	and    $0xfffffff0,%esp
    1197:	ff 71 fc             	pushl  -0x4(%ecx)
    119a:	55                   	push   %ebp
    119b:	89 e5                	mov    %esp,%ebp
    119d:	53                   	push   %ebx
    119e:	51                   	push   %ecx
    119f:	83 ec 10             	sub    $0x10,%esp
    11a2:	8b 59 04             	mov    0x4(%ecx),%ebx
    11a5:	83 39 02             	cmpl   $0x2,(%ecx)
    11a8:	0f 8e d8 00 00 00    	jle    1286 <main+0xf6>
    11ae:	8d 45 e8             	lea    -0x18(%ebp),%eax
    11b1:	c7 45 e8 00 00 00 00 	movl   $0x0,-0x18(%ebp)
    11b8:	51                   	push   %ecx
    11b9:	c7 45 ec 00 00 00 00 	movl   $0x0,-0x14(%ebp)
    11c0:	51                   	push   %ecx
    11c1:	c7 45 f0 00 00 00 00 	movl   $0x0,-0x10(%ebp)
    11c8:	6a 00                	push   $0x0
    11ca:	c7 45 f4 00 00 00 00 	movl   $0x0,-0xc(%ebp)
    11d1:	50                   	push   %eax
    11d2:	e8 99 99 00 00       	call   ab70 <bithenge_scope_new>
    11d7:	83 c4 10             	add    $0x10,%esp
    11da:	85 c0                	test   %eax,%eax
    11dc:	74 59                	je     1237 <main+0xa7>
    11de:	83 ec 0c             	sub    $0xc,%esp
    11e1:	50                   	push   %eax
    11e2:	e8 79 0e 01 00       	call   12060 <str_error@plt>
    11e7:	5b                   	pop    %ebx
    11e8:	5a                   	pop    %edx
    11e9:	50                   	push   %eax
    11ea:	68 97 11 01 00       	push   $0x11197
    11ef:	e8 ac 0b 01 00       	call   11da0 <printf@plt>
    11f4:	c7 45 e8 00 00 00 00 	movl   $0x0,-0x18(%ebp)
    11fb:	83 c4 10             	add    $0x10,%esp
    11fe:	83 ec 0c             	sub    $0xc,%esp
    1201:	bb 01 00 00 00       	mov    $0x1,%ebx
    1206:	ff 75 f0             	pushl  -0x10(%ebp)
    1209:	e8 12 a4 00 00       	call   b620 <bithenge_node_dec_ref>
    120e:	58                   	pop    %eax
    120f:	ff 75 f4             	pushl  -0xc(%ebp)
    1212:	e8 09 a4 00 00       	call   b620 <bithenge_node_dec_ref>
    1217:	8b 45 ec             	mov    -0x14(%ebp),%eax
    121a:	e8 11 ff ff ff       	call   1130 <bithenge_transform_dec_ref>
    121f:	5a                   	pop    %edx
    1220:	ff 75 e8             	pushl  -0x18(%ebp)
    1223:	e8 b8 99 00 00       	call   abe0 <bithenge_scope_dec_ref>
    1228:	83 c4 10             	add    $0x10,%esp
    122b:	8d 65 f8             	lea    -0x8(%ebp),%esp
    122e:	89 d8                	mov    %ebx,%eax
    1230:	59                   	pop    %ecx
    1231:	5b                   	pop    %ebx
    1232:	5d                   	pop    %ebp
    1233:	8d 61 fc             	lea    -0x4(%ecx),%esp
    1236:	c3                   	ret    
    1237:	8d 45 ec             	lea    -0x14(%ebp),%eax
    123a:	51                   	push   %ecx
    123b:	51                   	push   %ecx
    123c:	50                   	push   %eax
    123d:	ff 73 04             	pushl  0x4(%ebx)
    1240:	e8 4b 46 00 00       	call   5890 <bithenge_parse_script>
    1245:	83 c4 10             	add    $0x10,%esp
    1248:	85 c0                	test   %eax,%eax
    124a:	75 57                	jne    12a3 <main+0x113>
    124c:	51                   	push   %ecx
    124d:	51                   	push   %ecx
    124e:	ff 73 08             	pushl  0x8(%ebx)
    1251:	8d 45 f0             	lea    -0x10(%ebp),%eax
    1254:	50                   	push   %eax
    1255:	e8 56 78 00 00       	call   8ab0 <bithenge_node_from_source>
    125a:	83 c4 10             	add    $0x10,%esp
    125d:	85 c0                	test   %eax,%eax
    125f:	74 67                	je     12c8 <main+0x138>
    1261:	83 ec 0c             	sub    $0xc,%esp
    1264:	50                   	push   %eax
    1265:	e8 f6 0d 01 00       	call   12060 <str_error@plt>
    126a:	5b                   	pop    %ebx
    126b:	5a                   	pop    %edx
    126c:	50                   	push   %eax
    126d:	68 3c 11 01 00       	push   $0x1113c
    1272:	e8 29 0b 01 00       	call   11da0 <printf@plt>
    1277:	c7 45 f0 00 00 00 00 	movl   $0x0,-0x10(%ebp)
    127e:	83 c4 10             	add    $0x10,%esp
    1281:	e9 78 ff ff ff       	jmp    11fe <main+0x6e>
    1286:	50                   	push   %eax
    1287:	ff 33                	pushl  (%ebx)
    1289:	68 7a 11 01 00       	push   $0x1117a
    128e:	bb 01 00 00 00       	mov    $0x1,%ebx
    1293:	ff 35 28 3d 01 00    	pushl  0x13d28
    1299:	e8 92 0c 01 00       	call   11f30 <fprintf@plt>
    129e:	83 c4 10             	add    $0x10,%esp
    12a1:	eb 88                	jmp    122b <main+0x9b>
    12a3:	83 ec 0c             	sub    $0xc,%esp
    12a6:	50                   	push   %eax
    12a7:	e8 b4 0d 01 00       	call   12060 <str_error@plt>
    12ac:	5b                   	pop    %ebx
    12ad:	5a                   	pop    %edx
    12ae:	50                   	push   %eax
    12af:	68 b1 11 01 00       	push   $0x111b1
    12b4:	e8 e7 0a 01 00       	call   11da0 <printf@plt>
    12b9:	c7 45 ec 00 00 00 00 	movl   $0x0,-0x14(%ebp)
    12c0:	83 c4 10             	add    $0x10,%esp
    12c3:	e9 36 ff ff ff       	jmp    11fe <main+0x6e>
    12c8:	8d 45 f4             	lea    -0xc(%ebp),%eax
    12cb:	50                   	push   %eax
    12cc:	ff 75 f0             	pushl  -0x10(%ebp)
    12cf:	ff 75 e8             	pushl  -0x18(%ebp)
    12d2:	ff 75 ec             	pushl  -0x14(%ebp)
    12d5:	e8 16 92 00 00       	call   a4f0 <bithenge_transform_apply>
    12da:	83 c4 10             	add    $0x10,%esp
    12dd:	89 c3                	mov    %eax,%ebx
    12df:	85 c0                	test   %eax,%eax
    12e1:	75 61                	jne    1344 <main+0x1b4>
    12e3:	83 ec 0c             	sub    $0xc,%esp
    12e6:	ff 75 f0             	pushl  -0x10(%ebp)
    12e9:	e8 32 a3 00 00       	call   b620 <bithenge_node_dec_ref>
    12ee:	8b 45 ec             	mov    -0x14(%ebp),%eax
    12f1:	c7 45 f0 00 00 00 00 	movl   $0x0,-0x10(%ebp)
    12f8:	e8 33 fe ff ff       	call   1130 <bithenge_transform_dec_ref>
    12fd:	58                   	pop    %eax
    12fe:	5a                   	pop    %edx
    12ff:	ff 75 f4             	pushl  -0xc(%ebp)
    1302:	c7 45 ec 00 00 00 00 	movl   $0x0,-0x14(%ebp)
    1309:	6a 00                	push   $0x0
    130b:	e8 60 06 00 00       	call   1970 <bithenge_print_node>
    1310:	83 c4 10             	add    $0x10,%esp
    1313:	89 c3                	mov    %eax,%ebx
    1315:	85 c0                	test   %eax,%eax
    1317:	74 59                	je     1372 <main+0x1e2>
    1319:	83 ec 0c             	sub    $0xc,%esp
    131c:	ff 75 e8             	pushl  -0x18(%ebp)
    131f:	e8 4c 9a 00 00       	call   ad70 <bithenge_scope_get_error>
    1324:	83 c4 10             	add    $0x10,%esp
    1327:	85 c0                	test   %eax,%eax
    1329:	0f 84 87 00 00 00    	je     13b6 <main+0x226>
    132f:	53                   	push   %ebx
    1330:	53                   	push   %ebx
    1331:	50                   	push   %eax
    1332:	68 e9 11 01 00       	push   $0x111e9
    1337:	e8 64 0a 01 00       	call   11da0 <printf@plt>
    133c:	83 c4 10             	add    $0x10,%esp
    133f:	e9 ba fe ff ff       	jmp    11fe <main+0x6e>
    1344:	83 ec 0c             	sub    $0xc,%esp
    1347:	ff 75 e8             	pushl  -0x18(%ebp)
    134a:	e8 21 9a 00 00       	call   ad70 <bithenge_scope_get_error>
    134f:	83 c4 10             	add    $0x10,%esp
    1352:	85 c0                	test   %eax,%eax
    1354:	74 52                	je     13a8 <main+0x218>
    1356:	51                   	push   %ecx
    1357:	51                   	push   %ecx
    1358:	50                   	push   %eax
    1359:	68 cb 11 01 00       	push   $0x111cb
    135e:	e8 3d 0a 01 00       	call   11da0 <printf@plt>
    1363:	c7 45 f4 00 00 00 00 	movl   $0x0,-0xc(%ebp)
    136a:	83 c4 10             	add    $0x10,%esp
    136d:	e9 8c fe ff ff       	jmp    11fe <main+0x6e>
    1372:	83 ec 0c             	sub    $0xc,%esp
    1375:	ff 75 f4             	pushl  -0xc(%ebp)
    1378:	e8 a3 a2 00 00       	call   b620 <bithenge_node_dec_ref>
    137d:	59                   	pop    %ecx
    137e:	ff 75 e8             	pushl  -0x18(%ebp)
    1381:	c7 45 f4 00 00 00 00 	movl   $0x0,-0xc(%ebp)
    1388:	e8 53 98 00 00       	call   abe0 <bithenge_scope_dec_ref>
    138d:	c7 04 24 55 13 01 00 	movl   $0x11355,(%esp)
    1394:	c7 45 e8 00 00 00 00 	movl   $0x0,-0x18(%ebp)
    139b:	e8 00 0a 01 00       	call   11da0 <printf@plt>
    13a0:	83 c4 10             	add    $0x10,%esp
    13a3:	e9 83 fe ff ff       	jmp    122b <main+0x9b>
    13a8:	83 ec 0c             	sub    $0xc,%esp
    13ab:	53                   	push   %ebx
    13ac:	e8 af 0c 01 00       	call   12060 <str_error@plt>
    13b1:	83 c4 10             	add    $0x10,%esp
    13b4:	eb a0                	jmp    1356 <main+0x1c6>
    13b6:	83 ec 0c             	sub    $0xc,%esp
    13b9:	53                   	push   %ebx
    13ba:	e8 a1 0c 01 00       	call   12060 <str_error@plt>
    13bf:	83 c4 10             	add    $0x10,%esp
    13c2:	e9 68 ff ff ff       	jmp    132f <main+0x19f>
    13c7:	66 90                	xchg   %ax,%ax
    13c9:	66 90                	xchg   %ax,%ax
    13cb:	66 90                	xchg   %ax,%ax
    13cd:	66 90                	xchg   %ax,%ax
    13cf:	90                   	nop

000013d0 <state_printf>:
    13d0:	55                   	push   %ebp
    13d1:	89 e5                	mov    %esp,%ebp
    13d3:	53                   	push   %ebx
    13d4:	53                   	push   %ebx
    13d5:	8b 5d 08             	mov    0x8(%ebp),%ebx
    13d8:	8b 43 0c             	mov    0xc(%ebx),%eax
    13db:	85 c0                	test   %eax,%eax
    13dd:	74 49                	je     1428 <state_printf+0x58>
    13df:	8d 4d 10             	lea    0x10(%ebp),%ecx
    13e2:	8b 55 0c             	mov    0xc(%ebp),%edx
    13e5:	51                   	push   %ecx
    13e6:	8b 4b 10             	mov    0x10(%ebx),%ecx
    13e9:	52                   	push   %edx
    13ea:	51                   	push   %ecx
    13eb:	50                   	push   %eax
    13ec:	e8 8f 0a 01 00       	call   11e80 <vsnprintf@plt>
    13f1:	83 c4 10             	add    $0x10,%esp
    13f4:	85 c0                	test   %eax,%eax
    13f6:	7e 14                	jle    140c <state_printf+0x3c>
    13f8:	8b 53 10             	mov    0x10(%ebx),%edx
    13fb:	39 c2                	cmp    %eax,%edx
    13fd:	76 19                	jbe    1418 <state_printf+0x48>
    13ff:	8b 4b 0c             	mov    0xc(%ebx),%ecx
    1402:	29 c2                	sub    %eax,%edx
    1404:	01 c1                	add    %eax,%ecx
    1406:	89 53 10             	mov    %edx,0x10(%ebx)
    1409:	89 4b 0c             	mov    %ecx,0xc(%ebx)
    140c:	8b 5d fc             	mov    -0x4(%ebp),%ebx
    140f:	c9                   	leave  
    1410:	c3                   	ret    
    1411:	8d b4 26 00 00 00 00 	lea    0x0(%esi,%eiz,1),%esi
    1418:	8d 42 ff             	lea    -0x1(%edx),%eax
    141b:	85 c0                	test   %eax,%eax
    141d:	7f e0                	jg     13ff <state_printf+0x2f>
    141f:	eb eb                	jmp    140c <state_printf+0x3c>
    1421:	8d b4 26 00 00 00 00 	lea    0x0(%esi,%eiz,1),%esi
    1428:	8b 55 0c             	mov    0xc(%ebp),%edx
    142b:	50                   	push   %eax
    142c:	50                   	push   %eax
    142d:	8d 45 10             	lea    0x10(%ebp),%eax
    1430:	50                   	push   %eax
    1431:	52                   	push   %edx
    1432:	e8 09 0b 01 00       	call   11f40 <vprintf@plt>
    1437:	83 c4 10             	add    $0x10,%esp
    143a:	8b 5d fc             	mov    -0x4(%ebp),%ebx
    143d:	c9                   	leave  
    143e:	c3                   	ret    
    143f:	90                   	nop

00001440 <print_blob>:
    1440:	55                   	push   %ebp
    1441:	89 e5                	mov    %esp,%ebp
    1443:	57                   	push   %edi
    1444:	56                   	push   %esi
    1445:	53                   	push   %ebx
    1446:	81 ec 3c 04 00 00    	sub    $0x43c,%esp
    144c:	89 85 d4 fb ff ff    	mov    %eax,-0x42c(%ebp)
    1452:	89 95 d0 fb ff ff    	mov    %edx,-0x430(%ebp)
    1458:	83 3a 05             	cmpl   $0x5,(%edx)
    145b:	0f 85 68 01 00 00    	jne    15c9 <print_blob+0x189>
    1461:	8b 8d d4 fb ff ff    	mov    -0x42c(%ebp),%ecx
    1467:	c7 85 e0 fb ff ff 00 	movl   $0x400,-0x420(%ebp)
    146e:	04 00 00 
    1471:	c7 85 e4 fb ff ff 00 	movl   $0x0,-0x41c(%ebp)
    1478:	00 00 00 
    147b:	b8 02 12 01 00       	mov    $0x11202,%eax
    1480:	8b 39                	mov    (%ecx),%edi
    1482:	85 ff                	test   %edi,%edi
    1484:	74 05                	je     148b <print_blob+0x4b>
    1486:	b8 03 12 01 00       	mov    $0x11203,%eax
    148b:	8b b5 d4 fb ff ff    	mov    -0x42c(%ebp),%esi
    1491:	53                   	push   %ebx
    1492:	53                   	push   %ebx
    1493:	50                   	push   %eax
    1494:	56                   	push   %esi
    1495:	e8 36 ff ff ff       	call   13d0 <state_printf>
    149a:	83 c4 10             	add    $0x10,%esp
    149d:	c7 85 c8 fb ff ff 00 	movl   $0x0,-0x438(%ebp)
    14a4:	00 00 00 
    14a7:	c7 85 cc fb ff ff 00 	movl   $0x0,-0x434(%ebp)
    14ae:	00 00 00 
    14b1:	eb 1c                	jmp    14cf <print_blob+0x8f>
    14b3:	90                   	nop
    14b4:	8d 74 26 00          	lea    0x0(%esi,%eiz,1),%esi
    14b8:	01 85 c8 fb ff ff    	add    %eax,-0x438(%ebp)
    14be:	11 95 cc fb ff ff    	adc    %edx,-0x434(%ebp)
    14c4:	80 f4 04             	xor    $0x4,%ah
    14c7:	09 c2                	or     %eax,%edx
    14c9:	0f 85 c1 00 00 00    	jne    1590 <print_blob+0x150>
    14cf:	8b 85 d0 fb ff ff    	mov    -0x430(%ebp),%eax
    14d5:	8b 40 08             	mov    0x8(%eax),%eax
    14d8:	85 c0                	test   %eax,%eax
    14da:	0f 84 d4 00 00 00    	je     15b4 <print_blob+0x174>
    14e0:	8b 40 04             	mov    0x4(%eax),%eax
    14e3:	85 c0                	test   %eax,%eax
    14e5:	0f 84 8d 00 00 00    	je     1578 <print_blob+0x138>
    14eb:	83 ec 0c             	sub    $0xc,%esp
    14ee:	8d 8d e0 fb ff ff    	lea    -0x420(%ebp),%ecx
    14f4:	8d bd e8 fb ff ff    	lea    -0x418(%ebp),%edi
    14fa:	8b b5 cc fb ff ff    	mov    -0x434(%ebp),%esi
    1500:	51                   	push   %ecx
    1501:	8b 95 d0 fb ff ff    	mov    -0x430(%ebp),%edx
    1507:	57                   	push   %edi
    1508:	8b bd c8 fb ff ff    	mov    -0x438(%ebp),%edi
    150e:	56                   	push   %esi
    150f:	57                   	push   %edi
    1510:	52                   	push   %edx
    1511:	ff d0                	call   *%eax
    1513:	83 c4 20             	add    $0x20,%esp
    1516:	89 85 c4 fb ff ff    	mov    %eax,-0x43c(%ebp)
    151c:	85 c0                	test   %eax,%eax
    151e:	75 68                	jne    1588 <print_blob+0x148>
    1520:	8b 85 e4 fb ff ff    	mov    -0x41c(%ebp),%eax
    1526:	0b 85 e0 fb ff ff    	or     -0x420(%ebp),%eax
    152c:	74 62                	je     1590 <print_blob+0x150>
    152e:	8d 9d e8 fb ff ff    	lea    -0x418(%ebp),%ebx
    1534:	31 f6                	xor    %esi,%esi
    1536:	31 ff                	xor    %edi,%edi
    1538:	50                   	push   %eax
    1539:	31 c0                	xor    %eax,%eax
    153b:	8a 03                	mov    (%ebx),%al
    153d:	8b 95 d4 fb ff ff    	mov    -0x42c(%ebp),%edx
    1543:	50                   	push   %eax
    1544:	68 31 12 01 00       	push   $0x11231
    1549:	52                   	push   %edx
    154a:	e8 81 fe ff ff       	call   13d0 <state_printf>
    154f:	83 c6 01             	add    $0x1,%esi
    1552:	8b 95 e4 fb ff ff    	mov    -0x41c(%ebp),%edx
    1558:	83 d7 00             	adc    $0x0,%edi
    155b:	8b 85 e0 fb ff ff    	mov    -0x420(%ebp),%eax
    1561:	43                   	inc    %ebx
    1562:	83 c4 10             	add    $0x10,%esp
    1565:	39 fa                	cmp    %edi,%edx
    1567:	77 cf                	ja     1538 <print_blob+0xf8>
    1569:	0f 82 49 ff ff ff    	jb     14b8 <print_blob+0x78>
    156f:	39 f0                	cmp    %esi,%eax
    1571:	77 c5                	ja     1538 <print_blob+0xf8>
    1573:	e9 40 ff ff ff       	jmp    14b8 <print_blob+0x78>
    1578:	c7 85 c4 fb ff ff f2 	movl   $0xfffffff2,-0x43c(%ebp)
    157f:	ff ff ff 
    1582:	8b 85 c4 fb ff ff    	mov    -0x43c(%ebp),%eax
    1588:	8d 65 f4             	lea    -0xc(%ebp),%esp
    158b:	5b                   	pop    %ebx
    158c:	5e                   	pop    %esi
    158d:	5f                   	pop    %edi
    158e:	5d                   	pop    %ebp
    158f:	c3                   	ret    
    1590:	8b 9d d4 fb ff ff    	mov    -0x42c(%ebp),%ebx
    1596:	51                   	push   %ecx
    1597:	51                   	push   %ecx
    1598:	68 03 12 01 00       	push   $0x11203
    159d:	53                   	push   %ebx
    159e:	e8 2d fe ff ff       	call   13d0 <state_printf>
    15a3:	8b 85 c4 fb ff ff    	mov    -0x43c(%ebp),%eax
    15a9:	83 c4 10             	add    $0x10,%esp
    15ac:	8d 65 f4             	lea    -0xc(%ebp),%esp
    15af:	5b                   	pop    %ebx
    15b0:	5e                   	pop    %esi
    15b1:	5f                   	pop    %edi
    15b2:	5d                   	pop    %ebp
    15b3:	c3                   	ret    
    15b4:	51                   	push   %ecx
    15b5:	68 97 00 00 00       	push   $0x97
    15ba:	68 05 12 01 00       	push   $0x11205
    15bf:	68 1d 12 01 00       	push   $0x1121d
    15c4:	e8 47 09 01 00       	call   11f10 <assert_abort@plt>
    15c9:	50                   	push   %eax
    15ca:	68 d9 00 00 00       	push   $0xd9
    15cf:	68 05 12 01 00       	push   $0x11205
    15d4:	68 84 12 01 00       	push   $0x11284
    15d9:	e8 32 09 01 00       	call   11f10 <assert_abort@plt>
    15de:	66 90                	xchg   %ax,%ax

000015e0 <print_node>:
    15e0:	83 3a 05             	cmpl   $0x5,(%edx)
    15e3:	0f 87 6f 02 00 00    	ja     1858 <print_node+0x278>
    15e9:	55                   	push   %ebp
    15ea:	89 e5                	mov    %esp,%ebp
    15ec:	57                   	push   %edi
    15ed:	56                   	push   %esi
    15ee:	53                   	push   %ebx
    15ef:	83 ec 3c             	sub    $0x3c,%esp
    15f2:	89 c6                	mov    %eax,%esi
    15f4:	8b 02                	mov    (%edx),%eax
    15f6:	ff 24 85 d0 12 01 00 	jmp    *0x112d0(,%eax,4)
    15fd:	8d 76 00             	lea    0x0(%esi),%esi
    1600:	89 f0                	mov    %esi,%eax
    1602:	e8 39 fe ff ff       	call   1440 <print_blob>
    1607:	8d 65 f4             	lea    -0xc(%ebp),%esp
    160a:	5b                   	pop    %ebx
    160b:	5e                   	pop    %esi
    160c:	5f                   	pop    %edi
    160d:	5d                   	pop    %ebp
    160e:	c3                   	ret    
    160f:	90                   	nop
    1610:	89 55 c4             	mov    %edx,-0x3c(%ebp)
    1613:	57                   	push   %edi
    1614:	57                   	push   %edi
    1615:	68 4e 12 01 00       	push   $0x1124e
    161a:	56                   	push   %esi
    161b:	e8 b0 fd ff ff       	call   13d0 <state_printf>
    1620:	8b 46 08             	mov    0x8(%esi),%eax
    1623:	8b 55 c4             	mov    -0x3c(%ebp),%edx
    1626:	40                   	inc    %eax
    1627:	83 c4 10             	add    $0x10,%esp
    162a:	89 46 08             	mov    %eax,0x8(%esi)
    162d:	c6 46 04 01          	movb   $0x1,0x4(%esi)
    1631:	83 3a 01             	cmpl   $0x1,(%edx)
    1634:	0f 85 24 02 00 00    	jne    185e <print_node+0x27e>
    163a:	51                   	push   %ecx
    163b:	8b 42 08             	mov    0x8(%edx),%eax
    163e:	56                   	push   %esi
    163f:	68 80 18 00 00       	push   $0x1880
    1644:	52                   	push   %edx
    1645:	ff 10                	call   *(%eax)
    1647:	83 c4 10             	add    $0x10,%esp
    164a:	85 c0                	test   %eax,%eax
    164c:	75 b9                	jne    1607 <print_node+0x27>
    164e:	8b 56 08             	mov    0x8(%esi),%edx
    1651:	4a                   	dec    %edx
    1652:	89 56 08             	mov    %edx,0x8(%esi)
    1655:	80 7e 04 00          	cmpb   $0x0,0x4(%esi)
    1659:	0f 84 a9 01 00 00    	je     1808 <print_node+0x228>
    165f:	c6 46 04 00          	movb   $0x0,0x4(%esi)
    1663:	89 45 c4             	mov    %eax,-0x3c(%ebp)
    1666:	50                   	push   %eax
    1667:	50                   	push   %eax
    1668:	68 68 12 01 00       	push   $0x11268
    166d:	56                   	push   %esi
    166e:	e8 5d fd ff ff       	call   13d0 <state_printf>
    1673:	8b 45 c4             	mov    -0x3c(%ebp),%eax
    1676:	83 c4 10             	add    $0x10,%esp
    1679:	8d 65 f4             	lea    -0xc(%ebp),%esp
    167c:	5b                   	pop    %ebx
    167d:	5e                   	pop    %esi
    167e:	5f                   	pop    %edi
    167f:	5d                   	pop    %ebp
    1680:	c3                   	ret    
    1681:	8d b4 26 00 00 00 00 	lea    0x0(%esi,%eiz,1),%esi
    1688:	8b 06                	mov    (%esi),%eax
    168a:	8a 52 08             	mov    0x8(%edx),%dl
    168d:	85 c0                	test   %eax,%eax
    168f:	0f 84 4b 01 00 00    	je     17e0 <print_node+0x200>
    1695:	48                   	dec    %eax
    1696:	0f 85 3c 01 00 00    	jne    17d8 <print_node+0x1f8>
    169c:	b8 43 12 01 00       	mov    $0x11243,%eax
    16a1:	84 d2                	test   %dl,%dl
    16a3:	0f 84 4f 01 00 00    	je     17f8 <print_node+0x218>
    16a9:	52                   	push   %edx
    16aa:	52                   	push   %edx
    16ab:	50                   	push   %eax
    16ac:	56                   	push   %esi
    16ad:	e8 1e fd ff ff       	call   13d0 <state_printf>
    16b2:	83 c4 10             	add    $0x10,%esp
    16b5:	8d 65 f4             	lea    -0xc(%ebp),%esp
    16b8:	31 c0                	xor    %eax,%eax
    16ba:	5b                   	pop    %ebx
    16bb:	5e                   	pop    %esi
    16bc:	5f                   	pop    %edi
    16bd:	5d                   	pop    %ebp
    16be:	c3                   	ret    
    16bf:	90                   	nop
    16c0:	8b 42 0c             	mov    0xc(%edx),%eax
    16c3:	50                   	push   %eax
    16c4:	8b 42 08             	mov    0x8(%edx),%eax
    16c7:	50                   	push   %eax
    16c8:	68 6f 12 01 00       	push   $0x1126f
    16cd:	56                   	push   %esi
    16ce:	e8 fd fc ff ff       	call   13d0 <state_printf>
    16d3:	83 c4 10             	add    $0x10,%esp
    16d6:	8d 65 f4             	lea    -0xc(%ebp),%esp
    16d9:	31 c0                	xor    %eax,%eax
    16db:	5b                   	pop    %ebx
    16dc:	5e                   	pop    %esi
    16dd:	5f                   	pop    %edi
    16de:	5d                   	pop    %ebp
    16df:	c3                   	ret    
    16e0:	8b 5a 08             	mov    0x8(%edx),%ebx
    16e3:	50                   	push   %eax
    16e4:	50                   	push   %eax
    16e5:	68 03 12 01 00       	push   $0x11203
    16ea:	56                   	push   %esi
    16eb:	e8 e0 fc ff ff       	call   13d0 <state_printf>
    16f0:	83 c4 0c             	add    $0xc,%esp
    16f3:	8d 45 e0             	lea    -0x20(%ebp),%eax
    16f6:	89 5d dc             	mov    %ebx,-0x24(%ebp)
    16f9:	c7 45 e0 00 00 00 00 	movl   $0x0,-0x20(%ebp)
    1700:	6a ff                	push   $0xffffffff
    1702:	50                   	push   %eax
    1703:	53                   	push   %ebx
    1704:	e8 f7 06 01 00       	call   11e00 <str_decode@plt>
    1709:	8b 55 dc             	mov    -0x24(%ebp),%edx
    170c:	89 45 e4             	mov    %eax,-0x1c(%ebp)
    170f:	89 55 d0             	mov    %edx,-0x30(%ebp)
    1712:	8b 55 e0             	mov    -0x20(%ebp),%edx
    1715:	89 55 d4             	mov    %edx,-0x2c(%ebp)
    1718:	89 45 d8             	mov    %eax,-0x28(%ebp)
    171b:	83 c4 10             	add    $0x10,%esp
    171e:	8d 7d d4             	lea    -0x2c(%ebp),%edi
    1721:	8d b4 26 00 00 00 00 	lea    0x0(%esi,%eiz,1),%esi
    1728:	8b 5d d8             	mov    -0x28(%ebp),%ebx
    172b:	85 db                	test   %ebx,%ebx
    172d:	0f 84 8d 00 00 00    	je     17c0 <print_node+0x1e0>
    1733:	83 fb 3f             	cmp    $0x3f,%ebx
    1736:	75 20                	jne    1758 <print_node+0x178>
    1738:	8d 65 f4             	lea    -0xc(%ebp),%esp
    173b:	b8 f2 ff ff ff       	mov    $0xfffffff2,%eax
    1740:	5b                   	pop    %ebx
    1741:	5e                   	pop    %esi
    1742:	5f                   	pop    %edi
    1743:	5d                   	pop    %ebp
    1744:	c3                   	ret    
    1745:	8d 76 00             	lea    0x0(%esi),%esi
    1748:	b8 f5 ff ff ff       	mov    $0xfffffff5,%eax
    174d:	e9 b5 fe ff ff       	jmp    1607 <print_node+0x27>
    1752:	8d b6 00 00 00 00    	lea    0x0(%esi),%esi
    1758:	50                   	push   %eax
    1759:	8b 45 d0             	mov    -0x30(%ebp),%eax
    175c:	6a ff                	push   $0xffffffff
    175e:	57                   	push   %edi
    175f:	50                   	push   %eax
    1760:	e8 9b 06 01 00       	call   11e00 <str_decode@plt>
    1765:	83 c4 10             	add    $0x10,%esp
    1768:	89 45 d8             	mov    %eax,-0x28(%ebp)
    176b:	83 fb 22             	cmp    $0x22,%ebx
    176e:	74 38                	je     17a8 <print_node+0x1c8>
    1770:	83 fb 5c             	cmp    $0x5c,%ebx
    1773:	74 33                	je     17a8 <print_node+0x1c8>
    1775:	83 fb 1f             	cmp    $0x1f,%ebx
    1778:	7f 16                	jg     1790 <print_node+0x1b0>
    177a:	51                   	push   %ecx
    177b:	53                   	push   %ebx
    177c:	68 79 12 01 00       	push   $0x11279
    1781:	56                   	push   %esi
    1782:	e8 49 fc ff ff       	call   13d0 <state_printf>
    1787:	83 c4 10             	add    $0x10,%esp
    178a:	eb 9c                	jmp    1728 <print_node+0x148>
    178c:	8d 74 26 00          	lea    0x0(%esi,%eiz,1),%esi
    1790:	52                   	push   %edx
    1791:	53                   	push   %ebx
    1792:	68 75 12 01 00       	push   $0x11275
    1797:	56                   	push   %esi
    1798:	e8 33 fc ff ff       	call   13d0 <state_printf>
    179d:	83 c4 10             	add    $0x10,%esp
    17a0:	eb 86                	jmp    1728 <print_node+0x148>
    17a2:	8d b6 00 00 00 00    	lea    0x0(%esi),%esi
    17a8:	50                   	push   %eax
    17a9:	53                   	push   %ebx
    17aa:	68 74 12 01 00       	push   $0x11274
    17af:	56                   	push   %esi
    17b0:	e8 1b fc ff ff       	call   13d0 <state_printf>
    17b5:	83 c4 10             	add    $0x10,%esp
    17b8:	e9 6b ff ff ff       	jmp    1728 <print_node+0x148>
    17bd:	8d 76 00             	lea    0x0(%esi),%esi
    17c0:	50                   	push   %eax
    17c1:	50                   	push   %eax
    17c2:	68 03 12 01 00       	push   $0x11203
    17c7:	56                   	push   %esi
    17c8:	e8 03 fc ff ff       	call   13d0 <state_printf>
    17cd:	83 c4 10             	add    $0x10,%esp
    17d0:	31 c0                	xor    %eax,%eax
    17d2:	e9 30 fe ff ff       	jmp    1607 <print_node+0x27>
    17d7:	90                   	nop
    17d8:	31 c0                	xor    %eax,%eax
    17da:	e9 28 fe ff ff       	jmp    1607 <print_node+0x27>
    17df:	90                   	nop
    17e0:	b8 38 12 01 00       	mov    $0x11238,%eax
    17e5:	84 d2                	test   %dl,%dl
    17e7:	0f 85 bc fe ff ff    	jne    16a9 <print_node+0xc9>
    17ed:	b8 3d 12 01 00       	mov    $0x1123d,%eax
    17f2:	e9 b2 fe ff ff       	jmp    16a9 <print_node+0xc9>
    17f7:	90                   	nop
    17f8:	b8 48 12 01 00       	mov    $0x11248,%eax
    17fd:	e9 a7 fe ff ff       	jmp    16a9 <print_node+0xc9>
    1802:	8d b6 00 00 00 00    	lea    0x0(%esi),%esi
    1808:	89 45 c4             	mov    %eax,-0x3c(%ebp)
    180b:	53                   	push   %ebx
    180c:	53                   	push   %ebx
    180d:	68 55 13 01 00       	push   $0x11355
    1812:	56                   	push   %esi
    1813:	e8 b8 fb ff ff       	call   13d0 <state_printf>
    1818:	8b 7e 08             	mov    0x8(%esi),%edi
    181b:	83 c4 10             	add    $0x10,%esp
    181e:	8b 45 c4             	mov    -0x3c(%ebp),%eax
    1821:	85 ff                	test   %edi,%edi
    1823:	0f 8e 36 fe ff ff    	jle    165f <print_node+0x7f>
    1829:	31 db                	xor    %ebx,%ebx
    182b:	90                   	nop
    182c:	8d 74 26 00          	lea    0x0(%esi,%eiz,1),%esi
    1830:	43                   	inc    %ebx
    1831:	51                   	push   %ecx
    1832:	51                   	push   %ecx
    1833:	68 6a 12 01 00       	push   $0x1126a
    1838:	56                   	push   %esi
    1839:	89 45 c4             	mov    %eax,-0x3c(%ebp)
    183c:	e8 8f fb ff ff       	call   13d0 <state_printf>
    1841:	83 c4 10             	add    $0x10,%esp
    1844:	8b 45 c4             	mov    -0x3c(%ebp),%eax
    1847:	3b 5e 08             	cmp    0x8(%esi),%ebx
    184a:	7c e4                	jl     1830 <print_node+0x250>
    184c:	e9 0e fe ff ff       	jmp    165f <print_node+0x7f>
    1851:	8d b4 26 00 00 00 00 	lea    0x0(%esi,%eiz,1),%esi
    1858:	b8 f5 ff ff ff       	mov    $0xfffffff5,%eax
    185d:	c3                   	ret    
    185e:	53                   	push   %ebx
    185f:	68 80 00 00 00       	push   $0x80
    1864:	68 50 12 01 00       	push   $0x11250
    1869:	68 a8 12 01 00       	push   $0x112a8
    186e:	e8 9d 06 01 00       	call   11f10 <assert_abort@plt>
    1873:	8d b6 00 00 00 00    	lea    0x0(%esi),%esi
    1879:	8d bc 27 00 00 00 00 	lea    0x0(%edi,%eiz,1),%edi

00001880 <print_internal_func>:
    1880:	55                   	push   %ebp
    1881:	89 e5                	mov    %esp,%ebp
    1883:	57                   	push   %edi
    1884:	56                   	push   %esi
    1885:	53                   	push   %ebx
    1886:	83 ec 1c             	sub    $0x1c,%esp
    1889:	8b 5d 10             	mov    0x10(%ebp),%ebx
    188c:	8b 75 08             	mov    0x8(%ebp),%esi
    188f:	80 7b 04 00          	cmpb   $0x0,0x4(%ebx)
    1893:	0f 84 87 00 00 00    	je     1920 <print_internal_func+0xa0>
    1899:	50                   	push   %eax
    189a:	50                   	push   %eax
    189b:	68 55 13 01 00       	push   $0x11355
    18a0:	53                   	push   %ebx
    18a1:	e8 2a fb ff ff       	call   13d0 <state_printf>
    18a6:	8b 43 08             	mov    0x8(%ebx),%eax
    18a9:	83 c4 10             	add    $0x10,%esp
    18ac:	31 ff                	xor    %edi,%edi
    18ae:	85 c0                	test   %eax,%eax
    18b0:	7e 1c                	jle    18ce <print_internal_func+0x4e>
    18b2:	8d b6 00 00 00 00    	lea    0x0(%esi),%esi
    18b8:	47                   	inc    %edi
    18b9:	50                   	push   %eax
    18ba:	50                   	push   %eax
    18bb:	68 6a 12 01 00       	push   $0x1126a
    18c0:	53                   	push   %ebx
    18c1:	e8 0a fb ff ff       	call   13d0 <state_printf>
    18c6:	83 c4 10             	add    $0x10,%esp
    18c9:	3b 7b 08             	cmp    0x8(%ebx),%edi
    18cc:	7c ea                	jl     18b8 <print_internal_func+0x38>
    18ce:	c6 43 04 00          	movb   $0x0,0x4(%ebx)
    18d2:	83 3b 01             	cmpl   $0x1,(%ebx)
    18d5:	74 61                	je     1938 <print_internal_func+0xb8>
    18d7:	89 f2                	mov    %esi,%edx
    18d9:	89 d8                	mov    %ebx,%eax
    18db:	e8 00 fd ff ff       	call   15e0 <print_node>
    18e0:	85 c0                	test   %eax,%eax
    18e2:	75 1a                	jne    18fe <print_internal_func+0x7e>
    18e4:	57                   	push   %edi
    18e5:	57                   	push   %edi
    18e6:	68 48 13 01 00       	push   $0x11348
    18eb:	53                   	push   %ebx
    18ec:	e8 df fa ff ff       	call   13d0 <state_printf>
    18f1:	8b 55 0c             	mov    0xc(%ebp),%edx
    18f4:	89 d8                	mov    %ebx,%eax
    18f6:	e8 e5 fc ff ff       	call   15e0 <print_node>
    18fb:	83 c4 10             	add    $0x10,%esp
    18fe:	83 ec 0c             	sub    $0xc,%esp
    1901:	89 45 e4             	mov    %eax,-0x1c(%ebp)
    1904:	56                   	push   %esi
    1905:	e8 16 9d 00 00       	call   b620 <bithenge_node_dec_ref>
    190a:	8b 55 0c             	mov    0xc(%ebp),%edx
    190d:	58                   	pop    %eax
    190e:	52                   	push   %edx
    190f:	e8 0c 9d 00 00       	call   b620 <bithenge_node_dec_ref>
    1914:	8b 45 e4             	mov    -0x1c(%ebp),%eax
    1917:	8d 65 f4             	lea    -0xc(%ebp),%esp
    191a:	5b                   	pop    %ebx
    191b:	5e                   	pop    %esi
    191c:	5f                   	pop    %edi
    191d:	5d                   	pop    %ebp
    191e:	c3                   	ret    
    191f:	90                   	nop
    1920:	50                   	push   %eax
    1921:	50                   	push   %eax
    1922:	68 80 12 01 00       	push   $0x11280
    1927:	53                   	push   %ebx
    1928:	e8 a3 fa ff ff       	call   13d0 <state_printf>
    192d:	83 c4 10             	add    $0x10,%esp
    1930:	e9 64 ff ff ff       	jmp    1899 <print_internal_func+0x19>
    1935:	8d 76 00             	lea    0x0(%esi),%esi
    1938:	83 3e 04             	cmpl   $0x4,(%esi)
    193b:	74 9a                	je     18d7 <print_internal_func+0x57>
    193d:	51                   	push   %ecx
    193e:	51                   	push   %ecx
    193f:	68 03 12 01 00       	push   $0x11203
    1944:	53                   	push   %ebx
    1945:	e8 86 fa ff ff       	call   13d0 <state_printf>
    194a:	89 f2                	mov    %esi,%edx
    194c:	89 d8                	mov    %ebx,%eax
    194e:	e8 8d fc ff ff       	call   15e0 <print_node>
    1953:	83 c4 10             	add    $0x10,%esp
    1956:	85 c0                	test   %eax,%eax
    1958:	75 a4                	jne    18fe <print_internal_func+0x7e>
    195a:	50                   	push   %eax
    195b:	50                   	push   %eax
    195c:	68 03 12 01 00       	push   $0x11203
    1961:	53                   	push   %ebx
    1962:	e8 69 fa ff ff       	call   13d0 <state_printf>
    1967:	83 c4 10             	add    $0x10,%esp
    196a:	e9 75 ff ff ff       	jmp    18e4 <print_internal_func+0x64>
    196f:	90                   	nop

00001970 <bithenge_print_node>:
    1970:	55                   	push   %ebp
    1971:	89 e5                	mov    %esp,%ebp
    1973:	57                   	push   %edi
    1974:	56                   	push   %esi
    1975:	53                   	push   %ebx
    1976:	83 ec 4c             	sub    $0x4c,%esp
    1979:	c6 45 d8 01          	movb   $0x1,-0x28(%ebp)
    197d:	8b 5d 0c             	mov    0xc(%ebp),%ebx
    1980:	8b 45 08             	mov    0x8(%ebp),%eax
    1983:	89 45 d4             	mov    %eax,-0x2c(%ebp)
    1986:	c7 45 dc 00 00 00 00 	movl   $0x0,-0x24(%ebp)
    198d:	c7 45 e0 00 00 00 00 	movl   $0x0,-0x20(%ebp)
    1994:	c7 45 e4 00 00 00 00 	movl   $0x0,-0x1c(%ebp)
    199b:	83 3b 05             	cmpl   $0x5,(%ebx)
    199e:	0f 87 54 01 00 00    	ja     1af8 <bithenge_print_node+0x188>
    19a4:	8b 13                	mov    (%ebx),%edx
    19a6:	ff 24 95 e8 12 01 00 	jmp    *0x112e8(,%edx,4)
    19ad:	8d 76 00             	lea    0x0(%esi),%esi
    19b0:	89 da                	mov    %ebx,%edx
    19b2:	8d 45 d4             	lea    -0x2c(%ebp),%eax
    19b5:	e8 86 fa ff ff       	call   1440 <print_blob>
    19ba:	8d 65 f4             	lea    -0xc(%ebp),%esp
    19bd:	5b                   	pop    %ebx
    19be:	5e                   	pop    %esi
    19bf:	5f                   	pop    %edi
    19c0:	5d                   	pop    %ebp
    19c1:	c3                   	ret    
    19c2:	8d b6 00 00 00 00    	lea    0x0(%esi),%esi
    19c8:	56                   	push   %esi
    19c9:	56                   	push   %esi
    19ca:	8d 75 d4             	lea    -0x2c(%ebp),%esi
    19cd:	68 4e 12 01 00       	push   $0x1124e
    19d2:	56                   	push   %esi
    19d3:	e8 f8 f9 ff ff       	call   13d0 <state_printf>
    19d8:	8b 7d dc             	mov    -0x24(%ebp),%edi
    19db:	83 c4 10             	add    $0x10,%esp
    19de:	47                   	inc    %edi
    19df:	c6 45 d8 01          	movb   $0x1,-0x28(%ebp)
    19e3:	89 7d dc             	mov    %edi,-0x24(%ebp)
    19e6:	83 3b 01             	cmpl   $0x1,(%ebx)
    19e9:	0f 85 0a 02 00 00    	jne    1bf9 <bithenge_print_node+0x289>
    19ef:	51                   	push   %ecx
    19f0:	8b 43 08             	mov    0x8(%ebx),%eax
    19f3:	56                   	push   %esi
    19f4:	68 80 18 00 00       	push   $0x1880
    19f9:	53                   	push   %ebx
    19fa:	ff 10                	call   *(%eax)
    19fc:	83 c4 10             	add    $0x10,%esp
    19ff:	85 c0                	test   %eax,%eax
    1a01:	75 b7                	jne    19ba <bithenge_print_node+0x4a>
    1a03:	8b 55 dc             	mov    -0x24(%ebp),%edx
    1a06:	4a                   	dec    %edx
    1a07:	89 55 dc             	mov    %edx,-0x24(%ebp)
    1a0a:	80 7d d8 00          	cmpb   $0x0,-0x28(%ebp)
    1a0e:	0f 84 9c 01 00 00    	je     1bb0 <bithenge_print_node+0x240>
    1a14:	89 45 b4             	mov    %eax,-0x4c(%ebp)
    1a17:	50                   	push   %eax
    1a18:	50                   	push   %eax
    1a19:	68 68 12 01 00       	push   $0x11268
    1a1e:	56                   	push   %esi
    1a1f:	c6 45 d8 00          	movb   $0x0,-0x28(%ebp)
    1a23:	e8 a8 f9 ff ff       	call   13d0 <state_printf>
    1a28:	8b 45 b4             	mov    -0x4c(%ebp),%eax
    1a2b:	83 c4 10             	add    $0x10,%esp
    1a2e:	8d 65 f4             	lea    -0xc(%ebp),%esp
    1a31:	5b                   	pop    %ebx
    1a32:	5e                   	pop    %esi
    1a33:	5f                   	pop    %edi
    1a34:	5d                   	pop    %ebp
    1a35:	c3                   	ret    
    1a36:	66 90                	xchg   %ax,%ax
    1a38:	8a 53 08             	mov    0x8(%ebx),%dl
    1a3b:	85 c0                	test   %eax,%eax
    1a3d:	0f 84 45 01 00 00    	je     1b88 <bithenge_print_node+0x218>
    1a43:	48                   	dec    %eax
    1a44:	75 1c                	jne    1a62 <bithenge_print_node+0xf2>
    1a46:	b8 43 12 01 00       	mov    $0x11243,%eax
    1a4b:	84 d2                	test   %dl,%dl
    1a4d:	0f 84 4d 01 00 00    	je     1ba0 <bithenge_print_node+0x230>
    1a53:	52                   	push   %edx
    1a54:	52                   	push   %edx
    1a55:	50                   	push   %eax
    1a56:	8d 45 d4             	lea    -0x2c(%ebp),%eax
    1a59:	50                   	push   %eax
    1a5a:	e8 71 f9 ff ff       	call   13d0 <state_printf>
    1a5f:	83 c4 10             	add    $0x10,%esp
    1a62:	31 c0                	xor    %eax,%eax
    1a64:	8d 65 f4             	lea    -0xc(%ebp),%esp
    1a67:	5b                   	pop    %ebx
    1a68:	5e                   	pop    %esi
    1a69:	5f                   	pop    %edi
    1a6a:	5d                   	pop    %ebp
    1a6b:	c3                   	ret    
    1a6c:	8d 74 26 00          	lea    0x0(%esi,%eiz,1),%esi
    1a70:	8b 43 0c             	mov    0xc(%ebx),%eax
    1a73:	50                   	push   %eax
    1a74:	8b 43 08             	mov    0x8(%ebx),%eax
    1a77:	50                   	push   %eax
    1a78:	8d 45 d4             	lea    -0x2c(%ebp),%eax
    1a7b:	68 6f 12 01 00       	push   $0x1126f
    1a80:	50                   	push   %eax
    1a81:	e8 4a f9 ff ff       	call   13d0 <state_printf>
    1a86:	83 c4 10             	add    $0x10,%esp
    1a89:	31 c0                	xor    %eax,%eax
    1a8b:	eb d7                	jmp    1a64 <bithenge_print_node+0xf4>
    1a8d:	8d 76 00             	lea    0x0(%esi),%esi
    1a90:	8d 75 d4             	lea    -0x2c(%ebp),%esi
    1a93:	8b 5b 08             	mov    0x8(%ebx),%ebx
    1a96:	50                   	push   %eax
    1a97:	50                   	push   %eax
    1a98:	68 03 12 01 00       	push   $0x11203
    1a9d:	56                   	push   %esi
    1a9e:	e8 2d f9 ff ff       	call   13d0 <state_printf>
    1aa3:	83 c4 0c             	add    $0xc,%esp
    1aa6:	8d 45 cc             	lea    -0x34(%ebp),%eax
    1aa9:	6a ff                	push   $0xffffffff
    1aab:	89 5d c8             	mov    %ebx,-0x38(%ebp)
    1aae:	50                   	push   %eax
    1aaf:	c7 45 cc 00 00 00 00 	movl   $0x0,-0x34(%ebp)
    1ab6:	53                   	push   %ebx
    1ab7:	e8 44 03 01 00       	call   11e00 <str_decode@plt>
    1abc:	8b 55 c8             	mov    -0x38(%ebp),%edx
    1abf:	89 55 bc             	mov    %edx,-0x44(%ebp)
    1ac2:	8b 55 cc             	mov    -0x34(%ebp),%edx
    1ac5:	89 45 d0             	mov    %eax,-0x30(%ebp)
    1ac8:	89 55 c0             	mov    %edx,-0x40(%ebp)
    1acb:	89 45 c4             	mov    %eax,-0x3c(%ebp)
    1ace:	83 c4 10             	add    $0x10,%esp
    1ad1:	8d 7d c0             	lea    -0x40(%ebp),%edi
    1ad4:	8d 74 26 00          	lea    0x0(%esi,%eiz,1),%esi
    1ad8:	8b 5d c4             	mov    -0x3c(%ebp),%ebx
    1adb:	85 db                	test   %ebx,%ebx
    1add:	0f 84 8d 00 00 00    	je     1b70 <bithenge_print_node+0x200>
    1ae3:	83 fb 3f             	cmp    $0x3f,%ebx
    1ae6:	75 20                	jne    1b08 <bithenge_print_node+0x198>
    1ae8:	8d 65 f4             	lea    -0xc(%ebp),%esp
    1aeb:	b8 f2 ff ff ff       	mov    $0xfffffff2,%eax
    1af0:	5b                   	pop    %ebx
    1af1:	5e                   	pop    %esi
    1af2:	5f                   	pop    %edi
    1af3:	5d                   	pop    %ebp
    1af4:	c3                   	ret    
    1af5:	8d 76 00             	lea    0x0(%esi),%esi
    1af8:	b8 f5 ff ff ff       	mov    $0xfffffff5,%eax
    1afd:	e9 b8 fe ff ff       	jmp    19ba <bithenge_print_node+0x4a>
    1b02:	8d b6 00 00 00 00    	lea    0x0(%esi),%esi
    1b08:	50                   	push   %eax
    1b09:	8b 45 bc             	mov    -0x44(%ebp),%eax
    1b0c:	6a ff                	push   $0xffffffff
    1b0e:	57                   	push   %edi
    1b0f:	50                   	push   %eax
    1b10:	e8 eb 02 01 00       	call   11e00 <str_decode@plt>
    1b15:	83 c4 10             	add    $0x10,%esp
    1b18:	89 45 c4             	mov    %eax,-0x3c(%ebp)
    1b1b:	83 fb 22             	cmp    $0x22,%ebx
    1b1e:	74 38                	je     1b58 <bithenge_print_node+0x1e8>
    1b20:	83 fb 5c             	cmp    $0x5c,%ebx
    1b23:	74 33                	je     1b58 <bithenge_print_node+0x1e8>
    1b25:	83 fb 1f             	cmp    $0x1f,%ebx
    1b28:	7f 16                	jg     1b40 <bithenge_print_node+0x1d0>
    1b2a:	51                   	push   %ecx
    1b2b:	53                   	push   %ebx
    1b2c:	68 79 12 01 00       	push   $0x11279
    1b31:	56                   	push   %esi
    1b32:	e8 99 f8 ff ff       	call   13d0 <state_printf>
    1b37:	83 c4 10             	add    $0x10,%esp
    1b3a:	eb 9c                	jmp    1ad8 <bithenge_print_node+0x168>
    1b3c:	8d 74 26 00          	lea    0x0(%esi,%eiz,1),%esi
    1b40:	52                   	push   %edx
    1b41:	53                   	push   %ebx
    1b42:	68 75 12 01 00       	push   $0x11275
    1b47:	56                   	push   %esi
    1b48:	e8 83 f8 ff ff       	call   13d0 <state_printf>
    1b4d:	83 c4 10             	add    $0x10,%esp
    1b50:	eb 86                	jmp    1ad8 <bithenge_print_node+0x168>
    1b52:	8d b6 00 00 00 00    	lea    0x0(%esi),%esi
    1b58:	50                   	push   %eax
    1b59:	53                   	push   %ebx
    1b5a:	68 74 12 01 00       	push   $0x11274
    1b5f:	56                   	push   %esi
    1b60:	e8 6b f8 ff ff       	call   13d0 <state_printf>
    1b65:	83 c4 10             	add    $0x10,%esp
    1b68:	e9 6b ff ff ff       	jmp    1ad8 <bithenge_print_node+0x168>
    1b6d:	8d 76 00             	lea    0x0(%esi),%esi
    1b70:	50                   	push   %eax
    1b71:	50                   	push   %eax
    1b72:	68 03 12 01 00       	push   $0x11203
    1b77:	56                   	push   %esi
    1b78:	e8 53 f8 ff ff       	call   13d0 <state_printf>
    1b7d:	83 c4 10             	add    $0x10,%esp
    1b80:	31 c0                	xor    %eax,%eax
    1b82:	e9 33 fe ff ff       	jmp    19ba <bithenge_print_node+0x4a>
    1b87:	90                   	nop
    1b88:	b8 38 12 01 00       	mov    $0x11238,%eax
    1b8d:	84 d2                	test   %dl,%dl
    1b8f:	0f 85 be fe ff ff    	jne    1a53 <bithenge_print_node+0xe3>
    1b95:	b8 3d 12 01 00       	mov    $0x1123d,%eax
    1b9a:	e9 b4 fe ff ff       	jmp    1a53 <bithenge_print_node+0xe3>
    1b9f:	90                   	nop
    1ba0:	b8 48 12 01 00       	mov    $0x11248,%eax
    1ba5:	e9 a9 fe ff ff       	jmp    1a53 <bithenge_print_node+0xe3>
    1baa:	8d b6 00 00 00 00    	lea    0x0(%esi),%esi
    1bb0:	89 45 b4             	mov    %eax,-0x4c(%ebp)
    1bb3:	53                   	push   %ebx
    1bb4:	53                   	push   %ebx
    1bb5:	68 55 13 01 00       	push   $0x11355
    1bba:	56                   	push   %esi
    1bbb:	e8 10 f8 ff ff       	call   13d0 <state_printf>
    1bc0:	8b 7d dc             	mov    -0x24(%ebp),%edi
    1bc3:	83 c4 10             	add    $0x10,%esp
    1bc6:	8b 45 b4             	mov    -0x4c(%ebp),%eax
    1bc9:	85 ff                	test   %edi,%edi
    1bcb:	0f 8e 43 fe ff ff    	jle    1a14 <bithenge_print_node+0xa4>
    1bd1:	31 db                	xor    %ebx,%ebx
    1bd3:	90                   	nop
    1bd4:	8d 74 26 00          	lea    0x0(%esi,%eiz,1),%esi
    1bd8:	43                   	inc    %ebx
    1bd9:	51                   	push   %ecx
    1bda:	51                   	push   %ecx
    1bdb:	68 6a 12 01 00       	push   $0x1126a
    1be0:	56                   	push   %esi
    1be1:	89 45 b4             	mov    %eax,-0x4c(%ebp)
    1be4:	e8 e7 f7 ff ff       	call   13d0 <state_printf>
    1be9:	83 c4 10             	add    $0x10,%esp
    1bec:	8b 45 b4             	mov    -0x4c(%ebp),%eax
    1bef:	3b 5d dc             	cmp    -0x24(%ebp),%ebx
    1bf2:	7c e4                	jl     1bd8 <bithenge_print_node+0x268>
    1bf4:	e9 1b fe ff ff       	jmp    1a14 <bithenge_print_node+0xa4>
    1bf9:	53                   	push   %ebx
    1bfa:	68 80 00 00 00       	push   $0x80
    1bff:	68 50 12 01 00       	push   $0x11250
    1c04:	68 a8 12 01 00       	push   $0x112a8
    1c09:	e8 02 03 01 00       	call   11f10 <assert_abort@plt>
    1c0e:	66 90                	xchg   %ax,%ax

00001c10 <bithenge_print_node_to_string>:
    1c10:	55                   	push   %ebp
    1c11:	89 e5                	mov    %esp,%ebp
    1c13:	57                   	push   %edi
    1c14:	56                   	push   %esi
    1c15:	53                   	push   %ebx
    1c16:	83 ec 4c             	sub    $0x4c,%esp
    1c19:	c6 45 d8 01          	movb   $0x1,-0x28(%ebp)
    1c1d:	8b 45 08             	mov    0x8(%ebp),%eax
    1c20:	8b 7d 14             	mov    0x14(%ebp),%edi
    1c23:	8b 55 10             	mov    0x10(%ebp),%edx
    1c26:	c7 45 dc 00 00 00 00 	movl   $0x0,-0x24(%ebp)
    1c2d:	8b 18                	mov    (%eax),%ebx
    1c2f:	8b 45 0c             	mov    0xc(%ebp),%eax
    1c32:	89 55 d4             	mov    %edx,-0x2c(%ebp)
    1c35:	89 5d e0             	mov    %ebx,-0x20(%ebp)
    1c38:	8b 08                	mov    (%eax),%ecx
    1c3a:	83 3f 05             	cmpl   $0x5,(%edi)
    1c3d:	89 4d e4             	mov    %ecx,-0x1c(%ebp)
    1c40:	0f 87 72 01 00 00    	ja     1db8 <bithenge_print_node_to_string+0x1a8>
    1c46:	8b 07                	mov    (%edi),%eax
    1c48:	ff 24 85 00 13 01 00 	jmp    *0x11300(,%eax,4)
    1c4f:	90                   	nop
    1c50:	89 fa                	mov    %edi,%edx
    1c52:	8d 45 d4             	lea    -0x2c(%ebp),%eax
    1c55:	e8 e6 f7 ff ff       	call   1440 <print_blob>
    1c5a:	8b 5d e0             	mov    -0x20(%ebp),%ebx
    1c5d:	8b 4d e4             	mov    -0x1c(%ebp),%ecx
    1c60:	8b 55 08             	mov    0x8(%ebp),%edx
    1c63:	89 1a                	mov    %ebx,(%edx)
    1c65:	8b 55 0c             	mov    0xc(%ebp),%edx
    1c68:	89 0a                	mov    %ecx,(%edx)
    1c6a:	8d 65 f4             	lea    -0xc(%ebp),%esp
    1c6d:	5b                   	pop    %ebx
    1c6e:	5e                   	pop    %esi
    1c6f:	5f                   	pop    %edi
    1c70:	5d                   	pop    %ebp
    1c71:	c3                   	ret    
    1c72:	8d b6 00 00 00 00    	lea    0x0(%esi),%esi
    1c78:	8d 5d d4             	lea    -0x2c(%ebp),%ebx
    1c7b:	56                   	push   %esi
    1c7c:	56                   	push   %esi
    1c7d:	68 4e 12 01 00       	push   $0x1124e
    1c82:	53                   	push   %ebx
    1c83:	e8 48 f7 ff ff       	call   13d0 <state_printf>
    1c88:	8b 45 dc             	mov    -0x24(%ebp),%eax
    1c8b:	83 c4 10             	add    $0x10,%esp
    1c8e:	40                   	inc    %eax
    1c8f:	c6 45 d8 01          	movb   $0x1,-0x28(%ebp)
    1c93:	89 45 dc             	mov    %eax,-0x24(%ebp)
    1c96:	83 3f 01             	cmpl   $0x1,(%edi)
    1c99:	0f 85 fe 01 00 00    	jne    1e9d <bithenge_print_node_to_string+0x28d>
    1c9f:	51                   	push   %ecx
    1ca0:	8b 47 08             	mov    0x8(%edi),%eax
    1ca3:	53                   	push   %ebx
    1ca4:	68 80 18 00 00       	push   $0x1880
    1ca9:	57                   	push   %edi
    1caa:	ff 10                	call   *(%eax)
    1cac:	83 c4 10             	add    $0x10,%esp
    1caf:	85 c0                	test   %eax,%eax
    1cb1:	75 a7                	jne    1c5a <bithenge_print_node_to_string+0x4a>
    1cb3:	8b 55 dc             	mov    -0x24(%ebp),%edx
    1cb6:	4a                   	dec    %edx
    1cb7:	89 55 dc             	mov    %edx,-0x24(%ebp)
    1cba:	80 7d d8 00          	cmpb   $0x0,-0x28(%ebp)
    1cbe:	0f 84 94 01 00 00    	je     1e58 <bithenge_print_node_to_string+0x248>
    1cc4:	89 45 b4             	mov    %eax,-0x4c(%ebp)
    1cc7:	50                   	push   %eax
    1cc8:	50                   	push   %eax
    1cc9:	68 68 12 01 00       	push   $0x11268
    1cce:	53                   	push   %ebx
    1ccf:	c6 45 d8 00          	movb   $0x0,-0x28(%ebp)
    1cd3:	e8 f8 f6 ff ff       	call   13d0 <state_printf>
    1cd8:	8b 5d e0             	mov    -0x20(%ebp),%ebx
    1cdb:	8b 4d e4             	mov    -0x1c(%ebp),%ecx
    1cde:	83 c4 10             	add    $0x10,%esp
    1ce1:	8b 45 b4             	mov    -0x4c(%ebp),%eax
    1ce4:	e9 77 ff ff ff       	jmp    1c60 <bithenge_print_node_to_string+0x50>
    1ce9:	8d b4 26 00 00 00 00 	lea    0x0(%esi,%eiz,1),%esi
    1cf0:	8a 47 08             	mov    0x8(%edi),%al
    1cf3:	85 d2                	test   %edx,%edx
    1cf5:	0f 84 45 01 00 00    	je     1e40 <bithenge_print_node_to_string+0x230>
    1cfb:	4a                   	dec    %edx
    1cfc:	75 23                	jne    1d21 <bithenge_print_node_to_string+0x111>
    1cfe:	ba 48 12 01 00       	mov    $0x11248,%edx
    1d03:	84 c0                	test   %al,%al
    1d05:	74 05                	je     1d0c <bithenge_print_node_to_string+0xfc>
    1d07:	ba 43 12 01 00       	mov    $0x11243,%edx
    1d0c:	8d 45 d4             	lea    -0x2c(%ebp),%eax
    1d0f:	51                   	push   %ecx
    1d10:	51                   	push   %ecx
    1d11:	52                   	push   %edx
    1d12:	50                   	push   %eax
    1d13:	e8 b8 f6 ff ff       	call   13d0 <state_printf>
    1d18:	8b 5d e0             	mov    -0x20(%ebp),%ebx
    1d1b:	8b 4d e4             	mov    -0x1c(%ebp),%ecx
    1d1e:	83 c4 10             	add    $0x10,%esp
    1d21:	31 c0                	xor    %eax,%eax
    1d23:	e9 38 ff ff ff       	jmp    1c60 <bithenge_print_node_to_string+0x50>
    1d28:	8b 47 0c             	mov    0xc(%edi),%eax
    1d2b:	50                   	push   %eax
    1d2c:	8b 47 08             	mov    0x8(%edi),%eax
    1d2f:	50                   	push   %eax
    1d30:	8d 45 d4             	lea    -0x2c(%ebp),%eax
    1d33:	68 6f 12 01 00       	push   $0x1126f
    1d38:	50                   	push   %eax
    1d39:	e8 92 f6 ff ff       	call   13d0 <state_printf>
    1d3e:	8b 5d e0             	mov    -0x20(%ebp),%ebx
    1d41:	8b 4d e4             	mov    -0x1c(%ebp),%ecx
    1d44:	83 c4 10             	add    $0x10,%esp
    1d47:	31 c0                	xor    %eax,%eax
    1d49:	e9 12 ff ff ff       	jmp    1c60 <bithenge_print_node_to_string+0x50>
    1d4e:	66 90                	xchg   %ax,%ax
    1d50:	8d 5d d4             	lea    -0x2c(%ebp),%ebx
    1d53:	8b 7f 08             	mov    0x8(%edi),%edi
    1d56:	50                   	push   %eax
    1d57:	50                   	push   %eax
    1d58:	68 03 12 01 00       	push   $0x11203
    1d5d:	53                   	push   %ebx
    1d5e:	e8 6d f6 ff ff       	call   13d0 <state_printf>
    1d63:	83 c4 0c             	add    $0xc,%esp
    1d66:	8d 45 cc             	lea    -0x34(%ebp),%eax
    1d69:	6a ff                	push   $0xffffffff
    1d6b:	89 7d c8             	mov    %edi,-0x38(%ebp)
    1d6e:	50                   	push   %eax
    1d6f:	c7 45 cc 00 00 00 00 	movl   $0x0,-0x34(%ebp)
    1d76:	57                   	push   %edi
    1d77:	e8 84 00 01 00       	call   11e00 <str_decode@plt>
    1d7c:	8b 55 c8             	mov    -0x38(%ebp),%edx
    1d7f:	89 55 bc             	mov    %edx,-0x44(%ebp)
    1d82:	8b 55 cc             	mov    -0x34(%ebp),%edx
    1d85:	89 45 d0             	mov    %eax,-0x30(%ebp)
    1d88:	89 55 c0             	mov    %edx,-0x40(%ebp)
    1d8b:	89 45 c4             	mov    %eax,-0x3c(%ebp)
    1d8e:	83 c4 10             	add    $0x10,%esp
    1d91:	8d 7d c0             	lea    -0x40(%ebp),%edi
    1d94:	8d 74 26 00          	lea    0x0(%esi,%eiz,1),%esi
    1d98:	8b 75 c4             	mov    -0x3c(%ebp),%esi
    1d9b:	85 f6                	test   %esi,%esi
    1d9d:	0f 84 8d 00 00 00    	je     1e30 <bithenge_print_node_to_string+0x220>
    1da3:	83 fe 3f             	cmp    $0x3f,%esi
    1da6:	75 20                	jne    1dc8 <bithenge_print_node_to_string+0x1b8>
    1da8:	8b 5d e0             	mov    -0x20(%ebp),%ebx
    1dab:	8b 4d e4             	mov    -0x1c(%ebp),%ecx
    1dae:	b8 f2 ff ff ff       	mov    $0xfffffff2,%eax
    1db3:	e9 a8 fe ff ff       	jmp    1c60 <bithenge_print_node_to_string+0x50>
    1db8:	b8 f5 ff ff ff       	mov    $0xfffffff5,%eax
    1dbd:	e9 9e fe ff ff       	jmp    1c60 <bithenge_print_node_to_string+0x50>
    1dc2:	8d b6 00 00 00 00    	lea    0x0(%esi),%esi
    1dc8:	50                   	push   %eax
    1dc9:	8b 45 bc             	mov    -0x44(%ebp),%eax
    1dcc:	6a ff                	push   $0xffffffff
    1dce:	57                   	push   %edi
    1dcf:	50                   	push   %eax
    1dd0:	e8 2b 00 01 00       	call   11e00 <str_decode@plt>
    1dd5:	83 c4 10             	add    $0x10,%esp
    1dd8:	89 45 c4             	mov    %eax,-0x3c(%ebp)
    1ddb:	83 fe 22             	cmp    $0x22,%esi
    1dde:	74 38                	je     1e18 <bithenge_print_node_to_string+0x208>
    1de0:	83 fe 5c             	cmp    $0x5c,%esi
    1de3:	74 33                	je     1e18 <bithenge_print_node_to_string+0x208>
    1de5:	83 fe 1f             	cmp    $0x1f,%esi
    1de8:	7f 16                	jg     1e00 <bithenge_print_node_to_string+0x1f0>
    1dea:	51                   	push   %ecx
    1deb:	56                   	push   %esi
    1dec:	68 79 12 01 00       	push   $0x11279
    1df1:	53                   	push   %ebx
    1df2:	e8 d9 f5 ff ff       	call   13d0 <state_printf>
    1df7:	83 c4 10             	add    $0x10,%esp
    1dfa:	eb 9c                	jmp    1d98 <bithenge_print_node_to_string+0x188>
    1dfc:	8d 74 26 00          	lea    0x0(%esi,%eiz,1),%esi
    1e00:	52                   	push   %edx
    1e01:	56                   	push   %esi
    1e02:	68 75 12 01 00       	push   $0x11275
    1e07:	53                   	push   %ebx
    1e08:	e8 c3 f5 ff ff       	call   13d0 <state_printf>
    1e0d:	83 c4 10             	add    $0x10,%esp
    1e10:	eb 86                	jmp    1d98 <bithenge_print_node_to_string+0x188>
    1e12:	8d b6 00 00 00 00    	lea    0x0(%esi),%esi
    1e18:	50                   	push   %eax
    1e19:	56                   	push   %esi
    1e1a:	68 74 12 01 00       	push   $0x11274
    1e1f:	53                   	push   %ebx
    1e20:	e8 ab f5 ff ff       	call   13d0 <state_printf>
    1e25:	83 c4 10             	add    $0x10,%esp
    1e28:	e9 6b ff ff ff       	jmp    1d98 <bithenge_print_node_to_string+0x188>
    1e2d:	8d 76 00             	lea    0x0(%esi),%esi
    1e30:	50                   	push   %eax
    1e31:	50                   	push   %eax
    1e32:	68 03 12 01 00       	push   $0x11203
    1e37:	53                   	push   %ebx
    1e38:	e9 fc fe ff ff       	jmp    1d39 <bithenge_print_node_to_string+0x129>
    1e3d:	8d 76 00             	lea    0x0(%esi),%esi
    1e40:	ba 3d 12 01 00       	mov    $0x1123d,%edx
    1e45:	84 c0                	test   %al,%al
    1e47:	0f 84 bf fe ff ff    	je     1d0c <bithenge_print_node_to_string+0xfc>
    1e4d:	ba 38 12 01 00       	mov    $0x11238,%edx
    1e52:	e9 b5 fe ff ff       	jmp    1d0c <bithenge_print_node_to_string+0xfc>
    1e57:	90                   	nop
    1e58:	89 45 b4             	mov    %eax,-0x4c(%ebp)
    1e5b:	50                   	push   %eax
    1e5c:	50                   	push   %eax
    1e5d:	68 55 13 01 00       	push   $0x11355
    1e62:	53                   	push   %ebx
    1e63:	e8 68 f5 ff ff       	call   13d0 <state_printf>
    1e68:	8b 45 dc             	mov    -0x24(%ebp),%eax
    1e6b:	83 c4 10             	add    $0x10,%esp
    1e6e:	85 c0                	test   %eax,%eax
    1e70:	8b 45 b4             	mov    -0x4c(%ebp),%eax
    1e73:	0f 8e 4b fe ff ff    	jle    1cc4 <bithenge_print_node_to_string+0xb4>
    1e79:	31 ff                	xor    %edi,%edi
    1e7b:	89 c6                	mov    %eax,%esi
    1e7d:	8d 76 00             	lea    0x0(%esi),%esi
    1e80:	47                   	inc    %edi
    1e81:	50                   	push   %eax
    1e82:	50                   	push   %eax
    1e83:	68 6a 12 01 00       	push   $0x1126a
    1e88:	53                   	push   %ebx
    1e89:	e8 42 f5 ff ff       	call   13d0 <state_printf>
    1e8e:	83 c4 10             	add    $0x10,%esp
    1e91:	3b 7d dc             	cmp    -0x24(%ebp),%edi
    1e94:	7c ea                	jl     1e80 <bithenge_print_node_to_string+0x270>
    1e96:	89 f0                	mov    %esi,%eax
    1e98:	e9 27 fe ff ff       	jmp    1cc4 <bithenge_print_node_to_string+0xb4>
    1e9d:	53                   	push   %ebx
    1e9e:	68 80 00 00 00       	push   $0x80
    1ea3:	68 50 12 01 00       	push   $0x11250
    1ea8:	68 a8 12 01 00       	push   $0x112a8
    1ead:	e8 5e 00 01 00       	call   11f10 <assert_abort@plt>
    1eb2:	66 90                	xchg   %ax,%ax
    1eb4:	66 90                	xchg   %ax,%ax
    1eb6:	66 90                	xchg   %ax,%ax
    1eb8:	66 90                	xchg   %ax,%ax
    1eba:	66 90                	xchg   %ax,%ax
    1ebc:	66 90                	xchg   %ax,%ax
    1ebe:	66 90                	xchg   %ax,%ax

00001ec0 <error_errno.part.1>:
    1ec0:	83 b8 20 10 00 00 86 	cmpl   $0xffffff86,0x1020(%eax)
    1ec7:	74 0f                	je     1ed8 <error_errno.part.1+0x18>
    1ec9:	c7 80 20 10 00 00 80 	movl   $0xffffff80,0x1020(%eax)
    1ed0:	ff ff ff 
    1ed3:	89 10                	mov    %edx,(%eax)
    1ed5:	c3                   	ret    
    1ed6:	66 90                	xchg   %ax,%ax
    1ed8:	55                   	push   %ebp
    1ed9:	89 e5                	mov    %esp,%ebp
    1edb:	83 ec 24             	sub    $0x24,%esp
    1ede:	89 55 f0             	mov    %edx,-0x10(%ebp)
    1ee1:	8b 90 24 10 00 00    	mov    0x1024(%eax),%edx
    1ee7:	52                   	push   %edx
    1ee8:	89 45 f4             	mov    %eax,-0xc(%ebp)
    1eeb:	e8 00 02 01 00       	call   120f0 <free@plt>
    1ef0:	8b 45 f4             	mov    -0xc(%ebp),%eax
    1ef3:	8b 55 f0             	mov    -0x10(%ebp),%edx
    1ef6:	c7 80 20 10 00 00 80 	movl   $0xffffff80,0x1020(%eax)
    1efd:	ff ff ff 
    1f00:	89 10                	mov    %edx,(%eax)
    1f02:	83 c4 10             	add    $0x10,%esp
    1f05:	c9                   	leave  
    1f06:	c3                   	ret    
    1f07:	89 f6                	mov    %esi,%esi
    1f09:	8d bc 27 00 00 00 00 	lea    0x0(%edi,%eiz,1),%edi

00001f10 <bithenge_transform_dec_ref>:
    1f10:	85 c0                	test   %eax,%eax
    1f12:	74 1c                	je     1f30 <bithenge_transform_dec_ref+0x20>
    1f14:	55                   	push   %ebp
    1f15:	89 e5                	mov    %esp,%ebp
    1f17:	83 ec 08             	sub    $0x8,%esp
    1f1a:	8b 08                	mov    (%eax),%ecx
    1f1c:	85 c9                	test   %ecx,%ecx
    1f1e:	74 37                	je     1f57 <bithenge_transform_dec_ref+0x47>
    1f20:	8b 50 04             	mov    0x4(%eax),%edx
    1f23:	85 d2                	test   %edx,%edx
    1f25:	74 1e                	je     1f45 <bithenge_transform_dec_ref+0x35>
    1f27:	4a                   	dec    %edx
    1f28:	89 50 04             	mov    %edx,0x4(%eax)
    1f2b:	85 d2                	test   %edx,%edx
    1f2d:	74 09                	je     1f38 <bithenge_transform_dec_ref+0x28>
    1f2f:	c9                   	leave  
    1f30:	c3                   	ret    
    1f31:	8d b4 26 00 00 00 00 	lea    0x0(%esi,%eiz,1),%esi
    1f38:	83 ec 0c             	sub    $0xc,%esp
    1f3b:	50                   	push   %eax
    1f3c:	ff 51 0c             	call   *0xc(%ecx)
    1f3f:	83 c4 10             	add    $0x10,%esp
    1f42:	c9                   	leave  
    1f43:	eb eb                	jmp    1f30 <bithenge_transform_dec_ref+0x20>
    1f45:	50                   	push   %eax
    1f46:	6a 75                	push   $0x75
    1f48:	68 18 13 01 00       	push   $0x11318
    1f4d:	68 6b 11 01 00       	push   $0x1116b
    1f52:	e8 b9 ff 00 00       	call   11f10 <assert_abort@plt>
    1f57:	52                   	push   %edx
    1f58:	6a 74                	push   $0x74
    1f5a:	68 18 13 01 00       	push   $0x11318
    1f5f:	68 61 11 01 00       	push   $0x11161
    1f64:	e8 a7 ff 00 00       	call   11f10 <assert_abort@plt>
    1f69:	8d b4 26 00 00 00 00 	lea    0x0(%esi,%eiz,1),%esi

00001f70 <get_named_transform.isra.7>:
    1f70:	55                   	push   %ebp
    1f71:	85 c0                	test   %eax,%eax
    1f73:	89 e5                	mov    %esp,%ebp
    1f75:	56                   	push   %esi
    1f76:	89 d6                	mov    %edx,%esi
    1f78:	53                   	push   %ebx
    1f79:	89 c3                	mov    %eax,%ebx
    1f7b:	75 0a                	jne    1f87 <get_named_transform.isra.7+0x17>
    1f7d:	eb 31                	jmp    1fb0 <get_named_transform.isra.7+0x40>
    1f7f:	90                   	nop
    1f80:	8b 5b 08             	mov    0x8(%ebx),%ebx
    1f83:	85 db                	test   %ebx,%ebx
    1f85:	74 29                	je     1fb0 <get_named_transform.isra.7+0x40>
    1f87:	50                   	push   %eax
    1f88:	50                   	push   %eax
    1f89:	56                   	push   %esi
    1f8a:	8b 03                	mov    (%ebx),%eax
    1f8c:	50                   	push   %eax
    1f8d:	e8 2e 00 01 00       	call   11fc0 <str_cmp@plt>
    1f92:	83 c4 10             	add    $0x10,%esp
    1f95:	85 c0                	test   %eax,%eax
    1f97:	75 e7                	jne    1f80 <get_named_transform.isra.7+0x10>
    1f99:	8b 43 04             	mov    0x4(%ebx),%eax
    1f9c:	85 c0                	test   %eax,%eax
    1f9e:	74 54                	je     1ff4 <get_named_transform.isra.7+0x84>
    1fa0:	8b 50 04             	mov    0x4(%eax),%edx
    1fa3:	42                   	inc    %edx
    1fa4:	89 50 04             	mov    %edx,0x4(%eax)
    1fa7:	8d 65 f8             	lea    -0x8(%ebp),%esp
    1faa:	5b                   	pop    %ebx
    1fab:	5e                   	pop    %esi
    1fac:	5d                   	pop    %ebp
    1fad:	c3                   	ret    
    1fae:	66 90                	xchg   %ax,%ax
    1fb0:	a1 40 3a 01 00       	mov    0x13a40,%eax
    1fb5:	31 db                	xor    %ebx,%ebx
    1fb7:	8b 00                	mov    (%eax),%eax
    1fb9:	85 c0                	test   %eax,%eax
    1fbb:	75 1a                	jne    1fd7 <get_named_transform.isra.7+0x67>
    1fbd:	8d 65 f8             	lea    -0x8(%ebp),%esp
    1fc0:	31 c0                	xor    %eax,%eax
    1fc2:	5b                   	pop    %ebx
    1fc3:	5e                   	pop    %esi
    1fc4:	5d                   	pop    %ebp
    1fc5:	c3                   	ret    
    1fc6:	66 90                	xchg   %ax,%ax
    1fc8:	83 c3 08             	add    $0x8,%ebx
    1fcb:	a1 40 3a 01 00       	mov    0x13a40,%eax
    1fd0:	8b 04 18             	mov    (%eax,%ebx,1),%eax
    1fd3:	85 c0                	test   %eax,%eax
    1fd5:	74 e6                	je     1fbd <get_named_transform.isra.7+0x4d>
    1fd7:	51                   	push   %ecx
    1fd8:	51                   	push   %ecx
    1fd9:	56                   	push   %esi
    1fda:	50                   	push   %eax
    1fdb:	e8 e0 ff 00 00       	call   11fc0 <str_cmp@plt>
    1fe0:	83 c4 10             	add    $0x10,%esp
    1fe3:	85 c0                	test   %eax,%eax
    1fe5:	75 e1                	jne    1fc8 <get_named_transform.isra.7+0x58>
    1fe7:	a1 40 3a 01 00       	mov    0x13a40,%eax
    1fec:	8b 44 18 04          	mov    0x4(%eax,%ebx,1),%eax
    1ff0:	85 c0                	test   %eax,%eax
    1ff2:	75 ac                	jne    1fa0 <get_named_transform.isra.7+0x30>
    1ff4:	53                   	push   %ebx
    1ff5:	6a 6a                	push   $0x6a
    1ff7:	68 18 13 01 00       	push   $0x11318
    1ffc:	68 35 13 01 00       	push   $0x11335
    2001:	e8 0a ff 00 00       	call   11f10 <assert_abort@plt>
    2006:	8d 76 00             	lea    0x0(%esi),%esi
    2009:	8d bc 27 00 00 00 00 	lea    0x0(%edi,%eiz,1),%edi

00002010 <syntax_error.part.2>:
    2010:	55                   	push   %ebp
    2011:	89 e5                	mov    %esp,%ebp
    2013:	57                   	push   %edi
    2014:	56                   	push   %esi
    2015:	53                   	push   %ebx
    2016:	83 ec 1c             	sub    $0x1c,%esp
    2019:	89 d7                	mov    %edx,%edi
    201b:	8b 98 1c 10 00 00    	mov    0x101c(%eax),%ebx
    2021:	8b 90 14 10 00 00    	mov    0x1014(%eax),%edx
    2027:	8b 88 10 10 00 00    	mov    0x1010(%eax),%ecx
    202d:	01 da                	add    %ebx,%edx
    202f:	01 cb                	add    %ecx,%ebx
    2031:	89 c6                	mov    %eax,%esi
    2033:	89 d8                	mov    %ebx,%eax
    2035:	89 55 e0             	mov    %edx,-0x20(%ebp)
    2038:	29 d0                	sub    %edx,%eax
    203a:	89 45 e4             	mov    %eax,-0x1c(%ebp)
    203d:	8b 86 18 10 00 00    	mov    0x1018(%esi),%eax
    2043:	50                   	push   %eax
    2044:	8b 46 08             	mov    0x8(%esi),%eax
    2047:	50                   	push   %eax
    2048:	a1 28 3d 01 00       	mov    0x13d28,%eax
    204d:	68 3a 13 01 00       	push   $0x1133a
    2052:	50                   	push   %eax
    2053:	e8 d8 fe 00 00       	call   11f30 <fprintf@plt>
    2058:	83 c4 10             	add    $0x10,%esp
    205b:	8b 55 e0             	mov    -0x20(%ebp),%edx
    205e:	83 7d e4 01          	cmpl   $0x1,-0x1c(%ebp)
    2062:	76 74                	jbe    20d8 <syntax_error.part.2+0xc8>
    2064:	a1 28 3d 01 00       	mov    0x13d28,%eax
    2069:	4b                   	dec    %ebx
    206a:	53                   	push   %ebx
    206b:	52                   	push   %edx
    206c:	68 41 13 01 00       	push   $0x11341
    2071:	50                   	push   %eax
    2072:	e8 b9 fe 00 00       	call   11f30 <fprintf@plt>
    2077:	83 c4 10             	add    $0x10,%esp
    207a:	8b 86 14 10 00 00    	mov    0x1014(%esi),%eax
    2080:	83 ec 0c             	sub    $0xc,%esp
    2083:	8b 55 e4             	mov    -0x1c(%ebp),%edx
    2086:	8b 0d 28 3d 01 00    	mov    0x13d28,%ecx
    208c:	8d 44 06 10          	lea    0x10(%esi,%eax,1),%eax
    2090:	50                   	push   %eax
    2091:	52                   	push   %edx
    2092:	57                   	push   %edi
    2093:	68 4b 13 01 00       	push   $0x1134b
    2098:	51                   	push   %ecx
    2099:	e8 92 fe 00 00       	call   11f30 <fprintf@plt>
    209e:	8b 1e                	mov    (%esi),%ebx
    20a0:	83 c4 20             	add    $0x20,%esp
    20a3:	85 db                	test   %ebx,%ebx
    20a5:	74 09                	je     20b0 <syntax_error.part.2+0xa0>
    20a7:	8d 65 f4             	lea    -0xc(%ebp),%esp
    20aa:	5b                   	pop    %ebx
    20ab:	5e                   	pop    %esi
    20ac:	5f                   	pop    %edi
    20ad:	5d                   	pop    %ebp
    20ae:	c3                   	ret    
    20af:	90                   	nop
    20b0:	83 be 20 10 00 00 86 	cmpl   $0xffffff86,0x1020(%esi)
    20b7:	74 37                	je     20f0 <syntax_error.part.2+0xe0>
    20b9:	c7 86 20 10 00 00 80 	movl   $0xffffff80,0x1020(%esi)
    20c0:	ff ff ff 
    20c3:	c7 06 f2 ff ff ff    	movl   $0xfffffff2,(%esi)
    20c9:	8d 65 f4             	lea    -0xc(%ebp),%esp
    20cc:	5b                   	pop    %ebx
    20cd:	5e                   	pop    %esi
    20ce:	5f                   	pop    %edi
    20cf:	5d                   	pop    %ebp
    20d0:	c3                   	ret    
    20d1:	8d b4 26 00 00 00 00 	lea    0x0(%esi,%eiz,1),%esi
    20d8:	50                   	push   %eax
    20d9:	a1 28 3d 01 00       	mov    0x13d28,%eax
    20de:	52                   	push   %edx
    20df:	68 45 13 01 00       	push   $0x11345
    20e4:	50                   	push   %eax
    20e5:	e8 46 fe 00 00       	call   11f30 <fprintf@plt>
    20ea:	83 c4 10             	add    $0x10,%esp
    20ed:	eb 8b                	jmp    207a <syntax_error.part.2+0x6a>
    20ef:	90                   	nop
    20f0:	83 ec 0c             	sub    $0xc,%esp
    20f3:	8b 86 24 10 00 00    	mov    0x1024(%esi),%eax
    20f9:	50                   	push   %eax
    20fa:	e8 f1 ff 00 00       	call   120f0 <free@plt>
    20ff:	83 c4 10             	add    $0x10,%esp
    2102:	eb b5                	jmp    20b9 <syntax_error.part.2+0xa9>
    2104:	8d b6 00 00 00 00    	lea    0x0(%esi),%esi
    210a:	8d bf 00 00 00 00    	lea    0x0(%edi),%edi

00002110 <next_token>:
    2110:	55                   	push   %ebp
    2111:	89 e5                	mov    %esp,%ebp
    2113:	57                   	push   %edi
    2114:	56                   	push   %esi
    2115:	53                   	push   %ebx
    2116:	83 ec 2c             	sub    $0x2c,%esp
    2119:	89 c6                	mov    %eax,%esi
    211b:	8b 98 10 10 00 00    	mov    0x1010(%eax),%ebx
    2121:	8d 40 10             	lea    0x10(%eax),%eax
    2124:	89 45 d4             	mov    %eax,-0x2c(%ebp)
    2127:	90                   	nop
    2128:	8d 83 00 01 00 00    	lea    0x100(%ebx),%eax
    212e:	3d ff 0f 00 00       	cmp    $0xfff,%eax
    2133:	0f 87 f7 00 00 00    	ja     2230 <next_token+0x120>
    2139:	8b 86 20 10 00 00    	mov    0x1020(%esi),%eax
    213f:	83 f8 86             	cmp    $0xffffff86,%eax
    2142:	0f 84 64 01 00 00    	je     22ac <next_token+0x19c>
    2148:	8b 9e 10 10 00 00    	mov    0x1010(%esi),%ebx
    214e:	c7 86 20 10 00 00 80 	movl   $0xffffff80,0x1020(%esi)
    2155:	ff ff ff 
    2158:	89 9e 14 10 00 00    	mov    %ebx,0x1014(%esi)
    215e:	8a 44 1e 10          	mov    0x10(%esi,%ebx,1),%al
    2162:	84 c0                	test   %al,%al
    2164:	0f 84 80 03 00 00    	je     24ea <next_token+0x3da>
    216a:	3c 23                	cmp    $0x23,%al
    216c:	0f 85 51 01 00 00    	jne    22c3 <next_token+0x1b3>
    2172:	8d b6 00 00 00 00    	lea    0x0(%esi),%esi
    2178:	8a 44 1e 10          	mov    0x10(%esi,%ebx,1),%al
    217c:	3c 0a                	cmp    $0xa,%al
    217e:	74 a8                	je     2128 <next_token+0x18>
    2180:	84 c0                	test   %al,%al
    2182:	74 a4                	je     2128 <next_token+0x18>
    2184:	8d 7b 01             	lea    0x1(%ebx),%edi
    2187:	8d 83 01 01 00 00    	lea    0x101(%ebx),%eax
    218d:	89 be 10 10 00 00    	mov    %edi,0x1010(%esi)
    2193:	89 fb                	mov    %edi,%ebx
    2195:	3d ff 0f 00 00       	cmp    $0xfff,%eax
    219a:	76 dc                	jbe    2178 <next_token+0x68>
    219c:	51                   	push   %ecx
    219d:	8b 4d d4             	mov    -0x2c(%ebp),%ecx
    21a0:	89 c8                	mov    %ecx,%eax
    21a2:	bb ff 0f 00 00       	mov    $0xfff,%ebx
    21a7:	29 fb                	sub    %edi,%ebx
    21a9:	01 f8                	add    %edi,%eax
    21ab:	53                   	push   %ebx
    21ac:	50                   	push   %eax
    21ad:	51                   	push   %ecx
    21ae:	e8 0d fc 00 00       	call   11dc0 <memmove@plt>
    21b3:	8b 86 10 10 00 00    	mov    0x1010(%esi),%eax
    21b9:	8b 96 1c 10 00 00    	mov    0x101c(%esi),%edx
    21bf:	01 c2                	add    %eax,%edx
    21c1:	8b 45 d4             	mov    -0x2c(%ebp),%eax
    21c4:	8b 4e 0c             	mov    0xc(%esi),%ecx
    21c7:	01 d8                	add    %ebx,%eax
    21c9:	89 96 1c 10 00 00    	mov    %edx,0x101c(%esi)
    21cf:	c7 86 10 10 00 00 00 	movl   $0x0,0x1010(%esi)
    21d6:	00 00 00 
    21d9:	51                   	push   %ecx
    21da:	57                   	push   %edi
    21db:	6a 01                	push   $0x1
    21dd:	50                   	push   %eax
    21de:	e8 ed fd 00 00       	call   11fd0 <fread@plt>
    21e3:	83 c4 14             	add    $0x14,%esp
    21e6:	89 c7                	mov    %eax,%edi
    21e8:	8b 46 0c             	mov    0xc(%esi),%eax
    21eb:	50                   	push   %eax
    21ec:	e8 8f fd 00 00       	call   11f80 <ferror@plt>
    21f1:	83 c4 10             	add    $0x10,%esp
    21f4:	85 c0                	test   %eax,%eax
    21f6:	74 06                	je     21fe <next_token+0xee>
    21f8:	8b 16                	mov    (%esi),%edx
    21fa:	85 d2                	test   %edx,%edx
    21fc:	74 12                	je     2210 <next_token+0x100>
    21fe:	01 f3                	add    %esi,%ebx
    2200:	c6 44 1f 10 00       	movb   $0x0,0x10(%edi,%ebx,1)
    2205:	8b 9e 10 10 00 00    	mov    0x1010(%esi),%ebx
    220b:	e9 68 ff ff ff       	jmp    2178 <next_token+0x68>
    2210:	83 be 20 10 00 00 86 	cmpl   $0xffffff86,0x1020(%esi)
    2217:	0f 84 6b 02 00 00    	je     2488 <next_token+0x378>
    221d:	c7 86 20 10 00 00 80 	movl   $0xffffff80,0x1020(%esi)
    2224:	ff ff ff 
    2227:	c7 06 f6 fe ff ff    	movl   $0xfffffef6,(%esi)
    222d:	eb cf                	jmp    21fe <next_token+0xee>
    222f:	90                   	nop
    2230:	8b 55 d4             	mov    -0x2c(%ebp),%edx
    2233:	bf ff 0f 00 00       	mov    $0xfff,%edi
    2238:	50                   	push   %eax
    2239:	89 d0                	mov    %edx,%eax
    223b:	29 df                	sub    %ebx,%edi
    223d:	01 d8                	add    %ebx,%eax
    223f:	57                   	push   %edi
    2240:	50                   	push   %eax
    2241:	52                   	push   %edx
    2242:	e8 79 fb 00 00       	call   11dc0 <memmove@plt>
    2247:	8b 86 10 10 00 00    	mov    0x1010(%esi),%eax
    224d:	8b 96 1c 10 00 00    	mov    0x101c(%esi),%edx
    2253:	01 c2                	add    %eax,%edx
    2255:	8b 45 d4             	mov    -0x2c(%ebp),%eax
    2258:	8b 4e 0c             	mov    0xc(%esi),%ecx
    225b:	01 f8                	add    %edi,%eax
    225d:	89 96 1c 10 00 00    	mov    %edx,0x101c(%esi)
    2263:	c7 86 10 10 00 00 00 	movl   $0x0,0x1010(%esi)
    226a:	00 00 00 
    226d:	51                   	push   %ecx
    226e:	53                   	push   %ebx
    226f:	6a 01                	push   $0x1
    2271:	50                   	push   %eax
    2272:	e8 59 fd 00 00       	call   11fd0 <fread@plt>
    2277:	83 c4 14             	add    $0x14,%esp
    227a:	89 c3                	mov    %eax,%ebx
    227c:	8b 46 0c             	mov    0xc(%esi),%eax
    227f:	50                   	push   %eax
    2280:	e8 fb fc 00 00       	call   11f80 <ferror@plt>
    2285:	83 c4 10             	add    $0x10,%esp
    2288:	85 c0                	test   %eax,%eax
    228a:	74 0a                	je     2296 <next_token+0x186>
    228c:	8b 06                	mov    (%esi),%eax
    228e:	85 c0                	test   %eax,%eax
    2290:	0f 84 35 02 00 00    	je     24cb <next_token+0x3bb>
    2296:	01 f7                	add    %esi,%edi
    2298:	8b 86 20 10 00 00    	mov    0x1020(%esi),%eax
    229e:	83 f8 86             	cmp    $0xffffff86,%eax
    22a1:	c6 44 3b 10 00       	movb   $0x0,0x10(%ebx,%edi,1)
    22a6:	0f 85 9c fe ff ff    	jne    2148 <next_token+0x38>
    22ac:	83 ec 0c             	sub    $0xc,%esp
    22af:	8b 86 24 10 00 00    	mov    0x1024(%esi),%eax
    22b5:	50                   	push   %eax
    22b6:	e8 35 fe 00 00       	call   120f0 <free@plt>
    22bb:	83 c4 10             	add    $0x10,%esp
    22be:	e9 85 fe ff ff       	jmp    2148 <next_token+0x38>
    22c3:	3c 09                	cmp    $0x9,%al
    22c5:	7c 32                	jl     22f9 <next_token+0x1e9>
    22c7:	3c 0d                	cmp    $0xd,%al
    22c9:	7e 04                	jle    22cf <next_token+0x1bf>
    22cb:	3c 20                	cmp    $0x20,%al
    22cd:	75 2a                	jne    22f9 <next_token+0x1e9>
    22cf:	89 d9                	mov    %ebx,%ecx
    22d1:	f7 d9                	neg    %ecx
    22d3:	3c 09                	cmp    $0x9,%al
    22d5:	0f 8c 4d fe ff ff    	jl     2128 <next_token+0x18>
    22db:	3c 0d                	cmp    $0xd,%al
    22dd:	0f 8e bc 01 00 00    	jle    249f <next_token+0x38f>
    22e3:	3c 20                	cmp    $0x20,%al
    22e5:	0f 85 3d fe ff ff    	jne    2128 <next_token+0x18>
    22eb:	43                   	inc    %ebx
    22ec:	49                   	dec    %ecx
    22ed:	89 9e 10 10 00 00    	mov    %ebx,0x1010(%esi)
    22f3:	8a 44 1e 10          	mov    0x10(%esi,%ebx,1),%al
    22f7:	eb da                	jmp    22d3 <next_token+0x1c3>
    22f9:	88 c1                	mov    %al,%cl
    22fb:	83 e1 df             	and    $0xffffffdf,%ecx
    22fe:	83 e9 41             	sub    $0x41,%ecx
    2301:	80 f9 19             	cmp    $0x19,%cl
    2304:	0f 87 f2 01 00 00    	ja     24fc <next_token+0x3ec>
    230a:	89 d9                	mov    %ebx,%ecx
    230c:	eb 0d                	jmp    231b <next_token+0x20b>
    230e:	66 90                	xchg   %ax,%ax
    2310:	41                   	inc    %ecx
    2311:	89 8e 10 10 00 00    	mov    %ecx,0x1010(%esi)
    2317:	8a 44 0e 10          	mov    0x10(%esi,%ecx,1),%al
    231b:	88 c2                	mov    %al,%dl
    231d:	83 e2 df             	and    $0xffffffdf,%edx
    2320:	83 ea 41             	sub    $0x41,%edx
    2323:	80 fa 19             	cmp    $0x19,%dl
    2326:	76 e8                	jbe    2310 <next_token+0x200>
    2328:	0f be d0             	movsbl %al,%edx
    232b:	83 ea 30             	sub    $0x30,%edx
    232e:	83 fa 09             	cmp    $0x9,%edx
    2331:	76 dd                	jbe    2310 <next_token+0x200>
    2333:	3c 5f                	cmp    $0x5f,%al
    2335:	74 d9                	je     2310 <next_token+0x200>
    2337:	29 d9                	sub    %ebx,%ecx
    2339:	50                   	push   %eax
    233a:	50                   	push   %eax
    233b:	8d 44 1e 10          	lea    0x10(%esi,%ebx,1),%eax
    233f:	51                   	push   %ecx
    2340:	50                   	push   %eax
    2341:	e8 ea fa 00 00       	call   11e30 <str_ndup@plt>
    2346:	83 c4 10             	add    $0x10,%esp
    2349:	89 c3                	mov    %eax,%ebx
    234b:	85 c0                	test   %eax,%eax
    234d:	0f 84 e1 02 00 00    	je     2634 <next_token+0x524>
    2353:	50                   	push   %eax
    2354:	50                   	push   %eax
    2355:	68 57 13 01 00       	push   $0x11357
    235a:	53                   	push   %ebx
    235b:	e8 60 fc 00 00       	call   11fc0 <str_cmp@plt>
    2360:	83 c4 10             	add    $0x10,%esp
    2363:	85 c0                	test   %eax,%eax
    2365:	0f 84 ae 02 00 00    	je     2619 <next_token+0x509>
    236b:	57                   	push   %edi
    236c:	57                   	push   %edi
    236d:	68 5a 13 01 00       	push   $0x1135a
    2372:	53                   	push   %ebx
    2373:	e8 48 fc 00 00       	call   11fc0 <str_cmp@plt>
    2378:	83 c4 10             	add    $0x10,%esp
    237b:	85 c0                	test   %eax,%eax
    237d:	0f 84 75 03 00 00    	je     26f8 <next_token+0x5e8>
    2383:	51                   	push   %ecx
    2384:	51                   	push   %ecx
    2385:	68 48 12 01 00       	push   $0x11248
    238a:	53                   	push   %ebx
    238b:	e8 30 fc 00 00       	call   11fc0 <str_cmp@plt>
    2390:	83 c4 10             	add    $0x10,%esp
    2393:	85 c0                	test   %eax,%eax
    2395:	0f 84 c5 02 00 00    	je     2660 <next_token+0x550>
    239b:	52                   	push   %edx
    239c:	52                   	push   %edx
    239d:	68 5f 13 01 00       	push   $0x1135f
    23a2:	53                   	push   %ebx
    23a3:	e8 18 fc 00 00       	call   11fc0 <str_cmp@plt>
    23a8:	83 c4 10             	add    $0x10,%esp
    23ab:	85 c0                	test   %eax,%eax
    23ad:	0f 84 f0 03 00 00    	je     27a3 <next_token+0x693>
    23b3:	50                   	push   %eax
    23b4:	50                   	push   %eax
    23b5:	68 13 14 01 00       	push   $0x11413
    23ba:	53                   	push   %ebx
    23bb:	e8 00 fc 00 00       	call   11fc0 <str_cmp@plt>
    23c0:	83 c4 10             	add    $0x10,%esp
    23c3:	85 c0                	test   %eax,%eax
    23c5:	0f 84 bd 03 00 00    	je     2788 <next_token+0x678>
    23cb:	50                   	push   %eax
    23cc:	50                   	push   %eax
    23cd:	68 62 13 01 00       	push   $0x11362
    23d2:	53                   	push   %ebx
    23d3:	e8 e8 fb 00 00       	call   11fc0 <str_cmp@plt>
    23d8:	83 c4 10             	add    $0x10,%esp
    23db:	85 c0                	test   %eax,%eax
    23dd:	0f 84 ce 04 00 00    	je     28b1 <next_token+0x7a1>
    23e3:	50                   	push   %eax
    23e4:	50                   	push   %eax
    23e5:	68 6a 13 01 00       	push   $0x1136a
    23ea:	53                   	push   %ebx
    23eb:	e8 d0 fb 00 00       	call   11fc0 <str_cmp@plt>
    23f0:	83 c4 10             	add    $0x10,%esp
    23f3:	85 c0                	test   %eax,%eax
    23f5:	0f 84 9b 04 00 00    	je     2896 <next_token+0x786>
    23fb:	50                   	push   %eax
    23fc:	50                   	push   %eax
    23fd:	68 71 13 01 00       	push   $0x11371
    2402:	53                   	push   %ebx
    2403:	e8 b8 fb 00 00       	call   11fc0 <str_cmp@plt>
    2408:	83 c4 10             	add    $0x10,%esp
    240b:	85 c0                	test   %eax,%eax
    240d:	0f 84 68 04 00 00    	je     287b <next_token+0x76b>
    2413:	50                   	push   %eax
    2414:	50                   	push   %eax
    2415:	68 78 13 01 00       	push   $0x11378
    241a:	53                   	push   %ebx
    241b:	e8 a0 fb 00 00       	call   11fc0 <str_cmp@plt>
    2420:	83 c4 10             	add    $0x10,%esp
    2423:	85 c0                	test   %eax,%eax
    2425:	0f 84 35 04 00 00    	je     2860 <next_token+0x750>
    242b:	50                   	push   %eax
    242c:	50                   	push   %eax
    242d:	68 2c 15 01 00       	push   $0x1152c
    2432:	53                   	push   %ebx
    2433:	e8 88 fb 00 00       	call   11fc0 <str_cmp@plt>
    2438:	83 c4 10             	add    $0x10,%esp
    243b:	85 c0                	test   %eax,%eax
    243d:	0f 84 02 04 00 00    	je     2845 <next_token+0x735>
    2443:	57                   	push   %edi
    2444:	57                   	push   %edi
    2445:	68 43 12 01 00       	push   $0x11243
    244a:	53                   	push   %ebx
    244b:	e8 70 fb 00 00       	call   11fc0 <str_cmp@plt>
    2450:	83 c4 10             	add    $0x10,%esp
    2453:	85 c0                	test   %eax,%eax
    2455:	0f 84 cf 03 00 00    	je     282a <next_token+0x71a>
    245b:	51                   	push   %ecx
    245c:	51                   	push   %ecx
    245d:	68 7f 13 01 00       	push   $0x1137f
    2462:	53                   	push   %ebx
    2463:	e8 58 fb 00 00       	call   11fc0 <str_cmp@plt>
    2468:	83 c4 10             	add    $0x10,%esp
    246b:	85 c0                	test   %eax,%eax
    246d:	0f 84 c5 04 00 00    	je     2938 <next_token+0x828>
    2473:	c7 86 20 10 00 00 86 	movl   $0xffffff86,0x1020(%esi)
    247a:	ff ff ff 
    247d:	89 9e 24 10 00 00    	mov    %ebx,0x1024(%esi)
    2483:	eb 6f                	jmp    24f4 <next_token+0x3e4>
    2485:	8d 76 00             	lea    0x0(%esi),%esi
    2488:	83 ec 0c             	sub    $0xc,%esp
    248b:	8b 86 24 10 00 00    	mov    0x1024(%esi),%eax
    2491:	50                   	push   %eax
    2492:	e8 59 fc 00 00       	call   120f0 <free@plt>
    2497:	83 c4 10             	add    $0x10,%esp
    249a:	e9 7e fd ff ff       	jmp    221d <next_token+0x10d>
    249f:	3c 0a                	cmp    $0xa,%al
    24a1:	0f 85 44 fe ff ff    	jne    22eb <next_token+0x1db>
    24a7:	8b 86 18 10 00 00    	mov    0x1018(%esi),%eax
    24ad:	43                   	inc    %ebx
    24ae:	40                   	inc    %eax
    24af:	89 8e 1c 10 00 00    	mov    %ecx,0x101c(%esi)
    24b5:	89 86 18 10 00 00    	mov    %eax,0x1018(%esi)
    24bb:	89 9e 10 10 00 00    	mov    %ebx,0x1010(%esi)
    24c1:	8a 44 1e 10          	mov    0x10(%esi,%ebx,1),%al
    24c5:	49                   	dec    %ecx
    24c6:	e9 08 fe ff ff       	jmp    22d3 <next_token+0x1c3>
    24cb:	83 be 20 10 00 00 86 	cmpl   $0xffffff86,0x1020(%esi)
    24d2:	0f 84 d8 00 00 00    	je     25b0 <next_token+0x4a0>
    24d8:	01 f7                	add    %esi,%edi
    24da:	c7 06 f6 fe ff ff    	movl   $0xfffffef6,(%esi)
    24e0:	c6 44 3b 10 00       	movb   $0x0,0x10(%ebx,%edi,1)
    24e5:	e9 5e fc ff ff       	jmp    2148 <next_token+0x38>
    24ea:	c7 86 20 10 00 00 84 	movl   $0xffffff84,0x1020(%esi)
    24f1:	ff ff ff 
    24f4:	8d 65 f4             	lea    -0xc(%ebp),%esp
    24f7:	5b                   	pop    %ebx
    24f8:	5e                   	pop    %esi
    24f9:	5f                   	pop    %edi
    24fa:	5d                   	pop    %ebp
    24fb:	c3                   	ret    
    24fc:	0f be c8             	movsbl %al,%ecx
    24ff:	8d 51 d0             	lea    -0x30(%ecx),%edx
    2502:	83 fa 09             	cmp    $0x9,%edx
    2505:	0f 87 bc 00 00 00    	ja     25c7 <next_token+0x4b7>
    250b:	8d 4b 01             	lea    0x1(%ebx),%ecx
    250e:	eb 02                	jmp    2512 <next_token+0x402>
    2510:	89 d1                	mov    %edx,%ecx
    2512:	0f be 44 0e 10       	movsbl 0x10(%esi,%ecx,1),%eax
    2517:	83 e8 30             	sub    $0x30,%eax
    251a:	8d 51 01             	lea    0x1(%ecx),%edx
    251d:	83 f8 09             	cmp    $0x9,%eax
    2520:	76 ee                	jbe    2510 <next_token+0x400>
    2522:	8d 7c 1e 10          	lea    0x10(%esi,%ebx,1),%edi
    2526:	89 8e 10 10 00 00    	mov    %ecx,0x1010(%esi)
    252c:	c7 86 20 10 00 00 87 	movl   $0xffffff87,0x1020(%esi)
    2533:	ff ff ff 
    2536:	31 c0                	xor    %eax,%eax
    2538:	80 3f 2d             	cmpb   $0x2d,(%edi)
    253b:	8d 4d e0             	lea    -0x20(%ebp),%ecx
    253e:	0f 94 c0             	sete   %al
    2541:	83 ec 0c             	sub    $0xc,%esp
    2544:	01 f8                	add    %edi,%eax
    2546:	51                   	push   %ecx
    2547:	6a 00                	push   $0x0
    2549:	6a 0a                	push   $0xa
    254b:	6a 00                	push   $0x0
    254d:	50                   	push   %eax
    254e:	e8 cd fa 00 00       	call   12020 <str_uint64_t@plt>
    2553:	8b 4d e0             	mov    -0x20(%ebp),%ecx
    2556:	8b 5d e4             	mov    -0x1c(%ebp),%ebx
    2559:	89 8e 24 10 00 00    	mov    %ecx,0x1024(%esi)
    255f:	89 9e 28 10 00 00    	mov    %ebx,0x1028(%esi)
    2565:	83 c4 20             	add    $0x20,%esp
    2568:	80 3f 2d             	cmpb   $0x2d,(%edi)
    256b:	75 13                	jne    2580 <next_token+0x470>
    256d:	f7 d9                	neg    %ecx
    256f:	83 d3 00             	adc    $0x0,%ebx
    2572:	89 8e 24 10 00 00    	mov    %ecx,0x1024(%esi)
    2578:	f7 db                	neg    %ebx
    257a:	89 9e 28 10 00 00    	mov    %ebx,0x1028(%esi)
    2580:	8b 16                	mov    (%esi),%edx
    2582:	85 d2                	test   %edx,%edx
    2584:	0f 85 6a ff ff ff    	jne    24f4 <next_token+0x3e4>
    258a:	85 c0                	test   %eax,%eax
    258c:	0f 84 62 ff ff ff    	je     24f4 <next_token+0x3e4>
    2592:	83 be 20 10 00 00 86 	cmpl   $0xffffff86,0x1020(%esi)
    2599:	0f 84 cb 03 00 00    	je     296a <next_token+0x85a>
    259f:	c7 86 20 10 00 00 80 	movl   $0xffffff80,0x1020(%esi)
    25a6:	ff ff ff 
    25a9:	89 06                	mov    %eax,(%esi)
    25ab:	e9 44 ff ff ff       	jmp    24f4 <next_token+0x3e4>
    25b0:	83 ec 0c             	sub    $0xc,%esp
    25b3:	8b 86 24 10 00 00    	mov    0x1024(%esi),%eax
    25b9:	50                   	push   %eax
    25ba:	e8 31 fb 00 00       	call   120f0 <free@plt>
    25bf:	83 c4 10             	add    $0x10,%esp
    25c2:	e9 11 ff ff ff       	jmp    24d8 <next_token+0x3c8>
    25c7:	3c 3c                	cmp    $0x3c,%al
    25c9:	0f 84 e9 00 00 00    	je     26b8 <next_token+0x5a8>
    25cf:	3c 3e                	cmp    $0x3e,%al
    25d1:	0f 84 79 01 00 00    	je     2750 <next_token+0x640>
    25d7:	3c 3d                	cmp    $0x3d,%al
    25d9:	0f 84 34 01 00 00    	je     2713 <next_token+0x603>
    25df:	3c 2f                	cmp    $0x2f,%al
    25e1:	0f 84 94 00 00 00    	je     267b <next_token+0x56b>
    25e7:	3c 21                	cmp    $0x21,%al
    25e9:	0f 84 cf 01 00 00    	je     27be <next_token+0x6ae>
    25ef:	3c 26                	cmp    $0x26,%al
    25f1:	0f 84 fd 01 00 00    	je     27f4 <next_token+0x6e4>
    25f7:	3c 7c                	cmp    $0x7c,%al
    25f9:	0f 84 03 03 00 00    	je     2902 <next_token+0x7f2>
    25ff:	3c 2b                	cmp    $0x2b,%al
    2601:	0f 84 c5 02 00 00    	je     28cc <next_token+0x7bc>
    2607:	43                   	inc    %ebx
    2608:	89 8e 20 10 00 00    	mov    %ecx,0x1020(%esi)
    260e:	89 9e 10 10 00 00    	mov    %ebx,0x1010(%esi)
    2614:	e9 db fe ff ff       	jmp    24f4 <next_token+0x3e4>
    2619:	83 ec 0c             	sub    $0xc,%esp
    261c:	c7 86 20 10 00 00 8d 	movl   $0xffffff8d,0x1020(%esi)
    2623:	ff ff ff 
    2626:	53                   	push   %ebx
    2627:	e8 c4 fa 00 00       	call   120f0 <free@plt>
    262c:	83 c4 10             	add    $0x10,%esp
    262f:	e9 c0 fe ff ff       	jmp    24f4 <next_token+0x3e4>
    2634:	8b 06                	mov    (%esi),%eax
    2636:	85 c0                	test   %eax,%eax
    2638:	0f 85 b6 fe ff ff    	jne    24f4 <next_token+0x3e4>
    263e:	83 be 20 10 00 00 86 	cmpl   $0xffffff86,0x1020(%esi)
    2645:	0f 84 08 03 00 00    	je     2953 <next_token+0x843>
    264b:	c7 86 20 10 00 00 80 	movl   $0xffffff80,0x1020(%esi)
    2652:	ff ff ff 
    2655:	c7 06 fe ff ff ff    	movl   $0xfffffffe,(%esi)
    265b:	e9 94 fe ff ff       	jmp    24f4 <next_token+0x3e4>
    2660:	83 ec 0c             	sub    $0xc,%esp
    2663:	c7 86 20 10 00 00 8f 	movl   $0xffffff8f,0x1020(%esi)
    266a:	ff ff ff 
    266d:	53                   	push   %ebx
    266e:	e8 7d fa 00 00       	call   120f0 <free@plt>
    2673:	83 c4 10             	add    $0x10,%esp
    2676:	e9 79 fe ff ff       	jmp    24f4 <next_token+0x3e4>
    267b:	8d 43 01             	lea    0x1(%ebx),%eax
    267e:	c7 86 20 10 00 00 2f 	movl   $0x2f,0x1020(%esi)
    2685:	00 00 00 
    2688:	89 86 10 10 00 00    	mov    %eax,0x1010(%esi)
    268e:	80 7c 1e 11 2f       	cmpb   $0x2f,0x11(%esi,%ebx,1)
    2693:	0f 85 5b fe ff ff    	jne    24f4 <next_token+0x3e4>
    2699:	83 c3 02             	add    $0x2,%ebx
    269c:	c7 86 20 10 00 00 88 	movl   $0xffffff88,0x1020(%esi)
    26a3:	ff ff ff 
    26a6:	89 9e 10 10 00 00    	mov    %ebx,0x1010(%esi)
    26ac:	e9 43 fe ff ff       	jmp    24f4 <next_token+0x3e4>
    26b1:	8d b4 26 00 00 00 00 	lea    0x0(%esi,%eiz,1),%esi
    26b8:	8d 43 01             	lea    0x1(%ebx),%eax
    26bb:	c7 86 20 10 00 00 3c 	movl   $0x3c,0x1020(%esi)
    26c2:	00 00 00 
    26c5:	89 86 10 10 00 00    	mov    %eax,0x1010(%esi)
    26cb:	8a 44 1e 11          	mov    0x11(%esi,%ebx,1),%al
    26cf:	3c 2d                	cmp    $0x2d,%al
    26d1:	0f 84 b0 02 00 00    	je     2987 <next_token+0x877>
    26d7:	3c 3d                	cmp    $0x3d,%al
    26d9:	0f 85 15 fe ff ff    	jne    24f4 <next_token+0x3e4>
    26df:	83 c3 02             	add    $0x2,%ebx
    26e2:	c7 86 20 10 00 00 8a 	movl   $0xffffff8a,0x1020(%esi)
    26e9:	ff ff ff 
    26ec:	89 9e 10 10 00 00    	mov    %ebx,0x1010(%esi)
    26f2:	e9 fd fd ff ff       	jmp    24f4 <next_token+0x3e4>
    26f7:	90                   	nop
    26f8:	83 ec 0c             	sub    $0xc,%esp
    26fb:	c7 86 20 10 00 00 8e 	movl   $0xffffff8e,0x1020(%esi)
    2702:	ff ff ff 
    2705:	53                   	push   %ebx
    2706:	e8 e5 f9 00 00       	call   120f0 <free@plt>
    270b:	83 c4 10             	add    $0x10,%esp
    270e:	e9 e1 fd ff ff       	jmp    24f4 <next_token+0x3e4>
    2713:	8d 43 01             	lea    0x1(%ebx),%eax
    2716:	c7 86 20 10 00 00 3d 	movl   $0x3d,0x1020(%esi)
    271d:	00 00 00 
    2720:	89 86 10 10 00 00    	mov    %eax,0x1010(%esi)
    2726:	80 7c 1e 11 3d       	cmpb   $0x3d,0x11(%esi,%ebx,1)
    272b:	0f 85 c3 fd ff ff    	jne    24f4 <next_token+0x3e4>
    2731:	83 c3 02             	add    $0x2,%ebx
    2734:	c7 86 20 10 00 00 83 	movl   $0xffffff83,0x1020(%esi)
    273b:	ff ff ff 
    273e:	89 9e 10 10 00 00    	mov    %ebx,0x1010(%esi)
    2744:	e9 ab fd ff ff       	jmp    24f4 <next_token+0x3e4>
    2749:	8d b4 26 00 00 00 00 	lea    0x0(%esi,%eiz,1),%esi
    2750:	8d 43 01             	lea    0x1(%ebx),%eax
    2753:	c7 86 20 10 00 00 3e 	movl   $0x3e,0x1020(%esi)
    275a:	00 00 00 
    275d:	89 86 10 10 00 00    	mov    %eax,0x1010(%esi)
    2763:	80 7c 1e 11 3d       	cmpb   $0x3d,0x11(%esi,%ebx,1)
    2768:	0f 85 86 fd ff ff    	jne    24f4 <next_token+0x3e4>
    276e:	83 c3 02             	add    $0x2,%ebx
    2771:	c7 86 20 10 00 00 85 	movl   $0xffffff85,0x1020(%esi)
    2778:	ff ff ff 
    277b:	89 9e 10 10 00 00    	mov    %ebx,0x1010(%esi)
    2781:	e9 6e fd ff ff       	jmp    24f4 <next_token+0x3e4>
    2786:	66 90                	xchg   %ax,%ax
    2788:	83 ec 0c             	sub    $0xc,%esp
    278b:	c7 86 20 10 00 00 91 	movl   $0xffffff91,0x1020(%esi)
    2792:	ff ff ff 
    2795:	53                   	push   %ebx
    2796:	e8 55 f9 00 00       	call   120f0 <free@plt>
    279b:	83 c4 10             	add    $0x10,%esp
    279e:	e9 51 fd ff ff       	jmp    24f4 <next_token+0x3e4>
    27a3:	83 ec 0c             	sub    $0xc,%esp
    27a6:	c7 86 20 10 00 00 90 	movl   $0xffffff90,0x1020(%esi)
    27ad:	ff ff ff 
    27b0:	53                   	push   %ebx
    27b1:	e8 3a f9 00 00       	call   120f0 <free@plt>
    27b6:	83 c4 10             	add    $0x10,%esp
    27b9:	e9 36 fd ff ff       	jmp    24f4 <next_token+0x3e4>
    27be:	8d 43 01             	lea    0x1(%ebx),%eax
    27c1:	c7 86 20 10 00 00 21 	movl   $0x21,0x1020(%esi)
    27c8:	00 00 00 
    27cb:	89 86 10 10 00 00    	mov    %eax,0x1010(%esi)
    27d1:	80 7c 1e 11 3d       	cmpb   $0x3d,0x11(%esi,%ebx,1)
    27d6:	0f 85 18 fd ff ff    	jne    24f4 <next_token+0x3e4>
    27dc:	83 c3 02             	add    $0x2,%ebx
    27df:	c7 86 20 10 00 00 8b 	movl   $0xffffff8b,0x1020(%esi)
    27e6:	ff ff ff 
    27e9:	89 9e 10 10 00 00    	mov    %ebx,0x1010(%esi)
    27ef:	e9 00 fd ff ff       	jmp    24f4 <next_token+0x3e4>
    27f4:	8d 43 01             	lea    0x1(%ebx),%eax
    27f7:	c7 86 20 10 00 00 26 	movl   $0x26,0x1020(%esi)
    27fe:	00 00 00 
    2801:	89 86 10 10 00 00    	mov    %eax,0x1010(%esi)
    2807:	80 7c 1e 11 26       	cmpb   $0x26,0x11(%esi,%ebx,1)
    280c:	0f 85 e2 fc ff ff    	jne    24f4 <next_token+0x3e4>
    2812:	83 c3 02             	add    $0x2,%ebx
    2815:	c7 86 20 10 00 00 81 	movl   $0xffffff81,0x1020(%esi)
    281c:	ff ff ff 
    281f:	89 9e 10 10 00 00    	mov    %ebx,0x1010(%esi)
    2825:	e9 ca fc ff ff       	jmp    24f4 <next_token+0x3e4>
    282a:	83 ec 0c             	sub    $0xc,%esp
    282d:	c7 86 20 10 00 00 97 	movl   $0xffffff97,0x1020(%esi)
    2834:	ff ff ff 
    2837:	53                   	push   %ebx
    2838:	e8 b3 f8 00 00       	call   120f0 <free@plt>
    283d:	83 c4 10             	add    $0x10,%esp
    2840:	e9 af fc ff ff       	jmp    24f4 <next_token+0x3e4>
    2845:	83 ec 0c             	sub    $0xc,%esp
    2848:	c7 86 20 10 00 00 96 	movl   $0xffffff96,0x1020(%esi)
    284f:	ff ff ff 
    2852:	53                   	push   %ebx
    2853:	e8 98 f8 00 00       	call   120f0 <free@plt>
    2858:	83 c4 10             	add    $0x10,%esp
    285b:	e9 94 fc ff ff       	jmp    24f4 <next_token+0x3e4>
    2860:	83 ec 0c             	sub    $0xc,%esp
    2863:	c7 86 20 10 00 00 95 	movl   $0xffffff95,0x1020(%esi)
    286a:	ff ff ff 
    286d:	53                   	push   %ebx
    286e:	e8 7d f8 00 00       	call   120f0 <free@plt>
    2873:	83 c4 10             	add    $0x10,%esp
    2876:	e9 79 fc ff ff       	jmp    24f4 <next_token+0x3e4>
    287b:	83 ec 0c             	sub    $0xc,%esp
    287e:	c7 86 20 10 00 00 94 	movl   $0xffffff94,0x1020(%esi)
    2885:	ff ff ff 
    2888:	53                   	push   %ebx
    2889:	e8 62 f8 00 00       	call   120f0 <free@plt>
    288e:	83 c4 10             	add    $0x10,%esp
    2891:	e9 5e fc ff ff       	jmp    24f4 <next_token+0x3e4>
    2896:	83 ec 0c             	sub    $0xc,%esp
    2899:	c7 86 20 10 00 00 93 	movl   $0xffffff93,0x1020(%esi)
    28a0:	ff ff ff 
    28a3:	53                   	push   %ebx
    28a4:	e8 47 f8 00 00       	call   120f0 <free@plt>
    28a9:	83 c4 10             	add    $0x10,%esp
    28ac:	e9 43 fc ff ff       	jmp    24f4 <next_token+0x3e4>
    28b1:	83 ec 0c             	sub    $0xc,%esp
    28b4:	c7 86 20 10 00 00 92 	movl   $0xffffff92,0x1020(%esi)
    28bb:	ff ff ff 
    28be:	53                   	push   %ebx
    28bf:	e8 2c f8 00 00       	call   120f0 <free@plt>
    28c4:	83 c4 10             	add    $0x10,%esp
    28c7:	e9 28 fc ff ff       	jmp    24f4 <next_token+0x3e4>
    28cc:	8d 43 01             	lea    0x1(%ebx),%eax
    28cf:	c7 86 20 10 00 00 2b 	movl   $0x2b,0x1020(%esi)
    28d6:	00 00 00 
    28d9:	89 86 10 10 00 00    	mov    %eax,0x1010(%esi)
    28df:	80 7c 1e 11 2b       	cmpb   $0x2b,0x11(%esi,%ebx,1)
    28e4:	0f 85 0a fc ff ff    	jne    24f4 <next_token+0x3e4>
    28ea:	83 c3 02             	add    $0x2,%ebx
    28ed:	c7 86 20 10 00 00 82 	movl   $0xffffff82,0x1020(%esi)
    28f4:	ff ff ff 
    28f7:	89 9e 10 10 00 00    	mov    %ebx,0x1010(%esi)
    28fd:	e9 f2 fb ff ff       	jmp    24f4 <next_token+0x3e4>
    2902:	8d 43 01             	lea    0x1(%ebx),%eax
    2905:	c7 86 20 10 00 00 7c 	movl   $0x7c,0x1020(%esi)
    290c:	00 00 00 
    290f:	89 86 10 10 00 00    	mov    %eax,0x1010(%esi)
    2915:	80 7c 1e 11 7c       	cmpb   $0x7c,0x11(%esi,%ebx,1)
    291a:	0f 85 d4 fb ff ff    	jne    24f4 <next_token+0x3e4>
    2920:	83 c3 02             	add    $0x2,%ebx
    2923:	c7 86 20 10 00 00 8c 	movl   $0xffffff8c,0x1020(%esi)
    292a:	ff ff ff 
    292d:	89 9e 10 10 00 00    	mov    %ebx,0x1010(%esi)
    2933:	e9 bc fb ff ff       	jmp    24f4 <next_token+0x3e4>
    2938:	83 ec 0c             	sub    $0xc,%esp
    293b:	c7 86 20 10 00 00 98 	movl   $0xffffff98,0x1020(%esi)
    2942:	ff ff ff 
    2945:	53                   	push   %ebx
    2946:	e8 a5 f7 00 00       	call   120f0 <free@plt>
    294b:	83 c4 10             	add    $0x10,%esp
    294e:	e9 a1 fb ff ff       	jmp    24f4 <next_token+0x3e4>
    2953:	83 ec 0c             	sub    $0xc,%esp
    2956:	8b 86 24 10 00 00    	mov    0x1024(%esi),%eax
    295c:	50                   	push   %eax
    295d:	e8 8e f7 00 00       	call   120f0 <free@plt>
    2962:	83 c4 10             	add    $0x10,%esp
    2965:	e9 e1 fc ff ff       	jmp    264b <next_token+0x53b>
    296a:	83 ec 0c             	sub    $0xc,%esp
    296d:	89 45 d4             	mov    %eax,-0x2c(%ebp)
    2970:	8b 86 24 10 00 00    	mov    0x1024(%esi),%eax
    2976:	50                   	push   %eax
    2977:	e8 74 f7 00 00       	call   120f0 <free@plt>
    297c:	83 c4 10             	add    $0x10,%esp
    297f:	8b 45 d4             	mov    -0x2c(%ebp),%eax
    2982:	e9 18 fc ff ff       	jmp    259f <next_token+0x48f>
    2987:	83 c3 02             	add    $0x2,%ebx
    298a:	c7 86 20 10 00 00 89 	movl   $0xffffff89,0x1020(%esi)
    2991:	ff ff ff 
    2994:	89 9e 10 10 00 00    	mov    %ebx,0x1010(%esi)
    299a:	e9 55 fb ff ff       	jmp    24f4 <next_token+0x3e4>
    299f:	90                   	nop

000029a0 <expect>:
    29a0:	39 90 20 10 00 00    	cmp    %edx,0x1020(%eax)
    29a6:	0f 84 cc 00 00 00    	je     2a78 <expect+0xd8>
    29ac:	8b 10                	mov    (%eax),%edx
    29ae:	85 d2                	test   %edx,%edx
    29b0:	74 06                	je     29b8 <expect+0x18>
    29b2:	c3                   	ret    
    29b3:	90                   	nop
    29b4:	8d 74 26 00          	lea    0x0(%esi,%eiz,1),%esi
    29b8:	55                   	push   %ebp
    29b9:	89 e5                	mov    %esp,%ebp
    29bb:	57                   	push   %edi
    29bc:	89 c7                	mov    %eax,%edi
    29be:	56                   	push   %esi
    29bf:	53                   	push   %ebx
    29c0:	83 ec 1c             	sub    $0x1c,%esp
    29c3:	8b 98 1c 10 00 00    	mov    0x101c(%eax),%ebx
    29c9:	8b 97 10 10 00 00    	mov    0x1010(%edi),%edx
    29cf:	8b 80 14 10 00 00    	mov    0x1014(%eax),%eax
    29d5:	8b 8f 18 10 00 00    	mov    0x1018(%edi),%ecx
    29db:	01 d8                	add    %ebx,%eax
    29dd:	01 d3                	add    %edx,%ebx
    29df:	51                   	push   %ecx
    29e0:	89 de                	mov    %ebx,%esi
    29e2:	89 45 e4             	mov    %eax,-0x1c(%ebp)
    29e5:	29 c6                	sub    %eax,%esi
    29e7:	8b 47 08             	mov    0x8(%edi),%eax
    29ea:	50                   	push   %eax
    29eb:	a1 28 3d 01 00       	mov    0x13d28,%eax
    29f0:	68 3a 13 01 00       	push   $0x1133a
    29f5:	50                   	push   %eax
    29f6:	e8 35 f5 00 00       	call   11f30 <fprintf@plt>
    29fb:	83 c4 10             	add    $0x10,%esp
    29fe:	83 fe 01             	cmp    $0x1,%esi
    2a01:	76 55                	jbe    2a58 <expect+0xb8>
    2a03:	4b                   	dec    %ebx
    2a04:	a1 28 3d 01 00       	mov    0x13d28,%eax
    2a09:	53                   	push   %ebx
    2a0a:	8b 5d e4             	mov    -0x1c(%ebp),%ebx
    2a0d:	53                   	push   %ebx
    2a0e:	68 41 13 01 00       	push   $0x11341
    2a13:	50                   	push   %eax
    2a14:	e8 17 f5 00 00       	call   11f30 <fprintf@plt>
    2a19:	83 c4 10             	add    $0x10,%esp
    2a1c:	8b 87 14 10 00 00    	mov    0x1014(%edi),%eax
    2a22:	83 ec 0c             	sub    $0xc,%esp
    2a25:	8b 15 28 3d 01 00    	mov    0x13d28,%edx
    2a2b:	8d 44 07 10          	lea    0x10(%edi,%eax,1),%eax
    2a2f:	50                   	push   %eax
    2a30:	56                   	push   %esi
    2a31:	68 85 13 01 00       	push   $0x11385
    2a36:	68 4b 13 01 00       	push   $0x1134b
    2a3b:	52                   	push   %edx
    2a3c:	e8 ef f4 00 00       	call   11f30 <fprintf@plt>
    2a41:	8b 0f                	mov    (%edi),%ecx
    2a43:	83 c4 20             	add    $0x20,%esp
    2a46:	85 c9                	test   %ecx,%ecx
    2a48:	74 36                	je     2a80 <expect+0xe0>
    2a4a:	8d 65 f4             	lea    -0xc(%ebp),%esp
    2a4d:	5b                   	pop    %ebx
    2a4e:	5e                   	pop    %esi
    2a4f:	5f                   	pop    %edi
    2a50:	5d                   	pop    %ebp
    2a51:	c3                   	ret    
    2a52:	8d b6 00 00 00 00    	lea    0x0(%esi),%esi
    2a58:	50                   	push   %eax
    2a59:	8b 45 e4             	mov    -0x1c(%ebp),%eax
    2a5c:	50                   	push   %eax
    2a5d:	a1 28 3d 01 00       	mov    0x13d28,%eax
    2a62:	68 45 13 01 00       	push   $0x11345
    2a67:	50                   	push   %eax
    2a68:	e8 c3 f4 00 00       	call   11f30 <fprintf@plt>
    2a6d:	83 c4 10             	add    $0x10,%esp
    2a70:	eb aa                	jmp    2a1c <expect+0x7c>
    2a72:	8d b6 00 00 00 00    	lea    0x0(%esi),%esi
    2a78:	e9 93 f6 ff ff       	jmp    2110 <next_token>
    2a7d:	8d 76 00             	lea    0x0(%esi),%esi
    2a80:	83 bf 20 10 00 00 86 	cmpl   $0xffffff86,0x1020(%edi)
    2a87:	74 17                	je     2aa0 <expect+0x100>
    2a89:	c7 87 20 10 00 00 80 	movl   $0xffffff80,0x1020(%edi)
    2a90:	ff ff ff 
    2a93:	c7 07 f2 ff ff ff    	movl   $0xfffffff2,(%edi)
    2a99:	eb af                	jmp    2a4a <expect+0xaa>
    2a9b:	90                   	nop
    2a9c:	8d 74 26 00          	lea    0x0(%esi,%eiz,1),%esi
    2aa0:	83 ec 0c             	sub    $0xc,%esp
    2aa3:	8b 87 24 10 00 00    	mov    0x1024(%edi),%eax
    2aa9:	50                   	push   %eax
    2aaa:	e8 41 f6 00 00       	call   120f0 <free@plt>
    2aaf:	83 c4 10             	add    $0x10,%esp
    2ab2:	eb d5                	jmp    2a89 <expect+0xe9>
    2ab4:	8d b6 00 00 00 00    	lea    0x0(%esi),%esi
    2aba:	8d bf 00 00 00 00    	lea    0x0(%edi),%edi

00002ac0 <parse_expression_precedence>:
    2ac0:	55                   	push   %ebp
    2ac1:	89 e5                	mov    %esp,%ebp
    2ac3:	57                   	push   %edi
    2ac4:	56                   	push   %esi
    2ac5:	53                   	push   %ebx
    2ac6:	83 ec 3c             	sub    $0x3c,%esp
    2ac9:	89 c3                	mov    %eax,%ebx
    2acb:	8b b0 20 10 00 00    	mov    0x1020(%eax),%esi
    2ad1:	89 55 bc             	mov    %edx,-0x44(%ebp)
    2ad4:	8d 46 71             	lea    0x71(%esi),%eax
    2ad7:	83 e0 f7             	and    $0xfffffff7,%eax
    2ada:	0f 84 70 04 00 00    	je     2f50 <parse_expression_precedence+0x490>
    2ae0:	83 fe 91             	cmp    $0xffffff91,%esi
    2ae3:	0f 84 0d 07 00 00    	je     31f6 <parse_expression_precedence+0x736>
    2ae9:	83 fe 87             	cmp    $0xffffff87,%esi
    2aec:	0f 84 b6 06 00 00    	je     31a8 <parse_expression_precedence+0x6e8>
    2af2:	83 fe 86             	cmp    $0xffffff86,%esi
    2af5:	0f 84 cd 05 00 00    	je     30c8 <parse_expression_precedence+0x608>
    2afb:	83 fe 2e             	cmp    $0x2e,%esi
    2afe:	0f 84 c5 07 00 00    	je     32c9 <parse_expression_precedence+0x809>
    2b04:	83 fe 28             	cmp    $0x28,%esi
    2b07:	0f 84 3f 09 00 00    	je     344c <parse_expression_precedence+0x98c>
    2b0d:	8b 13                	mov    (%ebx),%edx
    2b0f:	31 f6                	xor    %esi,%esi
    2b11:	85 d2                	test   %edx,%edx
    2b13:	0f 84 03 07 00 00    	je     321c <parse_expression_precedence+0x75c>
    2b19:	89 75 d4             	mov    %esi,-0x2c(%ebp)
    2b1c:	8d 7d d4             	lea    -0x2c(%ebp),%edi
    2b1f:	85 d2                	test   %edx,%edx
    2b21:	0f 85 7c 00 00 00    	jne    2ba3 <parse_expression_precedence+0xe3>
    2b27:	90                   	nop
    2b28:	8b 83 20 10 00 00    	mov    0x1020(%ebx),%eax
    2b2e:	83 f8 2e             	cmp    $0x2e,%eax
    2b31:	0f 84 b9 01 00 00    	je     2cf0 <parse_expression_precedence+0x230>
    2b37:	83 f8 5b             	cmp    $0x5b,%eax
    2b3a:	75 67                	jne    2ba3 <parse_expression_precedence+0xe3>
    2b3c:	89 d8                	mov    %ebx,%eax
    2b3e:	e8 cd f5 ff ff       	call   2110 <next_token>
    2b43:	31 d2                	xor    %edx,%edx
    2b45:	89 d8                	mov    %ebx,%eax
    2b47:	e8 74 ff ff ff       	call   2ac0 <parse_expression_precedence>
    2b4c:	8b 93 20 10 00 00    	mov    0x1020(%ebx),%edx
    2b52:	83 fa 3a             	cmp    $0x3a,%edx
    2b55:	89 c6                	mov    %eax,%esi
    2b57:	0f 94 c1             	sete   %cl
    2b5a:	83 fa 2c             	cmp    $0x2c,%edx
    2b5d:	0f 84 9d 00 00 00    	je     2c00 <parse_expression_precedence+0x140>
    2b63:	84 c9                	test   %cl,%cl
    2b65:	0f 85 95 00 00 00    	jne    2c00 <parse_expression_precedence+0x140>
    2b6b:	83 fa 5d             	cmp    $0x5d,%edx
    2b6e:	0f 85 bc 04 00 00    	jne    3030 <parse_expression_precedence+0x570>
    2b74:	89 d8                	mov    %ebx,%eax
    2b76:	e8 95 f5 ff ff       	call   2110 <next_token>
    2b7b:	8b 03                	mov    (%ebx),%eax
    2b7d:	85 c0                	test   %eax,%eax
    2b7f:	0f 85 c3 04 00 00    	jne    3048 <parse_expression_precedence+0x588>
    2b85:	8b 45 d4             	mov    -0x2c(%ebp),%eax
    2b88:	56                   	push   %esi
    2b89:	50                   	push   %eax
    2b8a:	6a 0e                	push   $0xe
    2b8c:	57                   	push   %edi
    2b8d:	e8 ce ba 00 00       	call   e660 <bithenge_binary_expression>
    2b92:	83 c4 10             	add    $0x10,%esp
    2b95:	85 c0                	test   %eax,%eax
    2b97:	0f 85 f5 01 00 00    	jne    2d92 <parse_expression_precedence+0x2d2>
    2b9d:	8b 13                	mov    (%ebx),%edx
    2b9f:	85 d2                	test   %edx,%edx
    2ba1:	74 85                	je     2b28 <parse_expression_precedence+0x68>
    2ba3:	8b 75 d4             	mov    -0x2c(%ebp),%esi
    2ba6:	89 75 d0             	mov    %esi,-0x30(%ebp)
    2ba9:	8d 75 d0             	lea    -0x30(%ebp),%esi
    2bac:	85 d2                	test   %edx,%edx
    2bae:	0f 85 c2 05 00 00    	jne    3176 <parse_expression_precedence+0x6b6>
    2bb4:	8b 83 20 10 00 00    	mov    0x1020(%ebx),%eax
    2bba:	83 f8 8b             	cmp    $0xffffff8b,%eax
    2bbd:	0f 84 15 04 00 00    	je     2fd8 <parse_expression_precedence+0x518>
    2bc3:	0f 8e 67 02 00 00    	jle    2e30 <parse_expression_precedence+0x370>
    2bc9:	83 f8 2b             	cmp    $0x2b,%eax
    2bcc:	0f 84 3e 04 00 00    	je     3010 <parse_expression_precedence+0x550>
    2bd2:	0f 8f 90 02 00 00    	jg     2e68 <parse_expression_precedence+0x3a8>
    2bd8:	83 f8 25             	cmp    $0x25,%eax
    2bdb:	0f 84 47 04 00 00    	je     3028 <parse_expression_precedence+0x568>
    2be1:	83 f8 2a             	cmp    $0x2a,%eax
    2be4:	0f 84 36 04 00 00    	je     3020 <parse_expression_precedence+0x560>
    2bea:	83 f8 8c             	cmp    $0xffffff8c,%eax
    2bed:	0f 84 e5 01 00 00    	je     2dd8 <parse_expression_precedence+0x318>
    2bf3:	8b 45 d0             	mov    -0x30(%ebp),%eax
    2bf6:	8d 65 f4             	lea    -0xc(%ebp),%esp
    2bf9:	5b                   	pop    %ebx
    2bfa:	5e                   	pop    %esi
    2bfb:	5f                   	pop    %edi
    2bfc:	5d                   	pop    %ebp
    2bfd:	c3                   	ret    
    2bfe:	66 90                	xchg   %ax,%ax
    2c00:	89 d8                	mov    %ebx,%eax
    2c02:	88 4d c4             	mov    %cl,-0x3c(%ebp)
    2c05:	89 55 c0             	mov    %edx,-0x40(%ebp)
    2c08:	e8 03 f5 ff ff       	call   2110 <next_token>
    2c0d:	83 bb 20 10 00 00 5d 	cmpl   $0x5d,0x1020(%ebx)
    2c14:	8a 4d c4             	mov    -0x3c(%ebp),%cl
    2c17:	75 0c                	jne    2c25 <parse_expression_precedence+0x165>
    2c19:	8b 55 c0             	mov    -0x40(%ebp),%edx
    2c1c:	83 fa 3a             	cmp    $0x3a,%edx
    2c1f:	0f 84 2b 01 00 00    	je     2d50 <parse_expression_precedence+0x290>
    2c25:	31 d2                	xor    %edx,%edx
    2c27:	89 d8                	mov    %ebx,%eax
    2c29:	88 4d c0             	mov    %cl,-0x40(%ebp)
    2c2c:	e8 8f fe ff ff       	call   2ac0 <parse_expression_precedence>
    2c31:	83 bb 20 10 00 00 5d 	cmpl   $0x5d,0x1020(%ebx)
    2c38:	89 45 c4             	mov    %eax,-0x3c(%ebp)
    2c3b:	8a 4d c0             	mov    -0x40(%ebp),%cl
    2c3e:	0f 84 13 01 00 00    	je     2d57 <parse_expression_precedence+0x297>
    2c44:	8b 03                	mov    (%ebx),%eax
    2c46:	85 c0                	test   %eax,%eax
    2c48:	0f 84 72 01 00 00    	je     2dc0 <parse_expression_precedence+0x300>
    2c4e:	8b 45 d4             	mov    -0x2c(%ebp),%eax
    2c51:	85 c0                	test   %eax,%eax
    2c53:	74 2b                	je     2c80 <parse_expression_precedence+0x1c0>
    2c55:	8b 08                	mov    (%eax),%ecx
    2c57:	85 c9                	test   %ecx,%ecx
    2c59:	0f 84 1d 09 00 00    	je     357c <parse_expression_precedence+0xabc>
    2c5f:	8b 50 04             	mov    0x4(%eax),%edx
    2c62:	85 d2                	test   %edx,%edx
    2c64:	0f 84 00 09 00 00    	je     356a <parse_expression_precedence+0xaaa>
    2c6a:	4a                   	dec    %edx
    2c6b:	89 50 04             	mov    %edx,0x4(%eax)
    2c6e:	85 d2                	test   %edx,%edx
    2c70:	75 0e                	jne    2c80 <parse_expression_precedence+0x1c0>
    2c72:	83 ec 0c             	sub    $0xc,%esp
    2c75:	50                   	push   %eax
    2c76:	ff 51 04             	call   *0x4(%ecx)
    2c79:	83 c4 10             	add    $0x10,%esp
    2c7c:	8d 74 26 00          	lea    0x0(%esi,%eiz,1),%esi
    2c80:	85 f6                	test   %esi,%esi
    2c82:	74 27                	je     2cab <parse_expression_precedence+0x1eb>
    2c84:	8b 16                	mov    (%esi),%edx
    2c86:	85 d2                	test   %edx,%edx
    2c88:	0f 84 ee 08 00 00    	je     357c <parse_expression_precedence+0xabc>
    2c8e:	8b 46 04             	mov    0x4(%esi),%eax
    2c91:	85 c0                	test   %eax,%eax
    2c93:	0f 84 d1 08 00 00    	je     356a <parse_expression_precedence+0xaaa>
    2c99:	48                   	dec    %eax
    2c9a:	89 46 04             	mov    %eax,0x4(%esi)
    2c9d:	85 c0                	test   %eax,%eax
    2c9f:	75 0a                	jne    2cab <parse_expression_precedence+0x1eb>
    2ca1:	83 ec 0c             	sub    $0xc,%esp
    2ca4:	56                   	push   %esi
    2ca5:	ff 52 04             	call   *0x4(%edx)
    2ca8:	83 c4 10             	add    $0x10,%esp
    2cab:	8b 75 c4             	mov    -0x3c(%ebp),%esi
    2cae:	85 f6                	test   %esi,%esi
    2cb0:	0f 84 e3 03 00 00    	je     3099 <parse_expression_precedence+0x5d9>
    2cb6:	8b 7d c4             	mov    -0x3c(%ebp),%edi
    2cb9:	8b 17                	mov    (%edi),%edx
    2cbb:	85 d2                	test   %edx,%edx
    2cbd:	0f 84 b9 08 00 00    	je     357c <parse_expression_precedence+0xabc>
    2cc3:	8b 47 04             	mov    0x4(%edi),%eax
    2cc6:	85 c0                	test   %eax,%eax
    2cc8:	0f 84 9c 08 00 00    	je     356a <parse_expression_precedence+0xaaa>
    2cce:	48                   	dec    %eax
    2ccf:	89 47 04             	mov    %eax,0x4(%edi)
    2cd2:	85 c0                	test   %eax,%eax
    2cd4:	0f 85 bf 03 00 00    	jne    3099 <parse_expression_precedence+0x5d9>
    2cda:	83 ec 0c             	sub    $0xc,%esp
    2cdd:	8b 4d c4             	mov    -0x3c(%ebp),%ecx
    2ce0:	31 f6                	xor    %esi,%esi
    2ce2:	51                   	push   %ecx
    2ce3:	ff 52 04             	call   *0x4(%edx)
    2ce6:	8b 13                	mov    (%ebx),%edx
    2ce8:	83 c4 10             	add    $0x10,%esp
    2ceb:	e9 b6 fe ff ff       	jmp    2ba6 <parse_expression_precedence+0xe6>
    2cf0:	89 d8                	mov    %ebx,%eax
    2cf2:	e8 19 f4 ff ff       	call   2110 <next_token>
    2cf7:	83 bb 20 10 00 00 86 	cmpl   $0xffffff86,0x1020(%ebx)
    2cfe:	0f 84 a4 03 00 00    	je     30a8 <parse_expression_precedence+0x5e8>
    2d04:	8b 03                	mov    (%ebx),%eax
    2d06:	85 c0                	test   %eax,%eax
    2d08:	0f 84 aa 01 00 00    	je     2eb8 <parse_expression_precedence+0x3f8>
    2d0e:	31 f6                	xor    %esi,%esi
    2d10:	83 ec 0c             	sub    $0xc,%esp
    2d13:	56                   	push   %esi
    2d14:	e8 d7 f3 00 00       	call   120f0 <free@plt>
    2d19:	8b 55 d4             	mov    -0x2c(%ebp),%edx
    2d1c:	83 c4 10             	add    $0x10,%esp
    2d1f:	85 d2                	test   %edx,%edx
    2d21:	74 21                	je     2d44 <parse_expression_precedence+0x284>
    2d23:	8b 0a                	mov    (%edx),%ecx
    2d25:	85 c9                	test   %ecx,%ecx
    2d27:	0f 84 4f 08 00 00    	je     357c <parse_expression_precedence+0xabc>
    2d2d:	8b 42 04             	mov    0x4(%edx),%eax
    2d30:	85 c0                	test   %eax,%eax
    2d32:	0f 84 32 08 00 00    	je     356a <parse_expression_precedence+0xaaa>
    2d38:	48                   	dec    %eax
    2d39:	89 42 04             	mov    %eax,0x4(%edx)
    2d3c:	85 c0                	test   %eax,%eax
    2d3e:	0f 84 4c 06 00 00    	je     3390 <parse_expression_precedence+0x8d0>
    2d44:	8b 13                	mov    (%ebx),%edx
    2d46:	31 f6                	xor    %esi,%esi
    2d48:	e9 59 fe ff ff       	jmp    2ba6 <parse_expression_precedence+0xe6>
    2d4d:	8d 76 00             	lea    0x0(%esi),%esi
    2d50:	c7 45 c4 00 00 00 00 	movl   $0x0,-0x3c(%ebp)
    2d57:	89 d8                	mov    %ebx,%eax
    2d59:	88 4d c0             	mov    %cl,-0x40(%ebp)
    2d5c:	e8 af f3 ff ff       	call   2110 <next_token>
    2d61:	8a 4d c0             	mov    -0x40(%ebp),%cl
    2d64:	8b 03                	mov    (%ebx),%eax
    2d66:	85 c0                	test   %eax,%eax
    2d68:	0f 85 e0 fe ff ff    	jne    2c4e <parse_expression_precedence+0x18e>
    2d6e:	83 ec 0c             	sub    $0xc,%esp
    2d71:	81 e1 ff 00 00 00    	and    $0xff,%ecx
    2d77:	8b 45 c4             	mov    -0x3c(%ebp),%eax
    2d7a:	51                   	push   %ecx
    2d7b:	50                   	push   %eax
    2d7c:	8b 45 d4             	mov    -0x2c(%ebp),%eax
    2d7f:	56                   	push   %esi
    2d80:	50                   	push   %eax
    2d81:	57                   	push   %edi
    2d82:	e8 f9 ba 00 00       	call   e880 <bithenge_subblob_expression>
    2d87:	83 c4 20             	add    $0x20,%esp
    2d8a:	85 c0                	test   %eax,%eax
    2d8c:	0f 84 0b fe ff ff    	je     2b9d <parse_expression_precedence+0xdd>
    2d92:	8b 13                	mov    (%ebx),%edx
    2d94:	31 f6                	xor    %esi,%esi
    2d96:	85 d2                	test   %edx,%edx
    2d98:	0f 85 08 fe ff ff    	jne    2ba6 <parse_expression_precedence+0xe6>
    2d9e:	83 bb 20 10 00 00 86 	cmpl   $0xffffff86,0x1020(%ebx)
    2da5:	0f 84 84 06 00 00    	je     342f <parse_expression_precedence+0x96f>
    2dab:	c7 83 20 10 00 00 80 	movl   $0xffffff80,0x1020(%ebx)
    2db2:	ff ff ff 
    2db5:	89 03                	mov    %eax,(%ebx)
    2db7:	89 c2                	mov    %eax,%edx
    2db9:	31 f6                	xor    %esi,%esi
    2dbb:	e9 e6 fd ff ff       	jmp    2ba6 <parse_expression_precedence+0xe6>
    2dc0:	ba 85 13 01 00       	mov    $0x11385,%edx
    2dc5:	89 d8                	mov    %ebx,%eax
    2dc7:	88 4d c0             	mov    %cl,-0x40(%ebp)
    2dca:	e8 41 f2 ff ff       	call   2010 <syntax_error.part.2>
    2dcf:	8a 4d c0             	mov    -0x40(%ebp),%cl
    2dd2:	eb 90                	jmp    2d64 <parse_expression_precedence+0x2a4>
    2dd4:	8d 74 26 00          	lea    0x0(%esi,%eiz,1),%esi
    2dd8:	b9 0d 00 00 00       	mov    $0xd,%ecx
    2ddd:	bf 01 00 00 00       	mov    $0x1,%edi
    2de2:	8d b6 00 00 00 00    	lea    0x0(%esi),%esi
    2de8:	39 7d bc             	cmp    %edi,-0x44(%ebp)
    2deb:	0f 83 02 fe ff ff    	jae    2bf3 <parse_expression_precedence+0x133>
    2df1:	89 d8                	mov    %ebx,%eax
    2df3:	89 4d c4             	mov    %ecx,-0x3c(%ebp)
    2df6:	e8 15 f3 ff ff       	call   2110 <next_token>
    2dfb:	89 fa                	mov    %edi,%edx
    2dfd:	89 d8                	mov    %ebx,%eax
    2dff:	e8 bc fc ff ff       	call   2ac0 <parse_expression_precedence>
    2e04:	8b 3b                	mov    (%ebx),%edi
    2e06:	85 ff                	test   %edi,%edi
    2e08:	8b 4d c4             	mov    -0x3c(%ebp),%ecx
    2e0b:	0f 85 40 03 00 00    	jne    3151 <parse_expression_precedence+0x691>
    2e11:	8b 55 d0             	mov    -0x30(%ebp),%edx
    2e14:	50                   	push   %eax
    2e15:	52                   	push   %edx
    2e16:	51                   	push   %ecx
    2e17:	56                   	push   %esi
    2e18:	e8 43 b8 00 00       	call   e660 <bithenge_binary_expression>
    2e1d:	83 c4 10             	add    $0x10,%esp
    2e20:	85 c0                	test   %eax,%eax
    2e22:	0f 85 26 04 00 00    	jne    324e <parse_expression_precedence+0x78e>
    2e28:	8b 13                	mov    (%ebx),%edx
    2e2a:	e9 7d fd ff ff       	jmp    2bac <parse_expression_precedence+0xec>
    2e2f:	90                   	nop
    2e30:	83 f8 83             	cmp    $0xffffff83,%eax
    2e33:	0f 84 8f 01 00 00    	je     2fc8 <parse_expression_precedence+0x508>
    2e39:	7e 5d                	jle    2e98 <parse_expression_precedence+0x3d8>
    2e3b:	83 f8 88             	cmp    $0xffffff88,%eax
    2e3e:	0f 84 9c 01 00 00    	je     2fe0 <parse_expression_precedence+0x520>
    2e44:	83 f8 8a             	cmp    $0xffffff8a,%eax
    2e47:	0f 84 b3 01 00 00    	je     3000 <parse_expression_precedence+0x540>
    2e4d:	83 f8 85             	cmp    $0xffffff85,%eax
    2e50:	0f 85 9d fd ff ff    	jne    2bf3 <parse_expression_precedence+0x133>
    2e56:	b9 09 00 00 00       	mov    $0x9,%ecx
    2e5b:	bf 03 00 00 00       	mov    $0x3,%edi
    2e60:	eb 86                	jmp    2de8 <parse_expression_precedence+0x328>
    2e62:	8d b6 00 00 00 00    	lea    0x0(%esi),%esi
    2e68:	83 f8 3c             	cmp    $0x3c,%eax
    2e6b:	0f 84 47 01 00 00    	je     2fb8 <parse_expression_precedence+0x4f8>
    2e71:	83 f8 3e             	cmp    $0x3e,%eax
    2e74:	0f 84 2e 01 00 00    	je     2fa8 <parse_expression_precedence+0x4e8>
    2e7a:	83 f8 2d             	cmp    $0x2d,%eax
    2e7d:	0f 85 70 fd ff ff    	jne    2bf3 <parse_expression_precedence+0x133>
    2e83:	b9 02 00 00 00       	mov    $0x2,%ecx
    2e88:	bf 04 00 00 00       	mov    $0x4,%edi
    2e8d:	e9 56 ff ff ff       	jmp    2de8 <parse_expression_precedence+0x328>
    2e92:	8d b6 00 00 00 00    	lea    0x0(%esi),%esi
    2e98:	83 f8 81             	cmp    $0xffffff81,%eax
    2e9b:	0f 84 4f 01 00 00    	je     2ff0 <parse_expression_precedence+0x530>
    2ea1:	83 f8 82             	cmp    $0xffffff82,%eax
    2ea4:	0f 85 49 fd ff ff    	jne    2bf3 <parse_expression_precedence+0x133>
    2eaa:	b9 0f 00 00 00       	mov    $0xf,%ecx
    2eaf:	eb d7                	jmp    2e88 <parse_expression_precedence+0x3c8>
    2eb1:	8d b4 26 00 00 00 00 	lea    0x0(%esi,%eiz,1),%esi
    2eb8:	ba 2c 14 01 00       	mov    $0x1142c,%edx
    2ebd:	89 d8                	mov    %ebx,%eax
    2ebf:	e8 4c f1 ff ff       	call   2010 <syntax_error.part.2>
    2ec4:	31 f6                	xor    %esi,%esi
    2ec6:	8b 03                	mov    (%ebx),%eax
    2ec8:	85 c0                	test   %eax,%eax
    2eca:	0f 85 40 fe ff ff    	jne    2d10 <parse_expression_precedence+0x250>
    2ed0:	50                   	push   %eax
    2ed1:	8d 45 d8             	lea    -0x28(%ebp),%eax
    2ed4:	6a 01                	push   $0x1
    2ed6:	c7 45 d8 00 00 00 00 	movl   $0x0,-0x28(%ebp)
    2edd:	56                   	push   %esi
    2ede:	50                   	push   %eax
    2edf:	e8 bc 8b 00 00       	call   baa0 <bithenge_new_string_node>
    2ee4:	83 c4 10             	add    $0x10,%esp
    2ee7:	85 c0                	test   %eax,%eax
    2ee9:	0f 85 91 03 00 00    	jne    3280 <parse_expression_precedence+0x7c0>
    2eef:	8b 4d d8             	mov    -0x28(%ebp),%ecx
    2ef2:	8d 45 dc             	lea    -0x24(%ebp),%eax
    2ef5:	52                   	push   %edx
    2ef6:	52                   	push   %edx
    2ef7:	51                   	push   %ecx
    2ef8:	50                   	push   %eax
    2ef9:	e8 c2 b8 00 00       	call   e7c0 <bithenge_const_expression>
    2efe:	83 c4 10             	add    $0x10,%esp
    2f01:	85 c0                	test   %eax,%eax
    2f03:	0f 85 77 03 00 00    	jne    3280 <parse_expression_precedence+0x7c0>
    2f09:	8b 45 dc             	mov    -0x24(%ebp),%eax
    2f0c:	50                   	push   %eax
    2f0d:	8b 45 d4             	mov    -0x2c(%ebp),%eax
    2f10:	50                   	push   %eax
    2f11:	6a 0e                	push   $0xe
    2f13:	57                   	push   %edi
    2f14:	e8 47 b7 00 00       	call   e660 <bithenge_binary_expression>
    2f19:	83 c4 10             	add    $0x10,%esp
    2f1c:	85 c0                	test   %eax,%eax
    2f1e:	0f 84 79 fc ff ff    	je     2b9d <parse_expression_precedence+0xdd>
    2f24:	8b 13                	mov    (%ebx),%edx
    2f26:	85 d2                	test   %edx,%edx
    2f28:	0f 85 18 fe ff ff    	jne    2d46 <parse_expression_precedence+0x286>
    2f2e:	83 bb 20 10 00 00 86 	cmpl   $0xffffff86,0x1020(%ebx)
    2f35:	0f 84 d7 05 00 00    	je     3512 <parse_expression_precedence+0xa52>
    2f3b:	c7 83 20 10 00 00 80 	movl   $0xffffff80,0x1020(%ebx)
    2f42:	ff ff ff 
    2f45:	89 03                	mov    %eax,(%ebx)
    2f47:	89 c2                	mov    %eax,%edx
    2f49:	31 f6                	xor    %esi,%esi
    2f4b:	e9 56 fc ff ff       	jmp    2ba6 <parse_expression_precedence+0xe6>
    2f50:	89 d8                	mov    %ebx,%eax
    2f52:	e8 b9 f1 ff ff       	call   2110 <next_token>
    2f57:	50                   	push   %eax
    2f58:	50                   	push   %eax
    2f59:	31 c0                	xor    %eax,%eax
    2f5b:	83 fe 97             	cmp    $0xffffff97,%esi
    2f5e:	0f 94 c0             	sete   %al
    2f61:	50                   	push   %eax
    2f62:	8d 45 e0             	lea    -0x20(%ebp),%eax
    2f65:	50                   	push   %eax
    2f66:	e8 85 8a 00 00       	call   b9f0 <bithenge_new_boolean_node>
    2f6b:	83 c4 10             	add    $0x10,%esp
    2f6e:	85 c0                	test   %eax,%eax
    2f70:	0f 84 5c 02 00 00    	je     31d2 <parse_expression_precedence+0x712>
    2f76:	8b 13                	mov    (%ebx),%edx
    2f78:	31 f6                	xor    %esi,%esi
    2f7a:	85 d2                	test   %edx,%edx
    2f7c:	0f 85 97 fb ff ff    	jne    2b19 <parse_expression_precedence+0x59>
    2f82:	83 bb 20 10 00 00 86 	cmpl   $0xffffff86,0x1020(%ebx)
    2f89:	0f 84 e9 04 00 00    	je     3478 <parse_expression_precedence+0x9b8>
    2f8f:	c7 83 20 10 00 00 80 	movl   $0xffffff80,0x1020(%ebx)
    2f96:	ff ff ff 
    2f99:	89 03                	mov    %eax,(%ebx)
    2f9b:	89 c2                	mov    %eax,%edx
    2f9d:	31 f6                	xor    %esi,%esi
    2f9f:	e9 75 fb ff ff       	jmp    2b19 <parse_expression_precedence+0x59>
    2fa4:	8d 74 26 00          	lea    0x0(%esi,%eiz,1),%esi
    2fa8:	b9 07 00 00 00       	mov    $0x7,%ecx
    2fad:	e9 a9 fe ff ff       	jmp    2e5b <parse_expression_precedence+0x39b>
    2fb2:	8d b6 00 00 00 00    	lea    0x0(%esi),%esi
    2fb8:	b9 06 00 00 00       	mov    $0x6,%ecx
    2fbd:	e9 99 fe ff ff       	jmp    2e5b <parse_expression_precedence+0x39b>
    2fc2:	8d b6 00 00 00 00    	lea    0x0(%esi),%esi
    2fc8:	b9 0a 00 00 00       	mov    $0xa,%ecx
    2fcd:	bf 02 00 00 00       	mov    $0x2,%edi
    2fd2:	e9 11 fe ff ff       	jmp    2de8 <parse_expression_precedence+0x328>
    2fd7:	90                   	nop
    2fd8:	b9 0b 00 00 00       	mov    $0xb,%ecx
    2fdd:	eb ee                	jmp    2fcd <parse_expression_precedence+0x50d>
    2fdf:	90                   	nop
    2fe0:	b9 04 00 00 00       	mov    $0x4,%ecx
    2fe5:	bf 05 00 00 00       	mov    $0x5,%edi
    2fea:	e9 f9 fd ff ff       	jmp    2de8 <parse_expression_precedence+0x328>
    2fef:	90                   	nop
    2ff0:	b9 0c 00 00 00       	mov    $0xc,%ecx
    2ff5:	e9 e3 fd ff ff       	jmp    2ddd <parse_expression_precedence+0x31d>
    2ffa:	8d b6 00 00 00 00    	lea    0x0(%esi),%esi
    3000:	b9 08 00 00 00       	mov    $0x8,%ecx
    3005:	e9 51 fe ff ff       	jmp    2e5b <parse_expression_precedence+0x39b>
    300a:	8d b6 00 00 00 00    	lea    0x0(%esi),%esi
    3010:	b9 01 00 00 00       	mov    $0x1,%ecx
    3015:	e9 6e fe ff ff       	jmp    2e88 <parse_expression_precedence+0x3c8>
    301a:	8d b6 00 00 00 00    	lea    0x0(%esi),%esi
    3020:	b9 03 00 00 00       	mov    $0x3,%ecx
    3025:	eb be                	jmp    2fe5 <parse_expression_precedence+0x525>
    3027:	90                   	nop
    3028:	b9 05 00 00 00       	mov    $0x5,%ecx
    302d:	eb b6                	jmp    2fe5 <parse_expression_precedence+0x525>
    302f:	90                   	nop
    3030:	8b 03                	mov    (%ebx),%eax
    3032:	85 c0                	test   %eax,%eax
    3034:	75 12                	jne    3048 <parse_expression_precedence+0x588>
    3036:	ba d5 13 01 00       	mov    $0x113d5,%edx
    303b:	89 d8                	mov    %ebx,%eax
    303d:	e8 ce ef ff ff       	call   2010 <syntax_error.part.2>
    3042:	8d b6 00 00 00 00    	lea    0x0(%esi),%esi
    3048:	8b 55 d4             	mov    -0x2c(%ebp),%edx
    304b:	85 d2                	test   %edx,%edx
    304d:	74 21                	je     3070 <parse_expression_precedence+0x5b0>
    304f:	8b 0a                	mov    (%edx),%ecx
    3051:	85 c9                	test   %ecx,%ecx
    3053:	0f 84 23 05 00 00    	je     357c <parse_expression_precedence+0xabc>
    3059:	8b 42 04             	mov    0x4(%edx),%eax
    305c:	85 c0                	test   %eax,%eax
    305e:	0f 84 06 05 00 00    	je     356a <parse_expression_precedence+0xaaa>
    3064:	48                   	dec    %eax
    3065:	89 42 04             	mov    %eax,0x4(%edx)
    3068:	85 c0                	test   %eax,%eax
    306a:	0f 84 bf 00 00 00    	je     312f <parse_expression_precedence+0x66f>
    3070:	85 f6                	test   %esi,%esi
    3072:	0f 84 f9 03 00 00    	je     3471 <parse_expression_precedence+0x9b1>
    3078:	8b 16                	mov    (%esi),%edx
    307a:	85 d2                	test   %edx,%edx
    307c:	0f 84 fa 04 00 00    	je     357c <parse_expression_precedence+0xabc>
    3082:	8b 46 04             	mov    0x4(%esi),%eax
    3085:	85 c0                	test   %eax,%eax
    3087:	0f 84 dd 04 00 00    	je     356a <parse_expression_precedence+0xaaa>
    308d:	48                   	dec    %eax
    308e:	89 46 04             	mov    %eax,0x4(%esi)
    3091:	85 c0                	test   %eax,%eax
    3093:	0f 84 a5 00 00 00    	je     313e <parse_expression_precedence+0x67e>
    3099:	8b 13                	mov    (%ebx),%edx
    309b:	31 f6                	xor    %esi,%esi
    309d:	e9 04 fb ff ff       	jmp    2ba6 <parse_expression_precedence+0xe6>
    30a2:	8d b6 00 00 00 00    	lea    0x0(%esi),%esi
    30a8:	8b b3 24 10 00 00    	mov    0x1024(%ebx),%esi
    30ae:	89 d8                	mov    %ebx,%eax
    30b0:	c7 83 24 10 00 00 00 	movl   $0x0,0x1024(%ebx)
    30b7:	00 00 00 
    30ba:	e8 51 f0 ff ff       	call   2110 <next_token>
    30bf:	e9 02 fe ff ff       	jmp    2ec6 <parse_expression_precedence+0x406>
    30c4:	8d 74 26 00          	lea    0x0(%esi,%eiz,1),%esi
    30c8:	8b 83 30 10 00 00    	mov    0x1030(%ebx),%eax
    30ce:	31 f6                	xor    %esi,%esi
    30d0:	85 c0                	test   %eax,%eax
    30d2:	7f 0f                	jg     30e3 <parse_expression_precedence+0x623>
    30d4:	eb 32                	jmp    3108 <parse_expression_precedence+0x648>
    30d6:	66 90                	xchg   %ax,%ax
    30d8:	46                   	inc    %esi
    30d9:	8b 83 30 10 00 00    	mov    0x1030(%ebx),%eax
    30df:	39 c6                	cmp    %eax,%esi
    30e1:	7d 25                	jge    3108 <parse_expression_precedence+0x648>
    30e3:	8b 8b 24 10 00 00    	mov    0x1024(%ebx),%ecx
    30e9:	8b 83 2c 10 00 00    	mov    0x102c(%ebx),%eax
    30ef:	52                   	push   %edx
    30f0:	52                   	push   %edx
    30f1:	51                   	push   %ecx
    30f2:	8b 3c b0             	mov    (%eax,%esi,4),%edi
    30f5:	57                   	push   %edi
    30f6:	e8 c5 ee 00 00       	call   11fc0 <str_cmp@plt>
    30fb:	83 c4 10             	add    $0x10,%esp
    30fe:	85 c0                	test   %eax,%eax
    3100:	75 d6                	jne    30d8 <parse_expression_precedence+0x618>
    3102:	8b 83 30 10 00 00    	mov    0x1030(%ebx),%eax
    3108:	39 c6                	cmp    %eax,%esi
    310a:	0f 85 1f 01 00 00    	jne    322f <parse_expression_precedence+0x76f>
    3110:	8b 13                	mov    (%ebx),%edx
    3112:	31 f6                	xor    %esi,%esi
    3114:	85 d2                	test   %edx,%edx
    3116:	0f 85 fd f9 ff ff    	jne    2b19 <parse_expression_precedence+0x59>
    311c:	ba 90 13 01 00       	mov    $0x11390,%edx
    3121:	89 d8                	mov    %ebx,%eax
    3123:	e8 e8 ee ff ff       	call   2010 <syntax_error.part.2>
    3128:	8b 13                	mov    (%ebx),%edx
    312a:	e9 ea f9 ff ff       	jmp    2b19 <parse_expression_precedence+0x59>
    312f:	83 ec 0c             	sub    $0xc,%esp
    3132:	52                   	push   %edx
    3133:	ff 51 04             	call   *0x4(%ecx)
    3136:	83 c4 10             	add    $0x10,%esp
    3139:	e9 32 ff ff ff       	jmp    3070 <parse_expression_precedence+0x5b0>
    313e:	83 ec 0c             	sub    $0xc,%esp
    3141:	56                   	push   %esi
    3142:	31 f6                	xor    %esi,%esi
    3144:	ff 52 04             	call   *0x4(%edx)
    3147:	8b 13                	mov    (%ebx),%edx
    3149:	83 c4 10             	add    $0x10,%esp
    314c:	e9 55 fa ff ff       	jmp    2ba6 <parse_expression_precedence+0xe6>
    3151:	85 c0                	test   %eax,%eax
    3153:	74 21                	je     3176 <parse_expression_precedence+0x6b6>
    3155:	8b 08                	mov    (%eax),%ecx
    3157:	85 c9                	test   %ecx,%ecx
    3159:	0f 84 1d 04 00 00    	je     357c <parse_expression_precedence+0xabc>
    315f:	8b 50 04             	mov    0x4(%eax),%edx
    3162:	85 d2                	test   %edx,%edx
    3164:	0f 84 00 04 00 00    	je     356a <parse_expression_precedence+0xaaa>
    316a:	4a                   	dec    %edx
    316b:	89 50 04             	mov    %edx,0x4(%eax)
    316e:	85 d2                	test   %edx,%edx
    3170:	0f 84 dd 01 00 00    	je     3353 <parse_expression_precedence+0x893>
    3176:	8b 55 d0             	mov    -0x30(%ebp),%edx
    3179:	85 d2                	test   %edx,%edx
    317b:	74 21                	je     319e <parse_expression_precedence+0x6de>
    317d:	8b 0a                	mov    (%edx),%ecx
    317f:	85 c9                	test   %ecx,%ecx
    3181:	0f 84 f5 03 00 00    	je     357c <parse_expression_precedence+0xabc>
    3187:	8b 42 04             	mov    0x4(%edx),%eax
    318a:	85 c0                	test   %eax,%eax
    318c:	0f 84 d8 03 00 00    	je     356a <parse_expression_precedence+0xaaa>
    3192:	48                   	dec    %eax
    3193:	89 42 04             	mov    %eax,0x4(%edx)
    3196:	85 c0                	test   %eax,%eax
    3198:	0f 84 a4 01 00 00    	je     3342 <parse_expression_precedence+0x882>
    319e:	31 c0                	xor    %eax,%eax
    31a0:	8d 65 f4             	lea    -0xc(%ebp),%esp
    31a3:	5b                   	pop    %ebx
    31a4:	5e                   	pop    %esi
    31a5:	5f                   	pop    %edi
    31a6:	5d                   	pop    %ebp
    31a7:	c3                   	ret    
    31a8:	89 d8                	mov    %ebx,%eax
    31aa:	8b b3 24 10 00 00    	mov    0x1024(%ebx),%esi
    31b0:	8b bb 28 10 00 00    	mov    0x1028(%ebx),%edi
    31b6:	e8 55 ef ff ff       	call   2110 <next_token>
    31bb:	50                   	push   %eax
    31bc:	8d 45 e0             	lea    -0x20(%ebp),%eax
    31bf:	57                   	push   %edi
    31c0:	56                   	push   %esi
    31c1:	50                   	push   %eax
    31c2:	e8 69 88 00 00       	call   ba30 <bithenge_new_integer_node>
    31c7:	83 c4 10             	add    $0x10,%esp
    31ca:	85 c0                	test   %eax,%eax
    31cc:	0f 85 a4 fd ff ff    	jne    2f76 <parse_expression_precedence+0x4b6>
    31d2:	50                   	push   %eax
    31d3:	50                   	push   %eax
    31d4:	8b 45 e0             	mov    -0x20(%ebp),%eax
    31d7:	50                   	push   %eax
    31d8:	8d 45 e4             	lea    -0x1c(%ebp),%eax
    31db:	50                   	push   %eax
    31dc:	e8 df b5 00 00       	call   e7c0 <bithenge_const_expression>
    31e1:	83 c4 10             	add    $0x10,%esp
    31e4:	85 c0                	test   %eax,%eax
    31e6:	0f 85 8a fd ff ff    	jne    2f76 <parse_expression_precedence+0x4b6>
    31ec:	8b 75 e4             	mov    -0x1c(%ebp),%esi
    31ef:	8b 13                	mov    (%ebx),%edx
    31f1:	e9 23 f9 ff ff       	jmp    2b19 <parse_expression_precedence+0x59>
    31f6:	89 d8                	mov    %ebx,%eax
    31f8:	e8 13 ef ff ff       	call   2110 <next_token>
    31fd:	83 ec 0c             	sub    $0xc,%esp
    3200:	8d 45 e4             	lea    -0x1c(%ebp),%eax
    3203:	c6 83 34 10 00 00 01 	movb   $0x1,0x1034(%ebx)
    320a:	50                   	push   %eax
    320b:	e8 30 b5 00 00       	call   e740 <bithenge_in_node_expression>
    3210:	83 c4 10             	add    $0x10,%esp
    3213:	85 c0                	test   %eax,%eax
    3215:	74 d5                	je     31ec <parse_expression_precedence+0x72c>
    3217:	e9 5a fd ff ff       	jmp    2f76 <parse_expression_precedence+0x4b6>
    321c:	ba c1 13 01 00       	mov    $0x113c1,%edx
    3221:	89 d8                	mov    %ebx,%eax
    3223:	e8 e8 ed ff ff       	call   2010 <syntax_error.part.2>
    3228:	8b 13                	mov    (%ebx),%edx
    322a:	e9 ea f8 ff ff       	jmp    2b19 <parse_expression_precedence+0x59>
    322f:	89 d8                	mov    %ebx,%eax
    3231:	e8 da ee ff ff       	call   2110 <next_token>
    3236:	50                   	push   %eax
    3237:	50                   	push   %eax
    3238:	8d 45 e4             	lea    -0x1c(%ebp),%eax
    323b:	56                   	push   %esi
    323c:	50                   	push   %eax
    323d:	e8 3e b5 00 00       	call   e780 <bithenge_param_expression>
    3242:	83 c4 10             	add    $0x10,%esp
    3245:	85 c0                	test   %eax,%eax
    3247:	74 a3                	je     31ec <parse_expression_precedence+0x72c>
    3249:	e9 28 fd ff ff       	jmp    2f76 <parse_expression_precedence+0x4b6>
    324e:	8b 13                	mov    (%ebx),%edx
    3250:	c7 45 d0 00 00 00 00 	movl   $0x0,-0x30(%ebp)
    3257:	85 d2                	test   %edx,%edx
    3259:	0f 85 4d f9 ff ff    	jne    2bac <parse_expression_precedence+0xec>
    325f:	83 bb 20 10 00 00 86 	cmpl   $0xffffff86,0x1020(%ebx)
    3266:	0f 84 c3 02 00 00    	je     352f <parse_expression_precedence+0xa6f>
    326c:	c7 83 20 10 00 00 80 	movl   $0xffffff80,0x1020(%ebx)
    3273:	ff ff ff 
    3276:	89 03                	mov    %eax,(%ebx)
    3278:	89 c2                	mov    %eax,%edx
    327a:	e9 2d f9 ff ff       	jmp    2bac <parse_expression_precedence+0xec>
    327f:	90                   	nop
    3280:	8b 13                	mov    (%ebx),%edx
    3282:	85 d2                	test   %edx,%edx
    3284:	0f 84 e6 00 00 00    	je     3370 <parse_expression_precedence+0x8b0>
    328a:	8b 4d d4             	mov    -0x2c(%ebp),%ecx
    328d:	85 c9                	test   %ecx,%ecx
    328f:	0f 84 b1 fa ff ff    	je     2d46 <parse_expression_precedence+0x286>
    3295:	8b 31                	mov    (%ecx),%esi
    3297:	85 f6                	test   %esi,%esi
    3299:	0f 84 dd 02 00 00    	je     357c <parse_expression_precedence+0xabc>
    329f:	8b 41 04             	mov    0x4(%ecx),%eax
    32a2:	85 c0                	test   %eax,%eax
    32a4:	0f 84 c0 02 00 00    	je     356a <parse_expression_precedence+0xaaa>
    32aa:	48                   	dec    %eax
    32ab:	89 41 04             	mov    %eax,0x4(%ecx)
    32ae:	85 c0                	test   %eax,%eax
    32b0:	0f 85 90 fa ff ff    	jne    2d46 <parse_expression_precedence+0x286>
    32b6:	83 ec 0c             	sub    $0xc,%esp
    32b9:	51                   	push   %ecx
    32ba:	ff 56 04             	call   *0x4(%esi)
    32bd:	8b 13                	mov    (%ebx),%edx
    32bf:	83 c4 10             	add    $0x10,%esp
    32c2:	31 f6                	xor    %esi,%esi
    32c4:	e9 dd f8 ff ff       	jmp    2ba6 <parse_expression_precedence+0xe6>
    32c9:	89 d8                	mov    %ebx,%eax
    32cb:	e8 40 ee ff ff       	call   2110 <next_token>
    32d0:	83 bb 20 10 00 00 86 	cmpl   $0xffffff86,0x1020(%ebx)
    32d7:	0f 84 c6 00 00 00    	je     33a3 <parse_expression_precedence+0x8e3>
    32dd:	8b 03                	mov    (%ebx),%eax
    32df:	85 c0                	test   %eax,%eax
    32e1:	0f 84 ae 01 00 00    	je     3495 <parse_expression_precedence+0x9d5>
    32e7:	c7 45 e0 00 00 00 00 	movl   $0x0,-0x20(%ebp)
    32ee:	c7 45 e4 00 00 00 00 	movl   $0x0,-0x1c(%ebp)
    32f5:	31 c0                	xor    %eax,%eax
    32f7:	83 ec 0c             	sub    $0xc,%esp
    32fa:	50                   	push   %eax
    32fb:	e8 f0 ed 00 00       	call   120f0 <free@plt>
    3300:	8b 55 e0             	mov    -0x20(%ebp),%edx
    3303:	58                   	pop    %eax
    3304:	52                   	push   %edx
    3305:	e8 16 83 00 00       	call   b620 <bithenge_node_dec_ref>
    330a:	8b 75 e4             	mov    -0x1c(%ebp),%esi
    330d:	83 c4 10             	add    $0x10,%esp
    3310:	85 f6                	test   %esi,%esi
    3312:	0f 84 10 ff ff ff    	je     3228 <parse_expression_precedence+0x768>
    3318:	8b 16                	mov    (%esi),%edx
    331a:	85 d2                	test   %edx,%edx
    331c:	0f 84 5a 02 00 00    	je     357c <parse_expression_precedence+0xabc>
    3322:	8b 46 04             	mov    0x4(%esi),%eax
    3325:	85 c0                	test   %eax,%eax
    3327:	0f 84 3d 02 00 00    	je     356a <parse_expression_precedence+0xaaa>
    332d:	48                   	dec    %eax
    332e:	89 46 04             	mov    %eax,0x4(%esi)
    3331:	85 c0                	test   %eax,%eax
    3333:	0f 84 a9 01 00 00    	je     34e2 <parse_expression_precedence+0xa22>
    3339:	8b 13                	mov    (%ebx),%edx
    333b:	31 f6                	xor    %esi,%esi
    333d:	e9 d7 f7 ff ff       	jmp    2b19 <parse_expression_precedence+0x59>
    3342:	83 ec 0c             	sub    $0xc,%esp
    3345:	52                   	push   %edx
    3346:	ff 51 04             	call   *0x4(%ecx)
    3349:	83 c4 10             	add    $0x10,%esp
    334c:	31 c0                	xor    %eax,%eax
    334e:	e9 4d fe ff ff       	jmp    31a0 <parse_expression_precedence+0x6e0>
    3353:	83 ec 0c             	sub    $0xc,%esp
    3356:	50                   	push   %eax
    3357:	ff 51 04             	call   *0x4(%ecx)
    335a:	8b 0b                	mov    (%ebx),%ecx
    335c:	83 c4 10             	add    $0x10,%esp
    335f:	85 c9                	test   %ecx,%ecx
    3361:	0f 84 8c f8 ff ff    	je     2bf3 <parse_expression_precedence+0x133>
    3367:	e9 0a fe ff ff       	jmp    3176 <parse_expression_precedence+0x6b6>
    336c:	8d 74 26 00          	lea    0x0(%esi,%eiz,1),%esi
    3370:	83 bb 20 10 00 00 86 	cmpl   $0xffffff86,0x1020(%ebx)
    3377:	0f 84 78 01 00 00    	je     34f5 <parse_expression_precedence+0xa35>
    337d:	c7 83 20 10 00 00 80 	movl   $0xffffff80,0x1020(%ebx)
    3384:	ff ff ff 
    3387:	89 03                	mov    %eax,(%ebx)
    3389:	89 c2                	mov    %eax,%edx
    338b:	e9 fa fe ff ff       	jmp    328a <parse_expression_precedence+0x7ca>
    3390:	83 ec 0c             	sub    $0xc,%esp
    3393:	31 f6                	xor    %esi,%esi
    3395:	52                   	push   %edx
    3396:	ff 51 04             	call   *0x4(%ecx)
    3399:	8b 13                	mov    (%ebx),%edx
    339b:	83 c4 10             	add    $0x10,%esp
    339e:	e9 03 f8 ff ff       	jmp    2ba6 <parse_expression_precedence+0xe6>
    33a3:	8b b3 24 10 00 00    	mov    0x1024(%ebx),%esi
    33a9:	89 d8                	mov    %ebx,%eax
    33ab:	c7 83 24 10 00 00 00 	movl   $0x0,0x1024(%ebx)
    33b2:	00 00 00 
    33b5:	e8 56 ed ff ff       	call   2110 <next_token>
    33ba:	8b 03                	mov    (%ebx),%eax
    33bc:	c7 45 e0 00 00 00 00 	movl   $0x0,-0x20(%ebp)
    33c3:	c7 45 e4 00 00 00 00 	movl   $0x0,-0x1c(%ebp)
    33ca:	85 c0                	test   %eax,%eax
    33cc:	0f 85 09 01 00 00    	jne    34db <parse_expression_precedence+0xa1b>
    33d2:	50                   	push   %eax
    33d3:	8d 45 e0             	lea    -0x20(%ebp),%eax
    33d6:	6a 01                	push   $0x1
    33d8:	56                   	push   %esi
    33d9:	50                   	push   %eax
    33da:	e8 c1 86 00 00       	call   baa0 <bithenge_new_string_node>
    33df:	8b 13                	mov    (%ebx),%edx
    33e1:	83 c4 10             	add    $0x10,%esp
    33e4:	89 c6                	mov    %eax,%esi
    33e6:	85 d2                	test   %edx,%edx
    33e8:	75 08                	jne    33f2 <parse_expression_precedence+0x932>
    33ea:	85 c0                	test   %eax,%eax
    33ec:	0f 85 c9 00 00 00    	jne    34bb <parse_expression_precedence+0x9fb>
    33f2:	85 d2                	test   %edx,%edx
    33f4:	0f 85 69 01 00 00    	jne    3563 <parse_expression_precedence+0xaa3>
    33fa:	50                   	push   %eax
    33fb:	50                   	push   %eax
    33fc:	8b 45 e0             	mov    -0x20(%ebp),%eax
    33ff:	50                   	push   %eax
    3400:	8d 45 e4             	lea    -0x1c(%ebp),%eax
    3403:	50                   	push   %eax
    3404:	e8 17 b4 00 00       	call   e820 <bithenge_scope_member_expression>
    3409:	83 c4 10             	add    $0x10,%esp
    340c:	89 c6                	mov    %eax,%esi
    340e:	c7 45 e0 00 00 00 00 	movl   $0x0,-0x20(%ebp)
    3415:	85 c0                	test   %eax,%eax
    3417:	0f 85 8d 00 00 00    	jne    34aa <parse_expression_precedence+0x9ea>
    341d:	8b 13                	mov    (%ebx),%edx
    341f:	85 d2                	test   %edx,%edx
    3421:	0f 85 3c 01 00 00    	jne    3563 <parse_expression_precedence+0xaa3>
    3427:	8b 75 e4             	mov    -0x1c(%ebp),%esi
    342a:	e9 ea f6 ff ff       	jmp    2b19 <parse_expression_precedence+0x59>
    342f:	83 ec 0c             	sub    $0xc,%esp
    3432:	89 45 c4             	mov    %eax,-0x3c(%ebp)
    3435:	8b 83 24 10 00 00    	mov    0x1024(%ebx),%eax
    343b:	50                   	push   %eax
    343c:	e8 af ec 00 00       	call   120f0 <free@plt>
    3441:	83 c4 10             	add    $0x10,%esp
    3444:	8b 45 c4             	mov    -0x3c(%ebp),%eax
    3447:	e9 5f f9 ff ff       	jmp    2dab <parse_expression_precedence+0x2eb>
    344c:	89 d8                	mov    %ebx,%eax
    344e:	e8 bd ec ff ff       	call   2110 <next_token>
    3453:	31 d2                	xor    %edx,%edx
    3455:	89 d8                	mov    %ebx,%eax
    3457:	e8 64 f6 ff ff       	call   2ac0 <parse_expression_precedence>
    345c:	ba 29 00 00 00       	mov    $0x29,%edx
    3461:	89 c6                	mov    %eax,%esi
    3463:	89 d8                	mov    %ebx,%eax
    3465:	e8 36 f5 ff ff       	call   29a0 <expect>
    346a:	8b 13                	mov    (%ebx),%edx
    346c:	e9 a8 f6 ff ff       	jmp    2b19 <parse_expression_precedence+0x59>
    3471:	8b 13                	mov    (%ebx),%edx
    3473:	e9 2e f7 ff ff       	jmp    2ba6 <parse_expression_precedence+0xe6>
    3478:	83 ec 0c             	sub    $0xc,%esp
    347b:	89 45 c4             	mov    %eax,-0x3c(%ebp)
    347e:	8b 83 24 10 00 00    	mov    0x1024(%ebx),%eax
    3484:	50                   	push   %eax
    3485:	e8 66 ec 00 00       	call   120f0 <free@plt>
    348a:	83 c4 10             	add    $0x10,%esp
    348d:	8b 45 c4             	mov    -0x3c(%ebp),%eax
    3490:	e9 fa fa ff ff       	jmp    2f8f <parse_expression_precedence+0x4cf>
    3495:	89 d8                	mov    %ebx,%eax
    3497:	ba 2c 14 01 00       	mov    $0x1142c,%edx
    349c:	e8 6f eb ff ff       	call   2010 <syntax_error.part.2>
    34a1:	31 f6                	xor    %esi,%esi
    34a3:	8b 03                	mov    (%ebx),%eax
    34a5:	e9 12 ff ff ff       	jmp    33bc <parse_expression_precedence+0x8fc>
    34aa:	8b 3b                	mov    (%ebx),%edi
    34ac:	c7 45 e4 00 00 00 00 	movl   $0x0,-0x1c(%ebp)
    34b3:	85 ff                	test   %edi,%edi
    34b5:	0f 85 a8 00 00 00    	jne    3563 <parse_expression_precedence+0xaa3>
    34bb:	83 bb 20 10 00 00 86 	cmpl   $0xffffff86,0x1020(%ebx)
    34c2:	0f 84 84 00 00 00    	je     354c <parse_expression_precedence+0xa8c>
    34c8:	c7 83 20 10 00 00 80 	movl   $0xffffff80,0x1020(%ebx)
    34cf:	ff ff ff 
    34d2:	89 33                	mov    %esi,(%ebx)
    34d4:	31 c0                	xor    %eax,%eax
    34d6:	e9 1c fe ff ff       	jmp    32f7 <parse_expression_precedence+0x837>
    34db:	89 f0                	mov    %esi,%eax
    34dd:	e9 15 fe ff ff       	jmp    32f7 <parse_expression_precedence+0x837>
    34e2:	83 ec 0c             	sub    $0xc,%esp
    34e5:	56                   	push   %esi
    34e6:	31 f6                	xor    %esi,%esi
    34e8:	ff 52 04             	call   *0x4(%edx)
    34eb:	8b 13                	mov    (%ebx),%edx
    34ed:	83 c4 10             	add    $0x10,%esp
    34f0:	e9 24 f6 ff ff       	jmp    2b19 <parse_expression_precedence+0x59>
    34f5:	83 ec 0c             	sub    $0xc,%esp
    34f8:	89 45 c4             	mov    %eax,-0x3c(%ebp)
    34fb:	8b 83 24 10 00 00    	mov    0x1024(%ebx),%eax
    3501:	50                   	push   %eax
    3502:	e8 e9 eb 00 00       	call   120f0 <free@plt>
    3507:	83 c4 10             	add    $0x10,%esp
    350a:	8b 45 c4             	mov    -0x3c(%ebp),%eax
    350d:	e9 6b fe ff ff       	jmp    337d <parse_expression_precedence+0x8bd>
    3512:	83 ec 0c             	sub    $0xc,%esp
    3515:	89 45 c4             	mov    %eax,-0x3c(%ebp)
    3518:	8b 83 24 10 00 00    	mov    0x1024(%ebx),%eax
    351e:	50                   	push   %eax
    351f:	e8 cc eb 00 00       	call   120f0 <free@plt>
    3524:	83 c4 10             	add    $0x10,%esp
    3527:	8b 45 c4             	mov    -0x3c(%ebp),%eax
    352a:	e9 0c fa ff ff       	jmp    2f3b <parse_expression_precedence+0x47b>
    352f:	83 ec 0c             	sub    $0xc,%esp
    3532:	89 45 c4             	mov    %eax,-0x3c(%ebp)
    3535:	8b 83 24 10 00 00    	mov    0x1024(%ebx),%eax
    353b:	50                   	push   %eax
    353c:	e8 af eb 00 00       	call   120f0 <free@plt>
    3541:	83 c4 10             	add    $0x10,%esp
    3544:	8b 45 c4             	mov    -0x3c(%ebp),%eax
    3547:	e9 20 fd ff ff       	jmp    326c <parse_expression_precedence+0x7ac>
    354c:	83 ec 0c             	sub    $0xc,%esp
    354f:	8b 8b 24 10 00 00    	mov    0x1024(%ebx),%ecx
    3555:	51                   	push   %ecx
    3556:	e8 95 eb 00 00       	call   120f0 <free@plt>
    355b:	83 c4 10             	add    $0x10,%esp
    355e:	e9 65 ff ff ff       	jmp    34c8 <parse_expression_precedence+0xa08>
    3563:	31 c0                	xor    %eax,%eax
    3565:	e9 8d fd ff ff       	jmp    32f7 <parse_expression_precedence+0x837>
    356a:	50                   	push   %eax
    356b:	6a 4c                	push   $0x4c
    356d:	68 a3 13 01 00       	push   $0x113a3
    3572:	68 6b 11 01 00       	push   $0x1116b
    3577:	e8 94 e9 00 00       	call   11f10 <assert_abort@plt>
    357c:	50                   	push   %eax
    357d:	6a 4b                	push   $0x4b
    357f:	68 a3 13 01 00       	push   $0x113a3
    3584:	68 61 11 01 00       	push   $0x11161
    3589:	e8 82 e9 00 00       	call   11f10 <assert_abort@plt>
    358e:	66 90                	xchg   %ax,%ax

00003590 <parse_transform>:
    3590:	55                   	push   %ebp
    3591:	89 e5                	mov    %esp,%ebp
    3593:	57                   	push   %edi
    3594:	56                   	push   %esi
    3595:	53                   	push   %ebx
    3596:	83 ec 5c             	sub    $0x5c,%esp
    3599:	89 c7                	mov    %eax,%edi
    359b:	8b 80 20 10 00 00    	mov    0x1020(%eax),%eax
    35a1:	83 f8 28             	cmp    $0x28,%eax
    35a4:	0f 84 4e 07 00 00    	je     3cf8 <parse_transform+0x768>
    35aa:	83 f8 8d             	cmp    $0xffffff8d,%eax
    35ad:	0f 84 0d 0a 00 00    	je     3fc0 <parse_transform+0xa30>
    35b3:	83 f8 86             	cmp    $0xffffff86,%eax
    35b6:	0f 84 3a 0b 00 00    	je     40f6 <parse_transform+0xb66>
    35bc:	83 f8 90             	cmp    $0xffffff90,%eax
    35bf:	0f 84 2b 0c 00 00    	je     41f0 <parse_transform+0xc60>
    35c5:	83 f8 92             	cmp    $0xffffff92,%eax
    35c8:	0f 84 9a 07 00 00    	je     3d68 <parse_transform+0x7d8>
    35ce:	83 f8 93             	cmp    $0xffffff93,%eax
    35d1:	0f 84 95 0a 00 00    	je     406c <parse_transform+0xadc>
    35d7:	83 f8 94             	cmp    $0xffffff94,%eax
    35da:	0f 84 33 0d 00 00    	je     4313 <parse_transform+0xd83>
    35e0:	83 f8 95             	cmp    $0xffffff95,%eax
    35e3:	0f 84 cb 0e 00 00    	je     44b4 <parse_transform+0xf24>
    35e9:	8b 1f                	mov    (%edi),%ebx
    35eb:	31 f6                	xor    %esi,%esi
    35ed:	85 db                	test   %ebx,%ebx
    35ef:	0f 84 13 08 00 00    	je     3e08 <parse_transform+0x878>
    35f5:	89 75 c4             	mov    %esi,-0x3c(%ebp)
    35f8:	83 f8 89             	cmp    $0xffffff89,%eax
    35fb:	0f 85 d8 08 00 00    	jne    3ed9 <parse_transform+0x949>
    3601:	c7 45 b0 04 00 00 00 	movl   $0x4,-0x50(%ebp)
    3608:	be 01 00 00 00       	mov    $0x1,%esi
    360d:	31 db                	xor    %ebx,%ebx
    360f:	90                   	nop
    3610:	89 f8                	mov    %edi,%eax
    3612:	e8 f9 ea ff ff       	call   2110 <next_token>
    3617:	8b 0f                	mov    (%edi),%ecx
    3619:	85 c9                	test   %ecx,%ecx
    361b:	74 53                	je     3670 <parse_transform+0xe0>
    361d:	85 db                	test   %ebx,%ebx
    361f:	0f 95 c1             	setne  %cl
    3622:	8d b6 00 00 00 00    	lea    0x0(%esi),%esi
    3628:	83 fe 01             	cmp    $0x1,%esi
    362b:	0f 86 b4 08 00 00    	jbe    3ee5 <parse_transform+0x955>
    3631:	84 c9                	test   %cl,%cl
    3633:	0f 84 ac 08 00 00    	je     3ee5 <parse_transform+0x955>
    3639:	4e                   	dec    %esi
    363a:	8b 14 b3             	mov    (%ebx,%esi,4),%edx
    363d:	85 d2                	test   %edx,%edx
    363f:	74 e7                	je     3628 <parse_transform+0x98>
    3641:	8b 3a                	mov    (%edx),%edi
    3643:	85 ff                	test   %edi,%edi
    3645:	0f 84 85 12 00 00    	je     48d0 <parse_transform+0x1340>
    364b:	8b 42 04             	mov    0x4(%edx),%eax
    364e:	85 c0                	test   %eax,%eax
    3650:	0f 84 b9 12 00 00    	je     490f <parse_transform+0x137f>
    3656:	48                   	dec    %eax
    3657:	89 42 04             	mov    %eax,0x4(%edx)
    365a:	85 c0                	test   %eax,%eax
    365c:	75 ca                	jne    3628 <parse_transform+0x98>
    365e:	83 ec 0c             	sub    $0xc,%esp
    3661:	88 4d b4             	mov    %cl,-0x4c(%ebp)
    3664:	52                   	push   %edx
    3665:	ff 57 0c             	call   *0xc(%edi)
    3668:	83 c4 10             	add    $0x10,%esp
    366b:	8a 4d b4             	mov    -0x4c(%ebp),%cl
    366e:	eb b8                	jmp    3628 <parse_transform+0x98>
    3670:	8d 46 01             	lea    0x1(%esi),%eax
    3673:	52                   	push   %edx
    3674:	89 45 a8             	mov    %eax,-0x58(%ebp)
    3677:	52                   	push   %edx
    3678:	c1 e0 02             	shl    $0x2,%eax
    367b:	50                   	push   %eax
    367c:	53                   	push   %ebx
    367d:	e8 1e e9 00 00       	call   11fa0 <realloc@plt>
    3682:	83 c4 10             	add    $0x10,%esp
    3685:	89 45 b4             	mov    %eax,-0x4c(%ebp)
    3688:	85 c0                	test   %eax,%eax
    368a:	0f 84 48 01 00 00    	je     37d8 <parse_transform+0x248>
    3690:	8b 1f                	mov    (%edi),%ebx
    3692:	85 db                	test   %ebx,%ebx
    3694:	0f 85 5a 12 00 00    	jne    48f4 <parse_transform+0x1364>
    369a:	8b 55 b0             	mov    -0x50(%ebp),%edx
    369d:	01 d0                	add    %edx,%eax
    369f:	89 45 ac             	mov    %eax,-0x54(%ebp)
    36a2:	8b 87 20 10 00 00    	mov    0x1020(%edi),%eax
    36a8:	83 f8 28             	cmp    $0x28,%eax
    36ab:	0f 84 b7 00 00 00    	je     3768 <parse_transform+0x1d8>
    36b1:	83 f8 8d             	cmp    $0xffffff8d,%eax
    36b4:	0f 84 4e 01 00 00    	je     3808 <parse_transform+0x278>
    36ba:	83 f8 86             	cmp    $0xffffff86,%eax
    36bd:	0f 84 ad 02 00 00    	je     3970 <parse_transform+0x3e0>
    36c3:	83 f8 90             	cmp    $0xffffff90,%eax
    36c6:	0f 84 5c 03 00 00    	je     3a28 <parse_transform+0x498>
    36cc:	83 f8 92             	cmp    $0xffffff92,%eax
    36cf:	0f 84 e3 01 00 00    	je     38b8 <parse_transform+0x328>
    36d5:	83 f8 93             	cmp    $0xffffff93,%eax
    36d8:	0f 84 62 03 00 00    	je     3a40 <parse_transform+0x4b0>
    36de:	83 f8 94             	cmp    $0xffffff94,%eax
    36e1:	0f 84 c9 03 00 00    	je     3ab0 <parse_transform+0x520>
    36e7:	83 f8 95             	cmp    $0xffffff95,%eax
    36ea:	0f 84 f8 03 00 00    	je     3ae8 <parse_transform+0x558>
    36f0:	ba 78 14 01 00       	mov    $0x11478,%edx
    36f5:	89 f8                	mov    %edi,%eax
    36f7:	e8 14 e9 ff ff       	call   2010 <syntax_error.part.2>
    36fc:	8b 87 20 10 00 00    	mov    0x1020(%edi),%eax
    3702:	31 f6                	xor    %esi,%esi
    3704:	8b 55 ac             	mov    -0x54(%ebp),%edx
    3707:	8b 5d b4             	mov    -0x4c(%ebp),%ebx
    370a:	89 32                	mov    %esi,(%edx)
    370c:	8b 55 b0             	mov    -0x50(%ebp),%edx
    370f:	83 c2 04             	add    $0x4,%edx
    3712:	8b 75 a8             	mov    -0x58(%ebp),%esi
    3715:	89 55 b0             	mov    %edx,-0x50(%ebp)
    3718:	83 f8 89             	cmp    $0xffffff89,%eax
    371b:	0f 84 ef fe ff ff    	je     3610 <parse_transform+0x80>
    3721:	8d b4 26 00 00 00 00 	lea    0x0(%esi,%eiz,1),%esi
    3728:	8b 07                	mov    (%edi),%eax
    372a:	85 c0                	test   %eax,%eax
    372c:	0f 85 77 0d 00 00    	jne    44a9 <parse_transform+0xf19>
    3732:	8b 4d b4             	mov    -0x4c(%ebp),%ecx
    3735:	8b 45 c4             	mov    -0x3c(%ebp),%eax
    3738:	89 01                	mov    %eax,(%ecx)
    373a:	8b 45 a8             	mov    -0x58(%ebp),%eax
    373d:	56                   	push   %esi
    373e:	50                   	push   %eax
    373f:	8d 45 c4             	lea    -0x3c(%ebp),%eax
    3742:	51                   	push   %ecx
    3743:	50                   	push   %eax
    3744:	e8 a7 99 00 00       	call   d0f0 <bithenge_new_composed_transform>
    3749:	83 c4 10             	add    $0x10,%esp
    374c:	85 c0                	test   %eax,%eax
    374e:	0f 85 f4 03 00 00    	jne    3b48 <parse_transform+0x5b8>
    3754:	8b 75 c4             	mov    -0x3c(%ebp),%esi
    3757:	8d 65 f4             	lea    -0xc(%ebp),%esp
    375a:	89 f0                	mov    %esi,%eax
    375c:	5b                   	pop    %ebx
    375d:	5e                   	pop    %esi
    375e:	5f                   	pop    %edi
    375f:	5d                   	pop    %ebp
    3760:	c3                   	ret    
    3761:	8d b4 26 00 00 00 00 	lea    0x0(%esi,%eiz,1),%esi
    3768:	89 f8                	mov    %edi,%eax
    376a:	e8 a1 e9 ff ff       	call   2110 <next_token>
    376f:	31 d2                	xor    %edx,%edx
    3771:	c6 87 34 10 00 00 00 	movb   $0x0,0x1034(%edi)
    3778:	89 f8                	mov    %edi,%eax
    377a:	e8 41 f3 ff ff       	call   2ac0 <parse_expression_precedence>
    377f:	83 bf 20 10 00 00 29 	cmpl   $0x29,0x1020(%edi)
    3786:	89 c3                	mov    %eax,%ebx
    3788:	0f 84 1a 04 00 00    	je     3ba8 <parse_transform+0x618>
    378e:	8b 07                	mov    (%edi),%eax
    3790:	85 c0                	test   %eax,%eax
    3792:	0f 84 60 03 00 00    	je     3af8 <parse_transform+0x568>
    3798:	85 db                	test   %ebx,%ebx
    379a:	0f 84 5c ff ff ff    	je     36fc <parse_transform+0x16c>
    37a0:	8b 13                	mov    (%ebx),%edx
    37a2:	85 d2                	test   %edx,%edx
    37a4:	0f 84 53 11 00 00    	je     48fd <parse_transform+0x136d>
    37aa:	8b 43 04             	mov    0x4(%ebx),%eax
    37ad:	85 c0                	test   %eax,%eax
    37af:	0f 84 2d 11 00 00    	je     48e2 <parse_transform+0x1352>
    37b5:	48                   	dec    %eax
    37b6:	89 43 04             	mov    %eax,0x4(%ebx)
    37b9:	85 c0                	test   %eax,%eax
    37bb:	0f 85 3b ff ff ff    	jne    36fc <parse_transform+0x16c>
    37c1:	83 ec 0c             	sub    $0xc,%esp
    37c4:	31 f6                	xor    %esi,%esi
    37c6:	53                   	push   %ebx
    37c7:	ff 52 04             	call   *0x4(%edx)
    37ca:	8b 87 20 10 00 00    	mov    0x1020(%edi),%eax
    37d0:	83 c4 10             	add    $0x10,%esp
    37d3:	e9 2c ff ff ff       	jmp    3704 <parse_transform+0x174>
    37d8:	8b 07                	mov    (%edi),%eax
    37da:	85 c0                	test   %eax,%eax
    37dc:	0f 85 3b fe ff ff    	jne    361d <parse_transform+0x8d>
    37e2:	83 bf 20 10 00 00 86 	cmpl   $0xffffff86,0x1020(%edi)
    37e9:	0f 84 a3 0c 00 00    	je     4492 <parse_transform+0xf02>
    37ef:	c7 87 20 10 00 00 80 	movl   $0xffffff80,0x1020(%edi)
    37f6:	ff ff ff 
    37f9:	c7 07 fe ff ff ff    	movl   $0xfffffffe,(%edi)
    37ff:	e9 19 fe ff ff       	jmp    361d <parse_transform+0x8d>
    3804:	8d 74 26 00          	lea    0x0(%esi,%eiz,1),%esi
    3808:	ba 8d ff ff ff       	mov    $0xffffff8d,%edx
    380d:	89 f8                	mov    %edi,%eax
    380f:	e8 8c f1 ff ff       	call   29a0 <expect>
    3814:	ba 7b 00 00 00       	mov    $0x7b,%edx
    3819:	89 f8                	mov    %edi,%eax
    381b:	e8 80 f1 ff ff       	call   29a0 <expect>
    3820:	89 f8                	mov    %edi,%eax
    3822:	e8 69 fd ff ff       	call   3590 <parse_transform>
    3827:	ba 7d 00 00 00       	mov    $0x7d,%edx
    382c:	89 c6                	mov    %eax,%esi
    382e:	89 f8                	mov    %edi,%eax
    3830:	e8 6b f1 ff ff       	call   29a0 <expect>
    3835:	ba 98 ff ff ff       	mov    $0xffffff98,%edx
    383a:	89 f8                	mov    %edi,%eax
    383c:	e8 5f f1 ff ff       	call   29a0 <expect>
    3841:	ba 28 00 00 00       	mov    $0x28,%edx
    3846:	89 f8                	mov    %edi,%eax
    3848:	e8 53 f1 ff ff       	call   29a0 <expect>
    384d:	31 d2                	xor    %edx,%edx
    384f:	89 f8                	mov    %edi,%eax
    3851:	e8 6a f2 ff ff       	call   2ac0 <parse_expression_precedence>
    3856:	ba 29 00 00 00       	mov    $0x29,%edx
    385b:	89 c3                	mov    %eax,%ebx
    385d:	89 f8                	mov    %edi,%eax
    385f:	e8 3c f1 ff ff       	call   29a0 <expect>
    3864:	8b 07                	mov    (%edi),%eax
    3866:	85 c0                	test   %eax,%eax
    3868:	0f 85 1b 04 00 00    	jne    3c89 <parse_transform+0x6f9>
    386e:	50                   	push   %eax
    386f:	8d 45 e4             	lea    -0x1c(%ebp),%eax
    3872:	53                   	push   %ebx
    3873:	56                   	push   %esi
    3874:	50                   	push   %eax
    3875:	e8 d6 50 00 00       	call   8950 <bithenge_do_while_transform>
    387a:	83 c4 10             	add    $0x10,%esp
    387d:	85 c0                	test   %eax,%eax
    387f:	0f 84 d8 00 00 00    	je     395d <parse_transform+0x3cd>
    3885:	8b 1f                	mov    (%edi),%ebx
    3887:	85 db                	test   %ebx,%ebx
    3889:	0f 85 6d fe ff ff    	jne    36fc <parse_transform+0x16c>
    388f:	8b 5d ac             	mov    -0x54(%ebp),%ebx
    3892:	83 bf 20 10 00 00 86 	cmpl   $0xffffff86,0x1020(%edi)
    3899:	0f 84 72 09 00 00    	je     4211 <parse_transform+0xc81>
    389f:	c7 87 20 10 00 00 80 	movl   $0xffffff80,0x1020(%edi)
    38a6:	ff ff ff 
    38a9:	89 07                	mov    %eax,(%edi)
    38ab:	c7 03 00 00 00 00    	movl   $0x0,(%ebx)
    38b1:	e9 72 fe ff ff       	jmp    3728 <parse_transform+0x198>
    38b6:	66 90                	xchg   %ax,%ax
    38b8:	ba 92 ff ff ff       	mov    $0xffffff92,%edx
    38bd:	89 f8                	mov    %edi,%eax
    38bf:	e8 dc f0 ff ff       	call   29a0 <expect>
    38c4:	c7 45 dc 00 00 00 00 	movl   $0x0,-0x24(%ebp)
    38cb:	83 bf 20 10 00 00 28 	cmpl   $0x28,0x1020(%edi)
    38d2:	0f 84 e0 02 00 00    	je     3bb8 <parse_transform+0x628>
    38d8:	ba 7b 00 00 00       	mov    $0x7b,%edx
    38dd:	89 f8                	mov    %edi,%eax
    38df:	e8 bc f0 ff ff       	call   29a0 <expect>
    38e4:	89 f8                	mov    %edi,%eax
    38e6:	e8 a5 fc ff ff       	call   3590 <parse_transform>
    38eb:	ba 7d 00 00 00       	mov    $0x7d,%edx
    38f0:	89 45 e4             	mov    %eax,-0x1c(%ebp)
    38f3:	89 f8                	mov    %edi,%eax
    38f5:	e8 a6 f0 ff ff       	call   29a0 <expect>
    38fa:	8b 37                	mov    (%edi),%esi
    38fc:	85 f6                	test   %esi,%esi
    38fe:	0f 85 ba 09 00 00    	jne    42be <parse_transform+0xd2e>
    3904:	8b 5d e4             	mov    -0x1c(%ebp),%ebx
    3907:	8d 45 e4             	lea    -0x1c(%ebp),%eax
    390a:	51                   	push   %ecx
    390b:	51                   	push   %ecx
    390c:	53                   	push   %ebx
    390d:	50                   	push   %eax
    390e:	e8 7d 9a 00 00       	call   d390 <bithenge_partial_transform>
    3913:	83 c4 10             	add    $0x10,%esp
    3916:	85 c0                	test   %eax,%eax
    3918:	0f 85 df 09 00 00    	jne    42fd <parse_transform+0xd6d>
    391e:	8b 5d dc             	mov    -0x24(%ebp),%ebx
    3921:	85 db                	test   %ebx,%ebx
    3923:	74 38                	je     395d <parse_transform+0x3cd>
    3925:	83 ec 0c             	sub    $0xc,%esp
    3928:	6a 08                	push   $0x8
    392a:	e8 31 e5 00 00       	call   11e60 <malloc@plt>
    392f:	83 c4 10             	add    $0x10,%esp
    3932:	85 c0                	test   %eax,%eax
    3934:	0f 84 2e 0c 00 00    	je     4568 <parse_transform+0xfd8>
    393a:	8b 55 e4             	mov    -0x1c(%ebp),%edx
    393d:	89 10                	mov    %edx,(%eax)
    393f:	8b 55 dc             	mov    -0x24(%ebp),%edx
    3942:	89 50 04             	mov    %edx,0x4(%eax)
    3945:	52                   	push   %edx
    3946:	6a 02                	push   $0x2
    3948:	50                   	push   %eax
    3949:	8d 45 e4             	lea    -0x1c(%ebp),%eax
    394c:	50                   	push   %eax
    394d:	e8 9e 97 00 00       	call   d0f0 <bithenge_new_composed_transform>
    3952:	83 c4 10             	add    $0x10,%esp
    3955:	85 c0                	test   %eax,%eax
    3957:	0f 85 28 ff ff ff    	jne    3885 <parse_transform+0x2f5>
    395d:	8b 75 e4             	mov    -0x1c(%ebp),%esi
    3960:	8b 87 20 10 00 00    	mov    0x1020(%edi),%eax
    3966:	e9 99 fd ff ff       	jmp    3704 <parse_transform+0x174>
    396b:	90                   	nop
    396c:	8d 74 26 00          	lea    0x0(%esi,%eiz,1),%esi
    3970:	8b 97 24 10 00 00    	mov    0x1024(%edi),%edx
    3976:	8b 47 04             	mov    0x4(%edi),%eax
    3979:	e8 f2 e5 ff ff       	call   1f70 <get_named_transform.isra.7>
    397e:	89 45 d8             	mov    %eax,-0x28(%ebp)
    3981:	85 c0                	test   %eax,%eax
    3983:	0f 84 97 04 00 00    	je     3e20 <parse_transform+0x890>
    3989:	89 f8                	mov    %edi,%eax
    398b:	e8 80 e7 ff ff       	call   2110 <next_token>
    3990:	c7 45 a4 00 00 00 00 	movl   $0x0,-0x5c(%ebp)
    3997:	83 bf 20 10 00 00 28 	cmpl   $0x28,0x1020(%edi)
    399e:	0f 84 97 04 00 00    	je     3e3b <parse_transform+0x8ab>
    39a4:	8b 07                	mov    (%edi),%eax
    39a6:	85 c0                	test   %eax,%eax
    39a8:	75 48                	jne    39f2 <parse_transform+0x462>
    39aa:	8b 75 d8             	mov    -0x28(%ebp),%esi
    39ad:	85 f6                	test   %esi,%esi
    39af:	0f 84 09 0f 00 00    	je     48be <parse_transform+0x132e>
    39b5:	39 5e 08             	cmp    %ebx,0x8(%esi)
    39b8:	74 15                	je     39cf <parse_transform+0x43f>
    39ba:	89 f8                	mov    %edi,%eax
    39bc:	ba 50 14 01 00       	mov    $0x11450,%edx
    39c1:	e8 4a e6 ff ff       	call   2010 <syntax_error.part.2>
    39c6:	8b 07                	mov    (%edi),%eax
    39c8:	85 c0                	test   %eax,%eax
    39ca:	75 26                	jne    39f2 <parse_transform+0x462>
    39cc:	8b 75 d8             	mov    -0x28(%ebp),%esi
    39cf:	85 db                	test   %ebx,%ebx
    39d1:	0f 85 a9 01 00 00    	jne    3b80 <parse_transform+0x5f0>
    39d7:	8b 87 20 10 00 00    	mov    0x1020(%edi),%eax
    39dd:	e9 22 fd ff ff       	jmp    3704 <parse_transform+0x174>
    39e2:	8d b6 00 00 00 00    	lea    0x0(%esi),%esi
    39e8:	83 ec 0c             	sub    $0xc,%esp
    39eb:	52                   	push   %edx
    39ec:	ff 51 04             	call   *0x4(%ecx)
    39ef:	83 c4 10             	add    $0x10,%esp
    39f2:	4b                   	dec    %ebx
    39f3:	83 fb ff             	cmp    $0xffffffff,%ebx
    39f6:	0f 84 db 06 00 00    	je     40d7 <parse_transform+0xb47>
    39fc:	8b 45 a4             	mov    -0x5c(%ebp),%eax
    39ff:	8b 14 98             	mov    (%eax,%ebx,4),%edx
    3a02:	85 d2                	test   %edx,%edx
    3a04:	74 ec                	je     39f2 <parse_transform+0x462>
    3a06:	8b 0a                	mov    (%edx),%ecx
    3a08:	85 c9                	test   %ecx,%ecx
    3a0a:	0f 84 ed 0e 00 00    	je     48fd <parse_transform+0x136d>
    3a10:	8b 42 04             	mov    0x4(%edx),%eax
    3a13:	85 c0                	test   %eax,%eax
    3a15:	0f 84 c7 0e 00 00    	je     48e2 <parse_transform+0x1352>
    3a1b:	48                   	dec    %eax
    3a1c:	89 42 04             	mov    %eax,0x4(%edx)
    3a1f:	85 c0                	test   %eax,%eax
    3a21:	75 cf                	jne    39f2 <parse_transform+0x462>
    3a23:	eb c3                	jmp    39e8 <parse_transform+0x458>
    3a25:	8d 76 00             	lea    0x0(%esi),%esi
    3a28:	31 d2                	xor    %edx,%edx
    3a2a:	89 f8                	mov    %edi,%eax
    3a2c:	e8 1f 0f 00 00       	call   4950 <parse_if>
    3a31:	89 c6                	mov    %eax,%esi
    3a33:	8b 87 20 10 00 00    	mov    0x1020(%edi),%eax
    3a39:	e9 c6 fc ff ff       	jmp    3704 <parse_transform+0x174>
    3a3e:	66 90                	xchg   %ax,%ax
    3a40:	ba 93 ff ff ff       	mov    $0xffffff93,%edx
    3a45:	89 f8                	mov    %edi,%eax
    3a47:	e8 54 ef ff ff       	call   29a0 <expect>
    3a4c:	83 bf 20 10 00 00 28 	cmpl   $0x28,0x1020(%edi)
    3a53:	0f 84 e7 01 00 00    	je     3c40 <parse_transform+0x6b0>
    3a59:	ba 7b 00 00 00       	mov    $0x7b,%edx
    3a5e:	89 f8                	mov    %edi,%eax
    3a60:	e8 3b ef ff ff       	call   29a0 <expect>
    3a65:	89 f8                	mov    %edi,%eax
    3a67:	e8 24 fb ff ff       	call   3590 <parse_transform>
    3a6c:	ba 7d 00 00 00       	mov    $0x7d,%edx
    3a71:	89 c6                	mov    %eax,%esi
    3a73:	89 f8                	mov    %edi,%eax
    3a75:	e8 26 ef ff ff       	call   29a0 <expect>
    3a7a:	8b 07                	mov    (%edi),%eax
    3a7c:	85 c0                	test   %eax,%eax
    3a7e:	0f 85 30 02 00 00    	jne    3cb4 <parse_transform+0x724>
    3a84:	31 db                	xor    %ebx,%ebx
    3a86:	50                   	push   %eax
    3a87:	8d 45 e4             	lea    -0x1c(%ebp),%eax
    3a8a:	53                   	push   %ebx
    3a8b:	56                   	push   %esi
    3a8c:	50                   	push   %eax
    3a8d:	e8 7e 4d 00 00       	call   8810 <bithenge_repeat_transform>
    3a92:	83 c4 10             	add    $0x10,%esp
    3a95:	85 c0                	test   %eax,%eax
    3a97:	0f 85 e8 fd ff ff    	jne    3885 <parse_transform+0x2f5>
    3a9d:	8b 75 e4             	mov    -0x1c(%ebp),%esi
    3aa0:	8b 87 20 10 00 00    	mov    0x1020(%edi),%eax
    3aa6:	e9 59 fc ff ff       	jmp    3704 <parse_transform+0x174>
    3aab:	90                   	nop
    3aac:	8d 74 26 00          	lea    0x0(%esi,%eiz,1),%esi
    3ab0:	89 f8                	mov    %edi,%eax
    3ab2:	e8 59 e6 ff ff       	call   2110 <next_token>
    3ab7:	ba 7b 00 00 00       	mov    $0x7b,%edx
    3abc:	89 f8                	mov    %edi,%eax
    3abe:	e8 dd ee ff ff       	call   29a0 <expect>
    3ac3:	89 f8                	mov    %edi,%eax
    3ac5:	e8 e6 12 00 00       	call   4db0 <parse_struct>
    3aca:	ba 7d 00 00 00       	mov    $0x7d,%edx
    3acf:	89 c6                	mov    %eax,%esi
    3ad1:	89 f8                	mov    %edi,%eax
    3ad3:	e8 c8 ee ff ff       	call   29a0 <expect>
    3ad8:	8b 87 20 10 00 00    	mov    0x1020(%edi),%eax
    3ade:	e9 21 fc ff ff       	jmp    3704 <parse_transform+0x174>
    3ae3:	90                   	nop
    3ae4:	8d 74 26 00          	lea    0x0(%esi,%eiz,1),%esi
    3ae8:	31 d2                	xor    %edx,%edx
    3aea:	89 f8                	mov    %edi,%eax
    3aec:	e8 6f 16 00 00       	call   5160 <parse_switch>
    3af1:	89 c6                	mov    %eax,%esi
    3af3:	e9 df fe ff ff       	jmp    39d7 <parse_transform+0x447>
    3af8:	ba 85 13 01 00       	mov    $0x11385,%edx
    3afd:	89 f8                	mov    %edi,%eax
    3aff:	e8 0c e5 ff ff       	call   2010 <syntax_error.part.2>
    3b04:	8b 07                	mov    (%edi),%eax
    3b06:	85 c0                	test   %eax,%eax
    3b08:	0f 85 8a fc ff ff    	jne    3798 <parse_transform+0x208>
    3b0e:	80 bf 34 10 00 00 00 	cmpb   $0x0,0x1034(%edi)
    3b15:	74 19                	je     3b30 <parse_transform+0x5a0>
    3b17:	50                   	push   %eax
    3b18:	50                   	push   %eax
    3b19:	8d 45 e4             	lea    -0x1c(%ebp),%eax
    3b1c:	53                   	push   %ebx
    3b1d:	50                   	push   %eax
    3b1e:	e8 ed af 00 00       	call   eb10 <bithenge_expression_transform>
    3b23:	83 c4 10             	add    $0x10,%esp
    3b26:	e9 6a ff ff ff       	jmp    3a95 <parse_transform+0x505>
    3b2b:	90                   	nop
    3b2c:	8d 74 26 00          	lea    0x0(%esi,%eiz,1),%esi
    3b30:	50                   	push   %eax
    3b31:	50                   	push   %eax
    3b32:	8d 45 e4             	lea    -0x1c(%ebp),%eax
    3b35:	53                   	push   %ebx
    3b36:	50                   	push   %eax
    3b37:	e8 94 b0 00 00       	call   ebd0 <bithenge_inputless_transform>
    3b3c:	83 c4 10             	add    $0x10,%esp
    3b3f:	e9 51 ff ff ff       	jmp    3a95 <parse_transform+0x505>
    3b44:	8d 74 26 00          	lea    0x0(%esi,%eiz,1),%esi
    3b48:	8b 1f                	mov    (%edi),%ebx
    3b4a:	85 db                	test   %ebx,%ebx
    3b4c:	74 0c                	je     3b5a <parse_transform+0x5ca>
    3b4e:	31 f6                	xor    %esi,%esi
    3b50:	8d 65 f4             	lea    -0xc(%ebp),%esp
    3b53:	89 f0                	mov    %esi,%eax
    3b55:	5b                   	pop    %ebx
    3b56:	5e                   	pop    %esi
    3b57:	5f                   	pop    %edi
    3b58:	5d                   	pop    %ebp
    3b59:	c3                   	ret    
    3b5a:	83 bf 20 10 00 00 86 	cmpl   $0xffffff86,0x1020(%edi)
    3b61:	0f 84 4e 0a 00 00    	je     45b5 <parse_transform+0x1025>
    3b67:	c7 87 20 10 00 00 80 	movl   $0xffffff80,0x1020(%edi)
    3b6e:	ff ff ff 
    3b71:	89 07                	mov    %eax,(%edi)
    3b73:	31 f6                	xor    %esi,%esi
    3b75:	e9 dd fb ff ff       	jmp    3757 <parse_transform+0x1c7>
    3b7a:	8d b6 00 00 00 00    	lea    0x0(%esi),%esi
    3b80:	8b 5d a4             	mov    -0x5c(%ebp),%ebx
    3b83:	8d 45 d8             	lea    -0x28(%ebp),%eax
    3b86:	51                   	push   %ecx
    3b87:	53                   	push   %ebx
    3b88:	56                   	push   %esi
    3b89:	50                   	push   %eax
    3b8a:	e8 11 ae 00 00       	call   e9a0 <bithenge_param_wrapper>
    3b8f:	83 c4 10             	add    $0x10,%esp
    3b92:	85 c0                	test   %eax,%eax
    3b94:	0f 85 eb fc ff ff    	jne    3885 <parse_transform+0x2f5>
    3b9a:	8b 75 d8             	mov    -0x28(%ebp),%esi
    3b9d:	8b 87 20 10 00 00    	mov    0x1020(%edi),%eax
    3ba3:	e9 5c fb ff ff       	jmp    3704 <parse_transform+0x174>
    3ba8:	89 f8                	mov    %edi,%eax
    3baa:	e8 61 e5 ff ff       	call   2110 <next_token>
    3baf:	e9 50 ff ff ff       	jmp    3b04 <parse_transform+0x574>
    3bb4:	8d 74 26 00          	lea    0x0(%esi,%eiz,1),%esi
    3bb8:	89 f8                	mov    %edi,%eax
    3bba:	e8 51 e5 ff ff       	call   2110 <next_token>
    3bbf:	31 d2                	xor    %edx,%edx
    3bc1:	89 f8                	mov    %edi,%eax
    3bc3:	e8 f8 ee ff ff       	call   2ac0 <parse_expression_precedence>
    3bc8:	ba 29 00 00 00       	mov    $0x29,%edx
    3bcd:	89 45 e0             	mov    %eax,-0x20(%ebp)
    3bd0:	89 f8                	mov    %edi,%eax
    3bd2:	e8 c9 ed ff ff       	call   29a0 <expect>
    3bd7:	83 ec 0c             	sub    $0xc,%esp
    3bda:	8d 45 e4             	lea    -0x1c(%ebp),%eax
    3bdd:	50                   	push   %eax
    3bde:	e8 5d ab 00 00       	call   e740 <bithenge_in_node_expression>
    3be3:	83 c4 10             	add    $0x10,%esp
    3be6:	85 c0                	test   %eax,%eax
    3be8:	0f 84 6b 03 00 00    	je     3f59 <parse_transform+0x9c9>
    3bee:	8b 17                	mov    (%edi),%edx
    3bf0:	85 d2                	test   %edx,%edx
    3bf2:	0f 84 46 09 00 00    	je     453e <parse_transform+0xfae>
    3bf8:	8b 45 e0             	mov    -0x20(%ebp),%eax
    3bfb:	85 c0                	test   %eax,%eax
    3bfd:	0f 84 f9 fa ff ff    	je     36fc <parse_transform+0x16c>
    3c03:	8b 08                	mov    (%eax),%ecx
    3c05:	85 c9                	test   %ecx,%ecx
    3c07:	0f 84 f0 0c 00 00    	je     48fd <parse_transform+0x136d>
    3c0d:	8b 50 04             	mov    0x4(%eax),%edx
    3c10:	85 d2                	test   %edx,%edx
    3c12:	0f 84 ca 0c 00 00    	je     48e2 <parse_transform+0x1352>
    3c18:	4a                   	dec    %edx
    3c19:	89 50 04             	mov    %edx,0x4(%eax)
    3c1c:	85 d2                	test   %edx,%edx
    3c1e:	0f 85 d8 fa ff ff    	jne    36fc <parse_transform+0x16c>
    3c24:	83 ec 0c             	sub    $0xc,%esp
    3c27:	50                   	push   %eax
    3c28:	ff 51 04             	call   *0x4(%ecx)
    3c2b:	8b 87 20 10 00 00    	mov    0x1020(%edi),%eax
    3c31:	83 c4 10             	add    $0x10,%esp
    3c34:	e9 c9 fa ff ff       	jmp    3702 <parse_transform+0x172>
    3c39:	8d b4 26 00 00 00 00 	lea    0x0(%esi,%eiz,1),%esi
    3c40:	89 f8                	mov    %edi,%eax
    3c42:	e8 c9 e4 ff ff       	call   2110 <next_token>
    3c47:	31 d2                	xor    %edx,%edx
    3c49:	89 f8                	mov    %edi,%eax
    3c4b:	e8 70 ee ff ff       	call   2ac0 <parse_expression_precedence>
    3c50:	ba 29 00 00 00       	mov    $0x29,%edx
    3c55:	89 c3                	mov    %eax,%ebx
    3c57:	89 f8                	mov    %edi,%eax
    3c59:	e8 42 ed ff ff       	call   29a0 <expect>
    3c5e:	ba 7b 00 00 00       	mov    $0x7b,%edx
    3c63:	89 f8                	mov    %edi,%eax
    3c65:	e8 36 ed ff ff       	call   29a0 <expect>
    3c6a:	89 f8                	mov    %edi,%eax
    3c6c:	e8 1f f9 ff ff       	call   3590 <parse_transform>
    3c71:	ba 7d 00 00 00       	mov    $0x7d,%edx
    3c76:	89 c6                	mov    %eax,%esi
    3c78:	89 f8                	mov    %edi,%eax
    3c7a:	e8 21 ed ff ff       	call   29a0 <expect>
    3c7f:	8b 07                	mov    (%edi),%eax
    3c81:	85 c0                	test   %eax,%eax
    3c83:	0f 84 fd fd ff ff    	je     3a86 <parse_transform+0x4f6>
    3c89:	85 db                	test   %ebx,%ebx
    3c8b:	74 27                	je     3cb4 <parse_transform+0x724>
    3c8d:	8b 13                	mov    (%ebx),%edx
    3c8f:	85 d2                	test   %edx,%edx
    3c91:	0f 84 66 0c 00 00    	je     48fd <parse_transform+0x136d>
    3c97:	8b 43 04             	mov    0x4(%ebx),%eax
    3c9a:	85 c0                	test   %eax,%eax
    3c9c:	0f 84 40 0c 00 00    	je     48e2 <parse_transform+0x1352>
    3ca2:	48                   	dec    %eax
    3ca3:	89 43 04             	mov    %eax,0x4(%ebx)
    3ca6:	85 c0                	test   %eax,%eax
    3ca8:	75 0a                	jne    3cb4 <parse_transform+0x724>
    3caa:	83 ec 0c             	sub    $0xc,%esp
    3cad:	53                   	push   %ebx
    3cae:	ff 52 04             	call   *0x4(%edx)
    3cb1:	83 c4 10             	add    $0x10,%esp
    3cb4:	85 f6                	test   %esi,%esi
    3cb6:	0f 84 1b fd ff ff    	je     39d7 <parse_transform+0x447>
    3cbc:	8b 16                	mov    (%esi),%edx
    3cbe:	85 d2                	test   %edx,%edx
    3cc0:	0f 84 0a 0c 00 00    	je     48d0 <parse_transform+0x1340>
    3cc6:	8b 46 04             	mov    0x4(%esi),%eax
    3cc9:	85 c0                	test   %eax,%eax
    3ccb:	0f 84 3e 0c 00 00    	je     490f <parse_transform+0x137f>
    3cd1:	48                   	dec    %eax
    3cd2:	89 46 04             	mov    %eax,0x4(%esi)
    3cd5:	85 c0                	test   %eax,%eax
    3cd7:	0f 85 1f fa ff ff    	jne    36fc <parse_transform+0x16c>
    3cdd:	83 ec 0c             	sub    $0xc,%esp
    3ce0:	56                   	push   %esi
    3ce1:	31 f6                	xor    %esi,%esi
    3ce3:	ff 52 0c             	call   *0xc(%edx)
    3ce6:	8b 87 20 10 00 00    	mov    0x1020(%edi),%eax
    3cec:	83 c4 10             	add    $0x10,%esp
    3cef:	e9 10 fa ff ff       	jmp    3704 <parse_transform+0x174>
    3cf4:	8d 74 26 00          	lea    0x0(%esi,%eiz,1),%esi
    3cf8:	89 f8                	mov    %edi,%eax
    3cfa:	e8 11 e4 ff ff       	call   2110 <next_token>
    3cff:	31 d2                	xor    %edx,%edx
    3d01:	c6 87 34 10 00 00 00 	movb   $0x0,0x1034(%edi)
    3d08:	89 f8                	mov    %edi,%eax
    3d0a:	e8 b1 ed ff ff       	call   2ac0 <parse_expression_precedence>
    3d0f:	83 bf 20 10 00 00 29 	cmpl   $0x29,0x1020(%edi)
    3d16:	89 c3                	mov    %eax,%ebx
    3d18:	0f 84 3e 08 00 00    	je     455c <parse_transform+0xfcc>
    3d1e:	8b 17                	mov    (%edi),%edx
    3d20:	85 d2                	test   %edx,%edx
    3d22:	0f 84 a2 07 00 00    	je     44ca <parse_transform+0xf3a>
    3d28:	85 db                	test   %ebx,%ebx
    3d2a:	0f 84 c8 00 00 00    	je     3df8 <parse_transform+0x868>
    3d30:	8b 13                	mov    (%ebx),%edx
    3d32:	85 d2                	test   %edx,%edx
    3d34:	0f 84 c3 0b 00 00    	je     48fd <parse_transform+0x136d>
    3d3a:	8b 43 04             	mov    0x4(%ebx),%eax
    3d3d:	85 c0                	test   %eax,%eax
    3d3f:	0f 84 9d 0b 00 00    	je     48e2 <parse_transform+0x1352>
    3d45:	48                   	dec    %eax
    3d46:	89 43 04             	mov    %eax,0x4(%ebx)
    3d49:	85 c0                	test   %eax,%eax
    3d4b:	0f 85 a7 00 00 00    	jne    3df8 <parse_transform+0x868>
    3d51:	83 ec 0c             	sub    $0xc,%esp
    3d54:	31 f6                	xor    %esi,%esi
    3d56:	53                   	push   %ebx
    3d57:	ff 52 04             	call   *0x4(%edx)
    3d5a:	8b 87 20 10 00 00    	mov    0x1020(%edi),%eax
    3d60:	83 c4 10             	add    $0x10,%esp
    3d63:	e9 8d f8 ff ff       	jmp    35f5 <parse_transform+0x65>
    3d68:	ba 92 ff ff ff       	mov    $0xffffff92,%edx
    3d6d:	89 f8                	mov    %edi,%eax
    3d6f:	e8 2c ec ff ff       	call   29a0 <expect>
    3d74:	c7 45 cc 00 00 00 00 	movl   $0x0,-0x34(%ebp)
    3d7b:	83 bf 20 10 00 00 28 	cmpl   $0x28,0x1020(%edi)
    3d82:	0f 85 a6 04 00 00    	jne    422e <parse_transform+0xc9e>
    3d88:	89 f8                	mov    %edi,%eax
    3d8a:	e8 81 e3 ff ff       	call   2110 <next_token>
    3d8f:	31 d2                	xor    %edx,%edx
    3d91:	89 f8                	mov    %edi,%eax
    3d93:	e8 28 ed ff ff       	call   2ac0 <parse_expression_precedence>
    3d98:	ba 29 00 00 00       	mov    $0x29,%edx
    3d9d:	89 45 d0             	mov    %eax,-0x30(%ebp)
    3da0:	89 f8                	mov    %edi,%eax
    3da2:	e8 f9 eb ff ff       	call   29a0 <expect>
    3da7:	83 ec 0c             	sub    $0xc,%esp
    3daa:	8d 45 d4             	lea    -0x2c(%ebp),%eax
    3dad:	50                   	push   %eax
    3dae:	e8 8d a9 00 00       	call   e740 <bithenge_in_node_expression>
    3db3:	83 c4 10             	add    $0x10,%esp
    3db6:	89 c3                	mov    %eax,%ebx
    3db8:	85 c0                	test   %eax,%eax
    3dba:	0f 84 09 09 00 00    	je     46c9 <parse_transform+0x1139>
    3dc0:	8b 07                	mov    (%edi),%eax
    3dc2:	85 c0                	test   %eax,%eax
    3dc4:	0f 84 6f 0a 00 00    	je     4839 <parse_transform+0x12a9>
    3dca:	8b 45 d0             	mov    -0x30(%ebp),%eax
    3dcd:	85 c0                	test   %eax,%eax
    3dcf:	74 27                	je     3df8 <parse_transform+0x868>
    3dd1:	8b 08                	mov    (%eax),%ecx
    3dd3:	85 c9                	test   %ecx,%ecx
    3dd5:	0f 84 22 0b 00 00    	je     48fd <parse_transform+0x136d>
    3ddb:	8b 50 04             	mov    0x4(%eax),%edx
    3dde:	85 d2                	test   %edx,%edx
    3de0:	0f 84 fc 0a 00 00    	je     48e2 <parse_transform+0x1352>
    3de6:	4a                   	dec    %edx
    3de7:	89 50 04             	mov    %edx,0x4(%eax)
    3dea:	85 d2                	test   %edx,%edx
    3dec:	75 0a                	jne    3df8 <parse_transform+0x868>
    3dee:	83 ec 0c             	sub    $0xc,%esp
    3df1:	50                   	push   %eax
    3df2:	ff 51 04             	call   *0x4(%ecx)
    3df5:	83 c4 10             	add    $0x10,%esp
    3df8:	8b 87 20 10 00 00    	mov    0x1020(%edi),%eax
    3dfe:	31 f6                	xor    %esi,%esi
    3e00:	e9 f0 f7 ff ff       	jmp    35f5 <parse_transform+0x65>
    3e05:	8d 76 00             	lea    0x0(%esi),%esi
    3e08:	ba 78 14 01 00       	mov    $0x11478,%edx
    3e0d:	89 f8                	mov    %edi,%eax
    3e0f:	e8 fc e1 ff ff       	call   2010 <syntax_error.part.2>
    3e14:	8b 87 20 10 00 00    	mov    0x1020(%edi),%eax
    3e1a:	e9 d6 f7 ff ff       	jmp    35f5 <parse_transform+0x65>
    3e1f:	90                   	nop
    3e20:	8b 37                	mov    (%edi),%esi
    3e22:	85 f6                	test   %esi,%esi
    3e24:	0f 85 5f fb ff ff    	jne    3989 <parse_transform+0x3f9>
    3e2a:	ba ef 13 01 00       	mov    $0x113ef,%edx
    3e2f:	89 f8                	mov    %edi,%eax
    3e31:	e8 da e1 ff ff       	call   2010 <syntax_error.part.2>
    3e36:	e9 4e fb ff ff       	jmp    3989 <parse_transform+0x3f9>
    3e3b:	89 f8                	mov    %edi,%eax
    3e3d:	e8 ce e2 ff ff       	call   2110 <next_token>
    3e42:	8b 07                	mov    (%edi),%eax
    3e44:	89 45 9c             	mov    %eax,-0x64(%ebp)
    3e47:	85 c0                	test   %eax,%eax
    3e49:	75 7d                	jne    3ec8 <parse_transform+0x938>
    3e4b:	83 bf 20 10 00 00 29 	cmpl   $0x29,0x1020(%edi)
    3e52:	0f 84 9d 09 00 00    	je     47f5 <parse_transform+0x1265>
    3e58:	40                   	inc    %eax
    3e59:	8b 4d a4             	mov    -0x5c(%ebp),%ecx
    3e5c:	89 45 a0             	mov    %eax,-0x60(%ebp)
    3e5f:	52                   	push   %edx
    3e60:	8d 1c 85 00 00 00 00 	lea    0x0(,%eax,4),%ebx
    3e67:	52                   	push   %edx
    3e68:	53                   	push   %ebx
    3e69:	51                   	push   %ecx
    3e6a:	e8 31 e1 00 00       	call   11fa0 <realloc@plt>
    3e6f:	83 c4 10             	add    $0x10,%esp
    3e72:	89 c6                	mov    %eax,%esi
    3e74:	85 c0                	test   %eax,%eax
    3e76:	0f 84 b2 00 00 00    	je     3f2e <parse_transform+0x99e>
    3e7c:	8b 07                	mov    (%edi),%eax
    3e7e:	85 c0                	test   %eax,%eax
    3e80:	0f 85 ec 09 00 00    	jne    4872 <parse_transform+0x12e2>
    3e86:	31 d2                	xor    %edx,%edx
    3e88:	89 f8                	mov    %edi,%eax
    3e8a:	e8 31 ec ff ff       	call   2ac0 <parse_expression_precedence>
    3e8f:	8d 5c 1e fc          	lea    -0x4(%esi,%ebx,1),%ebx
    3e93:	89 03                	mov    %eax,(%ebx)
    3e95:	8b 07                	mov    (%edi),%eax
    3e97:	85 c0                	test   %eax,%eax
    3e99:	0f 85 67 03 00 00    	jne    4206 <parse_transform+0xc76>
    3e9f:	83 bf 20 10 00 00 29 	cmpl   $0x29,0x1020(%edi)
    3ea6:	0f 84 5a 03 00 00    	je     4206 <parse_transform+0xc76>
    3eac:	ba 2c 00 00 00       	mov    $0x2c,%edx
    3eb1:	89 f8                	mov    %edi,%eax
    3eb3:	e8 e8 ea ff ff       	call   29a0 <expect>
    3eb8:	8b 1f                	mov    (%edi),%ebx
    3eba:	89 75 a4             	mov    %esi,-0x5c(%ebp)
    3ebd:	85 db                	test   %ebx,%ebx
    3ebf:	0f 84 2d 04 00 00    	je     42f2 <parse_transform+0xd62>
    3ec5:	8b 5d a0             	mov    -0x60(%ebp),%ebx
    3ec8:	ba 29 00 00 00       	mov    $0x29,%edx
    3ecd:	89 f8                	mov    %edi,%eax
    3ecf:	e8 cc ea ff ff       	call   29a0 <expect>
    3ed4:	e9 cb fa ff ff       	jmp    39a4 <parse_transform+0x414>
    3ed9:	8b 07                	mov    (%edi),%eax
    3edb:	85 c0                	test   %eax,%eax
    3edd:	0f 84 74 f8 ff ff    	je     3757 <parse_transform+0x1c7>
    3ee3:	31 db                	xor    %ebx,%ebx
    3ee5:	83 ec 0c             	sub    $0xc,%esp
    3ee8:	53                   	push   %ebx
    3ee9:	e8 02 e2 00 00       	call   120f0 <free@plt>
    3eee:	8b 55 c4             	mov    -0x3c(%ebp),%edx
    3ef1:	83 c4 10             	add    $0x10,%esp
    3ef4:	85 d2                	test   %edx,%edx
    3ef6:	0f 84 52 fc ff ff    	je     3b4e <parse_transform+0x5be>
    3efc:	8b 0a                	mov    (%edx),%ecx
    3efe:	85 c9                	test   %ecx,%ecx
    3f00:	0f 84 ca 09 00 00    	je     48d0 <parse_transform+0x1340>
    3f06:	8b 42 04             	mov    0x4(%edx),%eax
    3f09:	85 c0                	test   %eax,%eax
    3f0b:	0f 84 fe 09 00 00    	je     490f <parse_transform+0x137f>
    3f11:	48                   	dec    %eax
    3f12:	89 42 04             	mov    %eax,0x4(%edx)
    3f15:	85 c0                	test   %eax,%eax
    3f17:	0f 85 31 fc ff ff    	jne    3b4e <parse_transform+0x5be>
    3f1d:	83 ec 0c             	sub    $0xc,%esp
    3f20:	31 f6                	xor    %esi,%esi
    3f22:	52                   	push   %edx
    3f23:	ff 51 0c             	call   *0xc(%ecx)
    3f26:	83 c4 10             	add    $0x10,%esp
    3f29:	e9 22 fc ff ff       	jmp    3b50 <parse_transform+0x5c0>
    3f2e:	8b 07                	mov    (%edi),%eax
    3f30:	8b 5d 9c             	mov    -0x64(%ebp),%ebx
    3f33:	85 c0                	test   %eax,%eax
    3f35:	75 91                	jne    3ec8 <parse_transform+0x938>
    3f37:	83 bf 20 10 00 00 86 	cmpl   $0xffffff86,0x1020(%edi)
    3f3e:	0f 84 5b 08 00 00    	je     479f <parse_transform+0x120f>
    3f44:	c7 87 20 10 00 00 80 	movl   $0xffffff80,0x1020(%edi)
    3f4b:	ff ff ff 
    3f4e:	c7 07 fe ff ff ff    	movl   $0xfffffffe,(%edi)
    3f54:	e9 6f ff ff ff       	jmp    3ec8 <parse_transform+0x938>
    3f59:	8b 37                	mov    (%edi),%esi
    3f5b:	85 f6                	test   %esi,%esi
    3f5d:	0f 85 95 fc ff ff    	jne    3bf8 <parse_transform+0x668>
    3f63:	83 ec 0c             	sub    $0xc,%esp
    3f66:	8b 4d e0             	mov    -0x20(%ebp),%ecx
    3f69:	8b 5d e4             	mov    -0x1c(%ebp),%ebx
    3f6c:	8d 45 e0             	lea    -0x20(%ebp),%eax
    3f6f:	6a 01                	push   $0x1
    3f71:	6a 00                	push   $0x0
    3f73:	51                   	push   %ecx
    3f74:	53                   	push   %ebx
    3f75:	50                   	push   %eax
    3f76:	e8 05 a9 00 00       	call   e880 <bithenge_subblob_expression>
    3f7b:	83 c4 20             	add    $0x20,%esp
    3f7e:	85 c0                	test   %eax,%eax
    3f80:	0f 85 8b 05 00 00    	jne    4511 <parse_transform+0xf81>
    3f86:	8b 5d e0             	mov    -0x20(%ebp),%ebx
    3f89:	8d 45 dc             	lea    -0x24(%ebp),%eax
    3f8c:	51                   	push   %ecx
    3f8d:	51                   	push   %ecx
    3f8e:	53                   	push   %ebx
    3f8f:	50                   	push   %eax
    3f90:	e8 7b ab 00 00       	call   eb10 <bithenge_expression_transform>
    3f95:	83 c4 10             	add    $0x10,%esp
    3f98:	85 c0                	test   %eax,%eax
    3f9a:	0f 84 38 f9 ff ff    	je     38d8 <parse_transform+0x348>
    3fa0:	8b 17                	mov    (%edi),%edx
    3fa2:	85 d2                	test   %edx,%edx
    3fa4:	0f 85 52 f7 ff ff    	jne    36fc <parse_transform+0x16c>
    3faa:	89 c2                	mov    %eax,%edx
    3fac:	89 f8                	mov    %edi,%eax
    3fae:	e8 0d df ff ff       	call   1ec0 <error_errno.part.1>
    3fb3:	8b 87 20 10 00 00    	mov    0x1020(%edi),%eax
    3fb9:	e9 44 f7 ff ff       	jmp    3702 <parse_transform+0x172>
    3fbe:	66 90                	xchg   %ax,%ax
    3fc0:	ba 8d ff ff ff       	mov    $0xffffff8d,%edx
    3fc5:	89 f8                	mov    %edi,%eax
    3fc7:	e8 d4 e9 ff ff       	call   29a0 <expect>
    3fcc:	ba 7b 00 00 00       	mov    $0x7b,%edx
    3fd1:	89 f8                	mov    %edi,%eax
    3fd3:	e8 c8 e9 ff ff       	call   29a0 <expect>
    3fd8:	89 f8                	mov    %edi,%eax
    3fda:	e8 b1 f5 ff ff       	call   3590 <parse_transform>
    3fdf:	ba 7d 00 00 00       	mov    $0x7d,%edx
    3fe4:	89 c6                	mov    %eax,%esi
    3fe6:	89 f8                	mov    %edi,%eax
    3fe8:	e8 b3 e9 ff ff       	call   29a0 <expect>
    3fed:	ba 98 ff ff ff       	mov    $0xffffff98,%edx
    3ff2:	89 f8                	mov    %edi,%eax
    3ff4:	e8 a7 e9 ff ff       	call   29a0 <expect>
    3ff9:	ba 28 00 00 00       	mov    $0x28,%edx
    3ffe:	89 f8                	mov    %edi,%eax
    4000:	e8 9b e9 ff ff       	call   29a0 <expect>
    4005:	31 d2                	xor    %edx,%edx
    4007:	89 f8                	mov    %edi,%eax
    4009:	e8 b2 ea ff ff       	call   2ac0 <parse_expression_precedence>
    400e:	ba 29 00 00 00       	mov    $0x29,%edx
    4013:	89 c3                	mov    %eax,%ebx
    4015:	89 f8                	mov    %edi,%eax
    4017:	e8 84 e9 ff ff       	call   29a0 <expect>
    401c:	8b 07                	mov    (%edi),%eax
    401e:	85 c0                	test   %eax,%eax
    4020:	0f 85 fe 06 00 00    	jne    4724 <parse_transform+0x1194>
    4026:	8d 45 e4             	lea    -0x1c(%ebp),%eax
    4029:	51                   	push   %ecx
    402a:	53                   	push   %ebx
    402b:	56                   	push   %esi
    402c:	50                   	push   %eax
    402d:	e8 1e 49 00 00       	call   8950 <bithenge_do_while_transform>
    4032:	83 c4 10             	add    $0x10,%esp
    4035:	85 c0                	test   %eax,%eax
    4037:	0f 84 8c 00 00 00    	je     40c9 <parse_transform+0xb39>
    403d:	8b 17                	mov    (%edi),%edx
    403f:	85 d2                	test   %edx,%edx
    4041:	0f 85 b1 fd ff ff    	jne    3df8 <parse_transform+0x868>
    4047:	83 bf 20 10 00 00 86 	cmpl   $0xffffff86,0x1020(%edi)
    404e:	0f 84 2e 07 00 00    	je     4782 <parse_transform+0x11f2>
    4054:	89 07                	mov    %eax,(%edi)
    4056:	c7 87 20 10 00 00 80 	movl   $0xffffff80,0x1020(%edi)
    405d:	ff ff ff 
    4060:	b8 80 ff ff ff       	mov    $0xffffff80,%eax
    4065:	31 f6                	xor    %esi,%esi
    4067:	e9 89 f5 ff ff       	jmp    35f5 <parse_transform+0x65>
    406c:	ba 93 ff ff ff       	mov    $0xffffff93,%edx
    4071:	89 f8                	mov    %edi,%eax
    4073:	e8 28 e9 ff ff       	call   29a0 <expect>
    4078:	83 bf 20 10 00 00 28 	cmpl   $0x28,0x1020(%edi)
    407f:	0f 84 e8 02 00 00    	je     436d <parse_transform+0xddd>
    4085:	ba 7b 00 00 00       	mov    $0x7b,%edx
    408a:	89 f8                	mov    %edi,%eax
    408c:	e8 0f e9 ff ff       	call   29a0 <expect>
    4091:	89 f8                	mov    %edi,%eax
    4093:	e8 f8 f4 ff ff       	call   3590 <parse_transform>
    4098:	ba 7d 00 00 00       	mov    $0x7d,%edx
    409d:	89 c6                	mov    %eax,%esi
    409f:	89 f8                	mov    %edi,%eax
    40a1:	e8 fa e8 ff ff       	call   29a0 <expect>
    40a6:	8b 17                	mov    (%edi),%edx
    40a8:	85 d2                	test   %edx,%edx
    40aa:	0f 85 31 03 00 00    	jne    43e1 <parse_transform+0xe51>
    40b0:	31 db                	xor    %ebx,%ebx
    40b2:	8d 45 e4             	lea    -0x1c(%ebp),%eax
    40b5:	51                   	push   %ecx
    40b6:	53                   	push   %ebx
    40b7:	56                   	push   %esi
    40b8:	50                   	push   %eax
    40b9:	e8 52 47 00 00       	call   8810 <bithenge_repeat_transform>
    40be:	83 c4 10             	add    $0x10,%esp
    40c1:	85 c0                	test   %eax,%eax
    40c3:	0f 85 74 ff ff ff    	jne    403d <parse_transform+0xaad>
    40c9:	8b 75 e4             	mov    -0x1c(%ebp),%esi
    40cc:	8b 87 20 10 00 00    	mov    0x1020(%edi),%eax
    40d2:	e9 1e f5 ff ff       	jmp    35f5 <parse_transform+0x65>
    40d7:	83 ec 0c             	sub    $0xc,%esp
    40da:	8b 75 a4             	mov    -0x5c(%ebp),%esi
    40dd:	56                   	push   %esi
    40de:	e8 0d e0 00 00       	call   120f0 <free@plt>
    40e3:	8b 75 d8             	mov    -0x28(%ebp),%esi
    40e6:	83 c4 10             	add    $0x10,%esp
    40e9:	85 f6                	test   %esi,%esi
    40eb:	0f 85 cb fb ff ff    	jne    3cbc <parse_transform+0x72c>
    40f1:	e9 e1 f8 ff ff       	jmp    39d7 <parse_transform+0x447>
    40f6:	8b 97 24 10 00 00    	mov    0x1024(%edi),%edx
    40fc:	8b 47 04             	mov    0x4(%edi),%eax
    40ff:	e8 6c de ff ff       	call   1f70 <get_named_transform.isra.7>
    4104:	89 45 c8             	mov    %eax,-0x38(%ebp)
    4107:	85 c0                	test   %eax,%eax
    4109:	0f 84 c3 04 00 00    	je     45d2 <parse_transform+0x1042>
    410f:	89 f8                	mov    %edi,%eax
    4111:	e8 fa df ff ff       	call   2110 <next_token>
    4116:	83 bf 20 10 00 00 28 	cmpl   $0x28,0x1020(%edi)
    411d:	0f 84 d8 04 00 00    	je     45fb <parse_transform+0x106b>
    4123:	31 db                	xor    %ebx,%ebx
    4125:	31 c9                	xor    %ecx,%ecx
    4127:	8b 37                	mov    (%edi),%esi
    4129:	85 f6                	test   %esi,%esi
    412b:	0f 85 8f 00 00 00    	jne    41c0 <parse_transform+0xc30>
    4131:	8b 75 c8             	mov    -0x38(%ebp),%esi
    4134:	85 f6                	test   %esi,%esi
    4136:	0f 84 82 07 00 00    	je     48be <parse_transform+0x132e>
    413c:	39 5e 08             	cmp    %ebx,0x8(%esi)
    413f:	74 1b                	je     415c <parse_transform+0xbcc>
    4141:	ba 50 14 01 00       	mov    $0x11450,%edx
    4146:	89 f8                	mov    %edi,%eax
    4148:	89 4d b4             	mov    %ecx,-0x4c(%ebp)
    414b:	e8 c0 de ff ff       	call   2010 <syntax_error.part.2>
    4150:	8b 0f                	mov    (%edi),%ecx
    4152:	85 c9                	test   %ecx,%ecx
    4154:	8b 4d b4             	mov    -0x4c(%ebp),%ecx
    4157:	75 67                	jne    41c0 <parse_transform+0xc30>
    4159:	8b 75 c8             	mov    -0x38(%ebp),%esi
    415c:	85 db                	test   %ebx,%ebx
    415e:	0f 84 b0 fc ff ff    	je     3e14 <parse_transform+0x884>
    4164:	8d 45 c8             	lea    -0x38(%ebp),%eax
    4167:	52                   	push   %edx
    4168:	51                   	push   %ecx
    4169:	56                   	push   %esi
    416a:	50                   	push   %eax
    416b:	e8 30 a8 00 00       	call   e9a0 <bithenge_param_wrapper>
    4170:	83 c4 10             	add    $0x10,%esp
    4173:	89 c3                	mov    %eax,%ebx
    4175:	85 c0                	test   %eax,%eax
    4177:	0f 84 70 04 00 00    	je     45ed <parse_transform+0x105d>
    417d:	8b 07                	mov    (%edi),%eax
    417f:	85 c0                	test   %eax,%eax
    4181:	0f 85 71 fc ff ff    	jne    3df8 <parse_transform+0x868>
    4187:	83 bf 20 10 00 00 86 	cmpl   $0xffffff86,0x1020(%edi)
    418e:	0f 84 8d 07 00 00    	je     4921 <parse_transform+0x1391>
    4194:	c7 87 20 10 00 00 80 	movl   $0xffffff80,0x1020(%edi)
    419b:	ff ff ff 
    419e:	89 1f                	mov    %ebx,(%edi)
    41a0:	b8 80 ff ff ff       	mov    $0xffffff80,%eax
    41a5:	31 f6                	xor    %esi,%esi
    41a7:	e9 49 f4 ff ff       	jmp    35f5 <parse_transform+0x65>
    41ac:	8d 74 26 00          	lea    0x0(%esi,%eiz,1),%esi
    41b0:	83 ec 0c             	sub    $0xc,%esp
    41b3:	89 4d b4             	mov    %ecx,-0x4c(%ebp)
    41b6:	52                   	push   %edx
    41b7:	ff 56 04             	call   *0x4(%esi)
    41ba:	83 c4 10             	add    $0x10,%esp
    41bd:	8b 4d b4             	mov    -0x4c(%ebp),%ecx
    41c0:	4b                   	dec    %ebx
    41c1:	83 fb ff             	cmp    $0xffffffff,%ebx
    41c4:	0f 84 92 05 00 00    	je     475c <parse_transform+0x11cc>
    41ca:	8b 14 99             	mov    (%ecx,%ebx,4),%edx
    41cd:	85 d2                	test   %edx,%edx
    41cf:	74 ef                	je     41c0 <parse_transform+0xc30>
    41d1:	8b 32                	mov    (%edx),%esi
    41d3:	85 f6                	test   %esi,%esi
    41d5:	0f 84 22 07 00 00    	je     48fd <parse_transform+0x136d>
    41db:	8b 42 04             	mov    0x4(%edx),%eax
    41de:	85 c0                	test   %eax,%eax
    41e0:	0f 84 fc 06 00 00    	je     48e2 <parse_transform+0x1352>
    41e6:	48                   	dec    %eax
    41e7:	89 42 04             	mov    %eax,0x4(%edx)
    41ea:	85 c0                	test   %eax,%eax
    41ec:	75 d2                	jne    41c0 <parse_transform+0xc30>
    41ee:	eb c0                	jmp    41b0 <parse_transform+0xc20>
    41f0:	31 d2                	xor    %edx,%edx
    41f2:	89 f8                	mov    %edi,%eax
    41f4:	e8 57 07 00 00       	call   4950 <parse_if>
    41f9:	89 c6                	mov    %eax,%esi
    41fb:	8b 87 20 10 00 00    	mov    0x1020(%edi),%eax
    4201:	e9 ef f3 ff ff       	jmp    35f5 <parse_transform+0x65>
    4206:	8b 5d a0             	mov    -0x60(%ebp),%ebx
    4209:	89 75 a4             	mov    %esi,-0x5c(%ebp)
    420c:	e9 b7 fc ff ff       	jmp    3ec8 <parse_transform+0x938>
    4211:	83 ec 0c             	sub    $0xc,%esp
    4214:	8b 8f 24 10 00 00    	mov    0x1024(%edi),%ecx
    421a:	89 45 b0             	mov    %eax,-0x50(%ebp)
    421d:	51                   	push   %ecx
    421e:	e8 cd de 00 00       	call   120f0 <free@plt>
    4223:	83 c4 10             	add    $0x10,%esp
    4226:	8b 45 b0             	mov    -0x50(%ebp),%eax
    4229:	e9 71 f6 ff ff       	jmp    389f <parse_transform+0x30f>
    422e:	ba 7b 00 00 00       	mov    $0x7b,%edx
    4233:	89 f8                	mov    %edi,%eax
    4235:	e8 66 e7 ff ff       	call   29a0 <expect>
    423a:	89 f8                	mov    %edi,%eax
    423c:	e8 4f f3 ff ff       	call   3590 <parse_transform>
    4241:	ba 7d 00 00 00       	mov    $0x7d,%edx
    4246:	89 45 e0             	mov    %eax,-0x20(%ebp)
    4249:	89 f8                	mov    %edi,%eax
    424b:	e8 50 e7 ff ff       	call   29a0 <expect>
    4250:	8b 37                	mov    (%edi),%esi
    4252:	85 f6                	test   %esi,%esi
    4254:	0f 85 c7 01 00 00    	jne    4421 <parse_transform+0xe91>
    425a:	8b 5d e0             	mov    -0x20(%ebp),%ebx
    425d:	51                   	push   %ecx
    425e:	51                   	push   %ecx
    425f:	53                   	push   %ebx
    4260:	8d 5d e0             	lea    -0x20(%ebp),%ebx
    4263:	53                   	push   %ebx
    4264:	e8 27 91 00 00       	call   d390 <bithenge_partial_transform>
    4269:	83 c4 10             	add    $0x10,%esp
    426c:	85 c0                	test   %eax,%eax
    426e:	0f 85 45 05 00 00    	jne    47b9 <parse_transform+0x1229>
    4274:	8b 75 cc             	mov    -0x34(%ebp),%esi
    4277:	85 f6                	test   %esi,%esi
    4279:	74 35                	je     42b0 <parse_transform+0xd20>
    427b:	83 ec 0c             	sub    $0xc,%esp
    427e:	6a 08                	push   $0x8
    4280:	e8 db db 00 00       	call   11e60 <malloc@plt>
    4285:	83 c4 10             	add    $0x10,%esp
    4288:	85 c0                	test   %eax,%eax
    428a:	0f 84 c7 05 00 00    	je     4857 <parse_transform+0x12c7>
    4290:	8b 55 e0             	mov    -0x20(%ebp),%edx
    4293:	89 10                	mov    %edx,(%eax)
    4295:	8b 55 cc             	mov    -0x34(%ebp),%edx
    4298:	89 50 04             	mov    %edx,0x4(%eax)
    429b:	52                   	push   %edx
    429c:	6a 02                	push   $0x2
    429e:	50                   	push   %eax
    429f:	53                   	push   %ebx
    42a0:	e8 4b 8e 00 00       	call   d0f0 <bithenge_new_composed_transform>
    42a5:	83 c4 10             	add    $0x10,%esp
    42a8:	85 c0                	test   %eax,%eax
    42aa:	0f 85 8d fd ff ff    	jne    403d <parse_transform+0xaad>
    42b0:	8b 75 e0             	mov    -0x20(%ebp),%esi
    42b3:	8b 87 20 10 00 00    	mov    0x1020(%edi),%eax
    42b9:	e9 37 f3 ff ff       	jmp    35f5 <parse_transform+0x65>
    42be:	8b 55 dc             	mov    -0x24(%ebp),%edx
    42c1:	85 d2                	test   %edx,%edx
    42c3:	74 1d                	je     42e2 <parse_transform+0xd52>
    42c5:	8b 0a                	mov    (%edx),%ecx
    42c7:	85 c9                	test   %ecx,%ecx
    42c9:	0f 84 01 06 00 00    	je     48d0 <parse_transform+0x1340>
    42cf:	8b 42 04             	mov    0x4(%edx),%eax
    42d2:	85 c0                	test   %eax,%eax
    42d4:	0f 84 35 06 00 00    	je     490f <parse_transform+0x137f>
    42da:	48                   	dec    %eax
    42db:	89 42 04             	mov    %eax,0x4(%edx)
    42de:	85 c0                	test   %eax,%eax
    42e0:	74 64                	je     4346 <parse_transform+0xdb6>
    42e2:	8b 75 e4             	mov    -0x1c(%ebp),%esi
    42e5:	85 f6                	test   %esi,%esi
    42e7:	0f 85 cf f9 ff ff    	jne    3cbc <parse_transform+0x72c>
    42ed:	e9 e5 f6 ff ff       	jmp    39d7 <parse_transform+0x447>
    42f2:	8b 45 a0             	mov    -0x60(%ebp),%eax
    42f5:	89 45 9c             	mov    %eax,-0x64(%ebp)
    42f8:	e9 5b fb ff ff       	jmp    3e58 <parse_transform+0x8c8>
    42fd:	8b 17                	mov    (%edi),%edx
    42ff:	85 d2                	test   %edx,%edx
    4301:	74 4f                	je     4352 <parse_transform+0xdc2>
    4303:	8b 75 dc             	mov    -0x24(%ebp),%esi
    4306:	85 f6                	test   %esi,%esi
    4308:	0f 85 ae f9 ff ff    	jne    3cbc <parse_transform+0x72c>
    430e:	e9 c4 f6 ff ff       	jmp    39d7 <parse_transform+0x447>
    4313:	89 f8                	mov    %edi,%eax
    4315:	e8 f6 dd ff ff       	call   2110 <next_token>
    431a:	ba 7b 00 00 00       	mov    $0x7b,%edx
    431f:	89 f8                	mov    %edi,%eax
    4321:	e8 7a e6 ff ff       	call   29a0 <expect>
    4326:	89 f8                	mov    %edi,%eax
    4328:	e8 83 0a 00 00       	call   4db0 <parse_struct>
    432d:	ba 7d 00 00 00       	mov    $0x7d,%edx
    4332:	89 c6                	mov    %eax,%esi
    4334:	89 f8                	mov    %edi,%eax
    4336:	e8 65 e6 ff ff       	call   29a0 <expect>
    433b:	8b 87 20 10 00 00    	mov    0x1020(%edi),%eax
    4341:	e9 af f2 ff ff       	jmp    35f5 <parse_transform+0x65>
    4346:	83 ec 0c             	sub    $0xc,%esp
    4349:	52                   	push   %edx
    434a:	ff 51 0c             	call   *0xc(%ecx)
    434d:	83 c4 10             	add    $0x10,%esp
    4350:	eb 90                	jmp    42e2 <parse_transform+0xd52>
    4352:	83 bf 20 10 00 00 86 	cmpl   $0xffffff86,0x1020(%edi)
    4359:	0f 84 bd 04 00 00    	je     481c <parse_transform+0x128c>
    435f:	c7 87 20 10 00 00 80 	movl   $0xffffff80,0x1020(%edi)
    4366:	ff ff ff 
    4369:	89 07                	mov    %eax,(%edi)
    436b:	eb 96                	jmp    4303 <parse_transform+0xd73>
    436d:	89 f8                	mov    %edi,%eax
    436f:	e8 9c dd ff ff       	call   2110 <next_token>
    4374:	31 d2                	xor    %edx,%edx
    4376:	89 f8                	mov    %edi,%eax
    4378:	e8 43 e7 ff ff       	call   2ac0 <parse_expression_precedence>
    437d:	ba 29 00 00 00       	mov    $0x29,%edx
    4382:	89 c3                	mov    %eax,%ebx
    4384:	89 f8                	mov    %edi,%eax
    4386:	e8 15 e6 ff ff       	call   29a0 <expect>
    438b:	ba 7b 00 00 00       	mov    $0x7b,%edx
    4390:	89 f8                	mov    %edi,%eax
    4392:	e8 09 e6 ff ff       	call   29a0 <expect>
    4397:	89 f8                	mov    %edi,%eax
    4399:	e8 f2 f1 ff ff       	call   3590 <parse_transform>
    439e:	ba 7d 00 00 00       	mov    $0x7d,%edx
    43a3:	89 c6                	mov    %eax,%esi
    43a5:	89 f8                	mov    %edi,%eax
    43a7:	e8 f4 e5 ff ff       	call   29a0 <expect>
    43ac:	8b 07                	mov    (%edi),%eax
    43ae:	85 c0                	test   %eax,%eax
    43b0:	0f 84 fc fc ff ff    	je     40b2 <parse_transform+0xb22>
    43b6:	85 db                	test   %ebx,%ebx
    43b8:	74 27                	je     43e1 <parse_transform+0xe51>
    43ba:	8b 13                	mov    (%ebx),%edx
    43bc:	85 d2                	test   %edx,%edx
    43be:	0f 84 39 05 00 00    	je     48fd <parse_transform+0x136d>
    43c4:	8b 43 04             	mov    0x4(%ebx),%eax
    43c7:	85 c0                	test   %eax,%eax
    43c9:	0f 84 13 05 00 00    	je     48e2 <parse_transform+0x1352>
    43cf:	48                   	dec    %eax
    43d0:	89 43 04             	mov    %eax,0x4(%ebx)
    43d3:	85 c0                	test   %eax,%eax
    43d5:	75 0a                	jne    43e1 <parse_transform+0xe51>
    43d7:	83 ec 0c             	sub    $0xc,%esp
    43da:	53                   	push   %ebx
    43db:	ff 52 04             	call   *0x4(%edx)
    43de:	83 c4 10             	add    $0x10,%esp
    43e1:	85 f6                	test   %esi,%esi
    43e3:	0f 84 2b fa ff ff    	je     3e14 <parse_transform+0x884>
    43e9:	8b 16                	mov    (%esi),%edx
    43eb:	85 d2                	test   %edx,%edx
    43ed:	0f 84 dd 04 00 00    	je     48d0 <parse_transform+0x1340>
    43f3:	8b 46 04             	mov    0x4(%esi),%eax
    43f6:	85 c0                	test   %eax,%eax
    43f8:	0f 84 11 05 00 00    	je     490f <parse_transform+0x137f>
    43fe:	48                   	dec    %eax
    43ff:	89 46 04             	mov    %eax,0x4(%esi)
    4402:	85 c0                	test   %eax,%eax
    4404:	0f 85 ee f9 ff ff    	jne    3df8 <parse_transform+0x868>
    440a:	83 ec 0c             	sub    $0xc,%esp
    440d:	56                   	push   %esi
    440e:	31 f6                	xor    %esi,%esi
    4410:	ff 52 0c             	call   *0xc(%edx)
    4413:	8b 87 20 10 00 00    	mov    0x1020(%edi),%eax
    4419:	83 c4 10             	add    $0x10,%esp
    441c:	e9 d4 f1 ff ff       	jmp    35f5 <parse_transform+0x65>
    4421:	8b 45 cc             	mov    -0x34(%ebp),%eax
    4424:	85 c0                	test   %eax,%eax
    4426:	74 27                	je     444f <parse_transform+0xebf>
    4428:	8b 08                	mov    (%eax),%ecx
    442a:	85 c9                	test   %ecx,%ecx
    442c:	0f 84 9e 04 00 00    	je     48d0 <parse_transform+0x1340>
    4432:	8b 50 04             	mov    0x4(%eax),%edx
    4435:	85 d2                	test   %edx,%edx
    4437:	0f 84 d2 04 00 00    	je     490f <parse_transform+0x137f>
    443d:	4a                   	dec    %edx
    443e:	89 50 04             	mov    %edx,0x4(%eax)
    4441:	85 d2                	test   %edx,%edx
    4443:	75 0a                	jne    444f <parse_transform+0xebf>
    4445:	83 ec 0c             	sub    $0xc,%esp
    4448:	50                   	push   %eax
    4449:	ff 51 0c             	call   *0xc(%ecx)
    444c:	83 c4 10             	add    $0x10,%esp
    444f:	8b 75 e0             	mov    -0x20(%ebp),%esi
    4452:	85 f6                	test   %esi,%esi
    4454:	0f 84 ba f9 ff ff    	je     3e14 <parse_transform+0x884>
    445a:	8b 16                	mov    (%esi),%edx
    445c:	85 d2                	test   %edx,%edx
    445e:	0f 84 6c 04 00 00    	je     48d0 <parse_transform+0x1340>
    4464:	8b 46 04             	mov    0x4(%esi),%eax
    4467:	85 c0                	test   %eax,%eax
    4469:	0f 84 a0 04 00 00    	je     490f <parse_transform+0x137f>
    446f:	48                   	dec    %eax
    4470:	89 46 04             	mov    %eax,0x4(%esi)
    4473:	85 c0                	test   %eax,%eax
    4475:	0f 85 7d f9 ff ff    	jne    3df8 <parse_transform+0x868>
    447b:	83 ec 0c             	sub    $0xc,%esp
    447e:	56                   	push   %esi
    447f:	31 f6                	xor    %esi,%esi
    4481:	ff 52 0c             	call   *0xc(%edx)
    4484:	8b 87 20 10 00 00    	mov    0x1020(%edi),%eax
    448a:	83 c4 10             	add    $0x10,%esp
    448d:	e9 63 f1 ff ff       	jmp    35f5 <parse_transform+0x65>
    4492:	83 ec 0c             	sub    $0xc,%esp
    4495:	8b 8f 24 10 00 00    	mov    0x1024(%edi),%ecx
    449b:	51                   	push   %ecx
    449c:	e8 4f dc 00 00       	call   120f0 <free@plt>
    44a1:	83 c4 10             	add    $0x10,%esp
    44a4:	e9 46 f3 ff ff       	jmp    37ef <parse_transform+0x25f>
    44a9:	8b 75 a8             	mov    -0x58(%ebp),%esi
    44ac:	8b 5d b4             	mov    -0x4c(%ebp),%ebx
    44af:	e9 69 f1 ff ff       	jmp    361d <parse_transform+0x8d>
    44b4:	31 d2                	xor    %edx,%edx
    44b6:	89 f8                	mov    %edi,%eax
    44b8:	e8 a3 0c 00 00       	call   5160 <parse_switch>
    44bd:	89 c6                	mov    %eax,%esi
    44bf:	8b 87 20 10 00 00    	mov    0x1020(%edi),%eax
    44c5:	e9 2b f1 ff ff       	jmp    35f5 <parse_transform+0x65>
    44ca:	ba 85 13 01 00       	mov    $0x11385,%edx
    44cf:	89 f8                	mov    %edi,%eax
    44d1:	e8 3a db ff ff       	call   2010 <syntax_error.part.2>
    44d6:	8b 07                	mov    (%edi),%eax
    44d8:	85 c0                	test   %eax,%eax
    44da:	0f 85 48 f8 ff ff    	jne    3d28 <parse_transform+0x798>
    44e0:	80 bf 34 10 00 00 00 	cmpb   $0x0,0x1034(%edi)
    44e7:	74 14                	je     44fd <parse_transform+0xf6d>
    44e9:	50                   	push   %eax
    44ea:	50                   	push   %eax
    44eb:	8d 45 e4             	lea    -0x1c(%ebp),%eax
    44ee:	53                   	push   %ebx
    44ef:	50                   	push   %eax
    44f0:	e8 1b a6 00 00       	call   eb10 <bithenge_expression_transform>
    44f5:	83 c4 10             	add    $0x10,%esp
    44f8:	e9 c4 fb ff ff       	jmp    40c1 <parse_transform+0xb31>
    44fd:	50                   	push   %eax
    44fe:	50                   	push   %eax
    44ff:	8d 45 e4             	lea    -0x1c(%ebp),%eax
    4502:	53                   	push   %ebx
    4503:	50                   	push   %eax
    4504:	e8 c7 a6 00 00       	call   ebd0 <bithenge_inputless_transform>
    4509:	83 c4 10             	add    $0x10,%esp
    450c:	e9 b0 fb ff ff       	jmp    40c1 <parse_transform+0xb31>
    4511:	8b 17                	mov    (%edi),%edx
    4513:	85 d2                	test   %edx,%edx
    4515:	0f 85 e1 f1 ff ff    	jne    36fc <parse_transform+0x16c>
    451b:	83 bf 20 10 00 00 86 	cmpl   $0xffffff86,0x1020(%edi)
    4522:	0f 84 d7 02 00 00    	je     47ff <parse_transform+0x126f>
    4528:	89 07                	mov    %eax,(%edi)
    452a:	c7 87 20 10 00 00 80 	movl   $0xffffff80,0x1020(%edi)
    4531:	ff ff ff 
    4534:	b8 80 ff ff ff       	mov    $0xffffff80,%eax
    4539:	e9 c4 f1 ff ff       	jmp    3702 <parse_transform+0x172>
    453e:	83 bf 20 10 00 00 86 	cmpl   $0xffffff86,0x1020(%edi)
    4545:	0f 84 8d 02 00 00    	je     47d8 <parse_transform+0x1248>
    454b:	c7 87 20 10 00 00 80 	movl   $0xffffff80,0x1020(%edi)
    4552:	ff ff ff 
    4555:	89 07                	mov    %eax,(%edi)
    4557:	e9 9c f6 ff ff       	jmp    3bf8 <parse_transform+0x668>
    455c:	89 f8                	mov    %edi,%eax
    455e:	e8 ad db ff ff       	call   2110 <next_token>
    4563:	e9 6e ff ff ff       	jmp    44d6 <parse_transform+0xf46>
    4568:	8b 0f                	mov    (%edi),%ecx
    456a:	85 c9                	test   %ecx,%ecx
    456c:	75 0c                	jne    457a <parse_transform+0xfea>
    456e:	ba fe ff ff ff       	mov    $0xfffffffe,%edx
    4573:	89 f8                	mov    %edi,%eax
    4575:	e8 46 d9 ff ff       	call   1ec0 <error_errno.part.1>
    457a:	8b 45 e4             	mov    -0x1c(%ebp),%eax
    457d:	85 c0                	test   %eax,%eax
    457f:	0f 84 7e fd ff ff    	je     4303 <parse_transform+0xd73>
    4585:	8b 08                	mov    (%eax),%ecx
    4587:	85 c9                	test   %ecx,%ecx
    4589:	0f 84 41 03 00 00    	je     48d0 <parse_transform+0x1340>
    458f:	8b 50 04             	mov    0x4(%eax),%edx
    4592:	85 d2                	test   %edx,%edx
    4594:	0f 84 75 03 00 00    	je     490f <parse_transform+0x137f>
    459a:	4a                   	dec    %edx
    459b:	89 50 04             	mov    %edx,0x4(%eax)
    459e:	85 d2                	test   %edx,%edx
    45a0:	0f 85 5d fd ff ff    	jne    4303 <parse_transform+0xd73>
    45a6:	83 ec 0c             	sub    $0xc,%esp
    45a9:	50                   	push   %eax
    45aa:	ff 51 0c             	call   *0xc(%ecx)
    45ad:	83 c4 10             	add    $0x10,%esp
    45b0:	e9 4e fd ff ff       	jmp    4303 <parse_transform+0xd73>
    45b5:	83 ec 0c             	sub    $0xc,%esp
    45b8:	8b 8f 24 10 00 00    	mov    0x1024(%edi),%ecx
    45be:	89 45 b4             	mov    %eax,-0x4c(%ebp)
    45c1:	51                   	push   %ecx
    45c2:	e8 29 db 00 00       	call   120f0 <free@plt>
    45c7:	83 c4 10             	add    $0x10,%esp
    45ca:	8b 45 b4             	mov    -0x4c(%ebp),%eax
    45cd:	e9 95 f5 ff ff       	jmp    3b67 <parse_transform+0x5d7>
    45d2:	8b 17                	mov    (%edi),%edx
    45d4:	85 d2                	test   %edx,%edx
    45d6:	0f 85 33 fb ff ff    	jne    410f <parse_transform+0xb7f>
    45dc:	ba ef 13 01 00       	mov    $0x113ef,%edx
    45e1:	89 f8                	mov    %edi,%eax
    45e3:	e8 28 da ff ff       	call   2010 <syntax_error.part.2>
    45e8:	e9 22 fb ff ff       	jmp    410f <parse_transform+0xb7f>
    45ed:	8b 75 c8             	mov    -0x38(%ebp),%esi
    45f0:	8b 87 20 10 00 00    	mov    0x1020(%edi),%eax
    45f6:	e9 fa ef ff ff       	jmp    35f5 <parse_transform+0x65>
    45fb:	89 f8                	mov    %edi,%eax
    45fd:	e8 0e db ff ff       	call   2110 <next_token>
    4602:	8b 07                	mov    (%edi),%eax
    4604:	89 45 b4             	mov    %eax,-0x4c(%ebp)
    4607:	85 c0                	test   %eax,%eax
    4609:	0f 85 6e 02 00 00    	jne    487d <parse_transform+0x12ed>
    460f:	31 c9                	xor    %ecx,%ecx
    4611:	31 db                	xor    %ebx,%ebx
    4613:	83 bf 20 10 00 00 29 	cmpl   $0x29,0x1020(%edi)
    461a:	74 6e                	je     468a <parse_transform+0x10fa>
    461c:	40                   	inc    %eax
    461d:	89 4d ac             	mov    %ecx,-0x54(%ebp)
    4620:	89 45 b0             	mov    %eax,-0x50(%ebp)
    4623:	8d 1c 85 00 00 00 00 	lea    0x0(,%eax,4),%ebx
    462a:	50                   	push   %eax
    462b:	50                   	push   %eax
    462c:	53                   	push   %ebx
    462d:	51                   	push   %ecx
    462e:	e8 6d d9 00 00       	call   11fa0 <realloc@plt>
    4633:	83 c4 10             	add    $0x10,%esp
    4636:	89 c6                	mov    %eax,%esi
    4638:	85 c0                	test   %eax,%eax
    463a:	8b 4d ac             	mov    -0x54(%ebp),%ecx
    463d:	74 62                	je     46a1 <parse_transform+0x1111>
    463f:	8b 07                	mov    (%edi),%eax
    4641:	85 c0                	test   %eax,%eax
    4643:	0f 85 3d 02 00 00    	jne    4886 <parse_transform+0x12f6>
    4649:	31 d2                	xor    %edx,%edx
    464b:	89 f8                	mov    %edi,%eax
    464d:	e8 6e e4 ff ff       	call   2ac0 <parse_expression_precedence>
    4652:	8d 5c 1e fc          	lea    -0x4(%esi,%ebx,1),%ebx
    4656:	89 03                	mov    %eax,(%ebx)
    4658:	8b 07                	mov    (%edi),%eax
    465a:	85 c0                	test   %eax,%eax
    465c:	0f 85 16 01 00 00    	jne    4778 <parse_transform+0x11e8>
    4662:	83 bf 20 10 00 00 29 	cmpl   $0x29,0x1020(%edi)
    4669:	0f 84 09 01 00 00    	je     4778 <parse_transform+0x11e8>
    466f:	89 f8                	mov    %edi,%eax
    4671:	ba 2c 00 00 00       	mov    $0x2c,%edx
    4676:	e8 25 e3 ff ff       	call   29a0 <expect>
    467b:	8b 07                	mov    (%edi),%eax
    467d:	89 f1                	mov    %esi,%ecx
    467f:	85 c0                	test   %eax,%eax
    4681:	0f 84 46 01 00 00    	je     47cd <parse_transform+0x123d>
    4687:	8b 5d b0             	mov    -0x50(%ebp),%ebx
    468a:	ba 29 00 00 00       	mov    $0x29,%edx
    468f:	89 f8                	mov    %edi,%eax
    4691:	89 4d b4             	mov    %ecx,-0x4c(%ebp)
    4694:	e8 07 e3 ff ff       	call   29a0 <expect>
    4699:	8b 4d b4             	mov    -0x4c(%ebp),%ecx
    469c:	e9 86 fa ff ff       	jmp    4127 <parse_transform+0xb97>
    46a1:	8b 07                	mov    (%edi),%eax
    46a3:	8b 5d b4             	mov    -0x4c(%ebp),%ebx
    46a6:	85 c0                	test   %eax,%eax
    46a8:	75 e0                	jne    468a <parse_transform+0x10fa>
    46aa:	83 bf 20 10 00 00 86 	cmpl   $0xffffff86,0x1020(%edi)
    46b1:	0f 84 d9 01 00 00    	je     4890 <parse_transform+0x1300>
    46b7:	c7 87 20 10 00 00 80 	movl   $0xffffff80,0x1020(%edi)
    46be:	ff ff ff 
    46c1:	c7 07 fe ff ff ff    	movl   $0xfffffffe,(%edi)
    46c7:	eb c1                	jmp    468a <parse_transform+0x10fa>
    46c9:	8b 07                	mov    (%edi),%eax
    46cb:	85 c0                	test   %eax,%eax
    46cd:	0f 85 f7 f6 ff ff    	jne    3dca <parse_transform+0x83a>
    46d3:	83 ec 0c             	sub    $0xc,%esp
    46d6:	8b 45 d4             	mov    -0x2c(%ebp),%eax
    46d9:	8b 75 d0             	mov    -0x30(%ebp),%esi
    46dc:	6a 01                	push   $0x1
    46de:	6a 00                	push   $0x0
    46e0:	56                   	push   %esi
    46e1:	50                   	push   %eax
    46e2:	8d 45 d0             	lea    -0x30(%ebp),%eax
    46e5:	50                   	push   %eax
    46e6:	e8 95 a1 00 00       	call   e880 <bithenge_subblob_expression>
    46eb:	83 c4 20             	add    $0x20,%esp
    46ee:	85 c0                	test   %eax,%eax
    46f0:	75 1a                	jne    470c <parse_transform+0x117c>
    46f2:	8b 5d d0             	mov    -0x30(%ebp),%ebx
    46f5:	8d 45 cc             	lea    -0x34(%ebp),%eax
    46f8:	51                   	push   %ecx
    46f9:	51                   	push   %ecx
    46fa:	53                   	push   %ebx
    46fb:	50                   	push   %eax
    46fc:	e8 0f a4 00 00       	call   eb10 <bithenge_expression_transform>
    4701:	83 c4 10             	add    $0x10,%esp
    4704:	85 c0                	test   %eax,%eax
    4706:	0f 84 22 fb ff ff    	je     422e <parse_transform+0xc9e>
    470c:	8b 17                	mov    (%edi),%edx
    470e:	85 d2                	test   %edx,%edx
    4710:	0f 85 e2 f6 ff ff    	jne    3df8 <parse_transform+0x868>
    4716:	89 c2                	mov    %eax,%edx
    4718:	89 f8                	mov    %edi,%eax
    471a:	e8 a1 d7 ff ff       	call   1ec0 <error_errno.part.1>
    471f:	e9 d4 f6 ff ff       	jmp    3df8 <parse_transform+0x868>
    4724:	85 db                	test   %ebx,%ebx
    4726:	74 27                	je     474f <parse_transform+0x11bf>
    4728:	8b 13                	mov    (%ebx),%edx
    472a:	85 d2                	test   %edx,%edx
    472c:	0f 84 cb 01 00 00    	je     48fd <parse_transform+0x136d>
    4732:	8b 43 04             	mov    0x4(%ebx),%eax
    4735:	85 c0                	test   %eax,%eax
    4737:	0f 84 a5 01 00 00    	je     48e2 <parse_transform+0x1352>
    473d:	48                   	dec    %eax
    473e:	89 43 04             	mov    %eax,0x4(%ebx)
    4741:	85 c0                	test   %eax,%eax
    4743:	75 0a                	jne    474f <parse_transform+0x11bf>
    4745:	83 ec 0c             	sub    $0xc,%esp
    4748:	53                   	push   %ebx
    4749:	ff 52 04             	call   *0x4(%edx)
    474c:	83 c4 10             	add    $0x10,%esp
    474f:	85 f6                	test   %esi,%esi
    4751:	0f 85 03 fd ff ff    	jne    445a <parse_transform+0xeca>
    4757:	e9 b8 f6 ff ff       	jmp    3e14 <parse_transform+0x884>
    475c:	83 ec 0c             	sub    $0xc,%esp
    475f:	51                   	push   %ecx
    4760:	e8 8b d9 00 00       	call   120f0 <free@plt>
    4765:	8b 75 c8             	mov    -0x38(%ebp),%esi
    4768:	83 c4 10             	add    $0x10,%esp
    476b:	85 f6                	test   %esi,%esi
    476d:	0f 85 e7 fc ff ff    	jne    445a <parse_transform+0xeca>
    4773:	e9 9c f6 ff ff       	jmp    3e14 <parse_transform+0x884>
    4778:	8b 5d b0             	mov    -0x50(%ebp),%ebx
    477b:	89 f1                	mov    %esi,%ecx
    477d:	e9 08 ff ff ff       	jmp    468a <parse_transform+0x10fa>
    4782:	83 ec 0c             	sub    $0xc,%esp
    4785:	8b b7 24 10 00 00    	mov    0x1024(%edi),%esi
    478b:	89 45 b4             	mov    %eax,-0x4c(%ebp)
    478e:	56                   	push   %esi
    478f:	e8 5c d9 00 00       	call   120f0 <free@plt>
    4794:	83 c4 10             	add    $0x10,%esp
    4797:	8b 45 b4             	mov    -0x4c(%ebp),%eax
    479a:	e9 b5 f8 ff ff       	jmp    4054 <parse_transform+0xac4>
    479f:	83 ec 0c             	sub    $0xc,%esp
    47a2:	8b 87 24 10 00 00    	mov    0x1024(%edi),%eax
    47a8:	50                   	push   %eax
    47a9:	e8 42 d9 00 00       	call   120f0 <free@plt>
    47ae:	83 c4 10             	add    $0x10,%esp
    47b1:	8b 5d 9c             	mov    -0x64(%ebp),%ebx
    47b4:	e9 8b f7 ff ff       	jmp    3f44 <parse_transform+0x9b4>
    47b9:	8b 17                	mov    (%edi),%edx
    47bb:	85 d2                	test   %edx,%edx
    47bd:	75 09                	jne    47c8 <parse_transform+0x1238>
    47bf:	89 c2                	mov    %eax,%edx
    47c1:	89 f8                	mov    %edi,%eax
    47c3:	e8 f8 d6 ff ff       	call   1ec0 <error_errno.part.1>
    47c8:	8b 75 cc             	mov    -0x34(%ebp),%esi
    47cb:	eb 82                	jmp    474f <parse_transform+0x11bf>
    47cd:	8b 45 b0             	mov    -0x50(%ebp),%eax
    47d0:	89 45 b4             	mov    %eax,-0x4c(%ebp)
    47d3:	e9 44 fe ff ff       	jmp    461c <parse_transform+0x108c>
    47d8:	83 ec 0c             	sub    $0xc,%esp
    47db:	89 45 a4             	mov    %eax,-0x5c(%ebp)
    47de:	8b 87 24 10 00 00    	mov    0x1024(%edi),%eax
    47e4:	50                   	push   %eax
    47e5:	e8 06 d9 00 00       	call   120f0 <free@plt>
    47ea:	83 c4 10             	add    $0x10,%esp
    47ed:	8b 45 a4             	mov    -0x5c(%ebp),%eax
    47f0:	e9 56 fd ff ff       	jmp    454b <parse_transform+0xfbb>
    47f5:	31 db                	xor    %ebx,%ebx
    47f7:	89 5d a4             	mov    %ebx,-0x5c(%ebp)
    47fa:	e9 c9 f6 ff ff       	jmp    3ec8 <parse_transform+0x938>
    47ff:	83 ec 0c             	sub    $0xc,%esp
    4802:	8b b7 24 10 00 00    	mov    0x1024(%edi),%esi
    4808:	89 45 a4             	mov    %eax,-0x5c(%ebp)
    480b:	56                   	push   %esi
    480c:	e8 df d8 00 00       	call   120f0 <free@plt>
    4811:	83 c4 10             	add    $0x10,%esp
    4814:	8b 45 a4             	mov    -0x5c(%ebp),%eax
    4817:	e9 0c fd ff ff       	jmp    4528 <parse_transform+0xf98>
    481c:	83 ec 0c             	sub    $0xc,%esp
    481f:	8b b7 24 10 00 00    	mov    0x1024(%edi),%esi
    4825:	89 45 a4             	mov    %eax,-0x5c(%ebp)
    4828:	56                   	push   %esi
    4829:	e8 c2 d8 00 00       	call   120f0 <free@plt>
    482e:	83 c4 10             	add    $0x10,%esp
    4831:	8b 45 a4             	mov    -0x5c(%ebp),%eax
    4834:	e9 26 fb ff ff       	jmp    435f <parse_transform+0xdcf>
    4839:	83 bf 20 10 00 00 86 	cmpl   $0xffffff86,0x1020(%edi)
    4840:	0f 84 f2 00 00 00    	je     4938 <parse_transform+0x13a8>
    4846:	c7 87 20 10 00 00 80 	movl   $0xffffff80,0x1020(%edi)
    484d:	ff ff ff 
    4850:	89 1f                	mov    %ebx,(%edi)
    4852:	e9 73 f5 ff ff       	jmp    3dca <parse_transform+0x83a>
    4857:	8b 0f                	mov    (%edi),%ecx
    4859:	85 c9                	test   %ecx,%ecx
    485b:	74 53                	je     48b0 <parse_transform+0x1320>
    485d:	8b 45 e0             	mov    -0x20(%ebp),%eax
    4860:	e8 ab d6 ff ff       	call   1f10 <bithenge_transform_dec_ref>
    4865:	8b 45 cc             	mov    -0x34(%ebp),%eax
    4868:	e8 a3 d6 ff ff       	call   1f10 <bithenge_transform_dec_ref>
    486d:	e9 86 f5 ff ff       	jmp    3df8 <parse_transform+0x868>
    4872:	8b 5d 9c             	mov    -0x64(%ebp),%ebx
    4875:	89 75 a4             	mov    %esi,-0x5c(%ebp)
    4878:	e9 4b f6 ff ff       	jmp    3ec8 <parse_transform+0x938>
    487d:	31 db                	xor    %ebx,%ebx
    487f:	31 c9                	xor    %ecx,%ecx
    4881:	e9 04 fe ff ff       	jmp    468a <parse_transform+0x10fa>
    4886:	89 f1                	mov    %esi,%ecx
    4888:	8b 5d b4             	mov    -0x4c(%ebp),%ebx
    488b:	e9 fa fd ff ff       	jmp    468a <parse_transform+0x10fa>
    4890:	83 ec 0c             	sub    $0xc,%esp
    4893:	8b 87 24 10 00 00    	mov    0x1024(%edi),%eax
    4899:	89 4d b0             	mov    %ecx,-0x50(%ebp)
    489c:	50                   	push   %eax
    489d:	e8 4e d8 00 00       	call   120f0 <free@plt>
    48a2:	83 c4 10             	add    $0x10,%esp
    48a5:	8b 4d b0             	mov    -0x50(%ebp),%ecx
    48a8:	8b 5d b4             	mov    -0x4c(%ebp),%ebx
    48ab:	e9 07 fe ff ff       	jmp    46b7 <parse_transform+0x1127>
    48b0:	ba fe ff ff ff       	mov    $0xfffffffe,%edx
    48b5:	89 f8                	mov    %edi,%eax
    48b7:	e8 04 d6 ff ff       	call   1ec0 <error_errno.part.1>
    48bc:	eb 9f                	jmp    485d <parse_transform+0x12cd>
    48be:	53                   	push   %ebx
    48bf:	6a 62                	push   $0x62
    48c1:	68 18 13 01 00       	push   $0x11318
    48c6:	68 35 13 01 00       	push   $0x11335
    48cb:	e8 40 d6 00 00       	call   11f10 <assert_abort@plt>
    48d0:	56                   	push   %esi
    48d1:	6a 74                	push   $0x74
    48d3:	68 18 13 01 00       	push   $0x11318
    48d8:	68 61 11 01 00       	push   $0x11161
    48dd:	e8 2e d6 00 00       	call   11f10 <assert_abort@plt>
    48e2:	50                   	push   %eax
    48e3:	6a 4c                	push   $0x4c
    48e5:	68 a3 13 01 00       	push   $0x113a3
    48ea:	68 6b 11 01 00       	push   $0x1116b
    48ef:	e8 1c d6 00 00       	call   11f10 <assert_abort@plt>
    48f4:	89 c3                	mov    %eax,%ebx
    48f6:	b1 01                	mov    $0x1,%cl
    48f8:	e9 2b ed ff ff       	jmp    3628 <parse_transform+0x98>
    48fd:	50                   	push   %eax
    48fe:	6a 4b                	push   $0x4b
    4900:	68 a3 13 01 00       	push   $0x113a3
    4905:	68 61 11 01 00       	push   $0x11161
    490a:	e8 01 d6 00 00       	call   11f10 <assert_abort@plt>
    490f:	53                   	push   %ebx
    4910:	6a 75                	push   $0x75
    4912:	68 18 13 01 00       	push   $0x11318
    4917:	68 6b 11 01 00       	push   $0x1116b
    491c:	e8 ef d5 00 00       	call   11f10 <assert_abort@plt>
    4921:	83 ec 0c             	sub    $0xc,%esp
    4924:	8b 87 24 10 00 00    	mov    0x1024(%edi),%eax
    492a:	50                   	push   %eax
    492b:	e8 c0 d7 00 00       	call   120f0 <free@plt>
    4930:	83 c4 10             	add    $0x10,%esp
    4933:	e9 5c f8 ff ff       	jmp    4194 <parse_transform+0xc04>
    4938:	83 ec 0c             	sub    $0xc,%esp
    493b:	8b 87 24 10 00 00    	mov    0x1024(%edi),%eax
    4941:	50                   	push   %eax
    4942:	e8 a9 d7 00 00       	call   120f0 <free@plt>
    4947:	83 c4 10             	add    $0x10,%esp
    494a:	e9 f7 fe ff ff       	jmp    4846 <parse_transform+0x12b6>
    494f:	90                   	nop

00004950 <parse_if>:
    4950:	55                   	push   %ebp
    4951:	89 e5                	mov    %esp,%ebp
    4953:	57                   	push   %edi
    4954:	56                   	push   %esi
    4955:	53                   	push   %ebx
    4956:	83 ec 2c             	sub    $0x2c,%esp
    4959:	89 c7                	mov    %eax,%edi
    495b:	8b 80 20 10 00 00    	mov    0x1020(%eax),%eax
    4961:	89 d3                	mov    %edx,%ebx
    4963:	83 f8 90             	cmp    $0xffffff90,%eax
    4966:	0f 84 3c 03 00 00    	je     4ca8 <parse_if+0x358>
    496c:	8b 37                	mov    (%edi),%esi
    496e:	85 f6                	test   %esi,%esi
    4970:	0f 84 8a 02 00 00    	je     4c00 <parse_if+0x2b0>
    4976:	83 f8 28             	cmp    $0x28,%eax
    4979:	0f 84 09 03 00 00    	je     4c88 <parse_if+0x338>
    497f:	31 d2                	xor    %edx,%edx
    4981:	89 f8                	mov    %edi,%eax
    4983:	e8 38 e1 ff ff       	call   2ac0 <parse_expression_precedence>
    4988:	89 c6                	mov    %eax,%esi
    498a:	8b 87 20 10 00 00    	mov    0x1020(%edi),%eax
    4990:	83 f8 29             	cmp    $0x29,%eax
    4993:	0f 84 ff 02 00 00    	je     4c98 <parse_if+0x348>
    4999:	8b 17                	mov    (%edi),%edx
    499b:	85 d2                	test   %edx,%edx
    499d:	0f 84 25 02 00 00    	je     4bc8 <parse_if+0x278>
    49a3:	83 f8 7b             	cmp    $0x7b,%eax
    49a6:	0f 84 0c 03 00 00    	je     4cb8 <parse_if+0x368>
    49ac:	89 f8                	mov    %edi,%eax
    49ae:	84 db                	test   %bl,%bl
    49b0:	0f 84 d2 00 00 00    	je     4a88 <parse_if+0x138>
    49b6:	e8 f5 03 00 00       	call   4db0 <parse_struct>
    49bb:	89 45 d4             	mov    %eax,-0x2c(%ebp)
    49be:	8b 87 20 10 00 00    	mov    0x1020(%edi),%eax
    49c4:	83 f8 7d             	cmp    $0x7d,%eax
    49c7:	0f 84 d2 00 00 00    	je     4a9f <parse_if+0x14f>
    49cd:	8b 17                	mov    (%edi),%edx
    49cf:	85 d2                	test   %edx,%edx
    49d1:	0f 84 d9 01 00 00    	je     4bb0 <parse_if+0x260>
    49d7:	83 f8 8e             	cmp    $0xffffff8e,%eax
    49da:	0f 84 d8 00 00 00    	je     4ab8 <parse_if+0x168>
    49e0:	84 db                	test   %bl,%bl
    49e2:	0f 85 70 01 00 00    	jne    4b58 <parse_if+0x208>
    49e8:	8b 07                	mov    (%edi),%eax
    49ea:	31 db                	xor    %ebx,%ebx
    49ec:	85 c0                	test   %eax,%eax
    49ee:	0f 84 3c 02 00 00    	je     4c30 <parse_if+0x2e0>
    49f4:	85 f6                	test   %esi,%esi
    49f6:	74 27                	je     4a1f <parse_if+0xcf>
    49f8:	8b 16                	mov    (%esi),%edx
    49fa:	85 d2                	test   %edx,%edx
    49fc:	0f 84 96 03 00 00    	je     4d98 <parse_if+0x448>
    4a02:	8b 46 04             	mov    0x4(%esi),%eax
    4a05:	85 c0                	test   %eax,%eax
    4a07:	0f 84 79 03 00 00    	je     4d86 <parse_if+0x436>
    4a0d:	48                   	dec    %eax
    4a0e:	89 46 04             	mov    %eax,0x4(%esi)
    4a11:	85 c0                	test   %eax,%eax
    4a13:	75 0a                	jne    4a1f <parse_if+0xcf>
    4a15:	83 ec 0c             	sub    $0xc,%esp
    4a18:	56                   	push   %esi
    4a19:	ff 52 04             	call   *0x4(%edx)
    4a1c:	83 c4 10             	add    $0x10,%esp
    4a1f:	8b 45 d4             	mov    -0x2c(%ebp),%eax
    4a22:	85 c0                	test   %eax,%eax
    4a24:	74 2a                	je     4a50 <parse_if+0x100>
    4a26:	8b 10                	mov    (%eax),%edx
    4a28:	85 d2                	test   %edx,%edx
    4a2a:	0f 84 44 03 00 00    	je     4d74 <parse_if+0x424>
    4a30:	8b 40 04             	mov    0x4(%eax),%eax
    4a33:	85 c0                	test   %eax,%eax
    4a35:	0f 84 27 03 00 00    	je     4d62 <parse_if+0x412>
    4a3b:	8b 4d d4             	mov    -0x2c(%ebp),%ecx
    4a3e:	48                   	dec    %eax
    4a3f:	85 c0                	test   %eax,%eax
    4a41:	89 41 04             	mov    %eax,0x4(%ecx)
    4a44:	75 0a                	jne    4a50 <parse_if+0x100>
    4a46:	83 ec 0c             	sub    $0xc,%esp
    4a49:	51                   	push   %ecx
    4a4a:	ff 52 0c             	call   *0xc(%edx)
    4a4d:	83 c4 10             	add    $0x10,%esp
    4a50:	85 db                	test   %ebx,%ebx
    4a52:	74 24                	je     4a78 <parse_if+0x128>
    4a54:	8b 13                	mov    (%ebx),%edx
    4a56:	85 d2                	test   %edx,%edx
    4a58:	0f 84 16 03 00 00    	je     4d74 <parse_if+0x424>
    4a5e:	8b 43 04             	mov    0x4(%ebx),%eax
    4a61:	85 c0                	test   %eax,%eax
    4a63:	0f 84 f9 02 00 00    	je     4d62 <parse_if+0x412>
    4a69:	48                   	dec    %eax
    4a6a:	89 43 04             	mov    %eax,0x4(%ebx)
    4a6d:	85 c0                	test   %eax,%eax
    4a6f:	0f 84 63 02 00 00    	je     4cd8 <parse_if+0x388>
    4a75:	8d 76 00             	lea    0x0(%esi),%esi
    4a78:	31 c0                	xor    %eax,%eax
    4a7a:	8d 65 f4             	lea    -0xc(%ebp),%esp
    4a7d:	5b                   	pop    %ebx
    4a7e:	5e                   	pop    %esi
    4a7f:	5f                   	pop    %edi
    4a80:	5d                   	pop    %ebp
    4a81:	c3                   	ret    
    4a82:	8d b6 00 00 00 00    	lea    0x0(%esi),%esi
    4a88:	e8 03 eb ff ff       	call   3590 <parse_transform>
    4a8d:	89 45 d4             	mov    %eax,-0x2c(%ebp)
    4a90:	8b 87 20 10 00 00    	mov    0x1020(%edi),%eax
    4a96:	83 f8 7d             	cmp    $0x7d,%eax
    4a99:	0f 85 2e ff ff ff    	jne    49cd <parse_if+0x7d>
    4a9f:	89 f8                	mov    %edi,%eax
    4aa1:	e8 6a d6 ff ff       	call   2110 <next_token>
    4aa6:	8b 87 20 10 00 00    	mov    0x1020(%edi),%eax
    4aac:	83 f8 8e             	cmp    $0xffffff8e,%eax
    4aaf:	0f 85 2b ff ff ff    	jne    49e0 <parse_if+0x90>
    4ab5:	8d 76 00             	lea    0x0(%esi),%esi
    4ab8:	89 f8                	mov    %edi,%eax
    4aba:	e8 51 d6 ff ff       	call   2110 <next_token>
    4abf:	83 bf 20 10 00 00 7b 	cmpl   $0x7b,0x1020(%edi)
    4ac6:	0f 84 3c 02 00 00    	je     4d08 <parse_if+0x3b8>
    4acc:	8b 07                	mov    (%edi),%eax
    4ace:	85 c0                	test   %eax,%eax
    4ad0:	0f 84 1a 02 00 00    	je     4cf0 <parse_if+0x3a0>
    4ad6:	89 f8                	mov    %edi,%eax
    4ad8:	84 db                	test   %bl,%bl
    4ada:	0f 84 e8 01 00 00    	je     4cc8 <parse_if+0x378>
    4ae0:	e8 cb 02 00 00       	call   4db0 <parse_struct>
    4ae5:	89 c3                	mov    %eax,%ebx
    4ae7:	83 bf 20 10 00 00 7d 	cmpl   $0x7d,0x1020(%edi)
    4aee:	0f 84 24 02 00 00    	je     4d18 <parse_if+0x3c8>
    4af4:	8b 0f                	mov    (%edi),%ecx
    4af6:	85 c9                	test   %ecx,%ecx
    4af8:	0f 85 f6 fe ff ff    	jne    49f4 <parse_if+0xa4>
    4afe:	ba 85 13 01 00       	mov    $0x11385,%edx
    4b03:	89 f8                	mov    %edi,%eax
    4b05:	e8 06 d5 ff ff       	call   2010 <syntax_error.part.2>
    4b0a:	8b 17                	mov    (%edi),%edx
    4b0c:	8d 74 26 00          	lea    0x0(%esi,%eiz,1),%esi
    4b10:	85 d2                	test   %edx,%edx
    4b12:	0f 85 dc fe ff ff    	jne    49f4 <parse_if+0xa4>
    4b18:	8b 4d d4             	mov    -0x2c(%ebp),%ecx
    4b1b:	8d 45 e4             	lea    -0x1c(%ebp),%eax
    4b1e:	53                   	push   %ebx
    4b1f:	51                   	push   %ecx
    4b20:	56                   	push   %esi
    4b21:	50                   	push   %eax
    4b22:	e8 e9 86 00 00       	call   d210 <bithenge_if_transform>
    4b27:	83 c4 10             	add    $0x10,%esp
    4b2a:	85 c0                	test   %eax,%eax
    4b2c:	74 72                	je     4ba0 <parse_if+0x250>
    4b2e:	8b 17                	mov    (%edi),%edx
    4b30:	85 d2                	test   %edx,%edx
    4b32:	0f 85 40 ff ff ff    	jne    4a78 <parse_if+0x128>
    4b38:	83 bf 20 10 00 00 86 	cmpl   $0xffffff86,0x1020(%edi)
    4b3f:	0f 84 e3 01 00 00    	je     4d28 <parse_if+0x3d8>
    4b45:	c7 87 20 10 00 00 80 	movl   $0xffffff80,0x1020(%edi)
    4b4c:	ff ff ff 
    4b4f:	89 07                	mov    %eax,(%edi)
    4b51:	e9 22 ff ff ff       	jmp    4a78 <parse_if+0x128>
    4b56:	66 90                	xchg   %ax,%ax
    4b58:	83 ec 0c             	sub    $0xc,%esp
    4b5b:	8d 45 dc             	lea    -0x24(%ebp),%eax
    4b5e:	50                   	push   %eax
    4b5f:	e8 6c 6d 00 00       	call   b8d0 <bithenge_new_empty_internal_node>
    4b64:	83 c4 10             	add    $0x10,%esp
    4b67:	85 c0                	test   %eax,%eax
    4b69:	0f 84 d9 00 00 00    	je     4c48 <parse_if+0x2f8>
    4b6f:	8b 17                	mov    (%edi),%edx
    4b71:	31 db                	xor    %ebx,%ebx
    4b73:	85 d2                	test   %edx,%edx
    4b75:	75 99                	jne    4b10 <parse_if+0x1c0>
    4b77:	83 bf 20 10 00 00 86 	cmpl   $0xffffff86,0x1020(%edi)
    4b7e:	0f 84 c1 01 00 00    	je     4d45 <parse_if+0x3f5>
    4b84:	c7 87 20 10 00 00 80 	movl   $0xffffff80,0x1020(%edi)
    4b8b:	ff ff ff 
    4b8e:	89 07                	mov    %eax,(%edi)
    4b90:	89 c2                	mov    %eax,%edx
    4b92:	31 db                	xor    %ebx,%ebx
    4b94:	e9 77 ff ff ff       	jmp    4b10 <parse_if+0x1c0>
    4b99:	8d b4 26 00 00 00 00 	lea    0x0(%esi,%eiz,1),%esi
    4ba0:	8b 45 e4             	mov    -0x1c(%ebp),%eax
    4ba3:	8d 65 f4             	lea    -0xc(%ebp),%esp
    4ba6:	5b                   	pop    %ebx
    4ba7:	5e                   	pop    %esi
    4ba8:	5f                   	pop    %edi
    4ba9:	5d                   	pop    %ebp
    4baa:	c3                   	ret    
    4bab:	90                   	nop
    4bac:	8d 74 26 00          	lea    0x0(%esi,%eiz,1),%esi
    4bb0:	89 f8                	mov    %edi,%eax
    4bb2:	ba 85 13 01 00       	mov    $0x11385,%edx
    4bb7:	e8 54 d4 ff ff       	call   2010 <syntax_error.part.2>
    4bbc:	8b 87 20 10 00 00    	mov    0x1020(%edi),%eax
    4bc2:	e9 10 fe ff ff       	jmp    49d7 <parse_if+0x87>
    4bc7:	90                   	nop
    4bc8:	ba 85 13 01 00       	mov    $0x11385,%edx
    4bcd:	89 f8                	mov    %edi,%eax
    4bcf:	e8 3c d4 ff ff       	call   2010 <syntax_error.part.2>
    4bd4:	83 bf 20 10 00 00 7b 	cmpl   $0x7b,0x1020(%edi)
    4bdb:	0f 84 d7 00 00 00    	je     4cb8 <parse_if+0x368>
    4be1:	8b 0f                	mov    (%edi),%ecx
    4be3:	85 c9                	test   %ecx,%ecx
    4be5:	0f 85 c1 fd ff ff    	jne    49ac <parse_if+0x5c>
    4beb:	ba 85 13 01 00       	mov    $0x11385,%edx
    4bf0:	89 f8                	mov    %edi,%eax
    4bf2:	e8 19 d4 ff ff       	call   2010 <syntax_error.part.2>
    4bf7:	e9 b0 fd ff ff       	jmp    49ac <parse_if+0x5c>
    4bfc:	8d 74 26 00          	lea    0x0(%esi,%eiz,1),%esi
    4c00:	ba 85 13 01 00       	mov    $0x11385,%edx
    4c05:	89 f8                	mov    %edi,%eax
    4c07:	e8 04 d4 ff ff       	call   2010 <syntax_error.part.2>
    4c0c:	83 bf 20 10 00 00 28 	cmpl   $0x28,0x1020(%edi)
    4c13:	74 73                	je     4c88 <parse_if+0x338>
    4c15:	8b 0f                	mov    (%edi),%ecx
    4c17:	85 c9                	test   %ecx,%ecx
    4c19:	0f 85 60 fd ff ff    	jne    497f <parse_if+0x2f>
    4c1f:	ba 85 13 01 00       	mov    $0x11385,%edx
    4c24:	89 f8                	mov    %edi,%eax
    4c26:	e8 e5 d3 ff ff       	call   2010 <syntax_error.part.2>
    4c2b:	e9 4f fd ff ff       	jmp    497f <parse_if+0x2f>
    4c30:	ba 03 14 01 00       	mov    $0x11403,%edx
    4c35:	89 f8                	mov    %edi,%eax
    4c37:	e8 d4 d3 ff ff       	call   2010 <syntax_error.part.2>
    4c3c:	8b 17                	mov    (%edi),%edx
