
vbd:     file format elf32-i386


Disassembly of section .init:

000010f4 <__entry>:
    10f4:	66 8c d0             	mov    %ss,%ax
    10f7:	8e d8                	mov    %eax,%ds
    10f9:	8e c0                	mov    %eax,%es
    10fb:	8e e0                	mov    %eax,%fs
    10fd:	b8 01 00 00 00       	mov    $0x1,%eax
    1102:	0f a2                	cpuid  
    1104:	0f ba e2 0b          	bt     $0xb,%edx
    1108:	73 0c                	jae    1116 <__entry+0x22>
    110a:	8d 05 28 b5 00 00    	lea    0xb528,%eax
    1110:	c7 00 e0 96 00 00    	movl   $0x96e0,(%eax)
    1116:	6a 00                	push   $0x0
    1118:	6a 00                	push   $0x0
    111a:	89 e5                	mov    %esp,%ebp
    111c:	57                   	push   %edi
    111d:	e8 1e 82 00 00       	call   9340 <__main@plt>

Disassembly of section .text:

00001130 <vbds_bd_get_num_blocks>:
    1130:	55                   	push   %ebp
    1131:	89 e5                	mov    %esp,%ebp
    1133:	53                   	push   %ebx
    1134:	83 ec 08             	sub    $0x8,%esp
    1137:	8b 45 08             	mov    0x8(%ebp),%eax
    113a:	8b 00                	mov    (%eax),%eax
    113c:	8b 58 04             	mov    0x4(%eax),%ebx
    113f:	68 89 84 00 00       	push   $0x8489
    1144:	6a 05                	push   $0x5
    1146:	6a ff                	push   $0xffffffff
    1148:	e8 33 83 00 00       	call   9480 <log_msg@plt>
    114d:	89 1c 24             	mov    %ebx,(%esp)
    1150:	e8 9b 85 00 00       	call   96f0 <fibril_rwlock_read_lock@plt>
    1155:	8b 4d 0c             	mov    0xc(%ebp),%ecx
    1158:	8b 43 4c             	mov    0x4c(%ebx),%eax
    115b:	8b 53 50             	mov    0x50(%ebx),%edx
    115e:	89 51 04             	mov    %edx,0x4(%ecx)
    1161:	89 01                	mov    %eax,(%ecx)
    1163:	89 1c 24             	mov    %ebx,(%esp)
    1166:	e8 35 82 00 00       	call   93a0 <fibril_rwlock_read_unlock@plt>
    116b:	31 c0                	xor    %eax,%eax
    116d:	8b 5d fc             	mov    -0x4(%ebp),%ebx
    1170:	c9                   	leave  
    1171:	c3                   	ret    
    1172:	8d b4 26 00 00 00 00 	lea    0x0(%esi,%eiz,1),%esi
    1179:	8d bc 27 00 00 00 00 	lea    0x0(%edi,%eiz,1),%edi

00001180 <vbds_bd_get_block_size>:
    1180:	55                   	push   %ebp
    1181:	89 e5                	mov    %esp,%ebp
    1183:	53                   	push   %ebx
    1184:	83 ec 08             	sub    $0x8,%esp
    1187:	8b 45 08             	mov    0x8(%ebp),%eax
    118a:	8b 00                	mov    (%eax),%eax
    118c:	8b 58 04             	mov    0x4(%eax),%ebx
    118f:	68 a2 84 00 00       	push   $0x84a2
    1194:	6a 05                	push   $0x5
    1196:	6a ff                	push   $0xffffffff
    1198:	e8 e3 82 00 00       	call   9480 <log_msg@plt>
    119d:	89 1c 24             	mov    %ebx,(%esp)
    11a0:	e8 4b 85 00 00       	call   96f0 <fibril_rwlock_read_lock@plt>
    11a5:	8b 43 14             	mov    0x14(%ebx),%eax
    11a8:	8b 50 1c             	mov    0x1c(%eax),%edx
    11ab:	8b 45 0c             	mov    0xc(%ebp),%eax
    11ae:	89 10                	mov    %edx,(%eax)
    11b0:	89 1c 24             	mov    %ebx,(%esp)
    11b3:	e8 e8 81 00 00       	call   93a0 <fibril_rwlock_read_unlock@plt>
    11b8:	31 c0                	xor    %eax,%eax
    11ba:	8b 5d fc             	mov    -0x4(%ebp),%ebx
    11bd:	c9                   	leave  
    11be:	c3                   	ret    
    11bf:	90                   	nop

000011c0 <vbds_bd_write_blocks>:
    11c0:	55                   	push   %ebp
    11c1:	89 e5                	mov    %esp,%ebp
    11c3:	57                   	push   %edi
    11c4:	56                   	push   %esi
    11c5:	53                   	push   %ebx
    11c6:	83 ec 20             	sub    $0x20,%esp
    11c9:	8b 45 08             	mov    0x8(%ebp),%eax
    11cc:	8b 75 0c             	mov    0xc(%ebp),%esi
    11cf:	8b 7d 10             	mov    0x10(%ebp),%edi
    11d2:	8b 00                	mov    (%eax),%eax
    11d4:	8b 58 04             	mov    0x4(%eax),%ebx
    11d7:	68 bb 84 00 00       	push   $0x84bb
    11dc:	6a 05                	push   $0x5
    11de:	6a ff                	push   $0xffffffff
    11e0:	e8 9b 82 00 00       	call   9480 <log_msg@plt>
    11e5:	89 1c 24             	mov    %ebx,(%esp)
    11e8:	e8 03 85 00 00       	call   96f0 <fibril_rwlock_read_lock@plt>
    11ed:	8b 4b 14             	mov    0x14(%ebx),%ecx
    11f0:	8b 45 14             	mov    0x14(%ebp),%eax
    11f3:	8b 51 1c             	mov    0x1c(%ecx),%edx
    11f6:	0f af c2             	imul   %edx,%eax
    11f9:	83 c4 10             	add    $0x10,%esp
    11fc:	3b 45 1c             	cmp    0x1c(%ebp),%eax
    11ff:	72 67                	jb     1268 <vbds_bd_write_blocks+0xa8>
    1201:	8b 45 14             	mov    0x14(%ebp),%eax
    1204:	31 d2                	xor    %edx,%edx
    1206:	01 f0                	add    %esi,%eax
    1208:	11 fa                	adc    %edi,%edx
    120a:	3b 53 50             	cmp    0x50(%ebx),%edx
    120d:	76 19                	jbe    1228 <vbds_bd_write_blocks+0x68>
    120f:	83 ec 0c             	sub    $0xc,%esp
    1212:	53                   	push   %ebx
    1213:	e8 88 81 00 00       	call   93a0 <fibril_rwlock_read_unlock@plt>
    1218:	83 c4 10             	add    $0x10,%esp
    121b:	b8 fd ff ff ff       	mov    $0xfffffffd,%eax
    1220:	8d 65 f4             	lea    -0xc(%ebp),%esp
    1223:	5b                   	pop    %ebx
    1224:	5e                   	pop    %esi
    1225:	5f                   	pop    %edi
    1226:	5d                   	pop    %ebp
    1227:	c3                   	ret    
    1228:	72 05                	jb     122f <vbds_bd_write_blocks+0x6f>
    122a:	3b 43 4c             	cmp    0x4c(%ebx),%eax
    122d:	77 e0                	ja     120f <vbds_bd_write_blocks+0x4f>
    122f:	83 ec 0c             	sub    $0xc,%esp
    1232:	03 73 44             	add    0x44(%ebx),%esi
    1235:	8b 55 14             	mov    0x14(%ebp),%edx
    1238:	8b 45 18             	mov    0x18(%ebp),%eax
    123b:	13 7b 48             	adc    0x48(%ebx),%edi
    123e:	50                   	push   %eax
    123f:	52                   	push   %edx
    1240:	57                   	push   %edi
    1241:	8b 49 08             	mov    0x8(%ecx),%ecx
    1244:	56                   	push   %esi
    1245:	51                   	push   %ecx
    1246:	e8 95 6c 00 00       	call   7ee0 <block_write_direct>
    124b:	83 c4 14             	add    $0x14,%esp
    124e:	89 45 e4             	mov    %eax,-0x1c(%ebp)
    1251:	53                   	push   %ebx
    1252:	e8 49 81 00 00       	call   93a0 <fibril_rwlock_read_unlock@plt>
    1257:	8b 45 e4             	mov    -0x1c(%ebp),%eax
    125a:	83 c4 10             	add    $0x10,%esp
    125d:	8d 65 f4             	lea    -0xc(%ebp),%esp
    1260:	5b                   	pop    %ebx
    1261:	5e                   	pop    %esi
    1262:	5f                   	pop    %edi
    1263:	5d                   	pop    %ebp
    1264:	c3                   	ret    
    1265:	8d 76 00             	lea    0x0(%esi),%esi
    1268:	83 ec 0c             	sub    $0xc,%esp
    126b:	53                   	push   %ebx
    126c:	e8 2f 81 00 00       	call   93a0 <fibril_rwlock_read_unlock@plt>
    1271:	83 c4 10             	add    $0x10,%esp
    1274:	b8 f2 ff ff ff       	mov    $0xfffffff2,%eax
    1279:	eb a5                	jmp    1220 <vbds_bd_write_blocks+0x60>
    127b:	90                   	nop
    127c:	8d 74 26 00          	lea    0x0(%esi,%eiz,1),%esi

00001280 <vbds_bd_sync_cache>:
    1280:	55                   	push   %ebp
    1281:	89 e5                	mov    %esp,%ebp
    1283:	57                   	push   %edi
    1284:	56                   	push   %esi
    1285:	53                   	push   %ebx
    1286:	83 ec 20             	sub    $0x20,%esp
    1289:	8b 45 08             	mov    0x8(%ebp),%eax
    128c:	8b 75 0c             	mov    0xc(%ebp),%esi
    128f:	8b 7d 10             	mov    0x10(%ebp),%edi
    1292:	8b 00                	mov    (%eax),%eax
    1294:	8b 58 04             	mov    0x4(%eax),%ebx
    1297:	68 d2 84 00 00       	push   $0x84d2
    129c:	6a 05                	push   $0x5
    129e:	6a ff                	push   $0xffffffff
    12a0:	e8 db 81 00 00       	call   9480 <log_msg@plt>
    12a5:	89 1c 24             	mov    %ebx,(%esp)
    12a8:	e8 43 84 00 00       	call   96f0 <fibril_rwlock_read_lock@plt>
    12ad:	89 f0                	mov    %esi,%eax
    12af:	83 c4 10             	add    $0x10,%esp
    12b2:	09 f8                	or     %edi,%eax
    12b4:	75 07                	jne    12bd <vbds_bd_sync_cache+0x3d>
    12b6:	8b 4d 14             	mov    0x14(%ebp),%ecx
    12b9:	85 c9                	test   %ecx,%ecx
    12bb:	74 3b                	je     12f8 <vbds_bd_sync_cache+0x78>
    12bd:	8b 45 14             	mov    0x14(%ebp),%eax
    12c0:	31 d2                	xor    %edx,%edx
    12c2:	01 f0                	add    %esi,%eax
    12c4:	11 fa                	adc    %edi,%edx
    12c6:	3b 53 50             	cmp    0x50(%ebx),%edx
    12c9:	76 1d                	jbe    12e8 <vbds_bd_sync_cache+0x68>
    12cb:	83 ec 0c             	sub    $0xc,%esp
    12ce:	53                   	push   %ebx
    12cf:	e8 cc 80 00 00       	call   93a0 <fibril_rwlock_read_unlock@plt>
    12d4:	83 c4 10             	add    $0x10,%esp
    12d7:	8d 65 f4             	lea    -0xc(%ebp),%esp
    12da:	b8 fd ff ff ff       	mov    $0xfffffffd,%eax
    12df:	5b                   	pop    %ebx
    12e0:	5e                   	pop    %esi
    12e1:	5f                   	pop    %edi
    12e2:	5d                   	pop    %ebp
    12e3:	c3                   	ret    
    12e4:	8d 74 26 00          	lea    0x0(%esi,%eiz,1),%esi
    12e8:	73 3e                	jae    1328 <vbds_bd_sync_cache+0xa8>
    12ea:	03 73 44             	add    0x44(%ebx),%esi
    12ed:	13 7b 48             	adc    0x48(%ebx),%edi
    12f0:	eb 0a                	jmp    12fc <vbds_bd_sync_cache+0x7c>
    12f2:	8d b6 00 00 00 00    	lea    0x0(%esi),%esi
    12f8:	31 f6                	xor    %esi,%esi
    12fa:	31 ff                	xor    %edi,%edi
    12fc:	8b 45 14             	mov    0x14(%ebp),%eax
    12ff:	50                   	push   %eax
    1300:	8b 43 14             	mov    0x14(%ebx),%eax
    1303:	57                   	push   %edi
    1304:	56                   	push   %esi
    1305:	8b 50 08             	mov    0x8(%eax),%edx
    1308:	52                   	push   %edx
    1309:	e8 b2 6c 00 00       	call   7fc0 <block_sync_cache>
    130e:	89 1c 24             	mov    %ebx,(%esp)
    1311:	89 45 e4             	mov    %eax,-0x1c(%ebp)
    1314:	e8 87 80 00 00       	call   93a0 <fibril_rwlock_read_unlock@plt>
    1319:	8b 45 e4             	mov    -0x1c(%ebp),%eax
    131c:	83 c4 10             	add    $0x10,%esp
    131f:	8d 65 f4             	lea    -0xc(%ebp),%esp
    1322:	5b                   	pop    %ebx
    1323:	5e                   	pop    %esi
    1324:	5f                   	pop    %edi
    1325:	5d                   	pop    %ebp
    1326:	c3                   	ret    
    1327:	90                   	nop
    1328:	3b 43 4c             	cmp    0x4c(%ebx),%eax
    132b:	77 9e                	ja     12cb <vbds_bd_sync_cache+0x4b>
    132d:	eb bb                	jmp    12ea <vbds_bd_sync_cache+0x6a>
    132f:	90                   	nop

00001330 <vbds_bd_read_blocks>:
    1330:	55                   	push   %ebp
    1331:	89 e5                	mov    %esp,%ebp
    1333:	57                   	push   %edi
    1334:	56                   	push   %esi
    1335:	53                   	push   %ebx
    1336:	83 ec 20             	sub    $0x20,%esp
    1339:	8b 45 08             	mov    0x8(%ebp),%eax
    133c:	8b 75 0c             	mov    0xc(%ebp),%esi
    133f:	8b 7d 10             	mov    0x10(%ebp),%edi
    1342:	8b 00                	mov    (%eax),%eax
    1344:	8b 58 04             	mov    0x4(%eax),%ebx
    1347:	68 e7 84 00 00       	push   $0x84e7
    134c:	6a 05                	push   $0x5
    134e:	6a ff                	push   $0xffffffff
    1350:	e8 2b 81 00 00       	call   9480 <log_msg@plt>
    1355:	89 1c 24             	mov    %ebx,(%esp)
    1358:	e8 93 83 00 00       	call   96f0 <fibril_rwlock_read_lock@plt>
    135d:	8b 4b 14             	mov    0x14(%ebx),%ecx
    1360:	8b 45 14             	mov    0x14(%ebp),%eax
    1363:	8b 51 1c             	mov    0x1c(%ecx),%edx
    1366:	0f af c2             	imul   %edx,%eax
    1369:	83 c4 10             	add    $0x10,%esp
    136c:	3b 45 1c             	cmp    0x1c(%ebp),%eax
    136f:	72 67                	jb     13d8 <vbds_bd_read_blocks+0xa8>
    1371:	8b 45 14             	mov    0x14(%ebp),%eax
    1374:	31 d2                	xor    %edx,%edx
    1376:	01 f0                	add    %esi,%eax
    1378:	11 fa                	adc    %edi,%edx
    137a:	3b 53 50             	cmp    0x50(%ebx),%edx
    137d:	76 19                	jbe    1398 <vbds_bd_read_blocks+0x68>
    137f:	83 ec 0c             	sub    $0xc,%esp
    1382:	53                   	push   %ebx
    1383:	e8 18 80 00 00       	call   93a0 <fibril_rwlock_read_unlock@plt>
    1388:	83 c4 10             	add    $0x10,%esp
    138b:	b8 fd ff ff ff       	mov    $0xfffffffd,%eax
    1390:	8d 65 f4             	lea    -0xc(%ebp),%esp
    1393:	5b                   	pop    %ebx
    1394:	5e                   	pop    %esi
    1395:	5f                   	pop    %edi
    1396:	5d                   	pop    %ebp
    1397:	c3                   	ret    
    1398:	72 05                	jb     139f <vbds_bd_read_blocks+0x6f>
    139a:	3b 43 4c             	cmp    0x4c(%ebx),%eax
    139d:	77 e0                	ja     137f <vbds_bd_read_blocks+0x4f>
    139f:	83 ec 0c             	sub    $0xc,%esp
    13a2:	03 73 44             	add    0x44(%ebx),%esi
    13a5:	8b 55 14             	mov    0x14(%ebp),%edx
    13a8:	8b 45 18             	mov    0x18(%ebp),%eax
    13ab:	13 7b 48             	adc    0x48(%ebx),%edi
    13ae:	50                   	push   %eax
    13af:	52                   	push   %edx
    13b0:	57                   	push   %edi
    13b1:	8b 49 08             	mov    0x8(%ecx),%ecx
    13b4:	56                   	push   %esi
    13b5:	51                   	push   %ecx
    13b6:	e8 45 6a 00 00       	call   7e00 <block_read_direct>
    13bb:	83 c4 14             	add    $0x14,%esp
    13be:	89 45 e4             	mov    %eax,-0x1c(%ebp)
    13c1:	53                   	push   %ebx
    13c2:	e8 d9 7f 00 00       	call   93a0 <fibril_rwlock_read_unlock@plt>
    13c7:	8b 45 e4             	mov    -0x1c(%ebp),%eax
    13ca:	83 c4 10             	add    $0x10,%esp
    13cd:	8d 65 f4             	lea    -0xc(%ebp),%esp
    13d0:	5b                   	pop    %ebx
    13d1:	5e                   	pop    %esi
    13d2:	5f                   	pop    %edi
    13d3:	5d                   	pop    %ebp
    13d4:	c3                   	ret    
    13d5:	8d 76 00             	lea    0x0(%esi),%esi
    13d8:	83 ec 0c             	sub    $0xc,%esp
    13db:	53                   	push   %ebx
    13dc:	e8 bf 7f 00 00       	call   93a0 <fibril_rwlock_read_unlock@plt>
    13e1:	83 c4 10             	add    $0x10,%esp
    13e4:	b8 f2 ff ff ff       	mov    $0xfffffff2,%eax
    13e9:	eb a5                	jmp    1390 <vbds_bd_read_blocks+0x60>
    13eb:	90                   	nop
    13ec:	8d 74 26 00          	lea    0x0(%esi,%eiz,1),%esi

000013f0 <vbds_bd_close>:
    13f0:	55                   	push   %ebp
    13f1:	89 e5                	mov    %esp,%ebp
    13f3:	53                   	push   %ebx
    13f4:	83 ec 08             	sub    $0x8,%esp
    13f7:	8b 45 08             	mov    0x8(%ebp),%eax
    13fa:	8b 00                	mov    (%eax),%eax
    13fc:	8b 58 04             	mov    0x4(%eax),%ebx
    13ff:	68 fd 84 00 00       	push   $0x84fd
    1404:	6a 04                	push   $0x4
    1406:	6a ff                	push   $0xffffffff
    1408:	e8 73 80 00 00       	call   9480 <log_msg@plt>
    140d:	89 1c 24             	mov    %ebx,(%esp)
    1410:	e8 8b 82 00 00       	call   96a0 <fibril_rwlock_write_lock@plt>
    1415:	8b 53 40             	mov    0x40(%ebx),%edx
    1418:	4a                   	dec    %edx
    1419:	89 53 40             	mov    %edx,0x40(%ebx)
    141c:	89 1c 24             	mov    %ebx,(%esp)
    141f:	e8 8c 81 00 00       	call   95b0 <fibril_rwlock_write_unlock@plt>
    1424:	31 c0                	xor    %eax,%eax
    1426:	8b 5d fc             	mov    -0x4(%ebp),%ebx
    1429:	c9                   	leave  
    142a:	c3                   	ret    
    142b:	90                   	nop
    142c:	8d 74 26 00          	lea    0x0(%esi,%eiz,1),%esi

00001430 <vbds_bd_open>:
    1430:	55                   	push   %ebp
    1431:	89 e5                	mov    %esp,%ebp
    1433:	53                   	push   %ebx
    1434:	83 ec 08             	sub    $0x8,%esp
    1437:	8b 45 0c             	mov    0xc(%ebp),%eax
    143a:	8b 00                	mov    (%eax),%eax
    143c:	8b 58 04             	mov    0x4(%eax),%ebx
    143f:	68 0d 85 00 00       	push   $0x850d
    1444:	6a 04                	push   $0x4
    1446:	6a ff                	push   $0xffffffff
    1448:	e8 33 80 00 00       	call   9480 <log_msg@plt>
    144d:	89 1c 24             	mov    %ebx,(%esp)
    1450:	e8 4b 82 00 00       	call   96a0 <fibril_rwlock_write_lock@plt>
    1455:	8b 53 40             	mov    0x40(%ebx),%edx
    1458:	42                   	inc    %edx
    1459:	89 53 40             	mov    %edx,0x40(%ebx)
    145c:	89 1c 24             	mov    %ebx,(%esp)
    145f:	e8 4c 81 00 00       	call   95b0 <fibril_rwlock_write_unlock@plt>
    1464:	31 c0                	xor    %eax,%eax
    1466:	8b 5d fc             	mov    -0x4(%ebp),%ebx
    1469:	c9                   	leave  
    146a:	c3                   	ret    
    146b:	90                   	nop
    146c:	8d 74 26 00          	lea    0x0(%esi,%eiz,1),%esi

00001470 <vbds_part_svc_register>:
    1470:	55                   	push   %ebp
    1471:	89 e5                	mov    %esp,%ebp
    1473:	56                   	push   %esi
    1474:	53                   	push   %ebx
    1475:	89 c3                	mov    %eax,%ebx
    1477:	83 ec 20             	sub    $0x20,%esp
    147a:	8b 40 34             	mov    0x34(%eax),%eax
    147d:	8b 70 1c             	mov    0x1c(%eax),%esi
    1480:	8b 43 14             	mov    0x14(%ebx),%eax
    1483:	56                   	push   %esi
    1484:	8b 40 0c             	mov    0xc(%eax),%eax
    1487:	50                   	push   %eax
    1488:	8d 45 f0             	lea    -0x10(%ebp),%eax
    148b:	68 1c 85 00 00       	push   $0x851c
    1490:	50                   	push   %eax
    1491:	e8 7a 81 00 00       	call   9610 <asprintf@plt>
    1496:	83 c4 10             	add    $0x10,%esp
    1499:	85 c0                	test   %eax,%eax
    149b:	0f 88 07 01 00 00    	js     15a8 <vbds_part_svc_register+0x138>
    14a1:	8b 45 f0             	mov    -0x10(%ebp),%eax
    14a4:	50                   	push   %eax
    14a5:	68 31 85 00 00       	push   $0x8531
    14aa:	6a 04                	push   $0x4
    14ac:	6a ff                	push   $0xffffffff
    14ae:	e8 cd 7f 00 00       	call   9480 <log_msg@plt>
    14b3:	58                   	pop    %eax
    14b4:	8b 4d f0             	mov    -0x10(%ebp),%ecx
    14b7:	8d 45 f4             	lea    -0xc(%ebp),%eax
    14ba:	5a                   	pop    %edx
    14bb:	50                   	push   %eax
    14bc:	51                   	push   %ecx
    14bd:	e8 1e 7f 00 00       	call   93e0 <loc_service_register@plt>
    14c2:	83 c4 10             	add    $0x10,%esp
    14c5:	85 c0                	test   %eax,%eax
    14c7:	0f 85 a3 00 00 00    	jne    1570 <vbds_part_svc_register+0x100>
    14cd:	50                   	push   %eax
    14ce:	50                   	push   %eax
    14cf:	a1 30 b5 00 00       	mov    0xb530,%eax
    14d4:	50                   	push   %eax
    14d5:	8b 45 f4             	mov    -0xc(%ebp),%eax
    14d8:	50                   	push   %eax
    14d9:	e8 c2 80 00 00       	call   95a0 <loc_service_add_to_cat@plt>
    14de:	83 c4 10             	add    $0x10,%esp
    14e1:	85 c0                	test   %eax,%eax
    14e3:	75 2b                	jne    1510 <vbds_part_svc_register+0xa0>
    14e5:	83 ec 0c             	sub    $0xc,%esp
    14e8:	89 45 e4             	mov    %eax,-0x1c(%ebp)
    14eb:	8b 45 f0             	mov    -0x10(%ebp),%eax
    14ee:	50                   	push   %eax
    14ef:	e8 3c 82 00 00       	call   9730 <free@plt>
    14f4:	8b 55 f4             	mov    -0xc(%ebp),%edx
    14f7:	89 73 30             	mov    %esi,0x30(%ebx)
    14fa:	89 53 2c             	mov    %edx,0x2c(%ebx)
    14fd:	83 c4 10             	add    $0x10,%esp
    1500:	8b 45 e4             	mov    -0x1c(%ebp),%eax
    1503:	8d 65 f8             	lea    -0x8(%ebp),%esp
    1506:	5b                   	pop    %ebx
    1507:	5e                   	pop    %esi
    1508:	5d                   	pop    %ebp
    1509:	c3                   	ret    
    150a:	8d b6 00 00 00 00    	lea    0x0(%esi),%esi
    1510:	8b 4d f0             	mov    -0x10(%ebp),%ecx
    1513:	51                   	push   %ecx
    1514:	68 88 88 00 00       	push   $0x8888
    1519:	6a 01                	push   $0x1
    151b:	6a ff                	push   $0xffffffff
    151d:	e8 5e 7f 00 00       	call   9480 <log_msg@plt>
    1522:	8b 45 f0             	mov    -0x10(%ebp),%eax
    1525:	5e                   	pop    %esi
    1526:	50                   	push   %eax
    1527:	e8 04 82 00 00       	call   9730 <free@plt>
    152c:	89 1c 24             	mov    %ebx,(%esp)
    152f:	e8 fc 81 00 00       	call   9730 <free@plt>
    1534:	58                   	pop    %eax
    1535:	8b 45 f4             	mov    -0xc(%ebp),%eax
    1538:	50                   	push   %eax
    1539:	e8 32 80 00 00       	call   9570 <loc_service_unregister@plt>
    153e:	89 c2                	mov    %eax,%edx
    1540:	83 c4 10             	add    $0x10,%esp
    1543:	b8 f6 fe ff ff       	mov    $0xfffffef6,%eax
    1548:	85 d2                	test   %edx,%edx
    154a:	74 b7                	je     1503 <vbds_part_svc_register+0x93>
    154c:	52                   	push   %edx
    154d:	68 c4 88 00 00       	push   $0x88c4
    1552:	6a 01                	push   $0x1
    1554:	6a ff                	push   $0xffffffff
    1556:	89 45 e4             	mov    %eax,-0x1c(%ebp)
    1559:	e8 22 7f 00 00       	call   9480 <log_msg@plt>
    155e:	8b 45 e4             	mov    -0x1c(%ebp),%eax
    1561:	83 c4 10             	add    $0x10,%esp
    1564:	8d 65 f8             	lea    -0x8(%ebp),%esp
    1567:	5b                   	pop    %ebx
    1568:	5e                   	pop    %esi
    1569:	5d                   	pop    %ebp
    156a:	c3                   	ret    
    156b:	90                   	nop
    156c:	8d 74 26 00          	lea    0x0(%esi,%eiz,1),%esi
    1570:	83 ec 0c             	sub    $0xc,%esp
    1573:	8b 55 f0             	mov    -0x10(%ebp),%edx
    1576:	50                   	push   %eax
    1577:	52                   	push   %edx
    1578:	68 64 88 00 00       	push   $0x8864
    157d:	6a 01                	push   $0x1
    157f:	6a ff                	push   $0xffffffff
    1581:	e8 fa 7e 00 00       	call   9480 <log_msg@plt>
    1586:	83 c4 14             	add    $0x14,%esp
    1589:	8b 4d f0             	mov    -0x10(%ebp),%ecx
    158c:	51                   	push   %ecx
    158d:	e8 9e 81 00 00       	call   9730 <free@plt>
    1592:	89 1c 24             	mov    %ebx,(%esp)
    1595:	e8 96 81 00 00       	call   9730 <free@plt>
    159a:	83 c4 10             	add    $0x10,%esp
    159d:	b8 f6 fe ff ff       	mov    $0xfffffef6,%eax
    15a2:	e9 5c ff ff ff       	jmp    1503 <vbds_part_svc_register+0x93>
    15a7:	90                   	nop
    15a8:	53                   	push   %ebx
    15a9:	68 22 85 00 00       	push   $0x8522
    15ae:	6a 01                	push   $0x1
    15b0:	6a ff                	push   $0xffffffff
    15b2:	e8 c9 7e 00 00       	call   9480 <log_msg@plt>
    15b7:	83 c4 10             	add    $0x10,%esp
    15ba:	b8 fe ff ff ff       	mov    $0xfffffffe,%eax
    15bf:	e9 3f ff ff ff       	jmp    1503 <vbds_part_svc_register+0x93>
    15c4:	8d b6 00 00 00 00    	lea    0x0(%esi),%esi
    15ca:	8d bf 00 00 00 00    	lea    0x0(%edi),%edi

000015d0 <vbds_part_indices_update>:
    15d0:	55                   	push   %ebp
    15d1:	89 e5                	mov    %esp,%ebp
    15d3:	57                   	push   %edi
    15d4:	56                   	push   %esi
    15d5:	53                   	push   %ebx
    15d6:	83 ec 40             	sub    $0x40,%esp
    15d9:	89 c6                	mov    %eax,%esi
    15db:	89 45 c4             	mov    %eax,-0x3c(%ebp)
    15de:	83 c6 14             	add    $0x14,%esi
    15e1:	68 4c 85 00 00       	push   $0x854c
    15e6:	6a 04                	push   $0x4
    15e8:	6a ff                	push   $0xffffffff
    15ea:	e8 91 7e 00 00       	call   9480 <log_msg@plt>
    15ef:	c7 04 24 3c b5 00 00 	movl   $0xb53c,(%esp)
    15f6:	e8 45 81 00 00       	call   9740 <fibril_mutex_lock@plt>
    15fb:	8b 5e 04             	mov    0x4(%esi),%ebx
    15fe:	83 c4 10             	add    $0x10,%esp
    1601:	39 f3                	cmp    %esi,%ebx
    1603:	8d 7b e8             	lea    -0x18(%ebx),%edi
    1606:	0f 84 cd 00 00 00    	je     16d9 <vbds_part_indices_update+0x109>
    160c:	8d 74 26 00          	lea    0x0(%esi,%eiz,1),%esi
    1610:	83 ec 0c             	sub    $0xc,%esp
    1613:	57                   	push   %edi
    1614:	e8 87 80 00 00       	call   96a0 <fibril_rwlock_write_lock@plt>
    1619:	8b 47 2c             	mov    0x2c(%edi),%eax
    161c:	83 c4 10             	add    $0x10,%esp
    161f:	85 c0                	test   %eax,%eax
    1621:	74 49                	je     166c <vbds_part_indices_update+0x9c>
    1623:	8b 4f 34             	mov    0x34(%edi),%ecx
    1626:	8b 57 30             	mov    0x30(%edi),%edx
    1629:	39 51 1c             	cmp    %edx,0x1c(%ecx)
    162c:	74 3e                	je     166c <vbds_part_indices_update+0x9c>
    162e:	83 ec 0c             	sub    $0xc,%esp
    1631:	50                   	push   %eax
    1632:	8b 47 14             	mov    0x14(%edi),%eax
    1635:	8b 40 0c             	mov    0xc(%eax),%eax
    1638:	50                   	push   %eax
    1639:	68 f4 88 00 00       	push   $0x88f4
    163e:	6a 04                	push   $0x4
    1640:	6a ff                	push   $0xffffffff
    1642:	e8 39 7e 00 00       	call   9480 <log_msg@plt>
    1647:	83 c4 14             	add    $0x14,%esp
    164a:	8b 47 2c             	mov    0x2c(%edi),%eax
    164d:	50                   	push   %eax
    164e:	e8 1d 7f 00 00       	call   9570 <loc_service_unregister@plt>
    1653:	83 c4 10             	add    $0x10,%esp
    1656:	85 c0                	test   %eax,%eax
    1658:	0f 85 9a 00 00 00    	jne    16f8 <vbds_part_indices_update+0x128>
    165e:	c7 47 2c 00 00 00 00 	movl   $0x0,0x2c(%edi)
    1665:	c7 47 30 00 00 00 00 	movl   $0x0,0x30(%edi)
    166c:	83 ec 0c             	sub    $0xc,%esp
    166f:	57                   	push   %edi
    1670:	e8 3b 7f 00 00       	call   95b0 <fibril_rwlock_write_unlock@plt>
    1675:	8b 5b 04             	mov    0x4(%ebx),%ebx
    1678:	83 c4 10             	add    $0x10,%esp
    167b:	39 f3                	cmp    %esi,%ebx
    167d:	8d 7b e8             	lea    -0x18(%ebx),%edi
    1680:	75 8e                	jne    1610 <vbds_part_indices_update+0x40>
    1682:	8b 45 c4             	mov    -0x3c(%ebp),%eax
    1685:	8b 70 18             	mov    0x18(%eax),%esi
    1688:	39 f3                	cmp    %esi,%ebx
    168a:	8d 7e e8             	lea    -0x18(%esi),%edi
    168d:	74 4a                	je     16d9 <vbds_part_indices_update+0x109>
    168f:	90                   	nop
    1690:	83 ec 0c             	sub    $0xc,%esp
    1693:	57                   	push   %edi
    1694:	e8 07 80 00 00       	call   96a0 <fibril_rwlock_write_lock@plt>
    1699:	58                   	pop    %eax
    169a:	8b 4f 34             	mov    0x34(%edi),%ecx
    169d:	8d 45 d0             	lea    -0x30(%ebp),%eax
    16a0:	5a                   	pop    %edx
    16a1:	50                   	push   %eax
    16a2:	51                   	push   %ecx
    16a3:	e8 18 21 00 00       	call   37c0 <label_part_get_info>
    16a8:	8b 47 2c             	mov    0x2c(%edi),%eax
    16ab:	83 c4 10             	add    $0x10,%esp
    16ae:	85 c0                	test   %eax,%eax
    16b0:	75 11                	jne    16c3 <vbds_part_indices_update+0xf3>
    16b2:	83 7d d4 01          	cmpl   $0x1,-0x2c(%ebp)
    16b6:	74 0b                	je     16c3 <vbds_part_indices_update+0xf3>
    16b8:	89 f8                	mov    %edi,%eax
    16ba:	e8 b1 fd ff ff       	call   1470 <vbds_part_svc_register>
    16bf:	85 c0                	test   %eax,%eax
    16c1:	75 6b                	jne    172e <vbds_part_indices_update+0x15e>
    16c3:	83 ec 0c             	sub    $0xc,%esp
    16c6:	57                   	push   %edi
    16c7:	e8 e4 7e 00 00       	call   95b0 <fibril_rwlock_write_unlock@plt>
    16cc:	8b 76 04             	mov    0x4(%esi),%esi
    16cf:	83 c4 10             	add    $0x10,%esp
    16d2:	39 f3                	cmp    %esi,%ebx
    16d4:	8d 7e e8             	lea    -0x18(%esi),%edi
    16d7:	75 b7                	jne    1690 <vbds_part_indices_update+0xc0>
    16d9:	83 ec 0c             	sub    $0xc,%esp
    16dc:	68 3c b5 00 00       	push   $0xb53c
    16e1:	e8 7a 7e 00 00       	call   9560 <fibril_mutex_unlock@plt>
    16e6:	83 c4 10             	add    $0x10,%esp
    16e9:	8d 65 f4             	lea    -0xc(%ebp),%esp
    16ec:	31 c0                	xor    %eax,%eax
    16ee:	5b                   	pop    %ebx
    16ef:	5e                   	pop    %esi
    16f0:	5f                   	pop    %edi
    16f1:	5d                   	pop    %ebp
    16f2:	c3                   	ret    
    16f3:	90                   	nop
    16f4:	8d 74 26 00          	lea    0x0(%esi,%eiz,1),%esi
    16f8:	83 ec 0c             	sub    $0xc,%esp
    16fb:	57                   	push   %edi
    16fc:	e8 af 7e 00 00       	call   95b0 <fibril_rwlock_write_unlock@plt>
    1701:	c7 04 24 3c b5 00 00 	movl   $0xb53c,(%esp)
    1708:	e8 53 7e 00 00       	call   9560 <fibril_mutex_unlock@plt>
    170d:	83 c4 0c             	add    $0xc,%esp
    1710:	68 4c 89 00 00       	push   $0x894c
    1715:	6a 01                	push   $0x1
    1717:	6a ff                	push   $0xffffffff
    1719:	e8 62 7d 00 00       	call   9480 <log_msg@plt>
    171e:	83 c4 10             	add    $0x10,%esp
    1721:	8d 65 f4             	lea    -0xc(%ebp),%esp
    1724:	b8 f6 fe ff ff       	mov    $0xfffffef6,%eax
    1729:	5b                   	pop    %ebx
    172a:	5e                   	pop    %esi
    172b:	5f                   	pop    %edi
    172c:	5d                   	pop    %ebp
    172d:	c3                   	ret    
    172e:	83 ec 0c             	sub    $0xc,%esp
    1731:	57                   	push   %edi
    1732:	e8 79 7e 00 00       	call   95b0 <fibril_rwlock_write_unlock@plt>
    1737:	c7 04 24 3c b5 00 00 	movl   $0xb53c,(%esp)
    173e:	e8 1d 7e 00 00       	call   9560 <fibril_mutex_unlock@plt>
    1743:	83 c4 0c             	add    $0xc,%esp
    1746:	68 2c 89 00 00       	push   $0x892c
    174b:	eb c8                	jmp    1715 <vbds_part_indices_update+0x145>
    174d:	8d 76 00             	lea    0x0(%esi),%esi

00001750 <vbds_disk_parts_remove>:
    1750:	55                   	push   %ebp
    1751:	89 e5                	mov    %esp,%ebp
    1753:	57                   	push   %edi
    1754:	56                   	push   %esi
    1755:	53                   	push   %ebx
    1756:	83 ec 1c             	sub    $0x1c,%esp
    1759:	8d 58 14             	lea    0x14(%eax),%ebx
    175c:	8b 48 18             	mov    0x18(%eax),%ecx
    175f:	89 5d e4             	mov    %ebx,-0x1c(%ebp)
    1762:	39 cb                	cmp    %ecx,%ebx
    1764:	0f 84 f4 00 00 00    	je     185e <vbds_disk_parts_remove+0x10e>
    176a:	89 d6                	mov    %edx,%esi
    176c:	89 c3                	mov    %eax,%ebx
    176e:	83 e6 01             	and    $0x1,%esi
    1771:	85 c9                	test   %ecx,%ecx
    1773:	0f 84 e5 00 00 00    	je     185e <vbds_disk_parts_remove+0x10e>
    1779:	8d b4 26 00 00 00 00 	lea    0x0(%esi,%eiz,1),%esi
    1780:	8d 79 e8             	lea    -0x18(%ecx),%edi
    1783:	57                   	push   %edi
    1784:	68 67 85 00 00       	push   $0x8567
    1789:	6a 04                	push   $0x4
    178b:	6a ff                	push   $0xffffffff
    178d:	e8 ee 7c 00 00       	call   9480 <log_msg@plt>
    1792:	89 3c 24             	mov    %edi,(%esp)
    1795:	e8 06 7f 00 00       	call   96a0 <fibril_rwlock_write_lock@plt>
    179a:	83 c4 10             	add    $0x10,%esp
    179d:	85 f6                	test   %esi,%esi
    179f:	75 0b                	jne    17ac <vbds_disk_parts_remove+0x5c>
    17a1:	8b 47 40             	mov    0x40(%edi),%eax
    17a4:	85 c0                	test   %eax,%eax
    17a6:	0f 8f 1c 01 00 00    	jg     18c8 <vbds_disk_parts_remove+0x178>
    17ac:	8b 47 2c             	mov    0x2c(%edi),%eax
    17af:	85 c0                	test   %eax,%eax
    17b1:	0f 85 b1 00 00 00    	jne    1868 <vbds_disk_parts_remove+0x118>
    17b7:	8b 57 18             	mov    0x18(%edi),%edx
    17ba:	85 d2                	test   %edx,%edx
    17bc:	74 0f                	je     17cd <vbds_disk_parts_remove+0x7d>
    17be:	8b 47 1c             	mov    0x1c(%edi),%eax
    17c1:	85 c0                	test   %eax,%eax
    17c3:	74 08                	je     17cd <vbds_disk_parts_remove+0x7d>
    17c5:	89 10                	mov    %edx,(%eax)
    17c7:	8b 57 18             	mov    0x18(%edi),%edx
    17ca:	89 42 04             	mov    %eax,0x4(%edx)
    17cd:	83 ec 0c             	sub    $0xc,%esp
    17d0:	c7 47 18 00 00 00 00 	movl   $0x0,0x18(%edi)
    17d7:	c7 47 1c 00 00 00 00 	movl   $0x0,0x1c(%edi)
    17de:	68 3c b5 00 00       	push   $0xb53c
    17e3:	e8 58 7f 00 00       	call   9740 <fibril_mutex_lock@plt>
    17e8:	8b 57 20             	mov    0x20(%edi),%edx
    17eb:	83 c4 10             	add    $0x10,%esp
    17ee:	85 d2                	test   %edx,%edx
    17f0:	74 0f                	je     1801 <vbds_disk_parts_remove+0xb1>
    17f2:	8b 47 24             	mov    0x24(%edi),%eax
    17f5:	85 c0                	test   %eax,%eax
    17f7:	74 08                	je     1801 <vbds_disk_parts_remove+0xb1>
    17f9:	89 10                	mov    %edx,(%eax)
    17fb:	8b 57 20             	mov    0x20(%edi),%edx
    17fe:	89 42 04             	mov    %eax,0x4(%edx)
    1801:	83 ec 0c             	sub    $0xc,%esp
    1804:	c7 47 20 00 00 00 00 	movl   $0x0,0x20(%edi)
    180b:	c7 47 24 00 00 00 00 	movl   $0x0,0x24(%edi)
    1812:	68 3c b5 00 00       	push   $0xb53c
    1817:	e8 44 7d 00 00       	call   9560 <fibril_mutex_unlock@plt>
    181c:	83 c4 0c             	add    $0xc,%esp
    181f:	68 90 85 00 00       	push   $0x8590
    1824:	6a 05                	push   $0x5
    1826:	6a ff                	push   $0xffffffff
    1828:	e8 53 7c 00 00       	call   9480 <log_msg@plt>
    182d:	83 c8 ff             	or     $0xffffffff,%eax
    1830:	f0 0f c1 47 54       	lock xadd %eax,0x54(%edi)
    1835:	83 c4 10             	add    $0x10,%esp
    1838:	48                   	dec    %eax
    1839:	74 6d                	je     18a8 <vbds_disk_parts_remove+0x158>
    183b:	83 ec 0c             	sub    $0xc,%esp
    183e:	c7 47 34 00 00 00 00 	movl   $0x0,0x34(%edi)
    1845:	57                   	push   %edi
    1846:	e8 65 7d 00 00       	call   95b0 <fibril_rwlock_write_unlock@plt>
    184b:	8b 4b 18             	mov    0x18(%ebx),%ecx
    184e:	83 c4 10             	add    $0x10,%esp
    1851:	39 4d e4             	cmp    %ecx,-0x1c(%ebp)
    1854:	74 08                	je     185e <vbds_disk_parts_remove+0x10e>
    1856:	85 c9                	test   %ecx,%ecx
    1858:	0f 85 22 ff ff ff    	jne    1780 <vbds_disk_parts_remove+0x30>
    185e:	8d 65 f4             	lea    -0xc(%ebp),%esp
    1861:	31 c0                	xor    %eax,%eax
    1863:	5b                   	pop    %ebx
    1864:	5e                   	pop    %esi
    1865:	5f                   	pop    %edi
    1866:	5d                   	pop    %ebp
    1867:	c3                   	ret    
    1868:	83 ec 0c             	sub    $0xc,%esp
    186b:	50                   	push   %eax
    186c:	8b 47 14             	mov    0x14(%edi),%eax
    186f:	8b 50 0c             	mov    0xc(%eax),%edx
    1872:	52                   	push   %edx
    1873:	68 f4 88 00 00       	push   $0x88f4
    1878:	6a 04                	push   $0x4
    187a:	6a ff                	push   $0xffffffff
    187c:	e8 ff 7b 00 00       	call   9480 <log_msg@plt>
    1881:	83 c4 14             	add    $0x14,%esp
    1884:	8b 4f 2c             	mov    0x2c(%edi),%ecx
    1887:	51                   	push   %ecx
    1888:	e8 e3 7c 00 00       	call   9570 <loc_service_unregister@plt>
    188d:	83 c4 10             	add    $0x10,%esp
    1890:	85 c0                	test   %eax,%eax
    1892:	75 64                	jne    18f8 <vbds_disk_parts_remove+0x1a8>
    1894:	c7 47 2c 00 00 00 00 	movl   $0x0,0x2c(%edi)
    189b:	c7 47 30 00 00 00 00 	movl   $0x0,0x30(%edi)
    18a2:	e9 10 ff ff ff       	jmp    17b7 <vbds_disk_parts_remove+0x67>
    18a7:	90                   	nop
    18a8:	50                   	push   %eax
    18a9:	68 a2 85 00 00       	push   $0x85a2
    18ae:	6a 05                	push   $0x5
    18b0:	6a ff                	push   $0xffffffff
    18b2:	e8 c9 7b 00 00       	call   9480 <log_msg@plt>
    18b7:	89 3c 24             	mov    %edi,(%esp)
    18ba:	e8 71 7e 00 00       	call   9730 <free@plt>
    18bf:	83 c4 10             	add    $0x10,%esp
    18c2:	e9 74 ff ff ff       	jmp    183b <vbds_disk_parts_remove+0xeb>
    18c7:	90                   	nop
    18c8:	83 ec 0c             	sub    $0xc,%esp
    18cb:	57                   	push   %edi
    18cc:	e8 df 7c 00 00       	call   95b0 <fibril_rwlock_write_unlock@plt>
    18d1:	8b 5f 40             	mov    0x40(%edi),%ebx
    18d4:	53                   	push   %ebx
    18d5:	68 7c 85 00 00       	push   $0x857c
    18da:	6a 04                	push   $0x4
    18dc:	6a ff                	push   $0xffffffff
    18de:	e8 9d 7b 00 00       	call   9480 <log_msg@plt>
    18e3:	83 c4 20             	add    $0x20,%esp
    18e6:	8d 65 f4             	lea    -0xc(%ebp),%esp
    18e9:	b8 f1 ff ff ff       	mov    $0xfffffff1,%eax
    18ee:	5b                   	pop    %ebx
    18ef:	5e                   	pop    %esi
    18f0:	5f                   	pop    %edi
    18f1:	5d                   	pop    %ebp
    18f2:	c3                   	ret    
    18f3:	90                   	nop
    18f4:	8d 74 26 00          	lea    0x0(%esi,%eiz,1),%esi
    18f8:	83 ec 0c             	sub    $0xc,%esp
    18fb:	57                   	push   %edi
    18fc:	e8 af 7c 00 00       	call   95b0 <fibril_rwlock_write_unlock@plt>
    1901:	83 c4 10             	add    $0x10,%esp
    1904:	8d 65 f4             	lea    -0xc(%ebp),%esp
    1907:	b8 f6 fe ff ff       	mov    $0xfffffef6,%eax
    190c:	5b                   	pop    %ebx
    190d:	5e                   	pop    %esi
    190e:	5f                   	pop    %edi
    190f:	5d                   	pop    %ebp
    1910:	c3                   	ret    
    1911:	eb 0d                	jmp    1920 <vbds_disk_parts_add>
    1913:	90                   	nop
    1914:	90                   	nop
    1915:	90                   	nop
    1916:	90                   	nop
    1917:	90                   	nop
    1918:	90                   	nop
    1919:	90                   	nop
    191a:	90                   	nop
    191b:	90                   	nop
    191c:	90                   	nop
    191d:	90                   	nop
    191e:	90                   	nop
    191f:	90                   	nop

00001920 <vbds_disk_parts_add>:
    1920:	55                   	push   %ebp
    1921:	89 e5                	mov    %esp,%ebp
    1923:	57                   	push   %edi
    1924:	56                   	push   %esi
    1925:	53                   	push   %ebx
    1926:	83 ec 48             	sub    $0x48,%esp
    1929:	89 c6                	mov    %eax,%esi
    192b:	52                   	push   %edx
    192c:	e8 6f 1e 00 00       	call   37a0 <label_part_first>
    1931:	89 c3                	mov    %eax,%ebx
    1933:	8d 46 14             	lea    0x14(%esi),%eax
    1936:	83 c4 10             	add    $0x10,%esp
    1939:	89 45 c4             	mov    %eax,-0x3c(%ebp)
    193c:	85 db                	test   %ebx,%ebx
    193e:	0f 84 19 01 00 00    	je     1a5d <vbds_disk_parts_add+0x13d>
    1944:	8d 74 26 00          	lea    0x0(%esi,%eiz,1),%esi
    1948:	83 ec 0c             	sub    $0xc,%esp
    194b:	8b 4e 0c             	mov    0xc(%esi),%ecx
    194e:	53                   	push   %ebx
    194f:	51                   	push   %ecx
    1950:	68 af 85 00 00       	push   $0x85af
    1955:	6a 04                	push   $0x4
    1957:	6a ff                	push   $0xffffffff
    1959:	e8 22 7b 00 00       	call   9480 <log_msg@plt>
    195e:	83 c4 18             	add    $0x18,%esp
    1961:	8d 45 d0             	lea    -0x30(%ebp),%eax
    1964:	50                   	push   %eax
    1965:	53                   	push   %ebx
    1966:	e8 55 1e 00 00       	call   37c0 <label_part_get_info>
    196b:	5f                   	pop    %edi
    196c:	58                   	pop    %eax
    196d:	6a 58                	push   $0x58
    196f:	6a 01                	push   $0x1
    1971:	e8 9a 7b 00 00       	call   9510 <calloc@plt>
    1976:	83 c4 10             	add    $0x10,%esp
    1979:	89 c7                	mov    %eax,%edi
    197b:	85 c0                	test   %eax,%eax
    197d:	0f 84 19 01 00 00    	je     1a9c <vbds_disk_parts_add+0x17c>
    1983:	83 ec 0c             	sub    $0xc,%esp
    1986:	50                   	push   %eax
    1987:	e8 34 7d 00 00       	call   96c0 <fibril_rwlock_initialize@plt>
    198c:	a1 20 b3 00 00       	mov    0xb320,%eax
    1991:	8b 55 dc             	mov    -0x24(%ebp),%edx
    1994:	40                   	inc    %eax
    1995:	89 57 48             	mov    %edx,0x48(%edi)
    1998:	89 47 28             	mov    %eax,0x28(%edi)
    199b:	a3 20 b3 00 00       	mov    %eax,0xb320
    19a0:	8b 45 d8             	mov    -0x28(%ebp),%eax
    19a3:	8b 55 e4             	mov    -0x1c(%ebp),%edx
    19a6:	89 47 44             	mov    %eax,0x44(%edi)
    19a9:	8b 45 e0             	mov    -0x20(%ebp),%eax
    19ac:	89 47 4c             	mov    %eax,0x4c(%edi)
    19af:	89 5f 34             	mov    %ebx,0x34(%edi)
    19b2:	89 77 14             	mov    %esi,0x14(%edi)
    19b5:	c7 47 2c 00 00 00 00 	movl   $0x0,0x2c(%edi)
    19bc:	89 57 50             	mov    %edx,0x50(%edi)
    19bf:	c7 47 54 01 00 00 00 	movl   $0x1,0x54(%edi)
    19c6:	8d 47 38             	lea    0x38(%edi),%eax
    19c9:	89 04 24             	mov    %eax,(%esp)
    19cc:	e8 7f 7b 00 00       	call   9550 <bd_srvs_init@plt>
    19d1:	83 c4 10             	add    $0x10,%esp
    19d4:	c7 47 38 00 b3 00 00 	movl   $0xb300,0x38(%edi)
    19db:	89 7f 3c             	mov    %edi,0x3c(%edi)
    19de:	83 7d d4 01          	cmpl   $0x1,-0x2c(%ebp)
    19e2:	74 0b                	je     19ef <vbds_disk_parts_add+0xcf>
    19e4:	89 f8                	mov    %edi,%eax
    19e6:	e8 85 fa ff ff       	call   1470 <vbds_part_svc_register>
    19eb:	85 c0                	test   %eax,%eax
    19ed:	75 79                	jne    1a68 <vbds_disk_parts_add+0x148>
    19ef:	8b 4e 14             	mov    0x14(%esi),%ecx
    19f2:	83 ec 0c             	sub    $0xc,%esp
    19f5:	8b 55 c4             	mov    -0x3c(%ebp),%edx
    19f8:	8d 47 18             	lea    0x18(%edi),%eax
    19fb:	89 57 1c             	mov    %edx,0x1c(%edi)
    19fe:	89 4f 18             	mov    %ecx,0x18(%edi)
    1a01:	89 41 04             	mov    %eax,0x4(%ecx)
    1a04:	89 46 14             	mov    %eax,0x14(%esi)
    1a07:	68 3c b5 00 00       	push   $0xb53c
    1a0c:	e8 2f 7d 00 00       	call   9740 <fibril_mutex_lock@plt>
    1a11:	8b 0d 34 b5 00 00    	mov    0xb534,%ecx
    1a17:	8d 47 20             	lea    0x20(%edi),%eax
    1a1a:	89 4f 20             	mov    %ecx,0x20(%edi)
    1a1d:	c7 47 24 34 b5 00 00 	movl   $0xb534,0x24(%edi)
    1a24:	89 41 04             	mov    %eax,0x4(%ecx)
    1a27:	a3 34 b5 00 00       	mov    %eax,0xb534
    1a2c:	c7 04 24 3c b5 00 00 	movl   $0xb53c,(%esp)
    1a33:	e8 28 7b 00 00       	call   9560 <fibril_mutex_unlock@plt>
    1a38:	57                   	push   %edi
    1a39:	68 c5 85 00 00       	push   $0x85c5
    1a3e:	6a 04                	push   $0x4
    1a40:	6a ff                	push   $0xffffffff
    1a42:	e8 39 7a 00 00       	call   9480 <log_msg@plt>
    1a47:	83 c4 14             	add    $0x14,%esp
    1a4a:	53                   	push   %ebx
    1a4b:	e8 60 1d 00 00       	call   37b0 <label_part_next>
    1a50:	83 c4 10             	add    $0x10,%esp
    1a53:	89 c3                	mov    %eax,%ebx
    1a55:	85 c0                	test   %eax,%eax
    1a57:	0f 85 eb fe ff ff    	jne    1948 <vbds_disk_parts_add+0x28>
    1a5d:	8d 65 f4             	lea    -0xc(%ebp),%esp
    1a60:	31 c0                	xor    %eax,%eax
    1a62:	5b                   	pop    %ebx
    1a63:	5e                   	pop    %esi
    1a64:	5f                   	pop    %edi
    1a65:	5d                   	pop    %ebp
    1a66:	c3                   	ret    
    1a67:	90                   	nop
    1a68:	83 ec 0c             	sub    $0xc,%esp
    1a6b:	57                   	push   %edi
    1a6c:	e8 bf 7c 00 00       	call   9730 <free@plt>
    1a71:	83 c4 10             	add    $0x10,%esp
    1a74:	b8 f6 fe ff ff       	mov    $0xfffffef6,%eax
    1a79:	89 45 c4             	mov    %eax,-0x3c(%ebp)
    1a7c:	8b 46 0c             	mov    0xc(%esi),%eax
    1a7f:	50                   	push   %eax
    1a80:	68 6c 89 00 00       	push   $0x896c
    1a85:	6a 01                	push   $0x1
    1a87:	6a ff                	push   $0xffffffff
    1a89:	e8 f2 79 00 00       	call   9480 <log_msg@plt>
    1a8e:	8b 45 c4             	mov    -0x3c(%ebp),%eax
    1a91:	83 c4 10             	add    $0x10,%esp
    1a94:	8d 65 f4             	lea    -0xc(%ebp),%esp
    1a97:	5b                   	pop    %ebx
    1a98:	5e                   	pop    %esi
    1a99:	5f                   	pop    %edi
    1a9a:	5d                   	pop    %ebp
    1a9b:	c3                   	ret    
    1a9c:	52                   	push   %edx
    1a9d:	68 22 85 00 00       	push   $0x8522
    1aa2:	6a 01                	push   $0x1
    1aa4:	6a ff                	push   $0xffffffff
    1aa6:	e8 d5 79 00 00       	call   9480 <log_msg@plt>
    1aab:	83 c4 10             	add    $0x10,%esp
    1aae:	b8 fe ff ff ff       	mov    $0xfffffffe,%eax
    1ab3:	eb c4                	jmp    1a79 <vbds_disk_parts_add+0x159>
    1ab5:	8d 74 26 00          	lea    0x0(%esi,%eiz,1),%esi
    1ab9:	8d bc 27 00 00 00 00 	lea    0x0(%edi,%eiz,1),%edi

00001ac0 <vbds_disks_init>:
    1ac0:	55                   	push   %ebp
    1ac1:	89 e5                	mov    %esp,%ebp
    1ac3:	83 ec 14             	sub    $0x14,%esp
    1ac6:	68 54 b5 00 00       	push   $0xb554
    1acb:	e8 b0 7a 00 00       	call   9580 <fibril_mutex_initialize@plt>
    1ad0:	c7 04 24 3c b5 00 00 	movl   $0xb53c,(%esp)
    1ad7:	c7 05 4c b5 00 00 4c 	movl   $0xb54c,0xb54c
    1ade:	b5 00 00 
    1ae1:	c7 05 50 b5 00 00 4c 	movl   $0xb54c,0xb550
    1ae8:	b5 00 00 
    1aeb:	e8 90 7a 00 00       	call   9580 <fibril_mutex_initialize@plt>
    1af0:	83 c4 0c             	add    $0xc,%esp
    1af3:	c7 05 34 b5 00 00 34 	movl   $0xb534,0xb534
    1afa:	b5 00 00 
    1afd:	c7 05 38 b5 00 00 34 	movl   $0xb534,0xb538
    1b04:	b5 00 00 
    1b07:	6a 00                	push   $0x0
    1b09:	68 30 b5 00 00       	push   $0xb530
    1b0e:	68 c8 87 00 00       	push   $0x87c8
    1b13:	e8 38 78 00 00       	call   9350 <loc_category_get_id@plt>
    1b18:	83 c4 10             	add    $0x10,%esp
    1b1b:	85 c0                	test   %eax,%eax
    1b1d:	75 09                	jne    1b28 <vbds_disks_init+0x68>
    1b1f:	c9                   	leave  
    1b20:	c3                   	ret    
    1b21:	8d b4 26 00 00 00 00 	lea    0x0(%esi,%eiz,1),%esi
    1b28:	50                   	push   %eax
    1b29:	68 90 89 00 00       	push   $0x8990
    1b2e:	6a 01                	push   $0x1
    1b30:	6a ff                	push   $0xffffffff
    1b32:	e8 49 79 00 00       	call   9480 <log_msg@plt>
    1b37:	83 c4 10             	add    $0x10,%esp
    1b3a:	b8 f6 fe ff ff       	mov    $0xfffffef6,%eax
    1b3f:	c9                   	leave  
    1b40:	c3                   	ret    
    1b41:	eb 0d                	jmp    1b50 <vbds_disk_add>
    1b43:	90                   	nop
    1b44:	90                   	nop
    1b45:	90                   	nop
    1b46:	90                   	nop
    1b47:	90                   	nop
    1b48:	90                   	nop
    1b49:	90                   	nop
    1b4a:	90                   	nop
    1b4b:	90                   	nop
    1b4c:	90                   	nop
    1b4d:	90                   	nop
    1b4e:	90                   	nop
    1b4f:	90                   	nop

00001b50 <vbds_disk_add>:
    1b50:	55                   	push   %ebp
    1b51:	89 e5                	mov    %esp,%ebp
    1b53:	57                   	push   %edi
    1b54:	56                   	push   %esi
    1b55:	53                   	push   %ebx
    1b56:	83 ec 1c             	sub    $0x1c,%esp
    1b59:	c7 45 d8 00 00 00 00 	movl   $0x0,-0x28(%ebp)
    1b60:	8b 7d 08             	mov    0x8(%ebp),%edi
    1b63:	57                   	push   %edi
    1b64:	68 d9 85 00 00       	push   $0x85d9
    1b69:	6a 04                	push   $0x4
    1b6b:	6a ff                	push   $0xffffffff
    1b6d:	e8 0e 79 00 00       	call   9480 <log_msg@plt>
    1b72:	a1 50 b5 00 00       	mov    0xb550,%eax
    1b77:	83 c4 10             	add    $0x10,%esp
    1b7a:	3d 4c b5 00 00       	cmp    $0xb54c,%eax
    1b7f:	75 11                	jne    1b92 <vbds_disk_add+0x42>
    1b81:	eb 25                	jmp    1ba8 <vbds_disk_add+0x58>
    1b83:	90                   	nop
    1b84:	8d 74 26 00          	lea    0x0(%esi,%eiz,1),%esi
    1b88:	8b 40 04             	mov    0x4(%eax),%eax
    1b8b:	3d 4c b5 00 00       	cmp    $0xb54c,%eax
    1b90:	74 16                	je     1ba8 <vbds_disk_add+0x58>
    1b92:	3b 78 08             	cmp    0x8(%eax),%edi
    1b95:	75 f1                	jne    1b88 <vbds_disk_add+0x38>
    1b97:	be f7 ff ff ff       	mov    $0xfffffff7,%esi
    1b9c:	8d 65 f4             	lea    -0xc(%ebp),%esp
    1b9f:	89 f0                	mov    %esi,%eax
    1ba1:	5b                   	pop    %ebx
    1ba2:	5e                   	pop    %esi
    1ba3:	5f                   	pop    %edi
    1ba4:	5d                   	pop    %ebp
    1ba5:	c3                   	ret    
    1ba6:	66 90                	xchg   %ax,%ax
    1ba8:	50                   	push   %eax
    1ba9:	50                   	push   %eax
    1baa:	6a 2c                	push   $0x2c
    1bac:	6a 01                	push   $0x1
    1bae:	e8 5d 79 00 00       	call   9510 <calloc@plt>
    1bb3:	83 c4 10             	add    $0x10,%esp
    1bb6:	89 c3                	mov    %eax,%ebx
    1bb8:	85 c0                	test   %eax,%eax
    1bba:	0f 84 ab 01 00 00    	je     1d6b <vbds_disk_add+0x21b>
    1bc0:	50                   	push   %eax
    1bc1:	50                   	push   %eax
    1bc2:	8d 43 0c             	lea    0xc(%ebx),%eax
    1bc5:	50                   	push   %eax
    1bc6:	57                   	push   %edi
    1bc7:	e8 24 79 00 00       	call   94f0 <loc_service_get_name@plt>
    1bcc:	83 c4 10             	add    $0x10,%esp
    1bcf:	85 c0                	test   %eax,%eax
    1bd1:	0f 85 2c 01 00 00    	jne    1d03 <vbds_disk_add+0x1b3>
    1bd7:	57                   	push   %edi
    1bd8:	68 ec 85 00 00       	push   $0x85ec
    1bdd:	6a 04                	push   $0x4
    1bdf:	6a ff                	push   $0xffffffff
    1be1:	e8 9a 78 00 00       	call   9480 <log_msg@plt>
    1be6:	5e                   	pop    %esi
    1be7:	58                   	pop    %eax
    1be8:	68 00 08 00 00       	push   $0x800
    1bed:	57                   	push   %edi
    1bee:	e8 1d 50 00 00       	call   6c10 <block_init>
    1bf3:	83 c4 10             	add    $0x10,%esp
    1bf6:	85 c0                	test   %eax,%eax
    1bf8:	0f 85 28 01 00 00    	jne    1d26 <vbds_disk_add+0x1d6>
    1bfe:	8d 45 dc             	lea    -0x24(%ebp),%eax
    1c01:	52                   	push   %edx
    1c02:	52                   	push   %edx
    1c03:	50                   	push   %eax
    1c04:	57                   	push   %edi
    1c05:	e8 66 64 00 00       	call   8070 <block_get_bsize>
    1c0a:	83 c4 10             	add    $0x10,%esp
    1c0d:	85 c0                	test   %eax,%eax
    1c0f:	0f 85 28 01 00 00    	jne    1d3d <vbds_disk_add+0x1ed>
    1c15:	50                   	push   %eax
    1c16:	50                   	push   %eax
    1c17:	8d 45 e0             	lea    -0x20(%ebp),%eax
    1c1a:	50                   	push   %eax
    1c1b:	57                   	push   %edi
    1c1c:	e8 df 64 00 00       	call   8100 <block_get_nblocks>
    1c21:	83 c4 10             	add    $0x10,%esp
    1c24:	85 c0                	test   %eax,%eax
    1c26:	0f 85 28 01 00 00    	jne    1d54 <vbds_disk_add+0x204>
    1c2c:	50                   	push   %eax
    1c2d:	50                   	push   %eax
    1c2e:	8d 45 d8             	lea    -0x28(%ebp),%eax
    1c31:	50                   	push   %eax
    1c32:	57                   	push   %edi
    1c33:	e8 78 1a 00 00       	call   36b0 <label_open>
    1c38:	83 c4 10             	add    $0x10,%esp
    1c3b:	89 c6                	mov    %eax,%esi
    1c3d:	85 c0                	test   %eax,%eax
    1c3f:	75 65                	jne    1ca6 <vbds_disk_add+0x156>
    1c41:	8b 45 d8             	mov    -0x28(%ebp),%eax
    1c44:	8b 55 e4             	mov    -0x1c(%ebp),%edx
    1c47:	89 43 10             	mov    %eax,0x10(%ebx)
    1c4a:	8b 45 dc             	mov    -0x24(%ebp),%eax
    1c4d:	89 43 1c             	mov    %eax,0x1c(%ebx)
    1c50:	8b 45 e0             	mov    -0x20(%ebp),%eax
    1c53:	89 43 20             	mov    %eax,0x20(%ebx)
    1c56:	8d 43 14             	lea    0x14(%ebx),%eax
    1c59:	89 43 14             	mov    %eax,0x14(%ebx)
    1c5c:	89 43 18             	mov    %eax,0x18(%ebx)
    1c5f:	a1 4c b5 00 00       	mov    0xb54c,%eax
    1c64:	89 7b 08             	mov    %edi,0x8(%ebx)
    1c67:	89 53 24             	mov    %edx,0x24(%ebx)
    1c6a:	89 03                	mov    %eax,(%ebx)
    1c6c:	c6 43 28 01          	movb   $0x1,0x28(%ebx)
    1c70:	c7 43 04 4c b5 00 00 	movl   $0xb54c,0x4(%ebx)
    1c77:	89 58 04             	mov    %ebx,0x4(%eax)
    1c7a:	89 1d 4c b5 00 00    	mov    %ebx,0xb54c
    1c80:	51                   	push   %ecx
    1c81:	68 6c 8a 00 00       	push   $0x8a6c
    1c86:	6a 03                	push   $0x3
    1c88:	6a ff                	push   $0xffffffff
    1c8a:	e8 f1 77 00 00       	call   9480 <log_msg@plt>
    1c8f:	8b 55 d8             	mov    -0x28(%ebp),%edx
    1c92:	89 d8                	mov    %ebx,%eax
    1c94:	e8 87 fc ff ff       	call   1920 <vbds_disk_parts_add>
    1c99:	83 c4 10             	add    $0x10,%esp
    1c9c:	8d 65 f4             	lea    -0xc(%ebp),%esp
    1c9f:	89 f0                	mov    %esi,%eax
    1ca1:	5b                   	pop    %ebx
    1ca2:	5e                   	pop    %esi
    1ca3:	5f                   	pop    %edi
    1ca4:	5d                   	pop    %ebp
    1ca5:	c3                   	ret    
    1ca6:	8b 73 0c             	mov    0xc(%ebx),%esi
    1ca9:	56                   	push   %esi
    1caa:	68 48 8a 00 00       	push   $0x8a48
    1caf:	6a 01                	push   $0x1
    1cb1:	6a ff                	push   $0xffffffff
    1cb3:	e8 c8 77 00 00       	call   9480 <log_msg@plt>
    1cb8:	58                   	pop    %eax
    1cb9:	8b 45 d8             	mov    -0x28(%ebp),%eax
    1cbc:	50                   	push   %eax
    1cbd:	e8 9e 1a 00 00       	call   3760 <label_close>
    1cc2:	57                   	push   %edi
    1cc3:	68 fc 85 00 00       	push   $0x85fc
    1cc8:	6a 04                	push   $0x4
    1cca:	6a ff                	push   $0xffffffff
    1ccc:	e8 af 77 00 00       	call   9480 <log_msg@plt>
    1cd1:	83 c4 14             	add    $0x14,%esp
    1cd4:	57                   	push   %edi
    1cd5:	e8 c6 55 00 00       	call   72a0 <block_fini>
    1cda:	83 c4 10             	add    $0x10,%esp
    1cdd:	83 ec 0c             	sub    $0xc,%esp
    1ce0:	8b 53 0c             	mov    0xc(%ebx),%edx
    1ce3:	be f6 fe ff ff       	mov    $0xfffffef6,%esi
    1ce8:	52                   	push   %edx
    1ce9:	e8 42 7a 00 00       	call   9730 <free@plt>
    1cee:	89 1c 24             	mov    %ebx,(%esp)
    1cf1:	e8 3a 7a 00 00       	call   9730 <free@plt>
    1cf6:	83 c4 10             	add    $0x10,%esp
    1cf9:	8d 65 f4             	lea    -0xc(%ebp),%esp
    1cfc:	89 f0                	mov    %esi,%eax
    1cfe:	5b                   	pop    %ebx
    1cff:	5e                   	pop    %esi
    1d00:	5f                   	pop    %edi
    1d01:	5d                   	pop    %ebp
    1d02:	c3                   	ret    
    1d03:	50                   	push   %eax
    1d04:	68 b8 89 00 00       	push   $0x89b8
    1d09:	6a 01                	push   $0x1
    1d0b:	6a ff                	push   $0xffffffff
    1d0d:	e8 6e 77 00 00       	call   9480 <log_msg@plt>
    1d12:	83 c4 10             	add    $0x10,%esp
    1d15:	83 ec 0c             	sub    $0xc,%esp
    1d18:	8b 45 d8             	mov    -0x28(%ebp),%eax
    1d1b:	50                   	push   %eax
    1d1c:	e8 3f 1a 00 00       	call   3760 <label_close>
    1d21:	83 c4 10             	add    $0x10,%esp
    1d24:	eb b7                	jmp    1cdd <vbds_disk_add+0x18d>
    1d26:	8b 4b 0c             	mov    0xc(%ebx),%ecx
    1d29:	51                   	push   %ecx
    1d2a:	68 dc 89 00 00       	push   $0x89dc
    1d2f:	6a 01                	push   $0x1
    1d31:	6a ff                	push   $0xffffffff
    1d33:	e8 48 77 00 00       	call   9480 <log_msg@plt>
    1d38:	83 c4 10             	add    $0x10,%esp
    1d3b:	eb d8                	jmp    1d15 <vbds_disk_add+0x1c5>
    1d3d:	8b 43 0c             	mov    0xc(%ebx),%eax
    1d40:	50                   	push   %eax
    1d41:	68 fc 89 00 00       	push   $0x89fc
    1d46:	6a 01                	push   $0x1
    1d48:	6a ff                	push   $0xffffffff
    1d4a:	e8 31 77 00 00       	call   9480 <log_msg@plt>
    1d4f:	83 c4 10             	add    $0x10,%esp
    1d52:	eb c1                	jmp    1d15 <vbds_disk_add+0x1c5>
    1d54:	8b 43 0c             	mov    0xc(%ebx),%eax
    1d57:	50                   	push   %eax
    1d58:	68 20 8a 00 00       	push   $0x8a20
    1d5d:	6a 01                	push   $0x1
    1d5f:	6a ff                	push   $0xffffffff
    1d61:	e8 1a 77 00 00       	call   9480 <log_msg@plt>
    1d66:	83 c4 10             	add    $0x10,%esp
    1d69:	eb aa                	jmp    1d15 <vbds_disk_add+0x1c5>
    1d6b:	be fe ff ff ff       	mov    $0xfffffffe,%esi
    1d70:	e9 27 fe ff ff       	jmp    1b9c <vbds_disk_add+0x4c>
    1d75:	8d 74 26 00          	lea    0x0(%esi,%eiz,1),%esi
    1d79:	8d bc 27 00 00 00 00 	lea    0x0(%edi,%eiz,1),%edi

00001d80 <vbds_disk_remove>:
    1d80:	55                   	push   %ebp
    1d81:	89 e5                	mov    %esp,%ebp
    1d83:	56                   	push   %esi
    1d84:	53                   	push   %ebx
    1d85:	83 ec 10             	sub    $0x10,%esp
    1d88:	8b 75 08             	mov    0x8(%ebp),%esi
    1d8b:	56                   	push   %esi
    1d8c:	68 0c 86 00 00       	push   $0x860c
    1d91:	6a 04                	push   $0x4
    1d93:	6a ff                	push   $0xffffffff
    1d95:	e8 e6 76 00 00       	call   9480 <log_msg@plt>
    1d9a:	8b 1d 50 b5 00 00    	mov    0xb550,%ebx
    1da0:	83 c4 10             	add    $0x10,%esp
    1da3:	81 fb 4c b5 00 00    	cmp    $0xb54c,%ebx
    1da9:	75 10                	jne    1dbb <vbds_disk_remove+0x3b>
    1dab:	e9 80 00 00 00       	jmp    1e30 <vbds_disk_remove+0xb0>
    1db0:	8b 5b 04             	mov    0x4(%ebx),%ebx
    1db3:	81 fb 4c b5 00 00    	cmp    $0xb54c,%ebx
    1db9:	74 75                	je     1e30 <vbds_disk_remove+0xb0>
    1dbb:	3b 73 08             	cmp    0x8(%ebx),%esi
    1dbe:	75 f0                	jne    1db0 <vbds_disk_remove+0x30>
    1dc0:	ba 01 00 00 00       	mov    $0x1,%edx
    1dc5:	89 d8                	mov    %ebx,%eax
    1dc7:	e8 84 f9 ff ff       	call   1750 <vbds_disk_parts_remove>
    1dcc:	85 c0                	test   %eax,%eax
    1dce:	75 6a                	jne    1e3a <vbds_disk_remove+0xba>
    1dd0:	8b 0b                	mov    (%ebx),%ecx
    1dd2:	85 c9                	test   %ecx,%ecx
    1dd4:	74 0e                	je     1de4 <vbds_disk_remove+0x64>
    1dd6:	8b 53 04             	mov    0x4(%ebx),%edx
    1dd9:	85 d2                	test   %edx,%edx
    1ddb:	74 07                	je     1de4 <vbds_disk_remove+0x64>
    1ddd:	89 0a                	mov    %ecx,(%edx)
    1ddf:	8b 0b                	mov    (%ebx),%ecx
    1de1:	89 51 04             	mov    %edx,0x4(%ecx)
    1de4:	83 ec 0c             	sub    $0xc,%esp
    1de7:	89 45 f4             	mov    %eax,-0xc(%ebp)
    1dea:	c7 03 00 00 00 00    	movl   $0x0,(%ebx)
    1df0:	8b 43 10             	mov    0x10(%ebx),%eax
    1df3:	c7 43 04 00 00 00 00 	movl   $0x0,0x4(%ebx)
    1dfa:	50                   	push   %eax
    1dfb:	e8 60 19 00 00       	call   3760 <label_close>
    1e00:	56                   	push   %esi
    1e01:	68 fc 85 00 00       	push   $0x85fc
    1e06:	6a 04                	push   $0x4
    1e08:	6a ff                	push   $0xffffffff
    1e0a:	e8 71 76 00 00       	call   9480 <log_msg@plt>
    1e0f:	83 c4 14             	add    $0x14,%esp
    1e12:	56                   	push   %esi
    1e13:	e8 88 54 00 00       	call   72a0 <block_fini>
    1e18:	89 1c 24             	mov    %ebx,(%esp)
    1e1b:	e8 10 79 00 00       	call   9730 <free@plt>
    1e20:	8b 45 f4             	mov    -0xc(%ebp),%eax
    1e23:	83 c4 10             	add    $0x10,%esp
    1e26:	8d 65 f8             	lea    -0x8(%ebp),%esp
    1e29:	5b                   	pop    %ebx
    1e2a:	5e                   	pop    %esi
    1e2b:	5d                   	pop    %ebp
    1e2c:	c3                   	ret    
    1e2d:	8d 76 00             	lea    0x0(%esi),%esi
    1e30:	83 c8 ff             	or     $0xffffffff,%eax
    1e33:	8d 65 f8             	lea    -0x8(%ebp),%esp
    1e36:	5b                   	pop    %ebx
    1e37:	5e                   	pop    %esi
    1e38:	5d                   	pop    %ebp
    1e39:	c3                   	ret    
    1e3a:	52                   	push   %edx
    1e3b:	68 22 86 00 00       	push   $0x8622
    1e40:	6a 01                	push   $0x1
    1e42:	6a ff                	push   $0xffffffff
    1e44:	89 45 f4             	mov    %eax,-0xc(%ebp)
    1e47:	e8 34 76 00 00       	call   9480 <log_msg@plt>
    1e4c:	83 c4 10             	add    $0x10,%esp
    1e4f:	8b 45 f4             	mov    -0xc(%ebp),%eax
    1e52:	eb df                	jmp    1e33 <vbds_disk_remove+0xb3>
    1e54:	8d b6 00 00 00 00    	lea    0x0(%esi),%esi
    1e5a:	8d bf 00 00 00 00    	lea    0x0(%edi),%edi

00001e60 <vbds_disks_check_new>:
    1e60:	55                   	push   %ebp
    1e61:	89 e5                	mov    %esp,%ebp
    1e63:	57                   	push   %edi
    1e64:	56                   	push   %esi
    1e65:	53                   	push   %ebx
    1e66:	83 ec 20             	sub    $0x20,%esp
    1e69:	68 38 86 00 00       	push   $0x8638
    1e6e:	6a 04                	push   $0x4
    1e70:	6a ff                	push   $0xffffffff
    1e72:	e8 09 76 00 00       	call   9480 <log_msg@plt>
    1e77:	c7 04 24 54 b5 00 00 	movl   $0xb554,(%esp)
    1e7e:	e8 bd 78 00 00       	call   9740 <fibril_mutex_lock@plt>
    1e83:	83 c4 0c             	add    $0xc,%esp
    1e86:	8d 45 dc             	lea    -0x24(%ebp),%eax
    1e89:	6a 01                	push   $0x1
    1e8b:	50                   	push   %eax
    1e8c:	68 4f 86 00 00       	push   $0x864f
    1e91:	e8 ba 74 00 00       	call   9350 <loc_category_get_id@plt>
    1e96:	83 c4 10             	add    $0x10,%esp
    1e99:	85 c0                	test   %eax,%eax
    1e9b:	0f 85 dd 01 00 00    	jne    207e <vbds_disks_check_new+0x21e>
    1ea1:	8d 45 e4             	lea    -0x1c(%ebp),%eax
    1ea4:	8b 7d dc             	mov    -0x24(%ebp),%edi
    1ea7:	56                   	push   %esi
    1ea8:	50                   	push   %eax
    1ea9:	8d 45 e0             	lea    -0x20(%ebp),%eax
    1eac:	50                   	push   %eax
    1ead:	57                   	push   %edi
    1eae:	e8 7d 77 00 00       	call   9630 <loc_category_get_svcs@plt>
    1eb3:	83 c4 10             	add    $0x10,%esp
    1eb6:	89 c6                	mov    %eax,%esi
    1eb8:	85 c0                	test   %eax,%eax
    1eba:	0f 85 e9 01 00 00    	jne    20a9 <vbds_disks_check_new+0x249>
    1ec0:	a1 50 b5 00 00       	mov    0xb550,%eax
    1ec5:	89 c2                	mov    %eax,%edx
    1ec7:	3d 4c b5 00 00       	cmp    $0xb54c,%eax
    1ecc:	0f 84 5b 01 00 00    	je     202d <vbds_disks_check_new+0x1cd>
    1ed2:	8d b6 00 00 00 00    	lea    0x0(%esi),%esi
    1ed8:	c6 42 28 00          	movb   $0x0,0x28(%edx)
    1edc:	8b 52 04             	mov    0x4(%edx),%edx
    1edf:	81 fa 4c b5 00 00    	cmp    $0xb54c,%edx
    1ee5:	75 f1                	jne    1ed8 <vbds_disks_check_new+0x78>
    1ee7:	8b 4d e4             	mov    -0x1c(%ebp),%ecx
    1eea:	85 c9                	test   %ecx,%ecx
    1eec:	74 75                	je     1f63 <vbds_disks_check_new+0x103>
    1eee:	31 ff                	xor    %edi,%edi
    1ef0:	8d 1c bd 00 00 00 00 	lea    0x0(,%edi,4),%ebx
    1ef7:	3d 4c b5 00 00       	cmp    $0xb54c,%eax
    1efc:	0f 84 09 01 00 00    	je     200b <vbds_disks_check_new+0x1ab>
    1f02:	8b 55 e0             	mov    -0x20(%ebp),%edx
    1f05:	8b 14 1a             	mov    (%edx,%ebx,1),%edx
    1f08:	39 50 08             	cmp    %edx,0x8(%eax)
    1f0b:	75 14                	jne    1f21 <vbds_disks_check_new+0xc1>
    1f0d:	e9 de 00 00 00       	jmp    1ff0 <vbds_disks_check_new+0x190>
    1f12:	8d b6 00 00 00 00    	lea    0x0(%esi),%esi
    1f18:	39 50 08             	cmp    %edx,0x8(%eax)
    1f1b:	0f 84 cf 00 00 00    	je     1ff0 <vbds_disks_check_new+0x190>
    1f21:	8b 40 04             	mov    0x4(%eax),%eax
    1f24:	3d 4c b5 00 00       	cmp    $0xb54c,%eax
    1f29:	75 ed                	jne    1f18 <vbds_disks_check_new+0xb8>
    1f2b:	52                   	push   %edx
    1f2c:	68 6b 86 00 00       	push   $0x866b
    1f31:	6a 03                	push   $0x3
    1f33:	6a ff                	push   $0xffffffff
    1f35:	e8 46 75 00 00       	call   9480 <log_msg@plt>
    1f3a:	58                   	pop    %eax
    1f3b:	8b 45 e0             	mov    -0x20(%ebp),%eax
    1f3e:	8b 14 18             	mov    (%eax,%ebx,1),%edx
    1f41:	52                   	push   %edx
    1f42:	e8 09 fc ff ff       	call   1b50 <vbds_disk_add>
    1f47:	83 c4 10             	add    $0x10,%esp
    1f4a:	85 c0                	test   %eax,%eax
    1f4c:	0f 85 c4 00 00 00    	jne    2016 <vbds_disks_check_new+0x1b6>
    1f52:	8d b6 00 00 00 00    	lea    0x0(%esi),%esi
    1f58:	47                   	inc    %edi
    1f59:	a1 50 b5 00 00       	mov    0xb550,%eax
    1f5e:	39 7d e4             	cmp    %edi,-0x1c(%ebp)
    1f61:	77 8d                	ja     1ef0 <vbds_disks_check_new+0x90>
    1f63:	3d 4c b5 00 00       	cmp    $0xb54c,%eax
    1f68:	74 2e                	je     1f98 <vbds_disks_check_new+0x138>
    1f6a:	85 c0                	test   %eax,%eax
    1f6c:	74 2a                	je     1f98 <vbds_disks_check_new+0x138>
    1f6e:	89 c3                	mov    %eax,%ebx
    1f70:	8b 7b 04             	mov    0x4(%ebx),%edi
    1f73:	85 ff                	test   %edi,%edi
    1f75:	74 17                	je     1f8e <vbds_disks_check_new+0x12e>
    1f77:	81 ff 4c b5 00 00    	cmp    $0xb54c,%edi
    1f7d:	74 0f                	je     1f8e <vbds_disks_check_new+0x12e>
    1f7f:	80 7b 28 00          	cmpb   $0x0,0x28(%ebx)
    1f83:	74 2d                	je     1fb2 <vbds_disks_check_new+0x152>
    1f85:	89 fb                	mov    %edi,%ebx
    1f87:	8b 7b 04             	mov    0x4(%ebx),%edi
    1f8a:	85 ff                	test   %edi,%edi
    1f8c:	75 e9                	jne    1f77 <vbds_disks_check_new+0x117>
    1f8e:	80 7b 28 00          	cmpb   $0x0,0x28(%ebx)
    1f92:	0f 84 a8 00 00 00    	je     2040 <vbds_disks_check_new+0x1e0>
    1f98:	83 ec 0c             	sub    $0xc,%esp
    1f9b:	68 54 b5 00 00       	push   $0xb554
    1fa0:	e8 bb 75 00 00       	call   9560 <fibril_mutex_unlock@plt>
    1fa5:	83 c4 10             	add    $0x10,%esp
    1fa8:	8d 65 f4             	lea    -0xc(%ebp),%esp
    1fab:	89 f0                	mov    %esi,%eax
    1fad:	5b                   	pop    %ebx
    1fae:	5e                   	pop    %esi
    1faf:	5f                   	pop    %edi
    1fb0:	5d                   	pop    %ebp
    1fb1:	c3                   	ret    
    1fb2:	8b 43 08             	mov    0x8(%ebx),%eax
    1fb5:	50                   	push   %eax
    1fb6:	68 90 86 00 00       	push   $0x8690
    1fbb:	6a 03                	push   $0x3
    1fbd:	6a ff                	push   $0xffffffff
    1fbf:	e8 bc 74 00 00       	call   9480 <log_msg@plt>
    1fc4:	58                   	pop    %eax
    1fc5:	8b 43 08             	mov    0x8(%ebx),%eax
    1fc8:	50                   	push   %eax
    1fc9:	e8 b2 fd ff ff       	call   1d80 <vbds_disk_remove>
    1fce:	83 c4 10             	add    $0x10,%esp
    1fd1:	85 c0                	test   %eax,%eax
    1fd3:	74 b0                	je     1f85 <vbds_disks_check_new+0x125>
    1fd5:	50                   	push   %eax
    1fd6:	68 a3 86 00 00       	push   $0x86a3
    1fdb:	6a 01                	push   $0x1
    1fdd:	6a ff                	push   $0xffffffff
    1fdf:	89 fb                	mov    %edi,%ebx
    1fe1:	e8 9a 74 00 00       	call   9480 <log_msg@plt>
    1fe6:	83 c4 10             	add    $0x10,%esp
    1fe9:	eb 9c                	jmp    1f87 <vbds_disks_check_new+0x127>
    1feb:	90                   	nop
    1fec:	8d 74 26 00          	lea    0x0(%esi,%eiz,1),%esi
    1ff0:	c6 40 28 01          	movb   $0x1,0x28(%eax)
    1ff4:	52                   	push   %edx
    1ff5:	68 54 86 00 00       	push   $0x8654
    1ffa:	6a 04                	push   $0x4
    1ffc:	6a ff                	push   $0xffffffff
    1ffe:	e8 7d 74 00 00       	call   9480 <log_msg@plt>
    2003:	83 c4 10             	add    $0x10,%esp
    2006:	e9 4d ff ff ff       	jmp    1f58 <vbds_disks_check_new+0xf8>
    200b:	8b 45 e0             	mov    -0x20(%ebp),%eax
    200e:	8b 14 18             	mov    (%eax,%ebx,1),%edx
    2011:	e9 15 ff ff ff       	jmp    1f2b <vbds_disks_check_new+0xcb>
    2016:	50                   	push   %eax
    2017:	68 7c 86 00 00       	push   $0x867c
    201c:	6a 01                	push   $0x1
    201e:	6a ff                	push   $0xffffffff
    2020:	e8 5b 74 00 00       	call   9480 <log_msg@plt>
    2025:	83 c4 10             	add    $0x10,%esp
    2028:	e9 2b ff ff ff       	jmp    1f58 <vbds_disks_check_new+0xf8>
    202d:	8b 7d e4             	mov    -0x1c(%ebp),%edi
    2030:	85 ff                	test   %edi,%edi
    2032:	0f 85 b6 fe ff ff    	jne    1eee <vbds_disks_check_new+0x8e>
    2038:	e9 5b ff ff ff       	jmp    1f98 <vbds_disks_check_new+0x138>
    203d:	8d 76 00             	lea    0x0(%esi),%esi
    2040:	8b 53 08             	mov    0x8(%ebx),%edx
    2043:	52                   	push   %edx
    2044:	68 90 86 00 00       	push   $0x8690
    2049:	6a 03                	push   $0x3
    204b:	6a ff                	push   $0xffffffff
    204d:	e8 2e 74 00 00       	call   9480 <log_msg@plt>
    2052:	8b 5b 08             	mov    0x8(%ebx),%ebx
    2055:	59                   	pop    %ecx
    2056:	53                   	push   %ebx
    2057:	e8 24 fd ff ff       	call   1d80 <vbds_disk_remove>
    205c:	83 c4 10             	add    $0x10,%esp
    205f:	85 c0                	test   %eax,%eax
    2061:	0f 84 31 ff ff ff    	je     1f98 <vbds_disks_check_new+0x138>
    2067:	50                   	push   %eax
    2068:	68 a3 86 00 00       	push   $0x86a3
    206d:	6a 01                	push   $0x1
    206f:	6a ff                	push   $0xffffffff
    2071:	e8 0a 74 00 00       	call   9480 <log_msg@plt>
    2076:	83 c4 10             	add    $0x10,%esp
    2079:	e9 1a ff ff ff       	jmp    1f98 <vbds_disks_check_new+0x138>
    207e:	50                   	push   %eax
    207f:	68 98 8a 00 00       	push   $0x8a98
    2084:	6a 01                	push   $0x1
    2086:	6a ff                	push   $0xffffffff
    2088:	e8 f3 73 00 00       	call   9480 <log_msg@plt>
    208d:	c7 04 24 54 b5 00 00 	movl   $0xb554,(%esp)
    2094:	e8 c7 74 00 00       	call   9560 <fibril_mutex_unlock@plt>
    2099:	83 c4 10             	add    $0x10,%esp
    209c:	8d 65 f4             	lea    -0xc(%ebp),%esp
    209f:	83 ce ff             	or     $0xffffffff,%esi
    20a2:	89 f0                	mov    %esi,%eax
    20a4:	5b                   	pop    %ebx
    20a5:	5e                   	pop    %esi
    20a6:	5f                   	pop    %edi
    20a7:	5d                   	pop    %ebp
    20a8:	c3                   	ret    
    20a9:	53                   	push   %ebx
    20aa:	68 bc 8a 00 00       	push   $0x8abc
    20af:	6a 01                	push   $0x1
    20b1:	6a ff                	push   $0xffffffff
    20b3:	e8 c8 73 00 00       	call   9480 <log_msg@plt>
    20b8:	c7 04 24 54 b5 00 00 	movl   $0xb554,(%esp)
    20bf:	e8 9c 74 00 00       	call   9560 <fibril_mutex_unlock@plt>
    20c4:	83 c4 10             	add    $0x10,%esp
    20c7:	8d 65 f4             	lea    -0xc(%ebp),%esp
    20ca:	be f6 fe ff ff       	mov    $0xfffffef6,%esi
    20cf:	89 f0                	mov    %esi,%eax
    20d1:	5b                   	pop    %ebx
    20d2:	5e                   	pop    %esi
    20d3:	5f                   	pop    %edi
    20d4:	5d                   	pop    %ebp
    20d5:	c3                   	ret    
    20d6:	8d 76 00             	lea    0x0(%esi),%esi
    20d9:	8d bc 27 00 00 00 00 	lea    0x0(%edi,%eiz,1),%edi

000020e0 <vbds_disk_discovery_start>:
    20e0:	55                   	push   %ebp
    20e1:	89 e5                	mov    %esp,%ebp
    20e3:	83 ec 24             	sub    $0x24,%esp
    20e6:	68 20 21 00 00       	push   $0x2120
    20eb:	e8 30 74 00 00       	call   9520 <loc_register_cat_change_cb@plt>
    20f0:	83 c4 10             	add    $0x10,%esp
    20f3:	85 c0                	test   %eax,%eax
    20f5:	75 09                	jne    2100 <vbds_disk_discovery_start+0x20>
    20f7:	c9                   	leave  
    20f8:	e9 63 fd ff ff       	jmp    1e60 <vbds_disks_check_new>
    20fd:	8d 76 00             	lea    0x0(%esi),%esi
    2100:	50                   	push   %eax
    2101:	68 e4 8a 00 00       	push   $0x8ae4
    2106:	6a 01                	push   $0x1
    2108:	6a ff                	push   $0xffffffff
    210a:	89 45 f4             	mov    %eax,-0xc(%ebp)
    210d:	e8 6e 73 00 00       	call   9480 <log_msg@plt>
    2112:	8b 45 f4             	mov    -0xc(%ebp),%eax
    2115:	83 c4 10             	add    $0x10,%esp
    2118:	c9                   	leave  
    2119:	c3                   	ret    
    211a:	8d b6 00 00 00 00    	lea    0x0(%esi),%esi

00002120 <vbds_disk_cat_change_cb>:
    2120:	55                   	push   %ebp
    2121:	89 e5                	mov    %esp,%ebp
    2123:	5d                   	pop    %ebp
    2124:	e9 37 fd ff ff       	jmp    1e60 <vbds_disks_check_new>
    2129:	8d b4 26 00 00 00 00 	lea    0x0(%esi,%eiz,1),%esi

00002130 <vbds_disk_get_ids>:
    2130:	55                   	push   %ebp
    2131:	89 e5                	mov    %esp,%ebp
    2133:	56                   	push   %esi
    2134:	53                   	push   %ebx
    2135:	83 ec 0c             	sub    $0xc,%esp
    2138:	8b 75 08             	mov    0x8(%ebp),%esi
    213b:	68 54 b5 00 00       	push   $0xb554
    2140:	e8 fb 75 00 00       	call   9740 <fibril_mutex_lock@plt>
    2145:	8b 5d 0c             	mov    0xc(%ebp),%ebx
    2148:	c7 04 24 4c b5 00 00 	movl   $0xb54c,(%esp)
    214f:	c1 eb 02             	shr    $0x2,%ebx
    2152:	e8 09 75 00 00       	call   9660 <list_count@plt>
    2157:	8b 55 10             	mov    0x10(%ebp),%edx
    215a:	83 c4 10             	add    $0x10,%esp
    215d:	c1 e0 02             	shl    $0x2,%eax
    2160:	89 02                	mov    %eax,(%edx)
    2162:	8b 55 0c             	mov    0xc(%ebp),%edx
    2165:	83 e2 03             	and    $0x3,%edx
    2168:	75 3c                	jne    21a6 <vbds_disk_get_ids+0x76>
    216a:	a1 50 b5 00 00       	mov    0xb550,%eax
    216f:	3d 4c b5 00 00       	cmp    $0xb54c,%eax
    2174:	74 17                	je     218d <vbds_disk_get_ids+0x5d>
    2176:	66 90                	xchg   %ax,%ax
    2178:	39 d3                	cmp    %edx,%ebx
    217a:	76 06                	jbe    2182 <vbds_disk_get_ids+0x52>
    217c:	8b 48 08             	mov    0x8(%eax),%ecx
    217f:	89 0c 96             	mov    %ecx,(%esi,%edx,4)
    2182:	8b 40 04             	mov    0x4(%eax),%eax
    2185:	42                   	inc    %edx
    2186:	3d 4c b5 00 00       	cmp    $0xb54c,%eax
    218b:	75 eb                	jne    2178 <vbds_disk_get_ids+0x48>
    218d:	83 ec 0c             	sub    $0xc,%esp
    2190:	68 54 b5 00 00       	push   $0xb554
    2195:	e8 c6 73 00 00       	call   9560 <fibril_mutex_unlock@plt>
    219a:	83 c4 10             	add    $0x10,%esp
    219d:	31 c0                	xor    %eax,%eax
    219f:	8d 65 f8             	lea    -0x8(%ebp),%esp
    21a2:	5b                   	pop    %ebx
    21a3:	5e                   	pop    %esi
    21a4:	5d                   	pop    %ebp
    21a5:	c3                   	ret    
    21a6:	83 ec 0c             	sub    $0xc,%esp
    21a9:	68 54 b5 00 00       	push   $0xb554
    21ae:	e8 ad 73 00 00       	call   9560 <fibril_mutex_unlock@plt>
    21b3:	83 c4 10             	add    $0x10,%esp
    21b6:	b8 f2 ff ff ff       	mov    $0xfffffff2,%eax
    21bb:	eb e2                	jmp    219f <vbds_disk_get_ids+0x6f>
    21bd:	8d 76 00             	lea    0x0(%esi),%esi

000021c0 <vbds_disk_info>:
    21c0:	55                   	push   %ebp
    21c1:	89 e5                	mov    %esp,%ebp
    21c3:	56                   	push   %esi
    21c4:	53                   	push   %ebx
    21c5:	83 ec 30             	sub    $0x30,%esp
    21c8:	8b 75 08             	mov    0x8(%ebp),%esi
    21cb:	56                   	push   %esi
    21cc:	68 ba 86 00 00       	push   $0x86ba
    21d1:	6a 04                	push   $0x4
    21d3:	6a ff                	push   $0xffffffff
    21d5:	e8 a6 72 00 00       	call   9480 <log_msg@plt>
    21da:	8b 1d 50 b5 00 00    	mov    0xb550,%ebx
    21e0:	83 c4 10             	add    $0x10,%esp
    21e3:	81 fb 4c b5 00 00    	cmp    $0xb54c,%ebx
    21e9:	75 10                	jne    21fb <vbds_disk_info+0x3b>
    21eb:	e9 88 00 00 00       	jmp    2278 <vbds_disk_info+0xb8>
    21f0:	8b 5b 04             	mov    0x4(%ebx),%ebx
    21f3:	81 fb 4c b5 00 00    	cmp    $0xb54c,%ebx
    21f9:	74 7d                	je     2278 <vbds_disk_info+0xb8>
    21fb:	3b 73 08             	cmp    0x8(%ebx),%esi
    21fe:	75 f0                	jne    21f0 <vbds_disk_info+0x30>
    2200:	50                   	push   %eax
    2201:	50                   	push   %eax
    2202:	8b 53 10             	mov    0x10(%ebx),%edx
    2205:	8d 45 e0             	lea    -0x20(%ebp),%eax
    2208:	50                   	push   %eax
    2209:	52                   	push   %edx
    220a:	e8 81 15 00 00       	call   3790 <label_get_info>
    220f:	83 c4 10             	add    $0x10,%esp
    2212:	85 c0                	test   %eax,%eax
    2214:	75 65                	jne    227b <vbds_disk_info+0xbb>
    2216:	89 45 d4             	mov    %eax,-0x2c(%ebp)
    2219:	8b 45 0c             	mov    0xc(%ebp),%eax
    221c:	8b 55 e0             	mov    -0x20(%ebp),%edx
    221f:	89 c1                	mov    %eax,%ecx
    2221:	89 10                	mov    %edx,(%eax)
    2223:	8b 55 e4             	mov    -0x1c(%ebp),%edx
    2226:	89 50 04             	mov    %edx,0x4(%eax)
    2229:	8b 45 e8             	mov    -0x18(%ebp),%eax
    222c:	8b 55 ec             	mov    -0x14(%ebp),%edx
    222f:	89 41 08             	mov    %eax,0x8(%ecx)
    2232:	89 51 0c             	mov    %edx,0xc(%ecx)
    2235:	8b 45 f0             	mov    -0x10(%ebp),%eax
    2238:	8b 55 f4             	mov    -0xc(%ebp),%edx
    223b:	89 41 10             	mov    %eax,0x10(%ecx)
    223e:	89 51 14             	mov    %edx,0x14(%ecx)
    2241:	89 c8                	mov    %ecx,%eax
    2243:	8b 53 1c             	mov    0x1c(%ebx),%edx
    2246:	89 51 18             	mov    %edx,0x18(%ecx)
    2249:	8b 4b 20             	mov    0x20(%ebx),%ecx
    224c:	8b 5b 24             	mov    0x24(%ebx),%ebx
    224f:	89 48 1c             	mov    %ecx,0x1c(%eax)
    2252:	89 58 20             	mov    %ebx,0x20(%eax)
    2255:	52                   	push   %edx
    2256:	68 1c 8b 00 00       	push   $0x8b1c
    225b:	6a 04                	push   $0x4
    225d:	6a ff                	push   $0xffffffff
    225f:	e8 1c 72 00 00       	call   9480 <log_msg@plt>
    2264:	8b 45 d4             	mov    -0x2c(%ebp),%eax
    2267:	83 c4 10             	add    $0x10,%esp
    226a:	8d 65 f8             	lea    -0x8(%ebp),%esp
    226d:	5b                   	pop    %ebx
    226e:	5e                   	pop    %esi
    226f:	5d                   	pop    %ebp
    2270:	c3                   	ret    
    2271:	8d b4 26 00 00 00 00 	lea    0x0(%esi,%eiz,1),%esi
    2278:	83 c8 ff             	or     $0xffffffff,%eax
    227b:	8d 65 f8             	lea    -0x8(%ebp),%esp
    227e:	5b                   	pop    %ebx
    227f:	5e                   	pop    %esi
    2280:	5d                   	pop    %ebp
    2281:	c3                   	ret    
    2282:	8d b4 26 00 00 00 00 	lea    0x0(%esi,%eiz,1),%esi
    2289:	8d bc 27 00 00 00 00 	lea    0x0(%edi,%eiz,1),%edi

00002290 <vbds_get_parts>:
    2290:	55                   	push   %ebp
    2291:	89 e5                	mov    %esp,%ebp
    2293:	57                   	push   %edi
    2294:	56                   	push   %esi
    2295:	53                   	push   %ebx
    2296:	83 ec 1c             	sub    $0x1c,%esp
    2299:	8b 0d 50 b5 00 00    	mov    0xb550,%ecx
    229f:	8b 45 08             	mov    0x8(%ebp),%eax
    22a2:	8b 7d 0c             	mov    0xc(%ebp),%edi
    22a5:	81 f9 4c b5 00 00    	cmp    $0xb54c,%ecx
    22ab:	75 0e                	jne    22bb <vbds_get_parts+0x2b>
    22ad:	eb 69                	jmp    2318 <vbds_get_parts+0x88>
    22af:	90                   	nop
    22b0:	8b 49 04             	mov    0x4(%ecx),%ecx
    22b3:	81 f9 4c b5 00 00    	cmp    $0xb54c,%ecx
    22b9:	74 5d                	je     2318 <vbds_get_parts+0x88>
    22bb:	3b 41 08             	cmp    0x8(%ecx),%eax
    22be:	75 f0                	jne    22b0 <vbds_get_parts+0x20>
    22c0:	83 ec 0c             	sub    $0xc,%esp
    22c3:	8d 59 14             	lea    0x14(%ecx),%ebx
    22c6:	8b 75 10             	mov    0x10(%ebp),%esi
    22c9:	89 4d e4             	mov    %ecx,-0x1c(%ebp)
    22cc:	c1 ee 02             	shr    $0x2,%esi
    22cf:	53                   	push   %ebx
    22d0:	e8 8b 73 00 00       	call   9660 <list_count@plt>
    22d5:	8b 55 14             	mov    0x14(%ebp),%edx
    22d8:	c1 e0 02             	shl    $0x2,%eax
    22db:	83 c4 10             	add    $0x10,%esp
    22de:	89 02                	mov    %eax,(%edx)
    22e0:	8b 55 10             	mov    0x10(%ebp),%edx
    22e3:	83 e2 03             	and    $0x3,%edx
    22e6:	8b 4d e4             	mov    -0x1c(%ebp),%ecx
    22e9:	75 3d                	jne    2328 <vbds_get_parts+0x98>
    22eb:	8b 41 18             	mov    0x18(%ecx),%eax
    22ee:	39 c3                	cmp    %eax,%ebx
    22f0:	8d 48 e8             	lea    -0x18(%eax),%ecx
    22f3:	74 18                	je     230d <vbds_get_parts+0x7d>
    22f5:	8d 76 00             	lea    0x0(%esi),%esi
    22f8:	39 d6                	cmp    %edx,%esi
    22fa:	76 06                	jbe    2302 <vbds_get_parts+0x72>
    22fc:	8b 49 28             	mov    0x28(%ecx),%ecx
    22ff:	89 0c 97             	mov    %ecx,(%edi,%edx,4)
    2302:	8b 40 04             	mov    0x4(%eax),%eax
    2305:	42                   	inc    %edx
    2306:	39 c3                	cmp    %eax,%ebx
    2308:	8d 48 e8             	lea    -0x18(%eax),%ecx
    230b:	75 eb                	jne    22f8 <vbds_get_parts+0x68>
    230d:	8d 65 f4             	lea    -0xc(%ebp),%esp
    2310:	31 c0                	xor    %eax,%eax
    2312:	5b                   	pop    %ebx
    2313:	5e                   	pop    %esi
    2314:	5f                   	pop    %edi
    2315:	5d                   	pop    %ebp
    2316:	c3                   	ret    
    2317:	90                   	nop
    2318:	83 c8 ff             	or     $0xffffffff,%eax
    231b:	8d 65 f4             	lea    -0xc(%ebp),%esp
    231e:	5b                   	pop    %ebx
    231f:	5e                   	pop    %esi
    2320:	5f                   	pop    %edi
    2321:	5d                   	pop    %ebp
    2322:	c3                   	ret    
    2323:	90                   	nop
    2324:	8d 74 26 00          	lea    0x0(%esi,%eiz,1),%esi
    2328:	b8 f2 ff ff ff       	mov    $0xfffffff2,%eax
    232d:	eb ec                	jmp    231b <vbds_get_parts+0x8b>
    232f:	90                   	nop

00002330 <vbds_label_create>:
    2330:	55                   	push   %ebp
    2331:	89 e5                	mov    %esp,%ebp
    2333:	57                   	push   %edi
    2334:	56                   	push   %esi
    2335:	53                   	push   %ebx
    2336:	83 ec 2c             	sub    $0x2c,%esp
    2339:	8b 75 08             	mov    0x8(%ebp),%esi
    233c:	56                   	push   %esi
    233d:	68 ce 86 00 00       	push   $0x86ce
    2342:	6a 04                	push   $0x4
    2344:	6a ff                	push   $0xffffffff
    2346:	e8 35 71 00 00       	call   9480 <log_msg@plt>
    234b:	8b 1d 50 b5 00 00    	mov    0xb550,%ebx
    2351:	83 c4 10             	add    $0x10,%esp
    2354:	81 fb 4c b5 00 00    	cmp    $0xb54c,%ebx
    235a:	75 1b                	jne    2377 <vbds_label_create+0x47>
    235c:	e9 df 00 00 00       	jmp    2440 <vbds_label_create+0x110>
    2361:	8d b4 26 00 00 00 00 	lea    0x0(%esi,%eiz,1),%esi
    2368:	8b 5b 04             	mov    0x4(%ebx),%ebx
    236b:	81 fb 4c b5 00 00    	cmp    $0xb54c,%ebx
    2371:	0f 84 c9 00 00 00    	je     2440 <vbds_label_create+0x110>
    2377:	3b 73 08             	cmp    0x8(%ebx),%esi
    237a:	75 ec                	jne    2368 <vbds_label_create+0x38>
    237c:	56                   	push   %esi
    237d:	68 3c 8b 00 00       	push   $0x8b3c
    2382:	6a 04                	push   $0x4
    2384:	6a ff                	push   $0xffffffff
    2386:	e8 f5 70 00 00       	call   9480 <log_msg@plt>
    238b:	58                   	pop    %eax
    238c:	8b 4b 10             	mov    0x10(%ebx),%ecx
    238f:	8d 45 d0             	lea    -0x30(%ebp),%eax
    2392:	5a                   	pop    %edx
    2393:	50                   	push   %eax
    2394:	51                   	push   %ecx
    2395:	e8 f6 13 00 00       	call   3790 <label_get_info>
    239a:	83 c4 10             	add    $0x10,%esp
    239d:	89 c7                	mov    %eax,%edi
    239f:	85 c0                	test   %eax,%eax
    23a1:	0f 85 9c 00 00 00    	jne    2443 <vbds_label_create+0x113>
    23a7:	8b 45 d0             	mov    -0x30(%ebp),%eax
    23aa:	85 c0                	test   %eax,%eax
    23ac:	0f 85 d3 00 00 00    	jne    2485 <vbds_label_create+0x155>
    23b2:	31 d2                	xor    %edx,%edx
    23b4:	89 d8                	mov    %ebx,%eax
    23b6:	e8 95 f3 ff ff       	call   1750 <vbds_disk_parts_remove>
    23bb:	89 c7                	mov    %eax,%edi
    23bd:	85 c0                	test   %eax,%eax
    23bf:	0f 85 88 00 00 00    	jne    244d <vbds_label_create+0x11d>
    23c5:	83 ec 0c             	sub    $0xc,%esp
    23c8:	8b 7b 10             	mov    0x10(%ebx),%edi
    23cb:	57                   	push   %edi
    23cc:	e8 8f 13 00 00       	call   3760 <label_close>
    23d1:	c7 43 10 00 00 00 00 	movl   $0x0,0x10(%ebx)
    23d8:	56                   	push   %esi
    23d9:	68 64 8b 00 00       	push   $0x8b64
    23de:	6a 04                	push   $0x4
    23e0:	6a ff                	push   $0xffffffff
    23e2:	e8 99 70 00 00       	call   9480 <log_msg@plt>
    23e7:	83 c4 1c             	add    $0x1c,%esp
    23ea:	8d 45 cc             	lea    -0x34(%ebp),%eax
    23ed:	50                   	push   %eax
    23ee:	8b 45 0c             	mov    0xc(%ebp),%eax
    23f1:	50                   	push   %eax
    23f2:	56                   	push   %esi
    23f3:	e8 08 13 00 00       	call   3700 <label_create>
    23f8:	83 c4 10             	add    $0x10,%esp
    23fb:	89 c7                	mov    %eax,%edi
    23fd:	85 c0                	test   %eax,%eax
    23ff:	74 60                	je     2461 <vbds_label_create+0x131>
    2401:	56                   	push   %esi
    2402:	68 b0 8b 00 00       	push   $0x8bb0
    2407:	6a 04                	push   $0x4
    2409:	6a ff                	push   $0xffffffff
    240b:	e8 70 70 00 00       	call   9480 <log_msg@plt>
    2410:	8b 4b 10             	mov    0x10(%ebx),%ecx
    2413:	83 c4 10             	add    $0x10,%esp
    2416:	85 c9                	test   %ecx,%ecx
    2418:	75 29                	jne    2443 <vbds_label_create+0x113>
    241a:	8d 45 cc             	lea    -0x34(%ebp),%eax
    241d:	52                   	push   %edx
    241e:	52                   	push   %edx
    241f:	50                   	push   %eax
    2420:	56                   	push   %esi
    2421:	e8 8a 12 00 00       	call   36b0 <label_open>
    2426:	83 c4 10             	add    $0x10,%esp
    2429:	89 c6                	mov    %eax,%esi
    242b:	85 c0                	test   %eax,%eax
    242d:	75 6f                	jne    249e <vbds_label_create+0x16e>
    242f:	8b 55 cc             	mov    -0x34(%ebp),%edx
    2432:	89 d8                	mov    %ebx,%eax
    2434:	89 53 10             	mov    %edx,0x10(%ebx)
    2437:	e8 e4 f4 ff ff       	call   1920 <vbds_disk_parts_add>
    243c:	eb 05                	jmp    2443 <vbds_label_create+0x113>
    243e:	66 90                	xchg   %ax,%ax
    2440:	83 cf ff             	or     $0xffffffff,%edi
    2443:	8d 65 f4             	lea    -0xc(%ebp),%esp
    2446:	89 f8                	mov    %edi,%eax
    2448:	5b                   	pop    %ebx
    2449:	5e                   	pop    %esi
    244a:	5f                   	pop    %edi
    244b:	5d                   	pop    %ebp
    244c:	c3                   	ret    
    244d:	50                   	push   %eax
    244e:	68 22 86 00 00       	push   $0x8622
    2453:	6a 01                	push   $0x1
    2455:	6a ff                	push   $0xffffffff
    2457:	e8 24 70 00 00       	call   9480 <log_msg@plt>
    245c:	83 c4 10             	add    $0x10,%esp
    245f:	eb e2                	jmp    2443 <vbds_label_create+0x113>
    2461:	8b 55 cc             	mov    -0x34(%ebp),%edx
    2464:	89 d8                	mov    %ebx,%eax
    2466:	e8 b5 f4 ff ff       	call   1920 <vbds_disk_parts_add>
    246b:	8b 45 cc             	mov    -0x34(%ebp),%eax
    246e:	89 43 10             	mov    %eax,0x10(%ebx)
    2471:	56                   	push   %esi
    2472:	68 8c 8b 00 00       	push   $0x8b8c
    2477:	6a 04                	push   $0x4
    2479:	6a ff                	push   $0xffffffff
    247b:	e8 00 70 00 00       	call   9480 <log_msg@plt>
    2480:	83 c4 10             	add    $0x10,%esp
    2483:	eb be                	jmp    2443 <vbds_label_create+0x113>
    2485:	50                   	push   %eax
    2486:	68 e5 86 00 00       	push   $0x86e5
    248b:	6a 01                	push   $0x1
    248d:	6a ff                	push   $0xffffffff
    248f:	bf f7 ff ff ff       	mov    $0xfffffff7,%edi
    2494:	e8 e7 6f 00 00       	call   9480 <log_msg@plt>
    2499:	83 c4 10             	add    $0x10,%esp
    249c:	eb a5                	jmp    2443 <vbds_label_create+0x113>
    249e:	8b 43 0c             	mov    0xc(%ebx),%eax
    24a1:	89 f7                	mov    %esi,%edi
    24a3:	50                   	push   %eax
    24a4:	68 48 8a 00 00       	push   $0x8a48
    24a9:	6a 01                	push   $0x1
    24ab:	6a ff                	push   $0xffffffff
    24ad:	e8 ce 6f 00 00       	call   9480 <log_msg@plt>
    24b2:	83 c4 10             	add    $0x10,%esp
    24b5:	eb 8c                	jmp    2443 <vbds_label_create+0x113>
    24b7:	89 f6                	mov    %esi,%esi
    24b9:	8d bc 27 00 00 00 00 	lea    0x0(%edi,%eiz,1),%edi

000024c0 <vbds_label_delete>:
    24c0:	55                   	push   %ebp
    24c1:	89 e5                	mov    %esp,%ebp
    24c3:	56                   	push   %esi
    24c4:	53                   	push   %ebx
    24c5:	83 ec 10             	sub    $0x10,%esp
    24c8:	8b 75 08             	mov    0x8(%ebp),%esi
    24cb:	56                   	push   %esi
    24cc:	68 fb 86 00 00       	push   $0x86fb
    24d1:	6a 04                	push   $0x4
    24d3:	6a ff                	push   $0xffffffff
    24d5:	e8 a6 6f 00 00       	call   9480 <log_msg@plt>
    24da:	8b 1d 50 b5 00 00    	mov    0xb550,%ebx
    24e0:	83 c4 10             	add    $0x10,%esp
    24e3:	81 fb 4c b5 00 00    	cmp    $0xb54c,%ebx
    24e9:	75 10                	jne    24fb <vbds_label_delete+0x3b>
    24eb:	eb 73                	jmp    2560 <vbds_label_delete+0xa0>
    24ed:	8d 76 00             	lea    0x0(%esi),%esi
    24f0:	8b 5b 04             	mov    0x4(%ebx),%ebx
    24f3:	81 fb 4c b5 00 00    	cmp    $0xb54c,%ebx
    24f9:	74 65                	je     2560 <vbds_label_delete+0xa0>
    24fb:	3b 73 08             	cmp    0x8(%ebx),%esi
    24fe:	75 f0                	jne    24f0 <vbds_label_delete+0x30>
    2500:	31 d2                	xor    %edx,%edx
    2502:	89 d8                	mov    %ebx,%eax
    2504:	e8 47 f2 ff ff       	call   1750 <vbds_disk_parts_remove>
    2509:	89 c6                	mov    %eax,%esi
    250b:	85 c0                	test   %eax,%eax
    250d:	75 61                	jne    2570 <vbds_label_delete+0xb0>
    250f:	83 ec 0c             	sub    $0xc,%esp
    2512:	8b 73 10             	mov    0x10(%ebx),%esi
    2515:	56                   	push   %esi
    2516:	e8 65 12 00 00       	call   3780 <label_destroy>
    251b:	83 c4 10             	add    $0x10,%esp
    251e:	89 c6                	mov    %eax,%esi
    2520:	85 c0                	test   %eax,%eax
    2522:	75 4c                	jne    2570 <vbds_label_delete+0xb0>
    2524:	c7 43 10 00 00 00 00 	movl   $0x0,0x10(%ebx)
    252b:	52                   	push   %edx
    252c:	52                   	push   %edx
    252d:	8d 45 f4             	lea    -0xc(%ebp),%eax
    2530:	8b 4b 08             	mov    0x8(%ebx),%ecx
    2533:	50                   	push   %eax
    2534:	51                   	push   %ecx
    2535:	e8 76 11 00 00       	call   36b0 <label_open>
    253a:	83 c4 10             	add    $0x10,%esp
    253d:	89 c6                	mov    %eax,%esi
    253f:	85 c0                	test   %eax,%eax
    2541:	75 48                	jne    258b <vbds_label_delete+0xcb>
    2543:	8b 55 f4             	mov    -0xc(%ebp),%edx
    2546:	89 d8                	mov    %ebx,%eax
    2548:	e8 d3 f3 ff ff       	call   1920 <vbds_disk_parts_add>
    254d:	8b 45 f4             	mov    -0xc(%ebp),%eax
    2550:	89 43 10             	mov    %eax,0x10(%ebx)
    2553:	8d 65 f8             	lea    -0x8(%ebp),%esp
    2556:	89 f0                	mov    %esi,%eax
    2558:	5b                   	pop    %ebx
    2559:	5e                   	pop    %esi
    255a:	5d                   	pop    %ebp
    255b:	c3                   	ret    
    255c:	8d 74 26 00          	lea    0x0(%esi,%eiz,1),%esi
    2560:	83 ce ff             	or     $0xffffffff,%esi
    2563:	8d 65 f8             	lea    -0x8(%ebp),%esp
    2566:	89 f0                	mov    %esi,%eax
    2568:	5b                   	pop    %ebx
    2569:	5e                   	pop    %esi
    256a:	5d                   	pop    %ebp
    256b:	c3                   	ret    
    256c:	8d 74 26 00          	lea    0x0(%esi,%eiz,1),%esi
    2570:	53                   	push   %ebx
    2571:	68 12 87 00 00       	push   $0x8712
    2576:	6a 01                	push   $0x1
    2578:	6a ff                	push   $0xffffffff
    257a:	e8 01 6f 00 00       	call   9480 <log_msg@plt>
    257f:	83 c4 10             	add    $0x10,%esp
    2582:	8d 65 f8             	lea    -0x8(%ebp),%esp
    2585:	89 f0                	mov    %esi,%eax
    2587:	5b                   	pop    %ebx
    2588:	5e                   	pop    %esi
    2589:	5d                   	pop    %ebp
    258a:	c3                   	ret    
    258b:	8b 43 0c             	mov    0xc(%ebx),%eax
    258e:	be f6 fe ff ff       	mov    $0xfffffef6,%esi
    2593:	50                   	push   %eax
    2594:	68 48 8a 00 00       	push   $0x8a48
    2599:	6a 01                	push   $0x1
    259b:	6a ff                	push   $0xffffffff
    259d:	e8 de 6e 00 00       	call   9480 <log_msg@plt>
    25a2:	83 c4 10             	add    $0x10,%esp
    25a5:	eb bc                	jmp    2563 <vbds_label_delete+0xa3>
    25a7:	89 f6                	mov    %esi,%esi
    25a9:	8d bc 27 00 00 00 00 	lea    0x0(%edi,%eiz,1),%edi

000025b0 <vbds_part_get_info>:
    25b0:	55                   	push   %ebp
    25b1:	89 e5                	mov    %esp,%ebp
    25b3:	57                   	push   %edi
    25b4:	56                   	push   %esi
    25b5:	53                   	push   %ebx
    25b6:	83 ec 2c             	sub    $0x2c,%esp
    25b9:	8b 7d 08             	mov    0x8(%ebp),%edi
    25bc:	57                   	push   %edi
    25bd:	68 29 87 00 00       	push   $0x8729
    25c2:	6a 04                	push   $0x4
    25c4:	6a ff                	push   $0xffffffff
    25c6:	e8 b5 6e 00 00       	call   9480 <log_msg@plt>
    25cb:	c7 04 24 3c b5 00 00 	movl   $0xb53c,(%esp)
    25d2:	e8 69 71 00 00       	call   9740 <fibril_mutex_lock@plt>
    25d7:	8b 1d 38 b5 00 00    	mov    0xb538,%ebx
    25dd:	83 c4 10             	add    $0x10,%esp
    25e0:	8d 73 e0             	lea    -0x20(%ebx),%esi
    25e3:	81 fb 34 b5 00 00    	cmp    $0xb534,%ebx
    25e9:	75 17                	jne    2602 <vbds_part_get_info+0x52>
    25eb:	e9 e8 00 00 00       	jmp    26d8 <vbds_part_get_info+0x128>
    25f0:	8b 5b 04             	mov    0x4(%ebx),%ebx
    25f3:	81 fb 34 b5 00 00    	cmp    $0xb534,%ebx
    25f9:	8d 73 e0             	lea    -0x20(%ebx),%esi
    25fc:	0f 84 d6 00 00 00    	je     26d8 <vbds_part_get_info+0x128>
    2602:	83 ec 0c             	sub    $0xc,%esp
    2605:	57                   	push   %edi
    2606:	8b 46 28             	mov    0x28(%esi),%eax
    2609:	50                   	push   %eax
    260a:	68 49 87 00 00       	push   $0x8749
    260f:	6a 04                	push   $0x4
    2611:	6a ff                	push   $0xffffffff
    2613:	e8 68 6e 00 00       	call   9480 <log_msg@plt>
    2618:	83 c4 20             	add    $0x20,%esp
    261b:	3b 7e 28             	cmp    0x28(%esi),%edi
    261e:	75 d0                	jne    25f0 <vbds_part_get_info+0x40>
    2620:	51                   	push   %ecx
    2621:	68 56 87 00 00       	push   $0x8756
    2626:	6a 04                	push   $0x4
    2628:	6a ff                	push   $0xffffffff
    262a:	e8 51 6e 00 00       	call   9480 <log_msg@plt>
    262f:	83 c4 0c             	add    $0xc,%esp
    2632:	68 63 87 00 00       	push   $0x8763
    2637:	6a 05                	push   $0x5
    2639:	6a ff                	push   $0xffffffff
    263b:	e8 40 6e 00 00       	call   9480 <log_msg@plt>
    2640:	f0 ff 46 54          	lock incl 0x54(%esi)
    2644:	c7 04 24 3c b5 00 00 	movl   $0xb53c,(%esp)
    264b:	e8 10 6f 00 00       	call   9560 <fibril_mutex_unlock@plt>
    2650:	89 34 24             	mov    %esi,(%esp)
    2653:	e8 98 70 00 00       	call   96f0 <fibril_rwlock_read_lock@plt>
    2658:	8b 46 34             	mov    0x34(%esi),%eax
    265b:	83 c4 10             	add    $0x10,%esp
    265e:	85 c0                	test   %eax,%eax
    2660:	0f 84 ba 00 00 00    	je     2720 <vbds_part_get_info+0x170>
    2666:	52                   	push   %edx
    2667:	52                   	push   %edx
    2668:	8d 55 d0             	lea    -0x30(%ebp),%edx
    266b:	52                   	push   %edx
    266c:	50                   	push   %eax
    266d:	e8 4e 11 00 00       	call   37c0 <label_part_get_info>
    2672:	8b 4d 0c             	mov    0xc(%ebp),%ecx
    2675:	8b 45 d0             	mov    -0x30(%ebp),%eax
    2678:	8b 55 dc             	mov    -0x24(%ebp),%edx
    267b:	89 01                	mov    %eax,(%ecx)
    267d:	8b 45 d4             	mov    -0x2c(%ebp),%eax
    2680:	89 41 04             	mov    %eax,0x4(%ecx)
    2683:	8b 45 d8             	mov    -0x28(%ebp),%eax
    2686:	89 41 08             	mov    %eax,0x8(%ecx)
    2689:	8b 45 e0             	mov    -0x20(%ebp),%eax
    268c:	89 51 0c             	mov    %edx,0xc(%ecx)
    268f:	89 41 10             	mov    %eax,0x10(%ecx)
    2692:	83 c4 0c             	add    $0xc,%esp
    2695:	8b 46 2c             	mov    0x2c(%esi),%eax
    2698:	8b 55 e4             	mov    -0x1c(%ebp),%edx
    269b:	89 41 18             	mov    %eax,0x18(%ecx)
    269e:	89 51 14             	mov    %edx,0x14(%ecx)
    26a1:	68 90 85 00 00       	push   $0x8590
    26a6:	6a 05                	push   $0x5
    26a8:	6a ff                	push   $0xffffffff
    26aa:	e8 d1 6d 00 00       	call   9480 <log_msg@plt>
    26af:	83 c8 ff             	or     $0xffffffff,%eax
    26b2:	f0 0f c1 46 54       	lock xadd %eax,0x54(%esi)
    26b7:	83 c4 10             	add    $0x10,%esp
    26ba:	48                   	dec    %eax
    26bb:	74 47                	je     2704 <vbds_part_get_info+0x154>
    26bd:	83 ec 0c             	sub    $0xc,%esp
    26c0:	56                   	push   %esi
    26c1:	e8 da 6c 00 00       	call   93a0 <fibril_rwlock_read_unlock@plt>
    26c6:	83 c4 10             	add    $0x10,%esp
    26c9:	8d 65 f4             	lea    -0xc(%ebp),%esp
    26cc:	31 c0                	xor    %eax,%eax
    26ce:	5b                   	pop    %ebx
    26cf:	5e                   	pop    %esi
    26d0:	5f                   	pop    %edi
    26d1:	5d                   	pop    %ebp
    26d2:	c3                   	ret    
    26d3:	90                   	nop
    26d4:	8d 74 26 00          	lea    0x0(%esi,%eiz,1),%esi
    26d8:	83 ec 0c             	sub    $0xc,%esp
    26db:	68 3c b5 00 00       	push   $0xb53c
    26e0:	e8 7b 6e 00 00       	call   9560 <fibril_mutex_unlock@plt>
    26e5:	83 c4 0c             	add    $0xc,%esp
    26e8:	68 3f 87 00 00       	push   $0x873f
    26ed:	6a 04                	push   $0x4
    26ef:	6a ff                	push   $0xffffffff
    26f1:	e8 8a 6d 00 00       	call   9480 <log_msg@plt>
    26f6:	83 c4 10             	add    $0x10,%esp
    26f9:	83 c8 ff             	or     $0xffffffff,%eax
    26fc:	8d 65 f4             	lea    -0xc(%ebp),%esp
    26ff:	5b                   	pop    %ebx
    2700:	5e                   	pop    %esi
    2701:	5f                   	pop    %edi
    2702:	5d                   	pop    %ebp
    2703:	c3                   	ret    
    2704:	50                   	push   %eax
    2705:	68 a2 85 00 00       	push   $0x85a2
    270a:	6a 05                	push   $0x5
    270c:	6a ff                	push   $0xffffffff
    270e:	e8 6d 6d 00 00       	call   9480 <log_msg@plt>
    2713:	89 34 24             	mov    %esi,(%esp)
    2716:	e8 15 70 00 00       	call   9730 <free@plt>
    271b:	83 c4 10             	add    $0x10,%esp
    271e:	eb 9d                	jmp    26bd <vbds_part_get_info+0x10d>
    2720:	83 ec 0c             	sub    $0xc,%esp
    2723:	56                   	push   %esi
    2724:	e8 77 6c 00 00       	call   93a0 <fibril_rwlock_read_unlock@plt>
    2729:	83 c4 10             	add    $0x10,%esp
    272c:	83 c8 ff             	or     $0xffffffff,%eax
    272f:	eb cb                	jmp    26fc <vbds_part_get_info+0x14c>
    2731:	eb 0d                	jmp    2740 <vbds_part_create>
    2733:	90                   	nop
    2734:	90                   	nop
    2735:	90                   	nop
    2736:	90                   	nop
    2737:	90                   	nop
    2738:	90                   	nop
    2739:	90                   	nop
    273a:	90                   	nop
    273b:	90                   	nop
    273c:	90                   	nop
    273d:	90                   	nop
    273e:	90                   	nop
    273f:	90                   	nop

00002740 <vbds_part_create>:
    2740:	55                   	push   %ebp
    2741:	89 e5                	mov    %esp,%ebp
    2743:	57                   	push   %edi
    2744:	56                   	push   %esi
    2745:	53                   	push   %ebx
    2746:	83 ec 6c             	sub    $0x6c,%esp
    2749:	8b 7d 08             	mov    0x8(%ebp),%edi
    274c:	8b 75 0c             	mov    0xc(%ebp),%esi
    274f:	57                   	push   %edi
    2750:	68 75 87 00 00       	push   $0x8775
    2755:	6a 04                	push   $0x4
    2757:	6a ff                	push   $0xffffffff
    2759:	e8 22 6d 00 00       	call   9480 <log_msg@plt>
    275e:	8b 1d 50 b5 00 00    	mov    0xb550,%ebx
    2764:	83 c4 10             	add    $0x10,%esp
    2767:	81 fb 4c b5 00 00    	cmp    $0xb54c,%ebx
    276d:	75 18                	jne    2787 <vbds_part_create+0x47>
    276f:	e9 1c 02 00 00       	jmp    2990 <vbds_part_create+0x250>
    2774:	8d 74 26 00          	lea    0x0(%esi,%eiz,1),%esi
    2778:	8b 5b 04             	mov    0x4(%ebx),%ebx
    277b:	81 fb 4c b5 00 00    	cmp    $0xb54c,%ebx
    2781:	0f 84 09 02 00 00    	je     2990 <vbds_part_create+0x250>
    2787:	3b 7b 08             	cmp    0x8(%ebx),%edi
    278a:	75 ec                	jne    2778 <vbds_part_create+0x38>
    278c:	8b 46 1c             	mov    0x1c(%esi),%eax
    278f:	8b 0e                	mov    (%esi),%ecx
    2791:	50                   	push   %eax
    2792:	8b 46 18             	mov    0x18(%esi),%eax
    2795:	50                   	push   %eax
    2796:	8b 46 14             	mov    0x14(%esi),%eax
    2799:	50                   	push   %eax
    279a:	8b 46 10             	mov    0x10(%esi),%eax
    279d:	50                   	push   %eax
    279e:	8b 46 0c             	mov    0xc(%esi),%eax
    27a1:	50                   	push   %eax
    27a2:	8b 46 08             	mov    0x8(%esi),%eax
    27a5:	50                   	push   %eax
    27a6:	8b 56 04             	mov    0x4(%esi),%edx
    27a9:	52                   	push   %edx
    27aa:	51                   	push   %ecx
    27ab:	57                   	push   %edi
    27ac:	68 d4 8b 00 00       	push   $0x8bd4
    27b1:	6a 04                	push   $0x4
    27b3:	6a ff                	push   $0xffffffff
    27b5:	e8 c6 6c 00 00       	call   9480 <log_msg@plt>
    27ba:	83 c4 24             	add    $0x24,%esp
    27bd:	8d 7d b4             	lea    -0x4c(%ebp),%edi
    27c0:	57                   	push   %edi
    27c1:	e8 2a 10 00 00       	call   37f0 <label_pspec_init>
    27c6:	8b 06                	mov    (%esi),%eax
    27c8:	8b 56 08             	mov    0x8(%esi),%edx
    27cb:	89 45 b4             	mov    %eax,-0x4c(%ebp)
    27ce:	8b 46 04             	mov    0x4(%esi),%eax
    27d1:	89 45 b8             	mov    %eax,-0x48(%ebp)
    27d4:	8b 46 0c             	mov    0xc(%esi),%eax
    27d7:	89 45 c0             	mov    %eax,-0x40(%ebp)
    27da:	8b 46 14             	mov    0x14(%esi),%eax
    27dd:	89 45 c8             	mov    %eax,-0x38(%ebp)
    27e0:	8b 46 1c             	mov    0x1c(%esi),%eax
    27e3:	89 45 d0             	mov    %eax,-0x30(%ebp)
    27e6:	8b 46 20             	mov    0x20(%esi),%eax
    27e9:	89 45 d4             	mov    %eax,-0x2c(%ebp)
    27ec:	8b 46 24             	mov    0x24(%esi),%eax
    27ef:	89 45 d8             	mov    %eax,-0x28(%ebp)
    27f2:	8b 46 28             	mov    0x28(%esi),%eax
    27f5:	89 45 dc             	mov    %eax,-0x24(%ebp)
    27f8:	8b 46 2c             	mov    0x2c(%esi),%eax
    27fb:	83 c4 0c             	add    $0xc,%esp
    27fe:	89 55 bc             	mov    %edx,-0x44(%ebp)
    2801:	89 45 e0             	mov    %eax,-0x20(%ebp)
    2804:	8b 56 10             	mov    0x10(%esi),%edx
    2807:	8b 46 30             	mov    0x30(%esi),%eax
    280a:	89 55 c4             	mov    %edx,-0x3c(%ebp)
    280d:	89 45 e4             	mov    %eax,-0x1c(%ebp)
    2810:	8b 56 18             	mov    0x18(%esi),%edx
    2813:	8d 45 98             	lea    -0x68(%ebp),%eax
    2816:	8b 73 10             	mov    0x10(%ebx),%esi
    2819:	50                   	push   %eax
    281a:	89 55 cc             	mov    %edx,-0x34(%ebp)
    281d:	57                   	push   %edi
    281e:	56                   	push   %esi
    281f:	e8 ac 0f 00 00       	call   37d0 <label_part_create>
    2824:	83 c4 10             	add    $0x10,%esp
    2827:	89 c7                	mov    %eax,%edi
    2829:	85 c0                	test   %eax,%eax
    282b:	0f 85 3f 01 00 00    	jne    2970 <vbds_part_create+0x230>
    2831:	89 d8                	mov    %ebx,%eax
    2833:	e8 98 ed ff ff       	call   15d0 <vbds_part_indices_update>
    2838:	89 c7                	mov    %eax,%edi
    283a:	85 c0                	test   %eax,%eax
    283c:	0f 85 6d 01 00 00    	jne    29af <vbds_part_create+0x26f>
    2842:	83 ec 0c             	sub    $0xc,%esp
    2845:	8b 43 0c             	mov    0xc(%ebx),%eax
    2848:	8b 75 98             	mov    -0x68(%ebp),%esi
    284b:	56                   	push   %esi
    284c:	50                   	push   %eax
    284d:	68 af 85 00 00       	push   $0x85af
    2852:	6a 04                	push   $0x4
    2854:	6a ff                	push   $0xffffffff
    2856:	89 75 94             	mov    %esi,-0x6c(%ebp)
    2859:	e8 22 6c 00 00       	call   9480 <log_msg@plt>
    285e:	83 c4 18             	add    $0x18,%esp
    2861:	8d 45 9c             	lea    -0x64(%ebp),%eax
    2864:	50                   	push   %eax
    2865:	56                   	push   %esi
    2866:	e8 55 0f 00 00       	call   37c0 <label_part_get_info>
    286b:	58                   	pop    %eax
    286c:	5a                   	pop    %edx
    286d:	6a 58                	push   $0x58
    286f:	6a 01                	push   $0x1
    2871:	e8 9a 6c 00 00       	call   9510 <calloc@plt>
    2876:	83 c4 10             	add    $0x10,%esp
    2879:	89 c6                	mov    %eax,%esi
    287b:	85 c0                	test   %eax,%eax
    287d:	0f 84 97 01 00 00    	je     2a1a <vbds_part_create+0x2da>
    2883:	83 ec 0c             	sub    $0xc,%esp
    2886:	50                   	push   %eax
    2887:	e8 34 6e 00 00       	call   96c0 <fibril_rwlock_initialize@plt>
    288c:	8b 45 94             	mov    -0x6c(%ebp),%eax
    288f:	8b 55 a8             	mov    -0x58(%ebp),%edx
    2892:	89 46 34             	mov    %eax,0x34(%esi)
    2895:	a1 20 b3 00 00       	mov    0xb320,%eax
    289a:	40                   	inc    %eax
    289b:	89 56 48             	mov    %edx,0x48(%esi)
    289e:	89 46 28             	mov    %eax,0x28(%esi)
    28a1:	a3 20 b3 00 00       	mov    %eax,0xb320
    28a6:	8b 45 a4             	mov    -0x5c(%ebp),%eax
    28a9:	8b 55 b0             	mov    -0x50(%ebp),%edx
    28ac:	89 46 44             	mov    %eax,0x44(%esi)
    28af:	8b 45 ac             	mov    -0x54(%ebp),%eax
    28b2:	89 46 4c             	mov    %eax,0x4c(%esi)
    28b5:	89 5e 14             	mov    %ebx,0x14(%esi)
    28b8:	c7 46 2c 00 00 00 00 	movl   $0x0,0x2c(%esi)
    28bf:	89 56 50             	mov    %edx,0x50(%esi)
    28c2:	c7 46 54 01 00 00 00 	movl   $0x1,0x54(%esi)
    28c9:	8d 46 38             	lea    0x38(%esi),%eax
    28cc:	89 04 24             	mov    %eax,(%esp)
    28cf:	e8 7c 6c 00 00       	call   9550 <bd_srvs_init@plt>
    28d4:	83 c4 10             	add    $0x10,%esp
    28d7:	c7 46 38 00 b3 00 00 	movl   $0xb300,0x38(%esi)
    28de:	89 76 3c             	mov    %esi,0x3c(%esi)
    28e1:	83 7d a0 01          	cmpl   $0x1,-0x60(%ebp)
    28e5:	74 0f                	je     28f6 <vbds_part_create+0x1b6>
    28e7:	89 f0                	mov    %esi,%eax
    28e9:	e8 82 eb ff ff       	call   1470 <vbds_part_svc_register>
    28ee:	85 c0                	test   %eax,%eax
    28f0:	0f 85 d5 00 00 00    	jne    29cb <vbds_part_create+0x28b>
    28f6:	8d 4b 14             	lea    0x14(%ebx),%ecx
    28f9:	83 ec 0c             	sub    $0xc,%esp
    28fc:	89 4e 1c             	mov    %ecx,0x1c(%esi)
    28ff:	8b 4b 14             	mov    0x14(%ebx),%ecx
    2902:	8d 46 18             	lea    0x18(%esi),%eax
    2905:	89 4e 18             	mov    %ecx,0x18(%esi)
    2908:	89 41 04             	mov    %eax,0x4(%ecx)
    290b:	89 43 14             	mov    %eax,0x14(%ebx)
    290e:	68 3c b5 00 00       	push   $0xb53c
    2913:	e8 28 6e 00 00       	call   9740 <fibril_mutex_lock@plt>
    2918:	8b 0d 34 b5 00 00    	mov    0xb534,%ecx
    291e:	8d 46 20             	lea    0x20(%esi),%eax
    2921:	89 4e 20             	mov    %ecx,0x20(%esi)
    2924:	c7 46 24 34 b5 00 00 	movl   $0xb534,0x24(%esi)
    292b:	89 41 04             	mov    %eax,0x4(%ecx)
    292e:	a3 34 b5 00 00       	mov    %eax,0xb534
    2933:	c7 04 24 3c b5 00 00 	movl   $0xb53c,(%esp)
    293a:	e8 21 6c 00 00       	call   9560 <fibril_mutex_unlock@plt>
    293f:	56                   	push   %esi
    2940:	68 c5 85 00 00       	push   $0x85c5
    2945:	6a 04                	push   $0x4
    2947:	6a ff                	push   $0xffffffff
    2949:	e8 32 6b 00 00       	call   9480 <log_msg@plt>
    294e:	8b 45 10             	mov    0x10(%ebp),%eax
    2951:	83 c4 20             	add    $0x20,%esp
    2954:	85 c0                	test   %eax,%eax
    2956:	74 2a                	je     2982 <vbds_part_create+0x242>
    2958:	8b 55 10             	mov    0x10(%ebp),%edx
    295b:	8b 46 28             	mov    0x28(%esi),%eax
    295e:	89 02                	mov    %eax,(%edx)
    2960:	8d 65 f4             	lea    -0xc(%ebp),%esp
    2963:	89 f8                	mov    %edi,%eax
    2965:	5b                   	pop    %ebx
    2966:	5e                   	pop    %esi
    2967:	5f                   	pop    %edi
    2968:	5d                   	pop    %ebp
    2969:	c3                   	ret    
    296a:	8d b6 00 00 00 00    	lea    0x0(%esi),%esi
    2970:	53                   	push   %ebx
    2971:	68 9e 87 00 00       	push   $0x879e
    2976:	6a 01                	push   $0x1
    2978:	6a ff                	push   $0xffffffff
    297a:	e8 01 6b 00 00       	call   9480 <log_msg@plt>
    297f:	83 c4 10             	add    $0x10,%esp
    2982:	8d 65 f4             	lea    -0xc(%ebp),%esp
    2985:	89 f8                	mov    %edi,%eax
    2987:	5b                   	pop    %ebx
    2988:	5e                   	pop    %esi
    2989:	5f                   	pop    %edi
    298a:	5d                   	pop    %ebp
    298b:	c3                   	ret    
    298c:	8d 74 26 00          	lea    0x0(%esi,%eiz,1),%esi
    2990:	57                   	push   %edi
    2991:	68 8b 87 00 00       	push   $0x878b
    2996:	6a 01                	push   $0x1
    2998:	6a ff                	push   $0xffffffff
    299a:	e8 e1 6a 00 00       	call   9480 <log_msg@plt>
    299f:	83 c4 10             	add    $0x10,%esp
    29a2:	8d 65 f4             	lea    -0xc(%ebp),%esp
    29a5:	83 cf ff             	or     $0xffffffff,%edi
    29a8:	89 f8                	mov    %edi,%eax
    29aa:	5b                   	pop    %ebx
    29ab:	5e                   	pop    %esi
    29ac:	5f                   	pop    %edi
    29ad:	5d                   	pop    %ebp
    29ae:	c3                   	ret    
    29af:	51                   	push   %ecx
    29b0:	68 28 8c 00 00       	push   $0x8c28
    29b5:	6a 01                	push   $0x1
    29b7:	6a ff                	push   $0xffffffff
    29b9:	e8 c2 6a 00 00       	call   9480 <log_msg@plt>
    29be:	83 c4 10             	add    $0x10,%esp
    29c1:	8d 65 f4             	lea    -0xc(%ebp),%esp
    29c4:	89 f8                	mov    %edi,%eax
    29c6:	5b                   	pop    %ebx
    29c7:	5e                   	pop    %esi
    29c8:	5f                   	pop    %edi
    29c9:	5d                   	pop    %ebp
    29ca:	c3                   	ret    
    29cb:	83 ec 0c             	sub    $0xc,%esp
    29ce:	56                   	push   %esi
    29cf:	e8 5c 6d 00 00       	call   9730 <free@plt>
    29d4:	83 c4 10             	add    $0x10,%esp
    29d7:	50                   	push   %eax
    29d8:	68 74 8c 00 00       	push   $0x8c74
    29dd:	6a 01                	push   $0x1
    29df:	6a ff                	push   $0xffffffff
    29e1:	e8 9a 6a 00 00       	call   9480 <log_msg@plt>
    29e6:	8b 4d 98             	mov    -0x68(%ebp),%ecx
    29e9:	5a                   	pop    %edx
    29ea:	51                   	push   %ecx
    29eb:	e8 f0 0d 00 00       	call   37e0 <label_part_destroy>
    29f0:	83 c4 10             	add    $0x10,%esp
    29f3:	85 c0                	test   %eax,%eax
    29f5:	75 07                	jne    29fe <vbds_part_create+0x2be>
    29f7:	bf f6 fe ff ff       	mov    $0xfffffef6,%edi
    29fc:	eb 84                	jmp    2982 <vbds_part_create+0x242>
    29fe:	53                   	push   %ebx
    29ff:	68 4c 8c 00 00       	push   $0x8c4c
    2a04:	6a 01                	push   $0x1
    2a06:	6a ff                	push   $0xffffffff
    2a08:	bf f6 fe ff ff       	mov    $0xfffffef6,%edi
    2a0d:	e8 6e 6a 00 00       	call   9480 <log_msg@plt>
    2a12:	83 c4 10             	add    $0x10,%esp
    2a15:	e9 68 ff ff ff       	jmp    2982 <vbds_part_create+0x242>
    2a1a:	50                   	push   %eax
    2a1b:	68 22 85 00 00       	push   $0x8522
    2a20:	6a 01                	push   $0x1
    2a22:	6a ff                	push   $0xffffffff
    2a24:	e8 57 6a 00 00       	call   9480 <log_msg@plt>
    2a29:	83 c4 10             	add    $0x10,%esp
    2a2c:	eb a9                	jmp    29d7 <vbds_part_create+0x297>
    2a2e:	66 90                	xchg   %ax,%ax

00002a30 <vbds_part_delete>:
    2a30:	55                   	push   %ebp
    2a31:	89 e5                	mov    %esp,%ebp
    2a33:	57                   	push   %edi
    2a34:	56                   	push   %esi
    2a35:	53                   	push   %ebx
    2a36:	83 ec 3c             	sub    $0x3c,%esp
    2a39:	8b 75 08             	mov    0x8(%ebp),%esi
    2a3c:	56                   	push   %esi
    2a3d:	68 29 87 00 00       	push   $0x8729
    2a42:	6a 04                	push   $0x4
    2a44:	6a ff                	push   $0xffffffff
    2a46:	e8 35 6a 00 00       	call   9480 <log_msg@plt>
    2a4b:	c7 04 24 3c b5 00 00 	movl   $0xb53c,(%esp)
    2a52:	e8 e9 6c 00 00       	call   9740 <fibril_mutex_lock@plt>
    2a57:	8b 1d 38 b5 00 00    	mov    0xb538,%ebx
    2a5d:	83 c4 10             	add    $0x10,%esp
    2a60:	8d 7b e0             	lea    -0x20(%ebx),%edi
    2a63:	81 fb 34 b5 00 00    	cmp    $0xb534,%ebx
    2a69:	75 17                	jne    2a82 <vbds_part_delete+0x52>
    2a6b:	e9 90 02 00 00       	jmp    2d00 <vbds_part_delete+0x2d0>
    2a70:	8b 5b 04             	mov    0x4(%ebx),%ebx
    2a73:	81 fb 34 b5 00 00    	cmp    $0xb534,%ebx
    2a79:	8d 7b e0             	lea    -0x20(%ebx),%edi
    2a7c:	0f 84 7e 02 00 00    	je     2d00 <vbds_part_delete+0x2d0>
    2a82:	83 ec 0c             	sub    $0xc,%esp
    2a85:	56                   	push   %esi
    2a86:	8b 47 28             	mov    0x28(%edi),%eax
    2a89:	50                   	push   %eax
    2a8a:	68 49 87 00 00       	push   $0x8749
    2a8f:	6a 04                	push   $0x4
    2a91:	6a ff                	push   $0xffffffff
    2a93:	e8 e8 69 00 00       	call   9480 <log_msg@plt>
    2a98:	83 c4 20             	add    $0x20,%esp
    2a9b:	3b 77 28             	cmp    0x28(%edi),%esi
    2a9e:	75 d0                	jne    2a70 <vbds_part_delete+0x40>
    2aa0:	52                   	push   %edx
    2aa1:	68 56 87 00 00       	push   $0x8756
    2aa6:	6a 04                	push   $0x4
    2aa8:	6a ff                	push   $0xffffffff
    2aaa:	e8 d1 69 00 00       	call   9480 <log_msg@plt>
    2aaf:	83 c4 0c             	add    $0xc,%esp
    2ab2:	8d 77 54             	lea    0x54(%edi),%esi
    2ab5:	68 63 87 00 00       	push   $0x8763
    2aba:	6a 05                	push   $0x5
    2abc:	6a ff                	push   $0xffffffff
    2abe:	e8 bd 69 00 00       	call   9480 <log_msg@plt>
    2ac3:	f0 ff 47 54          	lock incl 0x54(%edi)
    2ac7:	c7 04 24 3c b5 00 00 	movl   $0xb53c,(%esp)
    2ace:	e8 8d 6a 00 00       	call   9560 <fibril_mutex_unlock@plt>
    2ad3:	8b 5f 14             	mov    0x14(%edi),%ebx
    2ad6:	57                   	push   %edi
    2ad7:	68 67 85 00 00       	push   $0x8567
    2adc:	6a 04                	push   $0x4
    2ade:	6a ff                	push   $0xffffffff
    2ae0:	e8 9b 69 00 00       	call   9480 <log_msg@plt>
    2ae5:	83 c4 14             	add    $0x14,%esp
    2ae8:	57                   	push   %edi
    2ae9:	e8 b2 6b 00 00       	call   96a0 <fibril_rwlock_write_lock@plt>
    2aee:	8b 4f 40             	mov    0x40(%edi),%ecx
    2af1:	83 c4 10             	add    $0x10,%esp
    2af4:	85 c9                	test   %ecx,%ecx
    2af6:	0f 8f d8 02 00 00    	jg     2dd4 <vbds_part_delete+0x3a4>
    2afc:	8b 47 34             	mov    0x34(%edi),%eax
    2aff:	89 45 c4             	mov    %eax,-0x3c(%ebp)
    2b02:	8b 47 2c             	mov    0x2c(%edi),%eax
    2b05:	85 c0                	test   %eax,%eax
    2b07:	0f 85 1f 02 00 00    	jne    2d2c <vbds_part_delete+0x2fc>
    2b0d:	8b 4f 18             	mov    0x18(%edi),%ecx
    2b10:	85 c9                	test   %ecx,%ecx
    2b12:	74 0f                	je     2b23 <vbds_part_delete+0xf3>
    2b14:	8b 47 1c             	mov    0x1c(%edi),%eax
    2b17:	85 c0                	test   %eax,%eax
    2b19:	74 08                	je     2b23 <vbds_part_delete+0xf3>
    2b1b:	89 08                	mov    %ecx,(%eax)
    2b1d:	8b 4f 18             	mov    0x18(%edi),%ecx
    2b20:	89 41 04             	mov    %eax,0x4(%ecx)
    2b23:	83 ec 0c             	sub    $0xc,%esp
    2b26:	c7 47 18 00 00 00 00 	movl   $0x0,0x18(%edi)
    2b2d:	c7 47 1c 00 00 00 00 	movl   $0x0,0x1c(%edi)
    2b34:	68 3c b5 00 00       	push   $0xb53c
    2b39:	e8 02 6c 00 00       	call   9740 <fibril_mutex_lock@plt>
    2b3e:	8b 4f 20             	mov    0x20(%edi),%ecx
    2b41:	83 c4 10             	add    $0x10,%esp
    2b44:	85 c9                	test   %ecx,%ecx
    2b46:	74 0f                	je     2b57 <vbds_part_delete+0x127>
    2b48:	8b 47 24             	mov    0x24(%edi),%eax
    2b4b:	85 c0                	test   %eax,%eax
    2b4d:	74 08                	je     2b57 <vbds_part_delete+0x127>
    2b4f:	89 08                	mov    %ecx,(%eax)
    2b51:	8b 4f 20             	mov    0x20(%edi),%ecx
    2b54:	89 41 04             	mov    %eax,0x4(%ecx)
    2b57:	83 ec 0c             	sub    $0xc,%esp
    2b5a:	c7 47 20 00 00 00 00 	movl   $0x0,0x20(%edi)
    2b61:	c7 47 24 00 00 00 00 	movl   $0x0,0x24(%edi)
    2b68:	68 3c b5 00 00       	push   $0xb53c
    2b6d:	e8 ee 69 00 00       	call   9560 <fibril_mutex_unlock@plt>
    2b72:	83 c4 0c             	add    $0xc,%esp
    2b75:	68 90 85 00 00       	push   $0x8590
    2b7a:	6a 05                	push   $0x5
    2b7c:	6a ff                	push   $0xffffffff
    2b7e:	e8 fd 68 00 00       	call   9480 <log_msg@plt>
    2b83:	83 c8 ff             	or     $0xffffffff,%eax
    2b86:	f0 0f c1 06          	lock xadd %eax,(%esi)
    2b8a:	83 c4 10             	add    $0x10,%esp
    2b8d:	48                   	dec    %eax
    2b8e:	0f 84 ff 01 00 00    	je     2d93 <vbds_part_delete+0x363>
    2b94:	83 ec 0c             	sub    $0xc,%esp
    2b97:	c7 47 34 00 00 00 00 	movl   $0x0,0x34(%edi)
    2b9e:	57                   	push   %edi
    2b9f:	e8 0c 6a 00 00       	call   95b0 <fibril_rwlock_write_unlock@plt>
    2ba4:	58                   	pop    %eax
    2ba5:	8b 45 c4             	mov    -0x3c(%ebp),%eax
    2ba8:	50                   	push   %eax
    2ba9:	e8 32 0c 00 00       	call   37e0 <label_part_destroy>
    2bae:	83 c4 0c             	add    $0xc,%esp
    2bb1:	89 45 c0             	mov    %eax,-0x40(%ebp)
    2bb4:	68 90 85 00 00       	push   $0x8590
    2bb9:	6a 05                	push   $0x5
    2bbb:	6a ff                	push   $0xffffffff
    2bbd:	e8 be 68 00 00       	call   9480 <log_msg@plt>
    2bc2:	83 c9 ff             	or     $0xffffffff,%ecx
    2bc5:	f0 0f c1 0e          	lock xadd %ecx,(%esi)
    2bc9:	83 c4 10             	add    $0x10,%esp
    2bcc:	8b 45 c0             	mov    -0x40(%ebp),%eax
    2bcf:	49                   	dec    %ecx
    2bd0:	0f 84 dc 01 00 00    	je     2db2 <vbds_part_delete+0x382>
    2bd6:	85 c0                	test   %eax,%eax
    2bd8:	0f 84 91 01 00 00    	je     2d6f <vbds_part_delete+0x33f>
    2bde:	56                   	push   %esi
    2bdf:	68 b8 87 00 00       	push   $0x87b8
    2be4:	6a 01                	push   $0x1
    2be6:	6a ff                	push   $0xffffffff
    2be8:	e8 93 68 00 00       	call   9480 <log_msg@plt>
    2bed:	8b 7b 0c             	mov    0xc(%ebx),%edi
    2bf0:	8b 75 c4             	mov    -0x3c(%ebp),%esi
    2bf3:	89 34 24             	mov    %esi,(%esp)
    2bf6:	57                   	push   %edi
    2bf7:	68 af 85 00 00       	push   $0x85af
    2bfc:	6a 04                	push   $0x4
    2bfe:	6a ff                	push   $0xffffffff
    2c00:	e8 7b 68 00 00       	call   9480 <log_msg@plt>
    2c05:	83 c4 18             	add    $0x18,%esp
    2c08:	8d 45 d0             	lea    -0x30(%ebp),%eax
    2c0b:	50                   	push   %eax
    2c0c:	56                   	push   %esi
    2c0d:	e8 ae 0b 00 00       	call   37c0 <label_part_get_info>
    2c12:	58                   	pop    %eax
    2c13:	5a                   	pop    %edx
    2c14:	6a 58                	push   $0x58
    2c16:	6a 01                	push   $0x1
    2c18:	e8 f3 68 00 00       	call   9510 <calloc@plt>
    2c1d:	83 c4 10             	add    $0x10,%esp
    2c20:	89 c6                	mov    %eax,%esi
    2c22:	85 c0                	test   %eax,%eax
    2c24:	0f 84 ff 01 00 00    	je     2e29 <vbds_part_delete+0x3f9>
    2c2a:	83 ec 0c             	sub    $0xc,%esp
    2c2d:	50                   	push   %eax
    2c2e:	e8 8d 6a 00 00       	call   96c0 <fibril_rwlock_initialize@plt>
    2c33:	8b 45 c4             	mov    -0x3c(%ebp),%eax
    2c36:	8b 55 dc             	mov    -0x24(%ebp),%edx
    2c39:	89 46 34             	mov    %eax,0x34(%esi)
    2c3c:	a1 20 b3 00 00       	mov    0xb320,%eax
    2c41:	40                   	inc    %eax
    2c42:	89 56 48             	mov    %edx,0x48(%esi)
    2c45:	89 46 28             	mov    %eax,0x28(%esi)
    2c48:	a3 20 b3 00 00       	mov    %eax,0xb320
    2c4d:	8b 45 d8             	mov    -0x28(%ebp),%eax
    2c50:	8b 55 e4             	mov    -0x1c(%ebp),%edx
    2c53:	89 46 44             	mov    %eax,0x44(%esi)
    2c56:	8b 45 e0             	mov    -0x20(%ebp),%eax
    2c59:	89 46 4c             	mov    %eax,0x4c(%esi)
    2c5c:	89 5e 14             	mov    %ebx,0x14(%esi)
    2c5f:	c7 46 2c 00 00 00 00 	movl   $0x0,0x2c(%esi)
    2c66:	89 56 50             	mov    %edx,0x50(%esi)
    2c69:	c7 46 54 01 00 00 00 	movl   $0x1,0x54(%esi)
    2c70:	8d 46 38             	lea    0x38(%esi),%eax
    2c73:	89 04 24             	mov    %eax,(%esp)
    2c76:	e8 d5 68 00 00       	call   9550 <bd_srvs_init@plt>
    2c7b:	83 c4 10             	add    $0x10,%esp
    2c7e:	c7 46 38 00 b3 00 00 	movl   $0xb300,0x38(%esi)
    2c85:	89 76 3c             	mov    %esi,0x3c(%esi)
    2c88:	83 7d d4 01          	cmpl   $0x1,-0x2c(%ebp)
    2c8c:	74 0f                	je     2c9d <vbds_part_delete+0x26d>
    2c8e:	89 f0                	mov    %esi,%eax
    2c90:	e8 db e7 ff ff       	call   1470 <vbds_part_svc_register>
    2c95:	85 c0                	test   %eax,%eax
    2c97:	0f 85 75 01 00 00    	jne    2e12 <vbds_part_delete+0x3e2>
    2c9d:	8d 53 14             	lea    0x14(%ebx),%edx
    2ca0:	83 ec 0c             	sub    $0xc,%esp
    2ca3:	89 56 1c             	mov    %edx,0x1c(%esi)
    2ca6:	8b 53 14             	mov    0x14(%ebx),%edx
    2ca9:	8d 46 18             	lea    0x18(%esi),%eax
    2cac:	89 56 18             	mov    %edx,0x18(%esi)
    2caf:	89 42 04             	mov    %eax,0x4(%edx)
    2cb2:	89 43 14             	mov    %eax,0x14(%ebx)
    2cb5:	68 3c b5 00 00       	push   $0xb53c
    2cba:	e8 81 6a 00 00       	call   9740 <fibril_mutex_lock@plt>
    2cbf:	8b 15 34 b5 00 00    	mov    0xb534,%edx
    2cc5:	8d 46 20             	lea    0x20(%esi),%eax
    2cc8:	89 56 20             	mov    %edx,0x20(%esi)
    2ccb:	c7 46 24 34 b5 00 00 	movl   $0xb534,0x24(%esi)
    2cd2:	89 42 04             	mov    %eax,0x4(%edx)
    2cd5:	a3 34 b5 00 00       	mov    %eax,0xb534
    2cda:	c7 04 24 3c b5 00 00 	movl   $0xb53c,(%esp)
    2ce1:	e8 7a 68 00 00       	call   9560 <fibril_mutex_unlock@plt>
    2ce6:	56                   	push   %esi
    2ce7:	68 c5 85 00 00       	push   $0x85c5
    2cec:	6a 04                	push   $0x4
    2cee:	6a ff                	push   $0xffffffff
    2cf0:	e8 8b 67 00 00       	call   9480 <log_msg@plt>
    2cf5:	83 c4 20             	add    $0x20,%esp
    2cf8:	b8 f6 fe ff ff       	mov    $0xfffffef6,%eax
    2cfd:	eb 25                	jmp    2d24 <vbds_part_delete+0x2f4>
    2cff:	90                   	nop
    2d00:	83 ec 0c             	sub    $0xc,%esp
    2d03:	68 3c b5 00 00       	push   $0xb53c
    2d08:	e8 53 68 00 00       	call   9560 <fibril_mutex_unlock@plt>
    2d0d:	83 c4 0c             	add    $0xc,%esp
    2d10:	68 3f 87 00 00       	push   $0x873f
    2d15:	6a 04                	push   $0x4
    2d17:	6a ff                	push   $0xffffffff
    2d19:	e8 62 67 00 00       	call   9480 <log_msg@plt>
    2d1e:	83 c4 10             	add    $0x10,%esp
    2d21:	83 c8 ff             	or     $0xffffffff,%eax
    2d24:	8d 65 f4             	lea    -0xc(%ebp),%esp
    2d27:	5b                   	pop    %ebx
    2d28:	5e                   	pop    %esi
    2d29:	5f                   	pop    %edi
    2d2a:	5d                   	pop    %ebp
    2d2b:	c3                   	ret    
    2d2c:	83 ec 0c             	sub    $0xc,%esp
    2d2f:	50                   	push   %eax
    2d30:	8b 47 14             	mov    0x14(%edi),%eax
    2d33:	8b 40 0c             	mov    0xc(%eax),%eax
    2d36:	50                   	push   %eax
    2d37:	68 f4 88 00 00       	push   $0x88f4
    2d3c:	6a 04                	push   $0x4
    2d3e:	6a ff                	push   $0xffffffff
    2d40:	e8 3b 67 00 00       	call   9480 <log_msg@plt>
    2d45:	83 c4 14             	add    $0x14,%esp
    2d48:	8b 47 2c             	mov    0x2c(%edi),%eax
    2d4b:	50                   	push   %eax
    2d4c:	e8 1f 68 00 00       	call   9570 <loc_service_unregister@plt>
    2d51:	83 c4 10             	add    $0x10,%esp
    2d54:	85 c0                	test   %eax,%eax
    2d56:	0f 85 a0 00 00 00    	jne    2dfc <vbds_part_delete+0x3cc>
    2d5c:	c7 47 2c 00 00 00 00 	movl   $0x0,0x2c(%edi)
    2d63:	c7 47 30 00 00 00 00 	movl   $0x0,0x30(%edi)
    2d6a:	e9 9e fd ff ff       	jmp    2b0d <vbds_part_delete+0xdd>
    2d6f:	89 d8                	mov    %ebx,%eax
    2d71:	e8 5a e8 ff ff       	call   15d0 <vbds_part_indices_update>
    2d76:	85 c0                	test   %eax,%eax
    2d78:	74 aa                	je     2d24 <vbds_part_delete+0x2f4>
    2d7a:	52                   	push   %edx
    2d7b:	68 28 8c 00 00       	push   $0x8c28
    2d80:	6a 01                	push   $0x1
    2d82:	6a ff                	push   $0xffffffff
    2d84:	e8 f7 66 00 00       	call   9480 <log_msg@plt>
    2d89:	83 c4 10             	add    $0x10,%esp
    2d8c:	b8 f6 fe ff ff       	mov    $0xfffffef6,%eax
    2d91:	eb 91                	jmp    2d24 <vbds_part_delete+0x2f4>
    2d93:	50                   	push   %eax
    2d94:	68 a2 85 00 00       	push   $0x85a2
    2d99:	6a 05                	push   $0x5
    2d9b:	6a ff                	push   $0xffffffff
    2d9d:	e8 de 66 00 00       	call   9480 <log_msg@plt>
    2da2:	89 3c 24             	mov    %edi,(%esp)
    2da5:	e8 86 69 00 00       	call   9730 <free@plt>
    2daa:	83 c4 10             	add    $0x10,%esp
    2dad:	e9 e2 fd ff ff       	jmp    2b94 <vbds_part_delete+0x164>
    2db2:	51                   	push   %ecx
    2db3:	68 a2 85 00 00       	push   $0x85a2
    2db8:	6a 05                	push   $0x5
    2dba:	6a ff                	push   $0xffffffff
    2dbc:	e8 bf 66 00 00       	call   9480 <log_msg@plt>
    2dc1:	89 3c 24             	mov    %edi,(%esp)
    2dc4:	e8 67 69 00 00       	call   9730 <free@plt>
    2dc9:	83 c4 10             	add    $0x10,%esp
    2dcc:	8b 45 c0             	mov    -0x40(%ebp),%eax
    2dcf:	e9 02 fe ff ff       	jmp    2bd6 <vbds_part_delete+0x1a6>
    2dd4:	83 ec 0c             	sub    $0xc,%esp
    2dd7:	57                   	push   %edi
    2dd8:	e8 d3 67 00 00       	call   95b0 <fibril_rwlock_write_unlock@plt>
    2ddd:	8b 47 40             	mov    0x40(%edi),%eax
    2de0:	50                   	push   %eax
    2de1:	68 7c 85 00 00       	push   $0x857c
    2de6:	6a 04                	push   $0x4
    2de8:	6a ff                	push   $0xffffffff
    2dea:	e8 91 66 00 00       	call   9480 <log_msg@plt>
    2def:	83 c4 20             	add    $0x20,%esp
    2df2:	b8 f1 ff ff ff       	mov    $0xfffffff1,%eax
    2df7:	e9 28 ff ff ff       	jmp    2d24 <vbds_part_delete+0x2f4>
    2dfc:	83 ec 0c             	sub    $0xc,%esp
    2dff:	57                   	push   %edi
    2e00:	e8 ab 67 00 00       	call   95b0 <fibril_rwlock_write_unlock@plt>
    2e05:	83 c4 10             	add    $0x10,%esp
    2e08:	b8 f6 fe ff ff       	mov    $0xfffffef6,%eax
    2e0d:	e9 12 ff ff ff       	jmp    2d24 <vbds_part_delete+0x2f4>
    2e12:	83 ec 0c             	sub    $0xc,%esp
    2e15:	56                   	push   %esi
    2e16:	e8 15 69 00 00       	call   9730 <free@plt>
    2e1b:	83 c4 10             	add    $0x10,%esp
    2e1e:	50                   	push   %eax
    2e1f:	68 d2 87 00 00       	push   $0x87d2
    2e24:	e9 57 ff ff ff       	jmp    2d80 <vbds_part_delete+0x350>
    2e29:	51                   	push   %ecx
    2e2a:	68 22 85 00 00       	push   $0x8522
    2e2f:	6a 01                	push   $0x1
    2e31:	6a ff                	push   $0xffffffff
    2e33:	e8 48 66 00 00       	call   9480 <log_msg@plt>
    2e38:	83 c4 10             	add    $0x10,%esp
    2e3b:	eb e1                	jmp    2e1e <vbds_part_delete+0x3ee>
    2e3d:	8d 76 00             	lea    0x0(%esi),%esi

00002e40 <vbds_suggest_ptype>:
    2e40:	55                   	push   %ebp
    2e41:	89 e5                	mov    %esp,%ebp
    2e43:	83 ec 18             	sub    $0x18,%esp
    2e46:	a1 50 b5 00 00       	mov    0xb550,%eax
    2e4b:	8b 55 08             	mov    0x8(%ebp),%edx
    2e4e:	3d 4c b5 00 00       	cmp    $0xb54c,%eax
    2e53:	75 0d                	jne    2e62 <vbds_suggest_ptype+0x22>
    2e55:	eb 51                	jmp    2ea8 <vbds_suggest_ptype+0x68>
    2e57:	90                   	nop
    2e58:	8b 40 04             	mov    0x4(%eax),%eax
    2e5b:	3d 4c b5 00 00       	cmp    $0xb54c,%eax
    2e60:	74 46                	je     2ea8 <vbds_suggest_ptype+0x68>
    2e62:	3b 50 08             	cmp    0x8(%eax),%edx
    2e65:	75 f1                	jne    2e58 <vbds_suggest_ptype+0x18>
    2e67:	8b 4d 10             	mov    0x10(%ebp),%ecx
    2e6a:	52                   	push   %edx
    2e6b:	8b 55 0c             	mov    0xc(%ebp),%edx
    2e6e:	51                   	push   %ecx
    2e6f:	8b 48 10             	mov    0x10(%eax),%ecx
    2e72:	52                   	push   %edx
    2e73:	51                   	push   %ecx
    2e74:	e8 97 09 00 00       	call   3810 <label_suggest_ptype>
    2e79:	83 c4 10             	add    $0x10,%esp
    2e7c:	85 c0                	test   %eax,%eax
    2e7e:	75 08                	jne    2e88 <vbds_suggest_ptype+0x48>
    2e80:	c9                   	leave  
    2e81:	c3                   	ret    
    2e82:	8d b6 00 00 00 00    	lea    0x0(%esi),%esi
    2e88:	89 45 f4             	mov    %eax,-0xc(%ebp)
    2e8b:	50                   	push   %eax
    2e8c:	68 e7 87 00 00       	push   $0x87e7
    2e91:	6a 04                	push   $0x4
    2e93:	6a ff                	push   $0xffffffff
    2e95:	e8 e6 65 00 00       	call   9480 <log_msg@plt>
    2e9a:	8b 45 f4             	mov    -0xc(%ebp),%eax
    2e9d:	83 c4 10             	add    $0x10,%esp
    2ea0:	c9                   	leave  
    2ea1:	c3                   	ret    
    2ea2:	8d b6 00 00 00 00    	lea    0x0(%esi),%esi
    2ea8:	52                   	push   %edx
    2ea9:	68 8b 87 00 00       	push   $0x878b
    2eae:	6a 04                	push   $0x4
    2eb0:	6a ff                	push   $0xffffffff
    2eb2:	e8 c9 65 00 00       	call   9480 <log_msg@plt>
    2eb7:	83 c4 10             	add    $0x10,%esp
    2eba:	83 c8 ff             	or     $0xffffffff,%eax
    2ebd:	c9                   	leave  
    2ebe:	c3                   	ret    
    2ebf:	90                   	nop

00002ec0 <vbds_bd_conn>:
    2ec0:	55                   	push   %ebp
    2ec1:	89 e5                	mov    %esp,%ebp
    2ec3:	57                   	push   %edi
    2ec4:	56                   	push   %esi
    2ec5:	53                   	push   %ebx
    2ec6:	83 ec 20             	sub    $0x20,%esp
    2ec9:	8b 45 08             	mov    0x8(%ebp),%eax
    2ecc:	89 45 e4             	mov    %eax,-0x1c(%ebp)
    2ecf:	8b 45 0c             	mov    0xc(%ebp),%eax
    2ed2:	89 c3                	mov    %eax,%ebx
    2ed4:	68 04 88 00 00       	push   $0x8804
    2ed9:	89 45 e0             	mov    %eax,-0x20(%ebp)
    2edc:	6a 04                	push   $0x4
    2ede:	6a ff                	push   $0xffffffff
    2ee0:	e8 9b 65 00 00       	call   9480 <log_msg@plt>
    2ee5:	8b 5b 08             	mov    0x8(%ebx),%ebx
    2ee8:	53                   	push   %ebx
    2ee9:	68 13 88 00 00       	push   $0x8813
    2eee:	6a 04                	push   $0x4
    2ef0:	6a ff                	push   $0xffffffff
    2ef2:	e8 89 65 00 00       	call   9480 <log_msg@plt>
    2ef7:	83 c4 20             	add    $0x20,%esp
    2efa:	53                   	push   %ebx
    2efb:	68 2e 88 00 00       	push   $0x882e
    2f00:	6a 04                	push   $0x4
    2f02:	6a ff                	push   $0xffffffff
    2f04:	e8 77 65 00 00       	call   9480 <log_msg@plt>
    2f09:	c7 04 24 3c b5 00 00 	movl   $0xb53c,(%esp)
    2f10:	e8 2b 68 00 00       	call   9740 <fibril_mutex_lock@plt>
    2f15:	8b 35 38 b5 00 00    	mov    0xb538,%esi
    2f1b:	83 c4 10             	add    $0x10,%esp
    2f1e:	8d 7e e0             	lea    -0x20(%esi),%edi
    2f21:	81 fe 34 b5 00 00    	cmp    $0xb534,%esi
    2f27:	75 19                	jne    2f42 <vbds_bd_conn+0x82>
    2f29:	e9 b2 00 00 00       	jmp    2fe0 <vbds_bd_conn+0x120>
    2f2e:	66 90                	xchg   %ax,%ax
    2f30:	8b 76 04             	mov    0x4(%esi),%esi
    2f33:	81 fe 34 b5 00 00    	cmp    $0xb534,%esi
    2f39:	8d 7e e0             	lea    -0x20(%esi),%edi
    2f3c:	0f 84 9e 00 00 00    	je     2fe0 <vbds_bd_conn+0x120>
    2f42:	83 ec 0c             	sub    $0xc,%esp
    2f45:	53                   	push   %ebx
    2f46:	8b 47 2c             	mov    0x2c(%edi),%eax
    2f49:	50                   	push   %eax
    2f4a:	68 49 87 00 00       	push   $0x8749
    2f4f:	6a 04                	push   $0x4
    2f51:	6a ff                	push   $0xffffffff
    2f53:	e8 28 65 00 00       	call   9480 <log_msg@plt>
    2f58:	83 c4 20             	add    $0x20,%esp
    2f5b:	3b 5f 2c             	cmp    0x2c(%edi),%ebx
    2f5e:	75 d0                	jne    2f30 <vbds_bd_conn+0x70>
    2f60:	52                   	push   %edx
    2f61:	68 56 87 00 00       	push   $0x8756
    2f66:	6a 04                	push   $0x4
    2f68:	6a ff                	push   $0xffffffff
    2f6a:	e8 11 65 00 00       	call   9480 <log_msg@plt>
    2f6f:	83 c4 0c             	add    $0xc,%esp
    2f72:	68 63 87 00 00       	push   $0x8763
    2f77:	6a 05                	push   $0x5
    2f79:	6a ff                	push   $0xffffffff
    2f7b:	e8 00 65 00 00       	call   9480 <log_msg@plt>
    2f80:	f0 ff 47 54          	lock incl 0x54(%edi)
    2f84:	c7 04 24 3c b5 00 00 	movl   $0xb53c,(%esp)
    2f8b:	e8 d0 65 00 00       	call   9560 <fibril_mutex_unlock@plt>
    2f90:	83 c4 0c             	add    $0xc,%esp
    2f93:	68 46 88 00 00       	push   $0x8846
    2f98:	6a 04                	push   $0x4
    2f9a:	6a ff                	push   $0xffffffff
    2f9c:	e8 df 64 00 00       	call   9480 <log_msg@plt>
    2fa1:	83 c4 0c             	add    $0xc,%esp
    2fa4:	8b 4d e0             	mov    -0x20(%ebp),%ecx
    2fa7:	8d 47 38             	lea    0x38(%edi),%eax
    2faa:	8b 5d e4             	mov    -0x1c(%ebp),%ebx
    2fad:	50                   	push   %eax
    2fae:	51                   	push   %ecx
    2faf:	53                   	push   %ebx
    2fb0:	e8 bb 64 00 00       	call   9470 <bd_conn@plt>
    2fb5:	83 c4 0c             	add    $0xc,%esp
    2fb8:	68 90 85 00 00       	push   $0x8590
    2fbd:	6a 05                	push   $0x5
    2fbf:	6a ff                	push   $0xffffffff
    2fc1:	e8 ba 64 00 00       	call   9480 <log_msg@plt>
    2fc6:	83 c8 ff             	or     $0xffffffff,%eax
    2fc9:	f0 0f c1 47 54       	lock xadd %eax,0x54(%edi)
    2fce:	83 c4 10             	add    $0x10,%esp
    2fd1:	48                   	dec    %eax
    2fd2:	74 57                	je     302b <vbds_bd_conn+0x16b>
    2fd4:	8d 65 f4             	lea    -0xc(%ebp),%esp
    2fd7:	5b                   	pop    %ebx
    2fd8:	5e                   	pop    %esi
    2fd9:	5f                   	pop    %edi
    2fda:	5d                   	pop    %ebp
    2fdb:	c3                   	ret    
    2fdc:	8d 74 26 00          	lea    0x0(%esi,%eiz,1),%esi
    2fe0:	83 ec 0c             	sub    $0xc,%esp
    2fe3:	68 3c b5 00 00       	push   $0xb53c
    2fe8:	e8 73 65 00 00       	call   9560 <fibril_mutex_unlock@plt>
    2fed:	83 c4 0c             	add    $0xc,%esp
    2ff0:	68 3f 87 00 00       	push   $0x873f
    2ff5:	6a 04                	push   $0x4
    2ff7:	6a ff                	push   $0xffffffff
    2ff9:	e8 82 64 00 00       	call   9480 <log_msg@plt>
    2ffe:	83 c4 0c             	add    $0xc,%esp
    3001:	68 98 8c 00 00       	push   $0x8c98
    3006:	6a 04                	push   $0x4
    3008:	6a ff                	push   $0xffffffff
    300a:	e8 71 64 00 00       	call   9480 <log_msg@plt>
    300f:	8b 45 e4             	mov    -0x1c(%ebp),%eax
    3012:	c7 45 0c f2 ff ff ff 	movl   $0xfffffff2,0xc(%ebp)
    3019:	89 45 08             	mov    %eax,0x8(%ebp)
    301c:	83 c4 10             	add    $0x10,%esp
    301f:	8d 65 f4             	lea    -0xc(%ebp),%esp
    3022:	5b                   	pop    %ebx
    3023:	5e                   	pop    %esi
    3024:	5f                   	pop    %edi
    3025:	5d                   	pop    %ebp
    3026:	e9 35 64 00 00       	jmp    9460 <async_answer_0@plt>
    302b:	50                   	push   %eax
    302c:	68 a2 85 00 00       	push   $0x85a2
    3031:	6a 05                	push   $0x5
    3033:	6a ff                	push   $0xffffffff
    3035:	e8 46 64 00 00       	call   9480 <log_msg@plt>
    303a:	89 7d 08             	mov    %edi,0x8(%ebp)
    303d:	83 c4 10             	add    $0x10,%esp
    3040:	8d 65 f4             	lea    -0xc(%ebp),%esp
    3043:	5b                   	pop    %ebx
    3044:	5e                   	pop    %esi
    3045:	5f                   	pop    %edi
    3046:	5d                   	pop    %ebp
    3047:	e9 e4 66 00 00       	jmp    9730 <free@plt>
    304c:	66 90                	xchg   %ax,%ax
    304e:	66 90                	xchg   %ax,%ax

00003050 <vbds_client_conn>:
    3050:	55                   	push   %ebp
    3051:	89 e5                	mov    %esp,%ebp
    3053:	57                   	push   %edi
    3054:	56                   	push   %esi
    3055:	53                   	push   %ebx
    3056:	81 ec 90 00 00 00    	sub    $0x90,%esp
    305c:	8b 5d 0c             	mov    0xc(%ebp),%ebx
    305f:	8b 75 08             	mov    0x8(%ebp),%esi
    3062:	68 bd 8c 00 00       	push   $0x8cbd
    3067:	6a 04                	push   $0x4
    3069:	6a ff                	push   $0xffffffff
    306b:	e8 10 64 00 00       	call   9480 <log_msg@plt>
    3070:	a1 64 b5 00 00       	mov    0xb564,%eax
    3075:	83 c4 10             	add    $0x10,%esp
    3078:	39 43 08             	cmp    %eax,0x8(%ebx)
    307b:	74 1b                	je     3098 <vbds_client_conn+0x48>
    307d:	8b 55 10             	mov    0x10(%ebp),%edx
    3080:	50                   	push   %eax
    3081:	52                   	push   %edx
    3082:	53                   	push   %ebx
    3083:	56                   	push   %esi
    3084:	e8 37 fe ff ff       	call   2ec0 <vbds_bd_conn>
    3089:	83 c4 10             	add    $0x10,%esp
    308c:	8d 65 f4             	lea    -0xc(%ebp),%esp
    308f:	5b                   	pop    %ebx
    3090:	5e                   	pop    %esi
    3091:	5f                   	pop    %edi
    3092:	5d                   	pop    %ebp
    3093:	c3                   	ret    
    3094:	8d 74 26 00          	lea    0x0(%esi,%eiz,1),%esi
    3098:	50                   	push   %eax
    3099:	68 bd 8c 00 00       	push   $0x8cbd
    309e:	6a 04                	push   $0x4
    30a0:	6a ff                	push   $0xffffffff
    30a2:	e8 d9 63 00 00       	call   9480 <log_msg@plt>
    30a7:	5a                   	pop    %edx
    30a8:	59                   	pop    %ecx
    30a9:	6a 00                	push   $0x0
    30ab:	56                   	push   %esi
    30ac:	8d 75 90             	lea    -0x70(%ebp),%esi
    30af:	e8 ac 63 00 00       	call   9460 <async_answer_0@plt>
    30b4:	83 c4 10             	add    $0x10,%esp
    30b7:	90                   	nop
    30b8:	50                   	push   %eax
    30b9:	50                   	push   %eax
    30ba:	6a 00                	push   $0x0
    30bc:	56                   	push   %esi
    30bd:	e8 8e 65 00 00       	call   9650 <async_get_call_timeout@plt>
    30c2:	83 c4 10             	add    $0x10,%esp
    30c5:	89 c3                	mov    %eax,%ebx
    30c7:	8b 45 90             	mov    -0x70(%ebp),%eax
    30ca:	85 c0                	test   %eax,%eax
    30cc:	0f 84 6e 03 00 00    	je     3440 <vbds_client_conn+0x3f0>
    30d2:	2d 00 04 00 00       	sub    $0x400,%eax
    30d7:	83 f8 08             	cmp    $0x8,%eax
    30da:	0f 87 48 03 00 00    	ja     3428 <vbds_client_conn+0x3d8>
    30e0:	ff 24 85 c0 8d 00 00 	jmp    *0x8dc0(,%eax,4)
    30e7:	90                   	nop
    30e8:	57                   	push   %edi
    30e9:	68 60 8d 00 00       	push   $0x8d60
    30ee:	6a 04                	push   $0x4
    30f0:	6a ff                	push   $0xffffffff
    30f2:	e8 89 63 00 00       	call   9480 <log_msg@plt>
    30f7:	58                   	pop    %eax
    30f8:	8b 45 94             	mov    -0x6c(%ebp),%eax
    30fb:	50                   	push   %eax
    30fc:	e8 2f f9 ff ff       	call   2a30 <vbds_part_delete>
    3101:	5a                   	pop    %edx
    3102:	59                   	pop    %ecx
    3103:	50                   	push   %eax
    3104:	53                   	push   %ebx
    3105:	e8 56 63 00 00       	call   9460 <async_answer_0@plt>
    310a:	83 c4 10             	add    $0x10,%esp
    310d:	eb a9                	jmp    30b8 <vbds_client_conn+0x68>
    310f:	90                   	nop
    3110:	50                   	push   %eax
    3111:	68 49 8d 00 00       	push   $0x8d49
    3116:	6a 04                	push   $0x4
    3118:	6a ff                	push   $0xffffffff
    311a:	e8 61 63 00 00       	call   9480 <log_msg@plt>
    311f:	58                   	pop    %eax
    3120:	8d 45 8c             	lea    -0x74(%ebp),%eax
    3123:	5a                   	pop    %edx
    3124:	50                   	push   %eax
    3125:	8d 45 88             	lea    -0x78(%ebp),%eax
    3128:	50                   	push   %eax
    3129:	8b 7d 94             	mov    -0x6c(%ebp),%edi
    312c:	e8 ef 65 00 00       	call   9720 <async_data_write_receive@plt>
    3131:	83 c4 10             	add    $0x10,%esp
    3134:	84 c0                	test   %al,%al
    3136:	0f 84 b4 02 00 00    	je     33f0 <vbds_client_conn+0x3a0>
    313c:	83 7d 8c 34          	cmpl   $0x34,-0x74(%ebp)
    3140:	0f 84 12 03 00 00    	je     3458 <vbds_client_conn+0x408>
    3146:	50                   	push   %eax
    3147:	50                   	push   %eax
    3148:	8b 45 88             	mov    -0x78(%ebp),%eax
    314b:	6a f2                	push   $0xfffffff2
    314d:	50                   	push   %eax
    314e:	e8 0d 63 00 00       	call   9460 <async_answer_0@plt>
    3153:	58                   	pop    %eax
    3154:	5a                   	pop    %edx
    3155:	6a f2                	push   $0xfffffff2
    3157:	53                   	push   %ebx
    3158:	e8 03 63 00 00       	call   9460 <async_answer_0@plt>
    315d:	83 c4 10             	add    $0x10,%esp
    3160:	e9 53 ff ff ff       	jmp    30b8 <vbds_client_conn+0x68>
    3165:	8d 76 00             	lea    0x0(%esi),%esi
    3168:	50                   	push   %eax
    3169:	68 30 8d 00 00       	push   $0x8d30
    316e:	6a 04                	push   $0x4
    3170:	6a ff                	push   $0xffffffff
    3172:	e8 09 63 00 00       	call   9480 <log_msg@plt>
    3177:	58                   	pop    %eax
    3178:	8b 4d 94             	mov    -0x6c(%ebp),%ecx
    317b:	8d 45 b4             	lea    -0x4c(%ebp),%eax
    317e:	5a                   	pop    %edx
    317f:	50                   	push   %eax
    3180:	51                   	push   %ecx
    3181:	e8 2a f4 ff ff       	call   25b0 <vbds_part_get_info>
    3186:	83 c4 10             	add    $0x10,%esp
    3189:	85 c0                	test   %eax,%eax
    318b:	0f 85 7f 02 00 00    	jne    3410 <vbds_client_conn+0x3c0>
    3191:	8d 45 8c             	lea    -0x74(%ebp),%eax
    3194:	57                   	push   %edi
    3195:	57                   	push   %edi
    3196:	50                   	push   %eax
    3197:	8d 45 88             	lea    -0x78(%ebp),%eax
    319a:	50                   	push   %eax
    319b:	e8 50 64 00 00       	call   95f0 <async_data_read_receive@plt>
    31a0:	83 c4 10             	add    $0x10,%esp
    31a3:	84 c0                	test   %al,%al
    31a5:	0f 84 45 02 00 00    	je     33f0 <vbds_client_conn+0x3a0>
    31ab:	83 7d 8c 1c          	cmpl   $0x1c,-0x74(%ebp)
    31af:	75 95                	jne    3146 <vbds_client_conn+0xf6>
    31b1:	51                   	push   %ecx
    31b2:	6a 1c                	push   $0x1c
    31b4:	e9 eb 01 00 00       	jmp    33a4 <vbds_client_conn+0x354>
    31b9:	8d b4 26 00 00 00 00 	lea    0x0(%esi,%eiz,1),%esi
    31c0:	50                   	push   %eax
    31c1:	68 15 8d 00 00       	push   $0x8d15
    31c6:	6a 04                	push   $0x4
    31c8:	6a ff                	push   $0xffffffff
    31ca:	e8 b1 62 00 00       	call   9480 <log_msg@plt>
    31cf:	58                   	pop    %eax
    31d0:	8d 45 8c             	lea    -0x74(%ebp),%eax
    31d3:	5a                   	pop    %edx
    31d4:	50                   	push   %eax
    31d5:	8d 45 88             	lea    -0x78(%ebp),%eax
    31d8:	50                   	push   %eax
    31d9:	e8 12 64 00 00       	call   95f0 <async_data_read_receive@plt>
    31de:	83 c4 10             	add    $0x10,%esp
    31e1:	84 c0                	test   %al,%al
    31e3:	0f 84 07 02 00 00    	je     33f0 <vbds_client_conn+0x3a0>
    31e9:	83 ec 0c             	sub    $0xc,%esp
    31ec:	8b 45 8c             	mov    -0x74(%ebp),%eax
    31ef:	8b 7d 94             	mov    -0x6c(%ebp),%edi
    31f2:	50                   	push   %eax
    31f3:	e8 48 62 00 00       	call   9440 <malloc@plt>
    31f8:	83 c4 10             	add    $0x10,%esp
    31fb:	89 c2                	mov    %eax,%edx
    31fd:	85 c0                	test   %eax,%eax
    31ff:	0f 84 03 03 00 00    	je     3508 <vbds_client_conn+0x4b8>
    3205:	8d 45 b4             	lea    -0x4c(%ebp),%eax
    3208:	89 95 74 ff ff ff    	mov    %edx,-0x8c(%ebp)
    320e:	50                   	push   %eax
    320f:	8b 45 8c             	mov    -0x74(%ebp),%eax
    3212:	50                   	push   %eax
    3213:	52                   	push   %edx
    3214:	57                   	push   %edi
    3215:	e8 76 f0 ff ff       	call   2290 <vbds_get_parts>
    321a:	83 c4 10             	add    $0x10,%esp
    321d:	89 c7                	mov    %eax,%edi
    321f:	85 c0                	test   %eax,%eax
    3221:	8b 95 74 ff ff ff    	mov    -0x8c(%ebp),%edx
    3227:	0f 84 9b 02 00 00    	je     34c8 <vbds_client_conn+0x478>
    322d:	50                   	push   %eax
    322e:	50                   	push   %eax
    322f:	8b 45 88             	mov    -0x78(%ebp),%eax
    3232:	57                   	push   %edi
    3233:	50                   	push   %eax
    3234:	e8 27 62 00 00       	call   9460 <async_answer_0@plt>
    3239:	58                   	pop    %eax
    323a:	5a                   	pop    %edx
    323b:	57                   	push   %edi
    323c:	53                   	push   %ebx
    323d:	e8 1e 62 00 00       	call   9460 <async_answer_0@plt>
    3242:	83 c4 10             	add    $0x10,%esp
    3245:	e9 6e fe ff ff       	jmp    30b8 <vbds_client_conn+0x68>
    324a:	8d b6 00 00 00 00    	lea    0x0(%esi),%esi
    3250:	50                   	push   %eax
    3251:	50                   	push   %eax
    3252:	8d 45 8c             	lea    -0x74(%ebp),%eax
    3255:	50                   	push   %eax
    3256:	8d 45 88             	lea    -0x78(%ebp),%eax
    3259:	50                   	push   %eax
    325a:	e8 91 63 00 00       	call   95f0 <async_data_read_receive@plt>
    325f:	83 c4 10             	add    $0x10,%esp
    3262:	84 c0                	test   %al,%al
    3264:	0f 84 86 01 00 00    	je     33f0 <vbds_client_conn+0x3a0>
    326a:	83 ec 0c             	sub    $0xc,%esp
    326d:	8b 45 8c             	mov    -0x74(%ebp),%eax
    3270:	50                   	push   %eax
    3271:	e8 ca 61 00 00       	call   9440 <malloc@plt>
    3276:	83 c4 10             	add    $0x10,%esp
    3279:	89 c7                	mov    %eax,%edi
    327b:	85 c0                	test   %eax,%eax
    327d:	0f 84 85 02 00 00    	je     3508 <vbds_client_conn+0x4b8>
    3283:	8d 45 b4             	lea    -0x4c(%ebp),%eax
    3286:	51                   	push   %ecx
    3287:	50                   	push   %eax
    3288:	8b 45 8c             	mov    -0x74(%ebp),%eax
    328b:	50                   	push   %eax
    328c:	57                   	push   %edi
    328d:	e8 9e ee ff ff       	call   2130 <vbds_disk_get_ids>
    3292:	83 c4 10             	add    $0x10,%esp
    3295:	89 85 74 ff ff ff    	mov    %eax,-0x8c(%ebp)
    329b:	85 c0                	test   %eax,%eax
    329d:	0f 84 e5 01 00 00    	je     3488 <vbds_client_conn+0x438>
    32a3:	83 ec 0c             	sub    $0xc,%esp
    32a6:	57                   	push   %edi
    32a7:	e8 84 64 00 00       	call   9730 <free@plt>
    32ac:	58                   	pop    %eax
    32ad:	5a                   	pop    %edx
    32ae:	8b 95 74 ff ff ff    	mov    -0x8c(%ebp),%edx
    32b4:	52                   	push   %edx
    32b5:	8b 45 88             	mov    -0x78(%ebp),%eax
    32b8:	50                   	push   %eax
    32b9:	e8 a2 61 00 00       	call   9460 <async_answer_0@plt>
    32be:	5a                   	pop    %edx
    32bf:	8b 95 74 ff ff ff    	mov    -0x8c(%ebp),%edx
    32c5:	59                   	pop    %ecx
    32c6:	52                   	push   %edx
    32c7:	53                   	push   %ebx
    32c8:	e8 93 61 00 00       	call   9460 <async_answer_0@plt>
    32cd:	83 c4 10             	add    $0x10,%esp
    32d0:	e9 e3 fd ff ff       	jmp    30b8 <vbds_client_conn+0x68>
    32d5:	8d 76 00             	lea    0x0(%esi),%esi
    32d8:	50                   	push   %eax
    32d9:	68 77 8d 00 00       	push   $0x8d77
    32de:	6a 04                	push   $0x4
    32e0:	6a ff                	push   $0xffffffff
    32e2:	e8 99 61 00 00       	call   9480 <log_msg@plt>
    32e7:	83 c4 0c             	add    $0xc,%esp
    32ea:	8d 45 b4             	lea    -0x4c(%ebp),%eax
    32ed:	50                   	push   %eax
    32ee:	8b 45 98             	mov    -0x68(%ebp),%eax
    32f1:	50                   	push   %eax
    32f2:	8b 45 94             	mov    -0x6c(%ebp),%eax
    32f5:	50                   	push   %eax
    32f6:	e8 45 fb ff ff       	call   2e40 <vbds_suggest_ptype>
    32fb:	83 c4 10             	add    $0x10,%esp
    32fe:	85 c0                	test   %eax,%eax
    3300:	0f 85 0a 01 00 00    	jne    3410 <vbds_client_conn+0x3c0>
    3306:	8d 45 8c             	lea    -0x74(%ebp),%eax
    3309:	51                   	push   %ecx
    330a:	51                   	push   %ecx
    330b:	50                   	push   %eax
    330c:	8d 45 88             	lea    -0x78(%ebp),%eax
    330f:	50                   	push   %eax
    3310:	e8 db 62 00 00       	call   95f0 <async_data_read_receive@plt>
    3315:	83 c4 10             	add    $0x10,%esp
    3318:	84 c0                	test   %al,%al
    331a:	0f 84 d0 00 00 00    	je     33f0 <vbds_client_conn+0x3a0>
    3320:	83 7d 8c 14          	cmpl   $0x14,-0x74(%ebp)
    3324:	0f 85 1c fe ff ff    	jne    3146 <vbds_client_conn+0xf6>
    332a:	57                   	push   %edi
    332b:	6a 14                	push   $0x14
    332d:	eb 75                	jmp    33a4 <vbds_client_conn+0x354>
    332f:	90                   	nop
    3330:	50                   	push   %eax
    3331:	68 e5 8c 00 00       	push   $0x8ce5
    3336:	6a 04                	push   $0x4
    3338:	6a ff                	push   $0xffffffff
    333a:	e8 41 61 00 00       	call   9480 <log_msg@plt>
    333f:	8b 4d 98             	mov    -0x68(%ebp),%ecx
    3342:	8b 7d 94             	mov    -0x6c(%ebp),%edi
    3345:	58                   	pop    %eax
    3346:	5a                   	pop    %edx
    3347:	51                   	push   %ecx
    3348:	57                   	push   %edi
    3349:	e8 e2 ef ff ff       	call   2330 <vbds_label_create>
    334e:	e9 ae fd ff ff       	jmp    3101 <vbds_client_conn+0xb1>
    3353:	90                   	nop
    3354:	8d 74 26 00          	lea    0x0(%esi,%eiz,1),%esi
    3358:	50                   	push   %eax
    3359:	68 d0 8c 00 00       	push   $0x8cd0
    335e:	6a 04                	push   $0x4
    3360:	6a ff                	push   $0xffffffff
    3362:	e8 19 61 00 00       	call   9480 <log_msg@plt>
    3367:	58                   	pop    %eax
    3368:	8b 4d 94             	mov    -0x6c(%ebp),%ecx
    336b:	8d 45 b4             	lea    -0x4c(%ebp),%eax
    336e:	5a                   	pop    %edx
    336f:	50                   	push   %eax
    3370:	51                   	push   %ecx
    3371:	e8 4a ee ff ff       	call   21c0 <vbds_disk_info>
    3376:	83 c4 10             	add    $0x10,%esp
    3379:	85 c0                	test   %eax,%eax
    337b:	0f 85 8f 00 00 00    	jne    3410 <vbds_client_conn+0x3c0>
    3381:	50                   	push   %eax
    3382:	50                   	push   %eax
    3383:	8d 45 8c             	lea    -0x74(%ebp),%eax
    3386:	50                   	push   %eax
    3387:	8d 45 88             	lea    -0x78(%ebp),%eax
    338a:	50                   	push   %eax
    338b:	e8 60 62 00 00       	call   95f0 <async_data_read_receive@plt>
    3390:	83 c4 10             	add    $0x10,%esp
    3393:	84 c0                	test   %al,%al
    3395:	74 59                	je     33f0 <vbds_client_conn+0x3a0>
    3397:	83 7d 8c 24          	cmpl   $0x24,-0x74(%ebp)
    339b:	0f 85 a5 fd ff ff    	jne    3146 <vbds_client_conn+0xf6>
    33a1:	50                   	push   %eax
    33a2:	6a 24                	push   $0x24
    33a4:	8d 45 b4             	lea    -0x4c(%ebp),%eax
    33a7:	8b 4d 88             	mov    -0x78(%ebp),%ecx
    33aa:	50                   	push   %eax
    33ab:	51                   	push   %ecx
    33ac:	e8 5f 60 00 00       	call   9410 <async_data_read_finalize@plt>
    33b1:	83 c4 10             	add    $0x10,%esp
    33b4:	89 c7                	mov    %eax,%edi
    33b6:	85 c0                	test   %eax,%eax
    33b8:	0f 85 6f fe ff ff    	jne    322d <vbds_client_conn+0x1dd>
    33be:	57                   	push   %edi
    33bf:	57                   	push   %edi
    33c0:	6a 00                	push   $0x0
    33c2:	53                   	push   %ebx
    33c3:	e8 98 60 00 00       	call   9460 <async_answer_0@plt>
    33c8:	83 c4 10             	add    $0x10,%esp
    33cb:	e9 e8 fc ff ff       	jmp    30b8 <vbds_client_conn+0x68>
    33d0:	51                   	push   %ecx
    33d1:	68 fd 8c 00 00       	push   $0x8cfd
    33d6:	6a 04                	push   $0x4
    33d8:	6a ff                	push   $0xffffffff
    33da:	e8 a1 60 00 00       	call   9480 <log_msg@plt>
    33df:	8b 45 94             	mov    -0x6c(%ebp),%eax
    33e2:	5f                   	pop    %edi
    33e3:	50                   	push   %eax
    33e4:	e8 d7 f0 ff ff       	call   24c0 <vbds_label_delete>
    33e9:	e9 13 fd ff ff       	jmp    3101 <vbds_client_conn+0xb1>
    33ee:	66 90                	xchg   %ax,%ax
    33f0:	8b 7d 88             	mov    -0x78(%ebp),%edi
    33f3:	51                   	push   %ecx
    33f4:	51                   	push   %ecx
    33f5:	6a fc                	push   $0xfffffffc
    33f7:	57                   	push   %edi
    33f8:	e8 63 60 00 00       	call   9460 <async_answer_0@plt>
    33fd:	58                   	pop    %eax
    33fe:	5a                   	pop    %edx
    33ff:	6a fc                	push   $0xfffffffc
    3401:	53                   	push   %ebx
    3402:	e8 59 60 00 00       	call   9460 <async_answer_0@plt>
    3407:	83 c4 10             	add    $0x10,%esp
    340a:	e9 a9 fc ff ff       	jmp    30b8 <vbds_client_conn+0x68>
    340f:	90                   	nop
    3410:	57                   	push   %edi
    3411:	57                   	push   %edi
    3412:	50                   	push   %eax
    3413:	53                   	push   %ebx
    3414:	e8 47 60 00 00       	call   9460 <async_answer_0@plt>
    3419:	83 c4 10             	add    $0x10,%esp
    341c:	e9 97 fc ff ff       	jmp    30b8 <vbds_client_conn+0x68>
    3421:	8d b4 26 00 00 00 00 	lea    0x0(%esi,%eiz,1),%esi
    3428:	51                   	push   %ecx
    3429:	51                   	push   %ecx
    342a:	6a f2                	push   $0xfffffff2
    342c:	53                   	push   %ebx
    342d:	e8 2e 60 00 00       	call   9460 <async_answer_0@plt>
    3432:	83 c4 10             	add    $0x10,%esp
    3435:	e9 7e fc ff ff       	jmp    30b8 <vbds_client_conn+0x68>
    343a:	8d b6 00 00 00 00    	lea    0x0(%esi),%esi
    3440:	50                   	push   %eax
    3441:	50                   	push   %eax
    3442:	6a 00                	push   $0x0
    3444:	53                   	push   %ebx
    3445:	e8 16 60 00 00       	call   9460 <async_answer_0@plt>
    344a:	83 c4 10             	add    $0x10,%esp
    344d:	8d 65 f4             	lea    -0xc(%ebp),%esp
    3450:	5b                   	pop    %ebx
    3451:	5e                   	pop    %esi
    3452:	5f                   	pop    %edi
    3453:	5d                   	pop    %ebp
    3454:	c3                   	ret    
    3455:	8d 76 00             	lea    0x0(%esi),%esi
    3458:	50                   	push   %eax
    3459:	8d 45 b4             	lea    -0x4c(%ebp),%eax
    345c:	6a 34                	push   $0x34
    345e:	50                   	push   %eax
    345f:	8b 45 88             	mov    -0x78(%ebp),%eax
    3462:	50                   	push   %eax
    3463:	e8 48 62 00 00       	call   96b0 <async_data_write_finalize@plt>
    3468:	83 c4 10             	add    $0x10,%esp
    346b:	85 c0                	test   %eax,%eax
    346d:	0f 84 b4 00 00 00    	je     3527 <vbds_client_conn+0x4d7>
    3473:	89 85 74 ff ff ff    	mov    %eax,-0x8c(%ebp)
    3479:	57                   	push   %edi
    347a:	57                   	push   %edi
    347b:	50                   	push   %eax
    347c:	e9 34 fe ff ff       	jmp    32b5 <vbds_client_conn+0x265>
    3481:	8d b4 26 00 00 00 00 	lea    0x0(%esi,%eiz,1),%esi
    3488:	50                   	push   %eax
    3489:	8b 45 8c             	mov    -0x74(%ebp),%eax
    348c:	50                   	push   %eax
    348d:	8b 45 88             	mov    -0x78(%ebp),%eax
    3490:	57                   	push   %edi
    3491:	50                   	push   %eax
    3492:	e8 79 5f 00 00       	call   9410 <async_data_read_finalize@plt>
    3497:	89 3c 24             	mov    %edi,(%esp)
    349a:	89 85 74 ff ff ff    	mov    %eax,-0x8c(%ebp)
    34a0:	e8 8b 62 00 00       	call   9730 <free@plt>
    34a5:	83 c4 0c             	add    $0xc,%esp
    34a8:	8b 45 b4             	mov    -0x4c(%ebp),%eax
    34ab:	50                   	push   %eax
    34ac:	8b 85 74 ff ff ff    	mov    -0x8c(%ebp),%eax
    34b2:	50                   	push   %eax
    34b3:	53                   	push   %ebx
    34b4:	e8 c7 61 00 00       	call   9680 <async_answer_1@plt>
    34b9:	83 c4 10             	add    $0x10,%esp
    34bc:	e9 f7 fb ff ff       	jmp    30b8 <vbds_client_conn+0x68>
    34c1:	8d b4 26 00 00 00 00 	lea    0x0(%esi,%eiz,1),%esi
    34c8:	8b 45 8c             	mov    -0x74(%ebp),%eax
    34cb:	57                   	push   %edi
    34cc:	50                   	push   %eax
    34cd:	8b 45 88             	mov    -0x78(%ebp),%eax
    34d0:	52                   	push   %edx
    34d1:	89 95 74 ff ff ff    	mov    %edx,-0x8c(%ebp)
    34d7:	50                   	push   %eax
    34d8:	e8 33 5f 00 00       	call   9410 <async_data_read_finalize@plt>
    34dd:	8b 95 74 ff ff ff    	mov    -0x8c(%ebp),%edx
    34e3:	89 c7                	mov    %eax,%edi
    34e5:	89 14 24             	mov    %edx,(%esp)
    34e8:	e8 43 62 00 00       	call   9730 <free@plt>
    34ed:	83 c4 0c             	add    $0xc,%esp
    34f0:	8b 45 b4             	mov    -0x4c(%ebp),%eax
    34f3:	50                   	push   %eax
    34f4:	57                   	push   %edi
    34f5:	53                   	push   %ebx
    34f6:	e8 85 61 00 00       	call   9680 <async_answer_1@plt>
    34fb:	83 c4 10             	add    $0x10,%esp
    34fe:	e9 b5 fb ff ff       	jmp    30b8 <vbds_client_conn+0x68>
    3503:	90                   	nop
    3504:	8d 74 26 00          	lea    0x0(%esi,%eiz,1),%esi
    3508:	50                   	push   %eax
    3509:	50                   	push   %eax
    350a:	8b 45 88             	mov    -0x78(%ebp),%eax
    350d:	6a fe                	push   $0xfffffffe
    350f:	50                   	push   %eax
    3510:	e8 4b 5f 00 00       	call   9460 <async_answer_0@plt>
    3515:	5a                   	pop    %edx
    3516:	59                   	pop    %ecx
    3517:	6a fe                	push   $0xfffffffe
    3519:	53                   	push   %ebx
    351a:	e8 41 5f 00 00       	call   9460 <async_answer_0@plt>
    351f:	83 c4 10             	add    $0x10,%esp
    3522:	e9 91 fb ff ff       	jmp    30b8 <vbds_client_conn+0x68>
    3527:	50                   	push   %eax
    3528:	8d 45 84             	lea    -0x7c(%ebp),%eax
    352b:	50                   	push   %eax
    352c:	8d 45 b4             	lea    -0x4c(%ebp),%eax
    352f:	50                   	push   %eax
    3530:	57                   	push   %edi
    3531:	e8 0a f2 ff ff       	call   2740 <vbds_part_create>
    3536:	83 c4 10             	add    $0x10,%esp
    3539:	85 c0                	test   %eax,%eax
    353b:	0f 85 cf fe ff ff    	jne    3410 <vbds_client_conn+0x3c0>
    3541:	50                   	push   %eax
    3542:	8b 45 84             	mov    -0x7c(%ebp),%eax
    3545:	50                   	push   %eax
    3546:	6a 00                	push   $0x0
    3548:	53                   	push   %ebx
    3549:	e8 32 61 00 00       	call   9680 <async_answer_1@plt>
    354e:	83 c4 10             	add    $0x10,%esp
    3551:	e9 62 fb ff ff       	jmp    30b8 <vbds_client_conn+0x68>
    3556:	66 90                	xchg   %ax,%ax
    3558:	66 90                	xchg   %ax,%ax
    355a:	66 90                	xchg   %ax,%ax
    355c:	66 90                	xchg   %ax,%ax
    355e:	66 90                	xchg   %ax,%ax

00003560 <main>:
    3560:	8d 4c 24 04          	lea    0x4(%esp),%ecx
    3564:	83 e4 f0             	and    $0xfffffff0,%esp
    3567:	ff 71 fc             	pushl  -0x4(%ecx)
    356a:	55                   	push   %ebp
    356b:	89 e5                	mov    %esp,%ebp
    356d:	53                   	push   %ebx
    356e:	51                   	push   %ecx
    356f:	50                   	push   %eax
    3570:	50                   	push   %eax
    3571:	68 90 8d 00 00       	push   $0x8d90
    3576:	68 e4 8d 00 00       	push   $0x8de4
    357b:	e8 00 5e 00 00       	call   9380 <printf@plt>
    3580:	c7 04 24 90 8d 00 00 	movl   $0x8d90,(%esp)
    3587:	e8 34 5e 00 00       	call   93c0 <log_init@plt>
    358c:	83 c4 10             	add    $0x10,%esp
    358f:	85 c0                	test   %eax,%eax
    3591:	0f 85 b4 00 00 00    	jne    364b <main+0xeb>
    3597:	53                   	push   %ebx
    3598:	68 94 8d 00 00       	push   $0x8d94
    359d:	6a 04                	push   $0x4
    359f:	6a ff                	push   $0xffffffff
    35a1:	e8 da 5e 00 00       	call   9480 <log_msg@plt>
    35a6:	e8 15 e5 ff ff       	call   1ac0 <vbds_disks_init>
    35ab:	83 c4 10             	add    $0x10,%esp
    35ae:	85 c0                	test   %eax,%eax
    35b0:	74 11                	je     35c3 <main+0x63>
    35b2:	bb 01 00 00 00       	mov    $0x1,%ebx
    35b7:	8d 65 f8             	lea    -0x8(%ebp),%esp
    35ba:	89 d8                	mov    %ebx,%eax
    35bc:	59                   	pop    %ecx
    35bd:	5b                   	pop    %ebx
    35be:	5d                   	pop    %ebp
    35bf:	8d 61 fc             	lea    -0x4(%ecx),%esp
    35c2:	c3                   	ret    
    35c3:	51                   	push   %ecx
    35c4:	51                   	push   %ecx
    35c5:	6a 00                	push   $0x0
    35c7:	68 50 30 00 00       	push   $0x3050
    35cc:	e8 2f 61 00 00       	call   9700 <async_set_fallback_port_handler@plt>
    35d1:	c7 04 24 90 8d 00 00 	movl   $0x8d90,(%esp)
    35d8:	e8 43 60 00 00       	call   9620 <loc_server_register@plt>
    35dd:	83 c4 10             	add    $0x10,%esp
    35e0:	85 c0                	test   %eax,%eax
    35e2:	0f 85 9a 00 00 00    	jne    3682 <main+0x122>
    35e8:	52                   	push   %edx
    35e9:	52                   	push   %edx
    35ea:	68 64 b5 00 00       	push   $0xb564
    35ef:	68 90 8d 00 00       	push   $0x8d90
    35f4:	e8 e7 5d 00 00       	call   93e0 <loc_service_register@plt>
    35f9:	83 c4 10             	add    $0x10,%esp
    35fc:	85 c0                	test   %eax,%eax
    35fe:	0f 85 95 00 00 00    	jne    3699 <main+0x139>
    3604:	e8 d7 ea ff ff       	call   20e0 <vbds_disk_discovery_start>
    3609:	89 c3                	mov    %eax,%ebx
    360b:	85 c0                	test   %eax,%eax
    360d:	75 a3                	jne    35b2 <main+0x52>
    360f:	83 ec 0c             	sub    $0xc,%esp
    3612:	68 a0 8d 00 00       	push   $0x8da0
    3617:	e8 64 5d 00 00       	call   9380 <printf@plt>
    361c:	c7 04 24 00 00 00 00 	movl   $0x0,(%esp)
    3623:	e8 38 5d 00 00       	call   9360 <task_retval@plt>
    3628:	83 c8 ff             	or     $0xffffffff,%eax
    362b:	f0 0f c1 05 2c b5 00 	lock xadd %eax,0xb52c
    3632:	00 
    3633:	83 c4 10             	add    $0x10,%esp
    3636:	48                   	dec    %eax
    3637:	78 2c                	js     3665 <main+0x105>
    3639:	83 ec 0c             	sub    $0xc,%esp
    363c:	6a 03                	push   $0x3
    363e:	e8 8d 60 00 00       	call   96d0 <fibril_switch@plt>
    3643:	83 c4 10             	add    $0x10,%esp
    3646:	e9 6c ff ff ff       	jmp    35b7 <main+0x57>
    364b:	83 ec 0c             	sub    $0xc,%esp
    364e:	bb 01 00 00 00       	mov    $0x1,%ebx
    3653:	68 08 8e 00 00       	push   $0x8e08
    3658:	e8 23 5d 00 00       	call   9380 <printf@plt>
    365d:	83 c4 10             	add    $0x10,%esp
    3660:	e9 52 ff ff ff       	jmp    35b7 <main+0x57>
    3665:	50                   	push   %eax
    3666:	6a 0b                	push   $0xb
    3668:	6a 00                	push   $0x0
    366a:	6a 00                	push   $0x0
    366c:	6a 00                	push   $0x0
    366e:	6a 00                	push   $0x0
    3670:	6a 00                	push   $0x0
    3672:	68 2c b5 00 00       	push   $0xb52c
    3677:	ff 15 28 b5 00 00    	call   *0xb528
    367d:	83 c4 20             	add    $0x20,%esp
    3680:	eb b7                	jmp    3639 <main+0xd9>
    3682:	50                   	push   %eax
    3683:	68 2c 8e 00 00       	push   $0x8e2c
    3688:	6a 01                	push   $0x1
    368a:	6a ff                	push   $0xffffffff
    368c:	e8 ef 5d 00 00       	call   9480 <log_msg@plt>
    3691:	83 c4 10             	add    $0x10,%esp
    3694:	e9 19 ff ff ff       	jmp    35b2 <main+0x52>
    3699:	50                   	push   %eax
    369a:	68 4c 8e 00 00       	push   $0x8e4c
    369f:	eb e7                	jmp    3688 <main+0x128>
    36a1:	66 90                	xchg   %ax,%ax
    36a3:	66 90                	xchg   %ax,%ax
    36a5:	66 90                	xchg   %ax,%ax
    36a7:	66 90                	xchg   %ax,%ax
    36a9:	66 90                	xchg   %ax,%ax
    36ab:	66 90                	xchg   %ax,%ax
    36ad:	66 90                	xchg   %ax,%ax
    36af:	90                   	nop

000036b0 <label_open>:
    36b0:	55                   	push   %ebp
    36b1:	89 e5                	mov    %esp,%ebp
    36b3:	57                   	push   %edi
    36b4:	56                   	push   %esi
    36b5:	53                   	push   %ebx
    36b6:	83 ec 0c             	sub    $0xc,%esp
    36b9:	bf 24 b3 00 00       	mov    $0xb324,%edi
    36be:	a1 24 b3 00 00       	mov    0xb324,%eax
    36c3:	8b 75 08             	mov    0x8(%ebp),%esi
    36c6:	8b 5d 0c             	mov    0xc(%ebp),%ebx
    36c9:	85 c0                	test   %eax,%eax
    36cb:	75 0c                	jne    36d9 <label_open+0x29>
    36cd:	eb 21                	jmp    36f0 <label_open+0x40>
    36cf:	90                   	nop
    36d0:	83 c7 04             	add    $0x4,%edi
    36d3:	8b 07                	mov    (%edi),%eax
    36d5:	85 c0                	test   %eax,%eax
    36d7:	74 17                	je     36f0 <label_open+0x40>
    36d9:	52                   	push   %edx
    36da:	52                   	push   %edx
    36db:	53                   	push   %ebx
    36dc:	56                   	push   %esi
    36dd:	ff 10                	call   *(%eax)
    36df:	83 c4 10             	add    $0x10,%esp
    36e2:	85 c0                	test   %eax,%eax
    36e4:	75 ea                	jne    36d0 <label_open+0x20>
    36e6:	8d 65 f4             	lea    -0xc(%ebp),%esp
    36e9:	5b                   	pop    %ebx
    36ea:	5e                   	pop    %esi
    36eb:	5f                   	pop    %edi
    36ec:	5d                   	pop    %ebp
    36ed:	c3                   	ret    
    36ee:	66 90                	xchg   %ax,%ax
    36f0:	8d 65 f4             	lea    -0xc(%ebp),%esp
    36f3:	b8 f5 ff ff ff       	mov    $0xfffffff5,%eax
    36f8:	5b                   	pop    %ebx
    36f9:	5e                   	pop    %esi
    36fa:	5f                   	pop    %edi
    36fb:	5d                   	pop    %ebp
    36fc:	c3                   	ret    
    36fd:	8d 76 00             	lea    0x0(%esi),%esi

00003700 <label_create>:
    3700:	55                   	push   %ebp
    3701:	89 e5                	mov    %esp,%ebp
    3703:	8b 45 0c             	mov    0xc(%ebp),%eax
    3706:	8b 55 08             	mov    0x8(%ebp),%edx
    3709:	8b 4d 10             	mov    0x10(%ebp),%ecx
    370c:	83 f8 01             	cmp    $0x1,%eax
    370f:	74 2f                	je     3740 <label_create+0x40>
    3711:	72 25                	jb     3738 <label_create+0x38>
    3713:	83 f8 02             	cmp    $0x2,%eax
    3716:	75 18                	jne    3730 <label_create+0x30>
    3718:	b8 c0 b3 00 00       	mov    $0xb3c0,%eax
    371d:	89 4d 0c             	mov    %ecx,0xc(%ebp)
    3720:	89 55 08             	mov    %edx,0x8(%ebp)
    3723:	5d                   	pop    %ebp
    3724:	8b 40 04             	mov    0x4(%eax),%eax
    3727:	ff e0                	jmp    *%eax
    3729:	8d b4 26 00 00 00 00 	lea    0x0(%esi,%eiz,1),%esi
    3730:	b8 f5 ff ff ff       	mov    $0xfffffff5,%eax
    3735:	5d                   	pop    %ebp
    3736:	c3                   	ret    
    3737:	90                   	nop
    3738:	b8 f2 ff ff ff       	mov    $0xfffffff2,%eax
    373d:	5d                   	pop    %ebp
    373e:	c3                   	ret    
    373f:	90                   	nop
    3740:	b8 80 b3 00 00       	mov    $0xb380,%eax
    3745:	89 4d 0c             	mov    %ecx,0xc(%ebp)
    3748:	89 55 08             	mov    %edx,0x8(%ebp)
    374b:	5d                   	pop    %ebp
    374c:	8b 40 04             	mov    0x4(%eax),%eax
    374f:	ff e0                	jmp    *%eax
    3751:	eb 0d                	jmp    3760 <label_close>
    3753:	90                   	nop
    3754:	90                   	nop
    3755:	90                   	nop
    3756:	90                   	nop
    3757:	90                   	nop
    3758:	90                   	nop
    3759:	90                   	nop
    375a:	90                   	nop
    375b:	90                   	nop
    375c:	90                   	nop
    375d:	90                   	nop
    375e:	90                   	nop
    375f:	90                   	nop

00003760 <label_close>:
    3760:	55                   	push   %ebp
    3761:	89 e5                	mov    %esp,%ebp
    3763:	8b 45 08             	mov    0x8(%ebp),%eax
    3766:	85 c0                	test   %eax,%eax
    3768:	74 0e                	je     3778 <label_close+0x18>
    376a:	8b 10                	mov    (%eax),%edx
    376c:	5d                   	pop    %ebp
    376d:	8b 42 08             	mov    0x8(%edx),%eax
    3770:	ff e0                	jmp    *%eax
    3772:	8d b6 00 00 00 00    	lea    0x0(%esi),%esi
    3778:	5d                   	pop    %ebp
    3779:	c3                   	ret    
    377a:	8d b6 00 00 00 00    	lea    0x0(%esi),%esi

00003780 <label_destroy>:
    3780:	55                   	push   %ebp
    3781:	89 e5                	mov    %esp,%ebp
    3783:	8b 45 08             	mov    0x8(%ebp),%eax
    3786:	5d                   	pop    %ebp
    3787:	8b 10                	mov    (%eax),%edx
    3789:	8b 42 0c             	mov    0xc(%edx),%eax
    378c:	ff e0                	jmp    *%eax
    378e:	66 90                	xchg   %ax,%ax

00003790 <label_get_info>:
    3790:	55                   	push   %ebp
    3791:	89 e5                	mov    %esp,%ebp
    3793:	8b 45 08             	mov    0x8(%ebp),%eax
    3796:	5d                   	pop    %ebp
    3797:	8b 10                	mov    (%eax),%edx
    3799:	8b 42 10             	mov    0x10(%edx),%eax
    379c:	ff e0                	jmp    *%eax
    379e:	66 90                	xchg   %ax,%ax

000037a0 <label_part_first>:
    37a0:	55                   	push   %ebp
    37a1:	89 e5                	mov    %esp,%ebp
    37a3:	8b 45 08             	mov    0x8(%ebp),%eax
    37a6:	5d                   	pop    %ebp
    37a7:	8b 10                	mov    (%eax),%edx
    37a9:	8b 42 14             	mov    0x14(%edx),%eax
    37ac:	ff e0                	jmp    *%eax
    37ae:	66 90                	xchg   %ax,%ax

000037b0 <label_part_next>:
    37b0:	55                   	push   %ebp
    37b1:	89 e5                	mov    %esp,%ebp
    37b3:	8b 45 08             	mov    0x8(%ebp),%eax
    37b6:	5d                   	pop    %ebp
    37b7:	8b 10                	mov    (%eax),%edx
    37b9:	8b 12                	mov    (%edx),%edx
    37bb:	8b 42 18             	mov    0x18(%edx),%eax
    37be:	ff e0                	jmp    *%eax

000037c0 <label_part_get_info>:
    37c0:	55                   	push   %ebp
    37c1:	89 e5                	mov    %esp,%ebp
    37c3:	8b 45 08             	mov    0x8(%ebp),%eax
    37c6:	5d                   	pop    %ebp
    37c7:	8b 10                	mov    (%eax),%edx
    37c9:	8b 12                	mov    (%edx),%edx
    37cb:	8b 42 1c             	mov    0x1c(%edx),%eax
    37ce:	ff e0                	jmp    *%eax

000037d0 <label_part_create>:
    37d0:	55                   	push   %ebp
    37d1:	89 e5                	mov    %esp,%ebp
    37d3:	8b 45 08             	mov    0x8(%ebp),%eax
    37d6:	5d                   	pop    %ebp
    37d7:	8b 10                	mov    (%eax),%edx
    37d9:	8b 42 20             	mov    0x20(%edx),%eax
    37dc:	ff e0                	jmp    *%eax
    37de:	66 90                	xchg   %ax,%ax

000037e0 <label_part_destroy>:
    37e0:	55                   	push   %ebp
    37e1:	89 e5                	mov    %esp,%ebp
    37e3:	8b 45 08             	mov    0x8(%ebp),%eax
    37e6:	5d                   	pop    %ebp
    37e7:	8b 10                	mov    (%eax),%edx
    37e9:	8b 12                	mov    (%edx),%edx
    37eb:	8b 42 24             	mov    0x24(%edx),%eax
    37ee:	ff e0                	jmp    *%eax

000037f0 <label_pspec_init>:
    37f0:	55                   	push   %ebp
    37f1:	89 e5                	mov    %esp,%ebp
    37f3:	83 ec 0c             	sub    $0xc,%esp
    37f6:	8b 45 08             	mov    0x8(%ebp),%eax
    37f9:	6a 34                	push   $0x34
    37fb:	6a 00                	push   $0x0
    37fd:	50                   	push   %eax
    37fe:	e8 dd 5d 00 00       	call   95e0 <memset@plt>
    3803:	83 c4 10             	add    $0x10,%esp
    3806:	c9                   	leave  
    3807:	c3                   	ret    
    3808:	90                   	nop
    3809:	8d b4 26 00 00 00 00 	lea    0x0(%esi,%eiz,1),%esi

00003810 <label_suggest_ptype>:
    3810:	55                   	push   %ebp
    3811:	89 e5                	mov    %esp,%ebp
    3813:	8b 45 08             	mov    0x8(%ebp),%eax
    3816:	5d                   	pop    %ebp
    3817:	8b 10                	mov    (%eax),%edx
    3819:	8b 42 28             	mov    0x28(%edx),%eax
    381c:	ff e0                	jmp    *%eax
    381e:	66 90                	xchg   %ax,%ax

00003820 <dummy_create>:
    3820:	55                   	push   %ebp
    3821:	b8 f5 ff ff ff       	mov    $0xfffffff5,%eax
    3826:	89 e5                	mov    %esp,%ebp
    3828:	5d                   	pop    %ebp
    3829:	c3                   	ret    
    382a:	8d b6 00 00 00 00    	lea    0x0(%esi),%esi

00003830 <dummy_part_first>:
    3830:	55                   	push   %ebp
    3831:	89 e5                	mov    %esp,%ebp
    3833:	8b 55 08             	mov    0x8(%ebp),%edx
    3836:	8b 42 10             	mov    0x10(%edx),%eax
    3839:	85 c0                	test   %eax,%eax
    383b:	74 0c                	je     3849 <dummy_part_first+0x19>
    383d:	83 c2 0c             	add    $0xc,%edx
    3840:	39 d0                	cmp    %edx,%eax
    3842:	74 05                	je     3849 <dummy_part_first+0x19>
    3844:	83 e8 04             	sub    $0x4,%eax
    3847:	5d                   	pop    %ebp
    3848:	c3                   	ret    
    3849:	31 c0                	xor    %eax,%eax
    384b:	5d                   	pop    %ebp
    384c:	c3                   	ret    
    384d:	8d 76 00             	lea    0x0(%esi),%esi

00003850 <dummy_part_next>:
    3850:	55                   	push   %ebp
    3851:	89 e5                	mov    %esp,%ebp
    3853:	8b 55 08             	mov    0x8(%ebp),%edx
    3856:	8b 42 08             	mov    0x8(%edx),%eax
    3859:	8b 12                	mov    (%edx),%edx
    385b:	83 c2 0c             	add    $0xc,%edx
    385e:	39 d0                	cmp    %edx,%eax
    3860:	74 09                	je     386b <dummy_part_next+0x1b>
    3862:	85 c0                	test   %eax,%eax
    3864:	74 05                	je     386b <dummy_part_next+0x1b>
    3866:	83 e8 04             	sub    $0x4,%eax
    3869:	5d                   	pop    %ebp
    386a:	c3                   	ret    
    386b:	31 c0                	xor    %eax,%eax
    386d:	5d                   	pop    %ebp
    386e:	c3                   	ret    
    386f:	90                   	nop

00003870 <dummy_part_get_info>:
    3870:	55                   	push   %ebp
    3871:	89 e5                	mov    %esp,%ebp
    3873:	53                   	push   %ebx
    3874:	8b 5d 08             	mov    0x8(%ebp),%ebx
    3877:	8b 4d 0c             	mov    0xc(%ebp),%ecx
    387a:	8b 43 1c             	mov    0x1c(%ebx),%eax
    387d:	8b 53 2c             	mov    0x2c(%ebx),%edx
    3880:	89 01                	mov    %eax,(%ecx)
    3882:	8b 43 28             	mov    0x28(%ebx),%eax
    3885:	89 41 08             	mov    %eax,0x8(%ecx)
    3888:	89 51 0c             	mov    %edx,0xc(%ecx)
    388b:	8b 43 30             	mov    0x30(%ebx),%eax
    388e:	8b 53 34             	mov    0x34(%ebx),%edx
    3891:	c7 41 04 00 00 00 00 	movl   $0x0,0x4(%ecx)
    3898:	89 41 10             	mov    %eax,0x10(%ecx)
    389b:	89 51 14             	mov    %edx,0x14(%ecx)
    389e:	5b                   	pop    %ebx
    389f:	5d                   	pop    %ebp
    38a0:	c3                   	ret    
    38a1:	eb 0d                	jmp    38b0 <dummy_part_create>
    38a3:	90                   	nop
    38a4:	90                   	nop
    38a5:	90                   	nop
    38a6:	90                   	nop
    38a7:	90                   	nop
    38a8:	90                   	nop
    38a9:	90                   	nop
    38aa:	90                   	nop
    38ab:	90                   	nop
    38ac:	90                   	nop
    38ad:	90                   	nop
    38ae:	90                   	nop
    38af:	90                   	nop

000038b0 <dummy_part_create>:
    38b0:	55                   	push   %ebp
    38b1:	b8 f5 ff ff ff       	mov    $0xfffffff5,%eax
    38b6:	89 e5                	mov    %esp,%ebp
    38b8:	5d                   	pop    %ebp
    38b9:	c3                   	ret    
    38ba:	8d b6 00 00 00 00    	lea    0x0(%esi),%esi

000038c0 <dummy_part_destroy>:
    38c0:	55                   	push   %ebp
    38c1:	b8 f5 ff ff ff       	mov    $0xfffffff5,%eax
    38c6:	89 e5                	mov    %esp,%ebp
    38c8:	5d                   	pop    %ebp
    38c9:	c3                   	ret    
    38ca:	8d b6 00 00 00 00    	lea    0x0(%esi),%esi

000038d0 <dummy_suggest_ptype>:
    38d0:	55                   	push   %ebp
    38d1:	b8 f5 ff ff ff       	mov    $0xfffffff5,%eax
    38d6:	89 e5                	mov    %esp,%ebp
    38d8:	5d                   	pop    %ebp
    38d9:	c3                   	ret    
    38da:	8d b6 00 00 00 00    	lea    0x0(%esi),%esi

000038e0 <dummy_get_info>:
    38e0:	55                   	push   %ebp
    38e1:	89 e5                	mov    %esp,%ebp
    38e3:	56                   	push   %esi
    38e4:	53                   	push   %ebx
    38e5:	50                   	push   %eax
    38e6:	8b 75 08             	mov    0x8(%ebp),%esi
    38e9:	8b 5d 0c             	mov    0xc(%ebp),%ebx
    38ec:	6a 18                	push   $0x18
    38ee:	6a 00                	push   $0x0
    38f0:	53                   	push   %ebx
    38f1:	e8 ea 5c 00 00       	call   95e0 <memset@plt>
    38f6:	8b 46 24             	mov    0x24(%esi),%eax
    38f9:	8b 56 28             	mov    0x28(%esi),%edx
    38fc:	89 53 0c             	mov    %edx,0xc(%ebx)
    38ff:	89 43 08             	mov    %eax,0x8(%ebx)
    3902:	8b 56 30             	mov    0x30(%esi),%edx
    3905:	8b 46 2c             	mov    0x2c(%esi),%eax
    3908:	89 43 10             	mov    %eax,0x10(%ebx)
    390b:	c7 03 00 00 00 00    	movl   $0x0,(%ebx)
    3911:	c7 43 04 00 00 00 00 	movl   $0x0,0x4(%ebx)
    3918:	89 53 14             	mov    %edx,0x14(%ebx)
    391b:	8d 65 f8             	lea    -0x8(%ebp),%esp
    391e:	31 c0                	xor    %eax,%eax
    3920:	5b                   	pop    %ebx
    3921:	5e                   	pop    %esi
    3922:	5d                   	pop    %ebp
    3923:	c3                   	ret    
    3924:	8d b6 00 00 00 00    	lea    0x0(%esi),%esi
    392a:	8d bf 00 00 00 00    	lea    0x0(%edi),%edi

00003930 <dummy_close>:
    3930:	55                   	push   %ebp
    3931:	89 e5                	mov    %esp,%ebp
    3933:	56                   	push   %esi
    3934:	53                   	push   %ebx
    3935:	8b 5d 08             	mov    0x8(%ebp),%ebx
    3938:	8b 43 10             	mov    0x10(%ebx),%eax
    393b:	8d 73 0c             	lea    0xc(%ebx),%esi
    393e:	39 c6                	cmp    %eax,%esi
    3940:	75 66                	jne    39a8 <dummy_close+0x78>
    3942:	eb 68                	jmp    39ac <dummy_close+0x7c>
    3944:	8d 74 26 00          	lea    0x0(%esi,%eiz,1),%esi
    3948:	83 e8 04             	sub    $0x4,%eax
    394b:	74 5f                	je     39ac <dummy_close+0x7c>
    394d:	8b 48 04             	mov    0x4(%eax),%ecx
    3950:	85 c9                	test   %ecx,%ecx
    3952:	74 0f                	je     3963 <dummy_close+0x33>
    3954:	8b 50 08             	mov    0x8(%eax),%edx
    3957:	85 d2                	test   %edx,%edx
    3959:	74 08                	je     3963 <dummy_close+0x33>
    395b:	89 0a                	mov    %ecx,(%edx)
    395d:	8b 48 04             	mov    0x4(%eax),%ecx
    3960:	89 51 04             	mov    %edx,0x4(%ecx)
    3963:	8b 48 0c             	mov    0xc(%eax),%ecx
    3966:	c7 40 04 00 00 00 00 	movl   $0x0,0x4(%eax)
    396d:	c7 40 08 00 00 00 00 	movl   $0x0,0x8(%eax)
    3974:	85 c9                	test   %ecx,%ecx
    3976:	74 0f                	je     3987 <dummy_close+0x57>
    3978:	8b 50 10             	mov    0x10(%eax),%edx
    397b:	85 d2                	test   %edx,%edx
    397d:	74 08                	je     3987 <dummy_close+0x57>
    397f:	89 0a                	mov    %ecx,(%edx)
    3981:	8b 48 0c             	mov    0xc(%eax),%ecx
    3984:	89 51 04             	mov    %edx,0x4(%ecx)
    3987:	83 ec 0c             	sub    $0xc,%esp
    398a:	c7 40 0c 00 00 00 00 	movl   $0x0,0xc(%eax)
    3991:	c7 40 10 00 00 00 00 	movl   $0x0,0x10(%eax)
    3998:	50                   	push   %eax
    3999:	e8 92 5d 00 00       	call   9730 <free@plt>
    399e:	8b 43 10             	mov    0x10(%ebx),%eax
    39a1:	83 c4 10             	add    $0x10,%esp
    39a4:	39 c6                	cmp    %eax,%esi
    39a6:	74 04                	je     39ac <dummy_close+0x7c>
    39a8:	85 c0                	test   %eax,%eax
    39aa:	75 9c                	jne    3948 <dummy_close+0x18>
    39ac:	89 5d 08             	mov    %ebx,0x8(%ebp)
    39af:	8d 65 f8             	lea    -0x8(%ebp),%esp
    39b2:	5b                   	pop    %ebx
    39b3:	5e                   	pop    %esi
    39b4:	5d                   	pop    %ebp
    39b5:	e9 76 5d 00 00       	jmp    9730 <free@plt>
    39ba:	8d b6 00 00 00 00    	lea    0x0(%esi),%esi

000039c0 <dummy_open>:
    39c0:	55                   	push   %ebp
    39c1:	89 e5                	mov    %esp,%ebp
    39c3:	57                   	push   %edi
    39c4:	56                   	push   %esi
    39c5:	53                   	push   %ebx
    39c6:	83 ec 34             	sub    $0x34,%esp
    39c9:	8d 45 dc             	lea    -0x24(%ebp),%eax
    39cc:	8b 75 08             	mov    0x8(%ebp),%esi
    39cf:	50                   	push   %eax
    39d0:	56                   	push   %esi
    39d1:	e8 9a 46 00 00       	call   8070 <block_get_bsize>
    39d6:	83 c4 10             	add    $0x10,%esp
    39d9:	85 c0                	test   %eax,%eax
    39db:	0f 85 0f 01 00 00    	jne    3af0 <dummy_open+0x130>
    39e1:	8d 45 e0             	lea    -0x20(%ebp),%eax
    39e4:	51                   	push   %ecx
    39e5:	51                   	push   %ecx
    39e6:	50                   	push   %eax
    39e7:	56                   	push   %esi
    39e8:	e8 13 47 00 00       	call   8100 <block_get_nblocks>
    39ed:	83 c4 10             	add    $0x10,%esp
    39f0:	89 45 d4             	mov    %eax,-0x2c(%ebp)
    39f3:	85 c0                	test   %eax,%eax
    39f5:	0f 85 f5 00 00 00    	jne    3af0 <dummy_open+0x130>
    39fb:	52                   	push   %edx
    39fc:	52                   	push   %edx
    39fd:	6a 74                	push   $0x74
    39ff:	6a 01                	push   $0x1
    3a01:	e8 0a 5b 00 00       	call   9510 <calloc@plt>
    3a06:	83 c4 10             	add    $0x10,%esp
    3a09:	89 c3                	mov    %eax,%ebx
    3a0b:	85 c0                	test   %eax,%eax
    3a0d:	0f 84 0d 01 00 00    	je     3b20 <dummy_open+0x160>
    3a13:	8d 48 14             	lea    0x14(%eax),%ecx
    3a16:	8d 78 0c             	lea    0xc(%eax),%edi
    3a19:	89 78 0c             	mov    %edi,0xc(%eax)
    3a1c:	89 78 10             	mov    %edi,0x10(%eax)
    3a1f:	89 48 14             	mov    %ecx,0x14(%eax)
    3a22:	89 48 18             	mov    %ecx,0x18(%eax)
    3a25:	8d 40 1c             	lea    0x1c(%eax),%eax
    3a28:	8b 55 e4             	mov    -0x1c(%ebp),%edx
    3a2b:	89 43 1c             	mov    %eax,0x1c(%ebx)
    3a2e:	89 43 20             	mov    %eax,0x20(%ebx)
    3a31:	8b 45 e0             	mov    -0x20(%ebp),%eax
    3a34:	89 55 cc             	mov    %edx,-0x34(%ebp)
    3a37:	89 45 c8             	mov    %eax,-0x38(%ebp)
    3a3a:	83 c0 01             	add    $0x1,%eax
    3a3d:	83 d2 00             	adc    $0x0,%edx
    3a40:	89 43 2c             	mov    %eax,0x2c(%ebx)
    3a43:	8b 45 dc             	mov    -0x24(%ebp),%eax
    3a46:	89 4d d0             	mov    %ecx,-0x30(%ebp)
    3a49:	89 43 3c             	mov    %eax,0x3c(%ebx)
    3a4c:	c7 03 40 b3 00 00    	movl   $0xb340,(%ebx)
    3a52:	c7 43 04 00 00 00 00 	movl   $0x0,0x4(%ebx)
    3a59:	50                   	push   %eax
    3a5a:	89 73 08             	mov    %esi,0x8(%ebx)
    3a5d:	50                   	push   %eax
    3a5e:	c7 43 24 00 00 00 00 	movl   $0x0,0x24(%ebx)
    3a65:	6a 5c                	push   $0x5c
    3a67:	c7 43 28 00 00 00 00 	movl   $0x0,0x28(%ebx)
    3a6e:	6a 01                	push   $0x1
    3a70:	89 53 30             	mov    %edx,0x30(%ebx)
    3a73:	c7 43 34 00 00 00 00 	movl   $0x0,0x34(%ebx)
    3a7a:	e8 91 5a 00 00       	call   9510 <calloc@plt>
    3a7f:	83 c4 10             	add    $0x10,%esp
    3a82:	85 c0                	test   %eax,%eax
    3a84:	0f 84 96 00 00 00    	je     3b20 <dummy_open+0x160>
    3a8a:	8b 73 0c             	mov    0xc(%ebx),%esi
    3a8d:	8b 55 c8             	mov    -0x38(%ebp),%edx
    3a90:	8b 4d cc             	mov    -0x34(%ebp),%ecx
    3a93:	89 50 30             	mov    %edx,0x30(%eax)
    3a96:	89 48 34             	mov    %ecx,0x34(%eax)
    3a99:	8d 50 04             	lea    0x4(%eax),%edx
    3a9c:	8b 4d d0             	mov    -0x30(%ebp),%ecx
    3a9f:	89 18                	mov    %ebx,(%eax)
    3aa1:	c7 40 1c 00 00 00 00 	movl   $0x0,0x1c(%eax)
    3aa8:	c7 40 28 00 00 00 00 	movl   $0x0,0x28(%eax)
    3aaf:	c7 40 2c 00 00 00 00 	movl   $0x0,0x2c(%eax)
    3ab6:	c7 40 38 00 00 00 00 	movl   $0x0,0x38(%eax)
    3abd:	89 78 08             	mov    %edi,0x8(%eax)
    3ac0:	89 70 04             	mov    %esi,0x4(%eax)
    3ac3:	89 56 04             	mov    %edx,0x4(%esi)
    3ac6:	89 48 10             	mov    %ecx,0x10(%eax)
    3ac9:	8b 4b 14             	mov    0x14(%ebx),%ecx
    3acc:	89 53 0c             	mov    %edx,0xc(%ebx)
    3acf:	89 48 0c             	mov    %ecx,0xc(%eax)
    3ad2:	8d 50 0c             	lea    0xc(%eax),%edx
    3ad5:	8b 45 0c             	mov    0xc(%ebp),%eax
    3ad8:	89 51 04             	mov    %edx,0x4(%ecx)
    3adb:	89 53 14             	mov    %edx,0x14(%ebx)
    3ade:	89 18                	mov    %ebx,(%eax)
    3ae0:	8b 45 d4             	mov    -0x2c(%ebp),%eax
    3ae3:	8d 65 f4             	lea    -0xc(%ebp),%esp
    3ae6:	5b                   	pop    %ebx
    3ae7:	5e                   	pop    %esi
    3ae8:	5f                   	pop    %edi
    3ae9:	5d                   	pop    %ebp
    3aea:	c3                   	ret    
    3aeb:	90                   	nop
    3aec:	8d 74 26 00          	lea    0x0(%esi,%eiz,1),%esi
    3af0:	83 ec 0c             	sub    $0xc,%esp
    3af3:	6a 00                	push   $0x0
    3af5:	e8 36 5c 00 00       	call   9730 <free@plt>
    3afa:	c7 04 24 00 00 00 00 	movl   $0x0,(%esp)
    3b01:	e8 2a 5c 00 00       	call   9730 <free@plt>
    3b06:	c7 45 d4 f6 fe ff ff 	movl   $0xfffffef6,-0x2c(%ebp)
    3b0d:	83 c4 10             	add    $0x10,%esp
    3b10:	8b 45 d4             	mov    -0x2c(%ebp),%eax
    3b13:	8d 65 f4             	lea    -0xc(%ebp),%esp
    3b16:	5b                   	pop    %ebx
    3b17:	5e                   	pop    %esi
    3b18:	5f                   	pop    %edi
    3b19:	5d                   	pop    %ebp
    3b1a:	c3                   	ret    
    3b1b:	90                   	nop
    3b1c:	8d 74 26 00          	lea    0x0(%esi,%eiz,1),%esi
    3b20:	c7 45 d4 fe ff ff ff 	movl   $0xfffffffe,-0x2c(%ebp)
    3b27:	eb b7                	jmp    3ae0 <dummy_open+0x120>
    3b29:	8d b4 26 00 00 00 00 	lea    0x0(%esi,%eiz,1),%esi

00003b30 <dummy_destroy>:
    3b30:	55                   	push   %ebp
    3b31:	b8 f5 ff ff ff       	mov    $0xfffffff5,%eax
    3b36:	89 e5                	mov    %esp,%ebp
    3b38:	5d                   	pop    %ebp
    3b39:	c3                   	ret    
    3b3a:	66 90                	xchg   %ax,%ax
    3b3c:	66 90                	xchg   %ax,%ax
    3b3e:	66 90                	xchg   %ax,%ax

00003b40 <mbr_part_first>:
    3b40:	55                   	push   %ebp
    3b41:	89 e5                	mov    %esp,%ebp
    3b43:	8b 55 08             	mov    0x8(%ebp),%edx
    3b46:	8b 42 10             	mov    0x10(%edx),%eax
    3b49:	85 c0                	test   %eax,%eax
    3b4b:	74 0c                	je     3b59 <mbr_part_first+0x19>
    3b4d:	83 c2 0c             	add    $0xc,%edx
    3b50:	39 d0                	cmp    %edx,%eax
    3b52:	74 05                	je     3b59 <mbr_part_first+0x19>
    3b54:	83 e8 04             	sub    $0x4,%eax
    3b57:	5d                   	pop    %ebp
    3b58:	c3                   	ret    
    3b59:	31 c0                	xor    %eax,%eax
    3b5b:	5d                   	pop    %ebp
    3b5c:	c3                   	ret    
    3b5d:	8d 76 00             	lea    0x0(%esi),%esi

00003b60 <mbr_part_next>:
    3b60:	55                   	push   %ebp
    3b61:	89 e5                	mov    %esp,%ebp
    3b63:	8b 55 08             	mov    0x8(%ebp),%edx
    3b66:	8b 42 08             	mov    0x8(%edx),%eax
    3b69:	8b 12                	mov    (%edx),%edx
    3b6b:	83 c2 0c             	add    $0xc,%edx
    3b6e:	39 d0                	cmp    %edx,%eax
    3b70:	74 09                	je     3b7b <mbr_part_next+0x1b>
    3b72:	85 c0                	test   %eax,%eax
    3b74:	74 05                	je     3b7b <mbr_part_next+0x1b>
    3b76:	83 e8 04             	sub    $0x4,%eax
    3b79:	5d                   	pop    %ebp
    3b7a:	c3                   	ret    
    3b7b:	31 c0                	xor    %eax,%eax
    3b7d:	5d                   	pop    %ebp
    3b7e:	c3                   	ret    
    3b7f:	90                   	nop

00003b80 <mbr_suggest_ptype>:
    3b80:	55                   	push   %ebp
    3b81:	89 e5                	mov    %esp,%ebp
    3b83:	8b 45 10             	mov    0x10(%ebp),%eax
    3b86:	8b 55 0c             	mov    0xc(%ebp),%edx
    3b89:	83 fa 04             	cmp    $0x4,%edx
    3b8c:	c7 00 00 00 00 00    	movl   $0x0,(%eax)
    3b92:	77 34                	ja     3bc8 <mbr_suggest_ptype+0x48>
    3b94:	ff 24 95 70 8e 00 00 	jmp    *0x8e70(,%edx,4)
    3b9b:	90                   	nop
    3b9c:	8d 74 26 00          	lea    0x0(%esi,%eiz,1),%esi
    3ba0:	c6 40 04 0c          	movb   $0xc,0x4(%eax)
    3ba4:	31 c0                	xor    %eax,%eax
    3ba6:	5d                   	pop    %ebp
    3ba7:	c3                   	ret    
    3ba8:	c6 40 04 81          	movb   $0x81,0x4(%eax)
    3bac:	31 c0                	xor    %eax,%eax
    3bae:	eb f6                	jmp    3ba6 <mbr_suggest_ptype+0x26>
    3bb0:	c6 40 04 07          	movb   $0x7,0x4(%eax)
    3bb4:	31 c0                	xor    %eax,%eax
    3bb6:	eb ee                	jmp    3ba6 <mbr_suggest_ptype+0x26>
    3bb8:	c6 40 04 83          	movb   $0x83,0x4(%eax)
    3bbc:	31 c0                	xor    %eax,%eax
    3bbe:	eb e6                	jmp    3ba6 <mbr_suggest_ptype+0x26>
    3bc0:	c6 40 04 0e          	movb   $0xe,0x4(%eax)
    3bc4:	31 c0                	xor    %eax,%eax
    3bc6:	eb de                	jmp    3ba6 <mbr_suggest_ptype+0x26>
    3bc8:	c6 40 04 00          	movb   $0x0,0x4(%eax)
    3bcc:	b8 f2 ff ff ff       	mov    $0xfffffff2,%eax
    3bd1:	5d                   	pop    %ebp
    3bd2:	c3                   	ret    
    3bd3:	8d b6 00 00 00 00    	lea    0x0(%esi),%esi
    3bd9:	8d bc 27 00 00 00 00 	lea    0x0(%edi,%eiz,1),%edi

00003be0 <mbr_destroy>:
    3be0:	55                   	push   %ebp
    3be1:	89 e5                	mov    %esp,%ebp
    3be3:	57                   	push   %edi
    3be4:	56                   	push   %esi
    3be5:	53                   	push   %ebx
    3be6:	83 ec 0c             	sub    $0xc,%esp
    3be9:	8b 5d 08             	mov    0x8(%ebp),%ebx
    3bec:	8b 43 10             	mov    0x10(%ebx),%eax
    3bef:	8d 53 0c             	lea    0xc(%ebx),%edx
    3bf2:	39 d0                	cmp    %edx,%eax
    3bf4:	74 2a                	je     3c20 <mbr_destroy+0x40>
    3bf6:	85 c0                	test   %eax,%eax
    3bf8:	74 26                	je     3c20 <mbr_destroy+0x40>
    3bfa:	83 f8 04             	cmp    $0x4,%eax
    3bfd:	74 21                	je     3c20 <mbr_destroy+0x40>
    3bff:	bf fb fe ff ff       	mov    $0xfffffefb,%edi
    3c04:	31 f6                	xor    %esi,%esi
    3c06:	83 ec 0c             	sub    $0xc,%esp
    3c09:	56                   	push   %esi
    3c0a:	e8 21 5b 00 00       	call   9730 <free@plt>
    3c0f:	83 c4 10             	add    $0x10,%esp
    3c12:	8d 65 f4             	lea    -0xc(%ebp),%esp
    3c15:	89 f8                	mov    %edi,%eax
    3c17:	5b                   	pop    %ebx
    3c18:	5e                   	pop    %esi
    3c19:	5f                   	pop    %edi
    3c1a:	5d                   	pop    %ebp
    3c1b:	c3                   	ret    
    3c1c:	8d 74 26 00          	lea    0x0(%esi,%eiz,1),%esi
    3c20:	52                   	push   %edx
    3c21:	52                   	push   %edx
    3c22:	8b 4b 3c             	mov    0x3c(%ebx),%ecx
    3c25:	51                   	push   %ecx
    3c26:	6a 01                	push   $0x1
    3c28:	e8 e3 58 00 00       	call   9510 <calloc@plt>
    3c2d:	83 c4 10             	add    $0x10,%esp
    3c30:	89 c6                	mov    %eax,%esi
    3c32:	85 c0                	test   %eax,%eax
    3c34:	74 2a                	je     3c60 <mbr_destroy+0x80>
    3c36:	83 ec 0c             	sub    $0xc,%esp
    3c39:	50                   	push   %eax
    3c3a:	6a 01                	push   $0x1
    3c3c:	8b 43 08             	mov    0x8(%ebx),%eax
    3c3f:	6a 00                	push   $0x0
    3c41:	6a 00                	push   $0x0
    3c43:	50                   	push   %eax
    3c44:	e8 97 42 00 00       	call   7ee0 <block_write_direct>
    3c49:	83 c4 20             	add    $0x20,%esp
    3c4c:	89 c7                	mov    %eax,%edi
    3c4e:	85 c0                	test   %eax,%eax
    3c50:	74 16                	je     3c68 <mbr_destroy+0x88>
    3c52:	bf f6 fe ff ff       	mov    $0xfffffef6,%edi
    3c57:	eb ad                	jmp    3c06 <mbr_destroy+0x26>
    3c59:	8d b4 26 00 00 00 00 	lea    0x0(%esi,%eiz,1),%esi
    3c60:	bf fe ff ff ff       	mov    $0xfffffffe,%edi
    3c65:	eb 9f                	jmp    3c06 <mbr_destroy+0x26>
    3c67:	90                   	nop
    3c68:	83 ec 0c             	sub    $0xc,%esp
    3c6b:	56                   	push   %esi
    3c6c:	e8 bf 5a 00 00       	call   9730 <free@plt>
    3c71:	89 1c 24             	mov    %ebx,(%esp)
    3c74:	e8 b7 5a 00 00       	call   9730 <free@plt>
    3c79:	83 c4 10             	add    $0x10,%esp
    3c7c:	eb 94                	jmp    3c12 <mbr_destroy+0x32>
    3c7e:	66 90                	xchg   %ax,%ax

00003c80 <mbr_get_info>:
    3c80:	55                   	push   %ebp
    3c81:	89 e5                	mov    %esp,%ebp
    3c83:	56                   	push   %esi
    3c84:	53                   	push   %ebx
    3c85:	50                   	push   %eax
    3c86:	8b 5d 0c             	mov    0xc(%ebp),%ebx
    3c89:	8b 75 08             	mov    0x8(%ebp),%esi
    3c8c:	6a 18                	push   $0x18
    3c8e:	6a 00                	push   $0x0
    3c90:	53                   	push   %ebx
    3c91:	e8 4a 59 00 00       	call   95e0 <memset@plt>
    3c96:	c7 03 01 00 00 00    	movl   $0x1,(%ebx)
    3c9c:	c7 43 04 01 00 00 00 	movl   $0x1,0x4(%ebx)
    3ca3:	8d 46 14             	lea    0x14(%esi),%eax
    3ca6:	89 04 24             	mov    %eax,(%esp)
    3ca9:	e8 b2 59 00 00       	call   9660 <list_count@plt>
    3cae:	83 c4 10             	add    $0x10,%esp
    3cb1:	83 f8 03             	cmp    $0x3,%eax
    3cb4:	8b 43 04             	mov    0x4(%ebx),%eax
    3cb7:	77 06                	ja     3cbf <mbr_get_info+0x3f>
    3cb9:	83 c8 04             	or     $0x4,%eax
    3cbc:	89 43 04             	mov    %eax,0x4(%ebx)
    3cbf:	a8 04                	test   $0x4,%al
    3cc1:	74 45                	je     3d08 <mbr_get_info+0x88>
    3cc3:	8b 4e 38             	mov    0x38(%esi),%ecx
    3cc6:	85 c9                	test   %ecx,%ecx
    3cc8:	74 4e                	je     3d18 <mbr_get_info+0x98>
    3cca:	83 c8 10             	or     $0x10,%eax
    3ccd:	89 43 04             	mov    %eax,0x4(%ebx)
    3cd0:	83 ec 0c             	sub    $0xc,%esp
    3cd3:	8d 46 0c             	lea    0xc(%esi),%eax
    3cd6:	50                   	push   %eax
    3cd7:	e8 84 59 00 00       	call   9660 <list_count@plt>
    3cdc:	83 c4 10             	add    $0x10,%esp
    3cdf:	85 c0                	test   %eax,%eax
    3ce1:	74 04                	je     3ce7 <mbr_get_info+0x67>
    3ce3:	83 4b 04 20          	orl    $0x20,0x4(%ebx)
    3ce7:	8b 46 24             	mov    0x24(%esi),%eax
    3cea:	8b 56 28             	mov    0x28(%esi),%edx
    3ced:	89 53 0c             	mov    %edx,0xc(%ebx)
    3cf0:	89 43 08             	mov    %eax,0x8(%ebx)
    3cf3:	8b 56 30             	mov    0x30(%esi),%edx
    3cf6:	8b 46 2c             	mov    0x2c(%esi),%eax
    3cf9:	89 43 10             	mov    %eax,0x10(%ebx)
    3cfc:	89 53 14             	mov    %edx,0x14(%ebx)
    3cff:	8d 65 f8             	lea    -0x8(%ebp),%esp
    3d02:	31 c0                	xor    %eax,%eax
    3d04:	5b                   	pop    %ebx
    3d05:	5e                   	pop    %esi
    3d06:	5d                   	pop    %ebp
    3d07:	c3                   	ret    
    3d08:	8b 56 38             	mov    0x38(%esi),%edx
    3d0b:	85 d2                	test   %edx,%edx
    3d0d:	75 bb                	jne    3cca <mbr_get_info+0x4a>
    3d0f:	eb bf                	jmp    3cd0 <mbr_get_info+0x50>
    3d11:	8d b4 26 00 00 00 00 	lea    0x0(%esi,%eiz,1),%esi
    3d18:	83 c8 08             	or     $0x8,%eax
    3d1b:	89 43 04             	mov    %eax,0x4(%ebx)
    3d1e:	eb b0                	jmp    3cd0 <mbr_get_info+0x50>

00003d20 <mbr_create>:
    3d20:	55                   	push   %ebp
    3d21:	89 e5                	mov    %esp,%ebp
    3d23:	57                   	push   %edi
    3d24:	56                   	push   %esi
    3d25:	53                   	push   %ebx
    3d26:	83 ec 34             	sub    $0x34,%esp
    3d29:	8d 45 dc             	lea    -0x24(%ebp),%eax
    3d2c:	50                   	push   %eax
    3d2d:	8b 45 08             	mov    0x8(%ebp),%eax
    3d30:	50                   	push   %eax
    3d31:	e8 3a 43 00 00       	call   8070 <block_get_bsize>
    3d36:	83 c4 10             	add    $0x10,%esp
    3d39:	85 c0                	test   %eax,%eax
    3d3b:	75 16                	jne    3d53 <mbr_create+0x33>
    3d3d:	8d 45 e0             	lea    -0x20(%ebp),%eax
    3d40:	57                   	push   %edi
    3d41:	57                   	push   %edi
    3d42:	50                   	push   %eax
    3d43:	8b 45 08             	mov    0x8(%ebp),%eax
    3d46:	50                   	push   %eax
    3d47:	e8 b4 43 00 00       	call   8100 <block_get_nblocks>
    3d4c:	83 c4 10             	add    $0x10,%esp
    3d4f:	85 c0                	test   %eax,%eax
    3d51:	74 2d                	je     3d80 <mbr_create+0x60>
    3d53:	bf f6 fe ff ff       	mov    $0xfffffef6,%edi
    3d58:	31 f6                	xor    %esi,%esi
    3d5a:	31 db                	xor    %ebx,%ebx
    3d5c:	83 ec 0c             	sub    $0xc,%esp
    3d5f:	56                   	push   %esi
    3d60:	e8 cb 59 00 00       	call   9730 <free@plt>
    3d65:	89 1c 24             	mov    %ebx,(%esp)
    3d68:	e8 c3 59 00 00       	call   9730 <free@plt>
    3d6d:	83 c4 10             	add    $0x10,%esp
    3d70:	8d 65 f4             	lea    -0xc(%ebp),%esp
    3d73:	89 f8                	mov    %edi,%eax
    3d75:	5b                   	pop    %ebx
    3d76:	5e                   	pop    %esi
    3d77:	5f                   	pop    %edi
    3d78:	5d                   	pop    %ebp
    3d79:	c3                   	ret    
    3d7a:	8d b6 00 00 00 00    	lea    0x0(%esi),%esi
    3d80:	8b 75 dc             	mov    -0x24(%ebp),%esi
    3d83:	53                   	push   %ebx
    3d84:	53                   	push   %ebx
    3d85:	56                   	push   %esi
    3d86:	6a 01                	push   $0x1
    3d88:	e8 83 57 00 00       	call   9510 <calloc@plt>
    3d8d:	83 c4 10             	add    $0x10,%esp
    3d90:	89 c6                	mov    %eax,%esi
    3d92:	85 c0                	test   %eax,%eax
    3d94:	0f 84 9e 00 00 00    	je     3e38 <mbr_create+0x118>
    3d9a:	51                   	push   %ecx
    3d9b:	51                   	push   %ecx
    3d9c:	6a 74                	push   $0x74
    3d9e:	6a 01                	push   $0x1
    3da0:	e8 6b 57 00 00       	call   9510 <calloc@plt>
    3da5:	83 c4 10             	add    $0x10,%esp
    3da8:	89 c3                	mov    %eax,%ebx
    3daa:	85 c0                	test   %eax,%eax
    3dac:	0f 84 f3 00 00 00    	je     3ea5 <mbr_create+0x185>
    3db2:	8d 40 0c             	lea    0xc(%eax),%eax
    3db5:	c7 86 b8 01 00 00 00 	movl   $0x0,0x1b8(%esi)
    3dbc:	00 00 00 
    3dbf:	89 43 0c             	mov    %eax,0xc(%ebx)
    3dc2:	89 43 10             	mov    %eax,0x10(%ebx)
    3dc5:	8d 43 14             	lea    0x14(%ebx),%eax
    3dc8:	66 c7 86 bc 01 00 00 	movw   $0x0,0x1bc(%esi)
    3dcf:	00 00 
    3dd1:	89 43 14             	mov    %eax,0x14(%ebx)
    3dd4:	89 43 18             	mov    %eax,0x18(%ebx)
    3dd7:	8d 43 1c             	lea    0x1c(%ebx),%eax
    3dda:	8d be be 01 00 00    	lea    0x1be(%esi),%edi
    3de0:	89 43 1c             	mov    %eax,0x1c(%ebx)
    3de3:	89 43 20             	mov    %eax,0x20(%ebx)
    3de6:	8d 86 fe 01 00 00    	lea    0x1fe(%esi),%eax
    3dec:	89 45 d4             	mov    %eax,-0x2c(%ebp)
    3def:	52                   	push   %edx
    3df0:	6a 10                	push   $0x10
    3df2:	6a 00                	push   $0x0
    3df4:	57                   	push   %edi
    3df5:	83 c7 10             	add    $0x10,%edi
    3df8:	e8 e3 57 00 00       	call   95e0 <memset@plt>
    3dfd:	83 c4 10             	add    $0x10,%esp
    3e00:	39 7d d4             	cmp    %edi,-0x2c(%ebp)
    3e03:	75 ea                	jne    3def <mbr_create+0xcf>
    3e05:	83 ec 0c             	sub    $0xc,%esp
    3e08:	66 c7 86 fe 01 00 00 	movw   $0xaa55,0x1fe(%esi)
    3e0f:	55 aa 
    3e11:	8b 45 08             	mov    0x8(%ebp),%eax
    3e14:	56                   	push   %esi
    3e15:	6a 01                	push   $0x1
    3e17:	6a 00                	push   $0x0
    3e19:	6a 00                	push   $0x0
    3e1b:	50                   	push   %eax
    3e1c:	e8 bf 40 00 00       	call   7ee0 <block_write_direct>
    3e21:	83 c4 20             	add    $0x20,%esp
    3e24:	89 c7                	mov    %eax,%edi
    3e26:	85 c0                	test   %eax,%eax
    3e28:	74 1e                	je     3e48 <mbr_create+0x128>
    3e2a:	bf f6 fe ff ff       	mov    $0xfffffef6,%edi
    3e2f:	e9 28 ff ff ff       	jmp    3d5c <mbr_create+0x3c>
    3e34:	8d 74 26 00          	lea    0x0(%esi,%eiz,1),%esi
    3e38:	bf fe ff ff ff       	mov    $0xfffffffe,%edi
    3e3d:	31 db                	xor    %ebx,%ebx
    3e3f:	e9 18 ff ff ff       	jmp    3d5c <mbr_create+0x3c>
    3e44:	8d 74 26 00          	lea    0x0(%esi,%eiz,1),%esi
    3e48:	83 ec 0c             	sub    $0xc,%esp
    3e4b:	56                   	push   %esi
    3e4c:	e8 df 58 00 00       	call   9730 <free@plt>
    3e51:	8b 45 dc             	mov    -0x24(%ebp),%eax
    3e54:	8b 55 e4             	mov    -0x1c(%ebp),%edx
    3e57:	89 43 3c             	mov    %eax,0x3c(%ebx)
    3e5a:	8b 45 08             	mov    0x8(%ebp),%eax
    3e5d:	89 43 08             	mov    %eax,0x8(%ebx)
    3e60:	8b 45 e0             	mov    -0x20(%ebp),%eax
    3e63:	83 c0 ee             	add    $0xffffffee,%eax
    3e66:	c7 03 80 b3 00 00    	movl   $0xb380,(%ebx)
    3e6c:	89 43 2c             	mov    %eax,0x2c(%ebx)
    3e6f:	8b 45 0c             	mov    0xc(%ebp),%eax
    3e72:	83 d2 ff             	adc    $0xffffffff,%edx
    3e75:	c7 43 04 01 00 00 00 	movl   $0x1,0x4(%ebx)
    3e7c:	c7 43 24 12 00 00 00 	movl   $0x12,0x24(%ebx)
    3e83:	c7 43 28 00 00 00 00 	movl   $0x0,0x28(%ebx)
    3e8a:	89 53 30             	mov    %edx,0x30(%ebx)
    3e8d:	c7 43 34 04 00 00 00 	movl   $0x4,0x34(%ebx)
    3e94:	c7 43 38 00 00 00 00 	movl   $0x0,0x38(%ebx)
    3e9b:	89 18                	mov    %ebx,(%eax)
    3e9d:	83 c4 10             	add    $0x10,%esp
    3ea0:	e9 cb fe ff ff       	jmp    3d70 <mbr_create+0x50>
    3ea5:	bf fe ff ff ff       	mov    $0xfffffffe,%edi
    3eaa:	e9 c1 fe ff ff       	jmp    3d70 <mbr_create+0x50>
    3eaf:	90                   	nop

00003eb0 <mbr_close>:
    3eb0:	55                   	push   %ebp
    3eb1:	89 e5                	mov    %esp,%ebp
    3eb3:	56                   	push   %esi
    3eb4:	53                   	push   %ebx
    3eb5:	8b 75 08             	mov    0x8(%ebp),%esi
    3eb8:	85 f6                	test   %esi,%esi
    3eba:	0f 84 d4 00 00 00    	je     3f94 <mbr_close+0xe4>
    3ec0:	8b 46 10             	mov    0x10(%esi),%eax
    3ec3:	8d 5e 0c             	lea    0xc(%esi),%ebx
    3ec6:	39 c3                	cmp    %eax,%ebx
    3ec8:	0f 84 96 00 00 00    	je     3f64 <mbr_close+0xb4>
    3ece:	66 90                	xchg   %ax,%ax
    3ed0:	85 c0                	test   %eax,%eax
    3ed2:	0f 84 8c 00 00 00    	je     3f64 <mbr_close+0xb4>
    3ed8:	83 e8 04             	sub    $0x4,%eax
    3edb:	0f 84 83 00 00 00    	je     3f64 <mbr_close+0xb4>
    3ee1:	8b 48 04             	mov    0x4(%eax),%ecx
    3ee4:	85 c9                	test   %ecx,%ecx
    3ee6:	74 0f                	je     3ef7 <mbr_close+0x47>
    3ee8:	8b 50 08             	mov    0x8(%eax),%edx
    3eeb:	85 d2                	test   %edx,%edx
    3eed:	74 08                	je     3ef7 <mbr_close+0x47>
    3eef:	89 0a                	mov    %ecx,(%edx)
    3ef1:	8b 48 04             	mov    0x4(%eax),%ecx
    3ef4:	89 51 04             	mov    %edx,0x4(%ecx)
    3ef7:	8b 48 0c             	mov    0xc(%eax),%ecx
    3efa:	c7 40 04 00 00 00 00 	movl   $0x0,0x4(%eax)
    3f01:	c7 40 08 00 00 00 00 	movl   $0x0,0x8(%eax)
    3f08:	85 c9                	test   %ecx,%ecx
    3f0a:	74 6c                	je     3f78 <mbr_close+0xc8>
    3f0c:	8b 50 10             	mov    0x10(%eax),%edx
    3f0f:	85 d2                	test   %edx,%edx
    3f11:	74 6c                	je     3f7f <mbr_close+0xcf>
    3f13:	89 0a                	mov    %ecx,(%edx)
    3f15:	8b 48 0c             	mov    0xc(%eax),%ecx
    3f18:	89 51 04             	mov    %edx,0x4(%ecx)
    3f1b:	c7 40 0c 00 00 00 00 	movl   $0x0,0xc(%eax)
    3f22:	c7 40 10 00 00 00 00 	movl   $0x0,0x10(%eax)
    3f29:	8b 48 14             	mov    0x14(%eax),%ecx
    3f2c:	85 c9                	test   %ecx,%ecx
    3f2e:	74 58                	je     3f88 <mbr_close+0xd8>
    3f30:	8b 50 18             	mov    0x18(%eax),%edx
    3f33:	85 d2                	test   %edx,%edx
    3f35:	74 48                	je     3f7f <mbr_close+0xcf>
    3f37:	89 0a                	mov    %ecx,(%edx)
    3f39:	8b 48 14             	mov    0x14(%eax),%ecx
    3f3c:	89 51 04             	mov    %edx,0x4(%ecx)
    3f3f:	c7 40 14 00 00 00 00 	movl   $0x0,0x14(%eax)
    3f46:	c7 40 18 00 00 00 00 	movl   $0x0,0x18(%eax)
    3f4d:	83 ec 0c             	sub    $0xc,%esp
    3f50:	50                   	push   %eax
    3f51:	e8 da 57 00 00       	call   9730 <free@plt>
    3f56:	8b 46 10             	mov    0x10(%esi),%eax
    3f59:	83 c4 10             	add    $0x10,%esp
    3f5c:	39 c3                	cmp    %eax,%ebx
    3f5e:	0f 85 6c ff ff ff    	jne    3ed0 <mbr_close+0x20>
    3f64:	89 75 08             	mov    %esi,0x8(%ebp)
    3f67:	8d 65 f8             	lea    -0x8(%ebp),%esp
    3f6a:	5b                   	pop    %ebx
    3f6b:	5e                   	pop    %esi
    3f6c:	5d                   	pop    %ebp
    3f6d:	e9 be 57 00 00       	jmp    9730 <free@plt>
    3f72:	8d b6 00 00 00 00    	lea    0x0(%esi),%esi
    3f78:	8b 48 10             	mov    0x10(%eax),%ecx
    3f7b:	85 c9                	test   %ecx,%ecx
    3f7d:	74 aa                	je     3f29 <mbr_close+0x79>
    3f7f:	e8 34 16 00 00       	call   55b8 <link_used.part.2>
    3f84:	8d 74 26 00          	lea    0x0(%esi,%eiz,1),%esi
    3f88:	8b 50 18             	mov    0x18(%eax),%edx
    3f8b:	85 d2                	test   %edx,%edx
    3f8d:	74 be                	je     3f4d <mbr_close+0x9d>
    3f8f:	e8 24 16 00 00       	call   55b8 <link_used.part.2>
    3f94:	8d 65 f8             	lea    -0x8(%ebp),%esp
    3f97:	5b                   	pop    %ebx
    3f98:	5e                   	pop    %esi
    3f99:	5d                   	pop    %ebp
    3f9a:	c3                   	ret    
    3f9b:	90                   	nop
    3f9c:	8d 74 26 00          	lea    0x0(%esi,%eiz,1),%esi

00003fa0 <mbr_open>:
    3fa0:	55                   	push   %ebp
    3fa1:	89 e5                	mov    %esp,%ebp
    3fa3:	57                   	push   %edi
    3fa4:	56                   	push   %esi
    3fa5:	53                   	push   %ebx
    3fa6:	83 ec 74             	sub    $0x74,%esp
    3fa9:	8d 45 dc             	lea    -0x24(%ebp),%eax
    3fac:	8b 75 08             	mov    0x8(%ebp),%esi
    3faf:	50                   	push   %eax
    3fb0:	56                   	push   %esi
    3fb1:	e8 ba 40 00 00       	call   8070 <block_get_bsize>
    3fb6:	83 c4 10             	add    $0x10,%esp
    3fb9:	85 c0                	test   %eax,%eax
    3fbb:	75 16                	jne    3fd3 <mbr_open+0x33>
    3fbd:	8d 45 e0             	lea    -0x20(%ebp),%eax
    3fc0:	8b 5d 08             	mov    0x8(%ebp),%ebx
    3fc3:	51                   	push   %ecx
    3fc4:	51                   	push   %ecx
    3fc5:	50                   	push   %eax
    3fc6:	53                   	push   %ebx
    3fc7:	e8 34 41 00 00       	call   8100 <block_get_nblocks>
    3fcc:	83 c4 10             	add    $0x10,%esp
    3fcf:	85 c0                	test   %eax,%eax
    3fd1:	74 2d                	je     4000 <mbr_open+0x60>
    3fd3:	bf f6 fe ff ff       	mov    $0xfffffef6,%edi
    3fd8:	31 f6                	xor    %esi,%esi
    3fda:	31 db                	xor    %ebx,%ebx
    3fdc:	83 ec 0c             	sub    $0xc,%esp
    3fdf:	56                   	push   %esi
    3fe0:	e8 4b 57 00 00       	call   9730 <free@plt>
    3fe5:	89 1c 24             	mov    %ebx,(%esp)
    3fe8:	e8 c3 fe ff ff       	call   3eb0 <mbr_close>
    3fed:	83 c4 10             	add    $0x10,%esp
    3ff0:	8d 65 f4             	lea    -0xc(%ebp),%esp
    3ff3:	89 f8                	mov    %edi,%eax
    3ff5:	5b                   	pop    %ebx
    3ff6:	5e                   	pop    %esi
    3ff7:	5f                   	pop    %edi
    3ff8:	5d                   	pop    %ebp
    3ff9:	c3                   	ret    
    3ffa:	8d b6 00 00 00 00    	lea    0x0(%esi),%esi
    4000:	8b 45 dc             	mov    -0x24(%ebp),%eax
    4003:	3d ff 01 00 00       	cmp    $0x1ff,%eax
    4008:	76 4e                	jbe    4058 <mbr_open+0xb8>
    400a:	a9 ff 01 00 00       	test   $0x1ff,%eax
    400f:	75 47                	jne    4058 <mbr_open+0xb8>
    4011:	83 7d e4 00          	cmpl   $0x0,-0x1c(%ebp)
    4015:	76 39                	jbe    4050 <mbr_open+0xb0>
    4017:	52                   	push   %edx
    4018:	52                   	push   %edx
    4019:	50                   	push   %eax
    401a:	6a 01                	push   $0x1
    401c:	e8 ef 54 00 00       	call   9510 <calloc@plt>
    4021:	83 c4 10             	add    $0x10,%esp
    4024:	89 c6                	mov    %eax,%esi
    4026:	85 c0                	test   %eax,%eax
    4028:	74 3c                	je     4066 <mbr_open+0xc6>
    402a:	83 ec 0c             	sub    $0xc,%esp
    402d:	50                   	push   %eax
    402e:	8b 45 08             	mov    0x8(%ebp),%eax
    4031:	6a 01                	push   $0x1
    4033:	6a 00                	push   $0x0
    4035:	6a 00                	push   $0x0
    4037:	50                   	push   %eax
    4038:	e8 c3 3d 00 00       	call   7e00 <block_read_direct>
    403d:	83 c4 20             	add    $0x20,%esp
    4040:	89 c7                	mov    %eax,%edi
    4042:	85 c0                	test   %eax,%eax
    4044:	74 2c                	je     4072 <mbr_open+0xd2>
    4046:	bf f6 fe ff ff       	mov    $0xfffffef6,%edi
    404b:	31 db                	xor    %ebx,%ebx
    404d:	eb 8d                	jmp    3fdc <mbr_open+0x3c>
    404f:	90                   	nop
    4050:	83 7d e0 11          	cmpl   $0x11,-0x20(%ebp)
    4054:	77 c1                	ja     4017 <mbr_open+0x77>
    4056:	66 90                	xchg   %ax,%ax
    4058:	bf f2 ff ff ff       	mov    $0xfffffff2,%edi
    405d:	31 f6                	xor    %esi,%esi
    405f:	31 db                	xor    %ebx,%ebx
    4061:	e9 76 ff ff ff       	jmp    3fdc <mbr_open+0x3c>
    4066:	bf fe ff ff ff       	mov    $0xfffffffe,%edi
    406b:	31 db                	xor    %ebx,%ebx
    406d:	e9 6a ff ff ff       	jmp    3fdc <mbr_open+0x3c>
    4072:	50                   	push   %eax
    4073:	50                   	push   %eax
    4074:	6a 74                	push   $0x74
    4076:	6a 01                	push   $0x1
    4078:	e8 93 54 00 00       	call   9510 <calloc@plt>
    407d:	83 c4 10             	add    $0x10,%esp
    4080:	89 c3                	mov    %eax,%ebx
    4082:	85 c0                	test   %eax,%eax
    4084:	0f 84 99 05 00 00    	je     4623 <mbr_open+0x683>
    408a:	8d 40 0c             	lea    0xc(%eax),%eax
    408d:	89 45 c0             	mov    %eax,-0x40(%ebp)
    4090:	89 43 0c             	mov    %eax,0xc(%ebx)
    4093:	89 43 10             	mov    %eax,0x10(%ebx)
    4096:	8d 43 14             	lea    0x14(%ebx),%eax
    4099:	89 45 d0             	mov    %eax,-0x30(%ebp)
    409c:	89 43 14             	mov    %eax,0x14(%ebx)
    409f:	89 43 18             	mov    %eax,0x18(%ebx)
    40a2:	8d 43 1c             	lea    0x1c(%ebx),%eax
    40a5:	89 45 ac             	mov    %eax,-0x54(%ebp)
    40a8:	89 43 1c             	mov    %eax,0x1c(%ebx)
    40ab:	89 43 20             	mov    %eax,0x20(%ebx)
    40ae:	66 81 be fe 01 00 00 	cmpw   $0xaa55,0x1fe(%esi)
    40b5:	55 aa 
    40b7:	74 0a                	je     40c3 <mbr_open+0x123>
    40b9:	bf f6 fe ff ff       	mov    $0xfffffef6,%edi
    40be:	e9 19 ff ff ff       	jmp    3fdc <mbr_open+0x3c>
    40c3:	c7 43 38 00 00 00 00 	movl   $0x0,0x38(%ebx)
    40ca:	8b 96 ca 01 00 00    	mov    0x1ca(%esi),%edx
    40d0:	80 be c2 01 00 00 00 	cmpb   $0x0,0x1c2(%esi)
    40d7:	0f 84 93 00 00 00    	je     4170 <mbr_open+0x1d0>
    40dd:	85 d2                	test   %edx,%edx
    40df:	89 55 b8             	mov    %edx,-0x48(%ebp)
    40e2:	0f 84 88 00 00 00    	je     4170 <mbr_open+0x1d0>
    40e8:	8b 8e c6 01 00 00    	mov    0x1c6(%esi),%ecx
    40ee:	50                   	push   %eax
    40ef:	89 4d c4             	mov    %ecx,-0x3c(%ebp)
    40f2:	50                   	push   %eax
    40f3:	6a 5c                	push   $0x5c
    40f5:	6a 01                	push   $0x1
    40f7:	e8 14 54 00 00       	call   9510 <calloc@plt>
    40fc:	83 c4 10             	add    $0x10,%esp
    40ff:	85 c0                	test   %eax,%eax
    4101:	0f 84 12 05 00 00    	je     4619 <mbr_open+0x679>
    4107:	8a 96 c2 01 00 00    	mov    0x1c2(%esi),%dl
    410d:	8b 4d c4             	mov    -0x3c(%ebp),%ecx
    4110:	88 50 3c             	mov    %dl,0x3c(%eax)
    4113:	88 55 c8             	mov    %dl,-0x38(%ebp)
    4116:	8b 55 b8             	mov    -0x48(%ebp),%edx
    4119:	89 48 28             	mov    %ecx,0x28(%eax)
    411c:	89 50 30             	mov    %edx,0x30(%eax)
    411f:	8b 55 c0             	mov    -0x40(%ebp),%edx
    4122:	89 50 08             	mov    %edx,0x8(%eax)
    4125:	8b 53 0c             	mov    0xc(%ebx),%edx
    4128:	8d 48 04             	lea    0x4(%eax),%ecx
    412b:	89 50 04             	mov    %edx,0x4(%eax)
    412e:	c7 40 38 00 00 00 00 	movl   $0x0,0x38(%eax)
    4135:	c7 40 1c 01 00 00 00 	movl   $0x1,0x1c(%eax)
    413c:	c7 40 2c 00 00 00 00 	movl   $0x0,0x2c(%eax)
    4143:	c7 40 34 00 00 00 00 	movl   $0x0,0x34(%eax)
    414a:	89 18                	mov    %ebx,(%eax)
    414c:	89 4a 04             	mov    %ecx,0x4(%edx)
    414f:	8b 55 d0             	mov    -0x30(%ebp),%edx
    4152:	89 4b 0c             	mov    %ecx,0xc(%ebx)
    4155:	89 50 10             	mov    %edx,0x10(%eax)
    4158:	8b 53 14             	mov    0x14(%ebx),%edx
    415b:	8d 48 0c             	lea    0xc(%eax),%ecx
    415e:	89 50 0c             	mov    %edx,0xc(%eax)
    4161:	80 7d c8 05          	cmpb   $0x5,-0x38(%ebp)
    4165:	89 4a 04             	mov    %ecx,0x4(%edx)
    4168:	89 4b 14             	mov    %ecx,0x14(%ebx)
    416b:	75 03                	jne    4170 <mbr_open+0x1d0>
    416d:	89 43 38             	mov    %eax,0x38(%ebx)
    4170:	8b 96 da 01 00 00    	mov    0x1da(%esi),%edx
    4176:	80 be d2 01 00 00 00 	cmpb   $0x0,0x1d2(%esi)
    417d:	0f 84 93 00 00 00    	je     4216 <mbr_open+0x276>
    4183:	85 d2                	test   %edx,%edx
    4185:	89 55 b8             	mov    %edx,-0x48(%ebp)
    4188:	0f 84 88 00 00 00    	je     4216 <mbr_open+0x276>
    418e:	8b 8e d6 01 00 00    	mov    0x1d6(%esi),%ecx
    4194:	50                   	push   %eax
    4195:	89 4d c4             	mov    %ecx,-0x3c(%ebp)
    4198:	50                   	push   %eax
    4199:	6a 5c                	push   $0x5c
    419b:	6a 01                	push   $0x1
    419d:	e8 6e 53 00 00       	call   9510 <calloc@plt>
    41a2:	83 c4 10             	add    $0x10,%esp
    41a5:	85 c0                	test   %eax,%eax
    41a7:	0f 84 6c 04 00 00    	je     4619 <mbr_open+0x679>
    41ad:	8b 55 b8             	mov    -0x48(%ebp),%edx
    41b0:	8a 8e d2 01 00 00    	mov    0x1d2(%esi),%cl
    41b6:	89 50 30             	mov    %edx,0x30(%eax)
    41b9:	8b 55 c0             	mov    -0x40(%ebp),%edx
    41bc:	88 48 3c             	mov    %cl,0x3c(%eax)
    41bf:	89 50 08             	mov    %edx,0x8(%eax)
    41c2:	88 4d c8             	mov    %cl,-0x38(%ebp)
    41c5:	8b 53 0c             	mov    0xc(%ebx),%edx
    41c8:	8b 4d c4             	mov    -0x3c(%ebp),%ecx
    41cb:	89 50 04             	mov    %edx,0x4(%eax)
    41ce:	89 48 28             	mov    %ecx,0x28(%eax)
    41d1:	8d 48 04             	lea    0x4(%eax),%ecx
    41d4:	c7 40 38 00 00 00 00 	movl   $0x0,0x38(%eax)
    41db:	c7 40 1c 02 00 00 00 	movl   $0x2,0x1c(%eax)
    41e2:	c7 40 2c 00 00 00 00 	movl   $0x0,0x2c(%eax)
    41e9:	c7 40 34 00 00 00 00 	movl   $0x0,0x34(%eax)
    41f0:	89 18                	mov    %ebx,(%eax)
    41f2:	89 4a 04             	mov    %ecx,0x4(%edx)
    41f5:	8b 55 d0             	mov    -0x30(%ebp),%edx
    41f8:	89 4b 0c             	mov    %ecx,0xc(%ebx)
    41fb:	89 50 10             	mov    %edx,0x10(%eax)
    41fe:	8b 53 14             	mov    0x14(%ebx),%edx
    4201:	8d 48 0c             	lea    0xc(%eax),%ecx
    4204:	89 50 0c             	mov    %edx,0xc(%eax)
    4207:	80 7d c8 05          	cmpb   $0x5,-0x38(%ebp)
    420b:	89 4a 04             	mov    %ecx,0x4(%edx)
    420e:	89 4b 14             	mov    %ecx,0x14(%ebx)
    4211:	75 03                	jne    4216 <mbr_open+0x276>
    4213:	89 43 38             	mov    %eax,0x38(%ebx)
    4216:	8b 96 ea 01 00 00    	mov    0x1ea(%esi),%edx
    421c:	80 be e2 01 00 00 00 	cmpb   $0x0,0x1e2(%esi)
    4223:	0f 84 93 00 00 00    	je     42bc <mbr_open+0x31c>
    4229:	85 d2                	test   %edx,%edx
    422b:	89 55 b8             	mov    %edx,-0x48(%ebp)
    422e:	0f 84 88 00 00 00    	je     42bc <mbr_open+0x31c>
    4234:	8b 8e e6 01 00 00    	mov    0x1e6(%esi),%ecx
    423a:	50                   	push   %eax
    423b:	89 4d c4             	mov    %ecx,-0x3c(%ebp)
    423e:	50                   	push   %eax
    423f:	6a 5c                	push   $0x5c
    4241:	6a 01                	push   $0x1
    4243:	e8 c8 52 00 00       	call   9510 <calloc@plt>
    4248:	83 c4 10             	add    $0x10,%esp
    424b:	85 c0                	test   %eax,%eax
    424d:	0f 84 c6 03 00 00    	je     4619 <mbr_open+0x679>
    4253:	8a 96 e2 01 00 00    	mov    0x1e2(%esi),%dl
    4259:	8b 4d c4             	mov    -0x3c(%ebp),%ecx
    425c:	88 50 3c             	mov    %dl,0x3c(%eax)
    425f:	88 55 c8             	mov    %dl,-0x38(%ebp)
    4262:	8b 55 b8             	mov    -0x48(%ebp),%edx
    4265:	89 48 28             	mov    %ecx,0x28(%eax)
    4268:	89 50 30             	mov    %edx,0x30(%eax)
    426b:	8b 55 c0             	mov    -0x40(%ebp),%edx
    426e:	89 50 08             	mov    %edx,0x8(%eax)
    4271:	8b 53 0c             	mov    0xc(%ebx),%edx
    4274:	8d 48 04             	lea    0x4(%eax),%ecx
    4277:	89 50 04             	mov    %edx,0x4(%eax)
    427a:	c7 40 38 00 00 00 00 	movl   $0x0,0x38(%eax)
    4281:	c7 40 1c 03 00 00 00 	movl   $0x3,0x1c(%eax)
    4288:	c7 40 2c 00 00 00 00 	movl   $0x0,0x2c(%eax)
    428f:	c7 40 34 00 00 00 00 	movl   $0x0,0x34(%eax)
    4296:	89 18                	mov    %ebx,(%eax)
    4298:	89 4a 04             	mov    %ecx,0x4(%edx)
    429b:	8b 55 d0             	mov    -0x30(%ebp),%edx
    429e:	89 4b 0c             	mov    %ecx,0xc(%ebx)
    42a1:	89 50 10             	mov    %edx,0x10(%eax)
    42a4:	8b 53 14             	mov    0x14(%ebx),%edx
    42a7:	8d 48 0c             	lea    0xc(%eax),%ecx
    42aa:	89 50 0c             	mov    %edx,0xc(%eax)
    42ad:	80 7d c8 05          	cmpb   $0x5,-0x38(%ebp)
    42b1:	89 4a 04             	mov    %ecx,0x4(%edx)
    42b4:	89 4b 14             	mov    %ecx,0x14(%ebx)
    42b7:	75 03                	jne    42bc <mbr_open+0x31c>
    42b9:	89 43 38             	mov    %eax,0x38(%ebx)
    42bc:	8b 96 fa 01 00 00    	mov    0x1fa(%esi),%edx
    42c2:	80 be f2 01 00 00 00 	cmpb   $0x0,0x1f2(%esi)
    42c9:	0f 84 93 00 00 00    	je     4362 <mbr_open+0x3c2>
    42cf:	85 d2                	test   %edx,%edx
    42d1:	89 55 b8             	mov    %edx,-0x48(%ebp)
    42d4:	0f 84 88 00 00 00    	je     4362 <mbr_open+0x3c2>
    42da:	8b 8e f6 01 00 00    	mov    0x1f6(%esi),%ecx
    42e0:	89 4d c4             	mov    %ecx,-0x3c(%ebp)
    42e3:	51                   	push   %ecx
    42e4:	51                   	push   %ecx
    42e5:	6a 5c                	push   $0x5c
    42e7:	6a 01                	push   $0x1
    42e9:	e8 22 52 00 00       	call   9510 <calloc@plt>
    42ee:	83 c4 10             	add    $0x10,%esp
    42f1:	85 c0                	test   %eax,%eax
    42f3:	0f 84 20 03 00 00    	je     4619 <mbr_open+0x679>
    42f9:	8b 55 b8             	mov    -0x48(%ebp),%edx
    42fc:	8a 8e f2 01 00 00    	mov    0x1f2(%esi),%cl
    4302:	89 50 30             	mov    %edx,0x30(%eax)
    4305:	8b 55 c0             	mov    -0x40(%ebp),%edx
    4308:	88 48 3c             	mov    %cl,0x3c(%eax)
    430b:	89 50 08             	mov    %edx,0x8(%eax)
    430e:	88 4d c8             	mov    %cl,-0x38(%ebp)
    4311:	8b 53 0c             	mov    0xc(%ebx),%edx
    4314:	8b 4d c4             	mov    -0x3c(%ebp),%ecx
    4317:	89 50 04             	mov    %edx,0x4(%eax)
    431a:	89 48 28             	mov    %ecx,0x28(%eax)
    431d:	8d 48 04             	lea    0x4(%eax),%ecx
    4320:	c7 40 38 00 00 00 00 	movl   $0x0,0x38(%eax)
    4327:	c7 40 1c 04 00 00 00 	movl   $0x4,0x1c(%eax)
    432e:	c7 40 2c 00 00 00 00 	movl   $0x0,0x2c(%eax)
    4335:	c7 40 34 00 00 00 00 	movl   $0x0,0x34(%eax)
    433c:	89 18                	mov    %ebx,(%eax)
    433e:	89 4a 04             	mov    %ecx,0x4(%edx)
    4341:	8b 55 d0             	mov    -0x30(%ebp),%edx
    4344:	89 4b 0c             	mov    %ecx,0xc(%ebx)
    4347:	89 50 10             	mov    %edx,0x10(%eax)
    434a:	8b 53 14             	mov    0x14(%ebx),%edx
    434d:	8d 48 0c             	lea    0xc(%eax),%ecx
    4350:	89 50 0c             	mov    %edx,0xc(%eax)
    4353:	80 7d c8 05          	cmpb   $0x5,-0x38(%ebp)
    4357:	89 4a 04             	mov    %ecx,0x4(%edx)
    435a:	89 4b 14             	mov    %ecx,0x14(%ebx)
    435d:	75 03                	jne    4362 <mbr_open+0x3c2>
    435f:	89 43 38             	mov    %eax,0x38(%ebx)
    4362:	83 ec 0c             	sub    $0xc,%esp
    4365:	56                   	push   %esi
    4366:	e8 c5 53 00 00       	call   9730 <free@plt>
    436b:	8b 55 e0             	mov    -0x20(%ebp),%edx
    436e:	8b 45 08             	mov    0x8(%ebp),%eax
    4371:	83 c2 ee             	add    $0xffffffee,%edx
    4374:	8b 4d e4             	mov    -0x1c(%ebp),%ecx
    4377:	83 d1 ff             	adc    $0xffffffff,%ecx
    437a:	89 43 08             	mov    %eax,0x8(%ebx)
    437d:	89 53 2c             	mov    %edx,0x2c(%ebx)
    4380:	8b 45 dc             	mov    -0x24(%ebp),%eax
    4383:	8b 53 38             	mov    0x38(%ebx),%edx
    4386:	83 c4 10             	add    $0x10,%esp
    4389:	c7 03 80 b3 00 00    	movl   $0xb380,(%ebx)
    438f:	c7 43 04 01 00 00 00 	movl   $0x1,0x4(%ebx)
    4396:	89 43 3c             	mov    %eax,0x3c(%ebx)
    4399:	c7 43 24 12 00 00 00 	movl   $0x12,0x24(%ebx)
    43a0:	c7 43 28 00 00 00 00 	movl   $0x0,0x28(%ebx)
    43a7:	89 4b 30             	mov    %ecx,0x30(%ebx)
    43aa:	c7 43 34 04 00 00 00 	movl   $0x4,0x34(%ebx)
    43b1:	85 d2                	test   %edx,%edx
    43b3:	0f 84 4c 02 00 00    	je     4605 <mbr_open+0x665>
    43b9:	52                   	push   %edx
    43ba:	52                   	push   %edx
    43bb:	50                   	push   %eax
    43bc:	6a 01                	push   $0x1
    43be:	e8 4d 51 00 00       	call   9510 <calloc@plt>
    43c3:	83 c4 10             	add    $0x10,%esp
    43c6:	89 c6                	mov    %eax,%esi
    43c8:	85 c0                	test   %eax,%eax
    43ca:	0f 84 3f 02 00 00    	je     460f <mbr_open+0x66f>
    43d0:	8b 43 38             	mov    0x38(%ebx),%eax
    43d3:	c7 45 b0 01 00 00 00 	movl   $0x1,-0x50(%ebp)
    43da:	c7 45 b4 00 00 00 00 	movl   $0x0,-0x4c(%ebp)
    43e1:	89 5d c4             	mov    %ebx,-0x3c(%ebp)
    43e4:	8b 50 28             	mov    0x28(%eax),%edx
    43e7:	8b 48 2c             	mov    0x2c(%eax),%ecx
    43ea:	89 55 a0             	mov    %edx,-0x60(%ebp)
    43ed:	89 4d a4             	mov    %ecx,-0x5c(%ebp)
    43f0:	8b 50 34             	mov    0x34(%eax),%edx
    43f3:	8b 4d a4             	mov    -0x5c(%ebp),%ecx
    43f6:	8b 40 30             	mov    0x30(%eax),%eax
    43f9:	89 55 cc             	mov    %edx,-0x34(%ebp)
    43fc:	8b 55 a0             	mov    -0x60(%ebp),%edx
    43ff:	89 45 c8             	mov    %eax,-0x38(%ebp)
    4402:	89 55 d0             	mov    %edx,-0x30(%ebp)
    4405:	89 4d d4             	mov    %ecx,-0x2c(%ebp)
    4408:	89 7d a8             	mov    %edi,-0x58(%ebp)
    440b:	89 d8                	mov    %ebx,%eax
    440d:	83 ec 0c             	sub    $0xc,%esp
    4410:	8b 5d d4             	mov    -0x2c(%ebp),%ebx
    4413:	8b 7d d0             	mov    -0x30(%ebp),%edi
    4416:	56                   	push   %esi
    4417:	6a 01                	push   $0x1
    4419:	8b 40 08             	mov    0x8(%eax),%eax
    441c:	53                   	push   %ebx
    441d:	57                   	push   %edi
    441e:	50                   	push   %eax
    441f:	e8 dc 39 00 00       	call   7e00 <block_read_direct>
    4424:	83 c4 20             	add    $0x20,%esp
    4427:	85 c0                	test   %eax,%eax
    4429:	75 56                	jne    4481 <mbr_open+0x4e1>
    442b:	8b 86 c6 01 00 00    	mov    0x1c6(%esi),%eax
    4431:	8b be ca 01 00 00    	mov    0x1ca(%esi),%edi
    4437:	31 db                	xor    %ebx,%ebx
    4439:	31 d2                	xor    %edx,%edx
    443b:	89 45 9c             	mov    %eax,-0x64(%ebp)
    443e:	01 f8                	add    %edi,%eax
    4440:	11 da                	adc    %ebx,%edx
    4442:	89 7d 90             	mov    %edi,-0x70(%ebp)
    4445:	89 5d 94             	mov    %ebx,-0x6c(%ebp)
    4448:	80 be c2 01 00 00 00 	cmpb   $0x0,0x1c2(%esi)
    444f:	0f 84 9e 01 00 00    	je     45f3 <mbr_open+0x653>
    4455:	85 ff                	test   %edi,%edi
    4457:	0f 84 96 01 00 00    	je     45f3 <mbr_open+0x653>
    445d:	8b 4d d0             	mov    -0x30(%ebp),%ecx
    4460:	8b 5d d4             	mov    -0x2c(%ebp),%ebx
    4463:	01 c8                	add    %ecx,%eax
    4465:	11 da                	adc    %ebx,%edx
    4467:	89 45 b8             	mov    %eax,-0x48(%ebp)
    446a:	8b 45 c8             	mov    -0x38(%ebp),%eax
    446d:	89 55 bc             	mov    %edx,-0x44(%ebp)
    4470:	01 c8                	add    %ecx,%eax
    4472:	8b 55 cc             	mov    -0x34(%ebp),%edx
    4475:	11 da                	adc    %ebx,%edx
    4477:	8b 5d bc             	mov    -0x44(%ebp),%ebx
    447a:	8b 4d b8             	mov    -0x48(%ebp),%ecx
    447d:	39 d3                	cmp    %edx,%ebx
    447f:	76 1b                	jbe    449c <mbr_open+0x4fc>
    4481:	8b 5d c4             	mov    -0x3c(%ebp),%ebx
    4484:	bf f6 fe ff ff       	mov    $0xfffffef6,%edi
    4489:	83 ec 0c             	sub    $0xc,%esp
    448c:	56                   	push   %esi
    448d:	31 f6                	xor    %esi,%esi
    448f:	e8 9c 52 00 00       	call   9730 <free@plt>
    4494:	83 c4 10             	add    $0x10,%esp
    4497:	e9 40 fb ff ff       	jmp    3fdc <mbr_open+0x3c>
    449c:	72 04                	jb     44a2 <mbr_open+0x502>
    449e:	39 c1                	cmp    %eax,%ecx
    44a0:	77 df                	ja     4481 <mbr_open+0x4e1>
    44a2:	85 ff                	test   %edi,%edi
    44a4:	0f 85 a2 00 00 00    	jne    454c <mbr_open+0x5ac>
    44aa:	8b 86 d6 01 00 00    	mov    0x1d6(%esi),%eax
    44b0:	31 d2                	xor    %edx,%edx
    44b2:	03 45 a0             	add    -0x60(%ebp),%eax
    44b5:	8b 8e da 01 00 00    	mov    0x1da(%esi),%ecx
    44bb:	13 55 a4             	adc    -0x5c(%ebp),%edx
    44be:	31 db                	xor    %ebx,%ebx
    44c0:	89 45 b8             	mov    %eax,-0x48(%ebp)
    44c3:	89 55 bc             	mov    %edx,-0x44(%ebp)
    44c6:	89 4d c8             	mov    %ecx,-0x38(%ebp)
    44c9:	89 5d cc             	mov    %ebx,-0x34(%ebp)
    44cc:	80 be d2 01 00 00 00 	cmpb   $0x0,0x1d2(%esi)
    44d3:	0f 84 1a 01 00 00    	je     45f3 <mbr_open+0x653>
    44d9:	89 c8                	mov    %ecx,%eax
    44db:	09 d8                	or     %ebx,%eax
    44dd:	0f 84 10 01 00 00    	je     45f3 <mbr_open+0x653>
    44e3:	8b 4d d0             	mov    -0x30(%ebp),%ecx
    44e6:	8b 5d d4             	mov    -0x2c(%ebp),%ebx
    44e9:	03 4d b0             	add    -0x50(%ebp),%ecx
    44ec:	8b 55 bc             	mov    -0x44(%ebp),%edx
    44ef:	13 5d b4             	adc    -0x4c(%ebp),%ebx
    44f2:	8b 45 b8             	mov    -0x48(%ebp),%eax
    44f5:	39 da                	cmp    %ebx,%edx
    44f7:	72 88                	jb     4481 <mbr_open+0x4e1>
    44f9:	77 04                	ja     44ff <mbr_open+0x55f>
    44fb:	39 c8                	cmp    %ecx,%eax
    44fd:	72 82                	jb     4481 <mbr_open+0x4e1>
    44ff:	8b 7d c4             	mov    -0x3c(%ebp),%edi
    4502:	8b 4d c8             	mov    -0x38(%ebp),%ecx
    4505:	03 4d b8             	add    -0x48(%ebp),%ecx
    4508:	8b 5d cc             	mov    -0x34(%ebp),%ebx
    450b:	8b 47 24             	mov    0x24(%edi),%eax
    450e:	8b 57 28             	mov    0x28(%edi),%edx
    4511:	13 5d bc             	adc    -0x44(%ebp),%ebx
    4514:	03 47 2c             	add    0x2c(%edi),%eax
    4517:	13 57 30             	adc    0x30(%edi),%edx
    451a:	39 d3                	cmp    %edx,%ebx
    451c:	0f 87 5f ff ff ff    	ja     4481 <mbr_open+0x4e1>
    4522:	72 08                	jb     452c <mbr_open+0x58c>
    4524:	39 c1                	cmp    %eax,%ecx
    4526:	0f 87 55 ff ff ff    	ja     4481 <mbr_open+0x4e1>
    452c:	8b 45 c8             	mov    -0x38(%ebp),%eax
    452f:	8b 55 cc             	mov    -0x34(%ebp),%edx
    4532:	89 45 b0             	mov    %eax,-0x50(%ebp)
    4535:	89 55 b4             	mov    %edx,-0x4c(%ebp)
    4538:	8b 45 b8             	mov    -0x48(%ebp),%eax
    453b:	8b 55 bc             	mov    -0x44(%ebp),%edx
    453e:	89 45 d0             	mov    %eax,-0x30(%ebp)
    4541:	89 55 d4             	mov    %edx,-0x2c(%ebp)
    4544:	8b 45 c4             	mov    -0x3c(%ebp),%eax
    4547:	e9 c1 fe ff ff       	jmp    440d <mbr_open+0x46d>
    454c:	51                   	push   %ecx
    454d:	51                   	push   %ecx
    454e:	6a 5c                	push   $0x5c
    4550:	6a 01                	push   $0x1
    4552:	e8 b9 4f 00 00       	call   9510 <calloc@plt>
    4557:	83 c4 10             	add    $0x10,%esp
    455a:	89 c7                	mov    %eax,%edi
    455c:	85 c0                	test   %eax,%eax
    455e:	0f 84 1d ff ff ff    	je     4481 <mbr_open+0x4e1>
    4564:	83 ec 0c             	sub    $0xc,%esp
    4567:	ff 75 ac             	pushl  -0x54(%ebp)
    456a:	e8 f1 50 00 00       	call   9660 <list_count@plt>
    456f:	8b 4d d0             	mov    -0x30(%ebp),%ecx
    4572:	83 c0 05             	add    $0x5,%eax
    4575:	8a 96 c2 01 00 00    	mov    0x1c2(%esi),%dl
    457b:	89 47 1c             	mov    %eax,0x1c(%edi)
    457e:	8b 45 9c             	mov    -0x64(%ebp),%eax
    4581:	01 c8                	add    %ecx,%eax
    4583:	88 57 3c             	mov    %dl,0x3c(%edi)
    4586:	89 47 28             	mov    %eax,0x28(%edi)
    4589:	89 45 c8             	mov    %eax,-0x38(%ebp)
    458c:	8b 45 90             	mov    -0x70(%ebp),%eax
    458f:	31 d2                	xor    %edx,%edx
    4591:	89 47 30             	mov    %eax,0x30(%edi)
    4594:	8b 45 c8             	mov    -0x38(%ebp),%eax
    4597:	29 c8                	sub    %ecx,%eax
    4599:	89 57 2c             	mov    %edx,0x2c(%edi)
    459c:	89 47 20             	mov    %eax,0x20(%edi)
    459f:	89 55 cc             	mov    %edx,-0x34(%ebp)
    45a2:	8b 45 c4             	mov    -0x3c(%ebp),%eax
    45a5:	8b 55 94             	mov    -0x6c(%ebp),%edx
    45a8:	89 57 34             	mov    %edx,0x34(%edi)
    45ab:	8b 4d c0             	mov    -0x40(%ebp),%ecx
    45ae:	8b 5d d4             	mov    -0x2c(%ebp),%ebx
    45b1:	8b 55 cc             	mov    -0x34(%ebp),%edx
    45b4:	89 07                	mov    %eax,(%edi)
    45b6:	89 4f 08             	mov    %ecx,0x8(%edi)
    45b9:	19 da                	sbb    %ebx,%edx
    45bb:	89 c1                	mov    %eax,%ecx
    45bd:	8b 40 0c             	mov    0xc(%eax),%eax
    45c0:	89 57 24             	mov    %edx,0x24(%edi)
    45c3:	8d 57 04             	lea    0x4(%edi),%edx
    45c6:	89 47 04             	mov    %eax,0x4(%edi)
    45c9:	c7 47 38 00 00 00 00 	movl   $0x0,0x38(%edi)
    45d0:	89 50 04             	mov    %edx,0x4(%eax)
    45d3:	8b 45 ac             	mov    -0x54(%ebp),%eax
    45d6:	89 51 0c             	mov    %edx,0xc(%ecx)
    45d9:	89 47 18             	mov    %eax,0x18(%edi)
    45dc:	8b 41 1c             	mov    0x1c(%ecx),%eax
    45df:	8d 57 14             	lea    0x14(%edi),%edx
    45e2:	89 47 14             	mov    %eax,0x14(%edi)
    45e5:	83 c4 10             	add    $0x10,%esp
    45e8:	89 50 04             	mov    %edx,0x4(%eax)
    45eb:	89 51 1c             	mov    %edx,0x1c(%ecx)
    45ee:	e9 b7 fe ff ff       	jmp    44aa <mbr_open+0x50a>
    45f3:	83 ec 0c             	sub    $0xc,%esp
    45f6:	8b 5d c4             	mov    -0x3c(%ebp),%ebx
    45f9:	8b 7d a8             	mov    -0x58(%ebp),%edi
    45fc:	56                   	push   %esi
    45fd:	e8 2e 51 00 00       	call   9730 <free@plt>
    4602:	83 c4 10             	add    $0x10,%esp
    4605:	8b 45 0c             	mov    0xc(%ebp),%eax
    4608:	89 18                	mov    %ebx,(%eax)
    460a:	e9 e1 f9 ff ff       	jmp    3ff0 <mbr_open+0x50>
    460f:	bf fe ff ff ff       	mov    $0xfffffffe,%edi
    4614:	e9 70 fe ff ff       	jmp    4489 <mbr_open+0x4e9>
    4619:	bf fe ff ff ff       	mov    $0xfffffffe,%edi
    461e:	e9 b9 f9 ff ff       	jmp    3fdc <mbr_open+0x3c>
    4623:	bf fe ff ff ff       	mov    $0xfffffffe,%edi
    4628:	e9 c3 f9 ff ff       	jmp    3ff0 <mbr_open+0x50>
    462d:	8d 76 00             	lea    0x0(%esi),%esi

00004630 <mbr_part_get_info>:
    4630:	55                   	push   %ebp
    4631:	89 e5                	mov    %esp,%ebp
    4633:	53                   	push   %ebx
    4634:	50                   	push   %eax
    4635:	8b 4d 08             	mov    0x8(%ebp),%ecx
    4638:	8b 5d 0c             	mov    0xc(%ebp),%ebx
    463b:	8b 41 1c             	mov    0x1c(%ecx),%eax
    463e:	8b 51 2c             	mov    0x2c(%ecx),%edx
    4641:	89 03                	mov    %eax,(%ebx)
    4643:	8b 41 28             	mov    0x28(%ecx),%eax
    4646:	89 43 08             	mov    %eax,0x8(%ebx)
    4649:	8b 41 30             	mov    0x30(%ecx),%eax
    464c:	89 53 0c             	mov    %edx,0xc(%ebx)
    464f:	8b 51 34             	mov    0x34(%ecx),%edx
    4652:	89 43 10             	mov    %eax,0x10(%ebx)
    4655:	8b 41 14             	mov    0x14(%ecx),%eax
    4658:	89 53 14             	mov    %edx,0x14(%ebx)
    465b:	85 c0                	test   %eax,%eax
    465d:	74 19                	je     4678 <mbr_part_get_info+0x48>
    465f:	8b 51 18             	mov    0x18(%ecx),%edx
    4662:	85 d2                	test   %edx,%edx
    4664:	74 19                	je     467f <mbr_part_get_info+0x4f>
    4666:	c7 43 04 02 00 00 00 	movl   $0x2,0x4(%ebx)
    466d:	58                   	pop    %eax
    466e:	5b                   	pop    %ebx
    466f:	5d                   	pop    %ebp
    4670:	c3                   	ret    
    4671:	8d b4 26 00 00 00 00 	lea    0x0(%esi,%eiz,1),%esi
    4678:	8b 41 18             	mov    0x18(%ecx),%eax
    467b:	85 c0                	test   %eax,%eax
    467d:	74 09                	je     4688 <mbr_part_get_info+0x58>
    467f:	e8 34 0f 00 00       	call   55b8 <link_used.part.2>
    4684:	8d 74 26 00          	lea    0x0(%esi,%eiz,1),%esi
    4688:	31 c0                	xor    %eax,%eax
    468a:	80 79 3c 05          	cmpb   $0x5,0x3c(%ecx)
    468e:	0f 94 c0             	sete   %al
    4691:	89 43 04             	mov    %eax,0x4(%ebx)
    4694:	58                   	pop    %eax
    4695:	5b                   	pop    %ebx
