
vbd:     file format elf32-i386


Disassembly of section .init:

000010f4 <__entry>:
    10f4:	66 8c d0             	mov    %ss,%ax
    10f7:	8e d8                	mov    %eax,%ds
    10f9:	8e c0                	mov    %eax,%es
    10fb:	8e e0                	mov    %eax,%fs
    10fd:	b8 01 00 00 00       	mov    $0x1,%eax
    1102:	0f a2                	cpuid  
    1104:	0f ba e2 0b          	bt     $0xb,%edx
    1108:	73 0c                	jae    1116 <__entry+0x22>
    110a:	8d 05 28 b5 00 00    	lea    0xb528,%eax
    1110:	c7 00 e0 96 00 00    	movl   $0x96e0,(%eax)
    1116:	6a 00                	push   $0x0
    1118:	6a 00                	push   $0x0
    111a:	89 e5                	mov    %esp,%ebp
    111c:	57                   	push   %edi
    111d:	e8 1e 82 00 00       	call   9340 <__main@plt>

Disassembly of section .text:

00001130 <vbds_bd_get_num_blocks>:
    1130:	55                   	push   %ebp
    1131:	89 e5                	mov    %esp,%ebp
    1133:	53                   	push   %ebx
    1134:	83 ec 08             	sub    $0x8,%esp
    1137:	8b 45 08             	mov    0x8(%ebp),%eax
    113a:	8b 00                	mov    (%eax),%eax
    113c:	8b 58 04             	mov    0x4(%eax),%ebx
    113f:	68 89 84 00 00       	push   $0x8489
    1144:	6a 05                	push   $0x5
    1146:	6a ff                	push   $0xffffffff
    1148:	e8 33 83 00 00       	call   9480 <log_msg@plt>
    114d:	89 1c 24             	mov    %ebx,(%esp)
    1150:	e8 9b 85 00 00       	call   96f0 <fibril_rwlock_read_lock@plt>
    1155:	8b 4d 0c             	mov    0xc(%ebp),%ecx
    1158:	8b 43 4c             	mov    0x4c(%ebx),%eax
    115b:	8b 53 50             	mov    0x50(%ebx),%edx
    115e:	89 51 04             	mov    %edx,0x4(%ecx)
    1161:	89 01                	mov    %eax,(%ecx)
    1163:	89 1c 24             	mov    %ebx,(%esp)
    1166:	e8 35 82 00 00       	call   93a0 <fibril_rwlock_read_unlock@plt>
    116b:	31 c0                	xor    %eax,%eax
    116d:	8b 5d fc             	mov    -0x4(%ebp),%ebx
    1170:	c9                   	leave  
    1171:	c3                   	ret    
    1172:	8d b4 26 00 00 00 00 	lea    0x0(%esi,%eiz,1),%esi
    1179:	8d bc 27 00 00 00 00 	lea    0x0(%edi,%eiz,1),%edi

00001180 <vbds_bd_get_block_size>:
    1180:	55                   	push   %ebp
    1181:	89 e5                	mov    %esp,%ebp
    1183:	53                   	push   %ebx
    1184:	83 ec 08             	sub    $0x8,%esp
    1187:	8b 45 08             	mov    0x8(%ebp),%eax
    118a:	8b 00                	mov    (%eax),%eax
    118c:	8b 58 04             	mov    0x4(%eax),%ebx
    118f:	68 a2 84 00 00       	push   $0x84a2
    1194:	6a 05                	push   $0x5
    1196:	6a ff                	push   $0xffffffff
    1198:	e8 e3 82 00 00       	call   9480 <log_msg@plt>
    119d:	89 1c 24             	mov    %ebx,(%esp)
    11a0:	e8 4b 85 00 00       	call   96f0 <fibril_rwlock_read_lock@plt>
    11a5:	8b 43 14             	mov    0x14(%ebx),%eax
    11a8:	8b 50 1c             	mov    0x1c(%eax),%edx
    11ab:	8b 45 0c             	mov    0xc(%ebp),%eax
    11ae:	89 10                	mov    %edx,(%eax)
    11b0:	89 1c 24             	mov    %ebx,(%esp)
    11b3:	e8 e8 81 00 00       	call   93a0 <fibril_rwlock_read_unlock@plt>
    11b8:	31 c0                	xor    %eax,%eax
    11ba:	8b 5d fc             	mov    -0x4(%ebp),%ebx
    11bd:	c9                   	leave  
    11be:	c3                   	ret    
    11bf:	90                   	nop

000011c0 <vbds_bd_write_blocks>:
    11c0:	55                   	push   %ebp
    11c1:	89 e5                	mov    %esp,%ebp
    11c3:	57                   	push   %edi
    11c4:	56                   	push   %esi
    11c5:	53                   	push   %ebx
    11c6:	83 ec 20             	sub    $0x20,%esp
    11c9:	8b 45 08             	mov    0x8(%ebp),%eax
    11cc:	8b 75 0c             	mov    0xc(%ebp),%esi
    11cf:	8b 7d 10             	mov    0x10(%ebp),%edi
    11d2:	8b 00                	mov    (%eax),%eax
    11d4:	8b 58 04             	mov    0x4(%eax),%ebx
    11d7:	68 bb 84 00 00       	push   $0x84bb
    11dc:	6a 05                	push   $0x5
    11de:	6a ff                	push   $0xffffffff
    11e0:	e8 9b 82 00 00       	call   9480 <log_msg@plt>
    11e5:	89 1c 24             	mov    %ebx,(%esp)
    11e8:	e8 03 85 00 00       	call   96f0 <fibril_rwlock_read_lock@plt>
    11ed:	8b 4b 14             	mov    0x14(%ebx),%ecx
    11f0:	8b 45 14             	mov    0x14(%ebp),%eax
    11f3:	8b 51 1c             	mov    0x1c(%ecx),%edx
    11f6:	0f af c2             	imul   %edx,%eax
    11f9:	83 c4 10             	add    $0x10,%esp
    11fc:	3b 45 1c             	cmp    0x1c(%ebp),%eax
    11ff:	72 67                	jb     1268 <vbds_bd_write_blocks+0xa8>
    1201:	8b 45 14             	mov    0x14(%ebp),%eax
    1204:	31 d2                	xor    %edx,%edx
    1206:	01 f0                	add    %esi,%eax
    1208:	11 fa                	adc    %edi,%edx
    120a:	3b 53 50             	cmp    0x50(%ebx),%edx
    120d:	76 19                	jbe    1228 <vbds_bd_write_blocks+0x68>
    120f:	83 ec 0c             	sub    $0xc,%esp
    1212:	53                   	push   %ebx
    1213:	e8 88 81 00 00       	call   93a0 <fibril_rwlock_read_unlock@plt>
    1218:	83 c4 10             	add    $0x10,%esp
    121b:	b8 fd ff ff ff       	mov    $0xfffffffd,%eax
    1220:	8d 65 f4             	lea    -0xc(%ebp),%esp
    1223:	5b                   	pop    %ebx
    1224:	5e                   	pop    %esi
    1225:	5f                   	pop    %edi
    1226:	5d                   	pop    %ebp
    1227:	c3                   	ret    
    1228:	72 05                	jb     122f <vbds_bd_write_blocks+0x6f>
    122a:	3b 43 4c             	cmp    0x4c(%ebx),%eax
    122d:	77 e0                	ja     120f <vbds_bd_write_blocks+0x4f>
    122f:	83 ec 0c             	sub    $0xc,%esp
    1232:	03 73 44             	add    0x44(%ebx),%esi
    1235:	8b 55 14             	mov    0x14(%ebp),%edx
    1238:	8b 45 18             	mov    0x18(%ebp),%eax
    123b:	13 7b 48             	adc    0x48(%ebx),%edi
    123e:	50                   	push   %eax
    123f:	52                   	push   %edx
    1240:	57                   	push   %edi
    1241:	8b 49 08             	mov    0x8(%ecx),%ecx
    1244:	56                   	push   %esi
    1245:	51                   	push   %ecx
    1246:	e8 95 6c 00 00       	call   7ee0 <block_write_direct>
    124b:	83 c4 14             	add    $0x14,%esp
    124e:	89 45 e4             	mov    %eax,-0x1c(%ebp)
    1251:	53                   	push   %ebx
    1252:	e8 49 81 00 00       	call   93a0 <fibril_rwlock_read_unlock@plt>
    1257:	8b 45 e4             	mov    -0x1c(%ebp),%eax
    125a:	83 c4 10             	add    $0x10,%esp
    125d:	8d 65 f4             	lea    -0xc(%ebp),%esp
    1260:	5b                   	pop    %ebx
    1261:	5e                   	pop    %esi
    1262:	5f                   	pop    %edi
    1263:	5d                   	pop    %ebp
    1264:	c3                   	ret    
    1265:	8d 76 00             	lea    0x0(%esi),%esi
    1268:	83 ec 0c             	sub    $0xc,%esp
    126b:	53                   	push   %ebx
    126c:	e8 2f 81 00 00       	call   93a0 <fibril_rwlock_read_unlock@plt>
    1271:	83 c4 10             	add    $0x10,%esp
    1274:	b8 f2 ff ff ff       	mov    $0xfffffff2,%eax
    1279:	eb a5                	jmp    1220 <vbds_bd_write_blocks+0x60>
    127b:	90                   	nop
    127c:	8d 74 26 00          	lea    0x0(%esi,%eiz,1),%esi

00001280 <vbds_bd_sync_cache>:
    1280:	55                   	push   %ebp
    1281:	89 e5                	mov    %esp,%ebp
    1283:	57                   	push   %edi
    1284:	56                   	push   %esi
    1285:	53                   	push   %ebx
    1286:	83 ec 20             	sub    $0x20,%esp
    1289:	8b 45 08             	mov    0x8(%ebp),%eax
    128c:	8b 75 0c             	mov    0xc(%ebp),%esi
    128f:	8b 7d 10             	mov    0x10(%ebp),%edi
    1292:	8b 00                	mov    (%eax),%eax
    1294:	8b 58 04             	mov    0x4(%eax),%ebx
    1297:	68 d2 84 00 00       	push   $0x84d2
    129c:	6a 05                	push   $0x5
    129e:	6a ff                	push   $0xffffffff
    12a0:	e8 db 81 00 00       	call   9480 <log_msg@plt>
    12a5:	89 1c 24             	mov    %ebx,(%esp)
    12a8:	e8 43 84 00 00       	call   96f0 <fibril_rwlock_read_lock@plt>
    12ad:	89 f0                	mov    %esi,%eax
    12af:	83 c4 10             	add    $0x10,%esp
    12b2:	09 f8                	or     %edi,%eax
    12b4:	75 07                	jne    12bd <vbds_bd_sync_cache+0x3d>
    12b6:	8b 4d 14             	mov    0x14(%ebp),%ecx
    12b9:	85 c9                	test   %ecx,%ecx
    12bb:	74 3b                	je     12f8 <vbds_bd_sync_cache+0x78>
    12bd:	8b 45 14             	mov    0x14(%ebp),%eax
    12c0:	31 d2                	xor    %edx,%edx
    12c2:	01 f0                	add    %esi,%eax
    12c4:	11 fa                	adc    %edi,%edx
    12c6:	3b 53 50             	cmp    0x50(%ebx),%edx
    12c9:	76 1d                	jbe    12e8 <vbds_bd_sync_cache+0x68>
    12cb:	83 ec 0c             	sub    $0xc,%esp
    12ce:	53                   	push   %ebx
    12cf:	e8 cc 80 00 00       	call   93a0 <fibril_rwlock_read_unlock@plt>
    12d4:	83 c4 10             	add    $0x10,%esp
    12d7:	8d 65 f4             	lea    -0xc(%ebp),%esp
    12da:	b8 fd ff ff ff       	mov    $0xfffffffd,%eax
    12df:	5b                   	pop    %ebx
    12e0:	5e                   	pop    %esi
    12e1:	5f                   	pop    %edi
    12e2:	5d                   	pop    %ebp
    12e3:	c3                   	ret    
    12e4:	8d 74 26 00          	lea    0x0(%esi,%eiz,1),%esi
    12e8:	73 3e                	jae    1328 <vbds_bd_sync_cache+0xa8>
    12ea:	03 73 44             	add    0x44(%ebx),%esi
    12ed:	13 7b 48             	adc    0x48(%ebx),%edi
    12f0:	eb 0a                	jmp    12fc <vbds_bd_sync_cache+0x7c>
    12f2:	8d b6 00 00 00 00    	lea    0x0(%esi),%esi
    12f8:	31 f6                	xor    %esi,%esi
    12fa:	31 ff                	xor    %edi,%edi
    12fc:	8b 45 14             	mov    0x14(%ebp),%eax
    12ff:	50                   	push   %eax
    1300:	8b 43 14             	mov    0x14(%ebx),%eax
    1303:	57                   	push   %edi
    1304:	56                   	push   %esi
    1305:	8b 50 08             	mov    0x8(%eax),%edx
    1308:	52                   	push   %edx
    1309:	e8 b2 6c 00 00       	call   7fc0 <block_sync_cache>
    130e:	89 1c 24             	mov    %ebx,(%esp)
    1311:	89 45 e4             	mov    %eax,-0x1c(%ebp)
    1314:	e8 87 80 00 00       	call   93a0 <fibril_rwlock_read_unlock@plt>
    1319:	8b 45 e4             	mov    -0x1c(%ebp),%eax
    131c:	83 c4 10             	add    $0x10,%esp
    131f:	8d 65 f4             	lea    -0xc(%ebp),%esp
    1322:	5b                   	pop    %ebx
    1323:	5e                   	pop    %esi
    1324:	5f                   	pop    %edi
    1325:	5d                   	pop    %ebp
    1326:	c3                   	ret    
    1327:	90                   	nop
    1328:	3b 43 4c             	cmp    0x4c(%ebx),%eax
    132b:	77 9e                	ja     12cb <vbds_bd_sync_cache+0x4b>
    132d:	eb bb                	jmp    12ea <vbds_bd_sync_cache+0x6a>
    132f:	90                   	nop

00001330 <vbds_bd_read_blocks>:
    1330:	55                   	push   %ebp
    1331:	89 e5                	mov    %esp,%ebp
    1333:	57                   	push   %edi
    1334:	56                   	push   %esi
    1335:	53                   	push   %ebx
    1336:	83 ec 20             	sub    $0x20,%esp
    1339:	8b 45 08             	mov    0x8(%ebp),%eax
    133c:	8b 75 0c             	mov    0xc(%ebp),%esi
    133f:	8b 7d 10             	mov    0x10(%ebp),%edi
    1342:	8b 00                	mov    (%eax),%eax
    1344:	8b 58 04             	mov    0x4(%eax),%ebx
    1347:	68 e7 84 00 00       	push   $0x84e7
    134c:	6a 05                	push   $0x5
    134e:	6a ff                	push   $0xffffffff
    1350:	e8 2b 81 00 00       	call   9480 <log_msg@plt>
    1355:	89 1c 24             	mov    %ebx,(%esp)
    1358:	e8 93 83 00 00       	call   96f0 <fibril_rwlock_read_lock@plt>
    135d:	8b 4b 14             	mov    0x14(%ebx),%ecx
    1360:	8b 45 14             	mov    0x14(%ebp),%eax
    1363:	8b 51 1c             	mov    0x1c(%ecx),%edx
    1366:	0f af c2             	imul   %edx,%eax
    1369:	83 c4 10             	add    $0x10,%esp
    136c:	3b 45 1c             	cmp    0x1c(%ebp),%eax
    136f:	72 67                	jb     13d8 <vbds_bd_read_blocks+0xa8>
    1371:	8b 45 14             	mov    0x14(%ebp),%eax
    1374:	31 d2                	xor    %edx,%edx
    1376:	01 f0                	add    %esi,%eax
    1378:	11 fa                	adc    %edi,%edx
    137a:	3b 53 50             	cmp    0x50(%ebx),%edx
    137d:	76 19                	jbe    1398 <vbds_bd_read_blocks+0x68>
    137f:	83 ec 0c             	sub    $0xc,%esp
    1382:	53                   	push   %ebx
    1383:	e8 18 80 00 00       	call   93a0 <fibril_rwlock_read_unlock@plt>
    1388:	83 c4 10             	add    $0x10,%esp
    138b:	b8 fd ff ff ff       	mov    $0xfffffffd,%eax
    1390:	8d 65 f4             	lea    -0xc(%ebp),%esp
    1393:	5b                   	pop    %ebx
    1394:	5e                   	pop    %esi
    1395:	5f                   	pop    %edi
    1396:	5d                   	pop    %ebp
    1397:	c3                   	ret    
    1398:	72 05                	jb     139f <vbds_bd_read_blocks+0x6f>
    139a:	3b 43 4c             	cmp    0x4c(%ebx),%eax
    139d:	77 e0                	ja     137f <vbds_bd_read_blocks+0x4f>
    139f:	83 ec 0c             	sub    $0xc,%esp
    13a2:	03 73 44             	add    0x44(%ebx),%esi
    13a5:	8b 55 14             	mov    0x14(%ebp),%edx
    13a8:	8b 45 18             	mov    0x18(%ebp),%eax
    13ab:	13 7b 48             	adc    0x48(%ebx),%edi
    13ae:	50                   	push   %eax
    13af:	52                   	push   %edx
    13b0:	57                   	push   %edi
    13b1:	8b 49 08             	mov    0x8(%ecx),%ecx
    13b4:	56                   	push   %esi
    13b5:	51                   	push   %ecx
    13b6:	e8 45 6a 00 00       	call   7e00 <block_read_direct>
    13bb:	83 c4 14             	add    $0x14,%esp
    13be:	89 45 e4             	mov    %eax,-0x1c(%ebp)
    13c1:	53                   	push   %ebx
    13c2:	e8 d9 7f 00 00       	call   93a0 <fibril_rwlock_read_unlock@plt>
    13c7:	8b 45 e4             	mov    -0x1c(%ebp),%eax
    13ca:	83 c4 10             	add    $0x10,%esp
    13cd:	8d 65 f4             	lea    -0xc(%ebp),%esp
    13d0:	5b                   	pop    %ebx
    13d1:	5e                   	pop    %esi
    13d2:	5f                   	pop    %edi
    13d3:	5d                   	pop    %ebp
    13d4:	c3                   	ret    
    13d5:	8d 76 00             	lea    0x0(%esi),%esi
    13d8:	83 ec 0c             	sub    $0xc,%esp
    13db:	53                   	push   %ebx
    13dc:	e8 bf 7f 00 00       	call   93a0 <fibril_rwlock_read_unlock@plt>
    13e1:	83 c4 10             	add    $0x10,%esp
    13e4:	b8 f2 ff ff ff       	mov    $0xfffffff2,%eax
    13e9:	eb a5                	jmp    1390 <vbds_bd_read_blocks+0x60>
    13eb:	90                   	nop
    13ec:	8d 74 26 00          	lea    0x0(%esi,%eiz,1),%esi

000013f0 <vbds_bd_close>:
    13f0:	55                   	push   %ebp
    13f1:	89 e5                	mov    %esp,%ebp
    13f3:	53                   	push   %ebx
    13f4:	83 ec 08             	sub    $0x8,%esp
    13f7:	8b 45 08             	mov    0x8(%ebp),%eax
    13fa:	8b 00                	mov    (%eax),%eax
    13fc:	8b 58 04             	mov    0x4(%eax),%ebx
    13ff:	68 fd 84 00 00       	push   $0x84fd
    1404:	6a 04                	push   $0x4
    1406:	6a ff                	push   $0xffffffff
    1408:	e8 73 80 00 00       	call   9480 <log_msg@plt>
    140d:	89 1c 24             	mov    %ebx,(%esp)
    1410:	e8 8b 82 00 00       	call   96a0 <fibril_rwlock_write_lock@plt>
    1415:	8b 53 40             	mov    0x40(%ebx),%edx
    1418:	4a                   	dec    %edx
    1419:	89 53 40             	mov    %edx,0x40(%ebx)
    141c:	89 1c 24             	mov    %ebx,(%esp)
    141f:	e8 8c 81 00 00       	call   95b0 <fibril_rwlock_write_unlock@plt>
    1424:	31 c0                	xor    %eax,%eax
    1426:	8b 5d fc             	mov    -0x4(%ebp),%ebx
    1429:	c9                   	leave  
    142a:	c3                   	ret    
    142b:	90                   	nop
    142c:	8d 74 26 00          	lea    0x0(%esi,%eiz,1),%esi

00001430 <vbds_bd_open>:
    1430:	55                   	push   %ebp
    1431:	89 e5                	mov    %esp,%ebp
    1433:	53                   	push   %ebx
    1434:	83 ec 08             	sub    $0x8,%esp
    1437:	8b 45 0c             	mov    0xc(%ebp),%eax
    143a:	8b 00                	mov    (%eax),%eax
    143c:	8b 58 04             	mov    0x4(%eax),%ebx
    143f:	68 0d 85 00 00       	push   $0x850d
    1444:	6a 04                	push   $0x4
    1446:	6a ff                	push   $0xffffffff
    1448:	e8 33 80 00 00       	call   9480 <log_msg@plt>
    144d:	89 1c 24             	mov    %ebx,(%esp)
    1450:	e8 4b 82 00 00       	call   96a0 <fibril_rwlock_write_lock@plt>
    1455:	8b 53 40             	mov    0x40(%ebx),%edx
    1458:	42                   	inc    %edx
    1459:	89 53 40             	mov    %edx,0x40(%ebx)
    145c:	89 1c 24             	mov    %ebx,(%esp)
    145f:	e8 4c 81 00 00       	call   95b0 <fibril_rwlock_write_unlock@plt>
    1464:	31 c0                	xor    %eax,%eax
    1466:	8b 5d fc             	mov    -0x4(%ebp),%ebx
    1469:	c9                   	leave  
    146a:	c3                   	ret    
    146b:	90                   	nop
    146c:	8d 74 26 00          	lea    0x0(%esi,%eiz,1),%esi

00001470 <vbds_part_svc_register>:
    1470:	55                   	push   %ebp
    1471:	89 e5                	mov    %esp,%ebp
    1473:	56                   	push   %esi
    1474:	53                   	push   %ebx
    1475:	89 c3                	mov    %eax,%ebx
    1477:	83 ec 20             	sub    $0x20,%esp
    147a:	8b 40 34             	mov    0x34(%eax),%eax
    147d:	8b 70 1c             	mov    0x1c(%eax),%esi
    1480:	8b 43 14             	mov    0x14(%ebx),%eax
    1483:	56                   	push   %esi
    1484:	8b 40 0c             	mov    0xc(%eax),%eax
    1487:	50                   	push   %eax
    1488:	8d 45 f0             	lea    -0x10(%ebp),%eax
    148b:	68 1c 85 00 00       	push   $0x851c
    1490:	50                   	push   %eax
    1491:	e8 7a 81 00 00       	call   9610 <asprintf@plt>
    1496:	83 c4 10             	add    $0x10,%esp
    1499:	85 c0                	test   %eax,%eax
    149b:	0f 88 07 01 00 00    	js     15a8 <vbds_part_svc_register+0x138>
    14a1:	8b 45 f0             	mov    -0x10(%ebp),%eax
    14a4:	50                   	push   %eax
    14a5:	68 31 85 00 00       	push   $0x8531
    14aa:	6a 04                	push   $0x4
    14ac:	6a ff                	push   $0xffffffff
    14ae:	e8 cd 7f 00 00       	call   9480 <log_msg@plt>
    14b3:	58                   	pop    %eax
    14b4:	8b 4d f0             	mov    -0x10(%ebp),%ecx
    14b7:	8d 45 f4             	lea    -0xc(%ebp),%eax
    14ba:	5a                   	pop    %edx
    14bb:	50                   	push   %eax
    14bc:	51                   	push   %ecx
    14bd:	e8 1e 7f 00 00       	call   93e0 <loc_service_register@plt>
    14c2:	83 c4 10             	add    $0x10,%esp
    14c5:	85 c0                	test   %eax,%eax
    14c7:	0f 85 a3 00 00 00    	jne    1570 <vbds_part_svc_register+0x100>
    14cd:	50                   	push   %eax
    14ce:	50                   	push   %eax
    14cf:	a1 30 b5 00 00       	mov    0xb530,%eax
    14d4:	50                   	push   %eax
    14d5:	8b 45 f4             	mov    -0xc(%ebp),%eax
    14d8:	50                   	push   %eax
    14d9:	e8 c2 80 00 00       	call   95a0 <loc_service_add_to_cat@plt>
    14de:	83 c4 10             	add    $0x10,%esp
    14e1:	85 c0                	test   %eax,%eax
    14e3:	75 2b                	jne    1510 <vbds_part_svc_register+0xa0>
    14e5:	83 ec 0c             	sub    $0xc,%esp
    14e8:	89 45 e4             	mov    %eax,-0x1c(%ebp)
    14eb:	8b 45 f0             	mov    -0x10(%ebp),%eax
    14ee:	50                   	push   %eax
    14ef:	e8 3c 82 00 00       	call   9730 <free@plt>
    14f4:	8b 55 f4             	mov    -0xc(%ebp),%edx
    14f7:	89 73 30             	mov    %esi,0x30(%ebx)
    14fa:	89 53 2c             	mov    %edx,0x2c(%ebx)
    14fd:	83 c4 10             	add    $0x10,%esp
    1500:	8b 45 e4             	mov    -0x1c(%ebp),%eax
    1503:	8d 65 f8             	lea    -0x8(%ebp),%esp
    1506:	5b                   	pop    %ebx
    1507:	5e                   	pop    %esi
    1508:	5d                   	pop    %ebp
    1509:	c3                   	ret    
    150a:	8d b6 00 00 00 00    	lea    0x0(%esi),%esi
    1510:	8b 4d f0             	mov    -0x10(%ebp),%ecx
    1513:	51                   	push   %ecx
    1514:	68 88 88 00 00       	push   $0x8888
    1519:	6a 01                	push   $0x1
    151b:	6a ff                	push   $0xffffffff
    151d:	e8 5e 7f 00 00       	call   9480 <log_msg@plt>
    1522:	8b 45 f0             	mov    -0x10(%ebp),%eax
    1525:	5e                   	pop    %esi
    1526:	50                   	push   %eax
    1527:	e8 04 82 00 00       	call   9730 <free@plt>
    152c:	89 1c 24             	mov    %ebx,(%esp)
    152f:	e8 fc 81 00 00       	call   9730 <free@plt>
    1534:	58                   	pop    %eax
    1535:	8b 45 f4             	mov    -0xc(%ebp),%eax
    1538:	50                   	push   %eax
    1539:	e8 32 80 00 00       	call   9570 <loc_service_unregister@plt>
    153e:	89 c2                	mov    %eax,%edx
    1540:	83 c4 10             	add    $0x10,%esp
    1543:	b8 f6 fe ff ff       	mov    $0xfffffef6,%eax
    1548:	85 d2                	test   %edx,%edx
    154a:	74 b7                	je     1503 <vbds_part_svc_register+0x93>
    154c:	52                   	push   %edx
    154d:	68 c4 88 00 00       	push   $0x88c4
    1552:	6a 01                	push   $0x1
    1554:	6a ff                	push   $0xffffffff
    1556:	89 45 e4             	mov    %eax,-0x1c(%ebp)
    1559:	e8 22 7f 00 00       	call   9480 <log_msg@plt>
    155e:	8b 45 e4             	mov    -0x1c(%ebp),%eax
    1561:	83 c4 10             	add    $0x10,%esp
    1564:	8d 65 f8             	lea    -0x8(%ebp),%esp
    1567:	5b                   	pop    %ebx
    1568:	5e                   	pop    %esi
    1569:	5d                   	pop    %ebp
    156a:	c3                   	ret    
    156b:	90                   	nop
    156c:	8d 74 26 00          	lea    0x0(%esi,%eiz,1),%esi
    1570:	83 ec 0c             	sub    $0xc,%esp
    1573:	8b 55 f0             	mov    -0x10(%ebp),%edx
    1576:	50                   	push   %eax
    1577:	52                   	push   %edx
    1578:	68 64 88 00 00       	push   $0x8864
    157d:	6a 01                	push   $0x1
    157f:	6a ff                	push   $0xffffffff
    1581:	e8 fa 7e 00 00       	call   9480 <log_msg@plt>
    1586:	83 c4 14             	add    $0x14,%esp
    1589:	8b 4d f0             	mov    -0x10(%ebp),%ecx
    158c:	51                   	push   %ecx
    158d:	e8 9e 81 00 00       	call   9730 <free@plt>
    1592:	89 1c 24             	mov    %ebx,(%esp)
    1595:	e8 96 81 00 00       	call   9730 <free@plt>
    159a:	83 c4 10             	add    $0x10,%esp
    159d:	b8 f6 fe ff ff       	mov    $0xfffffef6,%eax
    15a2:	e9 5c ff ff ff       	jmp    1503 <vbds_part_svc_register+0x93>
    15a7:	90                   	nop
    15a8:	53                   	push   %ebx
    15a9:	68 22 85 00 00       	push   $0x8522
    15ae:	6a 01                	push   $0x1
    15b0:	6a ff                	push   $0xffffffff
    15b2:	e8 c9 7e 00 00       	call   9480 <log_msg@plt>
    15b7:	83 c4 10             	add    $0x10,%esp
    15ba:	b8 fe ff ff ff       	mov    $0xfffffffe,%eax
    15bf:	e9 3f ff ff ff       	jmp    1503 <vbds_part_svc_register+0x93>
    15c4:	8d b6 00 00 00 00    	lea    0x0(%esi),%esi
    15ca:	8d bf 00 00 00 00    	lea    0x0(%edi),%edi

000015d0 <vbds_part_indices_update>:
    15d0:	55                   	push   %ebp
    15d1:	89 e5                	mov    %esp,%ebp
    15d3:	57                   	push   %edi
    15d4:	56                   	push   %esi
    15d5:	53                   	push   %ebx
    15d6:	83 ec 40             	sub    $0x40,%esp
    15d9:	89 c6                	mov    %eax,%esi
    15db:	89 45 c4             	mov    %eax,-0x3c(%ebp)
    15de:	83 c6 14             	add    $0x14,%esi
    15e1:	68 4c 85 00 00       	push   $0x854c
    15e6:	6a 04                	push   $0x4
    15e8:	6a ff                	push   $0xffffffff
    15ea:	e8 91 7e 00 00       	call   9480 <log_msg@plt>
    15ef:	c7 04 24 3c b5 00 00 	movl   $0xb53c,(%esp)
    15f6:	e8 45 81 00 00       	call   9740 <fibril_mutex_lock@plt>
    15fb:	8b 5e 04             	mov    0x4(%esi),%ebx
    15fe:	83 c4 10             	add    $0x10,%esp
    1601:	39 f3                	cmp    %esi,%ebx
    1603:	8d 7b e8             	lea    -0x18(%ebx),%edi
    1606:	0f 84 cd 00 00 00    	je     16d9 <vbds_part_indices_update+0x109>
    160c:	8d 74 26 00          	lea    0x0(%esi,%eiz,1),%esi
    1610:	83 ec 0c             	sub    $0xc,%esp
    1613:	57                   	push   %edi
    1614:	e8 87 80 00 00       	call   96a0 <fibril_rwlock_write_lock@plt>
    1619:	8b 47 2c             	mov    0x2c(%edi),%eax
    161c:	83 c4 10             	add    $0x10,%esp
    161f:	85 c0                	test   %eax,%eax
    1621:	74 49                	je     166c <vbds_part_indices_update+0x9c>
    1623:	8b 4f 34             	mov    0x34(%edi),%ecx
    1626:	8b 57 30             	mov    0x30(%edi),%edx
    1629:	39 51 1c             	cmp    %edx,0x1c(%ecx)
    162c:	74 3e                	je     166c <vbds_part_indices_update+0x9c>
    162e:	83 ec 0c             	sub    $0xc,%esp
    1631:	50                   	push   %eax
    1632:	8b 47 14             	mov    0x14(%edi),%eax
    1635:	8b 40 0c             	mov    0xc(%eax),%eax
    1638:	50                   	push   %eax
    1639:	68 f4 88 00 00       	push   $0x88f4
    163e:	6a 04                	push   $0x4
    1640:	6a ff                	push   $0xffffffff
    1642:	e8 39 7e 00 00       	call   9480 <log_msg@plt>
    1647:	83 c4 14             	add    $0x14,%esp
    164a:	8b 47 2c             	mov    0x2c(%edi),%eax
    164d:	50                   	push   %eax
    164e:	e8 1d 7f 00 00       	call   9570 <loc_service_unregister@plt>
    1653:	83 c4 10             	add    $0x10,%esp
    1656:	85 c0                	test   %eax,%eax
    1658:	0f 85 9a 00 00 00    	jne    16f8 <vbds_part_indices_update+0x128>
    165e:	c7 47 2c 00 00 00 00 	movl   $0x0,0x2c(%edi)
    1665:	c7 47 30 00 00 00 00 	movl   $0x0,0x30(%edi)
    166c:	83 ec 0c             	sub    $0xc,%esp
    166f:	57                   	push   %edi
    1670:	e8 3b 7f 00 00       	call   95b0 <fibril_rwlock_write_unlock@plt>
    1675:	8b 5b 04             	mov    0x4(%ebx),%ebx
    1678:	83 c4 10             	add    $0x10,%esp
    167b:	39 f3                	cmp    %esi,%ebx
    167d:	8d 7b e8             	lea    -0x18(%ebx),%edi
    1680:	75 8e                	jne    1610 <vbds_part_indices_update+0x40>
    1682:	8b 45 c4             	mov    -0x3c(%ebp),%eax
    1685:	8b 70 18             	mov    0x18(%eax),%esi
    1688:	39 f3                	cmp    %esi,%ebx
    168a:	8d 7e e8             	lea    -0x18(%esi),%edi
    168d:	74 4a                	je     16d9 <vbds_part_indices_update+0x109>
    168f:	90                   	nop
    1690:	83 ec 0c             	sub    $0xc,%esp
    1693:	57                   	push   %edi
    1694:	e8 07 80 00 00       	call   96a0 <fibril_rwlock_write_lock@plt>
    1699:	58                   	pop    %eax
    169a:	8b 4f 34             	mov    0x34(%edi),%ecx
    169d:	8d 45 d0             	lea    -0x30(%ebp),%eax
    16a0:	5a                   	pop    %edx
    16a1:	50                   	push   %eax
    16a2:	51                   	push   %ecx
    16a3:	e8 18 21 00 00       	call   37c0 <label_part_get_info>
    16a8:	8b 47 2c             	mov    0x2c(%edi),%eax
    16ab:	83 c4 10             	add    $0x10,%esp
    16ae:	85 c0                	test   %eax,%eax
    16b0:	75 11                	jne    16c3 <vbds_part_indices_update+0xf3>
    16b2:	83 7d d4 01          	cmpl   $0x1,-0x2c(%ebp)
    16b6:	74 0b                	je     16c3 <vbds_part_indices_update+0xf3>
    16b8:	89 f8                	mov    %edi,%eax
    16ba:	e8 b1 fd ff ff       	call   1470 <vbds_part_svc_register>
    16bf:	85 c0                	test   %eax,%eax
    16c1:	75 6b                	jne    172e <vbds_part_indices_update+0x15e>
    16c3:	83 ec 0c             	sub    $0xc,%esp
    16c6:	57                   	push   %edi
    16c7:	e8 e4 7e 00 00       	call   95b0 <fibril_rwlock_write_unlock@plt>
    16cc:	8b 76 04             	mov    0x4(%esi),%esi
    16cf:	83 c4 10             	add    $0x10,%esp
    16d2:	39 f3                	cmp    %esi,%ebx
    16d4:	8d 7e e8             	lea    -0x18(%esi),%edi
    16d7:	75 b7                	jne    1690 <vbds_part_indices_update+0xc0>
    16d9:	83 ec 0c             	sub    $0xc,%esp
    16dc:	68 3c b5 00 00       	push   $0xb53c
    16e1:	e8 7a 7e 00 00       	call   9560 <fibril_mutex_unlock@plt>
    16e6:	83 c4 10             	add    $0x10,%esp
    16e9:	8d 65 f4             	lea    -0xc(%ebp),%esp
    16ec:	31 c0                	xor    %eax,%eax
    16ee:	5b                   	pop    %ebx
    16ef:	5e                   	pop    %esi
    16f0:	5f                   	pop    %edi
    16f1:	5d                   	pop    %ebp
    16f2:	c3                   	ret    
    16f3:	90                   	nop
    16f4:	8d 74 26 00          	lea    0x0(%esi,%eiz,1),%esi
    16f8:	83 ec 0c             	sub    $0xc,%esp
    16fb:	57                   	push   %edi
    16fc:	e8 af 7e 00 00       	call   95b0 <fibril_rwlock_write_unlock@plt>
    1701:	c7 04 24 3c b5 00 00 	movl   $0xb53c,(%esp)
    1708:	e8 53 7e 00 00       	call   9560 <fibril_mutex_unlock@plt>
    170d:	83 c4 0c             	add    $0xc,%esp
    1710:	68 4c 89 00 00       	push   $0x894c
    1715:	6a 01                	push   $0x1
    1717:	6a ff                	push   $0xffffffff
    1719:	e8 62 7d 00 00       	call   9480 <log_msg@plt>
    171e:	83 c4 10             	add    $0x10,%esp
    1721:	8d 65 f4             	lea    -0xc(%ebp),%esp
    1724:	b8 f6 fe ff ff       	mov    $0xfffffef6,%eax
    1729:	5b                   	pop    %ebx
    172a:	5e                   	pop    %esi
    172b:	5f                   	pop    %edi
    172c:	5d                   	pop    %ebp
    172d:	c3                   	ret    
    172e:	83 ec 0c             	sub    $0xc,%esp
    1731:	57                   	push   %edi
    1732:	e8 79 7e 00 00       	call   95b0 <fibril_rwlock_write_unlock@plt>
    1737:	c7 04 24 3c b5 00 00 	movl   $0xb53c,(%esp)
    173e:	e8 1d 7e 00 00       	call   9560 <fibril_mutex_unlock@plt>
    1743:	83 c4 0c             	add    $0xc,%esp
    1746:	68 2c 89 00 00       	push   $0x892c
    174b:	eb c8                	jmp    1715 <vbds_part_indices_update+0x145>
    174d:	8d 76 00             	lea    0x0(%esi),%esi

00001750 <vbds_disk_parts_remove>:
    1750:	55                   	push   %ebp
    1751:	89 e5                	mov    %esp,%ebp
    1753:	57                   	push   %edi
    1754:	56                   	push   %esi
    1755:	53                   	push   %ebx
    1756:	83 ec 1c             	sub    $0x1c,%esp
    1759:	8d 58 14             	lea    0x14(%eax),%ebx
    175c:	8b 48 18             	mov    0x18(%eax),%ecx
    175f:	89 5d e4             	mov    %ebx,-0x1c(%ebp)
    1762:	39 cb                	cmp    %ecx,%ebx
    1764:	0f 84 f4 00 00 00    	je     185e <vbds_disk_parts_remove+0x10e>
    176a:	89 d6                	mov    %edx,%esi
    176c:	89 c3                	mov    %eax,%ebx
    176e:	83 e6 01             	and    $0x1,%esi
    1771:	85 c9                	test   %ecx,%ecx
    1773:	0f 84 e5 00 00 00    	je     185e <vbds_disk_parts_remove+0x10e>
    1779:	8d b4 26 00 00 00 00 	lea    0x0(%esi,%eiz,1),%esi
    1780:	8d 79 e8             	lea    -0x18(%ecx),%edi
    1783:	57                   	push   %edi
    1784:	68 67 85 00 00       	push   $0x8567
    1789:	6a 04                	push   $0x4
    178b:	6a ff                	push   $0xffffffff
    178d:	e8 ee 7c 00 00       	call   9480 <log_msg@plt>
    1792:	89 3c 24             	mov    %edi,(%esp)
    1795:	e8 06 7f 00 00       	call   96a0 <fibril_rwlock_write_lock@plt>
    179a:	83 c4 10             	add    $0x10,%esp
    179d:	85 f6                	test   %esi,%esi
    179f:	75 0b                	jne    17ac <vbds_disk_parts_remove+0x5c>
    17a1:	8b 47 40             	mov    0x40(%edi),%eax
    17a4:	85 c0                	test   %eax,%eax
    17a6:	0f 8f 1c 01 00 00    	jg     18c8 <vbds_disk_parts_remove+0x178>
    17ac:	8b 47 2c             	mov    0x2c(%edi),%eax
    17af:	85 c0                	test   %eax,%eax
    17b1:	0f 85 b1 00 00 00    	jne    1868 <vbds_disk_parts_remove+0x118>
    17b7:	8b 57 18             	mov    0x18(%edi),%edx
    17ba:	85 d2                	test   %edx,%edx
    17bc:	74 0f                	je     17cd <vbds_disk_parts_remove+0x7d>
    17be:	8b 47 1c             	mov    0x1c(%edi),%eax
    17c1:	85 c0                	test   %eax,%eax
    17c3:	74 08                	je     17cd <vbds_disk_parts_remove+0x7d>
    17c5:	89 10                	mov    %edx,(%eax)
    17c7:	8b 57 18             	mov    0x18(%edi),%edx
    17ca:	89 42 04             	mov    %eax,0x4(%edx)
    17cd:	83 ec 0c             	sub    $0xc,%esp
    17d0:	c7 47 18 00 00 00 00 	movl   $0x0,0x18(%edi)
    17d7:	c7 47 1c 00 00 00 00 	movl   $0x0,0x1c(%edi)
    17de:	68 3c b5 00 00       	push   $0xb53c
    17e3:	e8 58 7f 00 00       	call   9740 <fibril_mutex_lock@plt>
    17e8:	8b 57 20             	mov    0x20(%edi),%edx
    17eb:	83 c4 10             	add    $0x10,%esp
    17ee:	85 d2                	test   %edx,%edx
    17f0:	74 0f                	je     1801 <vbds_disk_parts_remove+0xb1>
    17f2:	8b 47 24             	mov    0x24(%edi),%eax
    17f5:	85 c0                	test   %eax,%eax
    17f7:	74 08                	je     1801 <vbds_disk_parts_remove+0xb1>
    17f9:	89 10                	mov    %edx,(%eax)
    17fb:	8b 57 20             	mov    0x20(%edi),%edx
    17fe:	89 42 04             	mov    %eax,0x4(%edx)
    1801:	83 ec 0c             	sub    $0xc,%esp
    1804:	c7 47 20 00 00 00 00 	movl   $0x0,0x20(%edi)
    180b:	c7 47 24 00 00 00 00 	movl   $0x0,0x24(%edi)
    1812:	68 3c b5 00 00       	push   $0xb53c
    1817:	e8 44 7d 00 00       	call   9560 <fibril_mutex_unlock@plt>
    181c:	83 c4 0c             	add    $0xc,%esp
    181f:	68 90 85 00 00       	push   $0x8590
    1824:	6a 05                	push   $0x5
    1826:	6a ff                	push   $0xffffffff
    1828:	e8 53 7c 00 00       	call   9480 <log_msg@plt>
    182d:	83 c8 ff             	or     $0xffffffff,%eax
    1830:	f0 0f c1 47 54       	lock xadd %eax,0x54(%edi)
    1835:	83 c4 10             	add    $0x10,%esp
    1838:	48                   	dec    %eax
    1839:	74 6d                	je     18a8 <vbds_disk_parts_remove+0x158>
    183b:	83 ec 0c             	sub    $0xc,%esp
    183e:	c7 47 34 00 00 00 00 	movl   $0x0,0x34(%edi)
    1845:	57                   	push   %edi
    1846:	e8 65 7d 00 00       	call   95b0 <fibril_rwlock_write_unlock@plt>
    184b:	8b 4b 18             	mov    0x18(%ebx),%ecx
    184e:	83 c4 10             	add    $0x10,%esp
    1851:	39 4d e4             	cmp    %ecx,-0x1c(%ebp)
    1854:	74 08                	je     185e <vbds_disk_parts_remove+0x10e>
    1856:	85 c9                	test   %ecx,%ecx
    1858:	0f 85 22 ff ff ff    	jne    1780 <vbds_disk_parts_remove+0x30>
    185e:	8d 65 f4             	lea    -0xc(%ebp),%esp
    1861:	31 c0                	xor    %eax,%eax
    1863:	5b                   	pop    %ebx
    1864:	5e                   	pop    %esi
    1865:	5f                   	pop    %edi
    1866:	5d                   	pop    %ebp
    1867:	c3                   	ret    
    1868:	83 ec 0c             	sub    $0xc,%esp
    186b:	50                   	push   %eax
    186c:	8b 47 14             	mov    0x14(%edi),%eax
    186f:	8b 50 0c             	mov    0xc(%eax),%edx
    1872:	52                   	push   %edx
    1873:	68 f4 88 00 00       	push   $0x88f4
    1878:	6a 04                	push   $0x4
    187a:	6a ff                	push   $0xffffffff
    187c:	e8 ff 7b 00 00       	call   9480 <log_msg@plt>
    1881:	83 c4 14             	add    $0x14,%esp
    1884:	8b 4f 2c             	mov    0x2c(%edi),%ecx
    1887:	51                   	push   %ecx
    1888:	e8 e3 7c 00 00       	call   9570 <loc_service_unregister@plt>
    188d:	83 c4 10             	add    $0x10,%esp
    1890:	85 c0                	test   %eax,%eax
    1892:	75 64                	jne    18f8 <vbds_disk_parts_remove+0x1a8>
    1894:	c7 47 2c 00 00 00 00 	movl   $0x0,0x2c(%edi)
    189b:	c7 47 30 00 00 00 00 	movl   $0x0,0x30(%edi)
    18a2:	e9 10 ff ff ff       	jmp    17b7 <vbds_disk_parts_remove+0x67>
    18a7:	90                   	nop
    18a8:	50                   	push   %eax
    18a9:	68 a2 85 00 00       	push   $0x85a2
    18ae:	6a 05                	push   $0x5
    18b0:	6a ff                	push   $0xffffffff
    18b2:	e8 c9 7b 00 00       	call   9480 <log_msg@plt>
    18b7:	89 3c 24             	mov    %edi,(%esp)
    18ba:	e8 71 7e 00 00       	call   9730 <free@plt>
    18bf:	83 c4 10             	add    $0x10,%esp
    18c2:	e9 74 ff ff ff       	jmp    183b <vbds_disk_parts_remove+0xeb>
    18c7:	90                   	nop
    18c8:	83 ec 0c             	sub    $0xc,%esp
    18cb:	57                   	push   %edi
    18cc:	e8 df 7c 00 00       	call   95b0 <fibril_rwlock_write_unlock@plt>
    18d1:	8b 5f 40             	mov    0x40(%edi),%ebx
    18d4:	53                   	push   %ebx
    18d5:	68 7c 85 00 00       	push   $0x857c
    18da:	6a 04                	push   $0x4
    18dc:	6a ff                	push   $0xffffffff
    18de:	e8 9d 7b 00 00       	call   9480 <log_msg@plt>
    18e3:	83 c4 20             	add    $0x20,%esp
    18e6:	8d 65 f4             	lea    -0xc(%ebp),%esp
    18e9:	b8 f1 ff ff ff       	mov    $0xfffffff1,%eax
    18ee:	5b                   	pop    %ebx
    18ef:	5e                   	pop    %esi
    18f0:	5f                   	pop    %edi
    18f1:	5d                   	pop    %ebp
    18f2:	c3                   	ret    
    18f3:	90                   	nop
    18f4:	8d 74 26 00          	lea    0x0(%esi,%eiz,1),%esi
    18f8:	83 ec 0c             	sub    $0xc,%esp
    18fb:	57                   	push   %edi
    18fc:	e8 af 7c 00 00       	call   95b0 <fibril_rwlock_write_unlock@plt>
    1901:	83 c4 10             	add    $0x10,%esp
    1904:	8d 65 f4             	lea    -0xc(%ebp),%esp
    1907:	b8 f6 fe ff ff       	mov    $0xfffffef6,%eax
    190c:	5b                   	pop    %ebx
    190d:	5e                   	pop    %esi
    190e:	5f                   	pop    %edi
    190f:	5d                   	pop    %ebp
    1910:	c3                   	ret    
    1911:	eb 0d                	jmp    1920 <vbds_disk_parts_add>
    1913:	90                   	nop
    1914:	90                   	nop
    1915:	90                   	nop
    1916:	90                   	nop
    1917:	90                   	nop
    1918:	90                   	nop
    1919:	90                   	nop
    191a:	90                   	nop
    191b:	90                   	nop
    191c:	90                   	nop
    191d:	90                   	nop
    191e:	90                   	nop
    191f:	90                   	nop

00001920 <vbds_disk_parts_add>:
    1920:	55                   	push   %ebp
    1921:	89 e5                	mov    %esp,%ebp
    1923:	57                   	push   %edi
    1924:	56                   	push   %esi
    1925:	53                   	push   %ebx
    1926:	83 ec 48             	sub    $0x48,%esp
    1929:	89 c6                	mov    %eax,%esi
    192b:	52                   	push   %edx
    192c:	e8 6f 1e 00 00       	call   37a0 <label_part_first>
    1931:	89 c3                	mov    %eax,%ebx
    1933:	8d 46 14             	lea    0x14(%esi),%eax
    1936:	83 c4 10             	add    $0x10,%esp
    1939:	89 45 c4             	mov    %eax,-0x3c(%ebp)
    193c:	85 db                	test   %ebx,%ebx
    193e:	0f 84 19 01 00 00    	je     1a5d <vbds_disk_parts_add+0x13d>
    1944:	8d 74 26 00          	lea    0x0(%esi,%eiz,1),%esi
    1948:	83 ec 0c             	sub    $0xc,%esp
    194b:	8b 4e 0c             	mov    0xc(%esi),%ecx
    194e:	53                   	push   %ebx
    194f:	51                   	push   %ecx
    1950:	68 af 85 00 00       	push   $0x85af
    1955:	6a 04                	push   $0x4
    1957:	6a ff                	push   $0xffffffff
    1959:	e8 22 7b 00 00       	call   9480 <log_msg@plt>
    195e:	83 c4 18             	add    $0x18,%esp
    1961:	8d 45 d0             	lea    -0x30(%ebp),%eax
    1964:	50                   	push   %eax
    1965:	53                   	push   %ebx
    1966:	e8 55 1e 00 00       	call   37c0 <label_part_get_info>
    196b:	5f                   	pop    %edi
    196c:	58                   	pop    %eax
    196d:	6a 58                	push   $0x58
    196f:	6a 01                	push   $0x1
    1971:	e8 9a 7b 00 00       	call   9510 <calloc@plt>
    1976:	83 c4 10             	add    $0x10,%esp
    1979:	89 c7                	mov    %eax,%edi
    197b:	85 c0                	test   %eax,%eax
    197d:	0f 84 19 01 00 00    	je     1a9c <vbds_disk_parts_add+0x17c>
    1983:	83 ec 0c             	sub    $0xc,%esp
    1986:	50                   	push   %eax
    1987:	e8 34 7d 00 00       	call   96c0 <fibril_rwlock_initialize@plt>
    198c:	a1 20 b3 00 00       	mov    0xb320,%eax
    1991:	8b 55 dc             	mov    -0x24(%ebp),%edx
    1994:	40                   	inc    %eax
    1995:	89 57 48             	mov    %edx,0x48(%edi)
    1998:	89 47 28             	mov    %eax,0x28(%edi)
    199b:	a3 20 b3 00 00       	mov    %eax,0xb320
    19a0:	8b 45 d8             	mov    -0x28(%ebp),%eax
    19a3:	8b 55 e4             	mov    -0x1c(%ebp),%edx
    19a6:	89 47 44             	mov    %eax,0x44(%edi)
    19a9:	8b 45 e0             	mov    -0x20(%ebp),%eax
    19ac:	89 47 4c             	mov    %eax,0x4c(%edi)
    19af:	89 5f 34             	mov    %ebx,0x34(%edi)
    19b2:	89 77 14             	mov    %esi,0x14(%edi)
    19b5:	c7 47 2c 00 00 00 00 	movl   $0x0,0x2c(%edi)
    19bc:	89 57 50             	mov    %edx,0x50(%edi)
    19bf:	c7 47 54 01 00 00 00 	movl   $0x1,0x54(%edi)
    19c6:	8d 47 38             	lea    0x38(%edi),%eax
    19c9:	89 04 24             	mov    %eax,(%esp)
    19cc:	e8 7f 7b 00 00       	call   9550 <bd_srvs_init@plt>
    19d1:	83 c4 10             	add    $0x10,%esp
    19d4:	c7 47 38 00 b3 00 00 	movl   $0xb300,0x38(%edi)
    19db:	89 7f 3c             	mov    %edi,0x3c(%edi)
    19de:	83 7d d4 01          	cmpl   $0x1,-0x2c(%ebp)
    19e2:	74 0b                	je     19ef <vbds_disk_parts_add+0xcf>
    19e4:	89 f8                	mov    %edi,%eax
    19e6:	e8 85 fa ff ff       	call   1470 <vbds_part_svc_register>
    19eb:	85 c0                	test   %eax,%eax
    19ed:	75 79                	jne    1a68 <vbds_disk_parts_add+0x148>
    19ef:	8b 4e 14             	mov    0x14(%esi),%ecx
    19f2:	83 ec 0c             	sub    $0xc,%esp
    19f5:	8b 55 c4             	mov    -0x3c(%ebp),%edx
    19f8:	8d 47 18             	lea    0x18(%edi),%eax
    19fb:	89 57 1c             	mov    %edx,0x1c(%edi)
    19fe:	89 4f 18             	mov    %ecx,0x18(%edi)
    1a01:	89 41 04             	mov    %eax,0x4(%ecx)
    1a04:	89 46 14             	mov    %eax,0x14(%esi)
    1a07:	68 3c b5 00 00       	push   $0xb53c
    1a0c:	e8 2f 7d 00 00       	call   9740 <fibril_mutex_lock@plt>
    1a11:	8b 0d 34 b5 00 00    	mov    0xb534,%ecx
    1a17:	8d 47 20             	lea    0x20(%edi),%eax
    1a1a:	89 4f 20             	mov    %ecx,0x20(%edi)
    1a1d:	c7 47 24 34 b5 00 00 	movl   $0xb534,0x24(%edi)
    1a24:	89 41 04             	mov    %eax,0x4(%ecx)
    1a27:	a3 34 b5 00 00       	mov    %eax,0xb534
    1a2c:	c7 04 24 3c b5 00 00 	movl   $0xb53c,(%esp)
    1a33:	e8 28 7b 00 00       	call   9560 <fibril_mutex_unlock@plt>
    1a38:	57                   	push   %edi
    1a39:	68 c5 85 00 00       	push   $0x85c5
    1a3e:	6a 04                	push   $0x4
    1a40:	6a ff                	push   $0xffffffff
    1a42:	e8 39 7a 00 00       	call   9480 <log_msg@plt>
    1a47:	83 c4 14             	add    $0x14,%esp
    1a4a:	53                   	push   %ebx
    1a4b:	e8 60 1d 00 00       	call   37b0 <label_part_next>
    1a50:	83 c4 10             	add    $0x10,%esp
    1a53:	89 c3                	mov    %eax,%ebx
    1a55:	85 c0                	test   %eax,%eax
    1a57:	0f 85 eb fe ff ff    	jne    1948 <vbds_disk_parts_add+0x28>
    1a5d:	8d 65 f4             	lea    -0xc(%ebp),%esp
    1a60:	31 c0                	xor    %eax,%eax
    1a62:	5b                   	pop    %ebx
    1a63:	5e                   	pop    %esi
    1a64:	5f                   	pop    %edi
    1a65:	5d                   	pop    %ebp
    1a66:	c3                   	ret    
    1a67:	90                   	nop
    1a68:	83 ec 0c             	sub    $0xc,%esp
    1a6b:	57                   	push   %edi
    1a6c:	e8 bf 7c 00 00       	call   9730 <free@plt>
    1a71:	83 c4 10             	add    $0x10,%esp
    1a74:	b8 f6 fe ff ff       	mov    $0xfffffef6,%eax
    1a79:	89 45 c4             	mov    %eax,-0x3c(%ebp)
    1a7c:	8b 46 0c             	mov    0xc(%esi),%eax
    1a7f:	50                   	push   %eax
    1a80:	68 6c 89 00 00       	push   $0x896c
    1a85:	6a 01                	push   $0x1
    1a87:	6a ff                	push   $0xffffffff
    1a89:	e8 f2 79 00 00       	call   9480 <log_msg@plt>
    1a8e:	8b 45 c4             	mov    -0x3c(%ebp),%eax
    1a91:	83 c4 10             	add    $0x10,%esp
    1a94:	8d 65 f4             	lea    -0xc(%ebp),%esp
    1a97:	5b                   	pop    %ebx
    1a98:	5e                   	pop    %esi
    1a99:	5f                   	pop    %edi
    1a9a:	5d                   	pop    %ebp
    1a9b:	c3                   	ret    
    1a9c:	52                   	push   %edx
    1a9d:	68 22 85 00 00       	push   $0x8522
    1aa2:	6a 01                	push   $0x1
    1aa4:	6a ff                	push   $0xffffffff
    1aa6:	e8 d5 79 00 00       	call   9480 <log_msg@plt>
    1aab:	83 c4 10             	add    $0x10,%esp
    1aae:	b8 fe ff ff ff       	mov    $0xfffffffe,%eax
    1ab3:	eb c4                	jmp    1a79 <vbds_disk_parts_add+0x159>
    1ab5:	8d 74 26 00          	lea    0x0(%esi,%eiz,1),%esi
    1ab9:	8d bc 27 00 00 00 00 	lea    0x0(%edi,%eiz,1),%edi

00001ac0 <vbds_disks_init>:
    1ac0:	55                   	push   %ebp
    1ac1:	89 e5                	mov    %esp,%ebp
    1ac3:	83 ec 14             	sub    $0x14,%esp
    1ac6:	68 54 b5 00 00       	push   $0xb554
    1acb:	e8 b0 7a 00 00       	call   9580 <fibril_mutex_initialize@plt>
    1ad0:	c7 04 24 3c b5 00 00 	movl   $0xb53c,(%esp)
    1ad7:	c7 05 4c b5 00 00 4c 	movl   $0xb54c,0xb54c
    1ade:	b5 00 00 
    1ae1:	c7 05 50 b5 00 00 4c 	movl   $0xb54c,0xb550
    1ae8:	b5 00 00 
    1aeb:	e8 90 7a 00 00       	call   9580 <fibril_mutex_initialize@plt>
    1af0:	83 c4 0c             	add    $0xc,%esp
    1af3:	c7 05 34 b5 00 00 34 	movl   $0xb534,0xb534
    1afa:	b5 00 00 
    1afd:	c7 05 38 b5 00 00 34 	movl   $0xb534,0xb538
    1b04:	b5 00 00 
    1b07:	6a 00                	push   $0x0
    1b09:	68 30 b5 00 00       	push   $0xb530
    1b0e:	68 c8 87 00 00       	push   $0x87c8
    1b13:	e8 38 78 00 00       	call   9350 <loc_category_get_id@plt>
    1b18:	83 c4 10             	add    $0x10,%esp
    1b1b:	85 c0                	test   %eax,%eax
    1b1d:	75 09                	jne    1b28 <vbds_disks_init+0x68>
    1b1f:	c9                   	leave  
    1b20:	c3                   	ret    
    1b21:	8d b4 26 00 00 00 00 	lea    0x0(%esi,%eiz,1),%esi
    1b28:	50                   	push   %eax
    1b29:	68 90 89 00 00       	push   $0x8990
    1b2e:	6a 01                	push   $0x1
    1b30:	6a ff                	push   $0xffffffff
    1b32:	e8 49 79 00 00       	call   9480 <log_msg@plt>
    1b37:	83 c4 10             	add    $0x10,%esp
    1b3a:	b8 f6 fe ff ff       	mov    $0xfffffef6,%eax
    1b3f:	c9                   	leave  
    1b40:	c3                   	ret    
    1b41:	eb 0d                	jmp    1b50 <vbds_disk_add>
    1b43:	90                   	nop
    1b44:	90                   	nop
    1b45:	90                   	nop
    1b46:	90                   	nop
    1b47:	90                   	nop
    1b48:	90                   	nop
    1b49:	90                   	nop
    1b4a:	90                   	nop
    1b4b:	90                   	nop
    1b4c:	90                   	nop
    1b4d:	90                   	nop
    1b4e:	90                   	nop
    1b4f:	90                   	nop

00001b50 <vbds_disk_add>:
    1b50:	55                   	push   %ebp
    1b51:	89 e5                	mov    %esp,%ebp
    1b53:	57                   	push   %edi
    1b54:	56                   	push   %esi
    1b55:	53                   	push   %ebx
    1b56:	83 ec 1c             	sub    $0x1c,%esp
    1b59:	c7 45 d8 00 00 00 00 	movl   $0x0,-0x28(%ebp)
    1b60:	8b 7d 08             	mov    0x8(%ebp),%edi
    1b63:	57                   	push   %edi
    1b64:	68 d9 85 00 00       	push   $0x85d9
    1b69:	6a 04                	push   $0x4
    1b6b:	6a ff                	push   $0xffffffff
    1b6d:	e8 0e 79 00 00       	call   9480 <log_msg@plt>
    1b72:	a1 50 b5 00 00       	mov    0xb550,%eax
    1b77:	83 c4 10             	add    $0x10,%esp
    1b7a:	3d 4c b5 00 00       	cmp    $0xb54c,%eax
    1b7f:	75 11                	jne    1b92 <vbds_disk_add+0x42>
    1b81:	eb 25                	jmp    1ba8 <vbds_disk_add+0x58>
    1b83:	90                   	nop
    1b84:	8d 74 26 00          	lea    0x0(%esi,%eiz,1),%esi
    1b88:	8b 40 04             	mov    0x4(%eax),%eax
    1b8b:	3d 4c b5 00 00       	cmp    $0xb54c,%eax
    1b90:	74 16                	je     1ba8 <vbds_disk_add+0x58>
    1b92:	3b 78 08             	cmp    0x8(%eax),%edi
    1b95:	75 f1                	jne    1b88 <vbds_disk_add+0x38>
    1b97:	be f7 ff ff ff       	mov    $0xfffffff7,%esi
    1b9c:	8d 65 f4             	lea    -0xc(%ebp),%esp
    1b9f:	89 f0                	mov    %esi,%eax
    1ba1:	5b                   	pop    %ebx
    1ba2:	5e                   	pop    %esi
    1ba3:	5f                   	pop    %edi
    1ba4:	5d                   	pop    %ebp
    1ba5:	c3                   	ret    
    1ba6:	66 90                	xchg   %ax,%ax
    1ba8:	50                   	push   %eax
    1ba9:	50                   	push   %eax
    1baa:	6a 2c                	push   $0x2c
    1bac:	6a 01                	push   $0x1
    1bae:	e8 5d 79 00 00       	call   9510 <calloc@plt>
    1bb3:	83 c4 10             	add    $0x10,%esp
    1bb6:	89 c3                	mov    %eax,%ebx
    1bb8:	85 c0                	test   %eax,%eax
    1bba:	0f 84 ab 01 00 00    	je     1d6b <vbds_disk_add+0x21b>
    1bc0:	50                   	push   %eax
    1bc1:	50                   	push   %eax
    1bc2:	8d 43 0c             	lea    0xc(%ebx),%eax
    1bc5:	50                   	push   %eax
    1bc6:	57                   	push   %edi
    1bc7:	e8 24 79 00 00       	call   94f0 <loc_service_get_name@plt>
    1bcc:	83 c4 10             	add    $0x10,%esp
    1bcf:	85 c0                	test   %eax,%eax
    1bd1:	0f 85 2c 01 00 00    	jne    1d03 <vbds_disk_add+0x1b3>
    1bd7:	57                   	push   %edi
    1bd8:	68 ec 85 00 00       	push   $0x85ec
    1bdd:	6a 04                	push   $0x4
    1bdf:	6a ff                	push   $0xffffffff
    1be1:	e8 9a 78 00 00       	call   9480 <log_msg@plt>
    1be6:	5e                   	pop    %esi
    1be7:	58                   	pop    %eax
    1be8:	68 00 08 00 00       	push   $0x800
    1bed:	57                   	push   %edi
    1bee:	e8 1d 50 00 00       	call   6c10 <block_init>
    1bf3:	83 c4 10             	add    $0x10,%esp
    1bf6:	85 c0                	test   %eax,%eax
    1bf8:	0f 85 28 01 00 00    	jne    1d26 <vbds_disk_add+0x1d6>
    1bfe:	8d 45 dc             	lea    -0x24(%ebp),%eax
    1c01:	52                   	push   %edx
    1c02:	52                   	push   %edx
    1c03:	50                   	push   %eax
    1c04:	57                   	push   %edi
    1c05:	e8 66 64 00 00       	call   8070 <block_get_bsize>
    1c0a:	83 c4 10             	add    $0x10,%esp
    1c0d:	85 c0                	test   %eax,%eax
    1c0f:	0f 85 28 01 00 00    	jne    1d3d <vbds_disk_add+0x1ed>
    1c15:	50                   	push   %eax
    1c16:	50                   	push   %eax
    1c17:	8d 45 e0             	lea    -0x20(%ebp),%eax
    1c1a:	50                   	push   %eax
    1c1b:	57                   	push   %edi
    1c1c:	e8 df 64 00 00       	call   8100 <block_get_nblocks>
    1c21:	83 c4 10             	add    $0x10,%esp
    1c24:	85 c0                	test   %eax,%eax
    1c26:	0f 85 28 01 00 00    	jne    1d54 <vbds_disk_add+0x204>
    1c2c:	50                   	push   %eax
    1c2d:	50                   	push   %eax
    1c2e:	8d 45 d8             	lea    -0x28(%ebp),%eax
    1c31:	50                   	push   %eax
    1c32:	57                   	push   %edi
    1c33:	e8 78 1a 00 00       	call   36b0 <label_open>
    1c38:	83 c4 10             	add    $0x10,%esp
    1c3b:	89 c6                	mov    %eax,%esi
    1c3d:	85 c0                	test   %eax,%eax
    1c3f:	75 65                	jne    1ca6 <vbds_disk_add+0x156>
    1c41:	8b 45 d8             	mov    -0x28(%ebp),%eax
    1c44:	8b 55 e4             	mov    -0x1c(%ebp),%edx
    1c47:	89 43 10             	mov    %eax,0x10(%ebx)
    1c4a:	8b 45 dc             	mov    -0x24(%ebp),%eax
    1c4d:	89 43 1c             	mov    %eax,0x1c(%ebx)
    1c50:	8b 45 e0             	mov    -0x20(%ebp),%eax
    1c53:	89 43 20             	mov    %eax,0x20(%ebx)
    1c56:	8d 43 14             	lea    0x14(%ebx),%eax
    1c59:	89 43 14             	mov    %eax,0x14(%ebx)
    1c5c:	89 43 18             	mov    %eax,0x18(%ebx)
    1c5f:	a1 4c b5 00 00       	mov    0xb54c,%eax
    1c64:	89 7b 08             	mov    %edi,0x8(%ebx)
    1c67:	89 53 24             	mov    %edx,0x24(%ebx)
    1c6a:	89 03                	mov    %eax,(%ebx)
    1c6c:	c6 43 28 01          	movb   $0x1,0x28(%ebx)
    1c70:	c7 43 04 4c b5 00 00 	movl   $0xb54c,0x4(%ebx)
    1c77:	89 58 04             	mov    %ebx,0x4(%eax)
    1c7a:	89 1d 4c b5 00 00    	mov    %ebx,0xb54c
    1c80:	51                   	push   %ecx
    1c81:	68 6c 8a 00 00       	push   $0x8a6c
    1c86:	6a 03                	push   $0x3
    1c88:	6a ff                	push   $0xffffffff
    1c8a:	e8 f1 77 00 00       	call   9480 <log_msg@plt>
    1c8f:	8b 55 d8             	mov    -0x28(%ebp),%edx
    1c92:	89 d8                	mov    %ebx,%eax
    1c94:	e8 87 fc ff ff       	call   1920 <vbds_disk_parts_add>
    1c99:	83 c4 10             	add    $0x10,%esp
    1c9c:	8d 65 f4             	lea    -0xc(%ebp),%esp
    1c9f:	89 f0                	mov    %esi,%eax
    1ca1:	5b                   	pop    %ebx
    1ca2:	5e                   	pop    %esi
    1ca3:	5f                   	pop    %edi
    1ca4:	5d                   	pop    %ebp
    1ca5:	c3                   	ret    
    1ca6:	8b 73 0c             	mov    0xc(%ebx),%esi
    1ca9:	56                   	push   %esi
    1caa:	68 48 8a 00 00       	push   $0x8a48
    1caf:	6a 01                	push   $0x1
    1cb1:	6a ff                	push   $0xffffffff
    1cb3:	e8 c8 77 00 00       	call   9480 <log_msg@plt>
    1cb8:	58                   	pop    %eax
    1cb9:	8b 45 d8             	mov    -0x28(%ebp),%eax
    1cbc:	50                   	push   %eax
    1cbd:	e8 9e 1a 00 00       	call   3760 <label_close>
    1cc2:	57                   	push   %edi
    1cc3:	68 fc 85 00 00       	push   $0x85fc
    1cc8:	6a 04                	push   $0x4
    1cca:	6a ff                	push   $0xffffffff
    1ccc:	e8 af 77 00 00       	call   9480 <log_msg@plt>
    1cd1:	83 c4 14             	add    $0x14,%esp
    1cd4:	57                   	push   %edi
    1cd5:	e8 c6 55 00 00       	call   72a0 <block_fini>
    1cda:	83 c4 10             	add    $0x10,%esp
    1cdd:	83 ec 0c             	sub    $0xc,%esp
    1ce0:	8b 53 0c             	mov    0xc(%ebx),%edx
    1ce3:	be f6 fe ff ff       	mov    $0xfffffef6,%esi
    1ce8:	52                   	push   %edx
    1ce9:	e8 42 7a 00 00       	call   9730 <free@plt>
    1cee:	89 1c 24             	mov    %ebx,(%esp)
    1cf1:	e8 3a 7a 00 00       	call   9730 <free@plt>
    1cf6:	83 c4 10             	add    $0x10,%esp
    1cf9:	8d 65 f4             	lea    -0xc(%ebp),%esp
    1cfc:	89 f0                	mov    %esi,%eax
    1cfe:	5b                   	pop    %ebx
    1cff:	5e                   	pop    %esi
    1d00:	5f                   	pop    %edi
    1d01:	5d                   	pop    %ebp
    1d02:	c3                   	ret    
    1d03:	50                   	push   %eax
    1d04:	68 b8 89 00 00       	push   $0x89b8
    1d09:	6a 01                	push   $0x1
    1d0b:	6a ff                	push   $0xffffffff
    1d0d:	e8 6e 77 00 00       	call   9480 <log_msg@plt>
    1d12:	83 c4 10             	add    $0x10,%esp
    1d15:	83 ec 0c             	sub    $0xc,%esp
    1d18:	8b 45 d8             	mov    -0x28(%ebp),%eax
    1d1b:	50                   	push   %eax
    1d1c:	e8 3f 1a 00 00       	call   3760 <label_close>
    1d21:	83 c4 10             	add    $0x10,%esp
    1d24:	eb b7                	jmp    1cdd <vbds_disk_add+0x18d>
    1d26:	8b 4b 0c             	mov    0xc(%ebx),%ecx
    1d29:	51                   	push   %ecx
    1d2a:	68 dc 89 00 00       	push   $0x89dc
    1d2f:	6a 01                	push   $0x1
    1d31:	6a ff                	push   $0xffffffff
    1d33:	e8 48 77 00 00       	call   9480 <log_msg@plt>
    1d38:	83 c4 10             	add    $0x10,%esp
    1d3b:	eb d8                	jmp    1d15 <vbds_disk_add+0x1c5>
    1d3d:	8b 43 0c             	mov    0xc(%ebx),%eax
    1d40:	50                   	push   %eax
    1d41:	68 fc 89 00 00       	push   $0x89fc
    1d46:	6a 01                	push   $0x1
    1d48:	6a ff                	push   $0xffffffff
    1d4a:	e8 31 77 00 00       	call   9480 <log_msg@plt>
    1d4f:	83 c4 10             	add    $0x10,%esp
    1d52:	eb c1                	jmp    1d15 <vbds_disk_add+0x1c5>
    1d54:	8b 43 0c             	mov    0xc(%ebx),%eax
    1d57:	50                   	push   %eax
    1d58:	68 20 8a 00 00       	push   $0x8a20
    1d5d:	6a 01                	push   $0x1
    1d5f:	6a ff                	push   $0xffffffff
    1d61:	e8 1a 77 00 00       	call   9480 <log_msg@plt>
    1d66:	83 c4 10             	add    $0x10,%esp
    1d69:	eb aa                	jmp    1d15 <vbds_disk_add+0x1c5>
    1d6b:	be fe ff ff ff       	mov    $0xfffffffe,%esi
    1d70:	e9 27 fe ff ff       	jmp    1b9c <vbds_disk_add+0x4c>
    1d75:	8d 74 26 00          	lea    0x0(%esi,%eiz,1),%esi
    1d79:	8d bc 27 00 00 00 00 	lea    0x0(%edi,%eiz,1),%edi

00001d80 <vbds_disk_remove>:
    1d80:	55                   	push   %ebp
    1d81:	89 e5                	mov    %esp,%ebp
    1d83:	56                   	push   %esi
    1d84:	53                   	push   %ebx
    1d85:	83 ec 10             	sub    $0x10,%esp
    1d88:	8b 75 08             	mov    0x8(%ebp),%esi
    1d8b:	56                   	push   %esi
    1d8c:	68 0c 86 00 00       	push   $0x860c
    1d91:	6a 04                	push   $0x4
    1d93:	6a ff                	push   $0xffffffff
    1d95:	e8 e6 76 00 00       	call   9480 <log_msg@plt>
    1d9a:	8b 1d 50 b5 00 00    	mov    0xb550,%ebx
    1da0:	83 c4 10             	add    $0x10,%esp
    1da3:	81 fb 4c b5 00 00    	cmp    $0xb54c,%ebx
    1da9:	75 10                	jne    1dbb <vbds_disk_remove+0x3b>
    1dab:	e9 80 00 00 00       	jmp    1e30 <vbds_disk_remove+0xb0>
    1db0:	8b 5b 04             	mov    0x4(%ebx),%ebx
    1db3:	81 fb 4c b5 00 00    	cmp    $0xb54c,%ebx
    1db9:	74 75                	je     1e30 <vbds_disk_remove+0xb0>
    1dbb:	3b 73 08             	cmp    0x8(%ebx),%esi
    1dbe:	75 f0                	jne    1db0 <vbds_disk_remove+0x30>
    1dc0:	ba 01 00 00 00       	mov    $0x1,%edx
    1dc5:	89 d8                	mov    %ebx,%eax
    1dc7:	e8 84 f9 ff ff       	call   1750 <vbds_disk_parts_remove>
    1dcc:	85 c0                	test   %eax,%eax
    1dce:	75 6a                	jne    1e3a <vbds_disk_remove+0xba>
    1dd0:	8b 0b                	mov    (%ebx),%ecx
    1dd2:	85 c9                	test   %ecx,%ecx
    1dd4:	74 0e                	je     1de4 <vbds_disk_remove+0x64>
    1dd6:	8b 53 04             	mov    0x4(%ebx),%edx
    1dd9:	85 d2                	test   %edx,%edx
    1ddb:	74 07                	je     1de4 <vbds_disk_remove+0x64>
    1ddd:	89 0a                	mov    %ecx,(%edx)
    1ddf:	8b 0b                	mov    (%ebx),%ecx
    1de1:	89 51 04             	mov    %edx,0x4(%ecx)
    1de4:	83 ec 0c             	sub    $0xc,%esp
    1de7:	89 45 f4             	mov    %eax,-0xc(%ebp)
    1dea:	c7 03 00 00 00 00    	movl   $0x0,(%ebx)
    1df0:	8b 43 10             	mov    0x10(%ebx),%eax
    1df3:	c7 43 04 00 00 00 00 	movl   $0x0,0x4(%ebx)
    1dfa:	50                   	push   %eax
    1dfb:	e8 60 19 00 00       	call   3760 <label_close>
    1e00:	56                   	push   %esi
    1e01:	68 fc 85 00 00       	push   $0x85fc
    1e06:	6a 04                	push   $0x4
    1e08:	6a ff                	push   $0xffffffff
    1e0a:	e8 71 76 00 00       	call   9480 <log_msg@plt>
    1e0f:	83 c4 14             	add    $0x14,%esp
    1e12:	56                   	push   %esi
    1e13:	e8 88 54 00 00       	call   72a0 <block_fini>
    1e18:	89 1c 24             	mov    %ebx,(%esp)
    1e1b:	e8 10 79 00 00       	call   9730 <free@plt>
    1e20:	8b 45 f4             	mov    -0xc(%ebp),%eax
    1e23:	83 c4 10             	add    $0x10,%esp
    1e26:	8d 65 f8             	lea    -0x8(%ebp),%esp
    1e29:	5b                   	pop    %ebx
    1e2a:	5e                   	pop    %esi
    1e2b:	5d                   	pop    %ebp
    1e2c:	c3                   	ret    
    1e2d:	8d 76 00             	lea    0x0(%esi),%esi
    1e30:	83 c8 ff             	or     $0xffffffff,%eax
    1e33:	8d 65 f8             	lea    -0x8(%ebp),%esp
    1e36:	5b                   	pop    %ebx
    1e37:	5e                   	pop    %esi
    1e38:	5d                   	pop    %ebp
    1e39:	c3                   	ret    
    1e3a:	52                   	push   %edx
    1e3b:	68 22 86 00 00       	push   $0x8622
    1e40:	6a 01                	push   $0x1
    1e42:	6a ff                	push   $0xffffffff
    1e44:	89 45 f4             	mov    %eax,-0xc(%ebp)
    1e47:	e8 34 76 00 00       	call   9480 <log_msg@plt>
    1e4c:	83 c4 10             	add    $0x10,%esp
    1e4f:	8b 45 f4             	mov    -0xc(%ebp),%eax
    1e52:	eb df                	jmp    1e33 <vbds_disk_remove+0xb3>
    1e54:	8d b6 00 00 00 00    	lea    0x0(%esi),%esi
    1e5a:	8d bf 00 00 00 00    	lea    0x0(%edi),%edi

00001e60 <vbds_disks_check_new>:
    1e60:	55                   	push   %ebp
    1e61:	89 e5                	mov    %esp,%ebp
    1e63:	57                   	push   %edi
    1e64:	56                   	push   %esi
    1e65:	53                   	push   %ebx
    1e66:	83 ec 20             	sub    $0x20,%esp
    1e69:	68 38 86 00 00       	push   $0x8638
    1e6e:	6a 04                	push   $0x4
    1e70:	6a ff                	push   $0xffffffff
    1e72:	e8 09 76 00 00       	call   9480 <log_msg@plt>
    1e77:	c7 04 24 54 b5 00 00 	movl   $0xb554,(%esp)
    1e7e:	e8 bd 78 00 00       	call   9740 <fibril_mutex_lock@plt>
    1e83:	83 c4 0c             	add    $0xc,%esp
    1e86:	8d 45 dc             	lea    -0x24(%ebp),%eax
    1e89:	6a 01                	push   $0x1
    1e8b:	50                   	push   %eax
    1e8c:	68 4f 86 00 00       	push   $0x864f
    1e91:	e8 ba 74 00 00       	call   9350 <loc_category_get_id@plt>
    1e96:	83 c4 10             	add    $0x10,%esp
    1e99:	85 c0                	test   %eax,%eax
    1e9b:	0f 85 dd 01 00 00    	jne    207e <vbds_disks_check_new+0x21e>
    1ea1:	8d 45 e4             	lea    -0x1c(%ebp),%eax
    1ea4:	8b 7d dc             	mov    -0x24(%ebp),%edi
    1ea7:	56                   	push   %esi
    1ea8:	50                   	push   %eax
    1ea9:	8d 45 e0             	lea    -0x20(%ebp),%eax
    1eac:	50                   	push   %eax
    1ead:	57                   	push   %edi
    1eae:	e8 7d 77 00 00       	call   9630 <loc_category_get_svcs@plt>
    1eb3:	83 c4 10             	add    $0x10,%esp
    1eb6:	89 c6                	mov    %eax,%esi
    1eb8:	85 c0                	test   %eax,%eax
    1eba:	0f 85 e9 01 00 00    	jne    20a9 <vbds_disks_check_new+0x249>
    1ec0:	a1 50 b5 00 00       	mov    0xb550,%eax
    1ec5:	89 c2                	mov    %eax,%edx
    1ec7:	3d 4c b5 00 00       	cmp    $0xb54c,%eax
    1ecc:	0f 84 5b 01 00 00    	je     202d <vbds_disks_check_new+0x1cd>
    1ed2:	8d b6 00 00 00 00    	lea    0x0(%esi),%esi
    1ed8:	c6 42 28 00          	movb   $0x0,0x28(%edx)
    1edc:	8b 52 04             	mov    0x4(%edx),%edx
    1edf:	81 fa 4c b5 00 00    	cmp    $0xb54c,%edx
    1ee5:	75 f1                	jne    1ed8 <vbds_disks_check_new+0x78>
    1ee7:	8b 4d e4             	mov    -0x1c(%ebp),%ecx
    1eea:	85 c9                	test   %ecx,%ecx
    1eec:	74 75                	je     1f63 <vbds_disks_check_new+0x103>
    1eee:	31 ff                	xor    %edi,%edi
    1ef0:	8d 1c bd 00 00 00 00 	lea    0x0(,%edi,4),%ebx
    1ef7:	3d 4c b5 00 00       	cmp    $0xb54c,%eax
    1efc:	0f 84 09 01 00 00    	je     200b <vbds_disks_check_new+0x1ab>
    1f02:	8b 55 e0             	mov    -0x20(%ebp),%edx
    1f05:	8b 14 1a             	mov    (%edx,%ebx,1),%edx
    1f08:	39 50 08             	cmp    %edx,0x8(%eax)
    1f0b:	75 14                	jne    1f21 <vbds_disks_check_new+0xc1>
    1f0d:	e9 de 00 00 00       	jmp    1ff0 <vbds_disks_check_new+0x190>
    1f12:	8d b6 00 00 00 00    	lea    0x0(%esi),%esi
    1f18:	39 50 08             	cmp    %edx,0x8(%eax)
    1f1b:	0f 84 cf 00 00 00    	je     1ff0 <vbds_disks_check_new+0x190>
    1f21:	8b 40 04             	mov    0x4(%eax),%eax
    1f24:	3d 4c b5 00 00       	cmp    $0xb54c,%eax
    1f29:	75 ed                	jne    1f18 <vbds_disks_check_new+0xb8>
    1f2b:	52                   	push   %edx
    1f2c:	68 6b 86 00 00       	push   $0x866b
    1f31:	6a 03                	push   $0x3
    1f33:	6a ff                	push   $0xffffffff
    1f35:	e8 46 75 00 00       	call   9480 <log_msg@plt>
    1f3a:	58                   	pop    %eax
    1f3b:	8b 45 e0             	mov    -0x20(%ebp),%eax
    1f3e:	8b 14 18             	mov    (%eax,%ebx,1),%edx
    1f41:	52                   	push   %edx
    1f42:	e8 09 fc ff ff       	call   1b50 <vbds_disk_add>
    1f47:	83 c4 10             	add    $0x10,%esp
    1f4a:	85 c0                	test   %eax,%eax
    1f4c:	0f 85 c4 00 00 00    	jne    2016 <vbds_disks_check_new+0x1b6>
    1f52:	8d b6 00 00 00 00    	lea    0x0(%esi),%esi
    1f58:	47                   	inc    %edi
    1f59:	a1 50 b5 00 00       	mov    0xb550,%eax
    1f5e:	39 7d e4             	cmp    %edi,-0x1c(%ebp)
    1f61:	77 8d                	ja     1ef0 <vbds_disks_check_new+0x90>
    1f63:	3d 4c b5 00 00       	cmp    $0xb54c,%eax
    1f68:	74 2e                	je     1f98 <vbds_disks_check_new+0x138>
    1f6a:	85 c0                	test   %eax,%eax
    1f6c:	74 2a                	je     1f98 <vbds_disks_check_new+0x138>
    1f6e:	89 c3                	mov    %eax,%ebx
    1f70:	8b 7b 04             	mov    0x4(%ebx),%edi
    1f73:	85 ff                	test   %edi,%edi
    1f75:	74 17                	je     1f8e <vbds_disks_check_new+0x12e>
    1f77:	81 ff 4c b5 00 00    	cmp    $0xb54c,%edi
    1f7d:	74 0f                	je     1f8e <vbds_disks_check_new+0x12e>
    1f7f:	80 7b 28 00          	cmpb   $0x0,0x28(%ebx)
    1f83:	74 2d                	je     1fb2 <vbds_disks_check_new+0x152>
    1f85:	89 fb                	mov    %edi,%ebx
    1f87:	8b 7b 04             	mov    0x4(%ebx),%edi
    1f8a:	85 ff                	test   %edi,%edi
    1f8c:	75 e9                	jne    1f77 <vbds_disks_check_new+0x117>
    1f8e:	80 7b 28 00          	cmpb   $0x0,0x28(%ebx)
    1f92:	0f 84 a8 00 00 00    	je     2040 <vbds_disks_check_new+0x1e0>
    1f98:	83 ec 0c             	sub    $0xc,%esp
    1f9b:	68 54 b5 00 00       	push   $0xb554
    1fa0:	e8 bb 75 00 00       	call   9560 <fibril_mutex_unlock@plt>
    1fa5:	83 c4 10             	add    $0x10,%esp
    1fa8:	8d 65 f4             	lea    -0xc(%ebp),%esp
    1fab:	89 f0                	mov    %esi,%eax
    1fad:	5b                   	pop    %ebx
    1fae:	5e                   	pop    %esi
    1faf:	5f                   	pop    %edi
    1fb0:	5d                   	pop    %ebp
    1fb1:	c3                   	ret    
    1fb2:	8b 43 08             	mov    0x8(%ebx),%eax
    1fb5:	50                   	push   %eax
    1fb6:	68 90 86 00 00       	push   $0x8690
    1fbb:	6a 03                	push   $0x3
    1fbd:	6a ff                	push   $0xffffffff
    1fbf:	e8 bc 74 00 00       	call   9480 <log_msg@plt>
    1fc4:	58                   	pop    %eax
    1fc5:	8b 43 08             	mov    0x8(%ebx),%eax
    1fc8:	50                   	push   %eax
    1fc9:	e8 b2 fd ff ff       	call   1d80 <vbds_disk_remove>
    1fce:	83 c4 10             	add    $0x10,%esp
    1fd1:	85 c0                	test   %eax,%eax
    1fd3:	74 b0                	je     1f85 <vbds_disks_check_new+0x125>
    1fd5:	50                   	push   %eax
    1fd6:	68 a3 86 00 00       	push   $0x86a3
    1fdb:	6a 01                	push   $0x1
    1fdd:	6a ff                	push   $0xffffffff
    1fdf:	89 fb                	mov    %edi,%ebx
    1fe1:	e8 9a 74 00 00       	call   9480 <log_msg@plt>
    1fe6:	83 c4 10             	add    $0x10,%esp
    1fe9:	eb 9c                	jmp    1f87 <vbds_disks_check_new+0x127>
    1feb:	90                   	nop
    1fec:	8d 74 26 00          	lea    0x0(%esi,%eiz,1),%esi
    1ff0:	c6 40 28 01          	movb   $0x1,0x28(%eax)
    1ff4:	52                   	push   %edx
    1ff5:	68 54 86 00 00       	push   $0x8654
    1ffa:	6a 04                	push   $0x4
    1ffc:	6a ff                	push   $0xffffffff
    1ffe:	e8 7d 74 00 00       	call   9480 <log_msg@plt>
    2003:	83 c4 10             	add    $0x10,%esp
    2006:	e9 4d ff ff ff       	jmp    1f58 <vbds_disks_check_new+0xf8>
    200b:	8b 45 e0             	mov    -0x20(%ebp),%eax
    200e:	8b 14 18             	mov    (%eax,%ebx,1),%edx
    2011:	e9 15 ff ff ff       	jmp    1f2b <vbds_disks_check_new+0xcb>
    2016:	50                   	push   %eax
    2017:	68 7c 86 00 00       	push   $0x867c
    201c:	6a 01                	push   $0x1
    201e:	6a ff                	push   $0xffffffff
    2020:	e8 5b 74 00 00       	call   9480 <log_msg@plt>
    2025:	83 c4 10             	add    $0x10,%esp
    2028:	e9 2b ff ff ff       	jmp    1f58 <vbds_disks_check_new+0xf8>
    202d:	8b 7d e4             	mov    -0x1c(%ebp),%edi
    2030:	85 ff                	test   %edi,%edi
    2032:	0f 85 b6 fe ff ff    	jne    1eee <vbds_disks_check_new+0x8e>
    2038:	e9 5b ff ff ff       	jmp    1f98 <vbds_disks_check_new+0x138>
    203d:	8d 76 00             	lea    0x0(%esi),%esi
    2040:	8b 53 08             	mov    0x8(%ebx),%edx
    2043:	52                   	push   %edx
    2044:	68 90 86 00 00       	push   $0x8690
    2049:	6a 03                	push   $0x3
    204b:	6a ff                	push   $0xffffffff
    204d:	e8 2e 74 00 00       	call   9480 <log_msg@plt>
    2052:	8b 5b 08             	mov    0x8(%ebx),%ebx
    2055:	59                   	pop    %ecx
    2056:	53                   	push   %ebx
    2057:	e8 24 fd ff ff       	call   1d80 <vbds_disk_remove>
    205c:	83 c4 10             	add    $0x10,%esp
    205f:	85 c0                	test   %eax,%eax
    2061:	0f 84 31 ff ff ff    	je     1f98 <vbds_disks_check_new+0x138>
    2067:	50                   	push   %eax
    2068:	68 a3 86 00 00       	push   $0x86a3
    206d:	6a 01                	push   $0x1
    206f:	6a ff                	push   $0xffffffff
    2071:	e8 0a 74 00 00       	call   9480 <log_msg@plt>
    2076:	83 c4 10             	add    $0x10,%esp
    2079:	e9 1a ff ff ff       	jmp    1f98 <vbds_disks_check_new+0x138>
    207e:	50                   	push   %eax
    207f:	68 98 8a 00 00       	push   $0x8a98
    2084:	6a 01                	push   $0x1
    2086:	6a ff                	push   $0xffffffff
    2088:	e8 f3 73 00 00       	call   9480 <log_msg@plt>
    208d:	c7 04 24 54 b5 00 00 	movl   $0xb554,(%esp)
    2094:	e8 c7 74 00 00       	call   9560 <fibril_mutex_unlock@plt>
    2099:	83 c4 10             	add    $0x10,%esp
    209c:	8d 65 f4             	lea    -0xc(%ebp),%esp
    209f:	83 ce ff             	or     $0xffffffff,%esi
    20a2:	89 f0                	mov    %esi,%eax
    20a4:	5b                   	pop    %ebx
    20a5:	5e                   	pop    %esi
    20a6:	5f                   	pop    %edi
    20a7:	5d                   	pop    %ebp
    20a8:	c3                   	ret    
    20a9:	53                   	push   %ebx
    20aa:	68 bc 8a 00 00       	push   $0x8abc
    20af:	6a 01                	push   $0x1
    20b1:	6a ff                	push   $0xffffffff
    20b3:	e8 c8 73 00 00       	call   9480 <log_msg@plt>
    20b8:	c7 04 24 54 b5 00 00 	movl   $0xb554,(%esp)
    20bf:	e8 9c 74 00 00       	call   9560 <fibril_mutex_unlock@plt>
    20c4:	83 c4 10             	add    $0x10,%esp
    20c7:	8d 65 f4             	lea    -0xc(%ebp),%esp
    20ca:	be f6 fe ff ff       	mov    $0xfffffef6,%esi
    20cf:	89 f0                	mov    %esi,%eax
    20d1:	5b                   	pop    %ebx
    20d2:	5e                   	pop    %esi
    20d3:	5f                   	pop    %edi
    20d4:	5d                   	pop    %ebp
    20d5:	c3                   	ret    
    20d6:	8d 76 00             	lea    0x0(%esi),%esi
    20d9:	8d bc 27 00 00 00 00 	lea    0x0(%edi,%eiz,1),%edi

000020e0 <vbds_disk_discovery_start>:
    20e0:	55                   	push   %ebp
    20e1:	89 e5                	mov    %esp,%ebp
    20e3:	83 ec 24             	sub    $0x24,%esp
    20e6:	68 20 21 00 00       	push   $0x2120
    20eb:	e8 30 74 00 00       	call   9520 <loc_register_cat_change_cb@plt>
    20f0:	83 c4 10             	add    $0x10,%esp
    20f3:	85 c0                	test   %eax,%eax
    20f5:	75 09                	jne    2100 <vbds_disk_discovery_start+0x20>
    20f7:	c9                   	leave  
    20f8:	e9 63 fd ff ff       	jmp    1e60 <vbds_disks_check_new>
    20fd:	8d 76 00             	lea    0x0(%esi),%esi
    2100:	50                   	push   %eax
    2101:	68 e4 8a 00 00       	push   $0x8ae4
    2106:	6a 01                	push   $0x1
    2108:	6a ff                	push   $0xffffffff
    210a:	89 45 f4             	mov    %eax,-0xc(%ebp)
    210d:	e8 6e 73 00 00       	call   9480 <log_msg@plt>
    2112:	8b 45 f4             	mov    -0xc(%ebp),%eax
    2115:	83 c4 10             	add    $0x10,%esp
    2118:	c9                   	leave  
    2119:	c3                   	ret    
    211a:	8d b6 00 00 00 00    	lea    0x0(%esi),%esi

00002120 <vbds_disk_cat_change_cb>:
    2120:	55                   	push   %ebp
    2121:	89 e5                	mov    %esp,%ebp
    2123:	5d                   	pop    %ebp
    2124:	e9 37 fd ff ff       	jmp    1e60 <vbds_disks_check_new>
    2129:	8d b4 26 00 00 00 00 	lea    0x0(%esi,%eiz,1),%esi

00002130 <vbds_disk_get_ids>:
    2130:	55                   	push   %ebp
    2131:	89 e5                	mov    %esp,%ebp
    2133:	56                   	push   %esi
    2134:	53                   	push   %ebx
    2135:	83 ec 0c             	sub    $0xc,%esp
    2138:	8b 75 08             	mov    0x8(%ebp),%esi
    213b:	68 54 b5 00 00       	push   $0xb554
    2140:	e8 fb 75 00 00       	call   9740 <fibril_mutex_lock@plt>
    2145:	8b 5d 0c             	mov    0xc(%ebp),%ebx
    2148:	c7 04 24 4c b5 00 00 	movl   $0xb54c,(%esp)
    214f:	c1 eb 02             	shr    $0x2,%ebx
    2152:	e8 09 75 00 00       	call   9660 <list_count@plt>
    2157:	8b 55 10             	mov    0x10(%ebp),%edx
    215a:	83 c4 10             	add    $0x10,%esp
    215d:	c1 e0 02             	shl    $0x2,%eax
    2160:	89 02                	mov    %eax,(%edx)
    2162:	8b 55 0c             	mov    0xc(%ebp),%edx
    2165:	83 e2 03             	and    $0x3,%edx
    2168:	75 3c                	jne    21a6 <vbds_disk_get_ids+0x76>
    216a:	a1 50 b5 00 00       	mov    0xb550,%eax
    216f:	3d 4c b5 00 00       	cmp    $0xb54c,%eax
    2174:	74 17                	je     218d <vbds_disk_get_ids+0x5d>
    2176:	66 90                	xchg   %ax,%ax
    2178:	39 d3                	cmp    %edx,%ebx
    217a:	76 06                	jbe    2182 <vbds_disk_get_ids+0x52>
    217c:	8b 48 08             	mov    0x8(%eax),%ecx
    217f:	89 0c 96             	mov    %ecx,(%esi,%edx,4)
    2182:	8b 40 04             	mov    0x4(%eax),%eax
    2185:	42                   	inc    %edx
    2186:	3d 4c b5 00 00       	cmp    $0xb54c,%eax
    218b:	75 eb                	jne    2178 <vbds_disk_get_ids+0x48>
    218d:	83 ec 0c             	sub    $0xc,%esp
    2190:	68 54 b5 00 00       	push   $0xb554
    2195:	e8 c6 73 00 00       	call   9560 <fibril_mutex_unlock@plt>
    219a:	83 c4 10             	add    $0x10,%esp
    219d:	31 c0                	xor    %eax,%eax
    219f:	8d 65 f8             	lea    -0x8(%ebp),%esp
    21a2:	5b                   	pop    %ebx
    21a3:	5e                   	pop    %esi
    21a4:	5d                   	pop    %ebp
    21a5:	c3                   	ret    
    21a6:	83 ec 0c             	sub    $0xc,%esp
    21a9:	68 54 b5 00 00       	push   $0xb554
    21ae:	e8 ad 73 00 00       	call   9560 <fibril_mutex_unlock@plt>
    21b3:	83 c4 10             	add    $0x10,%esp
    21b6:	b8 f2 ff ff ff       	mov    $0xfffffff2,%eax
    21bb:	eb e2                	jmp    219f <vbds_disk_get_ids+0x6f>
    21bd:	8d 76 00             	lea    0x0(%esi),%esi

000021c0 <vbds_disk_info>:
    21c0:	55                   	push   %ebp
    21c1:	89 e5                	mov    %esp,%ebp
    21c3:	56                   	push   %esi
    21c4:	53                   	push   %ebx
    21c5:	83 ec 30             	sub    $0x30,%esp
    21c8:	8b 75 08             	mov    0x8(%ebp),%esi
    21cb:	56                   	push   %esi
    21cc:	68 ba 86 00 00       	push   $0x86ba
    21d1:	6a 04                	push   $0x4
    21d3:	6a ff                	push   $0xffffffff
    21d5:	e8 a6 72 00 00       	call   9480 <log_msg@plt>
    21da:	8b 1d 50 b5 00 00    	mov    0xb550,%ebx
    21e0:	83 c4 10             	add    $0x10,%esp
    21e3:	81 fb 4c b5 00 00    	cmp    $0xb54c,%ebx
    21e9:	75 10                	jne    21fb <vbds_disk_info+0x3b>
    21eb:	e9 88 00 00 00       	jmp    2278 <vbds_disk_info+0xb8>
    21f0:	8b 5b 04             	mov    0x4(%ebx),%ebx
    21f3:	81 fb 4c b5 00 00    	cmp    $0xb54c,%ebx
    21f9:	74 7d                	je     2278 <vbds_disk_info+0xb8>
    21fb:	3b 73 08             	cmp    0x8(%ebx),%esi
    21fe:	75 f0                	jne    21f0 <vbds_disk_info+0x30>
    2200:	50                   	push   %eax
    2201:	50                   	push   %eax
    2202:	8b 53 10             	mov    0x10(%ebx),%edx
    2205:	8d 45 e0             	lea    -0x20(%ebp),%eax
    2208:	50                   	push   %eax
    2209:	52                   	push   %edx
    220a:	e8 81 15 00 00       	call   3790 <label_get_info>
    220f:	83 c4 10             	add    $0x10,%esp
    2212:	85 c0                	test   %eax,%eax
    2214:	75 65                	jne    227b <vbds_disk_info+0xbb>
    2216:	89 45 d4             	mov    %eax,-0x2c(%ebp)
    2219:	8b 45 0c             	mov    0xc(%ebp),%eax
    221c:	8b 55 e0             	mov    -0x20(%ebp),%edx
    221f:	89 c1                	mov    %eax,%ecx
    2221:	89 10                	mov    %edx,(%eax)
    2223:	8b 55 e4             	mov    -0x1c(%ebp),%edx
    2226:	89 50 04             	mov    %edx,0x4(%eax)
    2229:	8b 45 e8             	mov    -0x18(%ebp),%eax
    222c:	8b 55 ec             	mov    -0x14(%ebp),%edx
    222f:	89 41 08             	mov    %eax,0x8(%ecx)
    2232:	89 51 0c             	mov    %edx,0xc(%ecx)
    2235:	8b 45 f0             	mov    -0x10(%ebp),%eax
    2238:	8b 55 f4             	mov    -0xc(%ebp),%edx
    223b:	89 41 10             	mov    %eax,0x10(%ecx)
    223e:	89 51 14             	mov    %edx,0x14(%ecx)
    2241:	89 c8                	mov    %ecx,%eax
    2243:	8b 53 1c             	mov    0x1c(%ebx),%edx
    2246:	89 51 18             	mov    %edx,0x18(%ecx)
    2249:	8b 4b 20             	mov    0x20(%ebx),%ecx
    224c:	8b 5b 24             	mov    0x24(%ebx),%ebx
    224f:	89 48 1c             	mov    %ecx,0x1c(%eax)
    2252:	89 58 20             	mov    %ebx,0x20(%eax)
    2255:	52                   	push   %edx
    2256:	68 1c 8b 00 00       	push   $0x8b1c
    225b:	6a 04                	push   $0x4
    225d:	6a ff                	push   $0xffffffff
    225f:	e8 1c 72 00 00       	call   9480 <log_msg@plt>
    2264:	8b 45 d4             	mov    -0x2c(%ebp),%eax
    2267:	83 c4 10             	add    $0x10,%esp
    226a:	8d 65 f8             	lea    -0x8(%ebp),%esp
    226d:	5b                   	pop    %ebx
    226e:	5e                   	pop    %esi
    226f:	5d                   	pop    %ebp
    2270:	c3                   	ret    
    2271:	8d b4 26 00 00 00 00 	lea    0x0(%esi,%eiz,1),%esi
    2278:	83 c8 ff             	or     $0xffffffff,%eax
    227b:	8d 65 f8             	lea    -0x8(%ebp),%esp
    227e:	5b                   	pop    %ebx
    227f:	5e                   	pop    %esi
    2280:	5d                   	pop    %ebp
    2281:	c3                   	ret    
    2282:	8d b4 26 00 00 00 00 	lea    0x0(%esi,%eiz,1),%esi
    2289:	8d bc 27 00 00 00 00 	lea    0x0(%edi,%eiz,1),%edi

00002290 <vbds_get_parts>:
    2290:	55                   	push   %ebp
    2291:	89 e5                	mov    %esp,%ebp
    2293:	57                   	push   %edi
    2294:	56                   	push   %esi
    2295:	53                   	push   %ebx
    2296:	83 ec 1c             	sub    $0x1c,%esp
    2299:	8b 0d 50 b5 00 00    	mov    0xb550,%ecx
    229f:	8b 45 08             	mov    0x8(%ebp),%eax
    22a2:	8b 7d 0c             	mov    0xc(%ebp),%edi
    22a5:	81 f9 4c b5 00 00    	cmp    $0xb54c,%ecx
    22ab:	75 0e                	jne    22bb <vbds_get_parts+0x2b>
    22ad:	eb 69                	jmp    2318 <vbds_get_parts+0x88>
    22af:	90                   	nop
    22b0:	8b 49 04             	mov    0x4(%ecx),%ecx
    22b3:	81 f9 4c b5 00 00    	cmp    $0xb54c,%ecx
    22b9:	74 5d                	je     2318 <vbds_get_parts+0x88>
    22bb:	3b 41 08             	cmp    0x8(%ecx),%eax
    22be:	75 f0                	jne    22b0 <vbds_get_parts+0x20>
    22c0:	83 ec 0c             	sub    $0xc,%esp
    22c3:	8d 59 14             	lea    0x14(%ecx),%ebx
    22c6:	8b 75 10             	mov    0x10(%ebp),%esi
    22c9:	89 4d e4             	mov    %ecx,-0x1c(%ebp)
    22cc:	c1 ee 02             	shr    $0x2,%esi
    22cf:	53                   	push   %ebx
    22d0:	e8 8b 73 00 00       	call   9660 <list_count@plt>
    22d5:	8b 55 14             	mov    0x14(%ebp),%edx
    22d8:	c1 e0 02             	shl    $0x2,%eax
    22db:	83 c4 10             	add    $0x10,%esp
    22de:	89 02                	mov    %eax,(%edx)
    22e0:	8b 55 10             	mov    0x10(%ebp),%edx
    22e3:	83 e2 03             	and    $0x3,%edx
    22e6:	8b 4d e4             	mov    -0x1c(%ebp),%ecx
    22e9:	75 3d                	jne    2328 <vbds_get_parts+0x98>
    22eb:	8b 41 18             	mov    0x18(%ecx),%eax
    22ee:	39 c3                	cmp    %eax,%ebx
    22f0:	8d 48 e8             	lea    -0x18(%eax),%ecx
    22f3:	74 18                	je     230d <vbds_get_parts+0x7d>
    22f5:	8d 76 00             	lea    0x0(%esi),%esi
    22f8:	39 d6                	cmp    %edx,%esi
    22fa:	76 06                	jbe    2302 <vbds_get_parts+0x72>
    22fc:	8b 49 28             	mov    0x28(%ecx),%ecx
    22ff:	89 0c 97             	mov    %ecx,(%edi,%edx,4)
    2302:	8b 40 04             	mov    0x4(%eax),%eax
    2305:	42                   	inc    %edx
    2306:	39 c3                	cmp    %eax,%ebx
    2308:	8d 48 e8             	lea    -0x18(%eax),%ecx
    230b:	75 eb                	jne    22f8 <vbds_get_parts+0x68>
    230d:	8d 65 f4             	lea    -0xc(%ebp),%esp
    2310:	31 c0                	xor    %eax,%eax
    2312:	5b                   	pop    %ebx
    2313:	5e                   	pop    %esi
    2314:	5f                   	pop    %edi
    2315:	5d                   	pop    %ebp
    2316:	c3                   	ret    
    2317:	90                   	nop
    2318:	83 c8 ff             	or     $0xffffffff,%eax
    231b:	8d 65 f4             	lea    -0xc(%ebp),%esp
    231e:	5b                   	pop    %ebx
    231f:	5e                   	pop    %esi
    2320:	5f                   	pop    %edi
    2321:	5d                   	pop    %ebp
    2322:	c3                   	ret    
    2323:	90                   	nop
    2324:	8d 74 26 00          	lea    0x0(%esi,%eiz,1),%esi
    2328:	b8 f2 ff ff ff       	mov    $0xfffffff2,%eax
    232d:	eb ec                	jmp    231b <vbds_get_parts+0x8b>
    232f:	90                   	nop

00002330 <vbds_label_create>:
    2330:	55                   	push   %ebp
    2331:	89 e5                	mov    %esp,%ebp
    2333:	57                   	push   %edi
    2334:	56                   	push   %esi
    2335:	53                   	push   %ebx
    2336:	83 ec 2c             	sub    $0x2c,%esp
    2339:	8b 75 08             	mov    0x8(%ebp),%esi
    233c:	56                   	push   %esi
    233d:	68 ce 86 00 00       	push   $0x86ce
    2342:	6a 04                	push   $0x4
    2344:	6a ff                	push   $0xffffffff
    2346:	e8 35 71 00 00       	call   9480 <log_msg@plt>
    234b:	8b 1d 50 b5 00 00    	mov    0xb550,%ebx
    2351:	83 c4 10             	add    $0x10,%esp
    2354:	81 fb 4c b5 00 00    	cmp    $0xb54c,%ebx
    235a:	75 1b                	jne    2377 <vbds_label_create+0x47>
    235c:	e9 df 00 00 00       	jmp    2440 <vbds_label_create+0x110>
    2361:	8d b4 26 00 00 00 00 	lea    0x0(%esi,%eiz,1),%esi
    2368:	8b 5b 04             	mov    0x4(%ebx),%ebx
    236b:	81 fb 4c b5 00 00    	cmp    $0xb54c,%ebx
    2371:	0f 84 c9 00 00 00    	je     2440 <vbds_label_create+0x110>
    2377:	3b 73 08             	cmp    0x8(%ebx),%esi
    237a:	75 ec                	jne    2368 <vbds_label_create+0x38>
    237c:	56                   	push   %esi
    237d:	68 3c 8b 00 00       	push   $0x8b3c
    2382:	6a 04                	push   $0x4
    2384:	6a ff                	push   $0xffffffff
    2386:	e8 f5 70 00 00       	call   9480 <log_msg@plt>
    238b:	58                   	pop    %eax
    238c:	8b 4b 10             	mov    0x10(%ebx),%ecx
    238f:	8d 45 d0             	lea    -0x30(%ebp),%eax
    2392:	5a                   	pop    %edx
    2393:	50                   	push   %eax
    2394:	51                   	push   %ecx
    2395:	e8 f6 13 00 00       	call   3790 <label_get_info>
    239a:	83 c4 10             	add    $0x10,%esp
    239d:	89 c7                	mov    %eax,%edi
    239f:	85 c0                	test   %eax,%eax
    23a1:	0f 85 9c 00 00 00    	jne    2443 <vbds_label_create+0x113>
    23a7:	8b 45 d0             	mov    -0x30(%ebp),%eax
    23aa:	85 c0                	test   %eax,%eax
    23ac:	0f 85 d3 00 00 00    	jne    2485 <vbds_label_create+0x155>
    23b2:	31 d2                	xor    %edx,%edx
    23b4:	89 d8                	mov    %ebx,%eax
    23b6:	e8 95 f3 ff ff       	call   1750 <vbds_disk_parts_remove>
    23bb:	89 c7                	mov    %eax,%edi
    23bd:	85 c0                	test   %eax,%eax
    23bf:	0f 85 88 00 00 00    	jne    244d <vbds_label_create+0x11d>
    23c5:	83 ec 0c             	sub    $0xc,%esp
    23c8:	8b 7b 10             	mov    0x10(%ebx),%edi
    23cb:	57                   	push   %edi
    23cc:	e8 8f 13 00 00       	call   3760 <label_close>
    23d1:	c7 43 10 00 00 00 00 	movl   $0x0,0x10(%ebx)
    23d8:	56                   	push   %esi
    23d9:	68 64 8b 00 00       	push   $0x8b64
    23de:	6a 04                	push   $0x4
    23e0:	6a ff                	push   $0xffffffff
    23e2:	e8 99 70 00 00       	call   9480 <log_msg@plt>
    23e7:	83 c4 1c             	add    $0x1c,%esp
    23ea:	8d 45 cc             	lea    -0x34(%ebp),%eax
    23ed:	50                   	push   %eax
    23ee:	8b 45 0c             	mov    0xc(%ebp),%eax
    23f1:	50                   	push   %eax
    23f2:	56                   	push   %esi
    23f3:	e8 08 13 00 00       	call   3700 <label_create>
    23f8:	83 c4 10             	add    $0x10,%esp
    23fb:	89 c7                	mov    %eax,%edi
    23fd:	85 c0                	test   %eax,%eax
    23ff:	74 60                	je     2461 <vbds_label_create+0x131>
    2401:	56                   	push   %esi
    2402:	68 b0 8b 00 00       	push   $0x8bb0
    2407:	6a 04                	push   $0x4
    2409:	6a ff                	push   $0xffffffff
    240b:	e8 70 70 00 00       	call   9480 <log_msg@plt>
    2410:	8b 4b 10             	mov    0x10(%ebx),%ecx
    2413:	83 c4 10             	add    $0x10,%esp
    2416:	85 c9                	test   %ecx,%ecx
    2418:	75 29                	jne    2443 <vbds_label_create+0x113>
    241a:	8d 45 cc             	lea    -0x34(%ebp),%eax
    241d:	52                   	push   %edx
    241e:	52                   	push   %edx
    241f:	50                   	push   %eax
    2420:	56                   	push   %esi
    2421:	e8 8a 12 00 00       	call   36b0 <label_open>
    2426:	83 c4 10             	add    $0x10,%esp
    2429:	89 c6                	mov    %eax,%esi
    242b:	85 c0                	test   %eax,%eax
    242d:	75 6f                	jne    249e <vbds_label_create+0x16e>
    242f:	8b 55 cc             	mov    -0x34(%ebp),%edx
    2432:	89 d8                	mov    %ebx,%eax
    2434:	89 53 10             	mov    %edx,0x10(%ebx)
    2437:	e8 e4 f4 ff ff       	call   1920 <vbds_disk_parts_add>
    243c:	eb 05                	jmp    2443 <vbds_label_create+0x113>
    243e:	66 90                	xchg   %ax,%ax
    2440:	83 cf ff             	or     $0xffffffff,%edi
    2443:	8d 65 f4             	lea    -0xc(%ebp),%esp
    2446:	89 f8                	mov    %edi,%eax
    2448:	5b                   	pop    %ebx
    2449:	5e                   	pop    %esi
    244a:	5f                   	pop    %edi
    244b:	5d                   	pop    %ebp
    244c:	c3                   	ret    
    244d:	50                   	push   %eax
    244e:	68 22 86 00 00       	push   $0x8622
    2453:	6a 01                	push   $0x1
    2455:	6a ff                	push   $0xffffffff
    2457:	e8 24 70 00 00       	call   9480 <log_msg@plt>
    245c:	83 c4 10             	add    $0x10,%esp
    245f:	eb e2                	jmp    2443 <vbds_label_create+0x113>
    2461:	8b 55 cc             	mov    -0x34(%ebp),%edx
    2464:	89 d8                	mov    %ebx,%eax
    2466:	e8 b5 f4 ff ff       	call   1920 <vbds_disk_parts_add>
    246b:	8b 45 cc             	mov    -0x34(%ebp),%eax
    246e:	89 43 10             	mov    %eax,0x10(%ebx)
    2471:	56                   	push   %esi
    2472:	68 8c 8b 00 00       	push   $0x8b8c
    2477:	6a 04                	push   $0x4
    2479:	6a ff                	push   $0xffffffff
    247b:	e8 00 70 00 00       	call   9480 <log_msg@plt>
    2480:	83 c4 10             	add    $0x10,%esp
    2483:	eb be                	jmp    2443 <vbds_label_create+0x113>
    2485:	50                   	push   %eax
    2486:	68 e5 86 00 00       	push   $0x86e5
    248b:	6a 01                	push   $0x1
    248d:	6a ff                	push   $0xffffffff
    248f:	bf f7 ff ff ff       	mov    $0xfffffff7,%edi
    2494:	e8 e7 6f 00 00       	call   9480 <log_msg@plt>
    2499:	83 c4 10             	add    $0x10,%esp
    249c:	eb a5                	jmp    2443 <vbds_label_create+0x113>
    249e:	8b 43 0c             	mov    0xc(%ebx),%eax
    24a1:	89 f7                	mov    %esi,%edi
    24a3:	50                   	push   %eax
    24a4:	68 48 8a 00 00       	push   $0x8a48
    24a9:	6a 01                	push   $0x1
    24ab:	6a ff                	push   $0xffffffff
    24ad:	e8 ce 6f 00 00       	call   9480 <log_msg@plt>
    24b2:	83 c4 10             	add    $0x10,%esp
    24b5:	eb 8c                	jmp    2443 <vbds_label_create+0x113>
    24b7:	89 f6                	mov    %esi,%esi
    24b9:	8d bc 27 00 00 00 00 	lea    0x0(%edi,%eiz,1),%edi

000024c0 <vbds_label_delete>:
    24c0:	55                   	push   %ebp
    24c1:	89 e5                	mov    %esp,%ebp
    24c3:	56                   	push   %esi
    24c4:	53                   	push   %ebx
    24c5:	83 ec 10             	sub    $0x10,%esp
    24c8:	8b 75 08             	mov    0x8(%ebp),%esi
    24cb:	56                   	push   %esi
    24cc:	68 fb 86 00 00       	push   $0x86fb
    24d1:	6a 04                	push   $0x4
    24d3:	6a ff                	push   $0xffffffff
    24d5:	e8 a6 6f 00 00       	call   9480 <log_msg@plt>
    24da:	8b 1d 50 b5 00 00    	mov    0xb550,%ebx
    24e0:	83 c4 10             	add    $0x10,%esp
    24e3:	81 fb 4c b5 00 00    	cmp    $0xb54c,%ebx
    24e9:	75 10                	jne    24fb <vbds_label_delete+0x3b>
    24eb:	eb 73                	jmp    2560 <vbds_label_delete+0xa0>
    24ed:	8d 76 00             	lea    0x0(%esi),%esi
    24f0:	8b 5b 04             	mov    0x4(%ebx),%ebx
    24f3:	81 fb 4c b5 00 00    	cmp    $0xb54c,%ebx
    24f9:	74 65                	je     2560 <vbds_label_delete+0xa0>
    24fb:	3b 73 08             	cmp    0x8(%ebx),%esi
    24fe:	75 f0                	jne    24f0 <vbds_label_delete+0x30>
    2500:	31 d2                	xor    %edx,%edx
    2502:	89 d8                	mov    %ebx,%eax
    2504:	e8 47 f2 ff ff       	call   1750 <vbds_disk_parts_remove>
    2509:	89 c6                	mov    %eax,%esi
    250b:	85 c0                	test   %eax,%eax
    250d:	75 61                	jne    2570 <vbds_label_delete+0xb0>
    250f:	83 ec 0c             	sub    $0xc,%esp
    2512:	8b 73 10             	mov    0x10(%ebx),%esi
    2515:	56                   	push   %esi
    2516:	e8 65 12 00 00       	call   3780 <label_destroy>
    251b:	83 c4 10             	add    $0x10,%esp
    251e:	89 c6                	mov    %eax,%esi
    2520:	85 c0                	test   %eax,%eax
    2522:	75 4c                	jne    2570 <vbds_label_delete+0xb0>
    2524:	c7 43 10 00 00 00 00 	movl   $0x0,0x10(%ebx)
    252b:	52                   	push   %edx
    252c:	52                   	push   %edx
    252d:	8d 45 f4             	lea    -0xc(%ebp),%eax
    2530:	8b 4b 08             	mov    0x8(%ebx),%ecx
    2533:	50                   	push   %eax
    2534:	51                   	push   %ecx
    2535:	e8 76 11 00 00       	call   36b0 <label_open>
    253a:	83 c4 10             	add    $0x10,%esp
    253d:	89 c6                	mov    %eax,%esi
    253f:	85 c0                	test   %eax,%eax
    2541:	75 48                	jne    258b <vbds_label_delete+0xcb>
    2543:	8b 55 f4             	mov    -0xc(%ebp),%edx
    2546:	89 d8                	mov    %ebx,%eax
    2548:	e8 d3 f3 ff ff       	call   1920 <vbds_disk_parts_add>
    254d:	8b 45 f4             	mov    -0xc(%ebp),%eax
    2550:	89 43 10             	mov    %eax,0x10(%ebx)
    2553:	8d 65 f8             	lea    -0x8(%ebp),%esp
    2556:	89 f0                	mov    %esi,%eax
    2558:	5b                   	pop    %ebx
    2559:	5e                   	pop    %esi
    255a:	5d                   	pop    %ebp
    255b:	c3                   	ret    
    255c:	8d 74 26 00          	lea    0x0(%esi,%eiz,1),%esi
    2560:	83 ce ff             	or     $0xffffffff,%esi
    2563:	8d 65 f8             	lea    -0x8(%ebp),%esp
    2566:	89 f0                	mov    %esi,%eax
    2568:	5b                   	pop    %ebx
    2569:	5e                   	pop    %esi
    256a:	5d                   	pop    %ebp
    256b:	c3                   	ret    
    256c:	8d 74 26 00          	lea    0x0(%esi,%eiz,1),%esi
    2570:	53                   	push   %ebx
    2571:	68 12 87 00 00       	push   $0x8712
    2576:	6a 01                	push   $0x1
    2578:	6a ff                	push   $0xffffffff
    257a:	e8 01 6f 00 00       	call   9480 <log_msg@plt>
    257f:	83 c4 10             	add    $0x10,%esp
    2582:	8d 65 f8             	lea    -0x8(%ebp),%esp
    2585:	89 f0                	mov    %esi,%eax
    2587:	5b                   	pop    %ebx
    2588:	5e                   	pop    %esi
    2589:	5d                   	pop    %ebp
    258a:	c3                   	ret    
    258b:	8b 43 0c             	mov    0xc(%ebx),%eax
    258e:	be f6 fe ff ff       	mov    $0xfffffef6,%esi
    2593:	50                   	push   %eax
    2594:	68 48 8a 00 00       	push   $0x8a48
    2599:	6a 01                	push   $0x1
    259b:	6a ff                	push   $0xffffffff
    259d:	e8 de 6e 00 00       	call   9480 <log_msg@plt>
    25a2:	83 c4 10             	add    $0x10,%esp
    25a5:	eb bc                	jmp    2563 <vbds_label_delete+0xa3>
    25a7:	89 f6                	mov    %esi,%esi
    25a9:	8d bc 27 00 00 00 00 	lea    0x0(%edi,%eiz,1),%edi

000025b0 <vbds_part_get_info>:
    25b0:	55                   	push   %ebp
    25b1:	89 e5                	mov    %esp,%ebp
    25b3:	57                   	push   %edi
    25b4:	56                   	push   %esi
    25b5:	53                   	push   %ebx
    25b6:	83 ec 2c             	sub    $0x2c,%esp
    25b9:	8b 7d 08             	mov    0x8(%ebp),%edi
    25bc:	57                   	push   %edi
    25bd:	68 29 87 00 00       	push   $0x8729
    25c2:	6a 04                	push   $0x4
    25c4:	6a ff                	push   $0xffffffff
    25c6:	e8 b5 6e 00 00       	call   9480 <log_msg@plt>
    25cb:	c7 04 24 3c b5 00 00 	movl   $0xb53c,(%esp)
    25d2:	e8 69 71 00 00       	call   9740 <fibril_mutex_lock@plt>
    25d7:	8b 1d 38 b5 00 00    	mov    0xb538,%ebx
    25dd:	83 c4 10             	add    $0x10,%esp
    25e0:	8d 73 e0             	lea    -0x20(%ebx),%esi
    25e3:	81 fb 34 b5 00 00    	cmp    $0xb534,%ebx
    25e9:	75 17                	jne    2602 <vbds_part_get_info+0x52>
    25eb:	e9 e8 00 00 00       	jmp    26d8 <vbds_part_get_info+0x128>
    25f0:	8b 5b 04             	mov    0x4(%ebx),%ebx
    25f3:	81 fb 34 b5 00 00    	cmp    $0xb534,%ebx
    25f9:	8d 73 e0             	lea    -0x20(%ebx),%esi
    25fc:	0f 84 d6 00 00 00    	je     26d8 <vbds_part_get_info+0x128>
    2602:	83 ec 0c             	sub    $0xc,%esp
    2605:	57                   	push   %edi
    2606:	8b 46 28             	mov    0x28(%esi),%eax
    2609:	50                   	push   %eax
    260a:	68 49 87 00 00       	push   $0x8749
    260f:	6a 04                	push   $0x4
    2611:	6a ff                	push   $0xffffffff
    2613:	e8 68 6e 00 00       	call   9480 <log_msg@plt>
    2618:	83 c4 20             	add    $0x20,%esp
    261b:	3b 7e 28             	cmp    0x28(%esi),%edi
    261e:	75 d0                	jne    25f0 <vbds_part_get_info+0x40>
    2620:	51                   	push   %ecx
    2621:	68 56 87 00 00       	push   $0x8756
    2626:	6a 04                	push   $0x4
    2628:	6a ff                	push   $0xffffffff
    262a:	e8 51 6e 00 00       	call   9480 <log_msg@plt>
    262f:	83 c4 0c             	add    $0xc,%esp
    2632:	68 63 87 00 00       	push   $0x8763
    2637:	6a 05                	push   $0x5
    2639:	6a ff                	push   $0xffffffff
    263b:	e8 40 6e 00 00       	call   9480 <log_msg@plt>
    2640:	f0 ff 46 54          	lock incl 0x54(%esi)
    2644:	c7 04 24 3c b5 00 00 	movl   $0xb53c,(%esp)
    264b:	e8 10 6f 00 00       	call   9560 <fibril_mutex_unlock@plt>
    2650:	89 34 24             	mov    %esi,(%esp)
    2653:	e8 98 70 00 00       	call   96f0 <fibril_rwlock_read_lock@plt>
    2658:	8b 46 34             	mov    0x34(%esi),%eax
    265b:	83 c4 10             	add    $0x10,%esp
    265e:	85 c0                	test   %eax,%eax
    2660:	0f 84 ba 00 00 00    	je     2720 <vbds_part_get_info+0x170>
    2666:	52                   	push   %edx
    2667:	52                   	push   %edx
    2668:	8d 55 d0             	lea    -0x30(%ebp),%edx
    266b:	52                   	push   %edx
    266c:	50                   	push   %eax
    266d:	e8 4e 11 00 00       	call   37c0 <label_part_get_info>
    2672:	8b 4d 0c             	mov    0xc(%ebp),%ecx
    2675:	8b 45 d0             	mov    -0x30(%ebp),%eax
    2678:	8b 55 dc             	mov    -0x24(%ebp),%edx
    267b:	89 01                	mov    %eax,(%ecx)
    267d:	8b 45 d4             	mov    -0x2c(%ebp),%eax
    2680:	89 41 04             	mov    %eax,0x4(%ecx)
    2683:	8b 45 d8             	mov    -0x28(%ebp),%eax
    2686:	89 41 08             	mov    %eax,0x8(%ecx)
    2689:	8b 45 e0             	mov    -0x20(%ebp),%eax
    268c:	89 51 0c             	mov    %edx,0xc(%ecx)
    268f:	89 41 10             	mov    %eax,0x10(%ecx)
    2692:	83 c4 0c             	add    $0xc,%esp
    2695:	8b 46 2c             	mov    0x2c(%esi),%eax
    2698:	8b 55 e4             	mov    -0x1c(%ebp),%edx
    269b:	89 41 18             	mov    %eax,0x18(%ecx)
    269e:	89 51 14             	mov    %edx,0x14(%ecx)
    26a1:	68 90 85 00 00       	push   $0x8590
    26a6:	6a 05                	push   $0x5
    26a8:	6a ff                	push   $0xffffffff
    26aa:	e8 d1 6d 00 00       	call   9480 <log_msg@plt>
    26af:	83 c8 ff             	or     $0xffffffff,%eax
    26b2:	f0 0f c1 46 54       	lock xadd %eax,0x54(%esi)
    26b7:	83 c4 10             	add    $0x10,%esp
    26ba:	48                   	dec    %eax
    26bb:	74 47                	je     2704 <vbds_part_get_info+0x154>
    26bd:	83 ec 0c             	sub    $0xc,%esp
    26c0:	56                   	push   %esi
    26c1:	e8 da 6c 00 00       	call   93a0 <fibril_rwlock_read_unlock@plt>
    26c6:	83 c4 10             	add    $0x10,%esp
    26c9:	8d 65 f4             	lea    -0xc(%ebp),%esp
    26cc:	31 c0                	xor    %eax,%eax
    26ce:	5b                   	pop    %ebx
    26cf:	5e                   	pop    %esi
    26d0:	5f                   	pop    %edi
    26d1:	5d                   	pop    %ebp
    26d2:	c3                   	ret    
    26d3:	90                   	nop
    26d4:	8d 74 26 00          	lea    0x0(%esi,%eiz,1),%esi
    26d8:	83 ec 0c             	sub    $0xc,%esp
    26db:	68 3c b5 00 00       	push   $0xb53c
    26e0:	e8 7b 6e 00 00       	call   9560 <fibril_mutex_unlock@plt>
    26e5:	83 c4 0c             	add    $0xc,%esp
    26e8:	68 3f 87 00 00       	push   $0x873f
    26ed:	6a 04                	push   $0x4
    26ef:	6a ff                	push   $0xffffffff
    26f1:	e8 8a 6d 00 00       	call   9480 <log_msg@plt>
    26f6:	83 c4 10             	add    $0x10,%esp
    26f9:	83 c8 ff             	or     $0xffffffff,%eax
    26fc:	8d 65 f4             	lea    -0xc(%ebp),%esp
    26ff:	5b                   	pop    %ebx
    2700:	5e                   	pop    %esi
    2701:	5f                   	pop    %edi
    2702:	5d                   	pop    %ebp
    2703:	c3                   	ret    
    2704:	50                   	push   %eax
    2705:	68 a2 85 00 00       	push   $0x85a2
    270a:	6a 05                	push   $0x5
    270c:	6a ff                	push   $0xffffffff
    270e:	e8 6d 6d 00 00       	call   9480 <log_msg@plt>
    2713:	89 34 24             	mov    %esi,(%esp)
    2716:	e8 15 70 00 00       	call   9730 <free@plt>
    271b:	83 c4 10             	add    $0x10,%esp
    271e:	eb 9d                	jmp    26bd <vbds_part_get_info+0x10d>
    2720:	83 ec 0c             	sub    $0xc,%esp
    2723:	56                   	push   %esi
    2724:	e8 77 6c 00 00       	call   93a0 <fibril_rwlock_read_unlock@plt>
    2729:	83 c4 10             	add    $0x10,%esp
    272c:	83 c8 ff             	or     $0xffffffff,%eax
    272f:	eb cb                	jmp    26fc <vbds_part_get_info+0x14c>
    2731:	eb 0d                	jmp    2740 <vbds_part_create>
    2733:	90                   	nop
    2734:	90                   	nop
    2735:	90                   	nop
    2736:	90                   	nop
    2737:	90                   	nop
    2738:	90                   	nop
    2739:	90                   	nop
    273a:	90                   	nop
    273b:	90                   	nop
    273c:	90                   	nop
    273d:	90                   	nop
    273e:	90                   	nop
    273f:	90                   	nop

00002740 <vbds_part_create>:
    2740:	55                   	push   %ebp
    2741:	89 e5                	mov    %esp,%ebp
    2743:	57                   	push   %edi
    2744:	56                   	push   %esi
    2745:	53                   	push   %ebx
    2746:	83 ec 6c             	sub    $0x6c,%esp
    2749:	8b 7d 08             	mov    0x8(%ebp),%edi
    274c:	8b 75 0c             	mov    0xc(%ebp),%esi
    274f:	57                   	push   %edi
    2750:	68 75 87 00 00       	push   $0x8775
    2755:	6a 04                	push   $0x4
    2757:	6a ff                	push   $0xffffffff
    2759:	e8 22 6d 00 00       	call   9480 <log_msg@plt>
    275e:	8b 1d 50 b5 00 00    	mov    0xb550,%ebx
    2764:	83 c4 10             	add    $0x10,%esp
    2767:	81 fb 4c b5 00 00    	cmp    $0xb54c,%ebx
    276d:	75 18                	jne    2787 <vbds_part_create+0x47>
    276f:	e9 1c 02 00 00       	jmp    2990 <vbds_part_create+0x250>
    2774:	8d 74 26 00          	lea    0x0(%esi,%eiz,1),%esi
    2778:	8b 5b 04             	mov    0x4(%ebx),%ebx
    277b:	81 fb 4c b5 00 00    	cmp    $0xb54c,%ebx
    2781:	0f 84 09 02 00 00    	je     2990 <vbds_part_create+0x250>
    2787:	3b 7b 08             	cmp    0x8(%ebx),%edi
    278a:	75 ec                	jne    2778 <vbds_part_create+0x38>
    278c:	8b 46 1c             	mov    0x1c(%esi),%eax
    278f:	8b 0e                	mov    (%esi),%ecx
    2791:	50                   	push   %eax
    2792:	8b 46 18             	mov    0x18(%esi),%eax
    2795:	50                   	push   %eax
    2796:	8b 46 14             	mov    0x14(%esi),%eax
    2799:	50                   	push   %eax
    279a:	8b 46 10             	mov    0x10(%esi),%eax
    279d:	50                   	push   %eax
    279e:	8b 46 0c             	mov    0xc(%esi),%eax
    27a1:	50                   	push   %eax
    27a2:	8b 46 08             	mov    0x8(%esi),%eax
    27a5:	50                   	push   %eax
    27a6:	8b 56 04             	mov    0x4(%esi),%edx
    27a9:	52                   	push   %edx
    27aa:	51                   	push   %ecx
    27ab:	57                   	push   %edi
    27ac:	68 d4 8b 00 00       	push   $0x8bd4
    27b1:	6a 04                	push   $0x4
    27b3:	6a ff                	push   $0xffffffff
    27b5:	e8 c6 6c 00 00       	call   9480 <log_msg@plt>
    27ba:	83 c4 24             	add    $0x24,%esp
    27bd:	8d 7d b4             	lea    -0x4c(%ebp),%edi
    27c0:	57                   	push   %edi
    27c1:	e8 2a 10 00 00       	call   37f0 <label_pspec_init>
    27c6:	8b 06                	mov    (%esi),%eax
    27c8:	8b 56 08             	mov    0x8(%esi),%edx
    27cb:	89 45 b4             	mov    %eax,-0x4c(%ebp)
    27ce:	8b 46 04             	mov    0x4(%esi),%eax
    27d1:	89 45 b8             	mov    %eax,-0x48(%ebp)
    27d4:	8b 46 0c             	mov    0xc(%esi),%eax
    27d7:	89 45 c0             	mov    %eax,-0x40(%ebp)
    27da:	8b 46 14             	mov    0x14(%esi),%eax
    27dd:	89 45 c8             	mov    %eax,-0x38(%ebp)
    27e0:	8b 46 1c             	mov    0x1c(%esi),%eax
    27e3:	89 45 d0             	mov    %eax,-0x30(%ebp)
    27e6:	8b 46 20             	mov    0x20(%esi),%eax
    27e9:	89 45 d4             	mov    %eax,-0x2c(%ebp)
    27ec:	8b 46 24             	mov    0x24(%esi),%eax
    27ef:	89 45 d8             	mov    %eax,-0x28(%ebp)
    27f2:	8b 46 28             	mov    0x28(%esi),%eax
    27f5:	89 45 dc             	mov    %eax,-0x24(%ebp)
    27f8:	8b 46 2c             	mov    0x2c(%esi),%eax
    27fb:	83 c4 0c             	add    $0xc,%esp
    27fe:	89 55 bc             	mov    %edx,-0x44(%ebp)
    2801:	89 45 e0             	mov    %eax,-0x20(%ebp)
    2804:	8b 56 10             	mov    0x10(%esi),%edx
    2807:	8b 46 30             	mov    0x30(%esi),%eax
    280a:	89 55 c4             	mov    %edx,-0x3c(%ebp)
    280d:	89 45 e4             	mov    %eax,-0x1c(%ebp)
    2810:	8b 56 18             	mov    0x18(%esi),%edx
    2813:	8d 45 98             	lea    -0x68(%ebp),%eax
    2816:	8b 73 10             	mov    0x10(%ebx),%esi
    2819:	50                   	push   %eax
    281a:	89 55 cc             	mov    %edx,-0x34(%ebp)
    281d:	57                   	push   %edi
    281e:	56                   	push   %esi
    281f:	e8 ac 0f 00 00       	call   37d0 <label_part_create>
    2824:	83 c4 10             	add    $0x10,%esp
    2827:	89 c7                	mov    %eax,%edi
    2829:	85 c0                	test   %eax,%eax
    282b:	0f 85 3f 01 00 00    	jne    2970 <vbds_part_create+0x230>
    2831:	89 d8                	mov    %ebx,%eax
    2833:	e8 98 ed ff ff       	call   15d0 <vbds_part_indices_update>
    2838:	89 c7                	mov    %eax,%edi
    283a:	85 c0                	test   %eax,%eax
    283c:	0f 85 6d 01 00 00    	jne    29af <vbds_part_create+0x26f>
    2842:	83 ec 0c             	sub    $0xc,%esp
    2845:	8b 43 0c             	mov    0xc(%ebx),%eax
    2848:	8b 75 98             	mov    -0x68(%ebp),%esi
    284b:	56                   	push   %esi
    284c:	50                   	push   %eax
    284d:	68 af 85 00 00       	push   $0x85af
    2852:	6a 04                	push   $0x4
    2854:	6a ff                	push   $0xffffffff
    2856:	89 75 94             	mov    %esi,-0x6c(%ebp)
    2859:	e8 22 6c 00 00       	call   9480 <log_msg@plt>
    285e:	83 c4 18             	add    $0x18,%esp
    2861:	8d 45 9c             	lea    -0x64(%ebp),%eax
    2864:	50                   	push   %eax
    2865:	56                   	push   %esi
    2866:	e8 55 0f 00 00       	call   37c0 <label_part_get_info>
    286b:	58                   	pop    %eax
    286c:	5a                   	pop    %edx
    286d:	6a 58                	push   $0x58
    286f:	6a 01                	push   $0x1
    2871:	e8 9a 6c 00 00       	call   9510 <calloc@plt>
    2876:	83 c4 10             	add    $0x10,%esp
    2879:	89 c6                	mov    %eax,%esi
    287b:	85 c0                	test   %eax,%eax
    287d:	0f 84 97 01 00 00    	je     2a1a <vbds_part_create+0x2da>
    2883:	83 ec 0c             	sub    $0xc,%esp
    2886:	50                   	push   %eax
    2887:	e8 34 6e 00 00       	call   96c0 <fibril_rwlock_initialize@plt>
    288c:	8b 45 94             	mov    -0x6c(%ebp),%eax
    288f:	8b 55 a8             	mov    -0x58(%ebp),%edx
    2892:	89 46 34             	mov    %eax,0x34(%esi)
    2895:	a1 20 b3 00 00       	mov    0xb320,%eax
    289a:	40                   	inc    %eax
    289b:	89 56 48             	mov    %edx,0x48(%esi)
    289e:	89 46 28             	mov    %eax,0x28(%esi)
    28a1:	a3 20 b3 00 00       	mov    %eax,0xb320
    28a6:	8b 45 a4             	mov    -0x5c(%ebp),%eax
    28a9:	8b 55 b0             	mov    -0x50(%ebp),%edx
    28ac:	89 46 44             	mov    %eax,0x44(%esi)
    28af:	8b 45 ac             	mov    -0x54(%ebp),%eax
    28b2:	89 46 4c             	mov    %eax,0x4c(%esi)
    28b5:	89 5e 14             	mov    %ebx,0x14(%esi)
    28b8:	c7 46 2c 00 00 00 00 	movl   $0x0,0x2c(%esi)
    28bf:	89 56 50             	mov    %edx,0x50(%esi)
    28c2:	c7 46 54 01 00 00 00 	movl   $0x1,0x54(%esi)
    28c9:	8d 46 38             	lea    0x38(%esi),%eax
    28cc:	89 04 24             	mov    %eax,(%esp)
    28cf:	e8 7c 6c 00 00       	call   9550 <bd_srvs_init@plt>
    28d4:	83 c4 10             	add    $0x10,%esp
    28d7:	c7 46 38 00 b3 00 00 	movl   $0xb300,0x38(%esi)
    28de:	89 76 3c             	mov    %esi,0x3c(%esi)
    28e1:	83 7d a0 01          	cmpl   $0x1,-0x60(%ebp)
    28e5:	74 0f                	je     28f6 <vbds_part_create+0x1b6>
    28e7:	89 f0                	mov    %esi,%eax
    28e9:	e8 82 eb ff ff       	call   1470 <vbds_part_svc_register>
    28ee:	85 c0                	test   %eax,%eax
    28f0:	0f 85 d5 00 00 00    	jne    29cb <vbds_part_create+0x28b>
    28f6:	8d 4b 14             	lea    0x14(%ebx),%ecx
    28f9:	83 ec 0c             	sub    $0xc,%esp
    28fc:	89 4e 1c             	mov    %ecx,0x1c(%esi)
    28ff:	8b 4b 14             	mov    0x14(%ebx),%ecx
    2902:	8d 46 18             	lea    0x18(%esi),%eax
    2905:	89 4e 18             	mov    %ecx,0x18(%esi)
    2908:	89 41 04             	mov    %eax,0x4(%ecx)
    290b:	89 43 14             	mov    %eax,0x14(%ebx)
    290e:	68 3c b5 00 00       	push   $0xb53c
    2913:	e8 28 6e 00 00       	call   9740 <fibril_mutex_lock@plt>
    2918:	8b 0d 34 b5 00 00    	mov    0xb534,%ecx
    291e:	8d 46 20             	lea    0x20(%esi),%eax
    2921:	89 4e 20             	mov    %ecx,0x20(%esi)
    2924:	c7 46 24 34 b5 00 00 	movl   $0xb534,0x24(%esi)
    292b:	89 41 04             	mov    %eax,0x4(%ecx)
    292e:	a3 34 b5 00 00       	mov    %eax,0xb534
    2933:	c7 04 24 3c b5 00 00 	movl   $0xb53c,(%esp)
    293a:	e8 21 6c 00 00       	call   9560 <fibril_mutex_unlock@plt>
    293f:	56                   	push   %esi
    2940:	68 c5 85 00 00       	push   $0x85c5
    2945:	6a 04                	push   $0x4
    2947:	6a ff                	push   $0xffffffff
    2949:	e8 32 6b 00 00       	call   9480 <log_msg@plt>
    294e:	8b 45 10             	mov    0x10(%ebp),%eax
    2951:	83 c4 20             	add    $0x20,%esp
    2954:	85 c0                	test   %eax,%eax
    2956:	74 2a                	je     2982 <vbds_part_create+0x242>
    2958:	8b 55 10             	mov    0x10(%ebp),%edx
    295b:	8b 46 28             	mov    0x28(%esi),%eax
    295e:	89 02                	mov    %eax,(%edx)
    2960:	8d 65 f4             	lea    -0xc(%ebp),%esp
    2963:	89 f8                	mov    %edi,%eax
    2965:	5b                   	pop    %ebx
    2966:	5e                   	pop    %esi
    2967:	5f                   	pop    %edi
    2968:	5d                   	pop    %ebp
    2969:	c3                   	ret    
    296a:	8d b6 00 00 00 00    	lea    0x0(%esi),%esi
    2970:	53                   	push   %ebx
    2971:	68 9e 87 00 00       	push   $0x879e
    2976:	6a 01                	push   $0x1
    2978:	6a ff                	push   $0xffffffff
    297a:	e8 01 6b 00 00       	call   9480 <log_msg@plt>
    297f:	83 c4 10             	add    $0x10,%esp
    2982:	8d 65 f4             	lea    -0xc(%ebp),%esp
    2985:	89 f8                	mov    %edi,%eax
    2987:	5b                   	pop    %ebx
    2988:	5e                   	pop    %esi
    2989:	5f                   	pop    %edi
    298a:	5d                   	pop    %ebp
    298b:	c3                   	ret    
    298c:	8d 74 26 00          	lea    0x0(%esi,%eiz,1),%esi
    2990:	57                   	push   %edi
    2991:	68 8b 87 00 00       	push   $0x878b
    2996:	6a 01                	push   $0x1
    2998:	6a ff                	push   $0xffffffff
    299a:	e8 e1 6a 00 00       	call   9480 <log_msg@plt>
    299f:	83 c4 10             	add    $0x10,%esp
    29a2:	8d 65 f4             	lea    -0xc(%ebp),%esp
    29a5:	83 cf ff             	or     $0xffffffff,%edi
    29a8:	89 f8                	mov    %edi,%eax
    29aa:	5b                   	pop    %ebx
    29ab:	5e                   	pop    %esi
    29ac:	5f                   	pop    %edi
    29ad:	5d                   	pop    %ebp
    29ae:	c3                   	ret    
    29af:	51                   	push   %ecx
    29b0:	68 28 8c 00 00       	push   $0x8c28
    29b5:	6a 01                	push   $0x1
    29b7:	6a ff                	push   $0xffffffff
    29b9:	e8 c2 6a 00 00       	call   9480 <log_msg@plt>
    29be:	83 c4 10             	add    $0x10,%esp
    29c1:	8d 65 f4             	lea    -0xc(%ebp),%esp
    29c4:	89 f8                	mov    %edi,%eax
    29c6:	5b                   	pop    %ebx
    29c7:	5e                   	pop    %esi
    29c8:	5f                   	pop    %edi
    29c9:	5d                   	pop    %ebp
    29ca:	c3                   	ret    
    29cb:	83 ec 0c             	sub    $0xc,%esp
    29ce:	56                   	push   %esi
    29cf:	e8 5c 6d 00 00       	call   9730 <free@plt>
    29d4:	83 c4 10             	add    $0x10,%esp
    29d7:	50                   	push   %eax
    29d8:	68 74 8c 00 00       	push   $0x8c74
    29dd:	6a 01                	push   $0x1
    29df:	6a ff                	push   $0xffffffff
    29e1:	e8 9a 6a 00 00       	call   9480 <log_msg@plt>
    29e6:	8b 4d 98             	mov    -0x68(%ebp),%ecx
    29e9:	5a                   	pop    %edx
    29ea:	51                   	push   %ecx
    29eb:	e8 f0 0d 00 00       	call   37e0 <label_part_destroy>
    29f0:	83 c4 10             	add    $0x10,%esp
    29f3:	85 c0                	test   %eax,%eax
    29f5:	75 07                	jne    29fe <vbds_part_create+0x2be>
    29f7:	bf f6 fe ff ff       	mov    $0xfffffef6,%edi
    29fc:	eb 84                	jmp    2982 <vbds_part_create+0x242>
    29fe:	53                   	push   %ebx
    29ff:	68 4c 8c 00 00       	push   $0x8c4c
    2a04:	6a 01                	push   $0x1
    2a06:	6a ff                	push   $0xffffffff
    2a08:	bf f6 fe ff ff       	mov    $0xfffffef6,%edi
    2a0d:	e8 6e 6a 00 00       	call   9480 <log_msg@plt>
    2a12:	83 c4 10             	add    $0x10,%esp
    2a15:	e9 68 ff ff ff       	jmp    2982 <vbds_part_create+0x242>
    2a1a:	50                   	push   %eax
    2a1b:	68 22 85 00 00       	push   $0x8522
    2a20:	6a 01                	push   $0x1
    2a22:	6a ff                	push   $0xffffffff
    2a24:	e8 57 6a 00 00       	call   9480 <log_msg@plt>
    2a29:	83 c4 10             	add    $0x10,%esp
    2a2c:	eb a9                	jmp    29d7 <vbds_part_create+0x297>
    2a2e:	66 90                	xchg   %ax,%ax

00002a30 <vbds_part_delete>:
    2a30:	55                   	push   %ebp
    2a31:	89 e5                	mov    %esp,%ebp
    2a33:	57                   	push   %edi
    2a34:	56                   	push   %esi
    2a35:	53                   	push   %ebx
    2a36:	83 ec 3c             	sub    $0x3c,%esp
    2a39:	8b 75 08             	mov    0x8(%ebp),%esi
    2a3c:	56                   	push   %esi
    2a3d:	68 29 87 00 00       	push   $0x8729
    2a42:	6a 04                	push   $0x4
    2a44:	6a ff                	push   $0xffffffff
    2a46:	e8 35 6a 00 00       	call   9480 <log_msg@plt>
    2a4b:	c7 04 24 3c b5 00 00 	movl   $0xb53c,(%esp)
    2a52:	e8 e9 6c 00 00       	call   9740 <fibril_mutex_lock@plt>
    2a57:	8b 1d 38 b5 00 00    	mov    0xb538,%ebx
    2a5d:	83 c4 10             	add    $0x10,%esp
    2a60:	8d 7b e0             	lea    -0x20(%ebx),%edi
    2a63:	81 fb 34 b5 00 00    	cmp    $0xb534,%ebx
    2a69:	75 17                	jne    2a82 <vbds_part_delete+0x52>
    2a6b:	e9 90 02 00 00       	jmp    2d00 <vbds_part_delete+0x2d0>
    2a70:	8b 5b 04             	mov    0x4(%ebx),%ebx
    2a73:	81 fb 34 b5 00 00    	cmp    $0xb534,%ebx
    2a79:	8d 7b e0             	lea    -0x20(%ebx),%edi
    2a7c:	0f 84 7e 02 00 00    	je     2d00 <vbds_part_delete+0x2d0>
    2a82:	83 ec 0c             	sub    $0xc,%esp
    2a85:	56                   	push   %esi
    2a86:	8b 47 28             	mov    0x28(%edi),%eax
    2a89:	50                   	push   %eax
    2a8a:	68 49 87 00 00       	push   $0x8749
    2a8f:	6a 04                	push   $0x4
    2a91:	6a ff                	push   $0xffffffff
    2a93:	e8 e8 69 00 00       	call   9480 <log_msg@plt>
    2a98:	83 c4 20             	add    $0x20,%esp
    2a9b:	3b 77 28             	cmp    0x28(%edi),%esi
    2a9e:	75 d0                	jne    2a70 <vbds_part_delete+0x40>
    2aa0:	52                   	push   %edx
    2aa1:	68 56 87 00 00       	push   $0x8756
    2aa6:	6a 04                	push   $0x4
    2aa8:	6a ff                	push   $0xffffffff
    2aaa:	e8 d1 69 00 00       	call   9480 <log_msg@plt>
    2aaf:	83 c4 0c             	add    $0xc,%esp
    2ab2:	8d 77 54             	lea    0x54(%edi),%esi
    2ab5:	68 63 87 00 00       	push   $0x8763
    2aba:	6a 05                	push   $0x5
    2abc:	6a ff                	push   $0xffffffff
    2abe:	e8 bd 69 00 00       	call   9480 <log_msg@plt>
    2ac3:	f0 ff 47 54          	lock incl 0x54(%edi)
    2ac7:	c7 04 24 3c b5 00 00 	movl   $0xb53c,(%esp)
    2ace:	e8 8d 6a 00 00       	call   9560 <fibril_mutex_unlock@plt>
    2ad3:	8b 5f 14             	mov    0x14(%edi),%ebx
    2ad6:	57                   	push   %edi
    2ad7:	68 67 85 00 00       	push   $0x8567
    2adc:	6a 04                	push   $0x4
    2ade:	6a ff                	push   $0xffffffff
    2ae0:	e8 9b 69 00 00       	call   9480 <log_msg@plt>
    2ae5:	83 c4 14             	add    $0x14,%esp
    2ae8:	57                   	push   %edi
    2ae9:	e8 b2 6b 00 00       	call   96a0 <fibril_rwlock_write_lock@plt>
    2aee:	8b 4f 40             	mov    0x40(%edi),%ecx
    2af1:	83 c4 10             	add    $0x10,%esp
    2af4:	85 c9                	test   %ecx,%ecx
    2af6:	0f 8f d8 02 00 00    	jg     2dd4 <vbds_part_delete+0x3a4>
    2afc:	8b 47 34             	mov    0x34(%edi),%eax
    2aff:	89 45 c4             	mov    %eax,-0x3c(%ebp)
    2b02:	8b 47 2c             	mov    0x2c(%edi),%eax
    2b05:	85 c0                	test   %eax,%eax
    2b07:	0f 85 1f 02 00 00    	jne    2d2c <vbds_part_delete+0x2fc>
    2b0d:	8b 4f 18             	mov    0x18(%edi),%ecx
    2b10:	85 c9                	test   %ecx,%ecx
    2b12:	74 0f                	je     2b23 <vbds_part_delete+0xf3>
    2b14:	8b 47 1c             	mov    0x1c(%edi),%eax
    2b17:	85 c0                	test   %eax,%eax
    2b19:	74 08                	je     2b23 <vbds_part_delete+0xf3>
    2b1b:	89 08                	mov    %ecx,(%eax)
    2b1d:	8b 4f 18             	mov    0x18(%edi),%ecx
    2b20:	89 41 04             	mov    %eax,0x4(%ecx)
    2b23:	83 ec 0c             	sub    $0xc,%esp
    2b26:	c7 47 18 00 00 00 00 	movl   $0x0,0x18(%edi)
    2b2d:	c7 47 1c 00 00 00 00 	movl   $0x0,0x1c(%edi)
    2b34:	68 3c b5 00 00       	push   $0xb53c
    2b39:	e8 02 6c 00 00       	call   9740 <fibril_mutex_lock@plt>
    2b3e:	8b 4f 20             	mov    0x20(%edi),%ecx
    2b41:	83 c4 10             	add    $0x10,%esp
    2b44:	85 c9                	test   %ecx,%ecx
    2b46:	74 0f                	je     2b57 <vbds_part_delete+0x127>
    2b48:	8b 47 24             	mov    0x24(%edi),%eax
    2b4b:	85 c0                	test   %eax,%eax
    2b4d:	74 08                	je     2b57 <vbds_part_delete+0x127>
    2b4f:	89 08                	mov    %ecx,(%eax)
    2b51:	8b 4f 20             	mov    0x20(%edi),%ecx
    2b54:	89 41 04             	mov    %eax,0x4(%ecx)
    2b57:	83 ec 0c             	sub    $0xc,%esp
    2b5a:	c7 47 20 00 00 00 00 	movl   $0x0,0x20(%edi)
    2b61:	c7 47 24 00 00 00 00 	movl   $0x0,0x24(%edi)
    2b68:	68 3c b5 00 00       	push   $0xb53c
    2b6d:	e8 ee 69 00 00       	call   9560 <fibril_mutex_unlock@plt>
    2b72:	83 c4 0c             	add    $0xc,%esp
    2b75:	68 90 85 00 00       	push   $0x8590
    2b7a:	6a 05                	push   $0x5
    2b7c:	6a ff                	push   $0xffffffff
    2b7e:	e8 fd 68 00 00       	call   9480 <log_msg@plt>
    2b83:	83 c8 ff             	or     $0xffffffff,%eax
    2b86:	f0 0f c1 06          	lock xadd %eax,(%esi)
    2b8a:	83 c4 10             	add    $0x10,%esp
    2b8d:	48                   	dec    %eax
    2b8e:	0f 84 ff 01 00 00    	je     2d93 <vbds_part_delete+0x363>
    2b94:	83 ec 0c             	sub    $0xc,%esp
    2b97:	c7 47 34 00 00 00 00 	movl   $0x0,0x34(%edi)
    2b9e:	57                   	push   %edi
    2b9f:	e8 0c 6a 00 00       	call   95b0 <fibril_rwlock_write_unlock@plt>
    2ba4:	58                   	pop    %eax
    2ba5:	8b 45 c4             	mov    -0x3c(%ebp),%eax
    2ba8:	50                   	push   %eax
    2ba9:	e8 32 0c 00 00       	call   37e0 <label_part_destroy>
    2bae:	83 c4 0c             	add    $0xc,%esp
    2bb1:	89 45 c0             	mov    %eax,-0x40(%ebp)
    2bb4:	68 90 85 00 00       	push   $0x8590
    2bb9:	6a 05                	push   $0x5
    2bbb:	6a ff                	push   $0xffffffff
    2bbd:	e8 be 68 00 00       	call   9480 <log_msg@plt>
    2bc2:	83 c9 ff             	or     $0xffffffff,%ecx
    2bc5:	f0 0f c1 0e          	lock xadd %ecx,(%esi)
    2bc9:	83 c4 10             	add    $0x10,%esp
    2bcc:	8b 45 c0             	mov    -0x40(%ebp),%eax
    2bcf:	49                   	dec    %ecx
    2bd0:	0f 84 dc 01 00 00    	je     2db2 <vbds_part_delete+0x382>
    2bd6:	85 c0                	test   %eax,%eax
    2bd8:	0f 84 91 01 00 00    	je     2d6f <vbds_part_delete+0x33f>
    2bde:	56                   	push   %esi
    2bdf:	68 b8 87 00 00       	push   $0x87b8
    2be4:	6a 01                	push   $0x1
    2be6:	6a ff                	push   $0xffffffff
    2be8:	e8 93 68 00 00       	call   9480 <log_msg@plt>
    2bed:	8b 7b 0c             	mov    0xc(%ebx),%edi
    2bf0:	8b 75 c4             	mov    -0x3c(%ebp),%esi
    2bf3:	89 34 24             	mov    %esi,(%esp)
    2bf6:	57                   	push   %edi
    2bf7:	68 af 85 00 00       	push   $0x85af
    2bfc:	6a 04                	push   $0x4
    2bfe:	6a ff                	push   $0xffffffff
    2c00:	e8 7b 68 00 00       	call   9480 <log_msg@plt>
    2c05:	83 c4 18             	add    $0x18,%esp
    2c08:	8d 45 d0             	lea    -0x30(%ebp),%eax
    2c0b:	50                   	push   %eax
    2c0c:	56                   	push   %esi
    2c0d:	e8 ae 0b 00 00       	call   37c0 <label_part_get_info>
    2c12:	58                   	pop    %eax
    2c13:	5a                   	pop    %edx
    2c14:	6a 58                	push   $0x58
    2c16:	6a 01                	push   $0x1
    2c18:	e8 f3 68 00 00       	call   9510 <calloc@plt>
    2c1d:	83 c4 10             	add    $0x10,%esp
    2c20:	89 c6                	mov    %eax,%esi
    2c22:	85 c0                	test   %eax,%eax
    2c24:	0f 84 ff 01 00 00    	je     2e29 <vbds_part_delete+0x3f9>
    2c2a:	83 ec 0c             	sub    $0xc,%esp
    2c2d:	50                   	push   %eax
    2c2e:	e8 8d 6a 00 00       	call   96c0 <fibril_rwlock_initialize@plt>
    2c33:	8b 45 c4             	mov    -0x3c(%ebp),%eax
    2c36:	8b 55 dc             	mov    -0x24(%ebp),%edx
    2c39:	89 46 34             	mov    %eax,0x34(%esi)
    2c3c:	a1 20 b3 00 00       	mov    0xb320,%eax
    2c41:	40                   	inc    %eax
    2c42:	89 56 48             	mov    %edx,0x48(%esi)
    2c45:	89 46 28             	mov    %eax,0x28(%esi)
    2c48:	a3 20 b3 00 00       	mov    %eax,0xb320
    2c4d:	8b 45 d8             	mov    -0x28(%ebp),%eax
    2c50:	8b 55 e4             	mov    -0x1c(%ebp),%edx
    2c53:	89 46 44             	mov    %eax,0x44(%esi)
    2c56:	8b 45 e0             	mov    -0x20(%ebp),%eax
    2c59:	89 46 4c             	mov    %eax,0x4c(%esi)
    2c5c:	89 5e 14             	mov    %ebx,0x14(%esi)
    2c5f:	c7 46 2c 00 00 00 00 	movl   $0x0,0x2c(%esi)
    2c66:	89 56 50             	mov    %edx,0x50(%esi)
    2c69:	c7 46 54 01 00 00 00 	movl   $0x1,0x54(%esi)
    2c70:	8d 46 38             	lea    0x38(%esi),%eax
    2c73:	89 04 24             	mov    %eax,(%esp)
    2c76:	e8 d5 68 00 00       	call   9550 <bd_srvs_init@plt>
    2c7b:	83 c4 10             	add    $0x10,%esp
    2c7e:	c7 46 38 00 b3 00 00 	movl   $0xb300,0x38(%esi)
    2c85:	89 76 3c             	mov    %esi,0x3c(%esi)
    2c88:	83 7d d4 01          	cmpl   $0x1,-0x2c(%ebp)
    2c8c:	74 0f                	je     2c9d <vbds_part_delete+0x26d>
    2c8e:	89 f0                	mov    %esi,%eax
    2c90:	e8 db e7 ff ff       	call   1470 <vbds_part_svc_register>
    2c95:	85 c0                	test   %eax,%eax
    2c97:	0f 85 75 01 00 00    	jne    2e12 <vbds_part_delete+0x3e2>
    2c9d:	8d 53 14             	lea    0x14(%ebx),%edx
    2ca0:	83 ec 0c             	sub    $0xc,%esp
    2ca3:	89 56 1c             	mov    %edx,0x1c(%esi)
    2ca6:	8b 53 14             	mov    0x14(%ebx),%edx
    2ca9:	8d 46 18             	lea    0x18(%esi),%eax
    2cac:	89 56 18             	mov    %edx,0x18(%esi)
    2caf:	89 42 04             	mov    %eax,0x4(%edx)
    2cb2:	89 43 14             	mov    %eax,0x14(%ebx)
    2cb5:	68 3c b5 00 00       	push   $0xb53c
    2cba:	e8 81 6a 00 00       	call   9740 <fibril_mutex_lock@plt>
    2cbf:	8b 15 34 b5 00 00    	mov    0xb534,%edx
    2cc5:	8d 46 20             	lea    0x20(%esi),%eax
    2cc8:	89 56 20             	mov    %edx,0x20(%esi)
    2ccb:	c7 46 24 34 b5 00 00 	movl   $0xb534,0x24(%esi)
    2cd2:	89 42 04             	mov    %eax,0x4(%edx)
    2cd5:	a3 34 b5 00 00       	mov    %eax,0xb534
    2cda:	c7 04 24 3c b5 00 00 	movl   $0xb53c,(%esp)
    2ce1:	e8 7a 68 00 00       	call   9560 <fibril_mutex_unlock@plt>
    2ce6:	56                   	push   %esi
    2ce7:	68 c5 85 00 00       	push   $0x85c5
    2cec:	6a 04                	push   $0x4
    2cee:	6a ff                	push   $0xffffffff
    2cf0:	e8 8b 67 00 00       	call   9480 <log_msg@plt>
    2cf5:	83 c4 20             	add    $0x20,%esp
    2cf8:	b8 f6 fe ff ff       	mov    $0xfffffef6,%eax
    2cfd:	eb 25                	jmp    2d24 <vbds_part_delete+0x2f4>
    2cff:	90                   	nop
    2d00:	83 ec 0c             	sub    $0xc,%esp
    2d03:	68 3c b5 00 00       	push   $0xb53c
    2d08:	e8 53 68 00 00       	call   9560 <fibril_mutex_unlock@plt>
    2d0d:	83 c4 0c             	add    $0xc,%esp
    2d10:	68 3f 87 00 00       	push   $0x873f
    2d15:	6a 04                	push   $0x4
    2d17:	6a ff                	push   $0xffffffff
    2d19:	e8 62 67 00 00       	call   9480 <log_msg@plt>
    2d1e:	83 c4 10             	add    $0x10,%esp
    2d21:	83 c8 ff             	or     $0xffffffff,%eax
    2d24:	8d 65 f4             	lea    -0xc(%ebp),%esp
    2d27:	5b                   	pop    %ebx
    2d28:	5e                   	pop    %esi
    2d29:	5f                   	pop    %edi
    2d2a:	5d                   	pop    %ebp
    2d2b:	c3                   	ret    
    2d2c:	83 ec 0c             	sub    $0xc,%esp
    2d2f:	50                   	push   %eax
    2d30:	8b 47 14             	mov    0x14(%edi),%eax
    2d33:	8b 40 0c             	mov    0xc(%eax),%eax
    2d36:	50                   	push   %eax
    2d37:	68 f4 88 00 00       	push   $0x88f4
    2d3c:	6a 04                	push   $0x4
    2d3e:	6a ff                	push   $0xffffffff
    2d40:	e8 3b 67 00 00       	call   9480 <log_msg@plt>
    2d45:	83 c4 14             	add    $0x14,%esp
    2d48:	8b 47 2c             	mov    0x2c(%edi),%eax
    2d4b:	50                   	push   %eax
    2d4c:	e8 1f 68 00 00       	call   9570 <loc_service_unregister@plt>
    2d51:	83 c4 10             	add    $0x10,%esp
    2d54:	85 c0                	test   %eax,%eax
    2d56:	0f 85 a0 00 00 00    	jne    2dfc <vbds_part_delete+0x3cc>
    2d5c:	c7 47 2c 00 00 00 00 	movl   $0x0,0x2c(%edi)
    2d63:	c7 47 30 00 00 00 00 	movl   $0x0,0x30(%edi)
    2d6a:	e9 9e fd ff ff       	jmp    2b0d <vbds_part_delete+0xdd>
    2d6f:	89 d8                	mov    %ebx,%eax
    2d71:	e8 5a e8 ff ff       	call   15d0 <vbds_part_indices_update>
    2d76:	85 c0                	test   %eax,%eax
    2d78:	74 aa                	je     2d24 <vbds_part_delete+0x2f4>
    2d7a:	52                   	push   %edx
    2d7b:	68 28 8c 00 00       	push   $0x8c28
    2d80:	6a 01                	push   $0x1
    2d82:	6a ff                	push   $0xffffffff
    2d84:	e8 f7 66 00 00       	call   9480 <log_msg@plt>
    2d89:	83 c4 10             	add    $0x10,%esp
    2d8c:	b8 f6 fe ff ff       	mov    $0xfffffef6,%eax
    2d91:	eb 91                	jmp    2d24 <vbds_part_delete+0x2f4>
    2d93:	50                   	push   %eax
    2d94:	68 a2 85 00 00       	push   $0x85a2
    2d99:	6a 05                	push   $0x5
    2d9b:	6a ff                	push   $0xffffffff
    2d9d:	e8 de 66 00 00       	call   9480 <log_msg@plt>
    2da2:	89 3c 24             	mov    %edi,(%esp)
    2da5:	e8 86 69 00 00       	call   9730 <free@plt>
    2daa:	83 c4 10             	add    $0x10,%esp
    2dad:	e9 e2 fd ff ff       	jmp    2b94 <vbds_part_delete+0x164>
    2db2:	51                   	push   %ecx
    2db3:	68 a2 85 00 00       	push   $0x85a2
    2db8:	6a 05                	push   $0x5
    2dba:	6a ff                	push   $0xffffffff
    2dbc:	e8 bf 66 00 00       	call   9480 <log_msg@plt>
    2dc1:	89 3c 24             	mov    %edi,(%esp)
    2dc4:	e8 67 69 00 00       	call   9730 <free@plt>
    2dc9:	83 c4 10             	add    $0x10,%esp
    2dcc:	8b 45 c0             	mov    -0x40(%ebp),%eax
    2dcf:	e9 02 fe ff ff       	jmp    2bd6 <vbds_part_delete+0x1a6>
    2dd4:	83 ec 0c             	sub    $0xc,%esp
    2dd7:	57                   	push   %edi
    2dd8:	e8 d3 67 00 00       	call   95b0 <fibril_rwlock_write_unlock@plt>
    2ddd:	8b 47 40             	mov    0x40(%edi),%eax
    2de0:	50                   	push   %eax
    2de1:	68 7c 85 00 00       	push   $0x857c
    2de6:	6a 04                	push   $0x4
    2de8:	6a ff                	push   $0xffffffff
    2dea:	e8 91 66 00 00       	call   9480 <log_msg@plt>
    2def:	83 c4 20             	add    $0x20,%esp
    2df2:	b8 f1 ff ff ff       	mov    $0xfffffff1,%eax
    2df7:	e9 28 ff ff ff       	jmp    2d24 <vbds_part_delete+0x2f4>
    2dfc:	83 ec 0c             	sub    $0xc,%esp
    2dff:	57                   	push   %edi
    2e00:	e8 ab 67 00 00       	call   95b0 <fibril_rwlock_write_unlock@plt>
    2e05:	83 c4 10             	add    $0x10,%esp
    2e08:	b8 f6 fe ff ff       	mov    $0xfffffef6,%eax
    2e0d:	e9 12 ff ff ff       	jmp    2d24 <vbds_part_delete+0x2f4>
    2e12:	83 ec 0c             	sub    $0xc,%esp
    2e15:	56                   	push   %esi
    2e16:	e8 15 69 00 00       	call   9730 <free@plt>
    2e1b:	83 c4 10             	add    $0x10,%esp
    2e1e:	50                   	push   %eax
    2e1f:	68 d2 87 00 00       	push   $0x87d2
    2e24:	e9 57 ff ff ff       	jmp    2d80 <vbds_part_delete+0x350>
    2e29:	51                   	push   %ecx
    2e2a:	68 22 85 00 00       	push   $0x8522
    2e2f:	6a 01                	push   $0x1
    2e31:	6a ff                	push   $0xffffffff
    2e33:	e8 48 66 00 00       	call   9480 <log_msg@plt>
    2e38:	83 c4 10             	add    $0x10,%esp
    2e3b:	eb e1                	jmp    2e1e <vbds_part_delete+0x3ee>
    2e3d:	8d 76 00             	lea    0x0(%esi),%esi

00002e40 <vbds_suggest_ptype>:
    2e40:	55                   	push   %ebp
    2e41:	89 e5                	mov    %esp,%ebp
    2e43:	83 ec 18             	sub    $0x18,%esp
    2e46:	a1 50 b5 00 00       	mov    0xb550,%eax
    2e4b:	8b 55 08             	mov    0x8(%ebp),%edx
    2e4e:	3d 4c b5 00 00       	cmp    $0xb54c,%eax
    2e53:	75 0d                	jne    2e62 <vbds_suggest_ptype+0x22>
    2e55:	eb 51                	jmp    2ea8 <vbds_suggest_ptype+0x68>
    2e57:	90                   	nop
    2e58:	8b 40 04             	mov    0x4(%eax),%eax
    2e5b:	3d 4c b5 00 00       	cmp    $0xb54c,%eax
    2e60:	74 46                	je     2ea8 <vbds_suggest_ptype+0x68>
    2e62:	3b 50 08             	cmp    0x8(%eax),%edx
    2e65:	75 f1                	jne    2e58 <vbds_suggest_ptype+0x18>
    2e67:	8b 4d 10             	mov    0x10(%ebp),%ecx
    2e6a:	52                   	push   %edx
    2e6b:	8b 55 0c             	mov    0xc(%ebp),%edx
    2e6e:	51                   	push   %ecx
    2e6f:	8b 48 10             	mov    0x10(%eax),%ecx
    2e72:	52                   	push   %edx
    2e73:	51                   	push   %ecx
    2e74:	e8 97 09 00 00       	call   3810 <label_suggest_ptype>
    2e79:	83 c4 10             	add    $0x10,%esp
    2e7c:	85 c0                	test   %eax,%eax
    2e7e:	75 08                	jne    2e88 <vbds_suggest_ptype+0x48>
    2e80:	c9                   	leave  
    2e81:	c3                   	ret    
    2e82:	8d b6 00 00 00 00    	lea    0x0(%esi),%esi
    2e88:	89 45 f4             	mov    %eax,-0xc(%ebp)
    2e8b:	50                   	push   %eax
    2e8c:	68 e7 87 00 00       	push   $0x87e7
    2e91:	6a 04                	push   $0x4
    2e93:	6a ff                	push   $0xffffffff
    2e95:	e8 e6 65 00 00       	call   9480 <log_msg@plt>
    2e9a:	8b 45 f4             	mov    -0xc(%ebp),%eax
    2e9d:	83 c4 10             	add    $0x10,%esp
    2ea0:	c9                   	leave  
    2ea1:	c3                   	ret    
    2ea2:	8d b6 00 00 00 00    	lea    0x0(%esi),%esi
    2ea8:	52                   	push   %edx
    2ea9:	68 8b 87 00 00       	push   $0x878b
    2eae:	6a 04                	push   $0x4
    2eb0:	6a ff                	push   $0xffffffff
    2eb2:	e8 c9 65 00 00       	call   9480 <log_msg@plt>
    2eb7:	83 c4 10             	add    $0x10,%esp
    2eba:	83 c8 ff             	or     $0xffffffff,%eax
    2ebd:	c9                   	leave  
    2ebe:	c3                   	ret    
    2ebf:	90                   	nop

00002ec0 <vbds_bd_conn>:
    2ec0:	55                   	push   %ebp
    2ec1:	89 e5                	mov    %esp,%ebp
    2ec3:	57                   	push   %edi
    2ec4:	56                   	push   %esi
    2ec5:	53                   	push   %ebx
    2ec6:	83 ec 20             	sub    $0x20,%esp
    2ec9:	8b 45 08             	mov    0x8(%ebp),%eax
    2ecc:	89 45 e4             	mov    %eax,-0x1c(%ebp)
    2ecf:	8b 45 0c             	mov    0xc(%ebp),%eax
    2ed2:	89 c3                	mov    %eax,%ebx
    2ed4:	68 04 88 00 00       	push   $0x8804
    2ed9:	89 45 e0             	mov    %eax,-0x20(%ebp)
    2edc:	6a 04                	push   $0x4
    2ede:	6a ff                	push   $0xffffffff
    2ee0:	e8 9b 65 00 00       	call   9480 <log_msg@plt>
    2ee5:	8b 5b 08             	mov    0x8(%ebx),%ebx
    2ee8:	53                   	push   %ebx
    2ee9:	68 13 88 00 00       	push   $0x8813
    2eee:	6a 04                	push   $0x4
    2ef0:	6a ff                	push   $0xffffffff
    2ef2:	e8 89 65 00 00       	call   9480 <log_msg@plt>
    2ef7:	83 c4 20             	add    $0x20,%esp
    2efa:	53                   	push   %ebx
    2efb:	68 2e 88 00 00       	push   $0x882e
    2f00:	6a 04                	push   $0x4
    2f02:	6a ff                	push   $0xffffffff
    2f04:	e8 77 65 00 00       	call   9480 <log_msg@plt>
    2f09:	c7 04 24 3c b5 00 00 	movl   $0xb53c,(%esp)
    2f10:	e8 2b 68 00 00       	call   9740 <fibril_mutex_lock@plt>
    2f15:	8b 35 38 b5 00 00    	mov    0xb538,%esi
    2f1b:	83 c4 10             	add    $0x10,%esp
    2f1e:	8d 7e e0             	lea    -0x20(%esi),%edi
    2f21:	81 fe 34 b5 00 00    	cmp    $0xb534,%esi
    2f27:	75 19                	jne    2f42 <vbds_bd_conn+0x82>
    2f29:	e9 b2 00 00 00       	jmp    2fe0 <vbds_bd_conn+0x120>
    2f2e:	66 90                	xchg   %ax,%ax
    2f30:	8b 76 04             	mov    0x4(%esi),%esi
    2f33:	81 fe 34 b5 00 00    	cmp    $0xb534,%esi
    2f39:	8d 7e e0             	lea    -0x20(%esi),%edi
    2f3c:	0f 84 9e 00 00 00    	je     2fe0 <vbds_bd_conn+0x120>
    2f42:	83 ec 0c             	sub    $0xc,%esp
    2f45:	53                   	push   %ebx
    2f46:	8b 47 2c             	mov    0x2c(%edi),%eax
    2f49:	50                   	push   %eax
    2f4a:	68 49 87 00 00       	push   $0x8749
    2f4f:	6a 04                	push   $0x4
    2f51:	6a ff                	push   $0xffffffff
    2f53:	e8 28 65 00 00       	call   9480 <log_msg@plt>
    2f58:	83 c4 20             	add    $0x20,%esp
    2f5b:	3b 5f 2c             	cmp    0x2c(%edi),%ebx
    2f5e:	75 d0                	jne    2f30 <vbds_bd_conn+0x70>
    2f60:	52                   	push   %edx
    2f61:	68 56 87 00 00       	push   $0x8756
    2f66:	6a 04                	push   $0x4
    2f68:	6a ff                	push   $0xffffffff
    2f6a:	e8 11 65 00 00       	call   9480 <log_msg@plt>
    2f6f:	83 c4 0c             	add    $0xc,%esp
    2f72:	68 63 87 00 00       	push   $0x8763
    2f77:	6a 05                	push   $0x5
    2f79:	6a ff                	push   $0xffffffff
    2f7b:	e8 00 65 00 00       	call   9480 <log_msg@plt>
    2f80:	f0 ff 47 54          	lock incl 0x54(%edi)
    2f84:	c7 04 24 3c b5 00 00 	movl   $0xb53c,(%esp)
    2f8b:	e8 d0 65 00 00       	call   9560 <fibril_mutex_unlock@plt>
    2f90:	83 c4 0c             	add    $0xc,%esp
    2f93:	68 46 88 00 00       	push   $0x8846
    2f98:	6a 04                	push   $0x4
    2f9a:	6a ff                	push   $0xffffffff
    2f9c:	e8 df 64 00 00       	call   9480 <log_msg@plt>
    2fa1:	83 c4 0c             	add    $0xc,%esp
    2fa4:	8b 4d e0             	mov    -0x20(%ebp),%ecx
    2fa7:	8d 47 38             	lea    0x38(%edi),%eax
    2faa:	8b 5d e4             	mov    -0x1c(%ebp),%ebx
    2fad:	50                   	push   %eax
    2fae:	51                   	push   %ecx
    2faf:	53                   	push   %ebx
    2fb0:	e8 bb 64 00 00       	call   9470 <bd_conn@plt>
    2fb5:	83 c4 0c             	add    $0xc,%esp
    2fb8:	68 90 85 00 00       	push   $0x8590
    2fbd:	6a 05                	push   $0x5
    2fbf:	6a ff                	push   $0xffffffff
    2fc1:	e8 ba 64 00 00       	call   9480 <log_msg@plt>
    2fc6:	83 c8 ff             	or     $0xffffffff,%eax
    2fc9:	f0 0f c1 47 54       	lock xadd %eax,0x54(%edi)
    2fce:	83 c4 10             	add    $0x10,%esp
    2fd1:	48                   	dec    %eax
    2fd2:	74 57                	je     302b <vbds_bd_conn+0x16b>
    2fd4:	8d 65 f4             	lea    -0xc(%ebp),%esp
    2fd7:	5b                   	pop    %ebx
    2fd8:	5e                   	pop    %esi
    2fd9:	5f                   	pop    %edi
    2fda:	5d                   	pop    %ebp
    2fdb:	c3                   	ret    
    2fdc:	8d 74 26 00          	lea    0x0(%esi,%eiz,1),%esi
    2fe0:	83 ec 0c             	sub    $0xc,%esp
    2fe3:	68 3c b5 00 00       	push   $0xb53c
    2fe8:	e8 73 65 00 00       	call   9560 <fibril_mutex_unlock@plt>
    2fed:	83 c4 0c             	add    $0xc,%esp
    2ff0:	68 3f 87 00 00       	push   $0x873f
    2ff5:	6a 04                	push   $0x4
    2ff7:	6a ff                	push   $0xffffffff
    2ff9:	e8 82 64 00 00       	call   9480 <log_msg@plt>
    2ffe:	83 c4 0c             	add    $0xc,%esp
    3001:	68 98 8c 00 00       	push   $0x8c98
    3006:	6a 04                	push   $0x4
    3008:	6a ff                	push   $0xffffffff
    300a:	e8 71 64 00 00       	call   9480 <log_msg@plt>
    300f:	8b 45 e4             	mov    -0x1c(%ebp),%eax
    3012:	c7 45 0c f2 ff ff ff 	movl   $0xfffffff2,0xc(%ebp)
    3019:	89 45 08             	mov    %eax,0x8(%ebp)
    301c:	83 c4 10             	add    $0x10,%esp
    301f:	8d 65 f4             	lea    -0xc(%ebp),%esp
    3022:	5b                   	pop    %ebx
    3023:	5e                   	pop    %esi
    3024:	5f                   	pop    %edi
    3025:	5d                   	pop    %ebp
    3026:	e9 35 64 00 00       	jmp    9460 <async_answer_0@plt>
    302b:	50                   	push   %eax
    302c:	68 a2 85 00 00       	push   $0x85a2
    3031:	6a 05                	push   $0x5
    3033:	6a ff                	push   $0xffffffff
    3035:	e8 46 64 00 00       	call   9480 <log_msg@plt>
    303a:	89 7d 08             	mov    %edi,0x8(%ebp)
    303d:	83 c4 10             	add    $0x10,%esp
    3040:	8d 65 f4             	lea    -0xc(%ebp),%esp
    3043:	5b                   	pop    %ebx
    3044:	5e                   	pop    %esi
    3045:	5f                   	pop    %edi
    3046:	5d                   	pop    %ebp
    3047:	e9 e4 66 00 00       	jmp    9730 <free@plt>
    304c:	66 90                	xchg   %ax,%ax
    304e:	66 90                	xchg   %ax,%ax

00003050 <vbds_client_conn>:
    3050:	55                   	push   %ebp
    3051:	89 e5                	mov    %esp,%ebp
    3053:	57                   	push   %edi
    3054:	56                   	push   %esi
    3055:	53                   	push   %ebx
    3056:	81 ec 90 00 00 00    	sub    $0x90,%esp
    305c:	8b 5d 0c             	mov    0xc(%ebp),%ebx
    305f:	8b 75 08             	mov    0x8(%ebp),%esi
    3062:	68 bd 8c 00 00       	push   $0x8cbd
    3067:	6a 04                	push   $0x4
    3069:	6a ff                	push   $0xffffffff
    306b:	e8 10 64 00 00       	call   9480 <log_msg@plt>
    3070:	a1 64 b5 00 00       	mov    0xb564,%eax
    3075:	83 c4 10             	add    $0x10,%esp
    3078:	39 43 08             	cmp    %eax,0x8(%ebx)
    307b:	74 1b                	je     3098 <vbds_client_conn+0x48>
    307d:	8b 55 10             	mov    0x10(%ebp),%edx
    3080:	50                   	push   %eax
    3081:	52                   	push   %edx
    3082:	53                   	push   %ebx
    3083:	56                   	push   %esi
    3084:	e8 37 fe ff ff       	call   2ec0 <vbds_bd_conn>
    3089:	83 c4 10             	add    $0x10,%esp
    308c:	8d 65 f4             	lea    -0xc(%ebp),%esp
    308f:	5b                   	pop    %ebx
    3090:	5e                   	pop    %esi
    3091:	5f                   	pop    %edi
    3092:	5d                   	pop    %ebp
    3093:	c3                   	ret    
    3094:	8d 74 26 00          	lea    0x0(%esi,%eiz,1),%esi
    3098:	50                   	push   %eax
    3099:	68 bd 8c 00 00       	push   $0x8cbd
    309e:	6a 04                	push   $0x4
    30a0:	6a ff                	push   $0xffffffff
    30a2:	e8 d9 63 00 00       	call   9480 <log_msg@plt>
    30a7:	5a                   	pop    %edx
    30a8:	59                   	pop    %ecx
    30a9:	6a 00                	push   $0x0
    30ab:	56                   	push   %esi
    30ac:	8d 75 90             	lea    -0x70(%ebp),%esi
    30af:	e8 ac 63 00 00       	call   9460 <async_answer_0@plt>
    30b4:	83 c4 10             	add    $0x10,%esp
    30b7:	90                   	nop
    30b8:	50                   	push   %eax
    30b9:	50                   	push   %eax
    30ba:	6a 00                	push   $0x0
    30bc:	56                   	push   %esi
    30bd:	e8 8e 65 00 00       	call   9650 <async_get_call_timeout@plt>
    30c2:	83 c4 10             	add    $0x10,%esp
    30c5:	89 c3                	mov    %eax,%ebx
    30c7:	8b 45 90             	mov    -0x70(%ebp),%eax
    30ca:	85 c0                	test   %eax,%eax
    30cc:	0f 84 6e 03 00 00    	je     3440 <vbds_client_conn+0x3f0>
    30d2:	2d 00 04 00 00       	sub    $0x400,%eax
    30d7:	83 f8 08             	cmp    $0x8,%eax
    30da:	0f 87 48 03 00 00    	ja     3428 <vbds_client_conn+0x3d8>
    30e0:	ff 24 85 c0 8d 00 00 	jmp    *0x8dc0(,%eax,4)
    30e7:	90                   	nop
    30e8:	57                   	push   %edi
    30e9:	68 60 8d 00 00       	push   $0x8d60
    30ee:	6a 04                	push   $0x4
    30f0:	6a ff                	push   $0xffffffff
    30f2:	e8 89 63 00 00       	call   9480 <log_msg@plt>
    30f7:	58                   	pop    %eax
    30f8:	8b 45 94             	mov    -0x6c(%ebp),%eax
    30fb:	50                   	push   %eax
    30fc:	e8 2f f9 ff ff       	call   2a30 <vbds_part_delete>
    3101:	5a                   	pop    %edx
    3102:	59                   	pop    %ecx
    3103:	50                   	push   %eax
    3104:	53                   	push   %ebx
    3105:	e8 56 63 00 00       	call   9460 <async_answer_0@plt>
    310a:	83 c4 10             	add    $0x10,%esp
    310d:	eb a9                	jmp    30b8 <vbds_client_conn+0x68>
    310f:	90                   	nop
    3110:	50                   	push   %eax
    3111:	68 49 8d 00 00       	push   $0x8d49
    3116:	6a 04                	push   $0x4
    3118:	6a ff                	push   $0xffffffff
    311a:	e8 61 63 00 00       	call   9480 <log_msg@plt>
    311f:	58                   	pop    %eax
    3120:	8d 45 8c             	lea    -0x74(%ebp),%eax
    3123:	5a                   	pop    %edx
    3124:	50                   	push   %eax
    3125:	8d 45 88             	lea    -0x78(%ebp),%eax
    3128:	50                   	push   %eax
    3129:	8b 7d 94             	mov    -0x6c(%ebp),%edi
    312c:	e8 ef 65 00 00       	call   9720 <async_data_write_receive@plt>
    3131:	83 c4 10             	add    $0x10,%esp
    3134:	84 c0                	test   %al,%al
    3136:	0f 84 b4 02 00 00    	je     33f0 <vbds_client_conn+0x3a0>
    313c:	83 7d 8c 34          	cmpl   $0x34,-0x74(%ebp)
    3140:	0f 84 12 03 00 00    	je     3458 <vbds_client_conn+0x408>
    3146:	50                   	push   %eax
    3147:	50                   	push   %eax
    3148:	8b 45 88             	mov    -0x78(%ebp),%eax
    314b:	6a f2                	push   $0xfffffff2
    314d:	50                   	push   %eax
    314e:	e8 0d 63 00 00       	call   9460 <async_answer_0@plt>
    3153:	58                   	pop    %eax
    3154:	5a                   	pop    %edx
    3155:	6a f2                	push   $0xfffffff2
    3157:	53                   	push   %ebx
    3158:	e8 03 63 00 00       	call   9460 <async_answer_0@plt>
    315d:	83 c4 10             	add    $0x10,%esp
    3160:	e9 53 ff ff ff       	jmp    30b8 <vbds_client_conn+0x68>
    3165:	8d 76 00             	lea    0x0(%esi),%esi
    3168:	50                   	push   %eax
    3169:	68 30 8d 00 00       	push   $0x8d30
    316e:	6a 04                	push   $0x4
    3170:	6a ff                	push   $0xffffffff
    3172:	e8 09 63 00 00       	call   9480 <log_msg@plt>
    3177:	58                   	pop    %eax
    3178:	8b 4d 94             	mov    -0x6c(%ebp),%ecx
    317b:	8d 45 b4             	lea    -0x4c(%ebp),%eax
    317e:	5a                   	pop    %edx
    317f:	50                   	push   %eax
    3180:	51                   	push   %ecx
    3181:	e8 2a f4 ff ff       	call   25b0 <vbds_part_get_info>
    3186:	83 c4 10             	add    $0x10,%esp
    3189:	85 c0                	test   %eax,%eax
    318b:	0f 85 7f 02 00 00    	jne    3410 <vbds_client_conn+0x3c0>
    3191:	8d 45 8c             	lea    -0x74(%ebp),%eax
    3194:	57                   	push   %edi
    3195:	57                   	push   %edi
    3196:	50                   	push   %eax
    3197:	8d 45 88             	lea    -0x78(%ebp),%eax
    319a:	50                   	push   %eax
    319b:	e8 50 64 00 00       	call   95f0 <async_data_read_receive@plt>
    31a0:	83 c4 10             	add    $0x10,%esp
    31a3:	84 c0                	test   %al,%al
    31a5:	0f 84 45 02 00 00    	je     33f0 <vbds_client_conn+0x3a0>
    31ab:	83 7d 8c 1c          	cmpl   $0x1c,-0x74(%ebp)
    31af:	75 95                	jne    3146 <vbds_client_conn+0xf6>
    31b1:	51                   	push   %ecx
    31b2:	6a 1c                	push   $0x1c
    31b4:	e9 eb 01 00 00       	jmp    33a4 <vbds_client_conn+0x354>
    31b9:	8d b4 26 00 00 00 00 	lea    0x0(%esi,%eiz,1),%esi
    31c0:	50                   	push   %eax
    31c1:	68 15 8d 00 00       	push   $0x8d15
    31c6:	6a 04                	push   $0x4
    31c8:	6a ff                	push   $0xffffffff
    31ca:	e8 b1 62 00 00       	call   9480 <log_msg@plt>
    31cf:	58                   	pop    %eax
    31d0:	8d 45 8c             	lea    -0x74(%ebp),%eax
    31d3:	5a                   	pop    %edx
    31d4:	50                   	push   %eax
    31d5:	8d 45 88             	lea    -0x78(%ebp),%eax
    31d8:	50                   	push   %eax
    31d9:	e8 12 64 00 00       	call   95f0 <async_data_read_receive@plt>
    31de:	83 c4 10             	add    $0x10,%esp
    31e1:	84 c0                	test   %al,%al
    31e3:	0f 84 07 02 00 00    	je     33f0 <vbds_client_conn+0x3a0>
    31e9:	83 ec 0c             	sub    $0xc,%esp
    31ec:	8b 45 8c             	mov    -0x74(%ebp),%eax
    31ef:	8b 7d 94             	mov    -0x6c(%ebp),%edi
    31f2:	50                   	push   %eax
    31f3:	e8 48 62 00 00       	call   9440 <malloc@plt>
    31f8:	83 c4 10             	add    $0x10,%esp
    31fb:	89 c2                	mov    %eax,%edx
    31fd:	85 c0                	test   %eax,%eax
    31ff:	0f 84 03 03 00 00    	je     3508 <vbds_client_conn+0x4b8>
    3205:	8d 45 b4             	lea    -0x4c(%ebp),%eax
    3208:	89 95 74 ff ff ff    	mov    %edx,-0x8c(%ebp)
    320e:	50                   	push   %eax
    320f:	8b 45 8c             	mov    -0x74(%ebp),%eax
    3212:	50                   	push   %eax
    3213:	52                   	push   %edx
    3214:	57                   	push   %edi
    3215:	e8 76 f0 ff ff       	call   2290 <vbds_get_parts>
    321a:	83 c4 10             	add    $0x10,%esp
    321d:	89 c7                	mov    %eax,%edi
    321f:	85 c0                	test   %eax,%eax
    3221:	8b 95 74 ff ff ff    	mov    -0x8c(%ebp),%edx
    3227:	0f 84 9b 02 00 00    	je     34c8 <vbds_client_conn+0x478>
    322d:	50                   	push   %eax
    322e:	50                   	push   %eax
    322f:	8b 45 88             	mov    -0x78(%ebp),%eax
    3232:	57                   	push   %edi
    3233:	50                   	push   %eax
    3234:	e8 27 62 00 00       	call   9460 <async_answer_0@plt>
    3239:	58                   	pop    %eax
    323a:	5a                   	pop    %edx
    323b:	57                   	push   %edi
    323c:	53                   	push   %ebx
    323d:	e8 1e 62 00 00       	call   9460 <async_answer_0@plt>
    3242:	83 c4 10             	add    $0x10,%esp
    3245:	e9 6e fe ff ff       	jmp    30b8 <vbds_client_conn+0x68>
    324a:	8d b6 00 00 00 00    	lea    0x0(%esi),%esi
    3250:	50                   	push   %eax
    3251:	50                   	push   %eax
    3252:	8d 45 8c             	lea    -0x74(%ebp),%eax
    3255:	50                   	push   %eax
    3256:	8d 45 88             	lea    -0x78(%ebp),%eax
    3259:	50                   	push   %eax
    325a:	e8 91 63 00 00       	call   95f0 <async_data_read_receive@plt>
    325f:	83 c4 10             	add    $0x10,%esp
    3262:	84 c0                	test   %al,%al
    3264:	0f 84 86 01 00 00    	je     33f0 <vbds_client_conn+0x3a0>
    326a:	83 ec 0c             	sub    $0xc,%esp
    326d:	8b 45 8c             	mov    -0x74(%ebp),%eax
    3270:	50                   	push   %eax
    3271:	e8 ca 61 00 00       	call   9440 <malloc@plt>
    3276:	83 c4 10             	add    $0x10,%esp
    3279:	89 c7                	mov    %eax,%edi
    327b:	85 c0                	test   %eax,%eax
    327d:	0f 84 85 02 00 00    	je     3508 <vbds_client_conn+0x4b8>
    3283:	8d 45 b4             	lea    -0x4c(%ebp),%eax
    3286:	51                   	push   %ecx
    3287:	50                   	push   %eax
    3288:	8b 45 8c             	mov    -0x74(%ebp),%eax
    328b:	50                   	push   %eax
    328c:	57                   	push   %edi
    328d:	e8 9e ee ff ff       	call   2130 <vbds_disk_get_ids>
    3292:	83 c4 10             	add    $0x10,%esp
    3295:	89 85 74 ff ff ff    	mov    %eax,-0x8c(%ebp)
    329b:	85 c0                	test   %eax,%eax
    329d:	0f 84 e5 01 00 00    	je     3488 <vbds_client_conn+0x438>
    32a3:	83 ec 0c             	sub    $0xc,%esp
    32a6:	57                   	push   %edi
    32a7:	e8 84 64 00 00       	call   9730 <free@plt>
    32ac:	58                   	pop    %eax
    32ad:	5a                   	pop    %edx
    32ae:	8b 95 74 ff ff ff    	mov    -0x8c(%ebp),%edx
    32b4:	52                   	push   %edx
    32b5:	8b 45 88             	mov    -0x78(%ebp),%eax
    32b8:	50                   	push   %eax
    32b9:	e8 a2 61 00 00       	call   9460 <async_answer_0@plt>
    32be:	5a                   	pop    %edx
    32bf:	8b 95 74 ff ff ff    	mov    -0x8c(%ebp),%edx
    32c5:	59                   	pop    %ecx
    32c6:	52                   	push   %edx
    32c7:	53                   	push   %ebx
    32c8:	e8 93 61 00 00       	call   9460 <async_answer_0@plt>
    32cd:	83 c4 10             	add    $0x10,%esp
    32d0:	e9 e3 fd ff ff       	jmp    30b8 <vbds_client_conn+0x68>
    32d5:	8d 76 00             	lea    0x0(%esi),%esi
    32d8:	50                   	push   %eax
    32d9:	68 77 8d 00 00       	push   $0x8d77
    32de:	6a 04                	push   $0x4
    32e0:	6a ff                	push   $0xffffffff
    32e2:	e8 99 61 00 00       	call   9480 <log_msg@plt>
    32e7:	83 c4 0c             	add    $0xc,%esp
    32ea:	8d 45 b4             	lea    -0x4c(%ebp),%eax
    32ed:	50                   	push   %eax
    32ee:	8b 45 98             	mov    -0x68(%ebp),%eax
    32f1:	50                   	push   %eax
    32f2:	8b 45 94             	mov    -0x6c(%ebp),%eax
    32f5:	50                   	push   %eax
    32f6:	e8 45 fb ff ff       	call   2e40 <vbds_suggest_ptype>
    32fb:	83 c4 10             	add    $0x10,%esp
    32fe:	85 c0                	test   %eax,%eax
    3300:	0f 85 0a 01 00 00    	jne    3410 <vbds_client_conn+0x3c0>
    3306:	8d 45 8c             	lea    -0x74(%ebp),%eax
    3309:	51                   	push   %ecx
    330a:	51                   	push   %ecx
    330b:	50                   	push   %eax
    330c:	8d 45 88             	lea    -0x78(%ebp),%eax
    330f:	50                   	push   %eax
    3310:	e8 db 62 00 00       	call   95f0 <async_data_read_receive@plt>
    3315:	83 c4 10             	add    $0x10,%esp
    3318:	84 c0                	test   %al,%al
    331a:	0f 84 d0 00 00 00    	je     33f0 <vbds_client_conn+0x3a0>
    3320:	83 7d 8c 14          	cmpl   $0x14,-0x74(%ebp)
    3324:	0f 85 1c fe ff ff    	jne    3146 <vbds_client_conn+0xf6>
    332a:	57                   	push   %edi
    332b:	6a 14                	push   $0x14
    332d:	eb 75                	jmp    33a4 <vbds_client_conn+0x354>
    332f:	90                   	nop
    3330:	50                   	push   %eax
    3331:	68 e5 8c 00 00       	push   $0x8ce5
    3336:	6a 04                	push   $0x4
    3338:	6a ff                	push   $0xffffffff
    333a:	e8 41 61 00 00       	call   9480 <log_msg@plt>
    333f:	8b 4d 98             	mov    -0x68(%ebp),%ecx
    3342:	8b 7d 94             	mov    -0x6c(%ebp),%edi
    3345:	58                   	pop    %eax
    3346:	5a                   	pop    %edx
    3347:	51                   	push   %ecx
    3348:	57                   	push   %edi
    3349:	e8 e2 ef ff ff       	call   2330 <vbds_label_create>
    334e:	e9 ae fd ff ff       	jmp    3101 <vbds_client_conn+0xb1>
    3353:	90                   	nop
    3354:	8d 74 26 00          	lea    0x0(%esi,%eiz,1),%esi
    3358:	50                   	push   %eax
    3359:	68 d0 8c 00 00       	push   $0x8cd0
    335e:	6a 04                	push   $0x4
    3360:	6a ff                	push   $0xffffffff
    3362:	e8 19 61 00 00       	call   9480 <log_msg@plt>
    3367:	58                   	pop    %eax
    3368:	8b 4d 94             	mov    -0x6c(%ebp),%ecx
    336b:	8d 45 b4             	lea    -0x4c(%ebp),%eax
    336e:	5a                   	pop    %edx
    336f:	50                   	push   %eax
    3370:	51                   	push   %ecx
    3371:	e8 4a ee ff ff       	call   21c0 <vbds_disk_info>
    3376:	83 c4 10             	add    $0x10,%esp
    3379:	85 c0                	test   %eax,%eax
    337b:	0f 85 8f 00 00 00    	jne    3410 <vbds_client_conn+0x3c0>
    3381:	50                   	push   %eax
    3382:	50                   	push   %eax
    3383:	8d 45 8c             	lea    -0x74(%ebp),%eax
    3386:	50                   	push   %eax
    3387:	8d 45 88             	lea    -0x78(%ebp),%eax
    338a:	50                   	push   %eax
    338b:	e8 60 62 00 00       	call   95f0 <async_data_read_receive@plt>
    3390:	83 c4 10             	add    $0x10,%esp
    3393:	84 c0                	test   %al,%al
    3395:	74 59                	je     33f0 <vbds_client_conn+0x3a0>
    3397:	83 7d 8c 24          	cmpl   $0x24,-0x74(%ebp)
    339b:	0f 85 a5 fd ff ff    	jne    3146 <vbds_client_conn+0xf6>
    33a1:	50                   	push   %eax
    33a2:	6a 24                	push   $0x24
    33a4:	8d 45 b4             	lea    -0x4c(%ebp),%eax
    33a7:	8b 4d 88             	mov    -0x78(%ebp),%ecx
    33aa:	50                   	push   %eax
    33ab:	51                   	push   %ecx
    33ac:	e8 5f 60 00 00       	call   9410 <async_data_read_finalize@plt>
    33b1:	83 c4 10             	add    $0x10,%esp
    33b4:	89 c7                	mov    %eax,%edi
    33b6:	85 c0                	test   %eax,%eax
    33b8:	0f 85 6f fe ff ff    	jne    322d <vbds_client_conn+0x1dd>
    33be:	57                   	push   %edi
    33bf:	57                   	push   %edi
    33c0:	6a 00                	push   $0x0
    33c2:	53                   	push   %ebx
    33c3:	e8 98 60 00 00       	call   9460 <async_answer_0@plt>
    33c8:	83 c4 10             	add    $0x10,%esp
    33cb:	e9 e8 fc ff ff       	jmp    30b8 <vbds_client_conn+0x68>
    33d0:	51                   	push   %ecx
    33d1:	68 fd 8c 00 00       	push   $0x8cfd
    33d6:	6a 04                	push   $0x4
    33d8:	6a ff                	push   $0xffffffff
    33da:	e8 a1 60 00 00       	call   9480 <log_msg@plt>
    33df:	8b 45 94             	mov    -0x6c(%ebp),%eax
    33e2:	5f                   	pop    %edi
    33e3:	50                   	push   %eax
    33e4:	e8 d7 f0 ff ff       	call   24c0 <vbds_label_delete>
    33e9:	e9 13 fd ff ff       	jmp    3101 <vbds_client_conn+0xb1>
    33ee:	66 90                	xchg   %ax,%ax
    33f0:	8b 7d 88             	mov    -0x78(%ebp),%edi
    33f3:	51                   	push   %ecx
    33f4:	51                   	push   %ecx
    33f5:	6a fc                	push   $0xfffffffc
    33f7:	57                   	push   %edi
    33f8:	e8 63 60 00 00       	call   9460 <async_answer_0@plt>
    33fd:	58                   	pop    %eax
    33fe:	5a                   	pop    %edx
    33ff:	6a fc                	push   $0xfffffffc
    3401:	53                   	push   %ebx
    3402:	e8 59 60 00 00       	call   9460 <async_answer_0@plt>
    3407:	83 c4 10             	add    $0x10,%esp
    340a:	e9 a9 fc ff ff       	jmp    30b8 <vbds_client_conn+0x68>
    340f:	90                   	nop
    3410:	57                   	push   %edi
    3411:	57                   	push   %edi
    3412:	50                   	push   %eax
    3413:	53                   	push   %ebx
    3414:	e8 47 60 00 00       	call   9460 <async_answer_0@plt>
    3419:	83 c4 10             	add    $0x10,%esp
    341c:	e9 97 fc ff ff       	jmp    30b8 <vbds_client_conn+0x68>
    3421:	8d b4 26 00 00 00 00 	lea    0x0(%esi,%eiz,1),%esi
    3428:	51                   	push   %ecx
    3429:	51                   	push   %ecx
    342a:	6a f2                	push   $0xfffffff2
    342c:	53                   	push   %ebx
    342d:	e8 2e 60 00 00       	call   9460 <async_answer_0@plt>
    3432:	83 c4 10             	add    $0x10,%esp
    3435:	e9 7e fc ff ff       	jmp    30b8 <vbds_client_conn+0x68>
    343a:	8d b6 00 00 00 00    	lea    0x0(%esi),%esi
    3440:	50                   	push   %eax
    3441:	50                   	push   %eax
    3442:	6a 00                	push   $0x0
    3444:	53                   	push   %ebx
    3445:	e8 16 60 00 00       	call   9460 <async_answer_0@plt>
    344a:	83 c4 10             	add    $0x10,%esp
    344d:	8d 65 f4             	lea    -0xc(%ebp),%esp
    3450:	5b                   	pop    %ebx
    3451:	5e                   	pop    %esi
    3452:	5f                   	pop    %edi
    3453:	5d                   	pop    %ebp
    3454:	c3                   	ret    
    3455:	8d 76 00             	lea    0x0(%esi),%esi
    3458:	50                   	push   %eax
    3459:	8d 45 b4             	lea    -0x4c(%ebp),%eax
    345c:	6a 34                	push   $0x34
    345e:	50                   	push   %eax
    345f:	8b 45 88             	mov    -0x78(%ebp),%eax
    3462:	50                   	push   %eax
    3463:	e8 48 62 00 00       	call   96b0 <async_data_write_finalize@plt>
    3468:	83 c4 10             	add    $0x10,%esp
    346b:	85 c0                	test   %eax,%eax
    346d:	0f 84 b4 00 00 00    	je     3527 <vbds_client_conn+0x4d7>
    3473:	89 85 74 ff ff ff    	mov    %eax,-0x8c(%ebp)
    3479:	57                   	push   %edi
    347a:	57                   	push   %edi
    347b:	50                   	push   %eax
    347c:	e9 34 fe ff ff       	jmp    32b5 <vbds_client_conn+0x265>
    3481:	8d b4 26 00 00 00 00 	lea    0x0(%esi,%eiz,1),%esi
    3488:	50                   	push   %eax
    3489:	8b 45 8c             	mov    -0x74(%ebp),%eax
    348c:	50                   	push   %eax
    348d:	8b 45 88             	mov    -0x78(%ebp),%eax
    3490:	57                   	push   %edi
    3491:	50                   	push   %eax
    3492:	e8 79 5f 00 00       	call   9410 <async_data_read_finalize@plt>
    3497:	89 3c 24             	mov    %edi,(%esp)
    349a:	89 85 74 ff ff ff    	mov    %eax,-0x8c(%ebp)
    34a0:	e8 8b 62 00 00       	call   9730 <free@plt>
    34a5:	83 c4 0c             	add    $0xc,%esp
    34a8:	8b 45 b4             	mov    -0x4c(%ebp),%eax
    34ab:	50                   	push   %eax
    34ac:	8b 85 74 ff ff ff    	mov    -0x8c(%ebp),%eax
    34b2:	50                   	push   %eax
    34b3:	53                   	push   %ebx
    34b4:	e8 c7 61 00 00       	call   9680 <async_answer_1@plt>
    34b9:	83 c4 10             	add    $0x10,%esp
    34bc:	e9 f7 fb ff ff       	jmp    30b8 <vbds_client_conn+0x68>
    34c1:	8d b4 26 00 00 00 00 	lea    0x0(%esi,%eiz,1),%esi
    34c8:	8b 45 8c             	mov    -0x74(%ebp),%eax
    34cb:	57                   	push   %edi
    34cc:	50                   	push   %eax
    34cd:	8b 45 88             	mov    -0x78(%ebp),%eax
    34d0:	52                   	push   %edx
    34d1:	89 95 74 ff ff ff    	mov    %edx,-0x8c(%ebp)
    34d7:	50                   	push   %eax
    34d8:	e8 33 5f 00 00       	call   9410 <async_data_read_finalize@plt>
    34dd:	8b 95 74 ff ff ff    	mov    -0x8c(%ebp),%edx
    34e3:	89 c7                	mov    %eax,%edi
    34e5:	89 14 24             	mov    %edx,(%esp)
    34e8:	e8 43 62 00 00       	call   9730 <free@plt>
    34ed:	83 c4 0c             	add    $0xc,%esp
    34f0:	8b 45 b4             	mov    -0x4c(%ebp),%eax
    34f3:	50                   	push   %eax
    34f4:	57                   	push   %edi
    34f5:	53                   	push   %ebx
    34f6:	e8 85 61 00 00       	call   9680 <async_answer_1@plt>
    34fb:	83 c4 10             	add    $0x10,%esp
    34fe:	e9 b5 fb ff ff       	jmp    30b8 <vbds_client_conn+0x68>
    3503:	90                   	nop
    3504:	8d 74 26 00          	lea    0x0(%esi,%eiz,1),%esi
    3508:	50                   	push   %eax
    3509:	50                   	push   %eax
    350a:	8b 45 88             	mov    -0x78(%ebp),%eax
    350d:	6a fe                	push   $0xfffffffe
    350f:	50                   	push   %eax
    3510:	e8 4b 5f 00 00       	call   9460 <async_answer_0@plt>
    3515:	5a                   	pop    %edx
    3516:	59                   	pop    %ecx
    3517:	6a fe                	push   $0xfffffffe
    3519:	53                   	push   %ebx
    351a:	e8 41 5f 00 00       	call   9460 <async_answer_0@plt>
    351f:	83 c4 10             	add    $0x10,%esp
    3522:	e9 91 fb ff ff       	jmp    30b8 <vbds_client_conn+0x68>
    3527:	50                   	push   %eax
    3528:	8d 45 84             	lea    -0x7c(%ebp),%eax
    352b:	50                   	push   %eax
    352c:	8d 45 b4             	lea    -0x4c(%ebp),%eax
    352f:	50                   	push   %eax
    3530:	57                   	push   %edi
    3531:	e8 0a f2 ff ff       	call   2740 <vbds_part_create>
    3536:	83 c4 10             	add    $0x10,%esp
    3539:	85 c0                	test   %eax,%eax
    353b:	0f 85 cf fe ff ff    	jne    3410 <vbds_client_conn+0x3c0>
    3541:	50                   	push   %eax
    3542:	8b 45 84             	mov    -0x7c(%ebp),%eax
    3545:	50                   	push   %eax
    3546:	6a 00                	push   $0x0
    3548:	53                   	push   %ebx
    3549:	e8 32 61 00 00       	call   9680 <async_answer_1@plt>
    354e:	83 c4 10             	add    $0x10,%esp
    3551:	e9 62 fb ff ff       	jmp    30b8 <vbds_client_conn+0x68>
    3556:	66 90                	xchg   %ax,%ax
    3558:	66 90                	xchg   %ax,%ax
    355a:	66 90                	xchg   %ax,%ax
    355c:	66 90                	xchg   %ax,%ax
    355e:	66 90                	xchg   %ax,%ax

00003560 <main>:
    3560:	8d 4c 24 04          	lea    0x4(%esp),%ecx
    3564:	83 e4 f0             	and    $0xfffffff0,%esp
    3567:	ff 71 fc             	pushl  -0x4(%ecx)
    356a:	55                   	push   %ebp
    356b:	89 e5                	mov    %esp,%ebp
    356d:	53                   	push   %ebx
    356e:	51                   	push   %ecx
    356f:	50                   	push   %eax
    3570:	50                   	push   %eax
    3571:	68 90 8d 00 00       	push   $0x8d90
    3576:	68 e4 8d 00 00       	push   $0x8de4
    357b:	e8 00 5e 00 00       	call   9380 <printf@plt>
    3580:	c7 04 24 90 8d 00 00 	movl   $0x8d90,(%esp)
    3587:	e8 34 5e 00 00       	call   93c0 <log_init@plt>
    358c:	83 c4 10             	add    $0x10,%esp
    358f:	85 c0                	test   %eax,%eax
    3591:	0f 85 b4 00 00 00    	jne    364b <main+0xeb>
    3597:	53                   	push   %ebx
    3598:	68 94 8d 00 00       	push   $0x8d94
    359d:	6a 04                	push   $0x4
    359f:	6a ff                	push   $0xffffffff
    35a1:	e8 da 5e 00 00       	call   9480 <log_msg@plt>
    35a6:	e8 15 e5 ff ff       	call   1ac0 <vbds_disks_init>
    35ab:	83 c4 10             	add    $0x10,%esp
    35ae:	85 c0                	test   %eax,%eax
    35b0:	74 11                	je     35c3 <main+0x63>
    35b2:	bb 01 00 00 00       	mov    $0x1,%ebx
    35b7:	8d 65 f8             	lea    -0x8(%ebp),%esp
    35ba:	89 d8                	mov    %ebx,%eax
    35bc:	59                   	pop    %ecx
    35bd:	5b                   	pop    %ebx
    35be:	5d                   	pop    %ebp
    35bf:	8d 61 fc             	lea    -0x4(%ecx),%esp
    35c2:	c3                   	ret    
    35c3:	51                   	push   %ecx
    35c4:	51                   	push   %ecx
    35c5:	6a 00                	push   $0x0
    35c7:	68 50 30 00 00       	push   $0x3050
    35cc:	e8 2f 61 00 00       	call   9700 <async_set_fallback_port_handler@plt>
    35d1:	c7 04 24 90 8d 00 00 	movl   $0x8d90,(%esp)
    35d8:	e8 43 60 00 00       	call   9620 <loc_server_register@plt>
    35dd:	83 c4 10             	add    $0x10,%esp
    35e0:	85 c0                	test   %eax,%eax
    35e2:	0f 85 9a 00 00 00    	jne    3682 <main+0x122>
    35e8:	52                   	push   %edx
    35e9:	52                   	push   %edx
    35ea:	68 64 b5 00 00       	push   $0xb564
    35ef:	68 90 8d 00 00       	push   $0x8d90
    35f4:	e8 e7 5d 00 00       	call   93e0 <loc_service_register@plt>
    35f9:	83 c4 10             	add    $0x10,%esp
    35fc:	85 c0                	test   %eax,%eax
    35fe:	0f 85 95 00 00 00    	jne    3699 <main+0x139>
    3604:	e8 d7 ea ff ff       	call   20e0 <vbds_disk_discovery_start>
    3609:	89 c3                	mov    %eax,%ebx
    360b:	85 c0                	test   %eax,%eax
    360d:	75 a3                	jne    35b2 <main+0x52>
    360f:	83 ec 0c             	sub    $0xc,%esp
    3612:	68 a0 8d 00 00       	push   $0x8da0
    3617:	e8 64 5d 00 00       	call   9380 <printf@plt>
    361c:	c7 04 24 00 00 00 00 	movl   $0x0,(%esp)
    3623:	e8 38 5d 00 00       	call   9360 <task_retval@plt>
    3628:	83 c8 ff             	or     $0xffffffff,%eax
    362b:	f0 0f c1 05 2c b5 00 	lock xadd %eax,0xb52c
    3632:	00 
    3633:	83 c4 10             	add    $0x10,%esp
    3636:	48                   	dec    %eax
    3637:	78 2c                	js     3665 <main+0x105>
    3639:	83 ec 0c             	sub    $0xc,%esp
    363c:	6a 03                	push   $0x3
    363e:	e8 8d 60 00 00       	call   96d0 <fibril_switch@plt>
    3643:	83 c4 10             	add    $0x10,%esp
    3646:	e9 6c ff ff ff       	jmp    35b7 <main+0x57>
    364b:	83 ec 0c             	sub    $0xc,%esp
    364e:	bb 01 00 00 00       	mov    $0x1,%ebx
    3653:	68 08 8e 00 00       	push   $0x8e08
    3658:	e8 23 5d 00 00       	call   9380 <printf@plt>
    365d:	83 c4 10             	add    $0x10,%esp
    3660:	e9 52 ff ff ff       	jmp    35b7 <main+0x57>
    3665:	50                   	push   %eax
    3666:	6a 0b                	push   $0xb
    3668:	6a 00                	push   $0x0
    366a:	6a 00                	push   $0x0
    366c:	6a 00                	push   $0x0
    366e:	6a 00                	push   $0x0
    3670:	6a 00                	push   $0x0
    3672:	68 2c b5 00 00       	push   $0xb52c
    3677:	ff 15 28 b5 00 00    	call   *0xb528
    367d:	83 c4 20             	add    $0x20,%esp
    3680:	eb b7                	jmp    3639 <main+0xd9>
    3682:	50                   	push   %eax
    3683:	68 2c 8e 00 00       	push   $0x8e2c
    3688:	6a 01                	push   $0x1
    368a:	6a ff                	push   $0xffffffff
    368c:	e8 ef 5d 00 00       	call   9480 <log_msg@plt>
    3691:	83 c4 10             	add    $0x10,%esp
    3694:	e9 19 ff ff ff       	jmp    35b2 <main+0x52>
    3699:	50                   	push   %eax
    369a:	68 4c 8e 00 00       	push   $0x8e4c
    369f:	eb e7                	jmp    3688 <main+0x128>
    36a1:	66 90                	xchg   %ax,%ax
    36a3:	66 90                	xchg   %ax,%ax
    36a5:	66 90                	xchg   %ax,%ax
    36a7:	66 90                	xchg   %ax,%ax
    36a9:	66 90                	xchg   %ax,%ax
    36ab:	66 90                	xchg   %ax,%ax
    36ad:	66 90                	xchg   %ax,%ax
    36af:	90                   	nop

000036b0 <label_open>:
    36b0:	55                   	push   %ebp
    36b1:	89 e5                	mov    %esp,%ebp
    36b3:	57                   	push   %edi
    36b4:	56                   	push   %esi
    36b5:	53                   	push   %ebx
    36b6:	83 ec 0c             	sub    $0xc,%esp
    36b9:	bf 24 b3 00 00       	mov    $0xb324,%edi
    36be:	a1 24 b3 00 00       	mov    0xb324,%eax
    36c3:	8b 75 08             	mov    0x8(%ebp),%esi
    36c6:	8b 5d 0c             	mov    0xc(%ebp),%ebx
    36c9:	85 c0                	test   %eax,%eax
    36cb:	75 0c                	jne    36d9 <label_open+0x29>
    36cd:	eb 21                	jmp    36f0 <label_open+0x40>
    36cf:	90                   	nop
    36d0:	83 c7 04             	add    $0x4,%edi
    36d3:	8b 07                	mov    (%edi),%eax
    36d5:	85 c0                	test   %eax,%eax
    36d7:	74 17                	je     36f0 <label_open+0x40>
    36d9:	52                   	push   %edx
    36da:	52                   	push   %edx
    36db:	53                   	push   %ebx
    36dc:	56                   	push   %esi
    36dd:	ff 10                	call   *(%eax)
    36df:	83 c4 10             	add    $0x10,%esp
    36e2:	85 c0                	test   %eax,%eax
    36e4:	75 ea                	jne    36d0 <label_open+0x20>
    36e6:	8d 65 f4             	lea    -0xc(%ebp),%esp
    36e9:	5b                   	pop    %ebx
    36ea:	5e                   	pop    %esi
    36eb:	5f                   	pop    %edi
    36ec:	5d                   	pop    %ebp
    36ed:	c3                   	ret    
    36ee:	66 90                	xchg   %ax,%ax
    36f0:	8d 65 f4             	lea    -0xc(%ebp),%esp
    36f3:	b8 f5 ff ff ff       	mov    $0xfffffff5,%eax
    36f8:	5b                   	pop    %ebx
    36f9:	5e                   	pop    %esi
    36fa:	5f                   	pop    %edi
    36fb:	5d                   	pop    %ebp
    36fc:	c3                   	ret    
    36fd:	8d 76 00             	lea    0x0(%esi),%esi

00003700 <label_create>:
    3700:	55                   	push   %ebp
    3701:	89 e5                	mov    %esp,%ebp
    3703:	8b 45 0c             	mov    0xc(%ebp),%eax
    3706:	8b 55 08             	mov    0x8(%ebp),%edx
    3709:	8b 4d 10             	mov    0x10(%ebp),%ecx
    370c:	83 f8 01             	cmp    $0x1,%eax
    370f:	74 2f                	je     3740 <label_create+0x40>
    3711:	72 25                	jb     3738 <label_create+0x38>
    3713:	83 f8 02             	cmp    $0x2,%eax
    3716:	75 18                	jne    3730 <label_create+0x30>
    3718:	b8 c0 b3 00 00       	mov    $0xb3c0,%eax
    371d:	89 4d 0c             	mov    %ecx,0xc(%ebp)
    3720:	89 55 08             	mov    %edx,0x8(%ebp)
    3723:	5d                   	pop    %ebp
    3724:	8b 40 04             	mov    0x4(%eax),%eax
    3727:	ff e0                	jmp    *%eax
    3729:	8d b4 26 00 00 00 00 	lea    0x0(%esi,%eiz,1),%esi
    3730:	b8 f5 ff ff ff       	mov    $0xfffffff5,%eax
    3735:	5d                   	pop    %ebp
    3736:	c3                   	ret    
    3737:	90                   	nop
    3738:	b8 f2 ff ff ff       	mov    $0xfffffff2,%eax
    373d:	5d                   	pop    %ebp
    373e:	c3                   	ret    
    373f:	90                   	nop
    3740:	b8 80 b3 00 00       	mov    $0xb380,%eax
    3745:	89 4d 0c             	mov    %ecx,0xc(%ebp)
    3748:	89 55 08             	mov    %edx,0x8(%ebp)
    374b:	5d                   	pop    %ebp
    374c:	8b 40 04             	mov    0x4(%eax),%eax
    374f:	ff e0                	jmp    *%eax
    3751:	eb 0d                	jmp    3760 <label_close>
    3753:	90                   	nop
    3754:	90                   	nop
    3755:	90                   	nop
    3756:	90                   	nop
    3757:	90                   	nop
    3758:	90                   	nop
    3759:	90                   	nop
    375a:	90                   	nop
    375b:	90                   	nop
    375c:	90                   	nop
    375d:	90                   	nop
    375e:	90                   	nop
    375f:	90                   	nop

00003760 <label_close>:
    3760:	55                   	push   %ebp
    3761:	89 e5                	mov    %esp,%ebp
    3763:	8b 45 08             	mov    0x8(%ebp),%eax
    3766:	85 c0                	test   %eax,%eax
    3768:	74 0e                	je     3778 <label_close+0x18>
    376a:	8b 10                	mov    (%eax),%edx
    376c:	5d                   	pop    %ebp
    376d:	8b 42 08             	mov    0x8(%edx),%eax
    3770:	ff e0                	jmp    *%eax
    3772:	8d b6 00 00 00 00    	lea    0x0(%esi),%esi
    3778:	5d                   	pop    %ebp
    3779:	c3                   	ret    
    377a:	8d b6 00 00 00 00    	lea    0x0(%esi),%esi

00003780 <label_destroy>:
    3780:	55                   	push   %ebp
    3781:	89 e5                	mov    %esp,%ebp
    3783:	8b 45 08             	mov    0x8(%ebp),%eax
    3786:	5d                   	pop    %ebp
    3787:	8b 10                	mov    (%eax),%edx
    3789:	8b 42 0c             	mov    0xc(%edx),%eax
    378c:	ff e0                	jmp    *%eax
    378e:	66 90                	xchg   %ax,%ax

00003790 <label_get_info>:
    3790:	55                   	push   %ebp
    3791:	89 e5                	mov    %esp,%ebp
    3793:	8b 45 08             	mov    0x8(%ebp),%eax
    3796:	5d                   	pop    %ebp
    3797:	8b 10                	mov    (%eax),%edx
    3799:	8b 42 10             	mov    0x10(%edx),%eax
    379c:	ff e0                	jmp    *%eax
    379e:	66 90                	xchg   %ax,%ax

000037a0 <label_part_first>:
    37a0:	55                   	push   %ebp
    37a1:	89 e5                	mov    %esp,%ebp
    37a3:	8b 45 08             	mov    0x8(%ebp),%eax
    37a6:	5d                   	pop    %ebp
    37a7:	8b 10                	mov    (%eax),%edx
    37a9:	8b 42 14             	mov    0x14(%edx),%eax
    37ac:	ff e0                	jmp    *%eax
    37ae:	66 90                	xchg   %ax,%ax

000037b0 <label_part_next>:
    37b0:	55                   	push   %ebp
    37b1:	89 e5                	mov    %esp,%ebp
    37b3:	8b 45 08             	mov    0x8(%ebp),%eax
    37b6:	5d                   	pop    %ebp
    37b7:	8b 10                	mov    (%eax),%edx
    37b9:	8b 12                	mov    (%edx),%edx
    37bb:	8b 42 18             	mov    0x18(%edx),%eax
    37be:	ff e0                	jmp    *%eax

000037c0 <label_part_get_info>:
    37c0:	55                   	push   %ebp
    37c1:	89 e5                	mov    %esp,%ebp
    37c3:	8b 45 08             	mov    0x8(%ebp),%eax
    37c6:	5d                   	pop    %ebp
    37c7:	8b 10                	mov    (%eax),%edx
    37c9:	8b 12                	mov    (%edx),%edx
    37cb:	8b 42 1c             	mov    0x1c(%edx),%eax
    37ce:	ff e0                	jmp    *%eax

000037d0 <label_part_create>:
    37d0:	55                   	push   %ebp
    37d1:	89 e5                	mov    %esp,%ebp
    37d3:	8b 45 08             	mov    0x8(%ebp),%eax
    37d6:	5d                   	pop    %ebp
    37d7:	8b 10                	mov    (%eax),%edx
    37d9:	8b 42 20             	mov    0x20(%edx),%eax
    37dc:	ff e0                	jmp    *%eax
    37de:	66 90                	xchg   %ax,%ax

000037e0 <label_part_destroy>:
    37e0:	55                   	push   %ebp
    37e1:	89 e5                	mov    %esp,%ebp
    37e3:	8b 45 08             	mov    0x8(%ebp),%eax
    37e6:	5d                   	pop    %ebp
    37e7:	8b 10                	mov    (%eax),%edx
    37e9:	8b 12                	mov    (%edx),%edx
    37eb:	8b 42 24             	mov    0x24(%edx),%eax
    37ee:	ff e0                	jmp    *%eax

000037f0 <label_pspec_init>:
    37f0:	55                   	push   %ebp
    37f1:	89 e5                	mov    %esp,%ebp
    37f3:	83 ec 0c             	sub    $0xc,%esp
    37f6:	8b 45 08             	mov    0x8(%ebp),%eax
    37f9:	6a 34                	push   $0x34
    37fb:	6a 00                	push   $0x0
    37fd:	50                   	push   %eax
    37fe:	e8 dd 5d 00 00       	call   95e0 <memset@plt>
    3803:	83 c4 10             	add    $0x10,%esp
    3806:	c9                   	leave  
    3807:	c3                   	ret    
    3808:	90                   	nop
    3809:	8d b4 26 00 00 00 00 	lea    0x0(%esi,%eiz,1),%esi

00003810 <label_suggest_ptype>:
    3810:	55                   	push   %ebp
    3811:	89 e5                	mov    %esp,%ebp
    3813:	8b 45 08             	mov    0x8(%ebp),%eax
    3816:	5d                   	pop    %ebp
    3817:	8b 10                	mov    (%eax),%edx
    3819:	8b 42 28             	mov    0x28(%edx),%eax
    381c:	ff e0                	jmp    *%eax
    381e:	66 90                	xchg   %ax,%ax

00003820 <dummy_create>:
    3820:	55                   	push   %ebp
    3821:	b8 f5 ff ff ff       	mov    $0xfffffff5,%eax
    3826:	89 e5                	mov    %esp,%ebp
    3828:	5d                   	pop    %ebp
    3829:	c3                   	ret    
    382a:	8d b6 00 00 00 00    	lea    0x0(%esi),%esi

00003830 <dummy_part_first>:
    3830:	55                   	push   %ebp
    3831:	89 e5                	mov    %esp,%ebp
    3833:	8b 55 08             	mov    0x8(%ebp),%edx
    3836:	8b 42 10             	mov    0x10(%edx),%eax
    3839:	85 c0                	test   %eax,%eax
    383b:	74 0c                	je     3849 <dummy_part_first+0x19>
    383d:	83 c2 0c             	add    $0xc,%edx
    3840:	39 d0                	cmp    %edx,%eax
    3842:	74 05                	je     3849 <dummy_part_first+0x19>
    3844:	83 e8 04             	sub    $0x4,%eax
    3847:	5d                   	pop    %ebp
    3848:	c3                   	ret    
    3849:	31 c0                	xor    %eax,%eax
    384b:	5d                   	pop    %ebp
    384c:	c3                   	ret    
    384d:	8d 76 00             	lea    0x0(%esi),%esi

00003850 <dummy_part_next>:
    3850:	55                   	push   %ebp
    3851:	89 e5                	mov    %esp,%ebp
    3853:	8b 55 08             	mov    0x8(%ebp),%edx
    3856:	8b 42 08             	mov    0x8(%edx),%eax
    3859:	8b 12                	mov    (%edx),%edx
    385b:	83 c2 0c             	add    $0xc,%edx
    385e:	39 d0                	cmp    %edx,%eax
    3860:	74 09                	je     386b <dummy_part_next+0x1b>
    3862:	85 c0                	test   %eax,%eax
    3864:	74 05                	je     386b <dummy_part_next+0x1b>
    3866:	83 e8 04             	sub    $0x4,%eax
    3869:	5d                   	pop    %ebp
    386a:	c3                   	ret    
    386b:	31 c0                	xor    %eax,%eax
    386d:	5d                   	pop    %ebp
    386e:	c3                   	ret    
    386f:	90                   	nop

00003870 <dummy_part_get_info>:
    3870:	55                   	push   %ebp
    3871:	89 e5                	mov    %esp,%ebp
    3873:	53                   	push   %ebx
    3874:	8b 5d 08             	mov    0x8(%ebp),%ebx
    3877:	8b 4d 0c             	mov    0xc(%ebp),%ecx
    387a:	8b 43 1c             	mov    0x1c(%ebx),%eax
    387d:	8b 53 2c             	mov    0x2c(%ebx),%edx
    3880:	89 01                	mov    %eax,(%ecx)
    3882:	8b 43 28             	mov    0x28(%ebx),%eax
    3885:	89 41 08             	mov    %eax,0x8(%ecx)
    3888:	89 51 0c             	mov    %edx,0xc(%ecx)
    388b:	8b 43 30             	mov    0x30(%ebx),%eax
    388e:	8b 53 34             	mov    0x34(%ebx),%edx
    3891:	c7 41 04 00 00 00 00 	movl   $0x0,0x4(%ecx)
    3898:	89 41 10             	mov    %eax,0x10(%ecx)
    389b:	89 51 14             	mov    %edx,0x14(%ecx)
    389e:	5b                   	pop    %ebx
    389f:	5d                   	pop    %ebp
    38a0:	c3                   	ret    
    38a1:	eb 0d                	jmp    38b0 <dummy_part_create>
    38a3:	90                   	nop
    38a4:	90                   	nop
    38a5:	90                   	nop
    38a6:	90                   	nop
    38a7:	90                   	nop
    38a8:	90                   	nop
    38a9:	90                   	nop
    38aa:	90                   	nop
    38ab:	90                   	nop
    38ac:	90                   	nop
    38ad:	90                   	nop
    38ae:	90                   	nop
    38af:	90                   	nop

000038b0 <dummy_part_create>:
    38b0:	55                   	push   %ebp
    38b1:	b8 f5 ff ff ff       	mov    $0xfffffff5,%eax
    38b6:	89 e5                	mov    %esp,%ebp
    38b8:	5d                   	pop    %ebp
    38b9:	c3                   	ret    
    38ba:	8d b6 00 00 00 00    	lea    0x0(%esi),%esi

000038c0 <dummy_part_destroy>:
    38c0:	55                   	push   %ebp
    38c1:	b8 f5 ff ff ff       	mov    $0xfffffff5,%eax
    38c6:	89 e5                	mov    %esp,%ebp
    38c8:	5d                   	pop    %ebp
    38c9:	c3                   	ret    
    38ca:	8d b6 00 00 00 00    	lea    0x0(%esi),%esi

000038d0 <dummy_suggest_ptype>:
    38d0:	55                   	push   %ebp
    38d1:	b8 f5 ff ff ff       	mov    $0xfffffff5,%eax
    38d6:	89 e5                	mov    %esp,%ebp
    38d8:	5d                   	pop    %ebp
    38d9:	c3                   	ret    
    38da:	8d b6 00 00 00 00    	lea    0x0(%esi),%esi

000038e0 <dummy_get_info>:
    38e0:	55                   	push   %ebp
    38e1:	89 e5                	mov    %esp,%ebp
    38e3:	56                   	push   %esi
    38e4:	53                   	push   %ebx
    38e5:	50                   	push   %eax
    38e6:	8b 75 08             	mov    0x8(%ebp),%esi
    38e9:	8b 5d 0c             	mov    0xc(%ebp),%ebx
    38ec:	6a 18                	push   $0x18
    38ee:	6a 00                	push   $0x0
    38f0:	53                   	push   %ebx
    38f1:	e8 ea 5c 00 00       	call   95e0 <memset@plt>
    38f6:	8b 46 24             	mov    0x24(%esi),%eax
    38f9:	8b 56 28             	mov    0x28(%esi),%edx
    38fc:	89 53 0c             	mov    %edx,0xc(%ebx)
    38ff:	89 43 08             	mov    %eax,0x8(%ebx)
    3902:	8b 56 30             	mov    0x30(%esi),%edx
    3905:	8b 46 2c             	mov    0x2c(%esi),%eax
    3908:	89 43 10             	mov    %eax,0x10(%ebx)
    390b:	c7 03 00 00 00 00    	movl   $0x0,(%ebx)
    3911:	c7 43 04 00 00 00 00 	movl   $0x0,0x4(%ebx)
    3918:	89 53 14             	mov    %edx,0x14(%ebx)
    391b:	8d 65 f8             	lea    -0x8(%ebp),%esp
    391e:	31 c0                	xor    %eax,%eax
    3920:	5b                   	pop    %ebx
    3921:	5e                   	pop    %esi
    3922:	5d                   	pop    %ebp
    3923:	c3                   	ret    
    3924:	8d b6 00 00 00 00    	lea    0x0(%esi),%esi
    392a:	8d bf 00 00 00 00    	lea    0x0(%edi),%edi

00003930 <dummy_close>:
    3930:	55                   	push   %ebp
    3931:	89 e5                	mov    %esp,%ebp
    3933:	56                   	push   %esi
    3934:	53                   	push   %ebx
    3935:	8b 5d 08             	mov    0x8(%ebp),%ebx
    3938:	8b 43 10             	mov    0x10(%ebx),%eax
    393b:	8d 73 0c             	lea    0xc(%ebx),%esi
    393e:	39 c6                	cmp    %eax,%esi
    3940:	75 66                	jne    39a8 <dummy_close+0x78>
    3942:	eb 68                	jmp    39ac <dummy_close+0x7c>
    3944:	8d 74 26 00          	lea    0x0(%esi,%eiz,1),%esi
    3948:	83 e8 04             	sub    $0x4,%eax
    394b:	74 5f                	je     39ac <dummy_close+0x7c>
    394d:	8b 48 04             	mov    0x4(%eax),%ecx
    3950:	85 c9                	test   %ecx,%ecx
    3952:	74 0f                	je     3963 <dummy_close+0x33>
    3954:	8b 50 08             	mov    0x8(%eax),%edx
    3957:	85 d2                	test   %edx,%edx
    3959:	74 08                	je     3963 <dummy_close+0x33>
    395b:	89 0a                	mov    %ecx,(%edx)
    395d:	8b 48 04             	mov    0x4(%eax),%ecx
    3960:	89 51 04             	mov    %edx,0x4(%ecx)
    3963:	8b 48 0c             	mov    0xc(%eax),%ecx
    3966:	c7 40 04 00 00 00 00 	movl   $0x0,0x4(%eax)
    396d:	c7 40 08 00 00 00 00 	movl   $0x0,0x8(%eax)
    3974:	85 c9                	test   %ecx,%ecx
    3976:	74 0f                	je     3987 <dummy_close+0x57>
    3978:	8b 50 10             	mov    0x10(%eax),%edx
    397b:	85 d2                	test   %edx,%edx
    397d:	74 08                	je     3987 <dummy_close+0x57>
    397f:	89 0a                	mov    %ecx,(%edx)
    3981:	8b 48 0c             	mov    0xc(%eax),%ecx
    3984:	89 51 04             	mov    %edx,0x4(%ecx)
    3987:	83 ec 0c             	sub    $0xc,%esp
    398a:	c7 40 0c 00 00 00 00 	movl   $0x0,0xc(%eax)
    3991:	c7 40 10 00 00 00 00 	movl   $0x0,0x10(%eax)
    3998:	50                   	push   %eax
    3999:	e8 92 5d 00 00       	call   9730 <free@plt>
    399e:	8b 43 10             	mov    0x10(%ebx),%eax
    39a1:	83 c4 10             	add    $0x10,%esp
    39a4:	39 c6                	cmp    %eax,%esi
    39a6:	74 04                	je     39ac <dummy_close+0x7c>
    39a8:	85 c0                	test   %eax,%eax
    39aa:	75 9c                	jne    3948 <dummy_close+0x18>
    39ac:	89 5d 08             	mov    %ebx,0x8(%ebp)
    39af:	8d 65 f8             	lea    -0x8(%ebp),%esp
    39b2:	5b                   	pop    %ebx
    39b3:	5e                   	pop    %esi
    39b4:	5d                   	pop    %ebp
    39b5:	e9 76 5d 00 00       	jmp    9730 <free@plt>
    39ba:	8d b6 00 00 00 00    	lea    0x0(%esi),%esi

000039c0 <dummy_open>:
    39c0:	55                   	push   %ebp
    39c1:	89 e5                	mov    %esp,%ebp
    39c3:	57                   	push   %edi
    39c4:	56                   	push   %esi
    39c5:	53                   	push   %ebx
    39c6:	83 ec 34             	sub    $0x34,%esp
    39c9:	8d 45 dc             	lea    -0x24(%ebp),%eax
    39cc:	8b 75 08             	mov    0x8(%ebp),%esi
    39cf:	50                   	push   %eax
    39d0:	56                   	push   %esi
    39d1:	e8 9a 46 00 00       	call   8070 <block_get_bsize>
    39d6:	83 c4 10             	add    $0x10,%esp
    39d9:	85 c0                	test   %eax,%eax
    39db:	0f 85 0f 01 00 00    	jne    3af0 <dummy_open+0x130>
    39e1:	8d 45 e0             	lea    -0x20(%ebp),%eax
    39e4:	51                   	push   %ecx
    39e5:	51                   	push   %ecx
    39e6:	50                   	push   %eax
    39e7:	56                   	push   %esi
    39e8:	e8 13 47 00 00       	call   8100 <block_get_nblocks>
    39ed:	83 c4 10             	add    $0x10,%esp
    39f0:	89 45 d4             	mov    %eax,-0x2c(%ebp)
    39f3:	85 c0                	test   %eax,%eax
    39f5:	0f 85 f5 00 00 00    	jne    3af0 <dummy_open+0x130>
    39fb:	52                   	push   %edx
    39fc:	52                   	push   %edx
    39fd:	6a 74                	push   $0x74
    39ff:	6a 01                	push   $0x1
    3a01:	e8 0a 5b 00 00       	call   9510 <calloc@plt>
    3a06:	83 c4 10             	add    $0x10,%esp
    3a09:	89 c3                	mov    %eax,%ebx
    3a0b:	85 c0                	test   %eax,%eax
    3a0d:	0f 84 0d 01 00 00    	je     3b20 <dummy_open+0x160>
    3a13:	8d 48 14             	lea    0x14(%eax),%ecx
    3a16:	8d 78 0c             	lea    0xc(%eax),%edi
    3a19:	89 78 0c             	mov    %edi,0xc(%eax)
    3a1c:	89 78 10             	mov    %edi,0x10(%eax)
    3a1f:	89 48 14             	mov    %ecx,0x14(%eax)
    3a22:	89 48 18             	mov    %ecx,0x18(%eax)
    3a25:	8d 40 1c             	lea    0x1c(%eax),%eax
    3a28:	8b 55 e4             	mov    -0x1c(%ebp),%edx
    3a2b:	89 43 1c             	mov    %eax,0x1c(%ebx)
    3a2e:	89 43 20             	mov    %eax,0x20(%ebx)
    3a31:	8b 45 e0             	mov    -0x20(%ebp),%eax
    3a34:	89 55 cc             	mov    %edx,-0x34(%ebp)
    3a37:	89 45 c8             	mov    %eax,-0x38(%ebp)
    3a3a:	83 c0 01             	add    $0x1,%eax
    3a3d:	83 d2 00             	adc    $0x0,%edx
    3a40:	89 43 2c             	mov    %eax,0x2c(%ebx)
    3a43:	8b 45 dc             	mov    -0x24(%ebp),%eax
    3a46:	89 4d d0             	mov    %ecx,-0x30(%ebp)
    3a49:	89 43 3c             	mov    %eax,0x3c(%ebx)
    3a4c:	c7 03 40 b3 00 00    	movl   $0xb340,(%ebx)
    3a52:	c7 43 04 00 00 00 00 	movl   $0x0,0x4(%ebx)
    3a59:	50                   	push   %eax
    3a5a:	89 73 08             	mov    %esi,0x8(%ebx)
    3a5d:	50                   	push   %eax
    3a5e:	c7 43 24 00 00 00 00 	movl   $0x0,0x24(%ebx)
    3a65:	6a 5c                	push   $0x5c
    3a67:	c7 43 28 00 00 00 00 	movl   $0x0,0x28(%ebx)
    3a6e:	6a 01                	push   $0x1
    3a70:	89 53 30             	mov    %edx,0x30(%ebx)
    3a73:	c7 43 34 00 00 00 00 	movl   $0x0,0x34(%ebx)
    3a7a:	e8 91 5a 00 00       	call   9510 <calloc@plt>
    3a7f:	83 c4 10             	add    $0x10,%esp
    3a82:	85 c0                	test   %eax,%eax
    3a84:	0f 84 96 00 00 00    	je     3b20 <dummy_open+0x160>
    3a8a:	8b 73 0c             	mov    0xc(%ebx),%esi
    3a8d:	8b 55 c8             	mov    -0x38(%ebp),%edx
    3a90:	8b 4d cc             	mov    -0x34(%ebp),%ecx
    3a93:	89 50 30             	mov    %edx,0x30(%eax)
    3a96:	89 48 34             	mov    %ecx,0x34(%eax)
    3a99:	8d 50 04             	lea    0x4(%eax),%edx
    3a9c:	8b 4d d0             	mov    -0x30(%ebp),%ecx
    3a9f:	89 18                	mov    %ebx,(%eax)
    3aa1:	c7 40 1c 00 00 00 00 	movl   $0x0,0x1c(%eax)
    3aa8:	c7 40 28 00 00 00 00 	movl   $0x0,0x28(%eax)
    3aaf:	c7 40 2c 00 00 00 00 	movl   $0x0,0x2c(%eax)
    3ab6:	c7 40 38 00 00 00 00 	movl   $0x0,0x38(%eax)
    3abd:	89 78 08             	mov    %edi,0x8(%eax)
    3ac0:	89 70 04             	mov    %esi,0x4(%eax)
    3ac3:	89 56 04             	mov    %edx,0x4(%esi)
    3ac6:	89 48 10             	mov    %ecx,0x10(%eax)
    3ac9:	8b 4b 14             	mov    0x14(%ebx),%ecx
    3acc:	89 53 0c             	mov    %edx,0xc(%ebx)
    3acf:	89 48 0c             	mov    %ecx,0xc(%eax)
    3ad2:	8d 50 0c             	lea    0xc(%eax),%edx
    3ad5:	8b 45 0c             	mov    0xc(%ebp),%eax
    3ad8:	89 51 04             	mov    %edx,0x4(%ecx)
    3adb:	89 53 14             	mov    %edx,0x14(%ebx)
    3ade:	89 18                	mov    %ebx,(%eax)
    3ae0:	8b 45 d4             	mov    -0x2c(%ebp),%eax
    3ae3:	8d 65 f4             	lea    -0xc(%ebp),%esp
    3ae6:	5b                   	pop    %ebx
    3ae7:	5e                   	pop    %esi
    3ae8:	5f                   	pop    %edi
    3ae9:	5d                   	pop    %ebp
    3aea:	c3                   	ret    
    3aeb:	90                   	nop
    3aec:	8d 74 26 00          	lea    0x0(%esi,%eiz,1),%esi
    3af0:	83 ec 0c             	sub    $0xc,%esp
    3af3:	6a 00                	push   $0x0
    3af5:	e8 36 5c 00 00       	call   9730 <free@plt>
    3afa:	c7 04 24 00 00 00 00 	movl   $0x0,(%esp)
    3b01:	e8 2a 5c 00 00       	call   9730 <free@plt>
    3b06:	c7 45 d4 f6 fe ff ff 	movl   $0xfffffef6,-0x2c(%ebp)
    3b0d:	83 c4 10             	add    $0x10,%esp
    3b10:	8b 45 d4             	mov    -0x2c(%ebp),%eax
    3b13:	8d 65 f4             	lea    -0xc(%ebp),%esp
    3b16:	5b                   	pop    %ebx
    3b17:	5e                   	pop    %esi
    3b18:	5f                   	pop    %edi
    3b19:	5d                   	pop    %ebp
    3b1a:	c3                   	ret    
    3b1b:	90                   	nop
    3b1c:	8d 74 26 00          	lea    0x0(%esi,%eiz,1),%esi
    3b20:	c7 45 d4 fe ff ff ff 	movl   $0xfffffffe,-0x2c(%ebp)
    3b27:	eb b7                	jmp    3ae0 <dummy_open+0x120>
    3b29:	8d b4 26 00 00 00 00 	lea    0x0(%esi,%eiz,1),%esi

00003b30 <dummy_destroy>:
    3b30:	55                   	push   %ebp
    3b31:	b8 f5 ff ff ff       	mov    $0xfffffff5,%eax
    3b36:	89 e5                	mov    %esp,%ebp
    3b38:	5d                   	pop    %ebp
    3b39:	c3                   	ret    
    3b3a:	66 90                	xchg   %ax,%ax
    3b3c:	66 90                	xchg   %ax,%ax
    3b3e:	66 90                	xchg   %ax,%ax

00003b40 <mbr_part_first>:
    3b40:	55                   	push   %ebp
    3b41:	89 e5                	mov    %esp,%ebp
    3b43:	8b 55 08             	mov    0x8(%ebp),%edx
    3b46:	8b 42 10             	mov    0x10(%edx),%eax
    3b49:	85 c0                	test   %eax,%eax
    3b4b:	74 0c                	je     3b59 <mbr_part_first+0x19>
    3b4d:	83 c2 0c             	add    $0xc,%edx
    3b50:	39 d0                	cmp    %edx,%eax
    3b52:	74 05                	je     3b59 <mbr_part_first+0x19>
    3b54:	83 e8 04             	sub    $0x4,%eax
    3b57:	5d                   	pop    %ebp
    3b58:	c3                   	ret    
    3b59:	31 c0                	xor    %eax,%eax
    3b5b:	5d                   	pop    %ebp
    3b5c:	c3                   	ret    
    3b5d:	8d 76 00             	lea    0x0(%esi),%esi

00003b60 <mbr_part_next>:
    3b60:	55                   	push   %ebp
    3b61:	89 e5                	mov    %esp,%ebp
    3b63:	8b 55 08             	mov    0x8(%ebp),%edx
    3b66:	8b 42 08             	mov    0x8(%edx),%eax
    3b69:	8b 12                	mov    (%edx),%edx
    3b6b:	83 c2 0c             	add    $0xc,%edx
    3b6e:	39 d0                	cmp    %edx,%eax
    3b70:	74 09                	je     3b7b <mbr_part_next+0x1b>
    3b72:	85 c0                	test   %eax,%eax
    3b74:	74 05                	je     3b7b <mbr_part_next+0x1b>
    3b76:	83 e8 04             	sub    $0x4,%eax
    3b79:	5d                   	pop    %ebp
    3b7a:	c3                   	ret    
    3b7b:	31 c0                	xor    %eax,%eax
    3b7d:	5d                   	pop    %ebp
    3b7e:	c3                   	ret    
    3b7f:	90                   	nop

00003b80 <mbr_suggest_ptype>:
    3b80:	55                   	push   %ebp
    3b81:	89 e5                	mov    %esp,%ebp
    3b83:	8b 45 10             	mov    0x10(%ebp),%eax
    3b86:	8b 55 0c             	mov    0xc(%ebp),%edx
    3b89:	83 fa 04             	cmp    $0x4,%edx
    3b8c:	c7 00 00 00 00 00    	movl   $0x0,(%eax)
    3b92:	77 34                	ja     3bc8 <mbr_suggest_ptype+0x48>
    3b94:	ff 24 95 70 8e 00 00 	jmp    *0x8e70(,%edx,4)
    3b9b:	90                   	nop
    3b9c:	8d 74 26 00          	lea    0x0(%esi,%eiz,1),%esi
    3ba0:	c6 40 04 0c          	movb   $0xc,0x4(%eax)
    3ba4:	31 c0                	xor    %eax,%eax
    3ba6:	5d                   	pop    %ebp
    3ba7:	c3                   	ret    
    3ba8:	c6 40 04 81          	movb   $0x81,0x4(%eax)
    3bac:	31 c0                	xor    %eax,%eax
    3bae:	eb f6                	jmp    3ba6 <mbr_suggest_ptype+0x26>
    3bb0:	c6 40 04 07          	movb   $0x7,0x4(%eax)
    3bb4:	31 c0                	xor    %eax,%eax
    3bb6:	eb ee                	jmp    3ba6 <mbr_suggest_ptype+0x26>
    3bb8:	c6 40 04 83          	movb   $0x83,0x4(%eax)
    3bbc:	31 c0                	xor    %eax,%eax
    3bbe:	eb e6                	jmp    3ba6 <mbr_suggest_ptype+0x26>
    3bc0:	c6 40 04 0e          	movb   $0xe,0x4(%eax)
    3bc4:	31 c0                	xor    %eax,%eax
    3bc6:	eb de                	jmp    3ba6 <mbr_suggest_ptype+0x26>
    3bc8:	c6 40 04 00          	movb   $0x0,0x4(%eax)
    3bcc:	b8 f2 ff ff ff       	mov    $0xfffffff2,%eax
    3bd1:	5d                   	pop    %ebp
    3bd2:	c3                   	ret    
    3bd3:	8d b6 00 00 00 00    	lea    0x0(%esi),%esi
    3bd9:	8d bc 27 00 00 00 00 	lea    0x0(%edi,%eiz,1),%edi

00003be0 <mbr_destroy>:
    3be0:	55                   	push   %ebp
    3be1:	89 e5                	mov    %esp,%ebp
    3be3:	57                   	push   %edi
    3be4:	56                   	push   %esi
    3be5:	53                   	push   %ebx
    3be6:	83 ec 0c             	sub    $0xc,%esp
    3be9:	8b 5d 08             	mov    0x8(%ebp),%ebx
    3bec:	8b 43 10             	mov    0x10(%ebx),%eax
    3bef:	8d 53 0c             	lea    0xc(%ebx),%edx
    3bf2:	39 d0                	cmp    %edx,%eax
    3bf4:	74 2a                	je     3c20 <mbr_destroy+0x40>
    3bf6:	85 c0                	test   %eax,%eax
    3bf8:	74 26                	je     3c20 <mbr_destroy+0x40>
    3bfa:	83 f8 04             	cmp    $0x4,%eax
    3bfd:	74 21                	je     3c20 <mbr_destroy+0x40>
    3bff:	bf fb fe ff ff       	mov    $0xfffffefb,%edi
    3c04:	31 f6                	xor    %esi,%esi
    3c06:	83 ec 0c             	sub    $0xc,%esp
    3c09:	56                   	push   %esi
    3c0a:	e8 21 5b 00 00       	call   9730 <free@plt>
    3c0f:	83 c4 10             	add    $0x10,%esp
    3c12:	8d 65 f4             	lea    -0xc(%ebp),%esp
    3c15:	89 f8                	mov    %edi,%eax
    3c17:	5b                   	pop    %ebx
    3c18:	5e                   	pop    %esi
    3c19:	5f                   	pop    %edi
    3c1a:	5d                   	pop    %ebp
    3c1b:	c3                   	ret    
    3c1c:	8d 74 26 00          	lea    0x0(%esi,%eiz,1),%esi
    3c20:	52                   	push   %edx
    3c21:	52                   	push   %edx
    3c22:	8b 4b 3c             	mov    0x3c(%ebx),%ecx
    3c25:	51                   	push   %ecx
    3c26:	6a 01                	push   $0x1
    3c28:	e8 e3 58 00 00       	call   9510 <calloc@plt>
    3c2d:	83 c4 10             	add    $0x10,%esp
    3c30:	89 c6                	mov    %eax,%esi
    3c32:	85 c0                	test   %eax,%eax
    3c34:	74 2a                	je     3c60 <mbr_destroy+0x80>
    3c36:	83 ec 0c             	sub    $0xc,%esp
    3c39:	50                   	push   %eax
    3c3a:	6a 01                	push   $0x1
    3c3c:	8b 43 08             	mov    0x8(%ebx),%eax
    3c3f:	6a 00                	push   $0x0
    3c41:	6a 00                	push   $0x0
    3c43:	50                   	push   %eax
    3c44:	e8 97 42 00 00       	call   7ee0 <block_write_direct>
    3c49:	83 c4 20             	add    $0x20,%esp
    3c4c:	89 c7                	mov    %eax,%edi
    3c4e:	85 c0                	test   %eax,%eax
    3c50:	74 16                	je     3c68 <mbr_destroy+0x88>
    3c52:	bf f6 fe ff ff       	mov    $0xfffffef6,%edi
    3c57:	eb ad                	jmp    3c06 <mbr_destroy+0x26>
    3c59:	8d b4 26 00 00 00 00 	lea    0x0(%esi,%eiz,1),%esi
    3c60:	bf fe ff ff ff       	mov    $0xfffffffe,%edi
    3c65:	eb 9f                	jmp    3c06 <mbr_destroy+0x26>
    3c67:	90                   	nop
    3c68:	83 ec 0c             	sub    $0xc,%esp
    3c6b:	56                   	push   %esi
    3c6c:	e8 bf 5a 00 00       	call   9730 <free@plt>
    3c71:	89 1c 24             	mov    %ebx,(%esp)
    3c74:	e8 b7 5a 00 00       	call   9730 <free@plt>
    3c79:	83 c4 10             	add    $0x10,%esp
    3c7c:	eb 94                	jmp    3c12 <mbr_destroy+0x32>
    3c7e:	66 90                	xchg   %ax,%ax

00003c80 <mbr_get_info>:
    3c80:	55                   	push   %ebp
    3c81:	89 e5                	mov    %esp,%ebp
    3c83:	56                   	push   %esi
    3c84:	53                   	push   %ebx
    3c85:	50                   	push   %eax
    3c86:	8b 5d 0c             	mov    0xc(%ebp),%ebx
    3c89:	8b 75 08             	mov    0x8(%ebp),%esi
    3c8c:	6a 18                	push   $0x18
    3c8e:	6a 00                	push   $0x0
    3c90:	53                   	push   %ebx
    3c91:	e8 4a 59 00 00       	call   95e0 <memset@plt>
    3c96:	c7 03 01 00 00 00    	movl   $0x1,(%ebx)
    3c9c:	c7 43 04 01 00 00 00 	movl   $0x1,0x4(%ebx)
    3ca3:	8d 46 14             	lea    0x14(%esi),%eax
    3ca6:	89 04 24             	mov    %eax,(%esp)
    3ca9:	e8 b2 59 00 00       	call   9660 <list_count@plt>
    3cae:	83 c4 10             	add    $0x10,%esp
    3cb1:	83 f8 03             	cmp    $0x3,%eax
    3cb4:	8b 43 04             	mov    0x4(%ebx),%eax
    3cb7:	77 06                	ja     3cbf <mbr_get_info+0x3f>
    3cb9:	83 c8 04             	or     $0x4,%eax
    3cbc:	89 43 04             	mov    %eax,0x4(%ebx)
    3cbf:	a8 04                	test   $0x4,%al
    3cc1:	74 45                	je     3d08 <mbr_get_info+0x88>
    3cc3:	8b 4e 38             	mov    0x38(%esi),%ecx
    3cc6:	85 c9                	test   %ecx,%ecx
    3cc8:	74 4e                	je     3d18 <mbr_get_info+0x98>
    3cca:	83 c8 10             	or     $0x10,%eax
    3ccd:	89 43 04             	mov    %eax,0x4(%ebx)
    3cd0:	83 ec 0c             	sub    $0xc,%esp
    3cd3:	8d 46 0c             	lea    0xc(%esi),%eax
    3cd6:	50                   	push   %eax
    3cd7:	e8 84 59 00 00       	call   9660 <list_count@plt>
    3cdc:	83 c4 10             	add    $0x10,%esp
    3cdf:	85 c0                	test   %eax,%eax
    3ce1:	74 04                	je     3ce7 <mbr_get_info+0x67>
    3ce3:	83 4b 04 20          	orl    $0x20,0x4(%ebx)
    3ce7:	8b 46 24             	mov    0x24(%esi),%eax
    3cea:	8b 56 28             	mov    0x28(%esi),%edx
    3ced:	89 53 0c             	mov    %edx,0xc(%ebx)
    3cf0:	89 43 08             	mov    %eax,0x8(%ebx)
    3cf3:	8b 56 30             	mov    0x30(%esi),%edx
    3cf6:	8b 46 2c             	mov    0x2c(%esi),%eax
    3cf9:	89 43 10             	mov    %eax,0x10(%ebx)
    3cfc:	89 53 14             	mov    %edx,0x14(%ebx)
    3cff:	8d 65 f8             	lea    -0x8(%ebp),%esp
    3d02:	31 c0                	xor    %eax,%eax
    3d04:	5b                   	pop    %ebx
    3d05:	5e                   	pop    %esi
    3d06:	5d                   	pop    %ebp
    3d07:	c3                   	ret    
    3d08:	8b 56 38             	mov    0x38(%esi),%edx
    3d0b:	85 d2                	test   %edx,%edx
    3d0d:	75 bb                	jne    3cca <mbr_get_info+0x4a>
    3d0f:	eb bf                	jmp    3cd0 <mbr_get_info+0x50>
    3d11:	8d b4 26 00 00 00 00 	lea    0x0(%esi,%eiz,1),%esi
    3d18:	83 c8 08             	or     $0x8,%eax
    3d1b:	89 43 04             	mov    %eax,0x4(%ebx)
    3d1e:	eb b0                	jmp    3cd0 <mbr_get_info+0x50>

00003d20 <mbr_create>:
    3d20:	55                   	push   %ebp
    3d21:	89 e5                	mov    %esp,%ebp
    3d23:	57                   	push   %edi
    3d24:	56                   	push   %esi
    3d25:	53                   	push   %ebx
    3d26:	83 ec 34             	sub    $0x34,%esp
    3d29:	8d 45 dc             	lea    -0x24(%ebp),%eax
    3d2c:	50                   	push   %eax
    3d2d:	8b 45 08             	mov    0x8(%ebp),%eax
    3d30:	50                   	push   %eax
    3d31:	e8 3a 43 00 00       	call   8070 <block_get_bsize>
    3d36:	83 c4 10             	add    $0x10,%esp
    3d39:	85 c0                	test   %eax,%eax
    3d3b:	75 16                	jne    3d53 <mbr_create+0x33>
    3d3d:	8d 45 e0             	lea    -0x20(%ebp),%eax
    3d40:	57                   	push   %edi
    3d41:	57                   	push   %edi
    3d42:	50                   	push   %eax
    3d43:	8b 45 08             	mov    0x8(%ebp),%eax
    3d46:	50                   	push   %eax
    3d47:	e8 b4 43 00 00       	call   8100 <block_get_nblocks>
    3d4c:	83 c4 10             	add    $0x10,%esp
    3d4f:	85 c0                	test   %eax,%eax
    3d51:	74 2d                	je     3d80 <mbr_create+0x60>
    3d53:	bf f6 fe ff ff       	mov    $0xfffffef6,%edi
    3d58:	31 f6                	xor    %esi,%esi
    3d5a:	31 db                	xor    %ebx,%ebx
    3d5c:	83 ec 0c             	sub    $0xc,%esp
    3d5f:	56                   	push   %esi
    3d60:	e8 cb 59 00 00       	call   9730 <free@plt>
    3d65:	89 1c 24             	mov    %ebx,(%esp)
    3d68:	e8 c3 59 00 00       	call   9730 <free@plt>
    3d6d:	83 c4 10             	add    $0x10,%esp
    3d70:	8d 65 f4             	lea    -0xc(%ebp),%esp
    3d73:	89 f8                	mov    %edi,%eax
    3d75:	5b                   	pop    %ebx
    3d76:	5e                   	pop    %esi
    3d77:	5f                   	pop    %edi
    3d78:	5d                   	pop    %ebp
    3d79:	c3                   	ret    
    3d7a:	8d b6 00 00 00 00    	lea    0x0(%esi),%esi
    3d80:	8b 75 dc             	mov    -0x24(%ebp),%esi
    3d83:	53                   	push   %ebx
    3d84:	53                   	push   %ebx
    3d85:	56                   	push   %esi
    3d86:	6a 01                	push   $0x1
    3d88:	e8 83 57 00 00       	call   9510 <calloc@plt>
    3d8d:	83 c4 10             	add    $0x10,%esp
    3d90:	89 c6                	mov    %eax,%esi
    3d92:	85 c0                	test   %eax,%eax
    3d94:	0f 84 9e 00 00 00    	je     3e38 <mbr_create+0x118>
    3d9a:	51                   	push   %ecx
    3d9b:	51                   	push   %ecx
    3d9c:	6a 74                	push   $0x74
    3d9e:	6a 01                	push   $0x1
    3da0:	e8 6b 57 00 00       	call   9510 <calloc@plt>
    3da5:	83 c4 10             	add    $0x10,%esp
    3da8:	89 c3                	mov    %eax,%ebx
    3daa:	85 c0                	test   %eax,%eax
    3dac:	0f 84 f3 00 00 00    	je     3ea5 <mbr_create+0x185>
    3db2:	8d 40 0c             	lea    0xc(%eax),%eax
    3db5:	c7 86 b8 01 00 00 00 	movl   $0x0,0x1b8(%esi)
    3dbc:	00 00 00 
    3dbf:	89 43 0c             	mov    %eax,0xc(%ebx)
    3dc2:	89 43 10             	mov    %eax,0x10(%ebx)
    3dc5:	8d 43 14             	lea    0x14(%ebx),%eax
    3dc8:	66 c7 86 bc 01 00 00 	movw   $0x0,0x1bc(%esi)
    3dcf:	00 00 
    3dd1:	89 43 14             	mov    %eax,0x14(%ebx)
    3dd4:	89 43 18             	mov    %eax,0x18(%ebx)
    3dd7:	8d 43 1c             	lea    0x1c(%ebx),%eax
    3dda:	8d be be 01 00 00    	lea    0x1be(%esi),%edi
    3de0:	89 43 1c             	mov    %eax,0x1c(%ebx)
    3de3:	89 43 20             	mov    %eax,0x20(%ebx)
    3de6:	8d 86 fe 01 00 00    	lea    0x1fe(%esi),%eax
    3dec:	89 45 d4             	mov    %eax,-0x2c(%ebp)
    3def:	52                   	push   %edx
    3df0:	6a 10                	push   $0x10
    3df2:	6a 00                	push   $0x0
    3df4:	57                   	push   %edi
    3df5:	83 c7 10             	add    $0x10,%edi
    3df8:	e8 e3 57 00 00       	call   95e0 <memset@plt>
    3dfd:	83 c4 10             	add    $0x10,%esp
    3e00:	39 7d d4             	cmp    %edi,-0x2c(%ebp)
    3e03:	75 ea                	jne    3def <mbr_create+0xcf>
    3e05:	83 ec 0c             	sub    $0xc,%esp
    3e08:	66 c7 86 fe 01 00 00 	movw   $0xaa55,0x1fe(%esi)
    3e0f:	55 aa 
    3e11:	8b 45 08             	mov    0x8(%ebp),%eax
    3e14:	56                   	push   %esi
    3e15:	6a 01                	push   $0x1
    3e17:	6a 00                	push   $0x0
    3e19:	6a 00                	push   $0x0
    3e1b:	50                   	push   %eax
    3e1c:	e8 bf 40 00 00       	call   7ee0 <block_write_direct>
    3e21:	83 c4 20             	add    $0x20,%esp
    3e24:	89 c7                	mov    %eax,%edi
    3e26:	85 c0                	test   %eax,%eax
    3e28:	74 1e                	je     3e48 <mbr_create+0x128>
    3e2a:	bf f6 fe ff ff       	mov    $0xfffffef6,%edi
    3e2f:	e9 28 ff ff ff       	jmp    3d5c <mbr_create+0x3c>
    3e34:	8d 74 26 00          	lea    0x0(%esi,%eiz,1),%esi
    3e38:	bf fe ff ff ff       	mov    $0xfffffffe,%edi
    3e3d:	31 db                	xor    %ebx,%ebx
    3e3f:	e9 18 ff ff ff       	jmp    3d5c <mbr_create+0x3c>
    3e44:	8d 74 26 00          	lea    0x0(%esi,%eiz,1),%esi
    3e48:	83 ec 0c             	sub    $0xc,%esp
    3e4b:	56                   	push   %esi
    3e4c:	e8 df 58 00 00       	call   9730 <free@plt>
    3e51:	8b 45 dc             	mov    -0x24(%ebp),%eax
    3e54:	8b 55 e4             	mov    -0x1c(%ebp),%edx
    3e57:	89 43 3c             	mov    %eax,0x3c(%ebx)
    3e5a:	8b 45 08             	mov    0x8(%ebp),%eax
    3e5d:	89 43 08             	mov    %eax,0x8(%ebx)
    3e60:	8b 45 e0             	mov    -0x20(%ebp),%eax
    3e63:	83 c0 ee             	add    $0xffffffee,%eax
    3e66:	c7 03 80 b3 00 00    	movl   $0xb380,(%ebx)
    3e6c:	89 43 2c             	mov    %eax,0x2c(%ebx)
    3e6f:	8b 45 0c             	mov    0xc(%ebp),%eax
    3e72:	83 d2 ff             	adc    $0xffffffff,%edx
    3e75:	c7 43 04 01 00 00 00 	movl   $0x1,0x4(%ebx)
    3e7c:	c7 43 24 12 00 00 00 	movl   $0x12,0x24(%ebx)
    3e83:	c7 43 28 00 00 00 00 	movl   $0x0,0x28(%ebx)
    3e8a:	89 53 30             	mov    %edx,0x30(%ebx)
    3e8d:	c7 43 34 04 00 00 00 	movl   $0x4,0x34(%ebx)
    3e94:	c7 43 38 00 00 00 00 	movl   $0x0,0x38(%ebx)
    3e9b:	89 18                	mov    %ebx,(%eax)
    3e9d:	83 c4 10             	add    $0x10,%esp
    3ea0:	e9 cb fe ff ff       	jmp    3d70 <mbr_create+0x50>
    3ea5:	bf fe ff ff ff       	mov    $0xfffffffe,%edi
    3eaa:	e9 c1 fe ff ff       	jmp    3d70 <mbr_create+0x50>
    3eaf:	90                   	nop

00003eb0 <mbr_close>:
    3eb0:	55                   	push   %ebp
    3eb1:	89 e5                	mov    %esp,%ebp
    3eb3:	56                   	push   %esi
    3eb4:	53                   	push   %ebx
    3eb5:	8b 75 08             	mov    0x8(%ebp),%esi
    3eb8:	85 f6                	test   %esi,%esi
    3eba:	0f 84 d4 00 00 00    	je     3f94 <mbr_close+0xe4>
    3ec0:	8b 46 10             	mov    0x10(%esi),%eax
    3ec3:	8d 5e 0c             	lea    0xc(%esi),%ebx
    3ec6:	39 c3                	cmp    %eax,%ebx
    3ec8:	0f 84 96 00 00 00    	je     3f64 <mbr_close+0xb4>
    3ece:	66 90                	xchg   %ax,%ax
    3ed0:	85 c0                	test   %eax,%eax
    3ed2:	0f 84 8c 00 00 00    	je     3f64 <mbr_close+0xb4>
    3ed8:	83 e8 04             	sub    $0x4,%eax
    3edb:	0f 84 83 00 00 00    	je     3f64 <mbr_close+0xb4>
    3ee1:	8b 48 04             	mov    0x4(%eax),%ecx
    3ee4:	85 c9                	test   %ecx,%ecx
    3ee6:	74 0f                	je     3ef7 <mbr_close+0x47>
    3ee8:	8b 50 08             	mov    0x8(%eax),%edx
    3eeb:	85 d2                	test   %edx,%edx
    3eed:	74 08                	je     3ef7 <mbr_close+0x47>
    3eef:	89 0a                	mov    %ecx,(%edx)
    3ef1:	8b 48 04             	mov    0x4(%eax),%ecx
    3ef4:	89 51 04             	mov    %edx,0x4(%ecx)
    3ef7:	8b 48 0c             	mov    0xc(%eax),%ecx
    3efa:	c7 40 04 00 00 00 00 	movl   $0x0,0x4(%eax)
    3f01:	c7 40 08 00 00 00 00 	movl   $0x0,0x8(%eax)
    3f08:	85 c9                	test   %ecx,%ecx
    3f0a:	74 6c                	je     3f78 <mbr_close+0xc8>
    3f0c:	8b 50 10             	mov    0x10(%eax),%edx
    3f0f:	85 d2                	test   %edx,%edx
    3f11:	74 6c                	je     3f7f <mbr_close+0xcf>
    3f13:	89 0a                	mov    %ecx,(%edx)
    3f15:	8b 48 0c             	mov    0xc(%eax),%ecx
    3f18:	89 51 04             	mov    %edx,0x4(%ecx)
    3f1b:	c7 40 0c 00 00 00 00 	movl   $0x0,0xc(%eax)
    3f22:	c7 40 10 00 00 00 00 	movl   $0x0,0x10(%eax)
    3f29:	8b 48 14             	mov    0x14(%eax),%ecx
    3f2c:	85 c9                	test   %ecx,%ecx
    3f2e:	74 58                	je     3f88 <mbr_close+0xd8>
    3f30:	8b 50 18             	mov    0x18(%eax),%edx
    3f33:	85 d2                	test   %edx,%edx
    3f35:	74 48                	je     3f7f <mbr_close+0xcf>
    3f37:	89 0a                	mov    %ecx,(%edx)
    3f39:	8b 48 14             	mov    0x14(%eax),%ecx
    3f3c:	89 51 04             	mov    %edx,0x4(%ecx)
    3f3f:	c7 40 14 00 00 00 00 	movl   $0x0,0x14(%eax)
    3f46:	c7 40 18 00 00 00 00 	movl   $0x0,0x18(%eax)
    3f4d:	83 ec 0c             	sub    $0xc,%esp
    3f50:	50                   	push   %eax
    3f51:	e8 da 57 00 00       	call   9730 <free@plt>
    3f56:	8b 46 10             	mov    0x10(%esi),%eax
    3f59:	83 c4 10             	add    $0x10,%esp
    3f5c:	39 c3                	cmp    %eax,%ebx
    3f5e:	0f 85 6c ff ff ff    	jne    3ed0 <mbr_close+0x20>
    3f64:	89 75 08             	mov    %esi,0x8(%ebp)
    3f67:	8d 65 f8             	lea    -0x8(%ebp),%esp
    3f6a:	5b                   	pop    %ebx
    3f6b:	5e                   	pop    %esi
    3f6c:	5d                   	pop    %ebp
    3f6d:	e9 be 57 00 00       	jmp    9730 <free@plt>
    3f72:	8d b6 00 00 00 00    	lea    0x0(%esi),%esi
    3f78:	8b 48 10             	mov    0x10(%eax),%ecx
    3f7b:	85 c9                	test   %ecx,%ecx
    3f7d:	74 aa                	je     3f29 <mbr_close+0x79>
    3f7f:	e8 34 16 00 00       	call   55b8 <link_used.part.2>
    3f84:	8d 74 26 00          	lea    0x0(%esi,%eiz,1),%esi
    3f88:	8b 50 18             	mov    0x18(%eax),%edx
    3f8b:	85 d2                	test   %edx,%edx
    3f8d:	74 be                	je     3f4d <mbr_close+0x9d>
    3f8f:	e8 24 16 00 00       	call   55b8 <link_used.part.2>
    3f94:	8d 65 f8             	lea    -0x8(%ebp),%esp
    3f97:	5b                   	pop    %ebx
    3f98:	5e                   	pop    %esi
    3f99:	5d                   	pop    %ebp
    3f9a:	c3                   	ret    
    3f9b:	90                   	nop
    3f9c:	8d 74 26 00          	lea    0x0(%esi,%eiz,1),%esi

00003fa0 <mbr_open>:
    3fa0:	55                   	push   %ebp
    3fa1:	89 e5                	mov    %esp,%ebp
    3fa3:	57                   	push   %edi
    3fa4:	56                   	push   %esi
    3fa5:	53                   	push   %ebx
    3fa6:	83 ec 74             	sub    $0x74,%esp
    3fa9:	8d 45 dc             	lea    -0x24(%ebp),%eax
    3fac:	8b 75 08             	mov    0x8(%ebp),%esi
    3faf:	50                   	push   %eax
    3fb0:	56                   	push   %esi
    3fb1:	e8 ba 40 00 00       	call   8070 <block_get_bsize>
    3fb6:	83 c4 10             	add    $0x10,%esp
    3fb9:	85 c0                	test   %eax,%eax
    3fbb:	75 16                	jne    3fd3 <mbr_open+0x33>
    3fbd:	8d 45 e0             	lea    -0x20(%ebp),%eax
    3fc0:	8b 5d 08             	mov    0x8(%ebp),%ebx
    3fc3:	51                   	push   %ecx
    3fc4:	51                   	push   %ecx
    3fc5:	50                   	push   %eax
    3fc6:	53                   	push   %ebx
    3fc7:	e8 34 41 00 00       	call   8100 <block_get_nblocks>
    3fcc:	83 c4 10             	add    $0x10,%esp
    3fcf:	85 c0                	test   %eax,%eax
    3fd1:	74 2d                	je     4000 <mbr_open+0x60>
    3fd3:	bf f6 fe ff ff       	mov    $0xfffffef6,%edi
    3fd8:	31 f6                	xor    %esi,%esi
    3fda:	31 db                	xor    %ebx,%ebx
    3fdc:	83 ec 0c             	sub    $0xc,%esp
    3fdf:	56                   	push   %esi
    3fe0:	e8 4b 57 00 00       	call   9730 <free@plt>
    3fe5:	89 1c 24             	mov    %ebx,(%esp)
    3fe8:	e8 c3 fe ff ff       	call   3eb0 <mbr_close>
    3fed:	83 c4 10             	add    $0x10,%esp
    3ff0:	8d 65 f4             	lea    -0xc(%ebp),%esp
    3ff3:	89 f8                	mov    %edi,%eax
    3ff5:	5b                   	pop    %ebx
    3ff6:	5e                   	pop    %esi
    3ff7:	5f                   	pop    %edi
    3ff8:	5d                   	pop    %ebp
    3ff9:	c3                   	ret    
    3ffa:	8d b6 00 00 00 00    	lea    0x0(%esi),%esi
    4000:	8b 45 dc             	mov    -0x24(%ebp),%eax
    4003:	3d ff 01 00 00       	cmp    $0x1ff,%eax
    4008:	76 4e                	jbe    4058 <mbr_open+0xb8>
    400a:	a9 ff 01 00 00       	test   $0x1ff,%eax
    400f:	75 47                	jne    4058 <mbr_open+0xb8>
    4011:	83 7d e4 00          	cmpl   $0x0,-0x1c(%ebp)
    4015:	76 39                	jbe    4050 <mbr_open+0xb0>
    4017:	52                   	push   %edx
    4018:	52                   	push   %edx
    4019:	50                   	push   %eax
    401a:	6a 01                	push   $0x1
    401c:	e8 ef 54 00 00       	call   9510 <calloc@plt>
    4021:	83 c4 10             	add    $0x10,%esp
    4024:	89 c6                	mov    %eax,%esi
    4026:	85 c0                	test   %eax,%eax
    4028:	74 3c                	je     4066 <mbr_open+0xc6>
    402a:	83 ec 0c             	sub    $0xc,%esp
    402d:	50                   	push   %eax
    402e:	8b 45 08             	mov    0x8(%ebp),%eax
    4031:	6a 01                	push   $0x1
    4033:	6a 00                	push   $0x0
    4035:	6a 00                	push   $0x0
    4037:	50                   	push   %eax
    4038:	e8 c3 3d 00 00       	call   7e00 <block_read_direct>
    403d:	83 c4 20             	add    $0x20,%esp
    4040:	89 c7                	mov    %eax,%edi
    4042:	85 c0                	test   %eax,%eax
    4044:	74 2c                	je     4072 <mbr_open+0xd2>
    4046:	bf f6 fe ff ff       	mov    $0xfffffef6,%edi
    404b:	31 db                	xor    %ebx,%ebx
    404d:	eb 8d                	jmp    3fdc <mbr_open+0x3c>
    404f:	90                   	nop
    4050:	83 7d e0 11          	cmpl   $0x11,-0x20(%ebp)
    4054:	77 c1                	ja     4017 <mbr_open+0x77>
    4056:	66 90                	xchg   %ax,%ax
    4058:	bf f2 ff ff ff       	mov    $0xfffffff2,%edi
    405d:	31 f6                	xor    %esi,%esi
    405f:	31 db                	xor    %ebx,%ebx
    4061:	e9 76 ff ff ff       	jmp    3fdc <mbr_open+0x3c>
    4066:	bf fe ff ff ff       	mov    $0xfffffffe,%edi
    406b:	31 db                	xor    %ebx,%ebx
    406d:	e9 6a ff ff ff       	jmp    3fdc <mbr_open+0x3c>
    4072:	50                   	push   %eax
    4073:	50                   	push   %eax
    4074:	6a 74                	push   $0x74
    4076:	6a 01                	push   $0x1
    4078:	e8 93 54 00 00       	call   9510 <calloc@plt>
    407d:	83 c4 10             	add    $0x10,%esp
    4080:	89 c3                	mov    %eax,%ebx
    4082:	85 c0                	test   %eax,%eax
    4084:	0f 84 99 05 00 00    	je     4623 <mbr_open+0x683>
    408a:	8d 40 0c             	lea    0xc(%eax),%eax
    408d:	89 45 c0             	mov    %eax,-0x40(%ebp)
    4090:	89 43 0c             	mov    %eax,0xc(%ebx)
    4093:	89 43 10             	mov    %eax,0x10(%ebx)
    4096:	8d 43 14             	lea    0x14(%ebx),%eax
    4099:	89 45 d0             	mov    %eax,-0x30(%ebp)
    409c:	89 43 14             	mov    %eax,0x14(%ebx)
    409f:	89 43 18             	mov    %eax,0x18(%ebx)
    40a2:	8d 43 1c             	lea    0x1c(%ebx),%eax
    40a5:	89 45 ac             	mov    %eax,-0x54(%ebp)
    40a8:	89 43 1c             	mov    %eax,0x1c(%ebx)
    40ab:	89 43 20             	mov    %eax,0x20(%ebx)
    40ae:	66 81 be fe 01 00 00 	cmpw   $0xaa55,0x1fe(%esi)
    40b5:	55 aa 
    40b7:	74 0a                	je     40c3 <mbr_open+0x123>
    40b9:	bf f6 fe ff ff       	mov    $0xfffffef6,%edi
    40be:	e9 19 ff ff ff       	jmp    3fdc <mbr_open+0x3c>
    40c3:	c7 43 38 00 00 00 00 	movl   $0x0,0x38(%ebx)
    40ca:	8b 96 ca 01 00 00    	mov    0x1ca(%esi),%edx
    40d0:	80 be c2 01 00 00 00 	cmpb   $0x0,0x1c2(%esi)
    40d7:	0f 84 93 00 00 00    	je     4170 <mbr_open+0x1d0>
    40dd:	85 d2                	test   %edx,%edx
    40df:	89 55 b8             	mov    %edx,-0x48(%ebp)
    40e2:	0f 84 88 00 00 00    	je     4170 <mbr_open+0x1d0>
    40e8:	8b 8e c6 01 00 00    	mov    0x1c6(%esi),%ecx
    40ee:	50                   	push   %eax
    40ef:	89 4d c4             	mov    %ecx,-0x3c(%ebp)
    40f2:	50                   	push   %eax
    40f3:	6a 5c                	push   $0x5c
    40f5:	6a 01                	push   $0x1
    40f7:	e8 14 54 00 00       	call   9510 <calloc@plt>
    40fc:	83 c4 10             	add    $0x10,%esp
    40ff:	85 c0                	test   %eax,%eax
    4101:	0f 84 12 05 00 00    	je     4619 <mbr_open+0x679>
    4107:	8a 96 c2 01 00 00    	mov    0x1c2(%esi),%dl
    410d:	8b 4d c4             	mov    -0x3c(%ebp),%ecx
    4110:	88 50 3c             	mov    %dl,0x3c(%eax)
    4113:	88 55 c8             	mov    %dl,-0x38(%ebp)
    4116:	8b 55 b8             	mov    -0x48(%ebp),%edx
    4119:	89 48 28             	mov    %ecx,0x28(%eax)
    411c:	89 50 30             	mov    %edx,0x30(%eax)
    411f:	8b 55 c0             	mov    -0x40(%ebp),%edx
    4122:	89 50 08             	mov    %edx,0x8(%eax)
    4125:	8b 53 0c             	mov    0xc(%ebx),%edx
    4128:	8d 48 04             	lea    0x4(%eax),%ecx
    412b:	89 50 04             	mov    %edx,0x4(%eax)
    412e:	c7 40 38 00 00 00 00 	movl   $0x0,0x38(%eax)
    4135:	c7 40 1c 01 00 00 00 	movl   $0x1,0x1c(%eax)
    413c:	c7 40 2c 00 00 00 00 	movl   $0x0,0x2c(%eax)
    4143:	c7 40 34 00 00 00 00 	movl   $0x0,0x34(%eax)
    414a:	89 18                	mov    %ebx,(%eax)
    414c:	89 4a 04             	mov    %ecx,0x4(%edx)
    414f:	8b 55 d0             	mov    -0x30(%ebp),%edx
    4152:	89 4b 0c             	mov    %ecx,0xc(%ebx)
    4155:	89 50 10             	mov    %edx,0x10(%eax)
    4158:	8b 53 14             	mov    0x14(%ebx),%edx
    415b:	8d 48 0c             	lea    0xc(%eax),%ecx
    415e:	89 50 0c             	mov    %edx,0xc(%eax)
    4161:	80 7d c8 05          	cmpb   $0x5,-0x38(%ebp)
    4165:	89 4a 04             	mov    %ecx,0x4(%edx)
    4168:	89 4b 14             	mov    %ecx,0x14(%ebx)
    416b:	75 03                	jne    4170 <mbr_open+0x1d0>
    416d:	89 43 38             	mov    %eax,0x38(%ebx)
    4170:	8b 96 da 01 00 00    	mov    0x1da(%esi),%edx
    4176:	80 be d2 01 00 00 00 	cmpb   $0x0,0x1d2(%esi)
    417d:	0f 84 93 00 00 00    	je     4216 <mbr_open+0x276>
    4183:	85 d2                	test   %edx,%edx
    4185:	89 55 b8             	mov    %edx,-0x48(%ebp)
    4188:	0f 84 88 00 00 00    	je     4216 <mbr_open+0x276>
    418e:	8b 8e d6 01 00 00    	mov    0x1d6(%esi),%ecx
    4194:	50                   	push   %eax
    4195:	89 4d c4             	mov    %ecx,-0x3c(%ebp)
    4198:	50                   	push   %eax
    4199:	6a 5c                	push   $0x5c
    419b:	6a 01                	push   $0x1
    419d:	e8 6e 53 00 00       	call   9510 <calloc@plt>
    41a2:	83 c4 10             	add    $0x10,%esp
    41a5:	85 c0                	test   %eax,%eax
    41a7:	0f 84 6c 04 00 00    	je     4619 <mbr_open+0x679>
    41ad:	8b 55 b8             	mov    -0x48(%ebp),%edx
    41b0:	8a 8e d2 01 00 00    	mov    0x1d2(%esi),%cl
    41b6:	89 50 30             	mov    %edx,0x30(%eax)
    41b9:	8b 55 c0             	mov    -0x40(%ebp),%edx
    41bc:	88 48 3c             	mov    %cl,0x3c(%eax)
    41bf:	89 50 08             	mov    %edx,0x8(%eax)
    41c2:	88 4d c8             	mov    %cl,-0x38(%ebp)
    41c5:	8b 53 0c             	mov    0xc(%ebx),%edx
    41c8:	8b 4d c4             	mov    -0x3c(%ebp),%ecx
    41cb:	89 50 04             	mov    %edx,0x4(%eax)
    41ce:	89 48 28             	mov    %ecx,0x28(%eax)
    41d1:	8d 48 04             	lea    0x4(%eax),%ecx
    41d4:	c7 40 38 00 00 00 00 	movl   $0x0,0x38(%eax)
    41db:	c7 40 1c 02 00 00 00 	movl   $0x2,0x1c(%eax)
    41e2:	c7 40 2c 00 00 00 00 	movl   $0x0,0x2c(%eax)
    41e9:	c7 40 34 00 00 00 00 	movl   $0x0,0x34(%eax)
    41f0:	89 18                	mov    %ebx,(%eax)
    41f2:	89 4a 04             	mov    %ecx,0x4(%edx)
    41f5:	8b 55 d0             	mov    -0x30(%ebp),%edx
    41f8:	89 4b 0c             	mov    %ecx,0xc(%ebx)
    41fb:	89 50 10             	mov    %edx,0x10(%eax)
    41fe:	8b 53 14             	mov    0x14(%ebx),%edx
    4201:	8d 48 0c             	lea    0xc(%eax),%ecx
    4204:	89 50 0c             	mov    %edx,0xc(%eax)
    4207:	80 7d c8 05          	cmpb   $0x5,-0x38(%ebp)
    420b:	89 4a 04             	mov    %ecx,0x4(%edx)
    420e:	89 4b 14             	mov    %ecx,0x14(%ebx)
    4211:	75 03                	jne    4216 <mbr_open+0x276>
    4213:	89 43 38             	mov    %eax,0x38(%ebx)
    4216:	8b 96 ea 01 00 00    	mov    0x1ea(%esi),%edx
    421c:	80 be e2 01 00 00 00 	cmpb   $0x0,0x1e2(%esi)
    4223:	0f 84 93 00 00 00    	je     42bc <mbr_open+0x31c>
    4229:	85 d2                	test   %edx,%edx
    422b:	89 55 b8             	mov    %edx,-0x48(%ebp)
    422e:	0f 84 88 00 00 00    	je     42bc <mbr_open+0x31c>
    4234:	8b 8e e6 01 00 00    	mov    0x1e6(%esi),%ecx
    423a:	50                   	push   %eax
    423b:	89 4d c4             	mov    %ecx,-0x3c(%ebp)
    423e:	50                   	push   %eax
    423f:	6a 5c                	push   $0x5c
    4241:	6a 01                	push   $0x1
    4243:	e8 c8 52 00 00       	call   9510 <calloc@plt>
    4248:	83 c4 10             	add    $0x10,%esp
    424b:	85 c0                	test   %eax,%eax
    424d:	0f 84 c6 03 00 00    	je     4619 <mbr_open+0x679>
    4253:	8a 96 e2 01 00 00    	mov    0x1e2(%esi),%dl
    4259:	8b 4d c4             	mov    -0x3c(%ebp),%ecx
    425c:	88 50 3c             	mov    %dl,0x3c(%eax)
    425f:	88 55 c8             	mov    %dl,-0x38(%ebp)
    4262:	8b 55 b8             	mov    -0x48(%ebp),%edx
    4265:	89 48 28             	mov    %ecx,0x28(%eax)
    4268:	89 50 30             	mov    %edx,0x30(%eax)
    426b:	8b 55 c0             	mov    -0x40(%ebp),%edx
    426e:	89 50 08             	mov    %edx,0x8(%eax)
    4271:	8b 53 0c             	mov    0xc(%ebx),%edx
    4274:	8d 48 04             	lea    0x4(%eax),%ecx
    4277:	89 50 04             	mov    %edx,0x4(%eax)
    427a:	c7 40 38 00 00 00 00 	movl   $0x0,0x38(%eax)
    4281:	c7 40 1c 03 00 00 00 	movl   $0x3,0x1c(%eax)
    4288:	c7 40 2c 00 00 00 00 	movl   $0x0,0x2c(%eax)
    428f:	c7 40 34 00 00 00 00 	movl   $0x0,0x34(%eax)
    4296:	89 18                	mov    %ebx,(%eax)
    4298:	89 4a 04             	mov    %ecx,0x4(%edx)
    429b:	8b 55 d0             	mov    -0x30(%ebp),%edx
    429e:	89 4b 0c             	mov    %ecx,0xc(%ebx)
    42a1:	89 50 10             	mov    %edx,0x10(%eax)
    42a4:	8b 53 14             	mov    0x14(%ebx),%edx
    42a7:	8d 48 0c             	lea    0xc(%eax),%ecx
    42aa:	89 50 0c             	mov    %edx,0xc(%eax)
    42ad:	80 7d c8 05          	cmpb   $0x5,-0x38(%ebp)
    42b1:	89 4a 04             	mov    %ecx,0x4(%edx)
    42b4:	89 4b 14             	mov    %ecx,0x14(%ebx)
    42b7:	75 03                	jne    42bc <mbr_open+0x31c>
    42b9:	89 43 38             	mov    %eax,0x38(%ebx)
    42bc:	8b 96 fa 01 00 00    	mov    0x1fa(%esi),%edx
    42c2:	80 be f2 01 00 00 00 	cmpb   $0x0,0x1f2(%esi)
    42c9:	0f 84 93 00 00 00    	je     4362 <mbr_open+0x3c2>
    42cf:	85 d2                	test   %edx,%edx
    42d1:	89 55 b8             	mov    %edx,-0x48(%ebp)
    42d4:	0f 84 88 00 00 00    	je     4362 <mbr_open+0x3c2>
    42da:	8b 8e f6 01 00 00    	mov    0x1f6(%esi),%ecx
    42e0:	89 4d c4             	mov    %ecx,-0x3c(%ebp)
    42e3:	51                   	push   %ecx
    42e4:	51                   	push   %ecx
    42e5:	6a 5c                	push   $0x5c
    42e7:	6a 01                	push   $0x1
    42e9:	e8 22 52 00 00       	call   9510 <calloc@plt>
    42ee:	83 c4 10             	add    $0x10,%esp
    42f1:	85 c0                	test   %eax,%eax
    42f3:	0f 84 20 03 00 00    	je     4619 <mbr_open+0x679>
    42f9:	8b 55 b8             	mov    -0x48(%ebp),%edx
    42fc:	8a 8e f2 01 00 00    	mov    0x1f2(%esi),%cl
    4302:	89 50 30             	mov    %edx,0x30(%eax)
    4305:	8b 55 c0             	mov    -0x40(%ebp),%edx
    4308:	88 48 3c             	mov    %cl,0x3c(%eax)
    430b:	89 50 08             	mov    %edx,0x8(%eax)
    430e:	88 4d c8             	mov    %cl,-0x38(%ebp)
    4311:	8b 53 0c             	mov    0xc(%ebx),%edx
    4314:	8b 4d c4             	mov    -0x3c(%ebp),%ecx
    4317:	89 50 04             	mov    %edx,0x4(%eax)
    431a:	89 48 28             	mov    %ecx,0x28(%eax)
    431d:	8d 48 04             	lea    0x4(%eax),%ecx
    4320:	c7 40 38 00 00 00 00 	movl   $0x0,0x38(%eax)
    4327:	c7 40 1c 04 00 00 00 	movl   $0x4,0x1c(%eax)
    432e:	c7 40 2c 00 00 00 00 	movl   $0x0,0x2c(%eax)
    4335:	c7 40 34 00 00 00 00 	movl   $0x0,0x34(%eax)
    433c:	89 18                	mov    %ebx,(%eax)
    433e:	89 4a 04             	mov    %ecx,0x4(%edx)
    4341:	8b 55 d0             	mov    -0x30(%ebp),%edx
    4344:	89 4b 0c             	mov    %ecx,0xc(%ebx)
    4347:	89 50 10             	mov    %edx,0x10(%eax)
    434a:	8b 53 14             	mov    0x14(%ebx),%edx
    434d:	8d 48 0c             	lea    0xc(%eax),%ecx
    4350:	89 50 0c             	mov    %edx,0xc(%eax)
    4353:	80 7d c8 05          	cmpb   $0x5,-0x38(%ebp)
    4357:	89 4a 04             	mov    %ecx,0x4(%edx)
    435a:	89 4b 14             	mov    %ecx,0x14(%ebx)
    435d:	75 03                	jne    4362 <mbr_open+0x3c2>
    435f:	89 43 38             	mov    %eax,0x38(%ebx)
    4362:	83 ec 0c             	sub    $0xc,%esp
    4365:	56                   	push   %esi
    4366:	e8 c5 53 00 00       	call   9730 <free@plt>
    436b:	8b 55 e0             	mov    -0x20(%ebp),%edx
    436e:	8b 45 08             	mov    0x8(%ebp),%eax
    4371:	83 c2 ee             	add    $0xffffffee,%edx
    4374:	8b 4d e4             	mov    -0x1c(%ebp),%ecx
    4377:	83 d1 ff             	adc    $0xffffffff,%ecx
    437a:	89 43 08             	mov    %eax,0x8(%ebx)
    437d:	89 53 2c             	mov    %edx,0x2c(%ebx)
    4380:	8b 45 dc             	mov    -0x24(%ebp),%eax
    4383:	8b 53 38             	mov    0x38(%ebx),%edx
    4386:	83 c4 10             	add    $0x10,%esp
    4389:	c7 03 80 b3 00 00    	movl   $0xb380,(%ebx)
    438f:	c7 43 04 01 00 00 00 	movl   $0x1,0x4(%ebx)
    4396:	89 43 3c             	mov    %eax,0x3c(%ebx)
    4399:	c7 43 24 12 00 00 00 	movl   $0x12,0x24(%ebx)
    43a0:	c7 43 28 00 00 00 00 	movl   $0x0,0x28(%ebx)
    43a7:	89 4b 30             	mov    %ecx,0x30(%ebx)
    43aa:	c7 43 34 04 00 00 00 	movl   $0x4,0x34(%ebx)
    43b1:	85 d2                	test   %edx,%edx
    43b3:	0f 84 4c 02 00 00    	je     4605 <mbr_open+0x665>
    43b9:	52                   	push   %edx
    43ba:	52                   	push   %edx
    43bb:	50                   	push   %eax
    43bc:	6a 01                	push   $0x1
    43be:	e8 4d 51 00 00       	call   9510 <calloc@plt>
    43c3:	83 c4 10             	add    $0x10,%esp
    43c6:	89 c6                	mov    %eax,%esi
    43c8:	85 c0                	test   %eax,%eax
    43ca:	0f 84 3f 02 00 00    	je     460f <mbr_open+0x66f>
    43d0:	8b 43 38             	mov    0x38(%ebx),%eax
    43d3:	c7 45 b0 01 00 00 00 	movl   $0x1,-0x50(%ebp)
    43da:	c7 45 b4 00 00 00 00 	movl   $0x0,-0x4c(%ebp)
    43e1:	89 5d c4             	mov    %ebx,-0x3c(%ebp)
    43e4:	8b 50 28             	mov    0x28(%eax),%edx
    43e7:	8b 48 2c             	mov    0x2c(%eax),%ecx
    43ea:	89 55 a0             	mov    %edx,-0x60(%ebp)
    43ed:	89 4d a4             	mov    %ecx,-0x5c(%ebp)
    43f0:	8b 50 34             	mov    0x34(%eax),%edx
    43f3:	8b 4d a4             	mov    -0x5c(%ebp),%ecx
    43f6:	8b 40 30             	mov    0x30(%eax),%eax
    43f9:	89 55 cc             	mov    %edx,-0x34(%ebp)
    43fc:	8b 55 a0             	mov    -0x60(%ebp),%edx
    43ff:	89 45 c8             	mov    %eax,-0x38(%ebp)
    4402:	89 55 d0             	mov    %edx,-0x30(%ebp)
    4405:	89 4d d4             	mov    %ecx,-0x2c(%ebp)
    4408:	89 7d a8             	mov    %edi,-0x58(%ebp)
    440b:	89 d8                	mov    %ebx,%eax
    440d:	83 ec 0c             	sub    $0xc,%esp
    4410:	8b 5d d4             	mov    -0x2c(%ebp),%ebx
    4413:	8b 7d d0             	mov    -0x30(%ebp),%edi
    4416:	56                   	push   %esi
    4417:	6a 01                	push   $0x1
    4419:	8b 40 08             	mov    0x8(%eax),%eax
    441c:	53                   	push   %ebx
    441d:	57                   	push   %edi
    441e:	50                   	push   %eax
    441f:	e8 dc 39 00 00       	call   7e00 <block_read_direct>
    4424:	83 c4 20             	add    $0x20,%esp
    4427:	85 c0                	test   %eax,%eax
    4429:	75 56                	jne    4481 <mbr_open+0x4e1>
    442b:	8b 86 c6 01 00 00    	mov    0x1c6(%esi),%eax
    4431:	8b be ca 01 00 00    	mov    0x1ca(%esi),%edi
    4437:	31 db                	xor    %ebx,%ebx
    4439:	31 d2                	xor    %edx,%edx
    443b:	89 45 9c             	mov    %eax,-0x64(%ebp)
    443e:	01 f8                	add    %edi,%eax
    4440:	11 da                	adc    %ebx,%edx
    4442:	89 7d 90             	mov    %edi,-0x70(%ebp)
    4445:	89 5d 94             	mov    %ebx,-0x6c(%ebp)
    4448:	80 be c2 01 00 00 00 	cmpb   $0x0,0x1c2(%esi)
    444f:	0f 84 9e 01 00 00    	je     45f3 <mbr_open+0x653>
    4455:	85 ff                	test   %edi,%edi
    4457:	0f 84 96 01 00 00    	je     45f3 <mbr_open+0x653>
    445d:	8b 4d d0             	mov    -0x30(%ebp),%ecx
    4460:	8b 5d d4             	mov    -0x2c(%ebp),%ebx
    4463:	01 c8                	add    %ecx,%eax
    4465:	11 da                	adc    %ebx,%edx
    4467:	89 45 b8             	mov    %eax,-0x48(%ebp)
    446a:	8b 45 c8             	mov    -0x38(%ebp),%eax
    446d:	89 55 bc             	mov    %edx,-0x44(%ebp)
    4470:	01 c8                	add    %ecx,%eax
    4472:	8b 55 cc             	mov    -0x34(%ebp),%edx
    4475:	11 da                	adc    %ebx,%edx
    4477:	8b 5d bc             	mov    -0x44(%ebp),%ebx
    447a:	8b 4d b8             	mov    -0x48(%ebp),%ecx
    447d:	39 d3                	cmp    %edx,%ebx
    447f:	76 1b                	jbe    449c <mbr_open+0x4fc>
    4481:	8b 5d c4             	mov    -0x3c(%ebp),%ebx
    4484:	bf f6 fe ff ff       	mov    $0xfffffef6,%edi
    4489:	83 ec 0c             	sub    $0xc,%esp
    448c:	56                   	push   %esi
    448d:	31 f6                	xor    %esi,%esi
    448f:	e8 9c 52 00 00       	call   9730 <free@plt>
    4494:	83 c4 10             	add    $0x10,%esp
    4497:	e9 40 fb ff ff       	jmp    3fdc <mbr_open+0x3c>
    449c:	72 04                	jb     44a2 <mbr_open+0x502>
    449e:	39 c1                	cmp    %eax,%ecx
    44a0:	77 df                	ja     4481 <mbr_open+0x4e1>
    44a2:	85 ff                	test   %edi,%edi
    44a4:	0f 85 a2 00 00 00    	jne    454c <mbr_open+0x5ac>
    44aa:	8b 86 d6 01 00 00    	mov    0x1d6(%esi),%eax
    44b0:	31 d2                	xor    %edx,%edx
    44b2:	03 45 a0             	add    -0x60(%ebp),%eax
    44b5:	8b 8e da 01 00 00    	mov    0x1da(%esi),%ecx
    44bb:	13 55 a4             	adc    -0x5c(%ebp),%edx
    44be:	31 db                	xor    %ebx,%ebx
    44c0:	89 45 b8             	mov    %eax,-0x48(%ebp)
    44c3:	89 55 bc             	mov    %edx,-0x44(%ebp)
    44c6:	89 4d c8             	mov    %ecx,-0x38(%ebp)
    44c9:	89 5d cc             	mov    %ebx,-0x34(%ebp)
    44cc:	80 be d2 01 00 00 00 	cmpb   $0x0,0x1d2(%esi)
    44d3:	0f 84 1a 01 00 00    	je     45f3 <mbr_open+0x653>
    44d9:	89 c8                	mov    %ecx,%eax
    44db:	09 d8                	or     %ebx,%eax
    44dd:	0f 84 10 01 00 00    	je     45f3 <mbr_open+0x653>
    44e3:	8b 4d d0             	mov    -0x30(%ebp),%ecx
    44e6:	8b 5d d4             	mov    -0x2c(%ebp),%ebx
    44e9:	03 4d b0             	add    -0x50(%ebp),%ecx
    44ec:	8b 55 bc             	mov    -0x44(%ebp),%edx
    44ef:	13 5d b4             	adc    -0x4c(%ebp),%ebx
    44f2:	8b 45 b8             	mov    -0x48(%ebp),%eax
    44f5:	39 da                	cmp    %ebx,%edx
    44f7:	72 88                	jb     4481 <mbr_open+0x4e1>
    44f9:	77 04                	ja     44ff <mbr_open+0x55f>
    44fb:	39 c8                	cmp    %ecx,%eax
    44fd:	72 82                	jb     4481 <mbr_open+0x4e1>
    44ff:	8b 7d c4             	mov    -0x3c(%ebp),%edi
    4502:	8b 4d c8             	mov    -0x38(%ebp),%ecx
    4505:	03 4d b8             	add    -0x48(%ebp),%ecx
    4508:	8b 5d cc             	mov    -0x34(%ebp),%ebx
    450b:	8b 47 24             	mov    0x24(%edi),%eax
    450e:	8b 57 28             	mov    0x28(%edi),%edx
    4511:	13 5d bc             	adc    -0x44(%ebp),%ebx
    4514:	03 47 2c             	add    0x2c(%edi),%eax
    4517:	13 57 30             	adc    0x30(%edi),%edx
    451a:	39 d3                	cmp    %edx,%ebx
    451c:	0f 87 5f ff ff ff    	ja     4481 <mbr_open+0x4e1>
    4522:	72 08                	jb     452c <mbr_open+0x58c>
    4524:	39 c1                	cmp    %eax,%ecx
    4526:	0f 87 55 ff ff ff    	ja     4481 <mbr_open+0x4e1>
    452c:	8b 45 c8             	mov    -0x38(%ebp),%eax
    452f:	8b 55 cc             	mov    -0x34(%ebp),%edx
    4532:	89 45 b0             	mov    %eax,-0x50(%ebp)
    4535:	89 55 b4             	mov    %edx,-0x4c(%ebp)
    4538:	8b 45 b8             	mov    -0x48(%ebp),%eax
    453b:	8b 55 bc             	mov    -0x44(%ebp),%edx
    453e:	89 45 d0             	mov    %eax,-0x30(%ebp)
    4541:	89 55 d4             	mov    %edx,-0x2c(%ebp)
    4544:	8b 45 c4             	mov    -0x3c(%ebp),%eax
    4547:	e9 c1 fe ff ff       	jmp    440d <mbr_open+0x46d>
    454c:	51                   	push   %ecx
    454d:	51                   	push   %ecx
    454e:	6a 5c                	push   $0x5c
    4550:	6a 01                	push   $0x1
    4552:	e8 b9 4f 00 00       	call   9510 <calloc@plt>
    4557:	83 c4 10             	add    $0x10,%esp
    455a:	89 c7                	mov    %eax,%edi
    455c:	85 c0                	test   %eax,%eax
    455e:	0f 84 1d ff ff ff    	je     4481 <mbr_open+0x4e1>
    4564:	83 ec 0c             	sub    $0xc,%esp
    4567:	ff 75 ac             	pushl  -0x54(%ebp)
    456a:	e8 f1 50 00 00       	call   9660 <list_count@plt>
    456f:	8b 4d d0             	mov    -0x30(%ebp),%ecx
    4572:	83 c0 05             	add    $0x5,%eax
    4575:	8a 96 c2 01 00 00    	mov    0x1c2(%esi),%dl
    457b:	89 47 1c             	mov    %eax,0x1c(%edi)
    457e:	8b 45 9c             	mov    -0x64(%ebp),%eax
    4581:	01 c8                	add    %ecx,%eax
    4583:	88 57 3c             	mov    %dl,0x3c(%edi)
    4586:	89 47 28             	mov    %eax,0x28(%edi)
    4589:	89 45 c8             	mov    %eax,-0x38(%ebp)
    458c:	8b 45 90             	mov    -0x70(%ebp),%eax
    458f:	31 d2                	xor    %edx,%edx
    4591:	89 47 30             	mov    %eax,0x30(%edi)
    4594:	8b 45 c8             	mov    -0x38(%ebp),%eax
    4597:	29 c8                	sub    %ecx,%eax
    4599:	89 57 2c             	mov    %edx,0x2c(%edi)
    459c:	89 47 20             	mov    %eax,0x20(%edi)
    459f:	89 55 cc             	mov    %edx,-0x34(%ebp)
    45a2:	8b 45 c4             	mov    -0x3c(%ebp),%eax
    45a5:	8b 55 94             	mov    -0x6c(%ebp),%edx
    45a8:	89 57 34             	mov    %edx,0x34(%edi)
    45ab:	8b 4d c0             	mov    -0x40(%ebp),%ecx
    45ae:	8b 5d d4             	mov    -0x2c(%ebp),%ebx
    45b1:	8b 55 cc             	mov    -0x34(%ebp),%edx
    45b4:	89 07                	mov    %eax,(%edi)
    45b6:	89 4f 08             	mov    %ecx,0x8(%edi)
    45b9:	19 da                	sbb    %ebx,%edx
    45bb:	89 c1                	mov    %eax,%ecx
    45bd:	8b 40 0c             	mov    0xc(%eax),%eax
    45c0:	89 57 24             	mov    %edx,0x24(%edi)
    45c3:	8d 57 04             	lea    0x4(%edi),%edx
    45c6:	89 47 04             	mov    %eax,0x4(%edi)
    45c9:	c7 47 38 00 00 00 00 	movl   $0x0,0x38(%edi)
    45d0:	89 50 04             	mov    %edx,0x4(%eax)
    45d3:	8b 45 ac             	mov    -0x54(%ebp),%eax
    45d6:	89 51 0c             	mov    %edx,0xc(%ecx)
    45d9:	89 47 18             	mov    %eax,0x18(%edi)
    45dc:	8b 41 1c             	mov    0x1c(%ecx),%eax
    45df:	8d 57 14             	lea    0x14(%edi),%edx
    45e2:	89 47 14             	mov    %eax,0x14(%edi)
    45e5:	83 c4 10             	add    $0x10,%esp
    45e8:	89 50 04             	mov    %edx,0x4(%eax)
    45eb:	89 51 1c             	mov    %edx,0x1c(%ecx)
    45ee:	e9 b7 fe ff ff       	jmp    44aa <mbr_open+0x50a>
    45f3:	83 ec 0c             	sub    $0xc,%esp
    45f6:	8b 5d c4             	mov    -0x3c(%ebp),%ebx
    45f9:	8b 7d a8             	mov    -0x58(%ebp),%edi
    45fc:	56                   	push   %esi
    45fd:	e8 2e 51 00 00       	call   9730 <free@plt>
    4602:	83 c4 10             	add    $0x10,%esp
    4605:	8b 45 0c             	mov    0xc(%ebp),%eax
    4608:	89 18                	mov    %ebx,(%eax)
    460a:	e9 e1 f9 ff ff       	jmp    3ff0 <mbr_open+0x50>
    460f:	bf fe ff ff ff       	mov    $0xfffffffe,%edi
    4614:	e9 70 fe ff ff       	jmp    4489 <mbr_open+0x4e9>
    4619:	bf fe ff ff ff       	mov    $0xfffffffe,%edi
    461e:	e9 b9 f9 ff ff       	jmp    3fdc <mbr_open+0x3c>
    4623:	bf fe ff ff ff       	mov    $0xfffffffe,%edi
    4628:	e9 c3 f9 ff ff       	jmp    3ff0 <mbr_open+0x50>
    462d:	8d 76 00             	lea    0x0(%esi),%esi

00004630 <mbr_part_get_info>:
    4630:	55                   	push   %ebp
    4631:	89 e5                	mov    %esp,%ebp
    4633:	53                   	push   %ebx
    4634:	50                   	push   %eax
    4635:	8b 4d 08             	mov    0x8(%ebp),%ecx
    4638:	8b 5d 0c             	mov    0xc(%ebp),%ebx
    463b:	8b 41 1c             	mov    0x1c(%ecx),%eax
    463e:	8b 51 2c             	mov    0x2c(%ecx),%edx
    4641:	89 03                	mov    %eax,(%ebx)
    4643:	8b 41 28             	mov    0x28(%ecx),%eax
    4646:	89 43 08             	mov    %eax,0x8(%ebx)
    4649:	8b 41 30             	mov    0x30(%ecx),%eax
    464c:	89 53 0c             	mov    %edx,0xc(%ebx)
    464f:	8b 51 34             	mov    0x34(%ecx),%edx
    4652:	89 43 10             	mov    %eax,0x10(%ebx)
    4655:	8b 41 14             	mov    0x14(%ecx),%eax
    4658:	89 53 14             	mov    %edx,0x14(%ebx)
    465b:	85 c0                	test   %eax,%eax
    465d:	74 19                	je     4678 <mbr_part_get_info+0x48>
    465f:	8b 51 18             	mov    0x18(%ecx),%edx
    4662:	85 d2                	test   %edx,%edx
    4664:	74 19                	je     467f <mbr_part_get_info+0x4f>
    4666:	c7 43 04 02 00 00 00 	movl   $0x2,0x4(%ebx)
    466d:	58                   	pop    %eax
    466e:	5b                   	pop    %ebx
    466f:	5d                   	pop    %ebp
    4670:	c3                   	ret    
    4671:	8d b4 26 00 00 00 00 	lea    0x0(%esi,%eiz,1),%esi
    4678:	8b 41 18             	mov    0x18(%ecx),%eax
    467b:	85 c0                	test   %eax,%eax
    467d:	74 09                	je     4688 <mbr_part_get_info+0x58>
    467f:	e8 34 0f 00 00       	call   55b8 <link_used.part.2>
    4684:	8d 74 26 00          	lea    0x0(%esi,%eiz,1),%esi
    4688:	31 c0                	xor    %eax,%eax
    468a:	80 79 3c 05          	cmpb   $0x5,0x3c(%ecx)
    468e:	0f 94 c0             	sete   %al
    4691:	89 43 04             	mov    %eax,0x4(%ebx)
    4694:	58                   	pop    %eax
    4695:	5b                   	pop    %ebx
    4696:	5d                   	pop    %ebp
    4697:	c3                   	ret    
    4698:	90                   	nop
    4699:	8d b4 26 00 00 00 00 	lea    0x0(%esi,%eiz,1),%esi

000046a0 <mbr_ebr_create>:
    46a0:	55                   	push   %ebp
    46a1:	89 e5                	mov    %esp,%ebp
    46a3:	57                   	push   %edi
    46a4:	56                   	push   %esi
    46a5:	53                   	push   %ebx
    46a6:	83 ec 44             	sub    $0x44,%esp
    46a9:	89 d3                	mov    %edx,%ebx
    46ab:	8b 78 3c             	mov    0x3c(%eax),%edi
    46ae:	89 45 e0             	mov    %eax,-0x20(%ebp)
    46b1:	57                   	push   %edi
    46b2:	89 55 d8             	mov    %edx,-0x28(%ebp)
    46b5:	6a 01                	push   $0x1
    46b7:	e8 54 4e 00 00       	call   9510 <calloc@plt>
    46bc:	83 c4 10             	add    $0x10,%esp
    46bf:	89 45 e4             	mov    %eax,-0x1c(%ebp)
    46c2:	85 c0                	test   %eax,%eax
    46c4:	0f 84 13 02 00 00    	je     48dd <mbr_ebr_create+0x23d>
    46ca:	85 db                	test   %ebx,%ebx
    46cc:	0f 84 7e 01 00 00    	je     4850 <mbr_ebr_create+0x1b0>
    46d2:	89 d9                	mov    %ebx,%ecx
    46d4:	8b 43 28             	mov    0x28(%ebx),%eax
    46d7:	8b 53 2c             	mov    0x2c(%ebx),%edx
    46da:	89 c6                	mov    %eax,%esi
    46dc:	8b 49 20             	mov    0x20(%ecx),%ecx
    46df:	89 5d d8             	mov    %ebx,-0x28(%ebp)
    46e2:	29 ce                	sub    %ecx,%esi
    46e4:	8b 5b 24             	mov    0x24(%ebx),%ebx
    46e7:	89 d7                	mov    %edx,%edi
    46e9:	89 75 c8             	mov    %esi,-0x38(%ebp)
    46ec:	19 df                	sbb    %ebx,%edi
    46ee:	89 7d cc             	mov    %edi,-0x34(%ebp)
    46f1:	8b 7d e4             	mov    -0x1c(%ebp),%edi
    46f4:	8d b7 ce 01 00 00    	lea    0x1ce(%edi),%esi
    46fa:	81 c7 be 01 00 00    	add    $0x1be,%edi
    4700:	89 7d c4             	mov    %edi,-0x3c(%ebp)
    4703:	8b 7d d8             	mov    -0x28(%ebp),%edi
    4706:	89 75 c0             	mov    %esi,-0x40(%ebp)
    4709:	8b 37                	mov    (%edi),%esi
    470b:	8b 7e 38             	mov    0x38(%esi),%edi
    470e:	8b 77 28             	mov    0x28(%edi),%esi
    4711:	8b 7f 2c             	mov    0x2c(%edi),%edi
    4714:	89 7d d4             	mov    %edi,-0x2c(%ebp)
    4717:	8b 7d d8             	mov    -0x28(%ebp),%edi
    471a:	89 75 d0             	mov    %esi,-0x30(%ebp)
    471d:	8b 77 14             	mov    0x14(%edi),%esi
    4720:	85 f6                	test   %esi,%esi
    4722:	0f 84 60 01 00 00    	je     4888 <mbr_ebr_create+0x1e8>
    4728:	8b 7f 18             	mov    0x18(%edi),%edi
    472b:	85 ff                	test   %edi,%edi
    472d:	0f 84 5c 01 00 00    	je     488f <mbr_ebr_create+0x1ef>
    4733:	8b 7d d4             	mov    -0x2c(%ebp),%edi
    4736:	8b 75 d0             	mov    -0x30(%ebp),%esi
    4739:	39 fa                	cmp    %edi,%edx
    473b:	0f 82 2f 01 00 00    	jb     4870 <mbr_ebr_create+0x1d0>
    4741:	0f 86 21 01 00 00    	jbe    4868 <mbr_ebr_create+0x1c8>
    4747:	2b 45 d0             	sub    -0x30(%ebp),%eax
    474a:	1b 55 d4             	sbb    -0x2c(%ebp),%edx
    474d:	39 d3                	cmp    %edx,%ebx
    474f:	72 1f                	jb     4770 <mbr_ebr_create+0xd0>
    4751:	77 04                	ja     4757 <mbr_ebr_create+0xb7>
    4753:	39 c1                	cmp    %eax,%ecx
    4755:	76 19                	jbe    4770 <mbr_ebr_create+0xd0>
    4757:	53                   	push   %ebx
    4758:	68 bf 03 00 00       	push   $0x3bf
    475d:	68 f9 8e 00 00       	push   $0x8ef9
    4762:	68 d0 8e 00 00       	push   $0x8ed0
    4767:	e8 94 4d 00 00       	call   9500 <assert_abort@plt>
    476c:	8d 74 26 00          	lea    0x0(%esi,%eiz,1),%esi
    4770:	8b 4d c4             	mov    -0x3c(%ebp),%ecx
    4773:	52                   	push   %edx
    4774:	6a 10                	push   $0x10
    4776:	6a 00                	push   $0x0
    4778:	51                   	push   %ecx
    4779:	e8 62 4e 00 00       	call   95e0 <memset@plt>
    477e:	8b 55 d8             	mov    -0x28(%ebp),%edx
    4781:	8b 4d e4             	mov    -0x1c(%ebp),%ecx
    4784:	83 c4 10             	add    $0x10,%esp
    4787:	8a 42 3c             	mov    0x3c(%edx),%al
    478a:	8b 5a 18             	mov    0x18(%edx),%ebx
    478d:	88 81 c2 01 00 00    	mov    %al,0x1c2(%ecx)
    4793:	8b 42 20             	mov    0x20(%edx),%eax
    4796:	89 81 c6 01 00 00    	mov    %eax,0x1c6(%ecx)
    479c:	8b 42 30             	mov    0x30(%edx),%eax
    479f:	89 81 ca 01 00 00    	mov    %eax,0x1ca(%ecx)
    47a5:	8b 02                	mov    (%edx),%eax
    47a7:	83 c0 1c             	add    $0x1c,%eax
    47aa:	39 c3                	cmp    %eax,%ebx
    47ac:	0f 84 e6 00 00 00    	je     4898 <mbr_ebr_create+0x1f8>
    47b2:	85 db                	test   %ebx,%ebx
    47b4:	0f 84 de 00 00 00    	je     4898 <mbr_ebr_create+0x1f8>
    47ba:	50                   	push   %eax
    47bb:	8b 45 c0             	mov    -0x40(%ebp),%eax
    47be:	6a 10                	push   $0x10
    47c0:	83 eb 14             	sub    $0x14,%ebx
    47c3:	6a 00                	push   $0x0
    47c5:	50                   	push   %eax
    47c6:	e8 15 4e 00 00       	call   95e0 <memset@plt>
    47cb:	83 c4 10             	add    $0x10,%esp
    47ce:	85 db                	test   %ebx,%ebx
    47d0:	74 34                	je     4806 <mbr_ebr_create+0x166>
    47d2:	8b 43 20             	mov    0x20(%ebx),%eax
    47d5:	8b 4d e4             	mov    -0x1c(%ebp),%ecx
    47d8:	89 45 d8             	mov    %eax,-0x28(%ebp)
    47db:	03 43 30             	add    0x30(%ebx),%eax
    47de:	8b 53 24             	mov    0x24(%ebx),%edx
    47e1:	c6 81 d2 01 00 00 05 	movb   $0x5,0x1d2(%ecx)
    47e8:	89 c6                	mov    %eax,%esi
    47ea:	89 55 dc             	mov    %edx,-0x24(%ebp)
    47ed:	8b 45 d8             	mov    -0x28(%ebp),%eax
    47f0:	8b 53 28             	mov    0x28(%ebx),%edx
    47f3:	29 c2                	sub    %eax,%edx
    47f5:	8b 45 d0             	mov    -0x30(%ebp),%eax
    47f8:	29 c2                	sub    %eax,%edx
    47fa:	89 b1 da 01 00 00    	mov    %esi,0x1da(%ecx)
    4800:	89 91 d6 01 00 00    	mov    %edx,0x1d6(%ecx)
    4806:	83 ec 0c             	sub    $0xc,%esp
    4809:	8b 45 e4             	mov    -0x1c(%ebp),%eax
    480c:	8b 7d cc             	mov    -0x34(%ebp),%edi
    480f:	66 c7 80 fe 01 00 00 	movw   $0xaa55,0x1fe(%eax)
    4816:	55 aa 
    4818:	50                   	push   %eax
    4819:	8b 45 c8             	mov    -0x38(%ebp),%eax
    481c:	6a 01                	push   $0x1
    481e:	57                   	push   %edi
    481f:	50                   	push   %eax
    4820:	8b 45 e0             	mov    -0x20(%ebp),%eax
    4823:	8b 40 08             	mov    0x8(%eax),%eax
    4826:	50                   	push   %eax
    4827:	e8 b4 36 00 00       	call   7ee0 <block_write_direct>
    482c:	83 c4 20             	add    $0x20,%esp
    482f:	85 c0                	test   %eax,%eax
    4831:	75 7d                	jne    48b0 <mbr_ebr_create+0x210>
    4833:	83 ec 0c             	sub    $0xc,%esp
    4836:	8b 5d e4             	mov    -0x1c(%ebp),%ebx
    4839:	89 45 d8             	mov    %eax,-0x28(%ebp)
    483c:	53                   	push   %ebx
    483d:	e8 ee 4e 00 00       	call   9730 <free@plt>
    4842:	83 c4 10             	add    $0x10,%esp
    4845:	8b 45 d8             	mov    -0x28(%ebp),%eax
    4848:	8d 65 f4             	lea    -0xc(%ebp),%esp
    484b:	5b                   	pop    %ebx
    484c:	5e                   	pop    %esi
    484d:	5f                   	pop    %edi
    484e:	5d                   	pop    %ebp
    484f:	c3                   	ret    
    4850:	8b 45 e0             	mov    -0x20(%ebp),%eax
    4853:	8b 40 38             	mov    0x38(%eax),%eax
    4856:	8b 50 2c             	mov    0x2c(%eax),%edx
    4859:	8b 40 28             	mov    0x28(%eax),%eax
    485c:	89 45 c8             	mov    %eax,-0x38(%ebp)
    485f:	89 55 cc             	mov    %edx,-0x34(%ebp)
    4862:	eb a2                	jmp    4806 <mbr_ebr_create+0x166>
    4864:	8d 74 26 00          	lea    0x0(%esi,%eiz,1),%esi
    4868:	39 f0                	cmp    %esi,%eax
    486a:	0f 83 d7 fe ff ff    	jae    4747 <mbr_ebr_create+0xa7>
    4870:	56                   	push   %esi
    4871:	68 be 03 00 00       	push   $0x3be
    4876:	68 f9 8e 00 00       	push   $0x8ef9
    487b:	68 03 8f 00 00       	push   $0x8f03
    4880:	e8 7b 4c 00 00       	call   9500 <assert_abort@plt>
    4885:	8d 76 00             	lea    0x0(%esi),%esi
    4888:	8b 47 18             	mov    0x18(%edi),%eax
    488b:	85 c0                	test   %eax,%eax
    488d:	74 39                	je     48c8 <mbr_ebr_create+0x228>
    488f:	e8 24 0d 00 00       	call   55b8 <link_used.part.2>
    4894:	8d 74 26 00          	lea    0x0(%esi,%eiz,1),%esi
    4898:	8b 55 c0             	mov    -0x40(%ebp),%edx
    489b:	50                   	push   %eax
    489c:	6a 10                	push   $0x10
    489e:	6a 00                	push   $0x0
    48a0:	52                   	push   %edx
    48a1:	e8 3a 4d 00 00       	call   95e0 <memset@plt>
    48a6:	83 c4 10             	add    $0x10,%esp
    48a9:	e9 58 ff ff ff       	jmp    4806 <mbr_ebr_create+0x166>
    48ae:	66 90                	xchg   %ax,%ax
    48b0:	83 ec 0c             	sub    $0xc,%esp
    48b3:	8b 75 e4             	mov    -0x1c(%ebp),%esi
    48b6:	56                   	push   %esi
    48b7:	e8 74 4e 00 00       	call   9730 <free@plt>
    48bc:	83 c4 10             	add    $0x10,%esp
    48bf:	b8 f6 fe ff ff       	mov    $0xfffffef6,%eax
    48c4:	eb 82                	jmp    4848 <mbr_ebr_create+0x1a8>
    48c6:	66 90                	xchg   %ax,%ax
    48c8:	51                   	push   %ecx
    48c9:	68 bd 03 00 00       	push   $0x3bd
    48ce:	68 f9 8e 00 00       	push   $0x8ef9
    48d3:	68 19 8f 00 00       	push   $0x8f19
    48d8:	e8 23 4c 00 00       	call   9500 <assert_abort@plt>
    48dd:	b8 fe ff ff ff       	mov    $0xfffffffe,%eax
    48e2:	e9 61 ff ff ff       	jmp    4848 <mbr_ebr_create+0x1a8>
    48e7:	89 f6                	mov    %esi,%esi
    48e9:	8d bc 27 00 00 00 00 	lea    0x0(%edi,%eiz,1),%edi

000048f0 <mbr_ebr_update_next.isra.5>:
    48f0:	55                   	push   %ebp
    48f1:	89 e5                	mov    %esp,%ebp
    48f3:	57                   	push   %edi
    48f4:	56                   	push   %esi
    48f5:	53                   	push   %ebx
    48f6:	83 ec 34             	sub    $0x34,%esp
    48f9:	89 c7                	mov    %eax,%edi
    48fb:	8b 41 28             	mov    0x28(%ecx),%eax
    48fe:	89 d6                	mov    %edx,%esi
    4900:	2b 41 20             	sub    0x20(%ecx),%eax
    4903:	8b 51 2c             	mov    0x2c(%ecx),%edx
    4906:	1b 51 24             	sbb    0x24(%ecx),%edx
    4909:	89 cb                	mov    %ecx,%ebx
    490b:	56                   	push   %esi
    490c:	89 45 d8             	mov    %eax,-0x28(%ebp)
    490f:	6a 01                	push   $0x1
    4911:	89 55 dc             	mov    %edx,-0x24(%ebp)
    4914:	e8 f7 4b 00 00       	call   9510 <calloc@plt>
    4919:	83 c4 10             	add    $0x10,%esp
    491c:	85 c0                	test   %eax,%eax
    491e:	0f 84 ac 01 00 00    	je     4ad0 <mbr_ebr_update_next.isra.5+0x1e0>
    4924:	83 ec 0c             	sub    $0xc,%esp
    4927:	89 c6                	mov    %eax,%esi
    4929:	50                   	push   %eax
    492a:	8b 45 dc             	mov    -0x24(%ebp),%eax
    492d:	6a 01                	push   $0x1
    492f:	50                   	push   %eax
    4930:	8b 45 d8             	mov    -0x28(%ebp),%eax
    4933:	50                   	push   %eax
    4934:	8b 07                	mov    (%edi),%eax
    4936:	50                   	push   %eax
    4937:	e8 c4 34 00 00       	call   7e00 <block_read_direct>
    493c:	83 c4 20             	add    $0x20,%esp
    493f:	85 c0                	test   %eax,%eax
    4941:	0f 85 21 01 00 00    	jne    4a68 <mbr_ebr_update_next.isra.5+0x178>
    4947:	66 81 be fe 01 00 00 	cmpw   $0xaa55,0x1fe(%esi)
    494e:	55 aa 
    4950:	0f 85 12 01 00 00    	jne    4a68 <mbr_ebr_update_next.isra.5+0x178>
    4956:	8b 0b                	mov    (%ebx),%ecx
    4958:	8d 86 ce 01 00 00    	lea    0x1ce(%esi),%eax
    495e:	89 45 d0             	mov    %eax,-0x30(%ebp)
    4961:	8b 41 38             	mov    0x38(%ecx),%eax
    4964:	8b 50 2c             	mov    0x2c(%eax),%edx
    4967:	8b 40 28             	mov    0x28(%eax),%eax
    496a:	89 45 e0             	mov    %eax,-0x20(%ebp)
    496d:	8b 43 14             	mov    0x14(%ebx),%eax
    4970:	89 55 e4             	mov    %edx,-0x1c(%ebp)
    4973:	85 c0                	test   %eax,%eax
    4975:	0f 84 2d 01 00 00    	je     4aa8 <mbr_ebr_update_next.isra.5+0x1b8>
    497b:	8b 43 18             	mov    0x18(%ebx),%eax
    497e:	89 45 c8             	mov    %eax,-0x38(%ebp)
    4981:	85 c0                	test   %eax,%eax
    4983:	0f 84 26 01 00 00    	je     4aaf <mbr_ebr_update_next.isra.5+0x1bf>
    4989:	8b 53 2c             	mov    0x2c(%ebx),%edx
    498c:	8b 43 28             	mov    0x28(%ebx),%eax
    498f:	39 55 e4             	cmp    %edx,-0x1c(%ebp)
    4992:	0f 87 f9 00 00 00    	ja     4a91 <mbr_ebr_update_next.isra.5+0x1a1>
    4998:	0f 83 ea 00 00 00    	jae    4a88 <mbr_ebr_update_next.isra.5+0x198>
    499e:	2b 45 e0             	sub    -0x20(%ebp),%eax
    49a1:	1b 55 e4             	sbb    -0x1c(%ebp),%edx
    49a4:	39 53 24             	cmp    %edx,0x24(%ebx)
    49a7:	72 1f                	jb     49c8 <mbr_ebr_update_next.isra.5+0xd8>
    49a9:	77 05                	ja     49b0 <mbr_ebr_update_next.isra.5+0xc0>
    49ab:	39 43 20             	cmp    %eax,0x20(%ebx)
    49ae:	76 18                	jbe    49c8 <mbr_ebr_update_next.isra.5+0xd8>
    49b0:	52                   	push   %edx
    49b1:	68 bf 03 00 00       	push   $0x3bf
    49b6:	68 f9 8e 00 00       	push   $0x8ef9
    49bb:	68 d0 8e 00 00       	push   $0x8ed0
    49c0:	e8 3b 4b 00 00       	call   9500 <assert_abort@plt>
    49c5:	8d 76 00             	lea    0x0(%esi),%esi
    49c8:	83 c1 1c             	add    $0x1c,%ecx
    49cb:	8b 45 c8             	mov    -0x38(%ebp),%eax
    49ce:	39 c8                	cmp    %ecx,%eax
    49d0:	0f 84 e2 00 00 00    	je     4ab8 <mbr_ebr_update_next.isra.5+0x1c8>
    49d6:	83 e8 14             	sub    $0x14,%eax
    49d9:	89 c3                	mov    %eax,%ebx
    49db:	50                   	push   %eax
    49dc:	8b 45 d0             	mov    -0x30(%ebp),%eax
    49df:	6a 10                	push   $0x10
    49e1:	6a 00                	push   $0x0
    49e3:	50                   	push   %eax
    49e4:	e8 f7 4b 00 00       	call   95e0 <memset@plt>
    49e9:	83 c4 10             	add    $0x10,%esp
    49ec:	85 db                	test   %ebx,%ebx
    49ee:	74 3b                	je     4a2b <mbr_ebr_update_next.isra.5+0x13b>
    49f0:	8b 43 20             	mov    0x20(%ebx),%eax
    49f3:	8b 53 24             	mov    0x24(%ebx),%edx
    49f6:	89 45 d0             	mov    %eax,-0x30(%ebp)
    49f9:	03 43 30             	add    0x30(%ebx),%eax
    49fc:	89 55 d4             	mov    %edx,-0x2c(%ebp)
    49ff:	89 45 c8             	mov    %eax,-0x38(%ebp)
    4a02:	13 53 34             	adc    0x34(%ebx),%edx
    4a05:	c6 86 d2 01 00 00 05 	movb   $0x5,0x1d2(%esi)
    4a0c:	8b 45 d0             	mov    -0x30(%ebp),%eax
    4a0f:	89 55 cc             	mov    %edx,-0x34(%ebp)
    4a12:	8b 53 28             	mov    0x28(%ebx),%edx
    4a15:	29 c2                	sub    %eax,%edx
    4a17:	8b 45 e0             	mov    -0x20(%ebp),%eax
    4a1a:	29 c2                	sub    %eax,%edx
    4a1c:	8b 45 c8             	mov    -0x38(%ebp),%eax
    4a1f:	89 96 d6 01 00 00    	mov    %edx,0x1d6(%esi)
    4a25:	89 86 da 01 00 00    	mov    %eax,0x1da(%esi)
    4a2b:	83 ec 0c             	sub    $0xc,%esp
    4a2e:	8b 45 d8             	mov    -0x28(%ebp),%eax
    4a31:	8b 5d dc             	mov    -0x24(%ebp),%ebx
    4a34:	56                   	push   %esi
    4a35:	6a 01                	push   $0x1
    4a37:	53                   	push   %ebx
    4a38:	50                   	push   %eax
    4a39:	8b 07                	mov    (%edi),%eax
    4a3b:	50                   	push   %eax
    4a3c:	e8 9f 34 00 00       	call   7ee0 <block_write_direct>
    4a41:	83 c4 20             	add    $0x20,%esp
    4a44:	89 45 e0             	mov    %eax,-0x20(%ebp)
    4a47:	85 c0                	test   %eax,%eax
    4a49:	75 1d                	jne    4a68 <mbr_ebr_update_next.isra.5+0x178>
    4a4b:	83 ec 0c             	sub    $0xc,%esp
    4a4e:	56                   	push   %esi
    4a4f:	e8 dc 4c 00 00       	call   9730 <free@plt>
    4a54:	83 c4 10             	add    $0x10,%esp
    4a57:	8b 45 e0             	mov    -0x20(%ebp),%eax
    4a5a:	8d 65 f4             	lea    -0xc(%ebp),%esp
    4a5d:	5b                   	pop    %ebx
    4a5e:	5e                   	pop    %esi
    4a5f:	5f                   	pop    %edi
    4a60:	5d                   	pop    %ebp
    4a61:	c3                   	ret    
    4a62:	8d b6 00 00 00 00    	lea    0x0(%esi),%esi
    4a68:	83 ec 0c             	sub    $0xc,%esp
    4a6b:	56                   	push   %esi
    4a6c:	e8 bf 4c 00 00       	call   9730 <free@plt>
    4a71:	83 c4 10             	add    $0x10,%esp
    4a74:	8d 65 f4             	lea    -0xc(%ebp),%esp
    4a77:	b8 f6 fe ff ff       	mov    $0xfffffef6,%eax
    4a7c:	5b                   	pop    %ebx
    4a7d:	5e                   	pop    %esi
    4a7e:	5f                   	pop    %edi
    4a7f:	5d                   	pop    %ebp
    4a80:	c3                   	ret    
    4a81:	8d b4 26 00 00 00 00 	lea    0x0(%esi,%eiz,1),%esi
    4a88:	39 45 e0             	cmp    %eax,-0x20(%ebp)
    4a8b:	0f 86 0d ff ff ff    	jbe    499e <mbr_ebr_update_next.isra.5+0xae>
    4a91:	51                   	push   %ecx
    4a92:	68 be 03 00 00       	push   $0x3be
    4a97:	68 f9 8e 00 00       	push   $0x8ef9
    4a9c:	68 03 8f 00 00       	push   $0x8f03
    4aa1:	e8 5a 4a 00 00       	call   9500 <assert_abort@plt>
    4aa6:	66 90                	xchg   %ax,%ax
    4aa8:	8b 5b 18             	mov    0x18(%ebx),%ebx
    4aab:	85 db                	test   %ebx,%ebx
    4aad:	74 29                	je     4ad8 <mbr_ebr_update_next.isra.5+0x1e8>
    4aaf:	e8 04 0b 00 00       	call   55b8 <link_used.part.2>
    4ab4:	8d 74 26 00          	lea    0x0(%esi,%eiz,1),%esi
    4ab8:	8b 55 d0             	mov    -0x30(%ebp),%edx
    4abb:	50                   	push   %eax
    4abc:	6a 10                	push   $0x10
    4abe:	6a 00                	push   $0x0
    4ac0:	52                   	push   %edx
    4ac1:	e8 1a 4b 00 00       	call   95e0 <memset@plt>
    4ac6:	83 c4 10             	add    $0x10,%esp
    4ac9:	e9 5d ff ff ff       	jmp    4a2b <mbr_ebr_update_next.isra.5+0x13b>
    4ace:	66 90                	xchg   %ax,%ax
    4ad0:	b8 fe ff ff ff       	mov    $0xfffffffe,%eax
    4ad5:	eb 83                	jmp    4a5a <mbr_ebr_update_next.isra.5+0x16a>
    4ad7:	90                   	nop
    4ad8:	51                   	push   %ecx
    4ad9:	68 bd 03 00 00       	push   $0x3bd
    4ade:	68 f9 8e 00 00       	push   $0x8ef9
    4ae3:	68 19 8f 00 00       	push   $0x8f19
    4ae8:	e8 13 4a 00 00       	call   9500 <assert_abort@plt>
    4aed:	8d 76 00             	lea    0x0(%esi),%esi

00004af0 <mbr_part_create>:
    4af0:	55                   	push   %ebp
    4af1:	89 e5                	mov    %esp,%ebp
    4af3:	57                   	push   %edi
    4af4:	56                   	push   %esi
    4af5:	53                   	push   %ebx
    4af6:	83 ec 5c             	sub    $0x5c,%esp
    4af9:	8b 45 0c             	mov    0xc(%ebp),%eax
    4afc:	8b 40 20             	mov    0x20(%eax),%eax
    4aff:	85 c0                	test   %eax,%eax
    4b01:	0f 85 71 03 00 00    	jne    4e78 <mbr_part_create+0x388>
    4b07:	50                   	push   %eax
    4b08:	50                   	push   %eax
    4b09:	6a 5c                	push   $0x5c
    4b0b:	6a 01                	push   $0x1
    4b0d:	e8 fe 49 00 00       	call   9510 <calloc@plt>
    4b12:	83 c4 10             	add    $0x10,%esp
    4b15:	89 c7                	mov    %eax,%edi
    4b17:	85 c0                	test   %eax,%eax
    4b19:	0f 84 3b 06 00 00    	je     515a <mbr_part_create+0x66a>
    4b1f:	8b 45 08             	mov    0x8(%ebp),%eax
    4b22:	89 07                	mov    %eax,(%edi)
    4b24:	8b 45 0c             	mov    0xc(%ebp),%eax
    4b27:	8b 50 08             	mov    0x8(%eax),%edx
    4b2a:	8b 18                	mov    (%eax),%ebx
    4b2c:	8b 40 04             	mov    0x4(%eax),%eax
    4b2f:	89 55 d4             	mov    %edx,-0x2c(%ebp)
    4b32:	89 45 d0             	mov    %eax,-0x30(%ebp)
    4b35:	89 47 28             	mov    %eax,0x28(%edi)
    4b38:	8b 45 0c             	mov    0xc(%ebp),%eax
    4b3b:	89 57 2c             	mov    %edx,0x2c(%edi)
    4b3e:	89 5f 1c             	mov    %ebx,0x1c(%edi)
    4b41:	8b 50 10             	mov    0x10(%eax),%edx
    4b44:	8b 40 0c             	mov    0xc(%eax),%eax
    4b47:	89 45 b8             	mov    %eax,-0x48(%ebp)
    4b4a:	89 47 30             	mov    %eax,0x30(%edi)
    4b4d:	8b 45 0c             	mov    0xc(%ebp),%eax
    4b50:	89 55 bc             	mov    %edx,-0x44(%ebp)
    4b53:	89 57 34             	mov    %edx,0x34(%edi)
    4b56:	8b 50 18             	mov    0x18(%eax),%edx
    4b59:	8b 40 14             	mov    0x14(%eax),%eax
    4b5c:	89 45 b0             	mov    %eax,-0x50(%ebp)
    4b5f:	89 47 20             	mov    %eax,0x20(%edi)
    4b62:	8b 45 0c             	mov    0xc(%ebp),%eax
    4b65:	89 55 b4             	mov    %edx,-0x4c(%ebp)
    4b68:	89 57 24             	mov    %edx,0x24(%edi)
    4b6b:	8b 40 1c             	mov    0x1c(%eax),%eax
    4b6e:	83 f8 01             	cmp    $0x1,%eax
    4b71:	0f 84 11 01 00 00    	je     4c88 <mbr_part_create+0x198>
    4b77:	72 5f                	jb     4bd8 <mbr_part_create+0xe8>
    4b79:	83 f8 02             	cmp    $0x2,%eax
    4b7c:	0f 85 83 00 00 00    	jne    4c05 <mbr_part_create+0x115>
    4b82:	8b 45 0c             	mov    0xc(%ebp),%eax
    4b85:	85 db                	test   %ebx,%ebx
    4b87:	8b 40 20             	mov    0x20(%eax),%eax
    4b8a:	89 47 38             	mov    %eax,0x38(%edi)
    4b8d:	8b 45 0c             	mov    0xc(%ebp),%eax
    4b90:	8b 40 24             	mov    0x24(%eax),%eax
    4b93:	89 47 3c             	mov    %eax,0x3c(%edi)
    4b96:	8b 45 0c             	mov    0xc(%ebp),%eax
    4b99:	8b 40 28             	mov    0x28(%eax),%eax
    4b9c:	89 47 40             	mov    %eax,0x40(%edi)
    4b9f:	8b 45 0c             	mov    0xc(%ebp),%eax
    4ba2:	8b 40 2c             	mov    0x2c(%eax),%eax
    4ba5:	89 47 44             	mov    %eax,0x44(%edi)
    4ba8:	8b 45 0c             	mov    0xc(%ebp),%eax
    4bab:	8b 40 30             	mov    0x30(%eax),%eax
    4bae:	89 47 48             	mov    %eax,0x48(%edi)
    4bb1:	0f 84 01 01 00 00    	je     4cb8 <mbr_part_create+0x1c8>
    4bb7:	90                   	nop
    4bb8:	be f2 ff ff ff       	mov    $0xfffffff2,%esi
    4bbd:	83 ec 0c             	sub    $0xc,%esp
    4bc0:	57                   	push   %edi
    4bc1:	e8 6a 4b 00 00       	call   9730 <free@plt>
    4bc6:	83 c4 10             	add    $0x10,%esp
    4bc9:	8d 65 f4             	lea    -0xc(%ebp),%esp
    4bcc:	89 f0                	mov    %esi,%eax
    4bce:	5b                   	pop    %ebx
    4bcf:	5e                   	pop    %esi
    4bd0:	5f                   	pop    %edi
    4bd1:	5d                   	pop    %ebp
    4bd2:	c3                   	ret    
    4bd3:	90                   	nop
    4bd4:	8d 74 26 00          	lea    0x0(%esi,%eiz,1),%esi
    4bd8:	8b 45 0c             	mov    0xc(%ebp),%eax
    4bdb:	8b 40 20             	mov    0x20(%eax),%eax
    4bde:	89 47 38             	mov    %eax,0x38(%edi)
    4be1:	8b 45 0c             	mov    0xc(%ebp),%eax
    4be4:	8b 40 24             	mov    0x24(%eax),%eax
    4be7:	89 47 3c             	mov    %eax,0x3c(%edi)
    4bea:	8b 45 0c             	mov    0xc(%ebp),%eax
    4bed:	8b 40 28             	mov    0x28(%eax),%eax
    4bf0:	89 47 40             	mov    %eax,0x40(%edi)
    4bf3:	8b 45 0c             	mov    0xc(%ebp),%eax
    4bf6:	8b 40 2c             	mov    0x2c(%eax),%eax
    4bf9:	89 47 44             	mov    %eax,0x44(%edi)
    4bfc:	8b 45 0c             	mov    0xc(%ebp),%eax
    4bff:	8b 40 30             	mov    0x30(%eax),%eax
    4c02:	89 47 48             	mov    %eax,0x48(%edi)
    4c05:	85 db                	test   %ebx,%ebx
    4c07:	7e af                	jle    4bb8 <mbr_part_create+0xc8>
    4c09:	8b 45 08             	mov    0x8(%ebp),%eax
    4c0c:	3b 58 34             	cmp    0x34(%eax),%ebx
    4c0f:	7f a7                	jg     4bb8 <mbr_part_create+0xc8>
    4c11:	89 c6                	mov    %eax,%esi
    4c13:	8b 40 18             	mov    0x18(%eax),%eax
    4c16:	83 c6 14             	add    $0x14,%esi
    4c19:	85 c0                	test   %eax,%eax
    4c1b:	0f 94 c1             	sete   %cl
    4c1e:	39 f0                	cmp    %esi,%eax
    4c20:	0f 94 c2             	sete   %dl
    4c23:	08 d1                	or     %dl,%cl
    4c25:	88 4d c0             	mov    %cl,-0x40(%ebp)
    4c28:	0f 85 9a 01 00 00    	jne    4dc8 <mbr_part_create+0x2d8>
    4c2e:	89 c2                	mov    %eax,%edx
    4c30:	83 ea 0c             	sub    $0xc,%edx
    4c33:	0f 84 8f 01 00 00    	je     4dc8 <mbr_part_create+0x2d8>
    4c39:	3b 5a 1c             	cmp    0x1c(%edx),%ebx
    4c3c:	0f 84 76 ff ff ff    	je     4bb8 <mbr_part_create+0xc8>
    4c42:	8b 48 f4             	mov    -0xc(%eax),%ecx
    4c45:	8b 52 10             	mov    0x10(%edx),%edx
    4c48:	83 c1 14             	add    $0x14,%ecx
    4c4b:	39 ca                	cmp    %ecx,%edx
    4c4d:	75 19                	jne    4c68 <mbr_part_create+0x178>
    4c4f:	e9 74 01 00 00       	jmp    4dc8 <mbr_part_create+0x2d8>
    4c54:	8d 74 26 00          	lea    0x0(%esi,%eiz,1),%esi
    4c58:	8b 51 10             	mov    0x10(%ecx),%edx
    4c5b:	8b 09                	mov    (%ecx),%ecx
    4c5d:	83 c1 14             	add    $0x14,%ecx
    4c60:	39 ca                	cmp    %ecx,%edx
    4c62:	0f 84 60 01 00 00    	je     4dc8 <mbr_part_create+0x2d8>
    4c68:	85 d2                	test   %edx,%edx
    4c6a:	0f 84 58 01 00 00    	je     4dc8 <mbr_part_create+0x2d8>
    4c70:	83 ea 0c             	sub    $0xc,%edx
    4c73:	89 d1                	mov    %edx,%ecx
    4c75:	0f 84 4d 01 00 00    	je     4dc8 <mbr_part_create+0x2d8>
    4c7b:	3b 59 1c             	cmp    0x1c(%ecx),%ebx
    4c7e:	75 d8                	jne    4c58 <mbr_part_create+0x168>
    4c80:	e9 33 ff ff ff       	jmp    4bb8 <mbr_part_create+0xc8>
    4c85:	8d 76 00             	lea    0x0(%esi),%esi
    4c88:	8b 45 0c             	mov    0xc(%ebp),%eax
    4c8b:	c7 47 38 00 00 00 00 	movl   $0x0,0x38(%edi)
    4c92:	c6 47 3c 05          	movb   $0x5,0x3c(%edi)
    4c96:	80 78 24 00          	cmpb   $0x0,0x24(%eax)
    4c9a:	0f 85 18 ff ff ff    	jne    4bb8 <mbr_part_create+0xc8>
    4ca0:	8b 45 08             	mov    0x8(%ebp),%eax
    4ca3:	be f7 ff ff ff       	mov    $0xfffffff7,%esi
    4ca8:	8b 40 38             	mov    0x38(%eax),%eax
    4cab:	85 c0                	test   %eax,%eax
    4cad:	0f 85 0a ff ff ff    	jne    4bbd <mbr_part_create+0xcd>
    4cb3:	e9 4d ff ff ff       	jmp    4c05 <mbr_part_create+0x115>
    4cb8:	8b 45 d0             	mov    -0x30(%ebp),%eax
    4cbb:	8b 55 d4             	mov    -0x2c(%ebp),%edx
    4cbe:	2b 45 b0             	sub    -0x50(%ebp),%eax
    4cc1:	89 c3                	mov    %eax,%ebx
    4cc3:	89 45 c0             	mov    %eax,-0x40(%ebp)
    4cc6:	1b 55 b4             	sbb    -0x4c(%ebp),%edx
    4cc9:	8b 45 08             	mov    0x8(%ebp),%eax
    4ccc:	8b 48 38             	mov    0x38(%eax),%ecx
    4ccf:	89 d6                	mov    %edx,%esi
    4cd1:	89 55 c4             	mov    %edx,-0x3c(%ebp)
    4cd4:	8b 51 2c             	mov    0x2c(%ecx),%edx
    4cd7:	8b 41 28             	mov    0x28(%ecx),%eax
    4cda:	39 d6                	cmp    %edx,%esi
    4cdc:	0f 82 d6 fe ff ff    	jb     4bb8 <mbr_part_create+0xc8>
    4ce2:	0f 86 bf 02 00 00    	jbe    4fa7 <mbr_part_create+0x4b7>
    4ce8:	8b 5d d0             	mov    -0x30(%ebp),%ebx
    4ceb:	8b 75 d4             	mov    -0x2c(%ebp),%esi
    4cee:	03 5d b8             	add    -0x48(%ebp),%ebx
    4cf1:	13 75 bc             	adc    -0x44(%ebp),%esi
    4cf4:	03 41 30             	add    0x30(%ecx),%eax
    4cf7:	13 51 34             	adc    0x34(%ecx),%edx
    4cfa:	39 d6                	cmp    %edx,%esi
    4cfc:	0f 87 b6 fe ff ff    	ja     4bb8 <mbr_part_create+0xc8>
    4d02:	0f 83 ac 02 00 00    	jae    4fb4 <mbr_part_create+0x4c4>
    4d08:	8b 45 08             	mov    0x8(%ebp),%eax
    4d0b:	8b 75 08             	mov    0x8(%ebp),%esi
    4d0e:	83 c6 1c             	add    $0x1c,%esi
    4d11:	8b 40 20             	mov    0x20(%eax),%eax
    4d14:	89 75 a8             	mov    %esi,-0x58(%ebp)
    4d17:	85 c0                	test   %eax,%eax
    4d19:	0f 84 1c 04 00 00    	je     513b <mbr_part_create+0x64b>
    4d1f:	39 f0                	cmp    %esi,%eax
    4d21:	0f 84 14 04 00 00    	je     513b <mbr_part_create+0x64b>
    4d27:	83 e8 14             	sub    $0x14,%eax
    4d2a:	89 45 a4             	mov    %eax,-0x5c(%ebp)
    4d2d:	89 c6                	mov    %eax,%esi
    4d2f:	85 c0                	test   %eax,%eax
    4d31:	0f 84 04 04 00 00    	je     513b <mbr_part_create+0x64b>
    4d37:	8b 45 b8             	mov    -0x48(%ebp),%eax
    4d3a:	8b 55 bc             	mov    -0x44(%ebp),%edx
    4d3d:	03 45 b0             	add    -0x50(%ebp),%eax
    4d40:	13 55 b4             	adc    -0x4c(%ebp),%edx
    4d43:	03 45 c0             	add    -0x40(%ebp),%eax
    4d46:	13 55 c4             	adc    -0x3c(%ebp),%edx
    4d49:	89 45 c8             	mov    %eax,-0x38(%ebp)
    4d4c:	89 55 cc             	mov    %edx,-0x34(%ebp)
    4d4f:	eb 3a                	jmp    4d8b <mbr_part_create+0x29b>
    4d51:	8d b4 26 00 00 00 00 	lea    0x0(%esi,%eiz,1),%esi
    4d58:	77 0e                	ja     4d68 <mbr_part_create+0x278>
    4d5a:	39 c1                	cmp    %eax,%ecx
    4d5c:	0f 82 56 fe ff ff    	jb     4bb8 <mbr_part_create+0xc8>
    4d62:	8d b6 00 00 00 00    	lea    0x0(%esi),%esi
    4d68:	8b 16                	mov    (%esi),%edx
    4d6a:	8b 46 18             	mov    0x18(%esi),%eax
    4d6d:	83 c2 1c             	add    $0x1c,%edx
    4d70:	39 d0                	cmp    %edx,%eax
    4d72:	0f 84 68 02 00 00    	je     4fe0 <mbr_part_create+0x4f0>
    4d78:	85 c0                	test   %eax,%eax
    4d7a:	0f 84 60 02 00 00    	je     4fe0 <mbr_part_create+0x4f0>
    4d80:	83 e8 14             	sub    $0x14,%eax
    4d83:	89 c6                	mov    %eax,%esi
    4d85:	0f 84 55 02 00 00    	je     4fe0 <mbr_part_create+0x4f0>
    4d8b:	8b 46 20             	mov    0x20(%esi),%eax
    4d8e:	8b 4e 28             	mov    0x28(%esi),%ecx
    4d91:	29 c1                	sub    %eax,%ecx
    4d93:	8b 56 24             	mov    0x24(%esi),%edx
    4d96:	8b 5e 2c             	mov    0x2c(%esi),%ebx
    4d99:	19 d3                	sbb    %edx,%ebx
    4d9b:	3b 5d cc             	cmp    -0x34(%ebp),%ebx
    4d9e:	77 c8                	ja     4d68 <mbr_part_create+0x278>
    4da0:	72 05                	jb     4da7 <mbr_part_create+0x2b7>
    4da2:	3b 4d c8             	cmp    -0x38(%ebp),%ecx
    4da5:	73 c1                	jae    4d68 <mbr_part_create+0x278>
    4da7:	03 46 30             	add    0x30(%esi),%eax
    4daa:	13 56 34             	adc    0x34(%esi),%edx
    4dad:	01 c8                	add    %ecx,%eax
    4daf:	11 da                	adc    %ebx,%edx
    4db1:	8b 5d c4             	mov    -0x3c(%ebp),%ebx
    4db4:	8b 4d c0             	mov    -0x40(%ebp),%ecx
    4db7:	39 d3                	cmp    %edx,%ebx
    4db9:	0f 82 f9 fd ff ff    	jb     4bb8 <mbr_part_create+0xc8>
    4dbf:	eb 97                	jmp    4d58 <mbr_part_create+0x268>
    4dc1:	8d b4 26 00 00 00 00 	lea    0x0(%esi,%eiz,1),%esi
    4dc8:	8b 5d 08             	mov    0x8(%ebp),%ebx
    4dcb:	8b 4b 28             	mov    0x28(%ebx),%ecx
    4dce:	8b 53 24             	mov    0x24(%ebx),%edx
    4dd1:	89 4d ac             	mov    %ecx,-0x54(%ebp)
    4dd4:	8b 5d d4             	mov    -0x2c(%ebp),%ebx
    4dd7:	89 55 a8             	mov    %edx,-0x58(%ebp)
    4dda:	8b 4d d0             	mov    -0x30(%ebp),%ecx
    4ddd:	3b 5d ac             	cmp    -0x54(%ebp),%ebx
    4de0:	0f 82 d2 fd ff ff    	jb     4bb8 <mbr_part_create+0xc8>
    4de6:	0f 86 d5 01 00 00    	jbe    4fc1 <mbr_part_create+0x4d1>
    4dec:	8b 55 d0             	mov    -0x30(%ebp),%edx
    4def:	8b 5d 08             	mov    0x8(%ebp),%ebx
    4df2:	03 55 b8             	add    -0x48(%ebp),%edx
    4df5:	8b 4d d4             	mov    -0x2c(%ebp),%ecx
    4df8:	13 4d bc             	adc    -0x44(%ebp),%ecx
    4dfb:	89 55 c8             	mov    %edx,-0x38(%ebp)
    4dfe:	8b 55 a8             	mov    -0x58(%ebp),%edx
    4e01:	89 4d cc             	mov    %ecx,-0x34(%ebp)
    4e04:	03 53 2c             	add    0x2c(%ebx),%edx
    4e07:	8b 4d ac             	mov    -0x54(%ebp),%ecx
    4e0a:	13 4b 30             	adc    0x30(%ebx),%ecx
    4e0d:	89 cb                	mov    %ecx,%ebx
    4e0f:	39 5d cc             	cmp    %ebx,-0x34(%ebp)
    4e12:	0f 87 a0 fd ff ff    	ja     4bb8 <mbr_part_create+0xc8>
    4e18:	0f 83 b1 01 00 00    	jae    4fcf <mbr_part_create+0x4df>
    4e1e:	80 7d c0 00          	cmpb   $0x0,-0x40(%ebp)
    4e22:	74 26                	je     4e4a <mbr_part_create+0x35a>
    4e24:	eb 62                	jmp    4e88 <mbr_part_create+0x398>
    4e26:	66 90                	xchg   %ax,%ax
    4e28:	77 0e                	ja     4e38 <mbr_part_create+0x348>
    4e2a:	39 4d d0             	cmp    %ecx,-0x30(%ebp)
    4e2d:	0f 82 85 fd ff ff    	jb     4bb8 <mbr_part_create+0xc8>
    4e33:	90                   	nop
    4e34:	8d 74 26 00          	lea    0x0(%esi,%eiz,1),%esi
    4e38:	8b 50 10             	mov    0x10(%eax),%edx
    4e3b:	8b 00                	mov    (%eax),%eax
    4e3d:	83 c0 14             	add    $0x14,%eax
    4e40:	39 c2                	cmp    %eax,%edx
    4e42:	74 44                	je     4e88 <mbr_part_create+0x398>
    4e44:	85 d2                	test   %edx,%edx
    4e46:	74 40                	je     4e88 <mbr_part_create+0x398>
    4e48:	89 d0                	mov    %edx,%eax
    4e4a:	83 e8 0c             	sub    $0xc,%eax
    4e4d:	74 39                	je     4e88 <mbr_part_create+0x398>
    4e4f:	8b 58 2c             	mov    0x2c(%eax),%ebx
    4e52:	8b 48 28             	mov    0x28(%eax),%ecx
    4e55:	39 5d cc             	cmp    %ebx,-0x34(%ebp)
    4e58:	72 de                	jb     4e38 <mbr_part_create+0x348>
    4e5a:	77 05                	ja     4e61 <mbr_part_create+0x371>
    4e5c:	39 4d c8             	cmp    %ecx,-0x38(%ebp)
    4e5f:	76 d7                	jbe    4e38 <mbr_part_create+0x348>
    4e61:	03 48 30             	add    0x30(%eax),%ecx
    4e64:	13 58 34             	adc    0x34(%eax),%ebx
    4e67:	39 5d d4             	cmp    %ebx,-0x2c(%ebp)
    4e6a:	0f 82 48 fd ff ff    	jb     4bb8 <mbr_part_create+0xc8>
    4e70:	eb b6                	jmp    4e28 <mbr_part_create+0x338>
    4e72:	8d b6 00 00 00 00    	lea    0x0(%esi),%esi
    4e78:	be f2 ff ff ff       	mov    $0xfffffff2,%esi
    4e7d:	e9 47 fd ff ff       	jmp    4bc9 <mbr_part_create+0xd9>
    4e82:	8d b6 00 00 00 00    	lea    0x0(%esi),%esi
    4e88:	8b 5d b4             	mov    -0x4c(%ebp),%ebx
    4e8b:	8b 4d b0             	mov    -0x50(%ebp),%ecx
    4e8e:	89 da                	mov    %ebx,%edx
    4e90:	09 ca                	or     %ecx,%edx
    4e92:	0f 85 20 fd ff ff    	jne    4bb8 <mbr_part_create+0xc8>
    4e98:	8b 45 d4             	mov    -0x2c(%ebp),%eax
    4e9b:	85 c0                	test   %eax,%eax
    4e9d:	0f 85 15 fd ff ff    	jne    4bb8 <mbr_part_create+0xc8>
    4ea3:	8b 45 bc             	mov    -0x44(%ebp),%eax
    4ea6:	85 c0                	test   %eax,%eax
    4ea8:	0f 85 0a fd ff ff    	jne    4bb8 <mbr_part_create+0xc8>
    4eae:	8d 45 d8             	lea    -0x28(%ebp),%eax
    4eb1:	51                   	push   %ecx
    4eb2:	6a 10                	push   $0x10
    4eb4:	6a 00                	push   $0x0
    4eb6:	50                   	push   %eax
    4eb7:	e8 24 47 00 00       	call   95e0 <memset@plt>
    4ebc:	8a 47 3c             	mov    0x3c(%edi),%al
    4ebf:	5b                   	pop    %ebx
    4ec0:	88 45 dc             	mov    %al,-0x24(%ebp)
    4ec3:	8b 47 28             	mov    0x28(%edi),%eax
    4ec6:	89 45 e0             	mov    %eax,-0x20(%ebp)
    4ec9:	8b 47 30             	mov    0x30(%edi),%eax
    4ecc:	89 45 e4             	mov    %eax,-0x1c(%ebp)
    4ecf:	8b 45 0c             	mov    0xc(%ebp),%eax
    4ed2:	8b 5d 08             	mov    0x8(%ebp),%ebx
    4ed5:	8b 00                	mov    (%eax),%eax
    4ed7:	89 45 d0             	mov    %eax,-0x30(%ebp)
    4eda:	58                   	pop    %eax
    4edb:	8b 43 3c             	mov    0x3c(%ebx),%eax
    4ede:	50                   	push   %eax
    4edf:	6a 01                	push   $0x1
    4ee1:	e8 2a 46 00 00       	call   9510 <calloc@plt>
    4ee6:	83 c4 10             	add    $0x10,%esp
    4ee9:	89 c3                	mov    %eax,%ebx
    4eeb:	85 c0                	test   %eax,%eax
    4eed:	0f 84 f3 02 00 00    	je     51e6 <mbr_part_create+0x6f6>
    4ef3:	83 ec 0c             	sub    $0xc,%esp
    4ef6:	8b 4d 08             	mov    0x8(%ebp),%ecx
    4ef9:	50                   	push   %eax
    4efa:	6a 01                	push   $0x1
    4efc:	8b 51 08             	mov    0x8(%ecx),%edx
    4eff:	6a 00                	push   $0x0
    4f01:	6a 00                	push   $0x0
    4f03:	52                   	push   %edx
    4f04:	e8 f7 2e 00 00       	call   7e00 <block_read_direct>
    4f09:	83 c4 20             	add    $0x20,%esp
    4f0c:	85 c0                	test   %eax,%eax
    4f0e:	0f 85 bc 02 00 00    	jne    51d0 <mbr_part_create+0x6e0>
    4f14:	8b 45 d0             	mov    -0x30(%ebp),%eax
    4f17:	8b 4d d8             	mov    -0x28(%ebp),%ecx
    4f1a:	83 c0 1a             	add    $0x1a,%eax
    4f1d:	83 ec 0c             	sub    $0xc,%esp
    4f20:	c1 e0 04             	shl    $0x4,%eax
    4f23:	01 d8                	add    %ebx,%eax
    4f25:	89 48 0e             	mov    %ecx,0xe(%eax)
    4f28:	8b 4d dc             	mov    -0x24(%ebp),%ecx
    4f2b:	89 48 12             	mov    %ecx,0x12(%eax)
    4f2e:	8b 4d e0             	mov    -0x20(%ebp),%ecx
    4f31:	89 48 16             	mov    %ecx,0x16(%eax)
    4f34:	8b 4d e4             	mov    -0x1c(%ebp),%ecx
    4f37:	89 48 1a             	mov    %ecx,0x1a(%eax)
    4f3a:	8b 45 08             	mov    0x8(%ebp),%eax
    4f3d:	53                   	push   %ebx
    4f3e:	6a 01                	push   $0x1
    4f40:	8b 40 08             	mov    0x8(%eax),%eax
    4f43:	6a 00                	push   $0x0
    4f45:	6a 00                	push   $0x0
    4f47:	50                   	push   %eax
    4f48:	e8 93 2f 00 00       	call   7ee0 <block_write_direct>
    4f4d:	83 c4 20             	add    $0x20,%esp
    4f50:	85 c0                	test   %eax,%eax
    4f52:	0f 85 78 02 00 00    	jne    51d0 <mbr_part_create+0x6e0>
    4f58:	83 ec 0c             	sub    $0xc,%esp
    4f5b:	53                   	push   %ebx
    4f5c:	e8 cf 47 00 00       	call   9730 <free@plt>
    4f61:	8b 45 0c             	mov    0xc(%ebp),%eax
    4f64:	83 c4 10             	add    $0x10,%esp
    4f67:	83 78 1c 01          	cmpl   $0x1,0x1c(%eax)
    4f6b:	0f 84 35 02 00 00    	je     51a6 <mbr_part_create+0x6b6>
    4f71:	8b 5d 08             	mov    0x8(%ebp),%ebx
    4f74:	8d 47 04             	lea    0x4(%edi),%eax
    4f77:	8d 53 0c             	lea    0xc(%ebx),%edx
    4f7a:	89 57 08             	mov    %edx,0x8(%edi)
    4f7d:	8b 53 0c             	mov    0xc(%ebx),%edx
    4f80:	89 57 04             	mov    %edx,0x4(%edi)
    4f83:	89 42 04             	mov    %eax,0x4(%edx)
    4f86:	8b 53 14             	mov    0x14(%ebx),%edx
    4f89:	89 43 0c             	mov    %eax,0xc(%ebx)
    4f8c:	8d 47 0c             	lea    0xc(%edi),%eax
    4f8f:	89 77 10             	mov    %esi,0x10(%edi)
    4f92:	89 57 0c             	mov    %edx,0xc(%edi)
    4f95:	89 42 04             	mov    %eax,0x4(%edx)
    4f98:	89 43 14             	mov    %eax,0x14(%ebx)
    4f9b:	8b 45 10             	mov    0x10(%ebp),%eax
    4f9e:	31 f6                	xor    %esi,%esi
    4fa0:	89 38                	mov    %edi,(%eax)
    4fa2:	e9 22 fc ff ff       	jmp    4bc9 <mbr_part_create+0xd9>
    4fa7:	39 c3                	cmp    %eax,%ebx
    4fa9:	0f 82 09 fc ff ff    	jb     4bb8 <mbr_part_create+0xc8>
    4faf:	e9 34 fd ff ff       	jmp    4ce8 <mbr_part_create+0x1f8>
    4fb4:	39 c3                	cmp    %eax,%ebx
    4fb6:	0f 87 fc fb ff ff    	ja     4bb8 <mbr_part_create+0xc8>
    4fbc:	e9 47 fd ff ff       	jmp    4d08 <mbr_part_create+0x218>
    4fc1:	3b 4d a8             	cmp    -0x58(%ebp),%ecx
    4fc4:	0f 82 ee fb ff ff    	jb     4bb8 <mbr_part_create+0xc8>
    4fca:	e9 1d fe ff ff       	jmp    4dec <mbr_part_create+0x2fc>
    4fcf:	39 55 c8             	cmp    %edx,-0x38(%ebp)
    4fd2:	0f 87 e0 fb ff ff    	ja     4bb8 <mbr_part_create+0xc8>
    4fd8:	e9 41 fe ff ff       	jmp    4e1e <mbr_part_create+0x32e>
    4fdd:	8d 76 00             	lea    0x0(%esi),%esi
    4fe0:	8b 4d a4             	mov    -0x5c(%ebp),%ecx
    4fe3:	85 c9                	test   %ecx,%ecx
    4fe5:	0f 84 50 01 00 00    	je     513b <mbr_part_create+0x64b>
    4feb:	8b 41 28             	mov    0x28(%ecx),%eax
    4fee:	8b 51 2c             	mov    0x2c(%ecx),%edx
    4ff1:	03 41 30             	add    0x30(%ecx),%eax
    4ff4:	8b 75 d4             	mov    -0x2c(%ebp),%esi
    4ff7:	13 51 34             	adc    0x34(%ecx),%edx
    4ffa:	8b 5d d0             	mov    -0x30(%ebp),%ebx
    4ffd:	39 d6                	cmp    %edx,%esi
    4fff:	72 47                	jb     5048 <mbr_part_create+0x558>
    5001:	77 04                	ja     5007 <mbr_part_create+0x517>
    5003:	39 c3                	cmp    %eax,%ebx
    5005:	72 41                	jb     5048 <mbr_part_create+0x558>
    5007:	8b 47 18             	mov    0x18(%edi),%eax
    500a:	39 45 a8             	cmp    %eax,-0x58(%ebp)
    500d:	0f 84 28 01 00 00    	je     513b <mbr_part_create+0x64b>
    5013:	85 c0                	test   %eax,%eax
    5015:	0f 84 20 01 00 00    	je     513b <mbr_part_create+0x64b>
    501b:	89 c1                	mov    %eax,%ecx
    501d:	83 e9 14             	sub    $0x14,%ecx
    5020:	0f 84 15 01 00 00    	je     513b <mbr_part_create+0x64b>
    5026:	8b 58 1c             	mov    0x1c(%eax),%ebx
    5029:	8b 70 20             	mov    0x20(%eax),%esi
    502c:	03 58 14             	add    0x14(%eax),%ebx
    502f:	13 70 18             	adc    0x18(%eax),%esi
    5032:	89 d8                	mov    %ebx,%eax
    5034:	89 f2                	mov    %esi,%edx
    5036:	8b 5d d0             	mov    -0x30(%ebp),%ebx
    5039:	8b 75 d4             	mov    -0x2c(%ebp),%esi
    503c:	8d 74 26 00          	lea    0x0(%esi,%eiz,1),%esi
    5040:	39 d6                	cmp    %edx,%esi
    5042:	0f 83 e0 00 00 00    	jae    5128 <mbr_part_create+0x638>
    5048:	8d 51 14             	lea    0x14(%ecx),%edx
    504b:	8d 47 14             	lea    0x14(%edi),%eax
    504e:	89 57 18             	mov    %edx,0x18(%edi)
    5051:	8b 51 14             	mov    0x14(%ecx),%edx
    5054:	89 57 14             	mov    %edx,0x14(%edi)
    5057:	8b 51 14             	mov    0x14(%ecx),%edx
    505a:	89 42 04             	mov    %eax,0x4(%edx)
    505d:	89 41 14             	mov    %eax,0x14(%ecx)
    5060:	8b 45 08             	mov    0x8(%ebp),%eax
    5063:	89 fa                	mov    %edi,%edx
    5065:	e8 36 f6 ff ff       	call   46a0 <mbr_ebr_create>
    506a:	89 c6                	mov    %eax,%esi
    506c:	85 c0                	test   %eax,%eax
    506e:	0f 85 49 fb ff ff    	jne    4bbd <mbr_part_create+0xcd>
    5074:	8b 07                	mov    (%edi),%eax
    5076:	8b 4f 14             	mov    0x14(%edi),%ecx
    5079:	83 c0 1c             	add    $0x1c,%eax
    507c:	39 c1                	cmp    %eax,%ecx
    507e:	0f 84 e0 00 00 00    	je     5164 <mbr_part_create+0x674>
    5084:	85 c9                	test   %ecx,%ecx
    5086:	0f 84 d8 00 00 00    	je     5164 <mbr_part_create+0x674>
    508c:	83 e9 14             	sub    $0x14,%ecx
    508f:	0f 84 cf 00 00 00    	je     5164 <mbr_part_create+0x674>
    5095:	8b 45 08             	mov    0x8(%ebp),%eax
    5098:	83 c0 08             	add    $0x8,%eax
    509b:	8b 50 34             	mov    0x34(%eax),%edx
    509e:	e8 4d f8 ff ff       	call   48f0 <mbr_ebr_update_next.isra.5>
    50a3:	89 c6                	mov    %eax,%esi
    50a5:	85 c0                	test   %eax,%eax
    50a7:	0f 85 10 fb ff ff    	jne    4bbd <mbr_part_create+0xcd>
    50ad:	8b 45 08             	mov    0x8(%ebp),%eax
    50b0:	8b 50 20             	mov    0x20(%eax),%edx
    50b3:	39 55 a8             	cmp    %edx,-0x58(%ebp)
    50b6:	0f 84 df fe ff ff    	je     4f9b <mbr_part_create+0x4ab>
    50bc:	85 d2                	test   %edx,%edx
    50be:	0f 84 d7 fe ff ff    	je     4f9b <mbr_part_create+0x4ab>
    50c4:	89 d0                	mov    %edx,%eax
    50c6:	83 e8 14             	sub    $0x14,%eax
    50c9:	0f 84 cc fe ff ff    	je     4f9b <mbr_part_create+0x4ab>
    50cf:	8b 52 ec             	mov    -0x14(%edx),%edx
    50d2:	c7 40 1c 05 00 00 00 	movl   $0x5,0x1c(%eax)
    50d9:	83 c2 1c             	add    $0x1c,%edx
    50dc:	8b 40 18             	mov    0x18(%eax),%eax
    50df:	39 d0                	cmp    %edx,%eax
    50e1:	0f 84 b4 fe ff ff    	je     4f9b <mbr_part_create+0x4ab>
    50e7:	85 c0                	test   %eax,%eax
    50e9:	0f 84 ac fe ff ff    	je     4f9b <mbr_part_create+0x4ab>
    50ef:	bb 06 00 00 00       	mov    $0x6,%ebx
    50f4:	eb 20                	jmp    5116 <mbr_part_create+0x626>
    50f6:	8b 42 18             	mov    0x18(%edx),%eax
    50f9:	89 5a 1c             	mov    %ebx,0x1c(%edx)
    50fc:	8b 12                	mov    (%edx),%edx
    50fe:	8d 4b 01             	lea    0x1(%ebx),%ecx
    5101:	83 c2 1c             	add    $0x1c,%edx
    5104:	39 d0                	cmp    %edx,%eax
    5106:	0f 84 8f fe ff ff    	je     4f9b <mbr_part_create+0x4ab>
    510c:	85 c0                	test   %eax,%eax
    510e:	0f 84 87 fe ff ff    	je     4f9b <mbr_part_create+0x4ab>
    5114:	89 cb                	mov    %ecx,%ebx
    5116:	83 e8 14             	sub    $0x14,%eax
    5119:	89 c2                	mov    %eax,%edx
    511b:	75 d9                	jne    50f6 <mbr_part_create+0x606>
    511d:	e9 79 fe ff ff       	jmp    4f9b <mbr_part_create+0x4ab>
    5122:	8d b6 00 00 00 00    	lea    0x0(%esi),%esi
    5128:	0f 87 12 ff ff ff    	ja     5040 <mbr_part_create+0x550>
    512e:	39 c3                	cmp    %eax,%ebx
    5130:	0f 82 12 ff ff ff    	jb     5048 <mbr_part_create+0x558>
    5136:	e9 05 ff ff ff       	jmp    5040 <mbr_part_create+0x550>
    513b:	8b 75 a8             	mov    -0x58(%ebp),%esi
    513e:	8d 47 14             	lea    0x14(%edi),%eax
    5141:	89 77 18             	mov    %esi,0x18(%edi)
    5144:	8b 75 08             	mov    0x8(%ebp),%esi
    5147:	8b 56 1c             	mov    0x1c(%esi),%edx
    514a:	89 57 14             	mov    %edx,0x14(%edi)
    514d:	89 42 04             	mov    %eax,0x4(%edx)
    5150:	89 46 1c             	mov    %eax,0x1c(%esi)
    5153:	89 f0                	mov    %esi,%eax
    5155:	e9 09 ff ff ff       	jmp    5063 <mbr_part_create+0x573>
    515a:	be fe ff ff ff       	mov    $0xfffffffe,%esi
    515f:	e9 65 fa ff ff       	jmp    4bc9 <mbr_part_create+0xd9>
    5164:	8b 57 18             	mov    0x18(%edi),%edx
    5167:	39 d0                	cmp    %edx,%eax
    5169:	0f 84 3e ff ff ff    	je     50ad <mbr_part_create+0x5bd>
    516f:	85 d2                	test   %edx,%edx
    5171:	0f 84 36 ff ff ff    	je     50ad <mbr_part_create+0x5bd>
    5177:	83 ea 14             	sub    $0x14,%edx
    517a:	0f 84 2d ff ff ff    	je     50ad <mbr_part_create+0x5bd>
    5180:	8b 45 0c             	mov    0xc(%ebp),%eax
    5183:	8b 48 14             	mov    0x14(%eax),%ecx
    5186:	8b 58 18             	mov    0x18(%eax),%ebx
    5189:	89 5a 24             	mov    %ebx,0x24(%edx)
    518c:	89 4a 20             	mov    %ecx,0x20(%edx)
    518f:	8b 45 08             	mov    0x8(%ebp),%eax
    5192:	e8 09 f5 ff ff       	call   46a0 <mbr_ebr_create>
    5197:	89 c6                	mov    %eax,%esi
    5199:	85 c0                	test   %eax,%eax
    519b:	0f 85 1c fa ff ff    	jne    4bbd <mbr_part_create+0xcd>
    51a1:	e9 07 ff ff ff       	jmp    50ad <mbr_part_create+0x5bd>
    51a6:	8b 45 08             	mov    0x8(%ebp),%eax
    51a9:	31 d2                	xor    %edx,%edx
    51ab:	89 78 38             	mov    %edi,0x38(%eax)
    51ae:	e8 ed f4 ff ff       	call   46a0 <mbr_ebr_create>
    51b3:	85 c0                	test   %eax,%eax
    51b5:	0f 84 b6 fd ff ff    	je     4f71 <mbr_part_create+0x481>
    51bb:	8b 45 08             	mov    0x8(%ebp),%eax
    51be:	be f6 fe ff ff       	mov    $0xfffffef6,%esi
    51c3:	c7 40 38 00 00 00 00 	movl   $0x0,0x38(%eax)
    51ca:	e9 ee f9 ff ff       	jmp    4bbd <mbr_part_create+0xcd>
    51cf:	90                   	nop
    51d0:	83 ec 0c             	sub    $0xc,%esp
    51d3:	be f6 fe ff ff       	mov    $0xfffffef6,%esi
    51d8:	53                   	push   %ebx
    51d9:	e8 52 45 00 00       	call   9730 <free@plt>
    51de:	83 c4 10             	add    $0x10,%esp
    51e1:	e9 d7 f9 ff ff       	jmp    4bbd <mbr_part_create+0xcd>
    51e6:	be f6 fe ff ff       	mov    $0xfffffef6,%esi
    51eb:	e9 cd f9 ff ff       	jmp    4bbd <mbr_part_create+0xcd>

000051f0 <mbr_part_destroy>:
    51f0:	55                   	push   %ebp
    51f1:	89 e5                	mov    %esp,%ebp
    51f3:	57                   	push   %edi
    51f4:	56                   	push   %esi
    51f5:	53                   	push   %ebx
    51f6:	83 ec 2c             	sub    $0x2c,%esp
    51f9:	8b 5d 08             	mov    0x8(%ebp),%ebx
    51fc:	8b 43 0c             	mov    0xc(%ebx),%eax
    51ff:	85 c0                	test   %eax,%eax
    5201:	0f 84 19 01 00 00    	je     5320 <mbr_part_destroy+0x130>
    5207:	8b 43 10             	mov    0x10(%ebx),%eax
    520a:	85 c0                	test   %eax,%eax
    520c:	0f 84 15 01 00 00    	je     5327 <mbr_part_destroy+0x137>
    5212:	50                   	push   %eax
    5213:	8d 45 d8             	lea    -0x28(%ebp),%eax
    5216:	6a 10                	push   $0x10
    5218:	6a 00                	push   $0x0
    521a:	50                   	push   %eax
    521b:	e8 c0 43 00 00       	call   95e0 <memset@plt>
    5220:	8b 3b                	mov    (%ebx),%edi
    5222:	5a                   	pop    %edx
    5223:	8b 73 1c             	mov    0x1c(%ebx),%esi
    5226:	59                   	pop    %ecx
    5227:	8b 47 3c             	mov    0x3c(%edi),%eax
    522a:	50                   	push   %eax
    522b:	6a 01                	push   $0x1
    522d:	e8 de 42 00 00       	call   9510 <calloc@plt>
    5232:	83 c4 10             	add    $0x10,%esp
    5235:	89 c2                	mov    %eax,%edx
    5237:	85 c0                	test   %eax,%eax
    5239:	0f 84 c8 02 00 00    	je     5507 <mbr_part_destroy+0x317>
    523f:	83 ec 0c             	sub    $0xc,%esp
    5242:	89 55 d4             	mov    %edx,-0x2c(%ebp)
    5245:	52                   	push   %edx
    5246:	6a 01                	push   $0x1
    5248:	8b 47 08             	mov    0x8(%edi),%eax
    524b:	6a 00                	push   $0x0
    524d:	6a 00                	push   $0x0
    524f:	50                   	push   %eax
    5250:	e8 ab 2b 00 00       	call   7e00 <block_read_direct>
    5255:	83 c4 20             	add    $0x20,%esp
    5258:	8b 55 d4             	mov    -0x2c(%ebp),%edx
    525b:	85 c0                	test   %eax,%eax
    525d:	0f 85 76 02 00 00    	jne    54d9 <mbr_part_destroy+0x2e9>
    5263:	83 c6 1a             	add    $0x1a,%esi
    5266:	8b 4d d8             	mov    -0x28(%ebp),%ecx
    5269:	c1 e6 04             	shl    $0x4,%esi
    526c:	83 ec 0c             	sub    $0xc,%esp
    526f:	8d 04 32             	lea    (%edx,%esi,1),%eax
    5272:	89 48 0e             	mov    %ecx,0xe(%eax)
    5275:	8b 4d dc             	mov    -0x24(%ebp),%ecx
    5278:	89 48 12             	mov    %ecx,0x12(%eax)
    527b:	8b 4d e0             	mov    -0x20(%ebp),%ecx
    527e:	89 48 16             	mov    %ecx,0x16(%eax)
    5281:	8b 4d e4             	mov    -0x1c(%ebp),%ecx
    5284:	89 48 1a             	mov    %ecx,0x1a(%eax)
    5287:	52                   	push   %edx
    5288:	6a 01                	push   $0x1
    528a:	6a 00                	push   $0x0
    528c:	8b 4f 08             	mov    0x8(%edi),%ecx
    528f:	6a 00                	push   $0x0
    5291:	51                   	push   %ecx
    5292:	e8 49 2c 00 00       	call   7ee0 <block_write_direct>
    5297:	83 c4 20             	add    $0x20,%esp
    529a:	8b 55 d4             	mov    -0x2c(%ebp),%edx
    529d:	85 c0                	test   %eax,%eax
    529f:	0f 85 34 02 00 00    	jne    54d9 <mbr_part_destroy+0x2e9>
    52a5:	83 ec 0c             	sub    $0xc,%esp
    52a8:	52                   	push   %edx
    52a9:	e8 82 44 00 00       	call   9730 <free@plt>
    52ae:	8b 03                	mov    (%ebx),%eax
    52b0:	83 c4 10             	add    $0x10,%esp
    52b3:	3b 58 38             	cmp    0x38(%eax),%ebx
    52b6:	0f 84 33 02 00 00    	je     54ef <mbr_part_destroy+0x2ff>
    52bc:	8b 53 0c             	mov    0xc(%ebx),%edx
    52bf:	85 d2                	test   %edx,%edx
    52c1:	74 0f                	je     52d2 <mbr_part_destroy+0xe2>
    52c3:	8b 43 10             	mov    0x10(%ebx),%eax
    52c6:	85 c0                	test   %eax,%eax
    52c8:	74 08                	je     52d2 <mbr_part_destroy+0xe2>
    52ca:	89 10                	mov    %edx,(%eax)
    52cc:	8b 53 0c             	mov    0xc(%ebx),%edx
    52cf:	89 42 04             	mov    %eax,0x4(%edx)
    52d2:	c7 43 0c 00 00 00 00 	movl   $0x0,0xc(%ebx)
    52d9:	c7 43 10 00 00 00 00 	movl   $0x0,0x10(%ebx)
    52e0:	8b 53 04             	mov    0x4(%ebx),%edx
    52e3:	85 d2                	test   %edx,%edx
    52e5:	74 0f                	je     52f6 <mbr_part_destroy+0x106>
    52e7:	8b 43 08             	mov    0x8(%ebx),%eax
    52ea:	85 c0                	test   %eax,%eax
    52ec:	74 08                	je     52f6 <mbr_part_destroy+0x106>
    52ee:	89 10                	mov    %edx,(%eax)
    52f0:	8b 53 04             	mov    0x4(%ebx),%edx
    52f3:	89 42 04             	mov    %eax,0x4(%edx)
    52f6:	83 ec 0c             	sub    $0xc,%esp
    52f9:	c7 43 04 00 00 00 00 	movl   $0x0,0x4(%ebx)
    5300:	c7 43 08 00 00 00 00 	movl   $0x0,0x8(%ebx)
    5307:	53                   	push   %ebx
    5308:	e8 23 44 00 00       	call   9730 <free@plt>
    530d:	83 c4 10             	add    $0x10,%esp
    5310:	31 c0                	xor    %eax,%eax
    5312:	8d 65 f4             	lea    -0xc(%ebp),%esp
    5315:	5b                   	pop    %ebx
    5316:	5e                   	pop    %esi
    5317:	5f                   	pop    %edi
    5318:	5d                   	pop    %ebp
    5319:	c3                   	ret    
    531a:	8d b6 00 00 00 00    	lea    0x0(%esi),%esi
    5320:	8b 43 10             	mov    0x10(%ebx),%eax
    5323:	85 c0                	test   %eax,%eax
    5325:	74 09                	je     5330 <mbr_part_destroy+0x140>
    5327:	e8 8c 02 00 00       	call   55b8 <link_used.part.2>
    532c:	8d 74 26 00          	lea    0x0(%esi,%eiz,1),%esi
    5330:	8b 33                	mov    (%ebx),%esi
    5332:	8b 43 14             	mov    0x14(%ebx),%eax
    5335:	8d 56 1c             	lea    0x1c(%esi),%edx
    5338:	39 d0                	cmp    %edx,%eax
    533a:	0f 84 e8 01 00 00    	je     5528 <mbr_part_destroy+0x338>
    5340:	85 c0                	test   %eax,%eax
    5342:	0f 84 63 02 00 00    	je     55ab <mbr_part_destroy+0x3bb>
    5348:	89 c7                	mov    %eax,%edi
    534a:	83 ef 14             	sub    $0x14,%edi
    534d:	0f 84 dd 00 00 00    	je     5430 <mbr_part_destroy+0x240>
    5353:	8b 53 18             	mov    0x18(%ebx),%edx
    5356:	85 d2                	test   %edx,%edx
    5358:	74 08                	je     5362 <mbr_part_destroy+0x172>
    535a:	89 02                	mov    %eax,(%edx)
    535c:	8b 43 14             	mov    0x14(%ebx),%eax
    535f:	89 50 04             	mov    %edx,0x4(%eax)
    5362:	c7 43 14 00 00 00 00 	movl   $0x0,0x14(%ebx)
    5369:	c7 43 18 00 00 00 00 	movl   $0x0,0x18(%ebx)
    5370:	8b 56 3c             	mov    0x3c(%esi),%edx
    5373:	8d 46 08             	lea    0x8(%esi),%eax
    5376:	89 f9                	mov    %edi,%ecx
    5378:	e8 73 f5 ff ff       	call   48f0 <mbr_ebr_update_next.isra.5>
    537d:	85 c0                	test   %eax,%eax
    537f:	0f 85 33 01 00 00    	jne    54b8 <mbr_part_destroy+0x2c8>
    5385:	8b 3b                	mov    (%ebx),%edi
    5387:	50                   	push   %eax
    5388:	50                   	push   %eax
    5389:	8b 57 3c             	mov    0x3c(%edi),%edx
    538c:	52                   	push   %edx
    538d:	6a 01                	push   $0x1
    538f:	e8 7c 41 00 00       	call   9510 <calloc@plt>
    5394:	83 c4 10             	add    $0x10,%esp
    5397:	89 c6                	mov    %eax,%esi
    5399:	85 c0                	test   %eax,%eax
    539b:	0f 84 66 01 00 00    	je     5507 <mbr_part_destroy+0x317>
    53a1:	83 ec 0c             	sub    $0xc,%esp
    53a4:	8b 53 2c             	mov    0x2c(%ebx),%edx
    53a7:	50                   	push   %eax
    53a8:	8b 43 28             	mov    0x28(%ebx),%eax
    53ab:	2b 43 20             	sub    0x20(%ebx),%eax
    53ae:	6a 01                	push   $0x1
    53b0:	1b 53 24             	sbb    0x24(%ebx),%edx
    53b3:	52                   	push   %edx
    53b4:	50                   	push   %eax
    53b5:	8b 47 08             	mov    0x8(%edi),%eax
    53b8:	50                   	push   %eax
    53b9:	e8 22 2b 00 00       	call   7ee0 <block_write_direct>
    53be:	83 c4 20             	add    $0x20,%esp
    53c1:	85 c0                	test   %eax,%eax
    53c3:	0f 85 48 01 00 00    	jne    5511 <mbr_part_destroy+0x321>
    53c9:	83 ec 0c             	sub    $0xc,%esp
    53cc:	56                   	push   %esi
    53cd:	e8 5e 43 00 00       	call   9730 <free@plt>
    53d2:	83 c4 10             	add    $0x10,%esp
    53d5:	8b 03                	mov    (%ebx),%eax
    53d7:	83 c0 1c             	add    $0x1c,%eax
    53da:	8b 50 04             	mov    0x4(%eax),%edx
    53dd:	39 c2                	cmp    %eax,%edx
    53df:	0f 84 fb fe ff ff    	je     52e0 <mbr_part_destroy+0xf0>
    53e5:	85 d2                	test   %edx,%edx
    53e7:	0f 84 f3 fe ff ff    	je     52e0 <mbr_part_destroy+0xf0>
    53ed:	83 ea 14             	sub    $0x14,%edx
    53f0:	0f 84 ea fe ff ff    	je     52e0 <mbr_part_destroy+0xf0>
    53f6:	be 05 00 00 00       	mov    $0x5,%esi
    53fb:	90                   	nop
    53fc:	8d 74 26 00          	lea    0x0(%esi,%eiz,1),%esi
    5400:	8b 42 18             	mov    0x18(%edx),%eax
    5403:	89 72 1c             	mov    %esi,0x1c(%edx)
    5406:	8b 12                	mov    (%edx),%edx
    5408:	8d 4e 01             	lea    0x1(%esi),%ecx
    540b:	83 c2 1c             	add    $0x1c,%edx
    540e:	39 d0                	cmp    %edx,%eax
    5410:	0f 84 ca fe ff ff    	je     52e0 <mbr_part_destroy+0xf0>
    5416:	85 c0                	test   %eax,%eax
    5418:	0f 84 c2 fe ff ff    	je     52e0 <mbr_part_destroy+0xf0>
    541e:	83 e8 14             	sub    $0x14,%eax
    5421:	89 ce                	mov    %ecx,%esi
    5423:	89 c2                	mov    %eax,%edx
    5425:	75 d9                	jne    5400 <mbr_part_destroy+0x210>
    5427:	e9 b4 fe ff ff       	jmp    52e0 <mbr_part_destroy+0xf0>
    542c:	8d 74 26 00          	lea    0x0(%esi,%eiz,1),%esi
    5430:	8b 7b 18             	mov    0x18(%ebx),%edi
    5433:	39 fa                	cmp    %edi,%edx
    5435:	0f 84 5f 01 00 00    	je     559a <mbr_part_destroy+0x3aa>
    543b:	85 ff                	test   %edi,%edi
    543d:	0f 84 fa 00 00 00    	je     553d <mbr_part_destroy+0x34d>
    5443:	8d 53 14             	lea    0x14(%ebx),%edx
    5446:	8d 4f ec             	lea    -0x14(%edi),%ecx
    5449:	89 55 d4             	mov    %edx,-0x2c(%ebp)
    544c:	85 c0                	test   %eax,%eax
    544e:	74 08                	je     5458 <mbr_part_destroy+0x268>
    5450:	89 07                	mov    %eax,(%edi)
    5452:	8b 43 14             	mov    0x14(%ebx),%eax
    5455:	89 78 04             	mov    %edi,0x4(%eax)
    5458:	c7 43 14 00 00 00 00 	movl   $0x0,0x14(%ebx)
    545f:	c7 43 18 00 00 00 00 	movl   $0x0,0x18(%ebx)
    5466:	85 c9                	test   %ecx,%ecx
    5468:	0f 84 dd 00 00 00    	je     554b <mbr_part_destroy+0x35b>
    546e:	8b 7e 38             	mov    0x38(%esi),%edi
    5471:	8b 41 28             	mov    0x28(%ecx),%eax
    5474:	8b 51 2c             	mov    0x2c(%ecx),%edx
    5477:	2b 47 28             	sub    0x28(%edi),%eax
    547a:	1b 57 2c             	sbb    0x2c(%edi),%edx
    547d:	89 41 20             	mov    %eax,0x20(%ecx)
    5480:	89 51 24             	mov    %edx,0x24(%ecx)
    5483:	89 f0                	mov    %esi,%eax
    5485:	89 ca                	mov    %ecx,%edx
    5487:	e8 14 f2 ff ff       	call   46a0 <mbr_ebr_create>
    548c:	85 c0                	test   %eax,%eax
    548e:	0f 84 41 ff ff ff    	je     53d5 <mbr_part_destroy+0x1e5>
    5494:	8b 03                	mov    (%ebx),%eax
    5496:	8b 7d d4             	mov    -0x2c(%ebp),%edi
    5499:	8d 50 1c             	lea    0x1c(%eax),%edx
    549c:	89 53 14             	mov    %edx,0x14(%ebx)
    549f:	8b 50 20             	mov    0x20(%eax),%edx
    54a2:	89 53 18             	mov    %edx,0x18(%ebx)
    54a5:	8b 50 20             	mov    0x20(%eax),%edx
    54a8:	89 3a                	mov    %edi,(%edx)
    54aa:	89 78 20             	mov    %edi,0x20(%eax)
    54ad:	b8 f6 fe ff ff       	mov    $0xfffffef6,%eax
    54b2:	e9 5b fe ff ff       	jmp    5312 <mbr_part_destroy+0x122>
    54b7:	90                   	nop
    54b8:	8d 57 14             	lea    0x14(%edi),%edx
    54bb:	8d 43 14             	lea    0x14(%ebx),%eax
    54be:	89 53 14             	mov    %edx,0x14(%ebx)
    54c1:	8b 57 18             	mov    0x18(%edi),%edx
    54c4:	89 53 18             	mov    %edx,0x18(%ebx)
    54c7:	8b 57 18             	mov    0x18(%edi),%edx
    54ca:	89 02                	mov    %eax,(%edx)
    54cc:	89 47 18             	mov    %eax,0x18(%edi)
    54cf:	b8 f6 fe ff ff       	mov    $0xfffffef6,%eax
    54d4:	e9 39 fe ff ff       	jmp    5312 <mbr_part_destroy+0x122>
    54d9:	83 ec 0c             	sub    $0xc,%esp
    54dc:	52                   	push   %edx
    54dd:	e8 4e 42 00 00       	call   9730 <free@plt>
    54e2:	83 c4 10             	add    $0x10,%esp
    54e5:	b8 f6 fe ff ff       	mov    $0xfffffef6,%eax
    54ea:	e9 23 fe ff ff       	jmp    5312 <mbr_part_destroy+0x122>
    54ef:	c7 40 38 00 00 00 00 	movl   $0x0,0x38(%eax)
    54f6:	e9 c1 fd ff ff       	jmp    52bc <mbr_part_destroy+0xcc>
    54fb:	83 ec 0c             	sub    $0xc,%esp
    54fe:	57                   	push   %edi
    54ff:	e8 2c 42 00 00       	call   9730 <free@plt>
    5504:	83 c4 10             	add    $0x10,%esp
    5507:	b8 f6 fe ff ff       	mov    $0xfffffef6,%eax
    550c:	e9 01 fe ff ff       	jmp    5312 <mbr_part_destroy+0x122>
    5511:	83 ec 0c             	sub    $0xc,%esp
    5514:	56                   	push   %esi
    5515:	e8 16 42 00 00       	call   9730 <free@plt>
    551a:	83 c4 10             	add    $0x10,%esp
    551d:	b8 f6 fe ff ff       	mov    $0xfffffef6,%eax
    5522:	e9 eb fd ff ff       	jmp    5312 <mbr_part_destroy+0x122>
    5527:	90                   	nop
    5528:	8b 7b 18             	mov    0x18(%ebx),%edi
    552b:	39 f8                	cmp    %edi,%eax
    552d:	0f 85 08 ff ff ff    	jne    543b <mbr_part_destroy+0x24b>
    5533:	8d 4b 14             	lea    0x14(%ebx),%ecx
    5536:	85 c0                	test   %eax,%eax
    5538:	89 4d d4             	mov    %ecx,-0x2c(%ebp)
    553b:	75 63                	jne    55a0 <mbr_part_destroy+0x3b0>
    553d:	c7 43 14 00 00 00 00 	movl   $0x0,0x14(%ebx)
    5544:	c7 43 18 00 00 00 00 	movl   $0x0,0x18(%ebx)
    554b:	50                   	push   %eax
    554c:	50                   	push   %eax
    554d:	8b 46 3c             	mov    0x3c(%esi),%eax
    5550:	50                   	push   %eax
    5551:	6a 01                	push   $0x1
    5553:	e8 b8 3f 00 00       	call   9510 <calloc@plt>
    5558:	83 c4 10             	add    $0x10,%esp
    555b:	89 c7                	mov    %eax,%edi
    555d:	85 c0                	test   %eax,%eax
    555f:	74 a6                	je     5507 <mbr_part_destroy+0x317>
    5561:	83 ec 0c             	sub    $0xc,%esp
    5564:	8b 53 2c             	mov    0x2c(%ebx),%edx
    5567:	50                   	push   %eax
    5568:	8b 43 28             	mov    0x28(%ebx),%eax
    556b:	2b 43 20             	sub    0x20(%ebx),%eax
    556e:	6a 01                	push   $0x1
    5570:	1b 53 24             	sbb    0x24(%ebx),%edx
    5573:	52                   	push   %edx
    5574:	50                   	push   %eax
    5575:	8b 46 08             	mov    0x8(%esi),%eax
    5578:	50                   	push   %eax
    5579:	e8 62 29 00 00       	call   7ee0 <block_write_direct>
    557e:	83 c4 20             	add    $0x20,%esp
    5581:	85 c0                	test   %eax,%eax
    5583:	0f 85 72 ff ff ff    	jne    54fb <mbr_part_destroy+0x30b>
    5589:	83 ec 0c             	sub    $0xc,%esp
    558c:	57                   	push   %edi
    558d:	e8 9e 41 00 00       	call   9730 <free@plt>
    5592:	83 c4 10             	add    $0x10,%esp
    5595:	e9 3b fe ff ff       	jmp    53d5 <mbr_part_destroy+0x1e5>
    559a:	8d 4b 14             	lea    0x14(%ebx),%ecx
    559d:	89 4d d4             	mov    %ecx,-0x2c(%ebp)
    55a0:	85 d2                	test   %edx,%edx
    55a2:	74 99                	je     553d <mbr_part_destroy+0x34d>
    55a4:	31 c9                	xor    %ecx,%ecx
    55a6:	e9 a5 fe ff ff       	jmp    5450 <mbr_part_destroy+0x260>
    55ab:	8b 7b 18             	mov    0x18(%ebx),%edi
    55ae:	39 fa                	cmp    %edi,%edx
    55b0:	0f 85 85 fe ff ff    	jne    543b <mbr_part_destroy+0x24b>
    55b6:	eb 85                	jmp    553d <mbr_part_destroy+0x34d>

000055b8 <link_used.part.2>:
    55b8:	55                   	push   %ebp
    55b9:	89 e5                	mov    %esp,%ebp
    55bb:	83 ec 0c             	sub    $0xc,%esp
    55be:	68 8a 01 00 00       	push   $0x18a
    55c3:	68 84 8e 00 00       	push   $0x8e84
    55c8:	68 a4 8e 00 00       	push   $0x8ea4
    55cd:	e8 2e 3f 00 00       	call   9500 <assert_abort@plt>
    55d2:	66 90                	xchg   %ax,%ax
    55d4:	66 90                	xchg   %ax,%ax
    55d6:	66 90                	xchg   %ax,%ax
    55d8:	66 90                	xchg   %ax,%ax
    55da:	66 90                	xchg   %ax,%ax
    55dc:	66 90                	xchg   %ax,%ax
    55de:	66 90                	xchg   %ax,%ax

000055e0 <gpt_part_first>:
    55e0:	55                   	push   %ebp
    55e1:	89 e5                	mov    %esp,%ebp
    55e3:	8b 55 08             	mov    0x8(%ebp),%edx
    55e6:	8b 42 10             	mov    0x10(%edx),%eax
    55e9:	85 c0                	test   %eax,%eax
    55eb:	74 0c                	je     55f9 <gpt_part_first+0x19>
    55ed:	83 c2 0c             	add    $0xc,%edx
    55f0:	39 d0                	cmp    %edx,%eax
    55f2:	74 05                	je     55f9 <gpt_part_first+0x19>
    55f4:	83 e8 04             	sub    $0x4,%eax
    55f7:	5d                   	pop    %ebp
    55f8:	c3                   	ret    
    55f9:	31 c0                	xor    %eax,%eax
    55fb:	5d                   	pop    %ebp
    55fc:	c3                   	ret    
    55fd:	8d 76 00             	lea    0x0(%esi),%esi

00005600 <gpt_part_next>:
    5600:	55                   	push   %ebp
    5601:	89 e5                	mov    %esp,%ebp
    5603:	8b 55 08             	mov    0x8(%ebp),%edx
    5606:	8b 42 08             	mov    0x8(%edx),%eax
    5609:	8b 12                	mov    (%edx),%edx
    560b:	83 c2 0c             	add    $0xc,%edx
    560e:	39 d0                	cmp    %edx,%eax
    5610:	74 09                	je     561b <gpt_part_next+0x1b>
    5612:	85 c0                	test   %eax,%eax
    5614:	74 05                	je     561b <gpt_part_next+0x1b>
    5616:	83 e8 04             	sub    $0x4,%eax
    5619:	5d                   	pop    %ebp
    561a:	c3                   	ret    
    561b:	31 c0                	xor    %eax,%eax
    561d:	5d                   	pop    %ebp
    561e:	c3                   	ret    
    561f:	90                   	nop

00005620 <gpt_part_get_info>:
    5620:	55                   	push   %ebp
    5621:	89 e5                	mov    %esp,%ebp
    5623:	53                   	push   %ebx
    5624:	8b 5d 08             	mov    0x8(%ebp),%ebx
    5627:	8b 4d 0c             	mov    0xc(%ebp),%ecx
    562a:	8b 43 1c             	mov    0x1c(%ebx),%eax
    562d:	8b 53 2c             	mov    0x2c(%ebx),%edx
    5630:	89 01                	mov    %eax,(%ecx)
    5632:	8b 43 28             	mov    0x28(%ebx),%eax
    5635:	89 41 08             	mov    %eax,0x8(%ecx)
    5638:	89 51 0c             	mov    %edx,0xc(%ecx)
    563b:	8b 43 30             	mov    0x30(%ebx),%eax
    563e:	8b 53 34             	mov    0x34(%ebx),%edx
    5641:	c7 41 04 00 00 00 00 	movl   $0x0,0x4(%ecx)
    5648:	89 41 10             	mov    %eax,0x10(%ecx)
    564b:	89 51 14             	mov    %edx,0x14(%ecx)
    564e:	5b                   	pop    %ebx
    564f:	5d                   	pop    %ebp
    5650:	c3                   	ret    
    5651:	eb 0d                	jmp    5660 <gpt_close>
    5653:	90                   	nop
    5654:	90                   	nop
    5655:	90                   	nop
    5656:	90                   	nop
    5657:	90                   	nop
    5658:	90                   	nop
    5659:	90                   	nop
    565a:	90                   	nop
    565b:	90                   	nop
    565c:	90                   	nop
    565d:	90                   	nop
    565e:	90                   	nop
    565f:	90                   	nop

00005660 <gpt_close>:
    5660:	55                   	push   %ebp
    5661:	89 e5                	mov    %esp,%ebp
    5663:	56                   	push   %esi
    5664:	53                   	push   %ebx
    5665:	8b 5d 08             	mov    0x8(%ebp),%ebx
    5668:	8b 43 10             	mov    0x10(%ebx),%eax
    566b:	8d 73 0c             	lea    0xc(%ebx),%esi
    566e:	39 c6                	cmp    %eax,%esi
    5670:	75 66                	jne    56d8 <gpt_close+0x78>
    5672:	eb 68                	jmp    56dc <gpt_close+0x7c>
    5674:	8d 74 26 00          	lea    0x0(%esi,%eiz,1),%esi
    5678:	83 e8 04             	sub    $0x4,%eax
    567b:	74 5f                	je     56dc <gpt_close+0x7c>
    567d:	8b 48 04             	mov    0x4(%eax),%ecx
    5680:	85 c9                	test   %ecx,%ecx
    5682:	74 0f                	je     5693 <gpt_close+0x33>
    5684:	8b 50 08             	mov    0x8(%eax),%edx
    5687:	85 d2                	test   %edx,%edx
    5689:	74 08                	je     5693 <gpt_close+0x33>
    568b:	89 0a                	mov    %ecx,(%edx)
    568d:	8b 48 04             	mov    0x4(%eax),%ecx
    5690:	89 51 04             	mov    %edx,0x4(%ecx)
    5693:	8b 48 0c             	mov    0xc(%eax),%ecx
    5696:	c7 40 04 00 00 00 00 	movl   $0x0,0x4(%eax)
    569d:	c7 40 08 00 00 00 00 	movl   $0x0,0x8(%eax)
    56a4:	85 c9                	test   %ecx,%ecx
    56a6:	74 0f                	je     56b7 <gpt_close+0x57>
    56a8:	8b 50 10             	mov    0x10(%eax),%edx
    56ab:	85 d2                	test   %edx,%edx
    56ad:	74 08                	je     56b7 <gpt_close+0x57>
    56af:	89 0a                	mov    %ecx,(%edx)
    56b1:	8b 48 0c             	mov    0xc(%eax),%ecx
    56b4:	89 51 04             	mov    %edx,0x4(%ecx)
    56b7:	83 ec 0c             	sub    $0xc,%esp
    56ba:	c7 40 0c 00 00 00 00 	movl   $0x0,0xc(%eax)
    56c1:	c7 40 10 00 00 00 00 	movl   $0x0,0x10(%eax)
    56c8:	50                   	push   %eax
    56c9:	e8 62 40 00 00       	call   9730 <free@plt>
    56ce:	8b 43 10             	mov    0x10(%ebx),%eax
    56d1:	83 c4 10             	add    $0x10,%esp
    56d4:	39 c6                	cmp    %eax,%esi
    56d6:	74 04                	je     56dc <gpt_close+0x7c>
    56d8:	85 c0                	test   %eax,%eax
    56da:	75 9c                	jne    5678 <gpt_close+0x18>
    56dc:	89 5d 08             	mov    %ebx,0x8(%ebp)
    56df:	8d 65 f8             	lea    -0x8(%ebp),%esp
    56e2:	5b                   	pop    %ebx
    56e3:	5e                   	pop    %esi
    56e4:	5d                   	pop    %ebp
    56e5:	e9 46 40 00 00       	jmp    9730 <free@plt>
    56ea:	8d b6 00 00 00 00    	lea    0x0(%esi),%esi

000056f0 <gpt_pte_update>:
    56f0:	55                   	push   %ebp
    56f1:	89 e5                	mov    %esp,%ebp
    56f3:	57                   	push   %edi
    56f4:	56                   	push   %esi
    56f5:	53                   	push   %ebx
    56f6:	89 c3                	mov    %eax,%ebx
    56f8:	83 ec 44             	sub    $0x44,%esp
    56fb:	8b 40 6c             	mov    0x6c(%eax),%eax
    56fe:	89 55 cc             	mov    %edx,-0x34(%ebp)
    5701:	8b 53 34             	mov    0x34(%ebx),%edx
    5704:	0f af c8             	imul   %eax,%ecx
    5707:	0f af c2             	imul   %edx,%eax
    570a:	89 4d c8             	mov    %ecx,-0x38(%ebp)
    570d:	89 45 d4             	mov    %eax,-0x2c(%ebp)
    5710:	8b 4b 3c             	mov    0x3c(%ebx),%ecx
    5713:	8b 43 64             	mov    0x64(%ebx),%eax
    5716:	0f af c1             	imul   %ecx,%eax
    5719:	50                   	push   %eax
    571a:	6a 01                	push   $0x1
    571c:	e8 ef 3d 00 00       	call   9510 <calloc@plt>
    5721:	83 c4 10             	add    $0x10,%esp
    5724:	89 45 e0             	mov    %eax,-0x20(%ebp)
    5727:	85 c0                	test   %eax,%eax
    5729:	0f 84 f6 01 00 00    	je     5925 <gpt_pte_update+0x235>
    572f:	c7 45 e4 00 00 00 00 	movl   $0x0,-0x1c(%ebp)
    5736:	8b 45 e4             	mov    -0x1c(%ebp),%eax
    5739:	83 ec 0c             	sub    $0xc,%esp
    573c:	8b 54 c3 58          	mov    0x58(%ebx,%eax,8),%edx
    5740:	8b 4b 64             	mov    0x64(%ebx),%ecx
    5743:	8b 44 c3 54          	mov    0x54(%ebx,%eax,8),%eax
    5747:	8b 75 e0             	mov    -0x20(%ebp),%esi
    574a:	8b 7b 08             	mov    0x8(%ebx),%edi
    574d:	56                   	push   %esi
    574e:	89 45 d8             	mov    %eax,-0x28(%ebp)
    5751:	51                   	push   %ecx
    5752:	89 55 dc             	mov    %edx,-0x24(%ebp)
    5755:	52                   	push   %edx
    5756:	89 4d d0             	mov    %ecx,-0x30(%ebp)
    5759:	50                   	push   %eax
    575a:	57                   	push   %edi
    575b:	e8 a0 26 00 00       	call   7e00 <block_read_direct>
    5760:	83 c4 20             	add    $0x20,%esp
    5763:	85 c0                	test   %eax,%eax
    5765:	0f 85 69 01 00 00    	jne    58d4 <gpt_pte_update+0x1e4>
    576b:	8b 4d d4             	mov    -0x2c(%ebp),%ecx
    576e:	52                   	push   %edx
    576f:	52                   	push   %edx
    5770:	51                   	push   %ecx
    5771:	56                   	push   %esi
    5772:	e8 19 3e 00 00       	call   9590 <compute_crc32@plt>
    5777:	83 c4 10             	add    $0x10,%esp
    577a:	3b 43 70             	cmp    0x70(%ebx),%eax
    577d:	0f 85 51 01 00 00    	jne    58d4 <gpt_pte_update+0x1e4>
    5783:	8b 45 c8             	mov    -0x38(%ebp),%eax
    5786:	01 c6                	add    %eax,%esi
    5788:	b8 80 00 00 00       	mov    $0x80,%eax
    578d:	89 f7                	mov    %esi,%edi
    578f:	8b 75 cc             	mov    -0x34(%ebp),%esi
    5792:	f7 c7 01 00 00 00    	test   $0x1,%edi
    5798:	0f 85 52 01 00 00    	jne    58f0 <gpt_pte_update+0x200>
    579e:	f7 c7 02 00 00 00    	test   $0x2,%edi
    57a4:	0f 85 66 01 00 00    	jne    5910 <gpt_pte_update+0x220>
    57aa:	89 c1                	mov    %eax,%ecx
    57ac:	31 d2                	xor    %edx,%edx
    57ae:	c1 e9 02             	shr    $0x2,%ecx
    57b1:	a8 02                	test   $0x2,%al
    57b3:	f3 a5                	rep movsl %ds:(%esi),%es:(%edi)
    57b5:	74 0b                	je     57c2 <gpt_pte_update+0xd2>
    57b7:	66 8b 16             	mov    (%esi),%dx
    57ba:	66 89 17             	mov    %dx,(%edi)
    57bd:	ba 02 00 00 00       	mov    $0x2,%edx
    57c2:	a8 01                	test   $0x1,%al
    57c4:	74 06                	je     57cc <gpt_pte_update+0xdc>
    57c6:	8a 04 16             	mov    (%esi,%edx,1),%al
    57c9:	88 04 17             	mov    %al,(%edi,%edx,1)
    57cc:	83 ec 0c             	sub    $0xc,%esp
    57cf:	8b 45 d0             	mov    -0x30(%ebp),%eax
    57d2:	8b 7d e0             	mov    -0x20(%ebp),%edi
    57d5:	57                   	push   %edi
    57d6:	50                   	push   %eax
    57d7:	8b 45 dc             	mov    -0x24(%ebp),%eax
    57da:	50                   	push   %eax
    57db:	8b 45 d8             	mov    -0x28(%ebp),%eax
    57de:	50                   	push   %eax
    57df:	8b 43 08             	mov    0x8(%ebx),%eax
    57e2:	50                   	push   %eax
    57e3:	e8 f8 26 00 00       	call   7ee0 <block_write_direct>
    57e8:	83 c4 20             	add    $0x20,%esp
    57eb:	89 c6                	mov    %eax,%esi
    57ed:	85 c0                	test   %eax,%eax
    57ef:	0f 85 df 00 00 00    	jne    58d4 <gpt_pte_update+0x1e4>
    57f5:	8b 55 d4             	mov    -0x2c(%ebp),%edx
    57f8:	50                   	push   %eax
    57f9:	50                   	push   %eax
    57fa:	52                   	push   %edx
    57fb:	57                   	push   %edi
    57fc:	e8 8f 3d 00 00       	call   9590 <compute_crc32@plt>
    5801:	89 45 d8             	mov    %eax,-0x28(%ebp)
    5804:	8b 43 3c             	mov    0x3c(%ebx),%eax
    5807:	59                   	pop    %ecx
    5808:	5f                   	pop    %edi
    5809:	50                   	push   %eax
    580a:	6a 01                	push   $0x1
    580c:	e8 ff 3c 00 00       	call   9510 <calloc@plt>
    5811:	83 c4 10             	add    $0x10,%esp
    5814:	89 c7                	mov    %eax,%edi
    5816:	85 c0                	test   %eax,%eax
    5818:	0f 84 aa 00 00 00    	je     58c8 <gpt_pte_update+0x1d8>
    581e:	83 ec 0c             	sub    $0xc,%esp
    5821:	57                   	push   %edi
    5822:	6a 01                	push   $0x1
    5824:	8b 44 f3 44          	mov    0x44(%ebx,%esi,8),%eax
    5828:	50                   	push   %eax
    5829:	8b 44 f3 40          	mov    0x40(%ebx,%esi,8),%eax
    582d:	50                   	push   %eax
    582e:	8b 43 08             	mov    0x8(%ebx),%eax
    5831:	50                   	push   %eax
    5832:	e8 c9 25 00 00       	call   7e00 <block_read_direct>
    5837:	83 c4 20             	add    $0x20,%esp
    583a:	85 c0                	test   %eax,%eax
    583c:	0f 85 86 00 00 00    	jne    58c8 <gpt_pte_update+0x1d8>
    5842:	8b 45 d8             	mov    -0x28(%ebp),%eax
    5845:	c7 47 10 00 00 00 00 	movl   $0x0,0x10(%edi)
    584c:	89 47 58             	mov    %eax,0x58(%edi)
    584f:	8b 43 50             	mov    0x50(%ebx),%eax
    5852:	52                   	push   %edx
    5853:	52                   	push   %edx
    5854:	50                   	push   %eax
    5855:	57                   	push   %edi
    5856:	e8 35 3d 00 00       	call   9590 <compute_crc32@plt>
    585b:	89 47 10             	mov    %eax,0x10(%edi)
    585e:	89 3c 24             	mov    %edi,(%esp)
    5861:	6a 01                	push   $0x1
    5863:	8b 4c f3 44          	mov    0x44(%ebx,%esi,8),%ecx
    5867:	51                   	push   %ecx
    5868:	8b 44 f3 40          	mov    0x40(%ebx,%esi,8),%eax
    586c:	50                   	push   %eax
    586d:	8b 43 08             	mov    0x8(%ebx),%eax
    5870:	50                   	push   %eax
    5871:	e8 6a 26 00 00       	call   7ee0 <block_write_direct>
    5876:	83 c4 20             	add    $0x20,%esp
    5879:	85 c0                	test   %eax,%eax
    587b:	75 4b                	jne    58c8 <gpt_pte_update+0x1d8>
    587d:	46                   	inc    %esi
    587e:	83 fe 02             	cmp    $0x2,%esi
    5881:	75 9b                	jne    581e <gpt_pte_update+0x12e>
    5883:	83 ec 0c             	sub    $0xc,%esp
    5886:	89 c6                	mov    %eax,%esi
    5888:	57                   	push   %edi
    5889:	e8 a2 3e 00 00       	call   9730 <free@plt>
    588e:	8b 45 e4             	mov    -0x1c(%ebp),%eax
    5891:	83 c4 10             	add    $0x10,%esp
    5894:	40                   	inc    %eax
    5895:	89 45 e4             	mov    %eax,-0x1c(%ebp)
    5898:	8b 45 e4             	mov    -0x1c(%ebp),%eax
    589b:	83 f8 02             	cmp    $0x2,%eax
    589e:	0f 85 95 fe ff ff    	jne    5739 <gpt_pte_update+0x49>
    58a4:	83 ec 0c             	sub    $0xc,%esp
    58a7:	8b 45 d8             	mov    -0x28(%ebp),%eax
    58aa:	8b 4d e0             	mov    -0x20(%ebp),%ecx
    58ad:	89 43 70             	mov    %eax,0x70(%ebx)
    58b0:	51                   	push   %ecx
    58b1:	89 75 e4             	mov    %esi,-0x1c(%ebp)
    58b4:	e8 77 3e 00 00       	call   9730 <free@plt>
    58b9:	83 c4 10             	add    $0x10,%esp
    58bc:	8b 45 e4             	mov    -0x1c(%ebp),%eax
    58bf:	8d 65 f4             	lea    -0xc(%ebp),%esp
    58c2:	5b                   	pop    %ebx
    58c3:	5e                   	pop    %esi
    58c4:	5f                   	pop    %edi
    58c5:	5d                   	pop    %ebp
    58c6:	c3                   	ret    
    58c7:	90                   	nop
    58c8:	83 ec 0c             	sub    $0xc,%esp
    58cb:	57                   	push   %edi
    58cc:	e8 5f 3e 00 00       	call   9730 <free@plt>
    58d1:	83 c4 10             	add    $0x10,%esp
    58d4:	83 ec 0c             	sub    $0xc,%esp
    58d7:	8b 55 e0             	mov    -0x20(%ebp),%edx
    58da:	52                   	push   %edx
    58db:	e8 50 3e 00 00       	call   9730 <free@plt>
    58e0:	83 c4 10             	add    $0x10,%esp
    58e3:	8d 65 f4             	lea    -0xc(%ebp),%esp
    58e6:	b8 f6 fe ff ff       	mov    $0xfffffef6,%eax
    58eb:	5b                   	pop    %ebx
    58ec:	5e                   	pop    %esi
    58ed:	5f                   	pop    %edi
    58ee:	5d                   	pop    %ebp
    58ef:	c3                   	ret    
    58f0:	8a 06                	mov    (%esi),%al
    58f2:	47                   	inc    %edi
    58f3:	88 45 c7             	mov    %al,-0x39(%ebp)
    58f6:	88 47 ff             	mov    %al,-0x1(%edi)
    58f9:	8d 76 01             	lea    0x1(%esi),%esi
    58fc:	b8 7f 00 00 00       	mov    $0x7f,%eax
    5901:	f7 c7 02 00 00 00    	test   $0x2,%edi
    5907:	0f 84 9d fe ff ff    	je     57aa <gpt_pte_update+0xba>
    590d:	8d 76 00             	lea    0x0(%esi),%esi
    5910:	66 8b 16             	mov    (%esi),%dx
    5913:	83 c7 02             	add    $0x2,%edi
    5916:	66 89 57 fe          	mov    %dx,-0x2(%edi)
    591a:	83 c6 02             	add    $0x2,%esi
    591d:	83 e8 02             	sub    $0x2,%eax
    5920:	e9 85 fe ff ff       	jmp    57aa <gpt_pte_update+0xba>
    5925:	b8 fe ff ff ff       	mov    $0xfffffffe,%eax
    592a:	eb 93                	jmp    58bf <gpt_pte_update+0x1cf>
    592c:	8d 74 26 00          	lea    0x0(%esi,%eiz,1),%esi

00005930 <gpt_part_destroy>:
    5930:	55                   	push   %ebp
    5931:	89 e5                	mov    %esp,%ebp
    5933:	56                   	push   %esi
    5934:	53                   	push   %ebx
    5935:	81 ec 94 00 00 00    	sub    $0x94,%esp
    593b:	8d b5 78 ff ff ff    	lea    -0x88(%ebp),%esi
    5941:	8b 5d 08             	mov    0x8(%ebp),%ebx
    5944:	68 80 00 00 00       	push   $0x80
    5949:	6a 00                	push   $0x0
    594b:	56                   	push   %esi
    594c:	e8 8f 3c 00 00       	call   95e0 <memset@plt>
    5951:	8b 43 1c             	mov    0x1c(%ebx),%eax
    5954:	89 f2                	mov    %esi,%edx
    5956:	8d 48 ff             	lea    -0x1(%eax),%ecx
    5959:	8b 03                	mov    (%ebx),%eax
    595b:	e8 90 fd ff ff       	call   56f0 <gpt_pte_update>
    5960:	83 c4 10             	add    $0x10,%esp
    5963:	85 c0                	test   %eax,%eax
    5965:	75 69                	jne    59d0 <gpt_part_destroy+0xa0>
    5967:	8b 4b 04             	mov    0x4(%ebx),%ecx
    596a:	85 c9                	test   %ecx,%ecx
    596c:	74 0f                	je     597d <gpt_part_destroy+0x4d>
    596e:	8b 53 08             	mov    0x8(%ebx),%edx
    5971:	85 d2                	test   %edx,%edx
    5973:	74 08                	je     597d <gpt_part_destroy+0x4d>
    5975:	89 0a                	mov    %ecx,(%edx)
    5977:	8b 4b 04             	mov    0x4(%ebx),%ecx
    597a:	89 51 04             	mov    %edx,0x4(%ecx)
    597d:	8b 4b 0c             	mov    0xc(%ebx),%ecx
    5980:	c7 43 04 00 00 00 00 	movl   $0x0,0x4(%ebx)
    5987:	c7 43 08 00 00 00 00 	movl   $0x0,0x8(%ebx)
    598e:	85 c9                	test   %ecx,%ecx
    5990:	74 0f                	je     59a1 <gpt_part_destroy+0x71>
    5992:	8b 53 10             	mov    0x10(%ebx),%edx
    5995:	85 d2                	test   %edx,%edx
    5997:	74 08                	je     59a1 <gpt_part_destroy+0x71>
    5999:	89 0a                	mov    %ecx,(%edx)
    599b:	8b 4b 0c             	mov    0xc(%ebx),%ecx
    599e:	89 51 04             	mov    %edx,0x4(%ecx)
    59a1:	83 ec 0c             	sub    $0xc,%esp
    59a4:	c7 43 0c 00 00 00 00 	movl   $0x0,0xc(%ebx)
    59ab:	c7 43 10 00 00 00 00 	movl   $0x0,0x10(%ebx)
    59b2:	89 85 74 ff ff ff    	mov    %eax,-0x8c(%ebp)
    59b8:	53                   	push   %ebx
    59b9:	e8 72 3d 00 00       	call   9730 <free@plt>
    59be:	83 c4 10             	add    $0x10,%esp
    59c1:	8b 85 74 ff ff ff    	mov    -0x8c(%ebp),%eax
    59c7:	8d 65 f8             	lea    -0x8(%ebp),%esp
    59ca:	5b                   	pop    %ebx
    59cb:	5e                   	pop    %esi
    59cc:	5d                   	pop    %ebp
    59cd:	c3                   	ret    
    59ce:	66 90                	xchg   %ax,%ax
    59d0:	b8 f6 fe ff ff       	mov    $0xfffffef6,%eax
    59d5:	eb f0                	jmp    59c7 <gpt_part_destroy+0x97>
    59d7:	89 f6                	mov    %esi,%esi
    59d9:	8d bc 27 00 00 00 00 	lea    0x0(%edi,%eiz,1),%edi

000059e0 <gpt_destroy>:
    59e0:	55                   	push   %ebp
    59e1:	89 e5                	mov    %esp,%ebp
    59e3:	57                   	push   %edi
    59e4:	56                   	push   %esi
    59e5:	53                   	push   %ebx
    59e6:	83 ec 1c             	sub    $0x1c,%esp
    59e9:	8b 5d 08             	mov    0x8(%ebp),%ebx
    59ec:	8b 43 10             	mov    0x10(%ebx),%eax
    59ef:	8d 53 0c             	lea    0xc(%ebx),%edx
    59f2:	39 d0                	cmp    %edx,%eax
    59f4:	74 0d                	je     5a03 <gpt_destroy+0x23>
    59f6:	85 c0                	test   %eax,%eax
    59f8:	74 09                	je     5a03 <gpt_destroy+0x23>
    59fa:	83 f8 04             	cmp    $0x4,%eax
    59fd:	0f 85 1d 01 00 00    	jne    5b20 <gpt_destroy+0x140>
    5a03:	31 f6                	xor    %esi,%esi
    5a05:	50                   	push   %eax
    5a06:	50                   	push   %eax
    5a07:	8b 43 3c             	mov    0x3c(%ebx),%eax
    5a0a:	50                   	push   %eax
    5a0b:	6a 01                	push   $0x1
    5a0d:	e8 fe 3a 00 00       	call   9510 <calloc@plt>
    5a12:	83 c4 10             	add    $0x10,%esp
    5a15:	89 c7                	mov    %eax,%edi
    5a17:	85 c0                	test   %eax,%eax
    5a19:	0f 84 19 01 00 00    	je     5b38 <gpt_destroy+0x158>
    5a1f:	83 ec 0c             	sub    $0xc,%esp
    5a22:	50                   	push   %eax
    5a23:	6a 01                	push   $0x1
    5a25:	8b 44 f3 44          	mov    0x44(%ebx,%esi,8),%eax
    5a29:	50                   	push   %eax
    5a2a:	8b 44 f3 40          	mov    0x40(%ebx,%esi,8),%eax
    5a2e:	50                   	push   %eax
    5a2f:	8b 43 08             	mov    0x8(%ebx),%eax
    5a32:	50                   	push   %eax
    5a33:	e8 a8 24 00 00       	call   7ee0 <block_write_direct>
    5a38:	83 c4 20             	add    $0x20,%esp
    5a3b:	85 c0                	test   %eax,%eax
    5a3d:	0f 85 fd 00 00 00    	jne    5b40 <gpt_destroy+0x160>
    5a43:	83 ec 0c             	sub    $0xc,%esp
    5a46:	57                   	push   %edi
    5a47:	e8 e4 3c 00 00       	call   9730 <free@plt>
    5a4c:	58                   	pop    %eax
    5a4d:	8b 4b 3c             	mov    0x3c(%ebx),%ecx
    5a50:	8b 43 64             	mov    0x64(%ebx),%eax
    5a53:	5a                   	pop    %edx
    5a54:	0f af c1             	imul   %ecx,%eax
    5a57:	50                   	push   %eax
    5a58:	6a 01                	push   $0x1
    5a5a:	e8 b1 3a 00 00       	call   9510 <calloc@plt>
    5a5f:	83 c4 10             	add    $0x10,%esp
    5a62:	89 c7                	mov    %eax,%edi
    5a64:	85 c0                	test   %eax,%eax
    5a66:	0f 84 cc 00 00 00    	je     5b38 <gpt_destroy+0x158>
    5a6c:	83 ec 0c             	sub    $0xc,%esp
    5a6f:	50                   	push   %eax
    5a70:	8b 4b 64             	mov    0x64(%ebx),%ecx
    5a73:	51                   	push   %ecx
    5a74:	8b 44 f3 58          	mov    0x58(%ebx,%esi,8),%eax
    5a78:	50                   	push   %eax
    5a79:	8b 44 f3 54          	mov    0x54(%ebx,%esi,8),%eax
    5a7d:	50                   	push   %eax
    5a7e:	8b 43 08             	mov    0x8(%ebx),%eax
    5a81:	50                   	push   %eax
    5a82:	e8 59 24 00 00       	call   7ee0 <block_write_direct>
    5a87:	83 c4 20             	add    $0x20,%esp
    5a8a:	85 c0                	test   %eax,%eax
    5a8c:	0f 85 ae 00 00 00    	jne    5b40 <gpt_destroy+0x160>
    5a92:	83 ec 0c             	sub    $0xc,%esp
    5a95:	46                   	inc    %esi
    5a96:	57                   	push   %edi
    5a97:	e8 94 3c 00 00       	call   9730 <free@plt>
    5a9c:	83 c4 10             	add    $0x10,%esp
    5a9f:	83 fe 02             	cmp    $0x2,%esi
    5aa2:	0f 85 5d ff ff ff    	jne    5a05 <gpt_destroy+0x25>
    5aa8:	8b 7b 08             	mov    0x8(%ebx),%edi
    5aab:	50                   	push   %eax
    5aac:	50                   	push   %eax
    5aad:	8b 53 3c             	mov    0x3c(%ebx),%edx
    5ab0:	52                   	push   %edx
    5ab1:	6a 01                	push   $0x1
    5ab3:	e8 58 3a 00 00       	call   9510 <calloc@plt>
    5ab8:	83 c4 10             	add    $0x10,%esp
    5abb:	89 c6                	mov    %eax,%esi
    5abd:	85 c0                	test   %eax,%eax
    5abf:	74 6f                	je     5b30 <gpt_destroy+0x150>
    5ac1:	83 ec 0c             	sub    $0xc,%esp
    5ac4:	50                   	push   %eax
    5ac5:	6a 01                	push   $0x1
    5ac7:	6a 00                	push   $0x0
    5ac9:	6a 00                	push   $0x0
    5acb:	57                   	push   %edi
    5acc:	e8 0f 24 00 00       	call   7ee0 <block_write_direct>
    5ad1:	83 c4 20             	add    $0x20,%esp
    5ad4:	85 c0                	test   %eax,%eax
    5ad6:	74 20                	je     5af8 <gpt_destroy+0x118>
    5ad8:	b8 f6 fe ff ff       	mov    $0xfffffef6,%eax
    5add:	83 ec 0c             	sub    $0xc,%esp
    5ae0:	89 45 e4             	mov    %eax,-0x1c(%ebp)
    5ae3:	56                   	push   %esi
    5ae4:	e8 47 3c 00 00       	call   9730 <free@plt>
    5ae9:	83 c4 10             	add    $0x10,%esp
    5aec:	8b 45 e4             	mov    -0x1c(%ebp),%eax
    5aef:	8d 65 f4             	lea    -0xc(%ebp),%esp
    5af2:	5b                   	pop    %ebx
    5af3:	5e                   	pop    %esi
    5af4:	5f                   	pop    %edi
    5af5:	5d                   	pop    %ebp
    5af6:	c3                   	ret    
    5af7:	90                   	nop
    5af8:	83 ec 0c             	sub    $0xc,%esp
    5afb:	89 45 e4             	mov    %eax,-0x1c(%ebp)
    5afe:	56                   	push   %esi
    5aff:	e8 2c 3c 00 00       	call   9730 <free@plt>
    5b04:	89 1c 24             	mov    %ebx,(%esp)
    5b07:	e8 24 3c 00 00       	call   9730 <free@plt>
    5b0c:	8b 45 e4             	mov    -0x1c(%ebp),%eax
    5b0f:	83 c4 10             	add    $0x10,%esp
    5b12:	8d 65 f4             	lea    -0xc(%ebp),%esp
    5b15:	5b                   	pop    %ebx
    5b16:	5e                   	pop    %esi
    5b17:	5f                   	pop    %edi
    5b18:	5d                   	pop    %ebp
    5b19:	c3                   	ret    
    5b1a:	8d b6 00 00 00 00    	lea    0x0(%esi),%esi
    5b20:	8d 65 f4             	lea    -0xc(%ebp),%esp
    5b23:	b8 fb fe ff ff       	mov    $0xfffffefb,%eax
    5b28:	5b                   	pop    %ebx
    5b29:	5e                   	pop    %esi
    5b2a:	5f                   	pop    %edi
    5b2b:	5d                   	pop    %ebp
    5b2c:	c3                   	ret    
    5b2d:	8d 76 00             	lea    0x0(%esi),%esi
    5b30:	b8 fe ff ff ff       	mov    $0xfffffffe,%eax
    5b35:	eb a6                	jmp    5add <gpt_destroy+0xfd>
    5b37:	90                   	nop
    5b38:	b8 fe ff ff ff       	mov    $0xfffffffe,%eax
    5b3d:	eb b0                	jmp    5aef <gpt_destroy+0x10f>
    5b3f:	90                   	nop
    5b40:	b8 f6 fe ff ff       	mov    $0xfffffef6,%eax
    5b45:	eb a8                	jmp    5aef <gpt_destroy+0x10f>
    5b47:	89 f6                	mov    %esi,%esi
    5b49:	8d bc 27 00 00 00 00 	lea    0x0(%edi,%eiz,1),%edi

00005b50 <gpt_part_create>:
    5b50:	55                   	push   %ebp
    5b51:	89 e5                	mov    %esp,%ebp
    5b53:	57                   	push   %edi
    5b54:	56                   	push   %esi
    5b55:	53                   	push   %ebx
    5b56:	81 ec c4 00 00 00    	sub    $0xc4,%esp
    5b5c:	8b 7d 08             	mov    0x8(%ebp),%edi
    5b5f:	6a 5c                	push   $0x5c
    5b61:	6a 01                	push   $0x1
    5b63:	e8 a8 39 00 00       	call   9510 <calloc@plt>
    5b68:	83 c4 10             	add    $0x10,%esp
    5b6b:	89 c6                	mov    %eax,%esi
    5b6d:	85 c0                	test   %eax,%eax
    5b6f:	0f 84 ab 01 00 00    	je     5d20 <gpt_part_create+0x1d0>
    5b75:	8b 45 0c             	mov    0xc(%ebp),%eax
    5b78:	8b 10                	mov    (%eax),%edx
    5b7a:	85 d2                	test   %edx,%edx
    5b7c:	7e 62                	jle    5be0 <gpt_part_create+0x90>
    5b7e:	3b 57 34             	cmp    0x34(%edi),%edx
    5b81:	7f 5d                	jg     5be0 <gpt_part_create+0x90>
    5b83:	8d 4f 0c             	lea    0xc(%edi),%ecx
    5b86:	8b 47 10             	mov    0x10(%edi),%eax
    5b89:	85 c0                	test   %eax,%eax
    5b8b:	89 8d 50 ff ff ff    	mov    %ecx,-0xb0(%ebp)
    5b91:	0f 94 c3             	sete   %bl
    5b94:	39 c8                	cmp    %ecx,%eax
    5b96:	0f 94 c1             	sete   %cl
    5b99:	08 cb                	or     %cl,%bl
    5b9b:	88 9d 57 ff ff ff    	mov    %bl,-0xa9(%ebp)
    5ba1:	75 5d                	jne    5c00 <gpt_part_create+0xb0>
    5ba3:	89 c1                	mov    %eax,%ecx
    5ba5:	83 e9 04             	sub    $0x4,%ecx
    5ba8:	74 56                	je     5c00 <gpt_part_create+0xb0>
    5baa:	3b 51 1c             	cmp    0x1c(%ecx),%edx
    5bad:	74 31                	je     5be0 <gpt_part_create+0x90>
    5baf:	8b 58 fc             	mov    -0x4(%eax),%ebx
    5bb2:	8b 49 08             	mov    0x8(%ecx),%ecx
    5bb5:	83 c3 0c             	add    $0xc,%ebx
    5bb8:	39 d9                	cmp    %ebx,%ecx
    5bba:	75 10                	jne    5bcc <gpt_part_create+0x7c>
    5bbc:	eb 42                	jmp    5c00 <gpt_part_create+0xb0>
    5bbe:	66 90                	xchg   %ax,%ax
    5bc0:	8b 4b 08             	mov    0x8(%ebx),%ecx
    5bc3:	8b 1b                	mov    (%ebx),%ebx
    5bc5:	83 c3 0c             	add    $0xc,%ebx
    5bc8:	39 d9                	cmp    %ebx,%ecx
    5bca:	74 34                	je     5c00 <gpt_part_create+0xb0>
    5bcc:	85 c9                	test   %ecx,%ecx
    5bce:	74 30                	je     5c00 <gpt_part_create+0xb0>
    5bd0:	83 e9 04             	sub    $0x4,%ecx
    5bd3:	89 cb                	mov    %ecx,%ebx
    5bd5:	74 29                	je     5c00 <gpt_part_create+0xb0>
    5bd7:	3b 53 1c             	cmp    0x1c(%ebx),%edx
    5bda:	75 e4                	jne    5bc0 <gpt_part_create+0x70>
    5bdc:	8d 74 26 00          	lea    0x0(%esi,%eiz,1),%esi
    5be0:	bb f2 ff ff ff       	mov    $0xfffffff2,%ebx
    5be5:	83 ec 0c             	sub    $0xc,%esp
    5be8:	56                   	push   %esi
    5be9:	e8 42 3b 00 00       	call   9730 <free@plt>
    5bee:	83 c4 10             	add    $0x10,%esp
    5bf1:	8d 65 f4             	lea    -0xc(%ebp),%esp
    5bf4:	89 d8                	mov    %ebx,%eax
    5bf6:	5b                   	pop    %ebx
    5bf7:	5e                   	pop    %esi
    5bf8:	5f                   	pop    %edi
    5bf9:	5d                   	pop    %ebp
    5bfa:	c3                   	ret    
    5bfb:	90                   	nop
    5bfc:	8d 74 26 00          	lea    0x0(%esi,%eiz,1),%esi
    5c00:	8b 5d 0c             	mov    0xc(%ebp),%ebx
    5c03:	8b 4b 0c             	mov    0xc(%ebx),%ecx
    5c06:	8b 5b 10             	mov    0x10(%ebx),%ebx
    5c09:	89 9d 44 ff ff ff    	mov    %ebx,-0xbc(%ebp)
    5c0f:	8b 5d 0c             	mov    0xc(%ebp),%ebx
    5c12:	89 8d 40 ff ff ff    	mov    %ecx,-0xc0(%ebp)
    5c18:	8b 4b 04             	mov    0x4(%ebx),%ecx
    5c1b:	8b 5b 08             	mov    0x8(%ebx),%ebx
    5c1e:	89 9d 64 ff ff ff    	mov    %ebx,-0x9c(%ebp)
    5c24:	89 9d 5c ff ff ff    	mov    %ebx,-0xa4(%ebp)
    5c2a:	8b 5f 28             	mov    0x28(%edi),%ebx
    5c2d:	89 8d 60 ff ff ff    	mov    %ecx,-0xa0(%ebp)
    5c33:	89 9d 4c ff ff ff    	mov    %ebx,-0xb4(%ebp)
    5c39:	89 8d 58 ff ff ff    	mov    %ecx,-0xa8(%ebp)
    5c3f:	8b 9d 64 ff ff ff    	mov    -0x9c(%ebp),%ebx
    5c45:	8b 4f 24             	mov    0x24(%edi),%ecx
    5c48:	89 8d 48 ff ff ff    	mov    %ecx,-0xb8(%ebp)
    5c4e:	3b 9d 4c ff ff ff    	cmp    -0xb4(%ebp),%ebx
    5c54:	8b 8d 60 ff ff ff    	mov    -0xa0(%ebp),%ecx
    5c5a:	72 84                	jb     5be0 <gpt_part_create+0x90>
    5c5c:	77 0c                	ja     5c6a <gpt_part_create+0x11a>
    5c5e:	3b 8d 48 ff ff ff    	cmp    -0xb8(%ebp),%ecx
    5c64:	0f 82 76 ff ff ff    	jb     5be0 <gpt_part_create+0x90>
    5c6a:	8b 8d 40 ff ff ff    	mov    -0xc0(%ebp),%ecx
    5c70:	8b 9d 44 ff ff ff    	mov    -0xbc(%ebp),%ebx
    5c76:	03 8d 58 ff ff ff    	add    -0xa8(%ebp),%ecx
    5c7c:	13 9d 5c ff ff ff    	adc    -0xa4(%ebp),%ebx
    5c82:	89 8d 60 ff ff ff    	mov    %ecx,-0xa0(%ebp)
    5c88:	8b 8d 48 ff ff ff    	mov    -0xb8(%ebp),%ecx
    5c8e:	89 9d 64 ff ff ff    	mov    %ebx,-0x9c(%ebp)
    5c94:	03 4f 2c             	add    0x2c(%edi),%ecx
    5c97:	8b 9d 4c ff ff ff    	mov    -0xb4(%ebp),%ebx
    5c9d:	13 5f 30             	adc    0x30(%edi),%ebx
    5ca0:	39 9d 64 ff ff ff    	cmp    %ebx,-0x9c(%ebp)
    5ca6:	0f 87 34 ff ff ff    	ja     5be0 <gpt_part_create+0x90>
    5cac:	72 0c                	jb     5cba <gpt_part_create+0x16a>
    5cae:	39 8d 60 ff ff ff    	cmp    %ecx,-0xa0(%ebp)
    5cb4:	0f 87 26 ff ff ff    	ja     5be0 <gpt_part_create+0x90>
    5cba:	80 bd 57 ff ff ff 00 	cmpb   $0x0,-0xa9(%ebp)
    5cc1:	74 27                	je     5cea <gpt_part_create+0x19a>
    5cc3:	eb 6b                	jmp    5d30 <gpt_part_create+0x1e0>
    5cc5:	8d 76 00             	lea    0x0(%esi),%esi
    5cc8:	77 0e                	ja     5cd8 <gpt_part_create+0x188>
    5cca:	39 8d 58 ff ff ff    	cmp    %ecx,-0xa8(%ebp)
    5cd0:	0f 82 0a ff ff ff    	jb     5be0 <gpt_part_create+0x90>
    5cd6:	66 90                	xchg   %ax,%ax
    5cd8:	8b 48 08             	mov    0x8(%eax),%ecx
    5cdb:	8b 00                	mov    (%eax),%eax
    5cdd:	83 c0 0c             	add    $0xc,%eax
    5ce0:	39 c1                	cmp    %eax,%ecx
    5ce2:	74 4c                	je     5d30 <gpt_part_create+0x1e0>
    5ce4:	85 c9                	test   %ecx,%ecx
    5ce6:	74 48                	je     5d30 <gpt_part_create+0x1e0>
    5ce8:	89 c8                	mov    %ecx,%eax
    5cea:	83 e8 04             	sub    $0x4,%eax
    5ced:	74 41                	je     5d30 <gpt_part_create+0x1e0>
    5cef:	8b 58 2c             	mov    0x2c(%eax),%ebx
    5cf2:	8b 48 28             	mov    0x28(%eax),%ecx
    5cf5:	39 9d 64 ff ff ff    	cmp    %ebx,-0x9c(%ebp)
    5cfb:	72 db                	jb     5cd8 <gpt_part_create+0x188>
    5cfd:	77 08                	ja     5d07 <gpt_part_create+0x1b7>
    5cff:	39 8d 60 ff ff ff    	cmp    %ecx,-0xa0(%ebp)
    5d05:	76 d1                	jbe    5cd8 <gpt_part_create+0x188>
    5d07:	03 48 30             	add    0x30(%eax),%ecx
    5d0a:	13 58 34             	adc    0x34(%eax),%ebx
    5d0d:	39 9d 5c ff ff ff    	cmp    %ebx,-0xa4(%ebp)
    5d13:	0f 82 c7 fe ff ff    	jb     5be0 <gpt_part_create+0x90>
    5d19:	eb ad                	jmp    5cc8 <gpt_part_create+0x178>
    5d1b:	90                   	nop
    5d1c:	8d 74 26 00          	lea    0x0(%esi,%eiz,1),%esi
    5d20:	bb fe ff ff ff       	mov    $0xfffffffe,%ebx
    5d25:	e9 bb fe ff ff       	jmp    5be5 <gpt_part_create+0x95>
    5d2a:	8d b6 00 00 00 00    	lea    0x0(%esi),%esi
    5d30:	8b 45 0c             	mov    0xc(%ebp),%eax
    5d33:	8b 58 1c             	mov    0x1c(%eax),%ebx
    5d36:	85 db                	test   %ebx,%ebx
    5d38:	0f 85 a2 fe ff ff    	jne    5be0 <gpt_part_create+0x90>
    5d3e:	83 78 20 01          	cmpl   $0x1,0x20(%eax)
    5d42:	0f 85 98 fe ff ff    	jne    5be0 <gpt_part_create+0x90>
    5d48:	8b 85 58 ff ff ff    	mov    -0xa8(%ebp),%eax
    5d4e:	83 ec 0c             	sub    $0xc,%esp
    5d51:	89 46 28             	mov    %eax,0x28(%esi)
    5d54:	8b 85 40 ff ff ff    	mov    -0xc0(%ebp),%eax
    5d5a:	89 46 30             	mov    %eax,0x30(%esi)
    5d5d:	8b 45 0c             	mov    0xc(%ebp),%eax
    5d60:	89 56 1c             	mov    %edx,0x1c(%esi)
    5d63:	8b 95 5c ff ff ff    	mov    -0xa4(%ebp),%edx
    5d69:	8b 40 24             	mov    0x24(%eax),%eax
    5d6c:	89 56 2c             	mov    %edx,0x2c(%esi)
    5d6f:	89 46 3c             	mov    %eax,0x3c(%esi)
    5d72:	8b 45 0c             	mov    0xc(%ebp),%eax
    5d75:	8b 95 44 ff ff ff    	mov    -0xbc(%ebp),%edx
    5d7b:	89 3e                	mov    %edi,(%esi)
    5d7d:	8b 40 28             	mov    0x28(%eax),%eax
    5d80:	89 56 34             	mov    %edx,0x34(%esi)
    5d83:	89 46 40             	mov    %eax,0x40(%esi)
    5d86:	8b 45 0c             	mov    0xc(%ebp),%eax
    5d89:	c7 46 38 01 00 00 00 	movl   $0x1,0x38(%esi)
    5d90:	8b 40 2c             	mov    0x2c(%eax),%eax
    5d93:	89 46 44             	mov    %eax,0x44(%esi)
    5d96:	8b 45 0c             	mov    0xc(%ebp),%eax
    5d99:	8b 40 30             	mov    0x30(%eax),%eax
    5d9c:	89 46 48             	mov    %eax,0x48(%esi)
    5d9f:	8d 46 4c             	lea    0x4c(%esi),%eax
    5da2:	50                   	push   %eax
    5da3:	89 85 60 ff ff ff    	mov    %eax,-0xa0(%ebp)
    5da9:	e8 82 37 00 00       	call   9530 <uuid_generate@plt>
    5dae:	8b 46 28             	mov    0x28(%esi),%eax
    5db1:	89 c1                	mov    %eax,%ecx
    5db3:	8b 56 2c             	mov    0x2c(%esi),%edx
    5db6:	03 4e 30             	add    0x30(%esi),%ecx
    5db9:	89 d3                	mov    %edx,%ebx
    5dbb:	13 5e 34             	adc    0x34(%esi),%ebx
    5dbe:	83 c1 ff             	add    $0xffffffff,%ecx
    5dc1:	83 d3 ff             	adc    $0xffffffff,%ebx
    5dc4:	89 8d 58 ff ff ff    	mov    %ecx,-0xa8(%ebp)
    5dca:	83 c4 10             	add    $0x10,%esp
    5dcd:	89 9d 5c ff ff ff    	mov    %ebx,-0xa4(%ebp)
    5dd3:	39 da                	cmp    %ebx,%edx
    5dd5:	0f 87 05 fe ff ff    	ja     5be0 <gpt_part_create+0x90>
    5ddb:	72 08                	jb     5de5 <gpt_part_create+0x295>
    5ddd:	39 c8                	cmp    %ecx,%eax
    5ddf:	0f 87 fb fd ff ff    	ja     5be0 <gpt_part_create+0x90>
    5de5:	8d 9d 68 ff ff ff    	lea    -0x98(%ebp),%ebx
    5deb:	50                   	push   %eax
    5dec:	68 80 00 00 00       	push   $0x80
    5df1:	6a 00                	push   $0x0
    5df3:	53                   	push   %ebx
    5df4:	e8 e7 37 00 00       	call   95e0 <memset@plt>
    5df9:	8d 46 3c             	lea    0x3c(%esi),%eax
    5dfc:	5a                   	pop    %edx
    5dfd:	59                   	pop    %ecx
    5dfe:	53                   	push   %ebx
    5dff:	50                   	push   %eax
    5e00:	e8 ab 36 00 00       	call   94b0 <uuid_encode@plt>
    5e05:	58                   	pop    %eax
    5e06:	8b 8d 60 ff ff ff    	mov    -0xa0(%ebp),%ecx
    5e0c:	8d 85 78 ff ff ff    	lea    -0x88(%ebp),%eax
    5e12:	5a                   	pop    %edx
    5e13:	50                   	push   %eax
    5e14:	51                   	push   %ecx
    5e15:	e8 96 36 00 00       	call   94b0 <uuid_encode@plt>
    5e1a:	8b 46 28             	mov    0x28(%esi),%eax
    5e1d:	89 45 88             	mov    %eax,-0x78(%ebp)
    5e20:	8b 85 58 ff ff ff    	mov    -0xa8(%ebp),%eax
    5e26:	89 45 90             	mov    %eax,-0x70(%ebp)
    5e29:	8b 45 0c             	mov    0xc(%ebp),%eax
    5e2c:	8b 56 2c             	mov    0x2c(%esi),%edx
    5e2f:	8b 08                	mov    (%eax),%ecx
    5e31:	89 55 8c             	mov    %edx,-0x74(%ebp)
    5e34:	8b 95 5c ff ff ff    	mov    -0xa4(%ebp),%edx
    5e3a:	49                   	dec    %ecx
    5e3b:	89 55 94             	mov    %edx,-0x6c(%ebp)
    5e3e:	89 f8                	mov    %edi,%eax
    5e40:	89 da                	mov    %ebx,%edx
    5e42:	e8 a9 f8 ff ff       	call   56f0 <gpt_pte_update>
    5e47:	83 c4 10             	add    $0x10,%esp
    5e4a:	89 c3                	mov    %eax,%ebx
    5e4c:	85 c0                	test   %eax,%eax
    5e4e:	74 0a                	je     5e5a <gpt_part_create+0x30a>
    5e50:	bb f6 fe ff ff       	mov    $0xfffffef6,%ebx
    5e55:	e9 8b fd ff ff       	jmp    5be5 <gpt_part_create+0x95>
    5e5a:	8b 95 50 ff ff ff    	mov    -0xb0(%ebp),%edx
    5e60:	8d 46 04             	lea    0x4(%esi),%eax
    5e63:	89 56 08             	mov    %edx,0x8(%esi)
    5e66:	8b 57 0c             	mov    0xc(%edi),%edx
    5e69:	89 56 04             	mov    %edx,0x4(%esi)
    5e6c:	89 42 04             	mov    %eax,0x4(%edx)
    5e6f:	8d 57 14             	lea    0x14(%edi),%edx
    5e72:	89 56 10             	mov    %edx,0x10(%esi)
    5e75:	8b 57 14             	mov    0x14(%edi),%edx
    5e78:	89 47 0c             	mov    %eax,0xc(%edi)
    5e7b:	8d 46 0c             	lea    0xc(%esi),%eax
    5e7e:	89 56 0c             	mov    %edx,0xc(%esi)
    5e81:	89 42 04             	mov    %eax,0x4(%edx)
    5e84:	89 47 14             	mov    %eax,0x14(%edi)
    5e87:	8b 45 10             	mov    0x10(%ebp),%eax
    5e8a:	89 30                	mov    %esi,(%eax)
    5e8c:	e9 60 fd ff ff       	jmp    5bf1 <gpt_part_create+0xa1>
    5e91:	eb 0d                	jmp    5ea0 <gpt_get_info>
    5e93:	90                   	nop
    5e94:	90                   	nop
    5e95:	90                   	nop
    5e96:	90                   	nop
    5e97:	90                   	nop
    5e98:	90                   	nop
    5e99:	90                   	nop
    5e9a:	90                   	nop
    5e9b:	90                   	nop
    5e9c:	90                   	nop
    5e9d:	90                   	nop
    5e9e:	90                   	nop
    5e9f:	90                   	nop

00005ea0 <gpt_get_info>:
    5ea0:	55                   	push   %ebp
    5ea1:	89 e5                	mov    %esp,%ebp
    5ea3:	57                   	push   %edi
    5ea4:	56                   	push   %esi
    5ea5:	53                   	push   %ebx
    5ea6:	83 ec 10             	sub    $0x10,%esp
    5ea9:	8b 75 0c             	mov    0xc(%ebp),%esi
    5eac:	8b 5d 08             	mov    0x8(%ebp),%ebx
    5eaf:	6a 18                	push   $0x18
    5eb1:	6a 00                	push   $0x0
    5eb3:	8d 7b 0c             	lea    0xc(%ebx),%edi
    5eb6:	56                   	push   %esi
    5eb7:	e8 24 37 00 00       	call   95e0 <memset@plt>
    5ebc:	c7 06 02 00 00 00    	movl   $0x2,(%esi)
    5ec2:	c7 46 04 02 00 00 00 	movl   $0x2,0x4(%esi)
    5ec9:	89 3c 24             	mov    %edi,(%esp)
    5ecc:	e8 8f 37 00 00       	call   9660 <list_count@plt>
    5ed1:	83 c4 10             	add    $0x10,%esp
    5ed4:	3b 43 34             	cmp    0x34(%ebx),%eax
    5ed7:	73 04                	jae    5edd <gpt_get_info+0x3d>
    5ed9:	83 4e 04 04          	orl    $0x4,0x4(%esi)
    5edd:	83 ec 0c             	sub    $0xc,%esp
    5ee0:	57                   	push   %edi
    5ee1:	e8 7a 37 00 00       	call   9660 <list_count@plt>
    5ee6:	83 c4 10             	add    $0x10,%esp
    5ee9:	85 c0                	test   %eax,%eax
    5eeb:	74 04                	je     5ef1 <gpt_get_info+0x51>
    5eed:	83 4e 04 20          	orl    $0x20,0x4(%esi)
    5ef1:	8b 43 24             	mov    0x24(%ebx),%eax
    5ef4:	8b 53 28             	mov    0x28(%ebx),%edx
    5ef7:	89 56 0c             	mov    %edx,0xc(%esi)
    5efa:	89 46 08             	mov    %eax,0x8(%esi)
    5efd:	8b 53 30             	mov    0x30(%ebx),%edx
    5f00:	8b 43 2c             	mov    0x2c(%ebx),%eax
    5f03:	89 46 10             	mov    %eax,0x10(%esi)
    5f06:	89 56 14             	mov    %edx,0x14(%esi)
    5f09:	8d 65 f4             	lea    -0xc(%ebp),%esp
    5f0c:	31 c0                	xor    %eax,%eax
    5f0e:	5b                   	pop    %ebx
    5f0f:	5e                   	pop    %esi
    5f10:	5f                   	pop    %edi
    5f11:	5d                   	pop    %ebp
    5f12:	c3                   	ret    
    5f13:	8d b6 00 00 00 00    	lea    0x0(%esi),%esi
    5f19:	8d bc 27 00 00 00 00 	lea    0x0(%edi,%eiz,1),%edi

00005f20 <gpt_create>:
    5f20:	55                   	push   %ebp
    5f21:	89 e5                	mov    %esp,%ebp
    5f23:	57                   	push   %edi
    5f24:	56                   	push   %esi
    5f25:	53                   	push   %ebx
    5f26:	81 ec a4 00 00 00    	sub    $0xa4,%esp
    5f2c:	8d 45 ac             	lea    -0x54(%ebp),%eax
    5f2f:	8b 5d 08             	mov    0x8(%ebp),%ebx
    5f32:	50                   	push   %eax
    5f33:	53                   	push   %ebx
    5f34:	e8 37 21 00 00       	call   8070 <block_get_bsize>
    5f39:	83 c4 10             	add    $0x10,%esp
    5f3c:	85 c0                	test   %eax,%eax
    5f3e:	0f 85 1c 01 00 00    	jne    6060 <gpt_create+0x140>
    5f44:	8b 45 ac             	mov    -0x54(%ebp),%eax
    5f47:	3d ff 01 00 00       	cmp    $0x1ff,%eax
    5f4c:	77 3a                	ja     5f88 <gpt_create+0x68>
    5f4e:	bb f2 ff ff ff       	mov    $0xfffffff2,%ebx
    5f53:	31 ff                	xor    %edi,%edi
    5f55:	31 f6                	xor    %esi,%esi
    5f57:	83 ec 0c             	sub    $0xc,%esp
    5f5a:	57                   	push   %edi
    5f5b:	e8 d0 37 00 00       	call   9730 <free@plt>
    5f60:	89 34 24             	mov    %esi,(%esp)
    5f63:	e8 c8 37 00 00       	call   9730 <free@plt>
    5f68:	c7 04 24 00 00 00 00 	movl   $0x0,(%esp)
    5f6f:	e8 bc 37 00 00       	call   9730 <free@plt>
    5f74:	83 c4 10             	add    $0x10,%esp
    5f77:	8d 65 f4             	lea    -0xc(%ebp),%esp
    5f7a:	89 d8                	mov    %ebx,%eax
    5f7c:	5b                   	pop    %ebx
    5f7d:	5e                   	pop    %esi
    5f7e:	5f                   	pop    %edi
    5f7f:	5d                   	pop    %ebp
    5f80:	c3                   	ret    
    5f81:	8d b4 26 00 00 00 00 	lea    0x0(%esi,%eiz,1),%esi
    5f88:	a9 ff 01 00 00       	test   $0x1ff,%eax
    5f8d:	75 bf                	jne    5f4e <gpt_create+0x2e>
    5f8f:	8d 45 b0             	lea    -0x50(%ebp),%eax
    5f92:	8b 4d 08             	mov    0x8(%ebp),%ecx
    5f95:	52                   	push   %edx
    5f96:	52                   	push   %edx
    5f97:	50                   	push   %eax
    5f98:	51                   	push   %ecx
    5f99:	e8 62 21 00 00       	call   8100 <block_get_nblocks>
    5f9e:	83 c4 10             	add    $0x10,%esp
    5fa1:	85 c0                	test   %eax,%eax
    5fa3:	0f 85 b7 00 00 00    	jne    6060 <gpt_create+0x140>
    5fa9:	31 d2                	xor    %edx,%edx
    5fab:	8b 4d ac             	mov    -0x54(%ebp),%ecx
    5fae:	b8 00 40 00 00       	mov    $0x4000,%eax
    5fb3:	8b 7d b4             	mov    -0x4c(%ebp),%edi
    5fb6:	f7 f1                	div    %ecx
    5fb8:	31 d2                	xor    %edx,%edx
    5fba:	89 45 a4             	mov    %eax,-0x5c(%ebp)
    5fbd:	89 45 98             	mov    %eax,-0x68(%ebp)
    5fc0:	89 55 9c             	mov    %edx,-0x64(%ebp)
    5fc3:	0f a4 c2 01          	shld   $0x1,%eax,%edx
    5fc7:	01 c0                	add    %eax,%eax
    5fc9:	8b 75 b0             	mov    -0x50(%ebp),%esi
    5fcc:	83 c0 03             	add    $0x3,%eax
    5fcf:	83 d2 00             	adc    $0x0,%edx
    5fd2:	39 fa                	cmp    %edi,%edx
    5fd4:	0f 87 96 00 00 00    	ja     6070 <gpt_create+0x150>
    5fda:	72 08                	jb     5fe4 <gpt_create+0xc4>
    5fdc:	39 f0                	cmp    %esi,%eax
    5fde:	0f 83 8c 00 00 00    	jae    6070 <gpt_create+0x150>
    5fe4:	50                   	push   %eax
    5fe5:	50                   	push   %eax
    5fe6:	51                   	push   %ecx
    5fe7:	6a 01                	push   $0x1
    5fe9:	e8 22 35 00 00       	call   9510 <calloc@plt>
    5fee:	83 c4 10             	add    $0x10,%esp
    5ff1:	89 c3                	mov    %eax,%ebx
    5ff3:	85 c0                	test   %eax,%eax
    5ff5:	74 48                	je     603f <gpt_create+0x11f>
    5ff7:	83 c6 ff             	add    $0xffffffff,%esi
    5ffa:	c6 80 c2 01 00 00 ee 	movb   $0xee,0x1c2(%eax)
    6001:	83 d7 ff             	adc    $0xffffffff,%edi
    6004:	c7 80 c6 01 00 00 01 	movl   $0x1,0x1c6(%eax)
    600b:	00 00 00 
    600e:	83 ff 00             	cmp    $0x0,%edi
    6011:	76 03                	jbe    6016 <gpt_create+0xf6>
    6013:	83 ce ff             	or     $0xffffffff,%esi
    6016:	83 ec 0c             	sub    $0xc,%esp
    6019:	89 b3 ca 01 00 00    	mov    %esi,0x1ca(%ebx)
    601f:	66 c7 83 fe 01 00 00 	movw   $0xaa55,0x1fe(%ebx)
    6026:	55 aa 
    6028:	8b 45 08             	mov    0x8(%ebp),%eax
    602b:	53                   	push   %ebx
    602c:	6a 01                	push   $0x1
    602e:	6a 00                	push   $0x0
    6030:	6a 00                	push   $0x0
    6032:	50                   	push   %eax
    6033:	e8 a8 1e 00 00       	call   7ee0 <block_write_direct>
    6038:	83 c4 20             	add    $0x20,%esp
    603b:	85 c0                	test   %eax,%eax
    603d:	74 3f                	je     607e <gpt_create+0x15e>
    603f:	83 ec 0c             	sub    $0xc,%esp
    6042:	31 ff                	xor    %edi,%edi
    6044:	31 f6                	xor    %esi,%esi
    6046:	53                   	push   %ebx
    6047:	bb f6 fe ff ff       	mov    $0xfffffef6,%ebx
    604c:	e8 df 36 00 00       	call   9730 <free@plt>
    6051:	83 c4 10             	add    $0x10,%esp
    6054:	e9 fe fe ff ff       	jmp    5f57 <gpt_create+0x37>
    6059:	8d b4 26 00 00 00 00 	lea    0x0(%esi,%eiz,1),%esi
    6060:	bb f6 fe ff ff       	mov    $0xfffffef6,%ebx
    6065:	31 ff                	xor    %edi,%edi
    6067:	31 f6                	xor    %esi,%esi
    6069:	e9 e9 fe ff ff       	jmp    5f57 <gpt_create+0x37>
    606e:	66 90                	xchg   %ax,%ax
    6070:	bb fd fe ff ff       	mov    $0xfffffefd,%ebx
    6075:	31 ff                	xor    %edi,%edi
    6077:	31 f6                	xor    %esi,%esi
    6079:	e9 d9 fe ff ff       	jmp    5f57 <gpt_create+0x37>
    607e:	83 ec 0c             	sub    $0xc,%esp
    6081:	53                   	push   %ebx
    6082:	e8 a9 36 00 00       	call   9730 <free@plt>
    6087:	8d 45 d8             	lea    -0x28(%ebp),%eax
    608a:	89 04 24             	mov    %eax,(%esp)
    608d:	e8 9e 34 00 00       	call   9530 <uuid_generate@plt>
    6092:	8b 45 b0             	mov    -0x50(%ebp),%eax
    6095:	8b 55 b4             	mov    -0x4c(%ebp),%edx
    6098:	83 c0 ff             	add    $0xffffffff,%eax
    609b:	8b 75 b0             	mov    -0x50(%ebp),%esi
    609e:	83 d2 ff             	adc    $0xffffffff,%edx
    60a1:	89 85 68 ff ff ff    	mov    %eax,-0x98(%ebp)
    60a7:	89 45 d0             	mov    %eax,-0x30(%ebp)
    60aa:	8b 45 98             	mov    -0x68(%ebp),%eax
    60ad:	29 c6                	sub    %eax,%esi
    60af:	89 95 6c ff ff ff    	mov    %edx,-0x94(%ebp)
    60b5:	89 55 d4             	mov    %edx,-0x2c(%ebp)
    60b8:	8b 7d b4             	mov    -0x4c(%ebp),%edi
    60bb:	8b 55 9c             	mov    -0x64(%ebp),%edx
    60be:	89 f1                	mov    %esi,%ecx
    60c0:	19 d7                	sbb    %edx,%edi
    60c2:	83 c1 ff             	add    $0xffffffff,%ecx
    60c5:	89 fb                	mov    %edi,%ebx
    60c7:	89 8d 60 ff ff ff    	mov    %ecx,-0xa0(%ebp)
    60cd:	83 d3 ff             	adc    $0xffffffff,%ebx
    60d0:	83 c0 02             	add    $0x2,%eax
    60d3:	83 d2 00             	adc    $0x0,%edx
    60d6:	89 4d c0             	mov    %ecx,-0x40(%ebp)
    60d9:	83 c6 fe             	add    $0xfffffffe,%esi
    60dc:	89 45 88             	mov    %eax,-0x78(%ebp)
    60df:	8b 4d ac             	mov    -0x54(%ebp),%ecx
    60e2:	8b 45 a4             	mov    -0x5c(%ebp),%eax
    60e5:	83 d7 ff             	adc    $0xffffffff,%edi
    60e8:	89 55 8c             	mov    %edx,-0x74(%ebp)
    60eb:	f7 e1                	mul    %ecx
    60ed:	0f ac d0 07          	shrd   $0x7,%edx,%eax
    60f1:	89 85 58 ff ff ff    	mov    %eax,-0xa8(%ebp)
    60f7:	89 45 90             	mov    %eax,-0x70(%ebp)
    60fa:	c1 ea 07             	shr    $0x7,%edx
    60fd:	c7 45 c8 01 00 00 00 	movl   $0x1,-0x38(%ebp)
    6104:	c1 e0 07             	shl    $0x7,%eax
    6107:	c7 45 cc 00 00 00 00 	movl   $0x0,-0x34(%ebp)
    610e:	c7 45 b8 02 00 00 00 	movl   $0x2,-0x48(%ebp)
    6115:	c7 45 bc 00 00 00 00 	movl   $0x0,-0x44(%ebp)
    611c:	89 9d 64 ff ff ff    	mov    %ebx,-0x9c(%ebp)
    6122:	89 5d c4             	mov    %ebx,-0x3c(%ebp)
    6125:	89 75 80             	mov    %esi,-0x80(%ebp)
    6128:	89 7d 84             	mov    %edi,-0x7c(%ebp)
    612b:	89 95 5c ff ff ff    	mov    %edx,-0xa4(%ebp)
    6131:	89 85 74 ff ff ff    	mov    %eax,-0x8c(%ebp)
    6137:	83 c4 10             	add    $0x10,%esp
    613a:	c7 45 a0 00 00 00 00 	movl   $0x0,-0x60(%ebp)
    6141:	50                   	push   %eax
    6142:	50                   	push   %eax
    6143:	8b 45 a4             	mov    -0x5c(%ebp),%eax
    6146:	0f af c8             	imul   %eax,%ecx
    6149:	51                   	push   %ecx
    614a:	6a 01                	push   $0x1
    614c:	e8 bf 33 00 00       	call   9510 <calloc@plt>
    6151:	83 c4 10             	add    $0x10,%esp
    6154:	89 c3                	mov    %eax,%ebx
    6156:	85 c0                	test   %eax,%eax
    6158:	0f 84 47 02 00 00    	je     63a5 <gpt_create+0x485>
    615e:	8b 45 a0             	mov    -0x60(%ebp),%eax
    6161:	83 ec 0c             	sub    $0xc,%esp
    6164:	8b 74 05 b8          	mov    -0x48(%ebp,%eax,1),%esi
    6168:	8b 7c 05 bc          	mov    -0x44(%ebp,%eax,1),%edi
    616c:	8b 45 a4             	mov    -0x5c(%ebp),%eax
    616f:	53                   	push   %ebx
    6170:	50                   	push   %eax
    6171:	8b 45 08             	mov    0x8(%ebp),%eax
    6174:	57                   	push   %edi
    6175:	56                   	push   %esi
    6176:	50                   	push   %eax
    6177:	e8 64 1d 00 00       	call   7ee0 <block_write_direct>
    617c:	83 c4 20             	add    $0x20,%esp
    617f:	85 c0                	test   %eax,%eax
    6181:	0f 85 3a 02 00 00    	jne    63c1 <gpt_create+0x4a1>
    6187:	50                   	push   %eax
    6188:	50                   	push   %eax
    6189:	8b 85 74 ff ff ff    	mov    -0x8c(%ebp),%eax
    618f:	50                   	push   %eax
    6190:	53                   	push   %ebx
    6191:	e8 fa 33 00 00       	call   9590 <compute_crc32@plt>
    6196:	89 1c 24             	mov    %ebx,(%esp)
    6199:	89 45 94             	mov    %eax,-0x6c(%ebp)
    619c:	e8 8f 35 00 00       	call   9730 <free@plt>
    61a1:	8b 4d ac             	mov    -0x54(%ebp),%ecx
    61a4:	58                   	pop    %eax
    61a5:	5a                   	pop    %edx
    61a6:	51                   	push   %ecx
    61a7:	6a 01                	push   $0x1
    61a9:	e8 62 33 00 00       	call   9510 <calloc@plt>
    61ae:	83 c4 10             	add    $0x10,%esp
    61b1:	89 c3                	mov    %eax,%ebx
    61b3:	85 c0                	test   %eax,%eax
    61b5:	0f 84 ea 01 00 00    	je     63a5 <gpt_create+0x485>
    61bb:	c6 40 04 50          	movb   $0x50,0x4(%eax)
    61bf:	c6 40 05 41          	movb   $0x41,0x5(%eax)
    61c3:	c6 40 06 52          	movb   $0x52,0x6(%eax)
    61c7:	c6 40 07 54          	movb   $0x54,0x7(%eax)
    61cb:	c6 00 45             	movb   $0x45,(%eax)
    61ce:	c6 40 01 46          	movb   $0x46,0x1(%eax)
    61d2:	c6 40 02 49          	movb   $0x49,0x2(%eax)
    61d6:	c6 40 03 20          	movb   $0x20,0x3(%eax)
    61da:	c7 40 08 00 00 01 00 	movl   $0x10000,0x8(%eax)
    61e1:	c7 40 0c 5c 00 00 00 	movl   $0x5c,0xc(%eax)
    61e8:	c7 40 10 00 00 00 00 	movl   $0x0,0x10(%eax)
    61ef:	8b 45 a0             	mov    -0x60(%ebp),%eax
    61f2:	8b 54 05 c8          	mov    -0x38(%ebp,%eax,1),%edx
    61f6:	8b 4c 05 cc          	mov    -0x34(%ebp,%eax,1),%ecx
    61fa:	89 53 18             	mov    %edx,0x18(%ebx)
    61fd:	89 95 78 ff ff ff    	mov    %edx,-0x88(%ebp)
    6203:	8d 55 d0             	lea    -0x30(%ebp),%edx
    6206:	89 4b 1c             	mov    %ecx,0x1c(%ebx)
    6209:	29 c2                	sub    %eax,%edx
    620b:	89 8d 7c ff ff ff    	mov    %ecx,-0x84(%ebp)
    6211:	89 d0                	mov    %edx,%eax
    6213:	8b 12                	mov    (%edx),%edx
    6215:	8b 48 04             	mov    0x4(%eax),%ecx
    6218:	89 53 20             	mov    %edx,0x20(%ebx)
    621b:	89 4b 24             	mov    %ecx,0x24(%ebx)
    621e:	8b 55 88             	mov    -0x78(%ebp),%edx
    6221:	8b 4d 8c             	mov    -0x74(%ebp),%ecx
    6224:	89 53 28             	mov    %edx,0x28(%ebx)
    6227:	89 4b 2c             	mov    %ecx,0x2c(%ebx)
    622a:	8b 55 80             	mov    -0x80(%ebp),%edx
    622d:	8b 4d 84             	mov    -0x7c(%ebp),%ecx
    6230:	89 53 30             	mov    %edx,0x30(%ebx)
    6233:	89 4b 34             	mov    %ecx,0x34(%ebx)
    6236:	8d 43 38             	lea    0x38(%ebx),%eax
    6239:	51                   	push   %ecx
    623a:	51                   	push   %ecx
    623b:	8d 4d d8             	lea    -0x28(%ebp),%ecx
    623e:	50                   	push   %eax
    623f:	51                   	push   %ecx
    6240:	e8 6b 32 00 00       	call   94b0 <uuid_encode@plt>
    6245:	89 73 48             	mov    %esi,0x48(%ebx)
    6248:	89 7b 4c             	mov    %edi,0x4c(%ebx)
    624b:	8b 75 90             	mov    -0x70(%ebp),%esi
    624e:	8b 7d 94             	mov    -0x6c(%ebp),%edi
    6251:	89 73 50             	mov    %esi,0x50(%ebx)
    6254:	c7 43 54 80 00 00 00 	movl   $0x80,0x54(%ebx)
    625b:	89 7b 58             	mov    %edi,0x58(%ebx)
    625e:	c7 43 10 00 00 00 00 	movl   $0x0,0x10(%ebx)
    6265:	5e                   	pop    %esi
    6266:	5f                   	pop    %edi
    6267:	6a 5c                	push   $0x5c
    6269:	53                   	push   %ebx
    626a:	e8 21 33 00 00       	call   9590 <compute_crc32@plt>
    626f:	8b 95 78 ff ff ff    	mov    -0x88(%ebp),%edx
    6275:	89 43 10             	mov    %eax,0x10(%ebx)
    6278:	8b 8d 7c ff ff ff    	mov    -0x84(%ebp),%ecx
    627e:	8b 45 08             	mov    0x8(%ebp),%eax
    6281:	89 1c 24             	mov    %ebx,(%esp)
    6284:	6a 01                	push   $0x1
    6286:	51                   	push   %ecx
    6287:	52                   	push   %edx
    6288:	50                   	push   %eax
    6289:	e8 52 1c 00 00       	call   7ee0 <block_write_direct>
    628e:	83 c4 20             	add    $0x20,%esp
    6291:	89 c6                	mov    %eax,%esi
    6293:	85 c0                	test   %eax,%eax
    6295:	0f 85 18 01 00 00    	jne    63b3 <gpt_create+0x493>
    629b:	83 ec 0c             	sub    $0xc,%esp
    629e:	53                   	push   %ebx
    629f:	e8 8c 34 00 00       	call   9730 <free@plt>
    62a4:	8b 55 a0             	mov    -0x60(%ebp),%edx
    62a7:	83 c4 10             	add    $0x10,%esp
    62aa:	83 c2 08             	add    $0x8,%edx
    62ad:	89 55 a0             	mov    %edx,-0x60(%ebp)
    62b0:	8b 4d a0             	mov    -0x60(%ebp),%ecx
    62b3:	83 f9 10             	cmp    $0x10,%ecx
    62b6:	0f 85 e1 00 00 00    	jne    639d <gpt_create+0x47d>
    62bc:	50                   	push   %eax
    62bd:	50                   	push   %eax
    62be:	6a 74                	push   $0x74
    62c0:	6a 01                	push   $0x1
    62c2:	e8 49 32 00 00       	call   9510 <calloc@plt>
    62c7:	89 f3                	mov    %esi,%ebx
    62c9:	83 c4 10             	add    $0x10,%esp
    62cc:	85 c0                	test   %eax,%eax
    62ce:	0f 84 fb 00 00 00    	je     63cf <gpt_create+0x4af>
    62d4:	8d 50 0c             	lea    0xc(%eax),%edx
    62d7:	8b 4d 08             	mov    0x8(%ebp),%ecx
    62da:	89 50 0c             	mov    %edx,0xc(%eax)
    62dd:	89 50 10             	mov    %edx,0x10(%eax)
    62e0:	8d 50 14             	lea    0x14(%eax),%edx
    62e3:	8b 75 80             	mov    -0x80(%ebp),%esi
    62e6:	89 50 14             	mov    %edx,0x14(%eax)
    62e9:	89 50 18             	mov    %edx,0x18(%eax)
    62ec:	8d 50 1c             	lea    0x1c(%eax),%edx
    62ef:	89 48 08             	mov    %ecx,0x8(%eax)
    62f2:	89 50 1c             	mov    %edx,0x1c(%eax)
    62f5:	89 50 20             	mov    %edx,0x20(%eax)
    62f8:	8b 55 88             	mov    -0x78(%ebp),%edx
    62fb:	8b 4d 8c             	mov    -0x74(%ebp),%ecx
    62fe:	29 d6                	sub    %edx,%esi
    6300:	89 50 24             	mov    %edx,0x24(%eax)
    6303:	8b 7d 84             	mov    -0x7c(%ebp),%edi
    6306:	8b 55 ac             	mov    -0x54(%ebp),%edx
    6309:	19 cf                	sbb    %ecx,%edi
    630b:	89 48 28             	mov    %ecx,0x28(%eax)
    630e:	83 c6 01             	add    $0x1,%esi
    6311:	8b 8d 58 ff ff ff    	mov    -0xa8(%ebp),%ecx
    6317:	89 50 3c             	mov    %edx,0x3c(%eax)
    631a:	8b 95 68 ff ff ff    	mov    -0x98(%ebp),%edx
    6320:	83 d7 00             	adc    $0x0,%edi
    6323:	89 48 34             	mov    %ecx,0x34(%eax)
    6326:	89 50 48             	mov    %edx,0x48(%eax)
    6329:	8b 8d 6c ff ff ff    	mov    -0x94(%ebp),%ecx
    632f:	8b 95 60 ff ff ff    	mov    -0xa0(%ebp),%edx
    6335:	89 78 30             	mov    %edi,0x30(%eax)
    6338:	89 48 4c             	mov    %ecx,0x4c(%eax)
    633b:	c7 00 c0 b3 00 00    	movl   $0xb3c0,(%eax)
    6341:	8b 8d 64 ff ff ff    	mov    -0x9c(%ebp),%ecx
    6347:	c7 40 04 02 00 00 00 	movl   $0x2,0x4(%eax)
    634e:	89 70 2c             	mov    %esi,0x2c(%eax)
    6351:	c7 40 40 01 00 00 00 	movl   $0x1,0x40(%eax)
    6358:	c7 40 44 00 00 00 00 	movl   $0x0,0x44(%eax)
    635f:	c7 40 54 02 00 00 00 	movl   $0x2,0x54(%eax)
    6366:	c7 40 58 00 00 00 00 	movl   $0x0,0x58(%eax)
    636d:	89 50 5c             	mov    %edx,0x5c(%eax)
    6370:	8b 55 98             	mov    -0x68(%ebp),%edx
    6373:	89 48 60             	mov    %ecx,0x60(%eax)
    6376:	89 50 64             	mov    %edx,0x64(%eax)
    6379:	8b 55 0c             	mov    0xc(%ebp),%edx
    637c:	8b 4d 9c             	mov    -0x64(%ebp),%ecx
    637f:	8b 7d 94             	mov    -0x6c(%ebp),%edi
    6382:	c7 40 6c 80 00 00 00 	movl   $0x80,0x6c(%eax)
    6389:	89 48 68             	mov    %ecx,0x68(%eax)
    638c:	89 78 70             	mov    %edi,0x70(%eax)
    638f:	c7 40 50 5c 00 00 00 	movl   $0x5c,0x50(%eax)
    6396:	89 02                	mov    %eax,(%edx)
    6398:	e9 da fb ff ff       	jmp    5f77 <gpt_create+0x57>
    639d:	8b 4d ac             	mov    -0x54(%ebp),%ecx
    63a0:	e9 9c fd ff ff       	jmp    6141 <gpt_create+0x221>
    63a5:	bb fe ff ff ff       	mov    $0xfffffffe,%ebx
    63aa:	31 ff                	xor    %edi,%edi
    63ac:	31 f6                	xor    %esi,%esi
    63ae:	e9 a4 fb ff ff       	jmp    5f57 <gpt_create+0x37>
    63b3:	89 de                	mov    %ebx,%esi
    63b5:	31 ff                	xor    %edi,%edi
    63b7:	bb f6 fe ff ff       	mov    $0xfffffef6,%ebx
    63bc:	e9 96 fb ff ff       	jmp    5f57 <gpt_create+0x37>
    63c1:	89 df                	mov    %ebx,%edi
    63c3:	31 f6                	xor    %esi,%esi
    63c5:	bb f6 fe ff ff       	mov    $0xfffffef6,%ebx
    63ca:	e9 88 fb ff ff       	jmp    5f57 <gpt_create+0x37>
    63cf:	bb fe ff ff ff       	mov    $0xfffffffe,%ebx
    63d4:	e9 9e fb ff ff       	jmp    5f77 <gpt_create+0x57>
    63d9:	8d b4 26 00 00 00 00 	lea    0x0(%esi,%eiz,1),%esi

000063e0 <gpt_open>:
    63e0:	55                   	push   %ebp
    63e1:	89 e5                	mov    %esp,%ebp
    63e3:	57                   	push   %edi
    63e4:	56                   	push   %esi
    63e5:	53                   	push   %ebx
    63e6:	81 ec b4 00 00 00    	sub    $0xb4,%esp
    63ec:	8d 45 c4             	lea    -0x3c(%ebp),%eax
    63ef:	8b 75 08             	mov    0x8(%ebp),%esi
    63f2:	c7 45 c8 00 00 00 00 	movl   $0x0,-0x38(%ebp)
    63f9:	50                   	push   %eax
    63fa:	c7 45 cc 00 00 00 00 	movl   $0x0,-0x34(%ebp)
    6401:	56                   	push   %esi
    6402:	c7 45 d0 00 00 00 00 	movl   $0x0,-0x30(%ebp)
    6409:	c7 45 d4 00 00 00 00 	movl   $0x0,-0x2c(%ebp)
    6410:	e8 5b 1c 00 00       	call   8070 <block_get_bsize>
    6415:	83 c4 10             	add    $0x10,%esp
    6418:	85 c0                	test   %eax,%eax
    641a:	0f 85 c8 00 00 00    	jne    64e8 <gpt_open+0x108>
    6420:	8b 45 c4             	mov    -0x3c(%ebp),%eax
    6423:	3d ff 01 00 00       	cmp    $0x1ff,%eax
    6428:	77 4e                	ja     6478 <gpt_open+0x98>
    642a:	31 ff                	xor    %edi,%edi
    642c:	31 c0                	xor    %eax,%eax
    642e:	31 f6                	xor    %esi,%esi
    6430:	31 d2                	xor    %edx,%edx
    6432:	c7 45 b4 f2 ff ff ff 	movl   $0xfffffff2,-0x4c(%ebp)
    6439:	31 db                	xor    %ebx,%ebx
    643b:	83 ec 0c             	sub    $0xc,%esp
    643e:	89 45 b0             	mov    %eax,-0x50(%ebp)
    6441:	52                   	push   %edx
    6442:	e8 e9 32 00 00       	call   9730 <free@plt>
    6447:	89 34 24             	mov    %esi,(%esp)
    644a:	e8 e1 32 00 00       	call   9730 <free@plt>
    644f:	8b 45 b0             	mov    -0x50(%ebp),%eax
    6452:	89 04 24             	mov    %eax,(%esp)
    6455:	e8 d6 32 00 00       	call   9730 <free@plt>
    645a:	89 3c 24             	mov    %edi,(%esp)
    645d:	e8 ce 32 00 00       	call   9730 <free@plt>
    6462:	89 1c 24             	mov    %ebx,(%esp)
    6465:	e8 c6 32 00 00       	call   9730 <free@plt>
    646a:	83 c4 10             	add    $0x10,%esp
    646d:	8b 45 b4             	mov    -0x4c(%ebp),%eax
    6470:	8d 65 f4             	lea    -0xc(%ebp),%esp
    6473:	5b                   	pop    %ebx
    6474:	5e                   	pop    %esi
    6475:	5f                   	pop    %edi
    6476:	5d                   	pop    %ebp
    6477:	c3                   	ret    
    6478:	a9 ff 01 00 00       	test   $0x1ff,%eax
    647d:	75 ab                	jne    642a <gpt_open+0x4a>
    647f:	52                   	push   %edx
    6480:	52                   	push   %edx
    6481:	50                   	push   %eax
    6482:	6a 01                	push   $0x1
    6484:	e8 87 30 00 00       	call   9510 <calloc@plt>
    6489:	83 c4 10             	add    $0x10,%esp
    648c:	89 45 c8             	mov    %eax,-0x38(%ebp)
    648f:	85 c0                	test   %eax,%eax
    6491:	89 45 b4             	mov    %eax,-0x4c(%ebp)
    6494:	0f 84 46 01 00 00    	je     65e0 <gpt_open+0x200>
    649a:	8b 45 c4             	mov    -0x3c(%ebp),%eax
    649d:	57                   	push   %edi
    649e:	57                   	push   %edi
    649f:	50                   	push   %eax
    64a0:	6a 01                	push   $0x1
    64a2:	e8 69 30 00 00       	call   9510 <calloc@plt>
    64a7:	83 c4 10             	add    $0x10,%esp
    64aa:	89 c7                	mov    %eax,%edi
    64ac:	89 45 cc             	mov    %eax,-0x34(%ebp)
    64af:	85 c0                	test   %eax,%eax
    64b1:	8b 4d b4             	mov    -0x4c(%ebp),%ecx
    64b4:	0f 84 3e 01 00 00    	je     65f8 <gpt_open+0x218>
    64ba:	83 ec 0c             	sub    $0xc,%esp
    64bd:	51                   	push   %ecx
    64be:	6a 01                	push   $0x1
    64c0:	6a 00                	push   $0x0
    64c2:	6a 01                	push   $0x1
    64c4:	56                   	push   %esi
    64c5:	e8 36 19 00 00       	call   7e00 <block_read_direct>
    64ca:	83 c4 20             	add    $0x20,%esp
    64cd:	8b 4d b4             	mov    -0x4c(%ebp),%ecx
    64d0:	85 c0                	test   %eax,%eax
    64d2:	74 2c                	je     6500 <gpt_open+0x120>
    64d4:	89 c8                	mov    %ecx,%eax
    64d6:	31 f6                	xor    %esi,%esi
    64d8:	31 d2                	xor    %edx,%edx
    64da:	c7 45 b4 f6 fe ff ff 	movl   $0xfffffef6,-0x4c(%ebp)
    64e1:	31 db                	xor    %ebx,%ebx
    64e3:	e9 53 ff ff ff       	jmp    643b <gpt_open+0x5b>
    64e8:	31 ff                	xor    %edi,%edi
    64ea:	31 c0                	xor    %eax,%eax
    64ec:	31 f6                	xor    %esi,%esi
    64ee:	31 d2                	xor    %edx,%edx
    64f0:	c7 45 b4 f6 fe ff ff 	movl   $0xfffffef6,-0x4c(%ebp)
    64f7:	31 db                	xor    %ebx,%ebx
    64f9:	e9 3d ff ff ff       	jmp    643b <gpt_open+0x5b>
    64fe:	66 90                	xchg   %ax,%ax
    6500:	83 ec 0c             	sub    $0xc,%esp
    6503:	8b 41 20             	mov    0x20(%ecx),%eax
    6506:	8b 51 24             	mov    0x24(%ecx),%edx
    6509:	89 45 a8             	mov    %eax,-0x58(%ebp)
    650c:	57                   	push   %edi
    650d:	89 55 ac             	mov    %edx,-0x54(%ebp)
    6510:	6a 01                	push   $0x1
    6512:	52                   	push   %edx
    6513:	50                   	push   %eax
    6514:	56                   	push   %esi
    6515:	e8 e6 18 00 00       	call   7e00 <block_read_direct>
    651a:	83 c4 20             	add    $0x20,%esp
    651d:	89 45 b0             	mov    %eax,-0x50(%ebp)
    6520:	85 c0                	test   %eax,%eax
    6522:	8b 4d b4             	mov    -0x4c(%ebp),%ecx
    6525:	75 ad                	jne    64d4 <gpt_open+0xf4>
    6527:	53                   	push   %ebx
    6528:	53                   	push   %ebx
    6529:	6a 74                	push   $0x74
    652b:	6a 01                	push   $0x1
    652d:	e8 de 2f 00 00       	call   9510 <calloc@plt>
    6532:	83 c4 10             	add    $0x10,%esp
    6535:	89 c3                	mov    %eax,%ebx
    6537:	85 c0                	test   %eax,%eax
    6539:	0f 84 ef 03 00 00    	je     692e <gpt_open+0x54e>
    653f:	8d 40 0c             	lea    0xc(%eax),%eax
    6542:	8b 4d b4             	mov    -0x4c(%ebp),%ecx
    6545:	89 45 84             	mov    %eax,-0x7c(%ebp)
    6548:	89 43 0c             	mov    %eax,0xc(%ebx)
    654b:	89 43 10             	mov    %eax,0x10(%ebx)
    654e:	8d 43 14             	lea    0x14(%ebx),%eax
    6551:	89 45 88             	mov    %eax,-0x78(%ebp)
    6554:	89 43 14             	mov    %eax,0x14(%ebx)
    6557:	89 43 18             	mov    %eax,0x18(%ebx)
    655a:	8d 43 1c             	lea    0x1c(%ebx),%eax
    655d:	89 43 1c             	mov    %eax,0x1c(%ebx)
    6560:	89 43 20             	mov    %eax,0x20(%ebx)
    6563:	80 39 45             	cmpb   $0x45,(%ecx)
    6566:	75 61                	jne    65c9 <gpt_open+0x1e9>
    6568:	80 79 01 46          	cmpb   $0x46,0x1(%ecx)
    656c:	75 5b                	jne    65c9 <gpt_open+0x1e9>
    656e:	80 79 02 49          	cmpb   $0x49,0x2(%ecx)
    6572:	75 55                	jne    65c9 <gpt_open+0x1e9>
    6574:	80 79 03 20          	cmpb   $0x20,0x3(%ecx)
    6578:	75 4f                	jne    65c9 <gpt_open+0x1e9>
    657a:	80 79 04 50          	cmpb   $0x50,0x4(%ecx)
    657e:	75 49                	jne    65c9 <gpt_open+0x1e9>
    6580:	80 79 05 41          	cmpb   $0x41,0x5(%ecx)
    6584:	75 43                	jne    65c9 <gpt_open+0x1e9>
    6586:	80 79 06 52          	cmpb   $0x52,0x6(%ecx)
    658a:	75 3d                	jne    65c9 <gpt_open+0x1e9>
    658c:	80 79 07 54          	cmpb   $0x54,0x7(%ecx)
    6590:	75 37                	jne    65c9 <gpt_open+0x1e9>
    6592:	80 3f 45             	cmpb   $0x45,(%edi)
    6595:	75 32                	jne    65c9 <gpt_open+0x1e9>
    6597:	80 7f 01 46          	cmpb   $0x46,0x1(%edi)
    659b:	75 2c                	jne    65c9 <gpt_open+0x1e9>
    659d:	80 7f 02 49          	cmpb   $0x49,0x2(%edi)
    65a1:	75 26                	jne    65c9 <gpt_open+0x1e9>
    65a3:	80 7f 03 20          	cmpb   $0x20,0x3(%edi)
    65a7:	75 20                	jne    65c9 <gpt_open+0x1e9>
    65a9:	80 7f 04 50          	cmpb   $0x50,0x4(%edi)
    65ad:	75 1a                	jne    65c9 <gpt_open+0x1e9>
    65af:	80 7f 05 41          	cmpb   $0x41,0x5(%edi)
    65b3:	75 14                	jne    65c9 <gpt_open+0x1e9>
    65b5:	80 7f 06 52          	cmpb   $0x52,0x6(%edi)
    65b9:	75 0e                	jne    65c9 <gpt_open+0x1e9>
    65bb:	80 7f 07 54          	cmpb   $0x54,0x7(%edi)
    65bf:	75 08                	jne    65c9 <gpt_open+0x1e9>
    65c1:	8b 47 08             	mov    0x8(%edi),%eax
    65c4:	39 41 08             	cmp    %eax,0x8(%ecx)
    65c7:	74 45                	je     660e <gpt_open+0x22e>
    65c9:	89 c8                	mov    %ecx,%eax
    65cb:	31 f6                	xor    %esi,%esi
    65cd:	31 d2                	xor    %edx,%edx
    65cf:	c7 45 b4 f2 ff ff ff 	movl   $0xfffffff2,-0x4c(%ebp)
    65d6:	e9 60 fe ff ff       	jmp    643b <gpt_open+0x5b>
    65db:	90                   	nop
    65dc:	8d 74 26 00          	lea    0x0(%esi,%eiz,1),%esi
    65e0:	31 ff                	xor    %edi,%edi
    65e2:	31 c0                	xor    %eax,%eax
    65e4:	31 f6                	xor    %esi,%esi
    65e6:	31 d2                	xor    %edx,%edx
    65e8:	c7 45 b4 fe ff ff ff 	movl   $0xfffffffe,-0x4c(%ebp)
    65ef:	31 db                	xor    %ebx,%ebx
    65f1:	e9 45 fe ff ff       	jmp    643b <gpt_open+0x5b>
    65f6:	66 90                	xchg   %ax,%ax
    65f8:	89 c8                	mov    %ecx,%eax
    65fa:	31 ff                	xor    %edi,%edi
    65fc:	31 f6                	xor    %esi,%esi
    65fe:	31 d2                	xor    %edx,%edx
    6600:	c7 45 b4 fe ff ff ff 	movl   $0xfffffffe,-0x4c(%ebp)
    6607:	31 db                	xor    %ebx,%ebx
    6609:	e9 2d fe ff ff       	jmp    643b <gpt_open+0x5b>
    660e:	8b 41 0c             	mov    0xc(%ecx),%eax
    6611:	89 45 94             	mov    %eax,-0x6c(%ebp)
    6614:	39 47 0c             	cmp    %eax,0xc(%edi)
    6617:	75 b0                	jne    65c9 <gpt_open+0x1e9>
    6619:	83 f8 5b             	cmp    $0x5b,%eax
    661c:	76 ab                	jbe    65c9 <gpt_open+0x1e9>
    661e:	3b 45 c4             	cmp    -0x3c(%ebp),%eax
    6621:	77 a6                	ja     65c9 <gpt_open+0x1e9>
    6623:	89 75 08             	mov    %esi,0x8(%ebp)
    6626:	c7 45 b4 00 00 00 00 	movl   $0x0,-0x4c(%ebp)
    662d:	89 5d a0             	mov    %ebx,-0x60(%ebp)
    6630:	89 7d 98             	mov    %edi,-0x68(%ebp)
    6633:	89 ce                	mov    %ecx,%esi
    6635:	51                   	push   %ecx
    6636:	51                   	push   %ecx
    6637:	ff 75 94             	pushl  -0x6c(%ebp)
    663a:	8b 45 b4             	mov    -0x4c(%ebp),%eax
    663d:	6a 01                	push   $0x1
    663f:	8b 7c 85 c8          	mov    -0x38(%ebp,%eax,4),%edi
    6643:	e8 c8 2e 00 00       	call   9510 <calloc@plt>
    6648:	83 c4 10             	add    $0x10,%esp
    664b:	89 c3                	mov    %eax,%ebx
    664d:	85 c0                	test   %eax,%eax
    664f:	0f 84 fd 02 00 00    	je     6952 <gpt_open+0x572>
    6655:	50                   	push   %eax
    6656:	ff 75 94             	pushl  -0x6c(%ebp)
    6659:	57                   	push   %edi
    665a:	53                   	push   %ebx
    665b:	e8 d0 2d 00 00       	call   9430 <memcpy@plt>
    6660:	c7 43 10 00 00 00 00 	movl   $0x0,0x10(%ebx)
    6667:	58                   	pop    %eax
    6668:	5a                   	pop    %edx
    6669:	ff 75 94             	pushl  -0x6c(%ebp)
    666c:	53                   	push   %ebx
    666d:	e8 1e 2f 00 00       	call   9590 <compute_crc32@plt>
    6672:	89 1c 24             	mov    %ebx,(%esp)
    6675:	89 45 90             	mov    %eax,-0x70(%ebp)
    6678:	e8 b3 30 00 00       	call   9730 <free@plt>
    667d:	8b 45 90             	mov    -0x70(%ebp),%eax
    6680:	83 c4 10             	add    $0x10,%esp
    6683:	39 47 10             	cmp    %eax,0x10(%edi)
    6686:	0f 85 ae 02 00 00    	jne    693a <gpt_open+0x55a>
    668c:	ff 45 b4             	incl   -0x4c(%ebp)
    668f:	8b 45 b4             	mov    -0x4c(%ebp),%eax
    6692:	83 f8 02             	cmp    $0x2,%eax
    6695:	75 9e                	jne    6635 <gpt_open+0x255>
    6697:	89 f1                	mov    %esi,%ecx
    6699:	8b 5d a0             	mov    -0x60(%ebp),%ebx
    669c:	8b 7d 98             	mov    -0x68(%ebp),%edi
    669f:	8b 75 08             	mov    0x8(%ebp),%esi
    66a2:	8b 41 18             	mov    0x18(%ecx),%eax
    66a5:	83 f0 01             	xor    $0x1,%eax
    66a8:	0b 41 1c             	or     0x1c(%ecx),%eax
    66ab:	0f 85 18 ff ff ff    	jne    65c9 <gpt_open+0x1e9>
    66b1:	8b 45 ac             	mov    -0x54(%ebp),%eax
    66b4:	3b 47 1c             	cmp    0x1c(%edi),%eax
    66b7:	0f 85 0c ff ff ff    	jne    65c9 <gpt_open+0x1e9>
    66bd:	8b 45 a8             	mov    -0x58(%ebp),%eax
    66c0:	3b 47 18             	cmp    0x18(%edi),%eax
    66c3:	0f 85 00 ff ff ff    	jne    65c9 <gpt_open+0x1e9>
    66c9:	8b 47 20             	mov    0x20(%edi),%eax
    66cc:	83 f0 01             	xor    $0x1,%eax
    66cf:	0b 47 24             	or     0x24(%edi),%eax
    66d2:	0f 85 f1 fe ff ff    	jne    65c9 <gpt_open+0x1e9>
    66d8:	8b 51 54             	mov    0x54(%ecx),%edx
    66db:	8b 41 50             	mov    0x50(%ecx),%eax
    66de:	89 45 90             	mov    %eax,-0x70(%ebp)
    66e1:	89 55 8c             	mov    %edx,-0x74(%ebp)
    66e4:	0f af c2             	imul   %edx,%eax
    66e7:	8b 55 c4             	mov    -0x3c(%ebp),%edx
    66ea:	89 85 78 ff ff ff    	mov    %eax,-0x88(%ebp)
    66f0:	8d 44 10 ff          	lea    -0x1(%eax,%edx,1),%eax
    66f4:	31 d2                	xor    %edx,%edx
    66f6:	f7 75 c4             	divl   -0x3c(%ebp)
    66f9:	89 85 7c ff ff ff    	mov    %eax,-0x84(%ebp)
    66ff:	8b 51 4c             	mov    0x4c(%ecx),%edx
    6702:	8b 41 48             	mov    0x48(%ecx),%eax
    6705:	89 95 5c ff ff ff    	mov    %edx,-0xa4(%ebp)
    670b:	89 85 58 ff ff ff    	mov    %eax,-0xa8(%ebp)
    6711:	89 45 d8             	mov    %eax,-0x28(%ebp)
    6714:	89 55 dc             	mov    %edx,-0x24(%ebp)
    6717:	8b 47 48             	mov    0x48(%edi),%eax
    671a:	8b 57 4c             	mov    0x4c(%edi),%edx
    671d:	89 85 50 ff ff ff    	mov    %eax,-0xb0(%ebp)
    6723:	89 95 54 ff ff ff    	mov    %edx,-0xac(%ebp)
    6729:	89 45 e0             	mov    %eax,-0x20(%ebp)
    672c:	89 55 e4             	mov    %edx,-0x1c(%ebp)
    672f:	8b 41 28             	mov    0x28(%ecx),%eax
    6732:	8b 51 2c             	mov    0x2c(%ecx),%edx
    6735:	89 45 a0             	mov    %eax,-0x60(%ebp)
    6738:	89 55 a4             	mov    %edx,-0x5c(%ebp)
    673b:	8b 41 30             	mov    0x30(%ecx),%eax
    673e:	8b 51 34             	mov    0x34(%ecx),%edx
    6741:	89 45 98             	mov    %eax,-0x68(%ebp)
    6744:	89 55 9c             	mov    %edx,-0x64(%ebp)
    6747:	8b 45 a4             	mov    -0x5c(%ebp),%eax
    674a:	8b 51 58             	mov    0x58(%ecx),%edx
    674d:	89 95 6c ff ff ff    	mov    %edx,-0x94(%ebp)
    6753:	3b 47 2c             	cmp    0x2c(%edi),%eax
    6756:	0f 85 6d fe ff ff    	jne    65c9 <gpt_open+0x1e9>
    675c:	8b 45 a0             	mov    -0x60(%ebp),%eax
    675f:	3b 47 28             	cmp    0x28(%edi),%eax
    6762:	0f 85 61 fe ff ff    	jne    65c9 <gpt_open+0x1e9>
    6768:	8b 45 9c             	mov    -0x64(%ebp),%eax
    676b:	3b 47 34             	cmp    0x34(%edi),%eax
    676e:	0f 85 55 fe ff ff    	jne    65c9 <gpt_open+0x1e9>
    6774:	8b 45 98             	mov    -0x68(%ebp),%eax
    6777:	3b 47 30             	cmp    0x30(%edi),%eax
    677a:	0f 85 49 fe ff ff    	jne    65c9 <gpt_open+0x1e9>
    6780:	31 c0                	xor    %eax,%eax
    6782:	8a 54 01 38          	mov    0x38(%ecx,%eax,1),%dl
    6786:	38 54 07 38          	cmp    %dl,0x38(%edi,%eax,1)
    678a:	0f 85 39 fe ff ff    	jne    65c9 <gpt_open+0x1e9>
    6790:	40                   	inc    %eax
    6791:	83 f8 10             	cmp    $0x10,%eax
    6794:	75 ec                	jne    6782 <gpt_open+0x3a2>
    6796:	8b 45 90             	mov    -0x70(%ebp),%eax
    6799:	3b 47 50             	cmp    0x50(%edi),%eax
    679c:	0f 85 27 fe ff ff    	jne    65c9 <gpt_open+0x1e9>
    67a2:	85 c0                	test   %eax,%eax
    67a4:	0f 94 c0             	sete   %al
    67a7:	83 7d 8c 7f          	cmpl   $0x7f,-0x74(%ebp)
    67ab:	0f 96 c2             	setbe  %dl
    67ae:	09 d0                	or     %edx,%eax
    67b0:	b2 01                	mov    $0x1,%dl
    67b2:	88 45 b4             	mov    %al,-0x4c(%ebp)
    67b5:	8b 45 9c             	mov    -0x64(%ebp),%eax
    67b8:	39 45 a4             	cmp    %eax,-0x5c(%ebp)
    67bb:	77 0c                	ja     67c9 <gpt_open+0x3e9>
    67bd:	72 08                	jb     67c7 <gpt_open+0x3e7>
    67bf:	8b 45 98             	mov    -0x68(%ebp),%eax
    67c2:	39 45 a0             	cmp    %eax,-0x60(%ebp)
    67c5:	77 02                	ja     67c9 <gpt_open+0x3e9>
    67c7:	31 d2                	xor    %edx,%edx
    67c9:	8a 45 b4             	mov    -0x4c(%ebp),%al
    67cc:	09 d0                	or     %edx,%eax
    67ce:	8b 55 8c             	mov    -0x74(%ebp),%edx
    67d1:	39 57 54             	cmp    %edx,0x54(%edi)
    67d4:	0f 95 c2             	setne  %dl
    67d7:	08 d0                	or     %dl,%al
    67d9:	0f 85 ea fd ff ff    	jne    65c9 <gpt_open+0x1e9>
    67df:	8b 85 7c ff ff ff    	mov    -0x84(%ebp),%eax
    67e5:	89 4d 80             	mov    %ecx,-0x80(%ebp)
    67e8:	d1 e8                	shr    %eax
    67ea:	89 85 74 ff ff ff    	mov    %eax,-0x8c(%ebp)
    67f0:	50                   	push   %eax
    67f1:	50                   	push   %eax
    67f2:	8b 85 7c ff ff ff    	mov    -0x84(%ebp),%eax
    67f8:	0f af 45 c4          	imul   -0x3c(%ebp),%eax
    67fc:	50                   	push   %eax
    67fd:	6a 01                	push   $0x1
    67ff:	e8 0c 2d 00 00       	call   9510 <calloc@plt>
    6804:	83 c4 10             	add    $0x10,%esp
    6807:	89 c2                	mov    %eax,%edx
    6809:	8b 45 b0             	mov    -0x50(%ebp),%eax
    680c:	85 d2                	test   %edx,%edx
    680e:	89 54 85 d0          	mov    %edx,-0x30(%ebp,%eax,4)
    6812:	0f 84 69 01 00 00    	je     6981 <gpt_open+0x5a1>
    6818:	83 ec 0c             	sub    $0xc,%esp
    681b:	8b 45 b0             	mov    -0x50(%ebp),%eax
    681e:	89 95 70 ff ff ff    	mov    %edx,-0x90(%ebp)
    6824:	52                   	push   %edx
    6825:	ff b5 74 ff ff ff    	pushl  -0x8c(%ebp)
    682b:	ff 74 c5 dc          	pushl  -0x24(%ebp,%eax,8)
    682f:	ff 74 c5 d8          	pushl  -0x28(%ebp,%eax,8)
    6833:	56                   	push   %esi
    6834:	e8 c7 15 00 00       	call   7e00 <block_read_direct>
    6839:	83 c4 20             	add    $0x20,%esp
    683c:	89 45 b4             	mov    %eax,-0x4c(%ebp)
    683f:	85 c0                	test   %eax,%eax
    6841:	8b 95 70 ff ff ff    	mov    -0x90(%ebp),%edx
    6847:	0f 85 1d 01 00 00    	jne    696a <gpt_open+0x58a>
    684d:	50                   	push   %eax
    684e:	50                   	push   %eax
    684f:	ff b5 78 ff ff ff    	pushl  -0x88(%ebp)
    6855:	52                   	push   %edx
    6856:	e8 35 2d 00 00       	call   9590 <compute_crc32@plt>
    685b:	83 c4 10             	add    $0x10,%esp
    685e:	39 85 6c ff ff ff    	cmp    %eax,-0x94(%ebp)
    6864:	0f 85 00 01 00 00    	jne    696a <gpt_open+0x58a>
    686a:	ff 45 b0             	incl   -0x50(%ebp)
    686d:	8b 45 b0             	mov    -0x50(%ebp),%eax
    6870:	83 f8 02             	cmp    $0x2,%eax
    6873:	0f 85 77 ff ff ff    	jne    67f0 <gpt_open+0x410>
    6879:	8b 4d 80             	mov    -0x80(%ebp),%ecx
    687c:	89 bd 74 ff ff ff    	mov    %edi,-0x8c(%ebp)
    6882:	c7 85 70 ff ff ff 00 	movl   $0x0,-0x90(%ebp)
    6889:	00 00 00 
    688c:	c7 45 80 00 00 00 00 	movl   $0x0,-0x80(%ebp)
    6893:	89 8d 78 ff ff ff    	mov    %ecx,-0x88(%ebp)
    6899:	89 df                	mov    %ebx,%edi
    689b:	89 75 08             	mov    %esi,0x8(%ebp)
    689e:	8b 45 d0             	mov    -0x30(%ebp),%eax
    68a1:	ff 45 80             	incl   -0x80(%ebp)
    68a4:	89 45 b0             	mov    %eax,-0x50(%ebp)
    68a7:	8b 85 70 ff ff ff    	mov    -0x90(%ebp),%eax
    68ad:	8b 4d b0             	mov    -0x50(%ebp),%ecx
    68b0:	31 db                	xor    %ebx,%ebx
    68b2:	89 ca                	mov    %ecx,%edx
    68b4:	8d 34 01             	lea    (%ecx,%eax,1),%esi
    68b7:	31 c0                	xor    %eax,%eax
    68b9:	b1 01                	mov    $0x1,%cl
    68bb:	80 3c 06 00          	cmpb   $0x0,(%esi,%eax,1)
    68bf:	75 02                	jne    68c3 <gpt_open+0x4e3>
    68c1:	88 d9                	mov    %bl,%cl
    68c3:	40                   	inc    %eax
    68c4:	88 cb                	mov    %cl,%bl
    68c6:	83 f8 08             	cmp    $0x8,%eax
    68c9:	75 ee                	jne    68b9 <gpt_open+0x4d9>
    68cb:	89 55 b0             	mov    %edx,-0x50(%ebp)
    68ce:	84 c9                	test   %cl,%cl
    68d0:	0f 84 6e 01 00 00    	je     6a44 <gpt_open+0x664>
    68d6:	8b 5e 24             	mov    0x24(%esi),%ebx
    68d9:	8b 56 2c             	mov    0x2c(%esi),%edx
    68dc:	8b 4e 20             	mov    0x20(%esi),%ecx
    68df:	8b 46 28             	mov    0x28(%esi),%eax
    68e2:	89 8d 60 ff ff ff    	mov    %ecx,-0xa0(%ebp)
    68e8:	89 9d 64 ff ff ff    	mov    %ebx,-0x9c(%ebp)
    68ee:	89 85 48 ff ff ff    	mov    %eax,-0xb8(%ebp)
    68f4:	89 95 4c ff ff ff    	mov    %edx,-0xb4(%ebp)
    68fa:	39 d3                	cmp    %edx,%ebx
    68fc:	0f 82 96 00 00 00    	jb     6998 <gpt_open+0x5b8>
    6902:	77 08                	ja     690c <gpt_open+0x52c>
    6904:	39 c1                	cmp    %eax,%ecx
    6906:	0f 82 8c 00 00 00    	jb     6998 <gpt_open+0x5b8>
    690c:	8b 8d 78 ff ff ff    	mov    -0x88(%ebp),%ecx
    6912:	89 fb                	mov    %edi,%ebx
    6914:	8b 55 b0             	mov    -0x50(%ebp),%edx
    6917:	8b bd 74 ff ff ff    	mov    -0x8c(%ebp),%edi
    691d:	8b 75 d4             	mov    -0x2c(%ebp),%esi
    6920:	89 c8                	mov    %ecx,%eax
    6922:	c7 45 b4 f2 ff ff ff 	movl   $0xfffffff2,-0x4c(%ebp)
    6929:	e9 0d fb ff ff       	jmp    643b <gpt_open+0x5b>
    692e:	c7 45 b4 fe ff ff ff 	movl   $0xfffffffe,-0x4c(%ebp)
    6935:	e9 33 fb ff ff       	jmp    646d <gpt_open+0x8d>
    693a:	89 f0                	mov    %esi,%eax
    693c:	8b 5d a0             	mov    -0x60(%ebp),%ebx
    693f:	8b 7d 98             	mov    -0x68(%ebp),%edi
    6942:	31 f6                	xor    %esi,%esi
    6944:	31 d2                	xor    %edx,%edx
    6946:	c7 45 b4 f2 ff ff ff 	movl   $0xfffffff2,-0x4c(%ebp)
    694d:	e9 e9 fa ff ff       	jmp    643b <gpt_open+0x5b>
    6952:	89 f0                	mov    %esi,%eax
    6954:	8b 5d a0             	mov    -0x60(%ebp),%ebx
    6957:	8b 7d 98             	mov    -0x68(%ebp),%edi
    695a:	31 f6                	xor    %esi,%esi
    695c:	31 d2                	xor    %edx,%edx
    695e:	c7 45 b4 fe ff ff ff 	movl   $0xfffffffe,-0x4c(%ebp)
    6965:	e9 d1 fa ff ff       	jmp    643b <gpt_open+0x5b>
    696a:	8b 4d 80             	mov    -0x80(%ebp),%ecx
    696d:	8b 55 d0             	mov    -0x30(%ebp),%edx
    6970:	8b 75 d4             	mov    -0x2c(%ebp),%esi
    6973:	89 c8                	mov    %ecx,%eax
    6975:	c7 45 b4 f6 fe ff ff 	movl   $0xfffffef6,-0x4c(%ebp)
    697c:	e9 ba fa ff ff       	jmp    643b <gpt_open+0x5b>
    6981:	8b 4d 80             	mov    -0x80(%ebp),%ecx
    6984:	8b 55 d0             	mov    -0x30(%ebp),%edx
    6987:	8b 75 d4             	mov    -0x2c(%ebp),%esi
    698a:	89 c8                	mov    %ecx,%eax
    698c:	c7 45 b4 fe ff ff ff 	movl   $0xfffffffe,-0x4c(%ebp)
    6993:	e9 a3 fa ff ff       	jmp    643b <gpt_open+0x5b>
    6998:	50                   	push   %eax
    6999:	50                   	push   %eax
    699a:	6a 5c                	push   $0x5c
    699c:	6a 01                	push   $0x1
    699e:	e8 6d 2b 00 00       	call   9510 <calloc@plt>
    69a3:	83 c4 10             	add    $0x10,%esp
    69a6:	85 c0                	test   %eax,%eax
    69a8:	0f 84 94 01 00 00    	je     6b42 <gpt_open+0x762>
    69ae:	8b 4d 80             	mov    -0x80(%ebp),%ecx
    69b1:	8b 9d 64 ff ff ff    	mov    -0x9c(%ebp),%ebx
    69b7:	89 48 1c             	mov    %ecx,0x1c(%eax)
    69ba:	8b 8d 60 ff ff ff    	mov    -0xa0(%ebp),%ecx
    69c0:	89 48 28             	mov    %ecx,0x28(%eax)
    69c3:	8b 8d 48 ff ff ff    	mov    -0xb8(%ebp),%ecx
    69c9:	89 58 2c             	mov    %ebx,0x2c(%eax)
    69cc:	83 c1 01             	add    $0x1,%ecx
    69cf:	8b 9d 4c ff ff ff    	mov    -0xb4(%ebp),%ebx
    69d5:	c7 40 38 01 00 00 00 	movl   $0x1,0x38(%eax)
    69dc:	83 d3 00             	adc    $0x0,%ebx
    69df:	2b 8d 60 ff ff ff    	sub    -0xa0(%ebp),%ecx
    69e5:	1b 9d 64 ff ff ff    	sbb    -0x9c(%ebp),%ebx
    69eb:	89 48 30             	mov    %ecx,0x30(%eax)
    69ee:	89 58 34             	mov    %ebx,0x34(%eax)
    69f1:	52                   	push   %edx
    69f2:	52                   	push   %edx
    69f3:	8d 50 3c             	lea    0x3c(%eax),%edx
    69f6:	52                   	push   %edx
    69f7:	89 45 b0             	mov    %eax,-0x50(%ebp)
    69fa:	56                   	push   %esi
    69fb:	e8 c0 2b 00 00       	call   95c0 <uuid_decode@plt>
    6a00:	8b 45 b0             	mov    -0x50(%ebp),%eax
    6a03:	83 c6 10             	add    $0x10,%esi
    6a06:	59                   	pop    %ecx
    6a07:	5b                   	pop    %ebx
    6a08:	8d 50 4c             	lea    0x4c(%eax),%edx
    6a0b:	52                   	push   %edx
    6a0c:	56                   	push   %esi
    6a0d:	e8 ae 2b 00 00       	call   95c0 <uuid_decode@plt>
    6a12:	8b 45 b0             	mov    -0x50(%ebp),%eax
    6a15:	8b 4d 84             	mov    -0x7c(%ebp),%ecx
    6a18:	8d 50 04             	lea    0x4(%eax),%edx
    6a1b:	89 48 08             	mov    %ecx,0x8(%eax)
    6a1e:	8b 4f 0c             	mov    0xc(%edi),%ecx
    6a21:	89 48 04             	mov    %ecx,0x4(%eax)
    6a24:	89 38                	mov    %edi,(%eax)
    6a26:	89 51 04             	mov    %edx,0x4(%ecx)
    6a29:	8b 4d 88             	mov    -0x78(%ebp),%ecx
    6a2c:	89 48 10             	mov    %ecx,0x10(%eax)
    6a2f:	8b 4f 14             	mov    0x14(%edi),%ecx
    6a32:	89 57 0c             	mov    %edx,0xc(%edi)
    6a35:	8d 50 0c             	lea    0xc(%eax),%edx
    6a38:	89 48 0c             	mov    %ecx,0xc(%eax)
    6a3b:	83 c4 10             	add    $0x10,%esp
    6a3e:	89 51 04             	mov    %edx,0x4(%ecx)
    6a41:	89 57 14             	mov    %edx,0x14(%edi)
    6a44:	8b 4d 8c             	mov    -0x74(%ebp),%ecx
    6a47:	01 8d 70 ff ff ff    	add    %ecx,-0x90(%ebp)
    6a4d:	8b 4d 80             	mov    -0x80(%ebp),%ecx
    6a50:	39 4d 90             	cmp    %ecx,-0x70(%ebp)
    6a53:	0f 85 45 fe ff ff    	jne    689e <gpt_open+0x4be>
    6a59:	83 ec 0c             	sub    $0xc,%esp
    6a5c:	8b 8d 78 ff ff ff    	mov    -0x88(%ebp),%ecx
    6a62:	ff 75 d0             	pushl  -0x30(%ebp)
    6a65:	89 fb                	mov    %edi,%ebx
    6a67:	89 4d b0             	mov    %ecx,-0x50(%ebp)
    6a6a:	8b bd 74 ff ff ff    	mov    -0x8c(%ebp),%edi
    6a70:	8b 75 08             	mov    0x8(%ebp),%esi
    6a73:	e8 b8 2c 00 00       	call   9730 <free@plt>
    6a78:	58                   	pop    %eax
    6a79:	ff 75 d4             	pushl  -0x2c(%ebp)
    6a7c:	e8 af 2c 00 00       	call   9730 <free@plt>
    6a81:	8b 4d b0             	mov    -0x50(%ebp),%ecx
    6a84:	89 0c 24             	mov    %ecx,(%esp)
    6a87:	e8 a4 2c 00 00       	call   9730 <free@plt>
    6a8c:	89 3c 24             	mov    %edi,(%esp)
    6a8f:	e8 9c 2c 00 00       	call   9730 <free@plt>
    6a94:	8b 45 98             	mov    -0x68(%ebp),%eax
    6a97:	89 73 08             	mov    %esi,0x8(%ebx)
    6a9a:	8b 55 9c             	mov    -0x64(%ebp),%edx
    6a9d:	8b 75 a0             	mov    -0x60(%ebp),%esi
    6aa0:	83 c0 01             	add    $0x1,%eax
    6aa3:	8b 7d a4             	mov    -0x5c(%ebp),%edi
    6aa6:	83 d2 00             	adc    $0x0,%edx
    6aa9:	29 f0                	sub    %esi,%eax
    6aab:	89 43 2c             	mov    %eax,0x2c(%ebx)
    6aae:	8b 45 90             	mov    -0x70(%ebp),%eax
    6ab1:	89 43 34             	mov    %eax,0x34(%ebx)
    6ab4:	8b 45 c4             	mov    -0x3c(%ebp),%eax
    6ab7:	89 43 3c             	mov    %eax,0x3c(%ebx)
    6aba:	8b 45 a8             	mov    -0x58(%ebp),%eax
    6abd:	19 fa                	sbb    %edi,%edx
    6abf:	89 43 48             	mov    %eax,0x48(%ebx)
    6ac2:	8b 85 58 ff ff ff    	mov    -0xa8(%ebp),%eax
    6ac8:	89 53 30             	mov    %edx,0x30(%ebx)
    6acb:	89 43 54             	mov    %eax,0x54(%ebx)
    6ace:	8b 55 ac             	mov    -0x54(%ebp),%edx
    6ad1:	8b 85 50 ff ff ff    	mov    -0xb0(%ebp),%eax
    6ad7:	89 53 4c             	mov    %edx,0x4c(%ebx)
    6ada:	89 43 5c             	mov    %eax,0x5c(%ebx)
    6add:	8b 95 5c ff ff ff    	mov    -0xa4(%ebp),%edx
    6ae3:	8b 45 8c             	mov    -0x74(%ebp),%eax
    6ae6:	89 53 58             	mov    %edx,0x58(%ebx)
    6ae9:	89 43 6c             	mov    %eax,0x6c(%ebx)
    6aec:	8b 95 54 ff ff ff    	mov    -0xac(%ebp),%edx
    6af2:	8b 85 7c ff ff ff    	mov    -0x84(%ebp),%eax
    6af8:	c7 03 c0 b3 00 00    	movl   $0xb3c0,(%ebx)
    6afe:	c7 43 04 02 00 00 00 	movl   $0x2,0x4(%ebx)
    6b05:	89 73 24             	mov    %esi,0x24(%ebx)
    6b08:	89 7b 28             	mov    %edi,0x28(%ebx)
    6b0b:	c7 43 40 01 00 00 00 	movl   $0x1,0x40(%ebx)
    6b12:	c7 43 44 00 00 00 00 	movl   $0x0,0x44(%ebx)
    6b19:	89 53 60             	mov    %edx,0x60(%ebx)
    6b1c:	89 43 64             	mov    %eax,0x64(%ebx)
    6b1f:	8b 85 6c ff ff ff    	mov    -0x94(%ebp),%eax
    6b25:	89 43 70             	mov    %eax,0x70(%ebx)
    6b28:	8b 45 94             	mov    -0x6c(%ebp),%eax
    6b2b:	89 43 50             	mov    %eax,0x50(%ebx)
    6b2e:	8b 45 0c             	mov    0xc(%ebp),%eax
    6b31:	c7 43 68 00 00 00 00 	movl   $0x0,0x68(%ebx)
    6b38:	83 c4 10             	add    $0x10,%esp
    6b3b:	89 18                	mov    %ebx,(%eax)
    6b3d:	e9 2b f9 ff ff       	jmp    646d <gpt_open+0x8d>
    6b42:	8b 8d 78 ff ff ff    	mov    -0x88(%ebp),%ecx
    6b48:	89 fb                	mov    %edi,%ebx
    6b4a:	8b 55 b0             	mov    -0x50(%ebp),%edx
    6b4d:	8b bd 74 ff ff ff    	mov    -0x8c(%ebp),%edi
    6b53:	8b 75 d4             	mov    -0x2c(%ebp),%esi
    6b56:	89 c8                	mov    %ecx,%eax
    6b58:	c7 45 b4 fe ff ff ff 	movl   $0xfffffffe,-0x4c(%ebp)
    6b5f:	e9 d7 f8 ff ff       	jmp    643b <gpt_open+0x5b>
    6b64:	8d b6 00 00 00 00    	lea    0x0(%esi),%esi
    6b6a:	8d bf 00 00 00 00    	lea    0x0(%edi),%edi

00006b70 <gpt_suggest_ptype>:
    6b70:	55                   	push   %ebp
    6b71:	89 e5                	mov    %esp,%ebp
    6b73:	83 ec 08             	sub    $0x8,%esp
    6b76:	8b 55 0c             	mov    0xc(%ebp),%edx
    6b79:	8b 45 10             	mov    0x10(%ebp),%eax
    6b7c:	83 fa 04             	cmp    $0x4,%edx
    6b7f:	77 27                	ja     6ba8 <gpt_suggest_ptype+0x38>
    6b81:	8b 14 95 bc 8f 00 00 	mov    0x8fbc(,%edx,4),%edx
    6b88:	85 d2                	test   %edx,%edx
    6b8a:	74 1c                	je     6ba8 <gpt_suggest_ptype+0x38>
    6b8c:	c7 00 01 00 00 00    	movl   $0x1,(%eax)
    6b92:	83 c0 04             	add    $0x4,%eax
    6b95:	51                   	push   %ecx
    6b96:	6a 00                	push   $0x0
    6b98:	50                   	push   %eax
    6b99:	52                   	push   %edx
    6b9a:	e8 61 2a 00 00       	call   9600 <uuid_parse@plt>
    6b9f:	83 c4 10             	add    $0x10,%esp
    6ba2:	85 c0                	test   %eax,%eax
    6ba4:	75 09                	jne    6baf <gpt_suggest_ptype+0x3f>
    6ba6:	c9                   	leave  
    6ba7:	c3                   	ret    
    6ba8:	b8 f2 ff ff ff       	mov    $0xfffffff2,%eax
    6bad:	c9                   	leave  
    6bae:	c3                   	ret    
    6baf:	50                   	push   %eax
    6bb0:	68 dd 02 00 00       	push   $0x2dd
    6bb5:	68 30 8f 00 00       	push   $0x8f30
    6bba:	68 3a 8f 00 00       	push   $0x8f3a
    6bbf:	e8 3c 29 00 00       	call   9500 <assert_abort@plt>
    6bc4:	66 90                	xchg   %ax,%ax
    6bc6:	66 90                	xchg   %ax,%ax
    6bc8:	66 90                	xchg   %ax,%ax
    6bca:	66 90                	xchg   %ax,%ax
    6bcc:	66 90                	xchg   %ax,%ax
    6bce:	66 90                	xchg   %ax,%ax

00006bd0 <cache_key_hash>:
    6bd0:	55                   	push   %ebp
    6bd1:	89 e5                	mov    %esp,%ebp
    6bd3:	8b 45 08             	mov    0x8(%ebp),%eax
    6bd6:	5d                   	pop    %ebp
    6bd7:	8b 00                	mov    (%eax),%eax
    6bd9:	c3                   	ret    
    6bda:	8d b6 00 00 00 00    	lea    0x0(%esi),%esi

00006be0 <cache_hash>:
    6be0:	55                   	push   %ebp
    6be1:	89 e5                	mov    %esp,%ebp
    6be3:	8b 45 08             	mov    0x8(%ebp),%eax
    6be6:	5d                   	pop    %ebp
    6be7:	8b 40 e0             	mov    -0x20(%eax),%eax
    6bea:	c3                   	ret    
    6beb:	90                   	nop
    6bec:	8d 74 26 00          	lea    0x0(%esi,%eiz,1),%esi

00006bf0 <cache_key_equal>:
    6bf0:	55                   	push   %ebp
    6bf1:	89 e5                	mov    %esp,%ebp
    6bf3:	8b 45 0c             	mov    0xc(%ebp),%eax
    6bf6:	8b 4d 08             	mov    0x8(%ebp),%ecx
    6bf9:	5d                   	pop    %ebp
    6bfa:	8b 50 e0             	mov    -0x20(%eax),%edx
    6bfd:	8b 40 e4             	mov    -0x1c(%eax),%eax
    6c00:	33 41 04             	xor    0x4(%ecx),%eax
    6c03:	33 11                	xor    (%ecx),%edx
    6c05:	09 c2                	or     %eax,%edx
    6c07:	0f 94 c0             	sete   %al
    6c0a:	c3                   	ret    
    6c0b:	90                   	nop
    6c0c:	8d 74 26 00          	lea    0x0(%esi,%eiz,1),%esi

00006c10 <block_init>:
    6c10:	55                   	push   %ebp
    6c11:	89 e5                	mov    %esp,%ebp
    6c13:	57                   	push   %edi
    6c14:	56                   	push   %esi
    6c15:	53                   	push   %ebx
    6c16:	83 ec 30             	sub    $0x30,%esp
    6c19:	8b 5d 08             	mov    0x8(%ebp),%ebx
    6c1c:	6a 01                	push   $0x1
    6c1e:	68 21 66 93 ed       	push   $0xed936621
    6c23:	53                   	push   %ebx
    6c24:	e8 47 27 00 00       	call   9370 <loc_service_connect@plt>
    6c29:	83 c4 10             	add    $0x10,%esp
    6c2c:	85 c0                	test   %eax,%eax
    6c2e:	0f 84 95 01 00 00    	je     6dc9 <block_init+0x1b9>
    6c34:	89 c7                	mov    %eax,%edi
    6c36:	50                   	push   %eax
    6c37:	50                   	push   %eax
    6c38:	8d 45 d8             	lea    -0x28(%ebp),%eax
    6c3b:	50                   	push   %eax
    6c3c:	57                   	push   %edi
    6c3d:	e8 0e 28 00 00       	call   9450 <bd_open@plt>
    6c42:	83 c4 10             	add    $0x10,%esp
    6c45:	89 c6                	mov    %eax,%esi
    6c47:	85 c0                	test   %eax,%eax
    6c49:	0f 85 31 01 00 00    	jne    6d80 <block_init+0x170>
    6c4f:	8d 45 dc             	lea    -0x24(%ebp),%eax
    6c52:	56                   	push   %esi
    6c53:	56                   	push   %esi
    6c54:	50                   	push   %eax
    6c55:	8b 45 d8             	mov    -0x28(%ebp),%eax
    6c58:	50                   	push   %eax
    6c59:	e8 e2 29 00 00       	call   9640 <bd_get_block_size@plt>
    6c5e:	83 c4 10             	add    $0x10,%esp
    6c61:	89 c6                	mov    %eax,%esi
    6c63:	85 c0                	test   %eax,%eax
    6c65:	0f 85 f0 00 00 00    	jne    6d5b <block_init+0x14b>
    6c6b:	8d 45 e0             	lea    -0x20(%ebp),%eax
    6c6e:	8b 4d d8             	mov    -0x28(%ebp),%ecx
    6c71:	52                   	push   %edx
    6c72:	52                   	push   %edx
    6c73:	50                   	push   %eax
    6c74:	51                   	push   %ecx
    6c75:	e8 86 27 00 00       	call   9400 <bd_get_num_blocks@plt>
    6c7a:	83 c4 10             	add    $0x10,%esp
    6c7d:	89 c6                	mov    %eax,%esi
    6c7f:	85 c0                	test   %eax,%eax
    6c81:	0f 85 d4 00 00 00    	jne    6d5b <block_init+0x14b>
    6c87:	83 ec 0c             	sub    $0xc,%esp
    6c8a:	8b 55 e4             	mov    -0x1c(%ebp),%edx
    6c8d:	8b 4d d8             	mov    -0x28(%ebp),%ecx
    6c90:	8b 45 e0             	mov    -0x20(%ebp),%eax
    6c93:	89 55 d4             	mov    %edx,-0x2c(%ebp)
    6c96:	8b 55 dc             	mov    -0x24(%ebp),%edx
    6c99:	6a 30                	push   $0x30
    6c9b:	89 4d c8             	mov    %ecx,-0x38(%ebp)
    6c9e:	89 45 d0             	mov    %eax,-0x30(%ebp)
    6ca1:	89 55 cc             	mov    %edx,-0x34(%ebp)
    6ca4:	e8 97 27 00 00       	call   9440 <malloc@plt>
    6ca9:	83 c4 10             	add    $0x10,%esp
    6cac:	85 c0                	test   %eax,%eax
    6cae:	0f 84 1a 01 00 00    	je     6dce <block_init+0x1be>
    6cb4:	8b 4d c8             	mov    -0x38(%ebp),%ecx
    6cb7:	8b 55 cc             	mov    -0x34(%ebp),%edx
    6cba:	89 48 10             	mov    %ecx,0x10(%eax)
    6cbd:	89 50 28             	mov    %edx,0x28(%eax)
    6cc0:	83 ec 0c             	sub    $0xc,%esp
    6cc3:	8b 55 d0             	mov    -0x30(%ebp),%edx
    6cc6:	8b 4d d4             	mov    -0x2c(%ebp),%ecx
    6cc9:	89 50 20             	mov    %edx,0x20(%eax)
    6ccc:	c7 00 00 00 00 00    	movl   $0x0,(%eax)
    6cd2:	c7 40 04 00 00 00 00 	movl   $0x0,0x4(%eax)
    6cd9:	89 58 08             	mov    %ebx,0x8(%eax)
    6cdc:	89 78 0c             	mov    %edi,0xc(%eax)
    6cdf:	c7 40 14 00 00 00 00 	movl   $0x0,0x14(%eax)
    6ce6:	c7 40 18 00 00 00 00 	movl   $0x0,0x18(%eax)
    6ced:	c7 40 1c 00 00 00 00 	movl   $0x0,0x1c(%eax)
    6cf4:	89 48 24             	mov    %ecx,0x24(%eax)
    6cf7:	c7 40 2c 00 00 00 00 	movl   $0x0,0x2c(%eax)
    6cfe:	89 45 d0             	mov    %eax,-0x30(%ebp)
    6d01:	68 08 b4 00 00       	push   $0xb408
    6d06:	e8 35 2a 00 00       	call   9740 <fibril_mutex_lock@plt>
    6d0b:	8b 15 04 b4 00 00    	mov    0xb404,%edx
    6d11:	83 c4 10             	add    $0x10,%esp
    6d14:	8b 45 d0             	mov    -0x30(%ebp),%eax
    6d17:	81 fa 00 b4 00 00    	cmp    $0xb400,%edx
    6d1d:	75 14                	jne    6d33 <block_init+0x123>
    6d1f:	eb 77                	jmp    6d98 <block_init+0x188>
    6d21:	8d b4 26 00 00 00 00 	lea    0x0(%esi,%eiz,1),%esi
    6d28:	8b 52 04             	mov    0x4(%edx),%edx
    6d2b:	81 fa 00 b4 00 00    	cmp    $0xb400,%edx
    6d31:	74 65                	je     6d98 <block_init+0x188>
    6d33:	3b 5a 08             	cmp    0x8(%edx),%ebx
    6d36:	75 f0                	jne    6d28 <block_init+0x118>
    6d38:	83 ec 0c             	sub    $0xc,%esp
    6d3b:	89 45 d0             	mov    %eax,-0x30(%ebp)
    6d3e:	be f7 ff ff ff       	mov    $0xfffffff7,%esi
    6d43:	68 08 b4 00 00       	push   $0xb408
    6d48:	e8 13 28 00 00       	call   9560 <fibril_mutex_unlock@plt>
    6d4d:	8b 45 d0             	mov    -0x30(%ebp),%eax
    6d50:	89 04 24             	mov    %eax,(%esp)
    6d53:	e8 d8 29 00 00       	call   9730 <free@plt>
    6d58:	83 c4 10             	add    $0x10,%esp
    6d5b:	83 ec 0c             	sub    $0xc,%esp
    6d5e:	8b 45 d8             	mov    -0x28(%ebp),%eax
    6d61:	50                   	push   %eax
    6d62:	e8 b9 26 00 00       	call   9420 <bd_close@plt>
    6d67:	89 3c 24             	mov    %edi,(%esp)
    6d6a:	e8 21 26 00 00       	call   9390 <async_hangup@plt>
    6d6f:	83 c4 10             	add    $0x10,%esp
    6d72:	8d 65 f4             	lea    -0xc(%ebp),%esp
    6d75:	89 f0                	mov    %esi,%eax
    6d77:	5b                   	pop    %ebx
    6d78:	5e                   	pop    %esi
    6d79:	5f                   	pop    %edi
    6d7a:	5d                   	pop    %ebp
    6d7b:	c3                   	ret    
    6d7c:	8d 74 26 00          	lea    0x0(%esi,%eiz,1),%esi
    6d80:	83 ec 0c             	sub    $0xc,%esp
    6d83:	57                   	push   %edi
    6d84:	e8 07 26 00 00       	call   9390 <async_hangup@plt>
    6d89:	83 c4 10             	add    $0x10,%esp
    6d8c:	8d 65 f4             	lea    -0xc(%ebp),%esp
    6d8f:	89 f0                	mov    %esi,%eax
    6d91:	5b                   	pop    %ebx
    6d92:	5e                   	pop    %esi
    6d93:	5f                   	pop    %edi
    6d94:	5d                   	pop    %ebp
    6d95:	c3                   	ret    
    6d96:	66 90                	xchg   %ax,%ax
    6d98:	8b 15 00 b4 00 00    	mov    0xb400,%edx
    6d9e:	83 ec 0c             	sub    $0xc,%esp
    6da1:	c7 40 04 00 b4 00 00 	movl   $0xb400,0x4(%eax)
    6da8:	89 10                	mov    %edx,(%eax)
    6daa:	89 42 04             	mov    %eax,0x4(%edx)
    6dad:	68 08 b4 00 00       	push   $0xb408
    6db2:	a3 00 b4 00 00       	mov    %eax,0xb400
    6db7:	e8 a4 27 00 00       	call   9560 <fibril_mutex_unlock@plt>
    6dbc:	83 c4 10             	add    $0x10,%esp
    6dbf:	8d 65 f4             	lea    -0xc(%ebp),%esp
    6dc2:	89 f0                	mov    %esi,%eax
    6dc4:	5b                   	pop    %ebx
    6dc5:	5e                   	pop    %esi
    6dc6:	5f                   	pop    %edi
    6dc7:	5d                   	pop    %ebp
    6dc8:	c3                   	ret    
    6dc9:	83 ce ff             	or     $0xffffffff,%esi
    6dcc:	eb a4                	jmp    6d72 <block_init+0x162>
    6dce:	be fe ff ff ff       	mov    $0xfffffffe,%esi
    6dd3:	eb 86                	jmp    6d5b <block_init+0x14b>
    6dd5:	8d 74 26 00          	lea    0x0(%esi,%eiz,1),%esi
    6dd9:	8d bc 27 00 00 00 00 	lea    0x0(%edi,%eiz,1),%edi

00006de0 <block_bb_read>:
    6de0:	55                   	push   %ebp
    6de1:	89 e5                	mov    %esp,%ebp
    6de3:	57                   	push   %edi
    6de4:	56                   	push   %esi
    6de5:	53                   	push   %ebx
    6de6:	83 ec 28             	sub    $0x28,%esp
    6de9:	8b 45 08             	mov    0x8(%ebp),%eax
    6dec:	8b 75 0c             	mov    0xc(%ebp),%esi
    6def:	68 08 b4 00 00       	push   $0xb408
    6df4:	89 45 e4             	mov    %eax,-0x1c(%ebp)
    6df7:	8b 7d 10             	mov    0x10(%ebp),%edi
    6dfa:	e8 41 29 00 00       	call   9740 <fibril_mutex_lock@plt>
    6dff:	8b 1d 04 b4 00 00    	mov    0xb404,%ebx
    6e05:	83 c4 10             	add    $0x10,%esp
    6e08:	81 fb 00 b4 00 00    	cmp    $0xb400,%ebx
    6e0e:	74 20                	je     6e30 <block_bb_read+0x50>
    6e10:	8b 45 e4             	mov    -0x1c(%ebp),%eax
    6e13:	3b 43 08             	cmp    0x8(%ebx),%eax
    6e16:	75 0d                	jne    6e25 <block_bb_read+0x45>
    6e18:	eb 36                	jmp    6e50 <block_bb_read+0x70>
    6e1a:	8d b6 00 00 00 00    	lea    0x0(%esi),%esi
    6e20:	3b 43 08             	cmp    0x8(%ebx),%eax
    6e23:	74 2b                	je     6e50 <block_bb_read+0x70>
    6e25:	8b 5b 04             	mov    0x4(%ebx),%ebx
    6e28:	81 fb 00 b4 00 00    	cmp    $0xb400,%ebx
    6e2e:	75 f0                	jne    6e20 <block_bb_read+0x40>
    6e30:	83 ec 0c             	sub    $0xc,%esp
    6e33:	68 08 b4 00 00       	push   $0xb408
    6e38:	e8 23 27 00 00       	call   9560 <fibril_mutex_unlock@plt>
    6e3d:	83 c4 10             	add    $0x10,%esp
    6e40:	83 ca ff             	or     $0xffffffff,%edx
    6e43:	8d 65 f4             	lea    -0xc(%ebp),%esp
    6e46:	89 d0                	mov    %edx,%eax
    6e48:	5b                   	pop    %ebx
    6e49:	5e                   	pop    %esi
    6e4a:	5f                   	pop    %edi
    6e4b:	5d                   	pop    %ebp
    6e4c:	c3                   	ret    
    6e4d:	8d 76 00             	lea    0x0(%esi),%esi
    6e50:	83 ec 0c             	sub    $0xc,%esp
    6e53:	68 08 b4 00 00       	push   $0xb408
    6e58:	e8 03 27 00 00       	call   9560 <fibril_mutex_unlock@plt>
    6e5d:	8b 43 14             	mov    0x14(%ebx),%eax
    6e60:	83 c4 10             	add    $0x10,%esp
    6e63:	85 c0                	test   %eax,%eax
    6e65:	0f 85 9d 00 00 00    	jne    6f08 <block_bb_read+0x128>
    6e6b:	83 ec 0c             	sub    $0xc,%esp
    6e6e:	8b 43 28             	mov    0x28(%ebx),%eax
    6e71:	50                   	push   %eax
    6e72:	e8 c9 25 00 00       	call   9440 <malloc@plt>
    6e77:	83 c4 10             	add    $0x10,%esp
    6e7a:	89 c1                	mov    %eax,%ecx
    6e7c:	85 c0                	test   %eax,%eax
    6e7e:	0f 84 93 00 00 00    	je     6f17 <block_bb_read+0x137>
    6e84:	50                   	push   %eax
    6e85:	50                   	push   %eax
    6e86:	8b 43 28             	mov    0x28(%ebx),%eax
    6e89:	89 4d e4             	mov    %ecx,-0x1c(%ebp)
    6e8c:	50                   	push   %eax
    6e8d:	51                   	push   %ecx
    6e8e:	8b 43 10             	mov    0x10(%ebx),%eax
    6e91:	6a 01                	push   $0x1
    6e93:	6a 00                	push   $0x0
    6e95:	6a 00                	push   $0x0
    6e97:	50                   	push   %eax
    6e98:	e8 33 26 00 00       	call   94d0 <bd_read_blocks@plt>
    6e9d:	83 c4 20             	add    $0x20,%esp
    6ea0:	89 c2                	mov    %eax,%edx
    6ea2:	85 c0                	test   %eax,%eax
    6ea4:	8b 4d e4             	mov    -0x1c(%ebp),%ecx
    6ea7:	75 17                	jne    6ec0 <block_bb_read+0xe0>
    6ea9:	89 4b 14             	mov    %ecx,0x14(%ebx)
    6eac:	89 73 18             	mov    %esi,0x18(%ebx)
    6eaf:	89 7b 1c             	mov    %edi,0x1c(%ebx)
    6eb2:	8d 65 f4             	lea    -0xc(%ebp),%esp
    6eb5:	89 d0                	mov    %edx,%eax
    6eb7:	5b                   	pop    %ebx
    6eb8:	5e                   	pop    %esi
    6eb9:	5f                   	pop    %edi
    6eba:	5d                   	pop    %ebp
    6ebb:	c3                   	ret    
    6ebc:	8d 74 26 00          	lea    0x0(%esi,%eiz,1),%esi
    6ec0:	50                   	push   %eax
    6ec1:	50                   	push   %eax
    6ec2:	89 4d e0             	mov    %ecx,-0x20(%ebp)
    6ec5:	8b 4b 08             	mov    0x8(%ebx),%ecx
    6ec8:	51                   	push   %ecx
    6ec9:	6a 00                	push   $0x0
    6ecb:	6a 00                	push   $0x0
    6ecd:	6a 01                	push   $0x1
    6ecf:	52                   	push   %edx
    6ed0:	68 28 90 00 00       	push   $0x9028
    6ed5:	89 55 e4             	mov    %edx,-0x1c(%ebp)
    6ed8:	e8 a3 24 00 00       	call   9380 <printf@plt>
    6edd:	83 c4 20             	add    $0x20,%esp
    6ee0:	e8 ab 25 00 00       	call   9490 <stacktrace_print@plt>
    6ee5:	83 ec 0c             	sub    $0xc,%esp
    6ee8:	8b 4d e0             	mov    -0x20(%ebp),%ecx
    6eeb:	51                   	push   %ecx
    6eec:	e8 3f 28 00 00       	call   9730 <free@plt>
    6ef1:	8b 55 e4             	mov    -0x1c(%ebp),%edx
    6ef4:	83 c4 10             	add    $0x10,%esp
    6ef7:	8d 65 f4             	lea    -0xc(%ebp),%esp
    6efa:	89 d0                	mov    %edx,%eax
    6efc:	5b                   	pop    %ebx
    6efd:	5e                   	pop    %esi
    6efe:	5f                   	pop    %edi
    6eff:	5d                   	pop    %ebp
    6f00:	c3                   	ret    
    6f01:	8d b4 26 00 00 00 00 	lea    0x0(%esi,%eiz,1),%esi
    6f08:	8d 65 f4             	lea    -0xc(%ebp),%esp
    6f0b:	ba f7 ff ff ff       	mov    $0xfffffff7,%edx
    6f10:	89 d0                	mov    %edx,%eax
    6f12:	5b                   	pop    %ebx
    6f13:	5e                   	pop    %esi
    6f14:	5f                   	pop    %edi
    6f15:	5d                   	pop    %ebp
    6f16:	c3                   	ret    
    6f17:	ba fe ff ff ff       	mov    $0xfffffffe,%edx
    6f1c:	e9 22 ff ff ff       	jmp    6e43 <block_bb_read+0x63>
    6f21:	eb 0d                	jmp    6f30 <block_bb_get>
    6f23:	90                   	nop
    6f24:	90                   	nop
    6f25:	90                   	nop
    6f26:	90                   	nop
    6f27:	90                   	nop
    6f28:	90                   	nop
    6f29:	90                   	nop
    6f2a:	90                   	nop
    6f2b:	90                   	nop
    6f2c:	90                   	nop
    6f2d:	90                   	nop
    6f2e:	90                   	nop
    6f2f:	90                   	nop

00006f30 <block_bb_get>:
    6f30:	55                   	push   %ebp
    6f31:	89 e5                	mov    %esp,%ebp
    6f33:	56                   	push   %esi
    6f34:	53                   	push   %ebx
    6f35:	83 ec 0c             	sub    $0xc,%esp
    6f38:	8b 75 08             	mov    0x8(%ebp),%esi
    6f3b:	68 08 b4 00 00       	push   $0xb408
    6f40:	e8 fb 27 00 00       	call   9740 <fibril_mutex_lock@plt>
    6f45:	8b 1d 04 b4 00 00    	mov    0xb404,%ebx
    6f4b:	83 c4 10             	add    $0x10,%esp
    6f4e:	81 fb 00 b4 00 00    	cmp    $0xb400,%ebx
    6f54:	75 0d                	jne    6f63 <block_bb_get+0x33>
    6f56:	eb 28                	jmp    6f80 <block_bb_get+0x50>
    6f58:	8b 5b 04             	mov    0x4(%ebx),%ebx
    6f5b:	81 fb 00 b4 00 00    	cmp    $0xb400,%ebx
    6f61:	74 1d                	je     6f80 <block_bb_get+0x50>
    6f63:	3b 73 08             	cmp    0x8(%ebx),%esi
    6f66:	75 f0                	jne    6f58 <block_bb_get+0x28>
    6f68:	83 ec 0c             	sub    $0xc,%esp
    6f6b:	68 08 b4 00 00       	push   $0xb408
    6f70:	e8 eb 25 00 00       	call   9560 <fibril_mutex_unlock@plt>
    6f75:	8b 43 14             	mov    0x14(%ebx),%eax
    6f78:	8d 65 f8             	lea    -0x8(%ebp),%esp
    6f7b:	5b                   	pop    %ebx
    6f7c:	5e                   	pop    %esi
    6f7d:	5d                   	pop    %ebp
    6f7e:	c3                   	ret    
    6f7f:	90                   	nop
    6f80:	83 ec 0c             	sub    $0xc,%esp
    6f83:	68 08 b4 00 00       	push   $0xb408
    6f88:	e8 d3 25 00 00       	call   9560 <fibril_mutex_unlock@plt>
    6f8d:	83 c4 0c             	add    $0xc,%esp
    6f90:	68 ee 00 00 00       	push   $0xee
    6f95:	68 d8 8f 00 00       	push   $0x8fd8
    6f9a:	68 e0 8f 00 00       	push   $0x8fe0
    6f9f:	e8 5c 25 00 00       	call   9500 <assert_abort@plt>
    6fa4:	8d b6 00 00 00 00    	lea    0x0(%esi),%esi
    6faa:	8d bf 00 00 00 00    	lea    0x0(%edi),%edi

00006fb0 <block_cache_init>:
    6fb0:	55                   	push   %ebp
    6fb1:	89 e5                	mov    %esp,%ebp
    6fb3:	56                   	push   %esi
    6fb4:	53                   	push   %ebx
    6fb5:	83 ec 0c             	sub    $0xc,%esp
    6fb8:	8b 75 08             	mov    0x8(%ebp),%esi
    6fbb:	68 08 b4 00 00       	push   $0xb408
    6fc0:	e8 7b 27 00 00       	call   9740 <fibril_mutex_lock@plt>
    6fc5:	8b 1d 04 b4 00 00    	mov    0xb404,%ebx
    6fcb:	83 c4 10             	add    $0x10,%esp
    6fce:	81 fb 00 b4 00 00    	cmp    $0xb400,%ebx
    6fd4:	75 19                	jne    6fef <block_cache_init+0x3f>
    6fd6:	e9 ad 00 00 00       	jmp    7088 <block_cache_init+0xd8>
    6fdb:	90                   	nop
    6fdc:	8d 74 26 00          	lea    0x0(%esi,%eiz,1),%esi
    6fe0:	8b 5b 04             	mov    0x4(%ebx),%ebx
    6fe3:	81 fb 00 b4 00 00    	cmp    $0xb400,%ebx
    6fe9:	0f 84 99 00 00 00    	je     7088 <block_cache_init+0xd8>
    6fef:	3b 73 08             	cmp    0x8(%ebx),%esi
    6ff2:	75 ec                	jne    6fe0 <block_cache_init+0x30>
    6ff4:	83 ec 0c             	sub    $0xc,%esp
    6ff7:	68 08 b4 00 00       	push   $0xb408
    6ffc:	e8 5f 25 00 00       	call   9560 <fibril_mutex_unlock@plt>
    7001:	8b 43 2c             	mov    0x2c(%ebx),%eax
    7004:	83 c4 10             	add    $0x10,%esp
    7007:	85 c0                	test   %eax,%eax
    7009:	0f 85 99 00 00 00    	jne    70a8 <block_cache_init+0xf8>
    700f:	83 ec 0c             	sub    $0xc,%esp
    7012:	6a 48                	push   $0x48
    7014:	e8 27 24 00 00       	call   9440 <malloc@plt>
    7019:	83 c4 10             	add    $0x10,%esp
    701c:	89 c6                	mov    %eax,%esi
    701e:	85 c0                	test   %eax,%eax
    7020:	0f 84 b4 00 00 00    	je     70da <block_cache_init+0x12a>
    7026:	83 ec 0c             	sub    $0xc,%esp
    7029:	50                   	push   %eax
    702a:	e8 51 25 00 00       	call   9580 <fibril_mutex_initialize@plt>
    702f:	8d 46 3c             	lea    0x3c(%esi),%eax
    7032:	31 d2                	xor    %edx,%edx
    7034:	89 46 3c             	mov    %eax,0x3c(%esi)
    7037:	89 46 40             	mov    %eax,0x40(%esi)
    703a:	8b 45 0c             	mov    0xc(%ebp),%eax
    703d:	83 c4 10             	add    $0x10,%esp
    7040:	89 46 10             	mov    %eax,0x10(%esi)
    7043:	8b 45 10             	mov    0x10(%ebp),%eax
    7046:	89 46 18             	mov    %eax,0x18(%esi)
    7049:	8b 45 14             	mov    0x14(%ebp),%eax
    704c:	89 46 44             	mov    %eax,0x44(%esi)
    704f:	8b 45 0c             	mov    0xc(%ebp),%eax
    7052:	f7 73 28             	divl   0x28(%ebx)
    7055:	c7 46 1c 00 00 00 00 	movl   $0x0,0x1c(%esi)
    705c:	85 d2                	test   %edx,%edx
    705e:	75 54                	jne    70b4 <block_cache_init+0x104>
    7060:	89 46 14             	mov    %eax,0x14(%esi)
    7063:	8d 46 20             	lea    0x20(%esi),%eax
    7066:	68 ec b3 00 00       	push   $0xb3ec
    706b:	6a 00                	push   $0x0
    706d:	6a 00                	push   $0x0
    706f:	50                   	push   %eax
    7070:	e8 3b 23 00 00       	call   93b0 <hash_table_create@plt>
    7075:	83 c4 10             	add    $0x10,%esp
    7078:	84 c0                	test   %al,%al
    707a:	74 4b                	je     70c7 <block_cache_init+0x117>
    707c:	89 73 2c             	mov    %esi,0x2c(%ebx)
    707f:	31 c0                	xor    %eax,%eax
    7081:	8d 65 f8             	lea    -0x8(%ebp),%esp
    7084:	5b                   	pop    %ebx
    7085:	5e                   	pop    %esi
    7086:	5d                   	pop    %ebp
    7087:	c3                   	ret    
    7088:	83 ec 0c             	sub    $0xc,%esp
    708b:	68 08 b4 00 00       	push   $0xb408
    7090:	e8 cb 24 00 00       	call   9560 <fibril_mutex_unlock@plt>
    7095:	83 c4 10             	add    $0x10,%esp
    7098:	8d 65 f8             	lea    -0x8(%ebp),%esp
    709b:	83 c8 ff             	or     $0xffffffff,%eax
    709e:	5b                   	pop    %ebx
    709f:	5e                   	pop    %esi
    70a0:	5d                   	pop    %ebp
    70a1:	c3                   	ret    
    70a2:	8d b6 00 00 00 00    	lea    0x0(%esi),%esi
    70a8:	8d 65 f8             	lea    -0x8(%ebp),%esp
    70ab:	b8 f7 ff ff ff       	mov    $0xfffffff7,%eax
    70b0:	5b                   	pop    %ebx
    70b1:	5e                   	pop    %esi
    70b2:	5d                   	pop    %ebp
    70b3:	c3                   	ret    
    70b4:	83 ec 0c             	sub    $0xc,%esp
    70b7:	56                   	push   %esi
    70b8:	e8 73 26 00 00       	call   9730 <free@plt>
    70bd:	83 c4 10             	add    $0x10,%esp
    70c0:	b8 f5 ff ff ff       	mov    $0xfffffff5,%eax
    70c5:	eb ba                	jmp    7081 <block_cache_init+0xd1>
    70c7:	83 ec 0c             	sub    $0xc,%esp
    70ca:	56                   	push   %esi
    70cb:	e8 60 26 00 00       	call   9730 <free@plt>
    70d0:	83 c4 10             	add    $0x10,%esp
    70d3:	b8 fe ff ff ff       	mov    $0xfffffffe,%eax
    70d8:	eb a7                	jmp    7081 <block_cache_init+0xd1>
    70da:	b8 fe ff ff ff       	mov    $0xfffffffe,%eax
    70df:	eb a0                	jmp    7081 <block_cache_init+0xd1>
    70e1:	eb 0d                	jmp    70f0 <block_cache_fini>
    70e3:	90                   	nop
    70e4:	90                   	nop
    70e5:	90                   	nop
    70e6:	90                   	nop
    70e7:	90                   	nop
    70e8:	90                   	nop
    70e9:	90                   	nop
    70ea:	90                   	nop
    70eb:	90                   	nop
    70ec:	90                   	nop
    70ed:	90                   	nop
    70ee:	90                   	nop
    70ef:	90                   	nop

000070f0 <block_cache_fini>:
    70f0:	55                   	push   %ebp
    70f1:	89 e5                	mov    %esp,%ebp
    70f3:	57                   	push   %edi
    70f4:	56                   	push   %esi
    70f5:	53                   	push   %ebx
    70f6:	83 ec 38             	sub    $0x38,%esp
    70f9:	8b 5d 08             	mov    0x8(%ebp),%ebx
    70fc:	68 08 b4 00 00       	push   $0xb408
    7101:	e8 3a 26 00 00       	call   9740 <fibril_mutex_lock@plt>
    7106:	8b 3d 04 b4 00 00    	mov    0xb404,%edi
    710c:	83 c4 10             	add    $0x10,%esp
    710f:	81 ff 00 b4 00 00    	cmp    $0xb400,%edi
    7115:	75 18                	jne    712f <block_cache_fini+0x3f>
    7117:	e9 2c 01 00 00       	jmp    7248 <block_cache_fini+0x158>
    711c:	8d 74 26 00          	lea    0x0(%esi,%eiz,1),%esi
    7120:	8b 7f 04             	mov    0x4(%edi),%edi
    7123:	81 ff 00 b4 00 00    	cmp    $0xb400,%edi
    7129:	0f 84 19 01 00 00    	je     7248 <block_cache_fini+0x158>
    712f:	3b 5f 08             	cmp    0x8(%edi),%ebx
    7132:	75 ec                	jne    7120 <block_cache_fini+0x30>
    7134:	83 ec 0c             	sub    $0xc,%esp
    7137:	68 08 b4 00 00       	push   $0xb408
    713c:	e8 1f 24 00 00       	call   9560 <fibril_mutex_unlock@plt>
    7141:	8b 47 2c             	mov    0x2c(%edi),%eax
    7144:	83 c4 10             	add    $0x10,%esp
    7147:	89 45 e0             	mov    %eax,-0x20(%ebp)
    714a:	85 c0                	test   %eax,%eax
    714c:	0f 84 42 01 00 00    	je     7294 <block_cache_fini+0x1a4>
    7152:	8b 58 40             	mov    0x40(%eax),%ebx
    7155:	8d 70 3c             	lea    0x3c(%eax),%esi
    7158:	83 c0 20             	add    $0x20,%eax
    715b:	89 75 dc             	mov    %esi,-0x24(%ebp)
    715e:	89 45 d8             	mov    %eax,-0x28(%ebp)
    7161:	39 de                	cmp    %ebx,%esi
    7163:	0f 84 2f 01 00 00    	je     7298 <block_cache_fini+0x1a8>
    7169:	89 da                	mov    %ebx,%edx
    716b:	89 7d d0             	mov    %edi,-0x30(%ebp)
    716e:	eb 35                	jmp    71a5 <block_cache_fini+0xb5>
    7170:	8b 55 d8             	mov    -0x28(%ebp),%edx
    7173:	8d 43 50             	lea    0x50(%ebx),%eax
    7176:	89 d6                	mov    %edx,%esi
    7178:	51                   	push   %ecx
    7179:	51                   	push   %ecx
    717a:	50                   	push   %eax
    717b:	52                   	push   %edx
    717c:	e8 4f 24 00 00       	call   95d0 <hash_table_remove_item@plt>
    7181:	8b 43 58             	mov    0x58(%ebx),%eax
    7184:	5f                   	pop    %edi
    7185:	50                   	push   %eax
    7186:	e8 a5 25 00 00       	call   9730 <free@plt>
    718b:	89 1c 24             	mov    %ebx,(%esp)
    718e:	e8 9d 25 00 00       	call   9730 <free@plt>
    7193:	8b 45 e0             	mov    -0x20(%ebp),%eax
    7196:	83 c4 10             	add    $0x10,%esp
    7199:	8b 50 40             	mov    0x40(%eax),%edx
    719c:	3b 55 dc             	cmp    -0x24(%ebp),%edx
    719f:	0f 84 c3 00 00 00    	je     7268 <block_cache_fini+0x178>
    71a5:	8d 5a b8             	lea    -0x48(%edx),%ebx
    71a8:	8b 4b 48             	mov    0x48(%ebx),%ecx
    71ab:	85 c9                	test   %ecx,%ecx
    71ad:	74 0f                	je     71be <block_cache_fini+0xce>
    71af:	8b 43 4c             	mov    0x4c(%ebx),%eax
    71b2:	85 c0                	test   %eax,%eax
    71b4:	74 08                	je     71be <block_cache_fini+0xce>
    71b6:	89 08                	mov    %ecx,(%eax)
    71b8:	8b 4b 48             	mov    0x48(%ebx),%ecx
    71bb:	89 41 04             	mov    %eax,0x4(%ecx)
    71be:	c7 43 48 00 00 00 00 	movl   $0x0,0x48(%ebx)
    71c5:	c7 43 4c 00 00 00 00 	movl   $0x0,0x4c(%ebx)
    71cc:	80 7b 14 00          	cmpb   $0x0,0x14(%ebx)
    71d0:	74 9e                	je     7170 <block_cache_fini+0x80>
    71d2:	8b 45 e0             	mov    -0x20(%ebp),%eax
    71d5:	8b 73 38             	mov    0x38(%ebx),%esi
    71d8:	8b 7b 3c             	mov    0x3c(%ebx),%edi
    71db:	8b 48 14             	mov    0x14(%eax),%ecx
    71de:	50                   	push   %eax
    71df:	50                   	push   %eax
    71e0:	89 4d d4             	mov    %ecx,-0x2c(%ebp)
    71e3:	8b 53 40             	mov    0x40(%ebx),%edx
    71e6:	8b 43 58             	mov    0x58(%ebx),%eax
    71e9:	52                   	push   %edx
    71ea:	50                   	push   %eax
    71eb:	8b 45 d0             	mov    -0x30(%ebp),%eax
    71ee:	51                   	push   %ecx
    71ef:	57                   	push   %edi
    71f0:	56                   	push   %esi
    71f1:	8b 40 10             	mov    0x10(%eax),%eax
    71f4:	50                   	push   %eax
    71f5:	e8 f6 21 00 00       	call   93f0 <bd_write_blocks@plt>
    71fa:	83 c4 20             	add    $0x20,%esp
    71fd:	8b 4d d4             	mov    -0x2c(%ebp),%ecx
    7200:	85 c0                	test   %eax,%eax
    7202:	0f 84 68 ff ff ff    	je     7170 <block_cache_fini+0x80>
    7208:	89 7d e4             	mov    %edi,-0x1c(%ebp)
    720b:	8b 7d d0             	mov    -0x30(%ebp),%edi
    720e:	89 75 e0             	mov    %esi,-0x20(%ebp)
    7211:	89 ce                	mov    %ecx,%esi
    7213:	89 c1                	mov    %eax,%ecx
    7215:	50                   	push   %eax
    7216:	50                   	push   %eax
    7217:	8b 47 08             	mov    0x8(%edi),%eax
    721a:	50                   	push   %eax
    721b:	8b 45 e4             	mov    -0x1c(%ebp),%eax
    721e:	50                   	push   %eax
    721f:	8b 45 e0             	mov    -0x20(%ebp),%eax
    7222:	50                   	push   %eax
    7223:	56                   	push   %esi
    7224:	51                   	push   %ecx
    7225:	68 74 90 00 00       	push   $0x9074
    722a:	89 4d e0             	mov    %ecx,-0x20(%ebp)
    722d:	e8 4e 21 00 00       	call   9380 <printf@plt>
    7232:	83 c4 20             	add    $0x20,%esp
    7235:	e8 56 22 00 00       	call   9490 <stacktrace_print@plt>
    723a:	8b 4d e0             	mov    -0x20(%ebp),%ecx
    723d:	8d 65 f4             	lea    -0xc(%ebp),%esp
    7240:	89 c8                	mov    %ecx,%eax
    7242:	5b                   	pop    %ebx
    7243:	5e                   	pop    %esi
    7244:	5f                   	pop    %edi
    7245:	5d                   	pop    %ebp
    7246:	c3                   	ret    
    7247:	90                   	nop
    7248:	83 ec 0c             	sub    $0xc,%esp
    724b:	68 08 b4 00 00       	push   $0xb408
    7250:	e8 0b 23 00 00       	call   9560 <fibril_mutex_unlock@plt>
    7255:	83 c4 10             	add    $0x10,%esp
    7258:	8d 65 f4             	lea    -0xc(%ebp),%esp
    725b:	83 c9 ff             	or     $0xffffffff,%ecx
    725e:	5b                   	pop    %ebx
    725f:	89 c8                	mov    %ecx,%eax
    7261:	5e                   	pop    %esi
    7262:	5f                   	pop    %edi
    7263:	5d                   	pop    %ebp
    7264:	c3                   	ret    
    7265:	8d 76 00             	lea    0x0(%esi),%esi
    7268:	8b 7d d0             	mov    -0x30(%ebp),%edi
    726b:	83 ec 0c             	sub    $0xc,%esp
    726e:	56                   	push   %esi
    726f:	e8 9c 24 00 00       	call   9710 <hash_table_destroy@plt>
    7274:	c7 47 2c 00 00 00 00 	movl   $0x0,0x2c(%edi)
    727b:	8b 55 e0             	mov    -0x20(%ebp),%edx
    727e:	58                   	pop    %eax
    727f:	52                   	push   %edx
    7280:	e8 ab 24 00 00       	call   9730 <free@plt>
    7285:	83 c4 10             	add    $0x10,%esp
    7288:	8d 65 f4             	lea    -0xc(%ebp),%esp
    728b:	31 c9                	xor    %ecx,%ecx
    728d:	89 c8                	mov    %ecx,%eax
    728f:	5b                   	pop    %ebx
    7290:	5e                   	pop    %esi
    7291:	5f                   	pop    %edi
    7292:	5d                   	pop    %ebp
    7293:	c3                   	ret    
    7294:	31 c9                	xor    %ecx,%ecx
    7296:	eb a5                	jmp    723d <block_cache_fini+0x14d>
    7298:	8b 45 e0             	mov    -0x20(%ebp),%eax
    729b:	8d 70 20             	lea    0x20(%eax),%esi
    729e:	eb cb                	jmp    726b <block_cache_fini+0x17b>

000072a0 <block_fini>:
    72a0:	55                   	push   %ebp
    72a1:	89 e5                	mov    %esp,%ebp
    72a3:	56                   	push   %esi
    72a4:	53                   	push   %ebx
    72a5:	83 ec 0c             	sub    $0xc,%esp
    72a8:	8b 75 08             	mov    0x8(%ebp),%esi
    72ab:	68 08 b4 00 00       	push   $0xb408
    72b0:	e8 8b 24 00 00       	call   9740 <fibril_mutex_lock@plt>
    72b5:	8b 1d 04 b4 00 00    	mov    0xb404,%ebx
    72bb:	83 c4 10             	add    $0x10,%esp
    72be:	81 fb 00 b4 00 00    	cmp    $0xb400,%ebx
    72c4:	75 19                	jne    72df <block_fini+0x3f>
    72c6:	e9 c5 00 00 00       	jmp    7390 <block_fini+0xf0>
    72cb:	90                   	nop
    72cc:	8d 74 26 00          	lea    0x0(%esi,%eiz,1),%esi
    72d0:	8b 5b 04             	mov    0x4(%ebx),%ebx
    72d3:	81 fb 00 b4 00 00    	cmp    $0xb400,%ebx
    72d9:	0f 84 b1 00 00 00    	je     7390 <block_fini+0xf0>
    72df:	3b 73 08             	cmp    0x8(%ebx),%esi
    72e2:	75 ec                	jne    72d0 <block_fini+0x30>
    72e4:	83 ec 0c             	sub    $0xc,%esp
    72e7:	68 08 b4 00 00       	push   $0xb408
    72ec:	e8 6f 22 00 00       	call   9560 <fibril_mutex_unlock@plt>
    72f1:	8b 43 2c             	mov    0x2c(%ebx),%eax
    72f4:	83 c4 10             	add    $0x10,%esp
    72f7:	85 c0                	test   %eax,%eax
    72f9:	74 0c                	je     7307 <block_fini+0x67>
    72fb:	83 ec 0c             	sub    $0xc,%esp
    72fe:	56                   	push   %esi
    72ff:	e8 ec fd ff ff       	call   70f0 <block_cache_fini>
    7304:	83 c4 10             	add    $0x10,%esp
    7307:	6a 00                	push   $0x0
    7309:	6a 00                	push   $0x0
    730b:	6a 00                	push   $0x0
    730d:	8b 73 10             	mov    0x10(%ebx),%esi
    7310:	56                   	push   %esi
    7311:	e8 5a 23 00 00       	call   9670 <bd_sync_cache@plt>
    7316:	c7 04 24 08 b4 00 00 	movl   $0xb408,(%esp)
    731d:	e8 1e 24 00 00       	call   9740 <fibril_mutex_lock@plt>
    7322:	8b 13                	mov    (%ebx),%edx
    7324:	83 c4 10             	add    $0x10,%esp
    7327:	85 d2                	test   %edx,%edx
    7329:	74 0e                	je     7339 <block_fini+0x99>
    732b:	8b 43 04             	mov    0x4(%ebx),%eax
    732e:	85 c0                	test   %eax,%eax
    7330:	74 07                	je     7339 <block_fini+0x99>
    7332:	89 10                	mov    %edx,(%eax)
    7334:	8b 13                	mov    (%ebx),%edx
    7336:	89 42 04             	mov    %eax,0x4(%edx)
    7339:	83 ec 0c             	sub    $0xc,%esp
    733c:	c7 03 00 00 00 00    	movl   $0x0,(%ebx)
    7342:	c7 43 04 00 00 00 00 	movl   $0x0,0x4(%ebx)
    7349:	68 08 b4 00 00       	push   $0xb408
    734e:	e8 0d 22 00 00       	call   9560 <fibril_mutex_unlock@plt>
    7353:	8b 43 14             	mov    0x14(%ebx),%eax
    7356:	83 c4 10             	add    $0x10,%esp
    7359:	85 c0                	test   %eax,%eax
    735b:	74 0c                	je     7369 <block_fini+0xc9>
    735d:	83 ec 0c             	sub    $0xc,%esp
    7360:	50                   	push   %eax
    7361:	e8 ca 23 00 00       	call   9730 <free@plt>
    7366:	83 c4 10             	add    $0x10,%esp
    7369:	83 ec 0c             	sub    $0xc,%esp
    736c:	8b 43 10             	mov    0x10(%ebx),%eax
    736f:	50                   	push   %eax
    7370:	e8 ab 20 00 00       	call   9420 <bd_close@plt>
    7375:	8b 4b 0c             	mov    0xc(%ebx),%ecx
    7378:	5a                   	pop    %edx
    7379:	51                   	push   %ecx
    737a:	e8 11 20 00 00       	call   9390 <async_hangup@plt>
    737f:	89 5d 08             	mov    %ebx,0x8(%ebp)
    7382:	83 c4 10             	add    $0x10,%esp
    7385:	8d 65 f8             	lea    -0x8(%ebp),%esp
    7388:	5b                   	pop    %ebx
    7389:	5e                   	pop    %esi
    738a:	5d                   	pop    %ebp
    738b:	e9 a0 23 00 00       	jmp    9730 <free@plt>
    7390:	83 ec 0c             	sub    $0xc,%esp
    7393:	68 08 b4 00 00       	push   $0xb408
    7398:	e8 c3 21 00 00       	call   9560 <fibril_mutex_unlock@plt>
    739d:	83 c4 0c             	add    $0xc,%esp
    73a0:	68 bf 00 00 00       	push   $0xbf
    73a5:	68 d8 8f 00 00       	push   $0x8fd8
    73aa:	68 e0 8f 00 00       	push   $0x8fe0
    73af:	e8 4c 21 00 00       	call   9500 <assert_abort@plt>
    73b4:	8d b6 00 00 00 00    	lea    0x0(%esi),%esi
    73ba:	8d bf 00 00 00 00    	lea    0x0(%edi),%edi

000073c0 <block_put>:
    73c0:	55                   	push   %ebp
    73c1:	89 e5                	mov    %esp,%ebp
    73c3:	57                   	push   %edi
    73c4:	56                   	push   %esi
    73c5:	53                   	push   %ebx
    73c6:	83 ec 28             	sub    $0x28,%esp
    73c9:	8b 7d 08             	mov    0x8(%ebp),%edi
    73cc:	8b 5f 2c             	mov    0x2c(%edi),%ebx
    73cf:	68 08 b4 00 00       	push   $0xb408
    73d4:	e8 67 23 00 00       	call   9740 <fibril_mutex_lock@plt>
    73d9:	8b 35 04 b4 00 00    	mov    0xb404,%esi
    73df:	83 c4 10             	add    $0x10,%esp
    73e2:	81 fe 00 b4 00 00    	cmp    $0xb400,%esi
    73e8:	75 15                	jne    73ff <block_put+0x3f>
    73ea:	e9 c1 01 00 00       	jmp    75b0 <block_put+0x1f0>
    73ef:	90                   	nop
    73f0:	8b 76 04             	mov    0x4(%esi),%esi
    73f3:	81 fe 00 b4 00 00    	cmp    $0xb400,%esi
    73f9:	0f 84 b1 01 00 00    	je     75b0 <block_put+0x1f0>
    73ff:	3b 5e 08             	cmp    0x8(%esi),%ebx
    7402:	75 ec                	jne    73f0 <block_put+0x30>
    7404:	83 ec 0c             	sub    $0xc,%esp
    7407:	68 08 b4 00 00       	push   $0xb408
    740c:	e8 4f 21 00 00       	call   9560 <fibril_mutex_unlock@plt>
    7411:	8b 5e 2c             	mov    0x2c(%esi),%ebx
    7414:	83 c4 10             	add    $0x10,%esp
    7417:	85 db                	test   %ebx,%ebx
    7419:	0f 84 6b 02 00 00    	je     768a <block_put+0x2ca>
    741f:	8b 47 10             	mov    0x10(%edi),%eax
    7422:	85 c0                	test   %eax,%eax
    7424:	0f 84 75 02 00 00    	je     769f <block_put+0x2df>
    742a:	c7 45 e4 00 00 00 00 	movl   $0x0,-0x1c(%ebp)
    7431:	89 75 e0             	mov    %esi,-0x20(%ebp)
    7434:	8d 74 26 00          	lea    0x0(%esi,%eiz,1),%esi
    7438:	83 ec 0c             	sub    $0xc,%esp
    743b:	53                   	push   %ebx
    743c:	e8 ff 22 00 00       	call   9740 <fibril_mutex_lock@plt>
    7441:	8b 43 44             	mov    0x44(%ebx),%eax
    7444:	8b 73 1c             	mov    0x1c(%ebx),%esi
    7447:	89 45 d8             	mov    %eax,-0x28(%ebp)
    744a:	89 1c 24             	mov    %ebx,(%esp)
    744d:	e8 0e 21 00 00       	call   9560 <fibril_mutex_unlock@plt>
    7452:	89 3c 24             	mov    %edi,(%esp)
    7455:	e8 e6 22 00 00       	call   9740 <fibril_mutex_lock@plt>
    745a:	83 c4 10             	add    $0x10,%esp
    745d:	80 7f 15 00          	cmpb   $0x0,0x15(%edi)
    7461:	0f 85 39 01 00 00    	jne    75a0 <block_put+0x1e0>
    7467:	80 7f 14 00          	cmpb   $0x0,0x14(%edi)
    746b:	74 0a                	je     7477 <block_put+0xb7>
    746d:	83 7f 10 01          	cmpl   $0x1,0x10(%edi)
    7471:	0f 84 b9 00 00 00    	je     7530 <block_put+0x170>
    7477:	83 ec 0c             	sub    $0xc,%esp
    747a:	57                   	push   %edi
    747b:	e8 e0 20 00 00       	call   9560 <fibril_mutex_unlock@plt>
    7480:	89 1c 24             	mov    %ebx,(%esp)
    7483:	e8 b8 22 00 00       	call   9740 <fibril_mutex_lock@plt>
    7488:	89 3c 24             	mov    %edi,(%esp)
    748b:	e8 b0 22 00 00       	call   9740 <fibril_mutex_lock@plt>
    7490:	8b 47 10             	mov    0x10(%edi),%eax
    7493:	83 c4 10             	add    $0x10,%esp
    7496:	48                   	dec    %eax
    7497:	89 47 10             	mov    %eax,0x10(%edi)
    749a:	85 c0                	test   %eax,%eax
    749c:	0f 85 51 01 00 00    	jne    75f3 <block_put+0x233>
    74a2:	83 7b 1c 14          	cmpl   $0x14,0x1c(%ebx)
    74a6:	77 48                	ja     74f0 <block_put+0x130>
    74a8:	8b 45 e4             	mov    -0x1c(%ebp),%eax
    74ab:	85 c0                	test   %eax,%eax
    74ad:	75 41                	jne    74f0 <block_put+0x130>
    74af:	83 7b 44 01          	cmpl   $0x1,0x44(%ebx)
    74b3:	0f 84 1b 01 00 00    	je     75d4 <block_put+0x214>
    74b9:	80 7f 14 00          	cmpb   $0x0,0x14(%edi)
    74bd:	0f 84 11 01 00 00    	je     75d4 <block_put+0x214>
    74c3:	83 ec 0c             	sub    $0xc,%esp
    74c6:	c7 47 10 01 00 00 00 	movl   $0x1,0x10(%edi)
    74cd:	57                   	push   %edi
    74ce:	e8 8d 20 00 00       	call   9560 <fibril_mutex_unlock@plt>
    74d3:	89 1c 24             	mov    %ebx,(%esp)
    74d6:	e8 85 20 00 00       	call   9560 <fibril_mutex_unlock@plt>
    74db:	83 c4 10             	add    $0x10,%esp
    74de:	c7 45 e4 00 00 00 00 	movl   $0x0,-0x1c(%ebp)
    74e5:	e9 4e ff ff ff       	jmp    7438 <block_put+0x78>
    74ea:	8d b6 00 00 00 00    	lea    0x0(%esi),%esi
    74f0:	80 7f 14 00          	cmpb   $0x0,0x14(%edi)
    74f4:	0f 84 4a 01 00 00    	je     7644 <block_put+0x284>
    74fa:	8b 47 44             	mov    0x44(%edi),%eax
    74fd:	c7 47 10 01 00 00 00 	movl   $0x1,0x10(%edi)
    7504:	83 f8 09             	cmp    $0x9,%eax
    7507:	0f 8f 1b 01 00 00    	jg     7628 <block_put+0x268>
    750d:	83 ec 0c             	sub    $0xc,%esp
    7510:	40                   	inc    %eax
    7511:	89 47 44             	mov    %eax,0x44(%edi)
    7514:	57                   	push   %edi
    7515:	e8 46 20 00 00       	call   9560 <fibril_mutex_unlock@plt>
    751a:	89 1c 24             	mov    %ebx,(%esp)
    751d:	e8 3e 20 00 00       	call   9560 <fibril_mutex_unlock@plt>
    7522:	83 c4 10             	add    $0x10,%esp
    7525:	e9 0e ff ff ff       	jmp    7438 <block_put+0x78>
    752a:	8d b6 00 00 00 00    	lea    0x0(%esi),%esi
    7530:	83 fe 14             	cmp    $0x14,%esi
    7533:	77 0a                	ja     753f <block_put+0x17f>
    7535:	83 7d d8 01          	cmpl   $0x1,-0x28(%ebp)
    7539:	0f 84 38 ff ff ff    	je     7477 <block_put+0xb7>
    753f:	8b 47 38             	mov    0x38(%edi),%eax
    7542:	8b 57 3c             	mov    0x3c(%edi),%edx
    7545:	8b 73 14             	mov    0x14(%ebx),%esi
    7548:	51                   	push   %ecx
    7549:	51                   	push   %ecx
    754a:	89 45 d8             	mov    %eax,-0x28(%ebp)
    754d:	8b 4f 40             	mov    0x40(%edi),%ecx
    7550:	89 55 dc             	mov    %edx,-0x24(%ebp)
    7553:	51                   	push   %ecx
    7554:	8b 4f 58             	mov    0x58(%edi),%ecx
    7557:	51                   	push   %ecx
    7558:	56                   	push   %esi
    7559:	52                   	push   %edx
    755a:	50                   	push   %eax
    755b:	8b 45 e0             	mov    -0x20(%ebp),%eax
    755e:	8b 40 10             	mov    0x10(%eax),%eax
    7561:	50                   	push   %eax
    7562:	e8 89 1e 00 00       	call   93f0 <bd_write_blocks@plt>
    7567:	83 c4 20             	add    $0x20,%esp
    756a:	89 45 e4             	mov    %eax,-0x1c(%ebp)
    756d:	85 c0                	test   %eax,%eax
    756f:	0f 84 a3 00 00 00    	je     7618 <block_put+0x258>
    7575:	50                   	push   %eax
    7576:	50                   	push   %eax
    7577:	8b 45 e0             	mov    -0x20(%ebp),%eax
    757a:	8b 55 dc             	mov    -0x24(%ebp),%edx
    757d:	8b 4d d8             	mov    -0x28(%ebp),%ecx
    7580:	8b 40 08             	mov    0x8(%eax),%eax
    7583:	50                   	push   %eax
    7584:	52                   	push   %edx
    7585:	51                   	push   %ecx
    7586:	56                   	push   %esi
    7587:	8b 75 e4             	mov    -0x1c(%ebp),%esi
    758a:	56                   	push   %esi
    758b:	68 74 90 00 00       	push   $0x9074
    7590:	e8 eb 1d 00 00       	call   9380 <printf@plt>
    7595:	83 c4 20             	add    $0x20,%esp
    7598:	e8 f3 1e 00 00       	call   9490 <stacktrace_print@plt>
    759d:	8d 76 00             	lea    0x0(%esi),%esi
    75a0:	c6 47 14 00          	movb   $0x0,0x14(%edi)
    75a4:	e9 ce fe ff ff       	jmp    7477 <block_put+0xb7>
    75a9:	8d b4 26 00 00 00 00 	lea    0x0(%esi,%eiz,1),%esi
    75b0:	83 ec 0c             	sub    $0xc,%esp
    75b3:	68 08 b4 00 00       	push   $0xb408
    75b8:	e8 a3 1f 00 00       	call   9560 <fibril_mutex_unlock@plt>
    75bd:	83 c4 0c             	add    $0xc,%esp
    75c0:	68 4c 02 00 00       	push   $0x24c
    75c5:	68 d8 8f 00 00       	push   $0x8fd8
    75ca:	68 e0 8f 00 00       	push   $0x8fe0
    75cf:	e8 2c 1f 00 00       	call   9500 <assert_abort@plt>
    75d4:	8d 4b 3c             	lea    0x3c(%ebx),%ecx
    75d7:	8d 47 48             	lea    0x48(%edi),%eax
    75da:	89 4f 4c             	mov    %ecx,0x4c(%edi)
    75dd:	8b 4b 3c             	mov    0x3c(%ebx),%ecx
    75e0:	89 4f 48             	mov    %ecx,0x48(%edi)
    75e3:	c7 45 e4 00 00 00 00 	movl   $0x0,-0x1c(%ebp)
    75ea:	8b 4b 3c             	mov    0x3c(%ebx),%ecx
    75ed:	89 41 04             	mov    %eax,0x4(%ecx)
    75f0:	89 43 3c             	mov    %eax,0x3c(%ebx)
    75f3:	83 ec 0c             	sub    $0xc,%esp
    75f6:	57                   	push   %edi
    75f7:	e8 64 1f 00 00       	call   9560 <fibril_mutex_unlock@plt>
    75fc:	89 1c 24             	mov    %ebx,(%esp)
    75ff:	e8 5c 1f 00 00       	call   9560 <fibril_mutex_unlock@plt>
    7604:	8b 45 e4             	mov    -0x1c(%ebp),%eax
    7607:	83 c4 10             	add    $0x10,%esp
    760a:	8d 65 f4             	lea    -0xc(%ebp),%esp
    760d:	5b                   	pop    %ebx
    760e:	5e                   	pop    %esi
    760f:	5f                   	pop    %edi
    7610:	5d                   	pop    %ebp
    7611:	c3                   	ret    
    7612:	8d b6 00 00 00 00    	lea    0x0(%esi),%esi
    7618:	c7 47 44 00 00 00 00 	movl   $0x0,0x44(%edi)
    761f:	c6 47 14 00          	movb   $0x0,0x14(%edi)
    7623:	e9 4f fe ff ff       	jmp    7477 <block_put+0xb7>
    7628:	8b 75 e0             	mov    -0x20(%ebp),%esi
    762b:	8b 46 08             	mov    0x8(%esi),%eax
    762e:	50                   	push   %eax
    762f:	8b 47 34             	mov    0x34(%edi),%eax
    7632:	50                   	push   %eax
    7633:	8b 47 30             	mov    0x30(%edi),%eax
    7636:	50                   	push   %eax
    7637:	68 bc 90 00 00       	push   $0x90bc
    763c:	e8 3f 1d 00 00       	call   9380 <printf@plt>
    7641:	83 c4 10             	add    $0x10,%esp
    7644:	50                   	push   %eax
    7645:	50                   	push   %eax
    7646:	8d 47 50             	lea    0x50(%edi),%eax
    7649:	50                   	push   %eax
    764a:	8d 43 20             	lea    0x20(%ebx),%eax
    764d:	50                   	push   %eax
    764e:	e8 7d 1f 00 00       	call   95d0 <hash_table_remove_item@plt>
    7653:	89 3c 24             	mov    %edi,(%esp)
    7656:	e8 05 1f 00 00       	call   9560 <fibril_mutex_unlock@plt>
    765b:	8b 4f 58             	mov    0x58(%edi),%ecx
    765e:	5a                   	pop    %edx
    765f:	51                   	push   %ecx
    7660:	e8 cb 20 00 00       	call   9730 <free@plt>
    7665:	89 3c 24             	mov    %edi,(%esp)
    7668:	e8 c3 20 00 00       	call   9730 <free@plt>
    766d:	8b 73 1c             	mov    0x1c(%ebx),%esi
    7670:	4e                   	dec    %esi
    7671:	89 73 1c             	mov    %esi,0x1c(%ebx)
    7674:	89 1c 24             	mov    %ebx,(%esp)
    7677:	e8 e4 1e 00 00       	call   9560 <fibril_mutex_unlock@plt>
    767c:	8b 45 e4             	mov    -0x1c(%ebp),%eax
    767f:	83 c4 10             	add    $0x10,%esp
    7682:	8d 65 f4             	lea    -0xc(%ebp),%esp
    7685:	5b                   	pop    %ebx
    7686:	5e                   	pop    %esi
    7687:	5f                   	pop    %edi
    7688:	5d                   	pop    %ebp
    7689:	c3                   	ret    
    768a:	50                   	push   %eax
    768b:	68 4d 02 00 00       	push   $0x24d
    7690:	68 d8 8f 00 00       	push   $0x8fd8
    7695:	68 e7 8f 00 00       	push   $0x8fe7
    769a:	e8 61 1e 00 00       	call   9500 <assert_abort@plt>
    769f:	50                   	push   %eax
    76a0:	68 4e 02 00 00       	push   $0x24e
    76a5:	68 d8 8f 00 00       	push   $0x8fd8
    76aa:	68 f5 8f 00 00       	push   $0x8ff5
    76af:	e8 4c 1e 00 00       	call   9500 <assert_abort@plt>
    76b4:	8d b6 00 00 00 00    	lea    0x0(%esi),%esi
    76ba:	8d bf 00 00 00 00    	lea    0x0(%edi),%edi

000076c0 <block_get>:
    76c0:	55                   	push   %ebp
    76c1:	89 e5                	mov    %esp,%ebp
    76c3:	57                   	push   %edi
    76c4:	56                   	push   %esi
    76c5:	53                   	push   %ebx
    76c6:	83 ec 48             	sub    $0x48,%esp
    76c9:	8b 45 10             	mov    0x10(%ebp),%eax
    76cc:	89 45 e0             	mov    %eax,-0x20(%ebp)
    76cf:	8b 45 14             	mov    0x14(%ebp),%eax
    76d2:	68 08 b4 00 00       	push   $0xb408
    76d7:	89 45 e4             	mov    %eax,-0x1c(%ebp)
    76da:	e8 61 20 00 00       	call   9740 <fibril_mutex_lock@plt>
    76df:	8b 35 04 b4 00 00    	mov    0xb404,%esi
    76e5:	83 c4 10             	add    $0x10,%esp
    76e8:	81 fe 00 b4 00 00    	cmp    $0xb400,%esi
    76ee:	74 20                	je     7710 <block_get+0x50>
    76f0:	8b 46 08             	mov    0x8(%esi),%eax
    76f3:	39 45 0c             	cmp    %eax,0xc(%ebp)
    76f6:	74 40                	je     7738 <block_get+0x78>
    76f8:	8b 45 0c             	mov    0xc(%ebp),%eax
    76fb:	eb 08                	jmp    7705 <block_get+0x45>
    76fd:	8d 76 00             	lea    0x0(%esi),%esi
    7700:	3b 46 08             	cmp    0x8(%esi),%eax
    7703:	74 33                	je     7738 <block_get+0x78>
    7705:	8b 76 04             	mov    0x4(%esi),%esi
    7708:	81 fe 00 b4 00 00    	cmp    $0xb400,%esi
    770e:	75 f0                	jne    7700 <block_get+0x40>
    7710:	83 ec 0c             	sub    $0xc,%esp
    7713:	68 08 b4 00 00       	push   $0xb408
    7718:	e8 43 1e 00 00       	call   9560 <fibril_mutex_unlock@plt>
    771d:	83 c4 0c             	add    $0xc,%esp
    7720:	68 8a 01 00 00       	push   $0x18a
    7725:	68 d8 8f 00 00       	push   $0x8fd8
    772a:	68 e0 8f 00 00       	push   $0x8fe0
    772f:	e8 cc 1d 00 00       	call   9500 <assert_abort@plt>
    7734:	8d 74 26 00          	lea    0x0(%esi,%eiz,1),%esi
    7738:	83 ec 0c             	sub    $0xc,%esp
    773b:	68 08 b4 00 00       	push   $0xb408
    7740:	e8 1b 1e 00 00       	call   9560 <fibril_mutex_unlock@plt>
    7745:	8b 5e 2c             	mov    0x2c(%esi),%ebx
    7748:	83 c4 10             	add    $0x10,%esp
    774b:	85 db                	test   %ebx,%ebx
    774d:	0f 84 a5 04 00 00    	je     7bf8 <block_get+0x538>
    7753:	8b 43 14             	mov    0x14(%ebx),%eax
    7756:	8b 4d e4             	mov    -0x1c(%ebp),%ecx
    7759:	89 45 d8             	mov    %eax,-0x28(%ebp)
    775c:	31 d2                	xor    %edx,%edx
    775e:	0f af c8             	imul   %eax,%ecx
    7761:	8b 45 d8             	mov    -0x28(%ebp),%eax
    7764:	89 55 dc             	mov    %edx,-0x24(%ebp)
    7767:	f7 65 e0             	mull   -0x20(%ebp)
    776a:	01 ca                	add    %ecx,%edx
    776c:	03 45 d8             	add    -0x28(%ebp),%eax
    776f:	13 55 dc             	adc    -0x24(%ebp),%edx
    7772:	3b 56 24             	cmp    0x24(%esi),%edx
    7775:	76 19                	jbe    7790 <block_get+0xd0>
    7777:	c7 45 d8 f6 fe ff ff 	movl   $0xfffffef6,-0x28(%ebp)
    777e:	8b 45 d8             	mov    -0x28(%ebp),%eax
    7781:	8d 65 f4             	lea    -0xc(%ebp),%esp
    7784:	5b                   	pop    %ebx
    7785:	5e                   	pop    %esi
    7786:	5f                   	pop    %edi
    7787:	5d                   	pop    %ebp
    7788:	c3                   	ret    
    7789:	8d b4 26 00 00 00 00 	lea    0x0(%esi,%eiz,1),%esi
    7790:	0f 83 f2 01 00 00    	jae    7988 <block_get+0x2c8>
    7796:	8d 43 20             	lea    0x20(%ebx),%eax
    7799:	89 75 c8             	mov    %esi,-0x38(%ebp)
    779c:	89 45 d0             	mov    %eax,-0x30(%ebp)
    779f:	8d 43 3c             	lea    0x3c(%ebx),%eax
    77a2:	89 45 d8             	mov    %eax,-0x28(%ebp)
    77a5:	8d 76 00             	lea    0x0(%esi),%esi
    77a8:	83 ec 0c             	sub    $0xc,%esp
    77ab:	53                   	push   %ebx
    77ac:	e8 8f 1f 00 00       	call   9740 <fibril_mutex_lock@plt>
    77b1:	58                   	pop    %eax
    77b2:	8b 4d d0             	mov    -0x30(%ebp),%ecx
    77b5:	8d 45 e0             	lea    -0x20(%ebp),%eax
    77b8:	5a                   	pop    %edx
    77b9:	50                   	push   %eax
    77ba:	51                   	push   %ecx
    77bb:	e8 d0 1e 00 00       	call   9690 <hash_table_find@plt>
    77c0:	83 c4 10             	add    $0x10,%esp
    77c3:	85 c0                	test   %eax,%eax
    77c5:	0f 85 cd 01 00 00    	jne    7998 <block_get+0x2d8>
    77cb:	83 7b 1c 09          	cmpl   $0x9,0x1c(%ebx)
    77cf:	0f 86 d3 00 00 00    	jbe    78a8 <block_get+0x1e8>
    77d5:	8b 73 40             	mov    0x40(%ebx),%esi
    77d8:	3b 75 d8             	cmp    -0x28(%ebp),%esi
    77db:	0f 84 c7 00 00 00    	je     78a8 <block_get+0x1e8>
    77e1:	83 ec 0c             	sub    $0xc,%esp
    77e4:	8d 7e b8             	lea    -0x48(%esi),%edi
    77e7:	57                   	push   %edi
    77e8:	e8 53 1f 00 00       	call   9740 <fibril_mutex_lock@plt>
    77ed:	83 c4 10             	add    $0x10,%esp
    77f0:	80 7f 14 00          	cmpb   $0x0,0x14(%edi)
    77f4:	0f 84 1e 02 00 00    	je     7a18 <block_get+0x358>
    77fa:	8b 4f 48             	mov    0x48(%edi),%ecx
    77fd:	85 c9                	test   %ecx,%ecx
    77ff:	74 0f                	je     7810 <block_get+0x150>
    7801:	8b 47 4c             	mov    0x4c(%edi),%eax
    7804:	85 c0                	test   %eax,%eax
    7806:	74 08                	je     7810 <block_get+0x150>
    7808:	89 08                	mov    %ecx,(%eax)
    780a:	8b 4f 48             	mov    0x48(%edi),%ecx
    780d:	89 41 04             	mov    %eax,0x4(%ecx)
    7810:	c7 47 48 00 00 00 00 	movl   $0x0,0x48(%edi)
    7817:	8b 45 d8             	mov    -0x28(%ebp),%eax
    781a:	89 47 4c             	mov    %eax,0x4c(%edi)
    781d:	8b 43 3c             	mov    0x3c(%ebx),%eax
    7820:	89 47 48             	mov    %eax,0x48(%edi)
    7823:	83 ec 0c             	sub    $0xc,%esp
    7826:	8b 43 3c             	mov    0x3c(%ebx),%eax
    7829:	89 70 04             	mov    %esi,0x4(%eax)
    782c:	89 73 3c             	mov    %esi,0x3c(%ebx)
    782f:	53                   	push   %ebx
    7830:	e8 2b 1d 00 00       	call   9560 <fibril_mutex_unlock@plt>
    7835:	83 c4 08             	add    $0x8,%esp
    7838:	8b 77 40             	mov    0x40(%edi),%esi
    783b:	8b 4b 14             	mov    0x14(%ebx),%ecx
    783e:	8b 47 38             	mov    0x38(%edi),%eax
    7841:	8b 57 3c             	mov    0x3c(%edi),%edx
    7844:	56                   	push   %esi
    7845:	8b 77 58             	mov    0x58(%edi),%esi
    7848:	89 45 c0             	mov    %eax,-0x40(%ebp)
    784b:	56                   	push   %esi
    784c:	51                   	push   %ecx
    784d:	52                   	push   %edx
    784e:	50                   	push   %eax
    784f:	8b 45 c8             	mov    -0x38(%ebp),%eax
    7852:	89 4d d4             	mov    %ecx,-0x2c(%ebp)
    7855:	89 55 c4             	mov    %edx,-0x3c(%ebp)
    7858:	8b 40 10             	mov    0x10(%eax),%eax
    785b:	50                   	push   %eax
    785c:	e8 8f 1b 00 00       	call   93f0 <bd_write_blocks@plt>
    7861:	83 c4 20             	add    $0x20,%esp
    7864:	89 c6                	mov    %eax,%esi
    7866:	85 c0                	test   %eax,%eax
    7868:	8b 4d d4             	mov    -0x2c(%ebp),%ecx
    786b:	0f 85 a7 00 00 00    	jne    7918 <block_get+0x258>
    7871:	c7 47 44 00 00 00 00 	movl   $0x0,0x44(%edi)
    7878:	83 ec 0c             	sub    $0xc,%esp
    787b:	c6 47 14 00          	movb   $0x0,0x14(%edi)
    787f:	53                   	push   %ebx
    7880:	e8 5b 1c 00 00       	call   94e0 <fibril_mutex_trylock@plt>
    7885:	83 c4 10             	add    $0x10,%esp
    7888:	84 c0                	test   %al,%al
    788a:	0f 85 b7 02 00 00    	jne    7b47 <block_get+0x487>
    7890:	83 ec 0c             	sub    $0xc,%esp
    7893:	57                   	push   %edi
    7894:	e8 c7 1c 00 00       	call   9560 <fibril_mutex_unlock@plt>
    7899:	83 c4 10             	add    $0x10,%esp
    789c:	e9 07 ff ff ff       	jmp    77a8 <block_get+0xe8>
    78a1:	8d b4 26 00 00 00 00 	lea    0x0(%esi,%eiz,1),%esi
    78a8:	83 ec 0c             	sub    $0xc,%esp
    78ab:	6a 5c                	push   $0x5c
    78ad:	e8 8e 1b 00 00       	call   9440 <malloc@plt>
    78b2:	83 c4 10             	add    $0x10,%esp
    78b5:	89 c7                	mov    %eax,%edi
    78b7:	85 c0                	test   %eax,%eax
    78b9:	74 26                	je     78e1 <block_get+0x221>
    78bb:	83 ec 0c             	sub    $0xc,%esp
    78be:	8b 43 10             	mov    0x10(%ebx),%eax
    78c1:	50                   	push   %eax
    78c2:	e8 79 1b 00 00       	call   9440 <malloc@plt>
    78c7:	83 c4 10             	add    $0x10,%esp
    78ca:	89 47 58             	mov    %eax,0x58(%edi)
    78cd:	85 c0                	test   %eax,%eax
    78cf:	0f 85 14 03 00 00    	jne    7be9 <block_get+0x529>
    78d5:	83 ec 0c             	sub    $0xc,%esp
    78d8:	57                   	push   %edi
    78d9:	e8 52 1e 00 00       	call   9730 <free@plt>
    78de:	83 c4 10             	add    $0x10,%esp
    78e1:	8b 73 40             	mov    0x40(%ebx),%esi
    78e4:	3b 75 d8             	cmp    -0x28(%ebp),%esi
    78e7:	0f 85 f4 fe ff ff    	jne    77e1 <block_get+0x121>
    78ed:	83 ec 0c             	sub    $0xc,%esp
    78f0:	31 ff                	xor    %edi,%edi
    78f2:	53                   	push   %ebx
    78f3:	e8 68 1c 00 00       	call   9560 <fibril_mutex_unlock@plt>
    78f8:	83 c4 10             	add    $0x10,%esp
    78fb:	c7 45 d8 fe ff ff ff 	movl   $0xfffffffe,-0x28(%ebp)
    7902:	8b 45 08             	mov    0x8(%ebp),%eax
    7905:	89 38                	mov    %edi,(%eax)
    7907:	8b 45 d8             	mov    -0x28(%ebp),%eax
    790a:	8d 65 f4             	lea    -0xc(%ebp),%esp
    790d:	5b                   	pop    %ebx
    790e:	5e                   	pop    %esi
    790f:	5f                   	pop    %edi
    7910:	5d                   	pop    %ebp
    7911:	c3                   	ret    
    7912:	8d b6 00 00 00 00    	lea    0x0(%esi),%esi
    7918:	50                   	push   %eax
    7919:	50                   	push   %eax
    791a:	8b 45 c8             	mov    -0x38(%ebp),%eax
    791d:	8b 55 c0             	mov    -0x40(%ebp),%edx
    7920:	8b 40 08             	mov    0x8(%eax),%eax
    7923:	50                   	push   %eax
    7924:	8b 45 c4             	mov    -0x3c(%ebp),%eax
    7927:	50                   	push   %eax
    7928:	52                   	push   %edx
    7929:	51                   	push   %ecx
    792a:	56                   	push   %esi
    792b:	68 74 90 00 00       	push   $0x9074
    7930:	e8 4b 1a 00 00       	call   9380 <printf@plt>
    7935:	83 c4 20             	add    $0x20,%esp
    7938:	e8 53 1b 00 00       	call   9490 <stacktrace_print@plt>
    793d:	8b 47 44             	mov    0x44(%edi),%eax
    7940:	83 f8 09             	cmp    $0x9,%eax
    7943:	7f 1b                	jg     7960 <block_get+0x2a0>
    7945:	83 ec 0c             	sub    $0xc,%esp
    7948:	40                   	inc    %eax
    7949:	89 47 44             	mov    %eax,0x44(%edi)
    794c:	57                   	push   %edi
    794d:	e8 0e 1c 00 00       	call   9560 <fibril_mutex_unlock@plt>
    7952:	83 c4 10             	add    $0x10,%esp
    7955:	e9 4e fe ff ff       	jmp    77a8 <block_get+0xe8>
    795a:	8d b6 00 00 00 00    	lea    0x0(%esi),%esi
    7960:	8b 45 c8             	mov    -0x38(%ebp),%eax
    7963:	8b 40 08             	mov    0x8(%eax),%eax
    7966:	50                   	push   %eax
    7967:	8b 47 34             	mov    0x34(%edi),%eax
    796a:	50                   	push   %eax
    796b:	8b 47 30             	mov    0x30(%edi),%eax
    796e:	50                   	push   %eax
    796f:	68 bc 90 00 00       	push   $0x90bc
    7974:	e8 07 1a 00 00       	call   9380 <printf@plt>
    7979:	83 c4 10             	add    $0x10,%esp
    797c:	e9 f7 fe ff ff       	jmp    7878 <block_get+0x1b8>
    7981:	8d b4 26 00 00 00 00 	lea    0x0(%esi,%eiz,1),%esi
    7988:	3b 46 20             	cmp    0x20(%esi),%eax
    798b:	0f 83 e6 fd ff ff    	jae    7777 <block_get+0xb7>
    7991:	e9 00 fe ff ff       	jmp    7796 <block_get+0xd6>
    7996:	66 90                	xchg   %ax,%ax
    7998:	c7 45 d8 00 00 00 00 	movl   $0x0,-0x28(%ebp)
    799f:	8d 78 b0             	lea    -0x50(%eax),%edi
    79a2:	83 ec 0c             	sub    $0xc,%esp
    79a5:	57                   	push   %edi
    79a6:	e8 95 1d 00 00       	call   9740 <fibril_mutex_lock@plt>
    79ab:	8b 47 10             	mov    0x10(%edi),%eax
    79ae:	83 c4 10             	add    $0x10,%esp
    79b1:	85 c0                	test   %eax,%eax
    79b3:	8d 50 01             	lea    0x1(%eax),%edx
    79b6:	89 57 10             	mov    %edx,0x10(%edi)
    79b9:	75 24                	jne    79df <block_get+0x31f>
    79bb:	8b 57 48             	mov    0x48(%edi),%edx
    79be:	85 d2                	test   %edx,%edx
    79c0:	74 0f                	je     79d1 <block_get+0x311>
    79c2:	8b 47 4c             	mov    0x4c(%edi),%eax
    79c5:	85 c0                	test   %eax,%eax
    79c7:	74 08                	je     79d1 <block_get+0x311>
    79c9:	89 10                	mov    %edx,(%eax)
    79cb:	8b 57 48             	mov    0x48(%edi),%edx
    79ce:	89 42 04             	mov    %eax,0x4(%edx)
    79d1:	c7 47 48 00 00 00 00 	movl   $0x0,0x48(%edi)
    79d8:	c7 47 4c 00 00 00 00 	movl   $0x0,0x4c(%edi)
    79df:	8a 47 15             	mov    0x15(%edi),%al
    79e2:	84 c0                	test   %al,%al
    79e4:	0f 85 51 01 00 00    	jne    7b3b <block_get+0x47b>
    79ea:	8b 45 d8             	mov    -0x28(%ebp),%eax
    79ed:	85 c0                	test   %eax,%eax
    79ef:	0f 95 c0             	setne  %al
    79f2:	83 ec 0c             	sub    $0xc,%esp
    79f5:	88 45 d4             	mov    %al,-0x2c(%ebp)
    79f8:	57                   	push   %edi
    79f9:	e8 62 1b 00 00       	call   9560 <fibril_mutex_unlock@plt>
    79fe:	89 1c 24             	mov    %ebx,(%esp)
    7a01:	e8 5a 1b 00 00       	call   9560 <fibril_mutex_unlock@plt>
    7a06:	83 c4 10             	add    $0x10,%esp
    7a09:	8a 45 d4             	mov    -0x2c(%ebp),%al
    7a0c:	e9 05 01 00 00       	jmp    7b16 <block_get+0x456>
    7a11:	8d b4 26 00 00 00 00 	lea    0x0(%esi,%eiz,1),%esi
    7a18:	8b 75 c8             	mov    -0x38(%ebp),%esi
    7a1b:	83 ec 0c             	sub    $0xc,%esp
    7a1e:	57                   	push   %edi
    7a1f:	e8 3c 1b 00 00       	call   9560 <fibril_mutex_unlock@plt>
    7a24:	8b 57 48             	mov    0x48(%edi),%edx
    7a27:	83 c4 10             	add    $0x10,%esp
    7a2a:	85 d2                	test   %edx,%edx
    7a2c:	74 0f                	je     7a3d <block_get+0x37d>
    7a2e:	8b 47 4c             	mov    0x4c(%edi),%eax
    7a31:	85 c0                	test   %eax,%eax
    7a33:	74 08                	je     7a3d <block_get+0x37d>
    7a35:	89 10                	mov    %edx,(%eax)
    7a37:	8b 57 48             	mov    0x48(%edi),%edx
    7a3a:	89 42 04             	mov    %eax,0x4(%edx)
    7a3d:	c7 47 48 00 00 00 00 	movl   $0x0,0x48(%edi)
    7a44:	c7 47 4c 00 00 00 00 	movl   $0x0,0x4c(%edi)
    7a4b:	50                   	push   %eax
    7a4c:	50                   	push   %eax
    7a4d:	8d 47 50             	lea    0x50(%edi),%eax
    7a50:	50                   	push   %eax
    7a51:	8b 45 d0             	mov    -0x30(%ebp),%eax
    7a54:	50                   	push   %eax
    7a55:	e8 76 1b 00 00       	call   95d0 <hash_table_remove_item@plt>
    7a5a:	83 c4 10             	add    $0x10,%esp
    7a5d:	83 ec 0c             	sub    $0xc,%esp
    7a60:	57                   	push   %edi
    7a61:	e8 1a 1b 00 00       	call   9580 <fibril_mutex_initialize@plt>
    7a66:	8d 47 18             	lea    0x18(%edi),%eax
    7a69:	c7 47 10 01 00 00 00 	movl   $0x1,0x10(%edi)
    7a70:	c7 47 44 00 00 00 00 	movl   $0x0,0x44(%edi)
    7a77:	c6 47 14 00          	movb   $0x0,0x14(%edi)
    7a7b:	c6 47 15 00          	movb   $0x0,0x15(%edi)
    7a7f:	89 04 24             	mov    %eax,(%esp)
    7a82:	e8 39 1c 00 00       	call   96c0 <fibril_rwlock_initialize@plt>
    7a87:	8b 45 0c             	mov    0xc(%ebp),%eax
    7a8a:	89 47 2c             	mov    %eax,0x2c(%edi)
    7a8d:	8b 43 10             	mov    0x10(%ebx),%eax
    7a90:	89 47 40             	mov    %eax,0x40(%edi)
    7a93:	8b 45 e0             	mov    -0x20(%ebp),%eax
    7a96:	89 45 d8             	mov    %eax,-0x28(%ebp)
    7a99:	8b 4d e4             	mov    -0x1c(%ebp),%ecx
    7a9c:	89 47 30             	mov    %eax,0x30(%edi)
    7a9f:	8b 46 2c             	mov    0x2c(%esi),%eax
    7aa2:	83 c4 10             	add    $0x10,%esp
    7aa5:	c7 47 48 00 00 00 00 	movl   $0x0,0x48(%edi)
    7aac:	c7 47 4c 00 00 00 00 	movl   $0x0,0x4c(%edi)
    7ab3:	89 4f 34             	mov    %ecx,0x34(%edi)
    7ab6:	85 c0                	test   %eax,%eax
    7ab8:	0f 84 4f 01 00 00    	je     7c0d <block_get+0x54d>
    7abe:	8b 40 14             	mov    0x14(%eax),%eax
    7ac1:	0f af c8             	imul   %eax,%ecx
    7ac4:	f7 65 d8             	mull   -0x28(%ebp)
    7ac7:	01 ca                	add    %ecx,%edx
    7ac9:	89 47 38             	mov    %eax,0x38(%edi)
    7acc:	89 57 3c             	mov    %edx,0x3c(%edi)
    7acf:	50                   	push   %eax
    7ad0:	50                   	push   %eax
    7ad1:	8d 47 50             	lea    0x50(%edi),%eax
    7ad4:	50                   	push   %eax
    7ad5:	8b 45 d0             	mov    -0x30(%ebp),%eax
    7ad8:	50                   	push   %eax
    7ad9:	e8 f2 18 00 00       	call   93d0 <hash_table_insert@plt>
    7ade:	89 3c 24             	mov    %edi,(%esp)
    7ae1:	e8 5a 1c 00 00       	call   9740 <fibril_mutex_lock@plt>
    7ae6:	89 1c 24             	mov    %ebx,(%esp)
    7ae9:	e8 72 1a 00 00       	call   9560 <fibril_mutex_unlock@plt>
    7aee:	83 c4 10             	add    $0x10,%esp
    7af1:	f6 45 18 01          	testb  $0x1,0x18(%ebp)
    7af5:	0f 84 83 00 00 00    	je     7b7e <block_get+0x4be>
    7afb:	31 c0                	xor    %eax,%eax
    7afd:	c7 45 d8 00 00 00 00 	movl   $0x0,-0x28(%ebp)
    7b04:	83 ec 0c             	sub    $0xc,%esp
    7b07:	88 45 d4             	mov    %al,-0x2c(%ebp)
    7b0a:	57                   	push   %edi
    7b0b:	e8 50 1a 00 00       	call   9560 <fibril_mutex_unlock@plt>
    7b10:	83 c4 10             	add    $0x10,%esp
    7b13:	8a 45 d4             	mov    -0x2c(%ebp),%al
    7b16:	84 c0                	test   %al,%al
    7b18:	0f 84 e4 fd ff ff    	je     7902 <block_get+0x242>
    7b1e:	80 7f 15 00          	cmpb   $0x0,0x15(%edi)
    7b22:	0f 84 fa 00 00 00    	je     7c22 <block_get+0x562>
    7b28:	83 ec 0c             	sub    $0xc,%esp
    7b2b:	57                   	push   %edi
    7b2c:	31 ff                	xor    %edi,%edi
    7b2e:	e8 8d f8 ff ff       	call   73c0 <block_put>
    7b33:	83 c4 10             	add    $0x10,%esp
    7b36:	e9 c7 fd ff ff       	jmp    7902 <block_get+0x242>
    7b3b:	c7 45 d8 f6 fe ff ff 	movl   $0xfffffef6,-0x28(%ebp)
    7b42:	e9 ab fe ff ff       	jmp    79f2 <block_get+0x332>
    7b47:	8d 45 e0             	lea    -0x20(%ebp),%eax
    7b4a:	8b 4d d0             	mov    -0x30(%ebp),%ecx
    7b4d:	89 75 d8             	mov    %esi,-0x28(%ebp)
    7b50:	8b 75 c8             	mov    -0x38(%ebp),%esi
    7b53:	52                   	push   %edx
    7b54:	52                   	push   %edx
    7b55:	50                   	push   %eax
    7b56:	51                   	push   %ecx
    7b57:	e8 34 1b 00 00       	call   9690 <hash_table_find@plt>
    7b5c:	83 c4 10             	add    $0x10,%esp
    7b5f:	89 45 d4             	mov    %eax,-0x2c(%ebp)
    7b62:	85 c0                	test   %eax,%eax
    7b64:	0f 84 b1 fe ff ff    	je     7a1b <block_get+0x35b>
    7b6a:	83 ec 0c             	sub    $0xc,%esp
    7b6d:	57                   	push   %edi
    7b6e:	e8 ed 19 00 00       	call   9560 <fibril_mutex_unlock@plt>
    7b73:	83 c4 10             	add    $0x10,%esp
    7b76:	8b 45 d4             	mov    -0x2c(%ebp),%eax
    7b79:	e9 21 fe ff ff       	jmp    799f <block_get+0x2df>
    7b7e:	83 ec 08             	sub    $0x8,%esp
    7b81:	8b 4b 14             	mov    0x14(%ebx),%ecx
    7b84:	8b 5b 10             	mov    0x10(%ebx),%ebx
    7b87:	8b 47 38             	mov    0x38(%edi),%eax
    7b8a:	8b 57 3c             	mov    0x3c(%edi),%edx
    7b8d:	53                   	push   %ebx
    7b8e:	8b 5f 58             	mov    0x58(%edi),%ebx
    7b91:	89 45 c8             	mov    %eax,-0x38(%ebp)
    7b94:	53                   	push   %ebx
    7b95:	51                   	push   %ecx
    7b96:	52                   	push   %edx
    7b97:	50                   	push   %eax
    7b98:	8b 46 10             	mov    0x10(%esi),%eax
    7b9b:	89 55 cc             	mov    %edx,-0x34(%ebp)
    7b9e:	89 4d d4             	mov    %ecx,-0x2c(%ebp)
    7ba1:	50                   	push   %eax
    7ba2:	e8 29 19 00 00       	call   94d0 <bd_read_blocks@plt>
    7ba7:	83 c4 20             	add    $0x20,%esp
    7baa:	89 c2                	mov    %eax,%edx
    7bac:	89 45 d8             	mov    %eax,-0x28(%ebp)
    7baf:	8b 4d d4             	mov    -0x2c(%ebp),%ecx
    7bb2:	31 c0                	xor    %eax,%eax
    7bb4:	85 d2                	test   %edx,%edx
    7bb6:	0f 84 48 ff ff ff    	je     7b04 <block_get+0x444>
    7bbc:	53                   	push   %ebx
    7bbd:	53                   	push   %ebx
    7bbe:	8b 76 08             	mov    0x8(%esi),%esi
    7bc1:	8b 45 cc             	mov    -0x34(%ebp),%eax
    7bc4:	56                   	push   %esi
    7bc5:	50                   	push   %eax
    7bc6:	8b 45 c8             	mov    -0x38(%ebp),%eax
    7bc9:	50                   	push   %eax
    7bca:	51                   	push   %ecx
    7bcb:	52                   	push   %edx
    7bcc:	68 28 90 00 00       	push   $0x9028
    7bd1:	e8 aa 17 00 00       	call   9380 <printf@plt>
    7bd6:	83 c4 20             	add    $0x20,%esp
    7bd9:	e8 b2 18 00 00       	call   9490 <stacktrace_print@plt>
    7bde:	c6 47 15 01          	movb   $0x1,0x15(%edi)
    7be2:	b0 01                	mov    $0x1,%al
    7be4:	e9 1b ff ff ff       	jmp    7b04 <block_get+0x444>
    7be9:	8b 43 1c             	mov    0x1c(%ebx),%eax
    7bec:	8b 75 c8             	mov    -0x38(%ebp),%esi
    7bef:	40                   	inc    %eax
    7bf0:	89 43 1c             	mov    %eax,0x1c(%ebx)
    7bf3:	e9 65 fe ff ff       	jmp    7a5d <block_get+0x39d>
    7bf8:	53                   	push   %ebx
    7bf9:	68 8b 01 00 00       	push   $0x18b
    7bfe:	68 d8 8f 00 00       	push   $0x8fd8
    7c03:	68 e7 8f 00 00       	push   $0x8fe7
    7c08:	e8 f3 18 00 00       	call   9500 <assert_abort@plt>
    7c0d:	50                   	push   %eax
    7c0e:	68 c6 03 00 00       	push   $0x3c6
    7c13:	68 d8 8f 00 00       	push   $0x8fd8
    7c18:	68 08 90 00 00       	push   $0x9008
    7c1d:	e8 de 18 00 00       	call   9500 <assert_abort@plt>
    7c22:	50                   	push   %eax
    7c23:	68 34 02 00 00       	push   $0x234
    7c28:	68 d8 8f 00 00       	push   $0x8fd8
    7c2d:	68 1e 90 00 00       	push   $0x901e
    7c32:	e8 c9 18 00 00       	call   9500 <assert_abort@plt>
    7c37:	89 f6                	mov    %esi,%esi
    7c39:	8d bc 27 00 00 00 00 	lea    0x0(%edi,%eiz,1),%edi

00007c40 <block_seqread>:
    7c40:	55                   	push   %ebp
    7c41:	89 e5                	mov    %esp,%ebp
    7c43:	57                   	push   %edi
    7c44:	56                   	push   %esi
    7c45:	53                   	push   %ebx
    7c46:	83 ec 38             	sub    $0x38,%esp
    7c49:	8b 4d 20             	mov    0x20(%ebp),%ecx
    7c4c:	8b 75 08             	mov    0x8(%ebp),%esi
    7c4f:	68 08 b4 00 00       	push   $0xb408
    7c54:	89 4d e4             	mov    %ecx,-0x1c(%ebp)
    7c57:	e8 e4 1a 00 00       	call   9740 <fibril_mutex_lock@plt>
    7c5c:	8b 1d 04 b4 00 00    	mov    0xb404,%ebx
    7c62:	83 c4 10             	add    $0x10,%esp
    7c65:	81 fb 00 b4 00 00    	cmp    $0xb400,%ebx
    7c6b:	74 1b                	je     7c88 <block_seqread+0x48>
    7c6d:	3b 73 08             	cmp    0x8(%ebx),%esi
    7c70:	8b 4d e4             	mov    -0x1c(%ebp),%ecx
    7c73:	75 08                	jne    7c7d <block_seqread+0x3d>
    7c75:	eb 39                	jmp    7cb0 <block_seqread+0x70>
    7c77:	90                   	nop
    7c78:	3b 73 08             	cmp    0x8(%ebx),%esi
    7c7b:	74 33                	je     7cb0 <block_seqread+0x70>
    7c7d:	8b 5b 04             	mov    0x4(%ebx),%ebx
    7c80:	81 fb 00 b4 00 00    	cmp    $0xb400,%ebx
    7c86:	75 f0                	jne    7c78 <block_seqread+0x38>
    7c88:	83 ec 0c             	sub    $0xc,%esp
    7c8b:	68 08 b4 00 00       	push   $0xb408
    7c90:	e8 cb 18 00 00       	call   9560 <fibril_mutex_unlock@plt>
    7c95:	83 c4 0c             	add    $0xc,%esp
    7c98:	68 c6 02 00 00       	push   $0x2c6
    7c9d:	68 d8 8f 00 00       	push   $0x8fd8
    7ca2:	68 e0 8f 00 00       	push   $0x8fe0
    7ca7:	e8 54 18 00 00       	call   9500 <assert_abort@plt>
    7cac:	8d 74 26 00          	lea    0x0(%esi,%eiz,1),%esi
    7cb0:	83 ec 0c             	sub    $0xc,%esp
    7cb3:	89 4d e4             	mov    %ecx,-0x1c(%ebp)
    7cb6:	68 08 b4 00 00       	push   $0xb408
    7cbb:	e8 a0 18 00 00       	call   9560 <fibril_mutex_unlock@plt>
    7cc0:	8b 43 28             	mov    0x28(%ebx),%eax
    7cc3:	8b 4d e4             	mov    -0x1c(%ebp),%ecx
    7cc6:	83 c4 10             	add    $0x10,%esp
    7cc9:	89 45 d8             	mov    %eax,-0x28(%ebp)
    7ccc:	85 c9                	test   %ecx,%ecx
    7cce:	0f 84 e0 00 00 00    	je     7db4 <block_seqread+0x174>
    7cd4:	89 c6                	mov    %eax,%esi
    7cd6:	8b 45 14             	mov    0x14(%ebp),%eax
    7cd9:	89 5d dc             	mov    %ebx,-0x24(%ebp)
    7cdc:	c7 45 e4 00 00 00 00 	movl   $0x0,-0x1c(%ebp)
    7ce3:	8b 00                	mov    (%eax),%eax
    7ce5:	89 75 d0             	mov    %esi,-0x30(%ebp)
    7ce8:	c7 45 d4 00 00 00 00 	movl   $0x0,-0x2c(%ebp)
    7cef:	8b 5d 10             	mov    0x10(%ebp),%ebx
    7cf2:	eb 1a                	jmp    7d0e <block_seqread+0xce>
    7cf4:	8d 74 26 00          	lea    0x0(%esi,%eiz,1),%esi
    7cf8:	89 c2                	mov    %eax,%edx
    7cfa:	29 fa                	sub    %edi,%edx
    7cfc:	0f 85 f0 00 00 00    	jne    7df2 <block_seqread+0x1b2>
    7d02:	39 c7                	cmp    %eax,%edi
    7d04:	74 56                	je     7d5c <block_seqread+0x11c>
    7d06:	85 c9                	test   %ecx,%ecx
    7d08:	0f 84 a6 00 00 00    	je     7db4 <block_seqread+0x174>
    7d0e:	8b 3b                	mov    (%ebx),%edi
    7d10:	8d 14 0f             	lea    (%edi,%ecx,1),%edx
    7d13:	39 c2                	cmp    %eax,%edx
    7d15:	73 e1                	jae    7cf8 <block_seqread+0xb8>
    7d17:	31 f6                	xor    %esi,%esi
    7d19:	50                   	push   %eax
    7d1a:	8b 45 0c             	mov    0xc(%ebp),%eax
    7d1d:	01 c7                	add    %eax,%edi
    7d1f:	51                   	push   %ecx
    7d20:	8b 45 1c             	mov    0x1c(%ebp),%eax
    7d23:	57                   	push   %edi
    7d24:	8b 7d e4             	mov    -0x1c(%ebp),%edi
    7d27:	89 4d e0             	mov    %ecx,-0x20(%ebp)
    7d2a:	01 f8                	add    %edi,%eax
    7d2c:	50                   	push   %eax
    7d2d:	e8 fe 16 00 00       	call   9430 <memcpy@plt>
    7d32:	8b 4d e0             	mov    -0x20(%ebp),%ecx
    7d35:	89 f8                	mov    %edi,%eax
    7d37:	01 c8                	add    %ecx,%eax
    7d39:	8b 3b                	mov    (%ebx),%edi
    7d3b:	01 cf                	add    %ecx,%edi
    7d3d:	89 45 e4             	mov    %eax,-0x1c(%ebp)
    7d40:	89 c8                	mov    %ecx,%eax
    7d42:	8b 4d 18             	mov    0x18(%ebp),%ecx
    7d45:	89 3b                	mov    %edi,(%ebx)
    7d47:	31 d2                	xor    %edx,%edx
    7d49:	01 01                	add    %eax,(%ecx)
    7d4b:	8b 45 14             	mov    0x14(%ebp),%eax
    7d4e:	11 51 04             	adc    %edx,0x4(%ecx)
    7d51:	8b 00                	mov    (%eax),%eax
    7d53:	83 c4 10             	add    $0x10,%esp
    7d56:	89 f1                	mov    %esi,%ecx
    7d58:	39 c7                	cmp    %eax,%edi
    7d5a:	75 aa                	jne    7d06 <block_seqread+0xc6>
    7d5c:	8b 45 18             	mov    0x18(%ebp),%eax
    7d5f:	8b 75 d4             	mov    -0x2c(%ebp),%esi
    7d62:	8b 7d d0             	mov    -0x30(%ebp),%edi
    7d65:	56                   	push   %esi
    7d66:	57                   	push   %edi
    7d67:	89 4d e0             	mov    %ecx,-0x20(%ebp)
    7d6a:	8b 50 04             	mov    0x4(%eax),%edx
    7d6d:	52                   	push   %edx
    7d6e:	8b 08                	mov    (%eax),%ecx
    7d70:	51                   	push   %ecx
    7d71:	e8 4a 17 00 00       	call   94c0 <__udivdi3@plt>
    7d76:	5e                   	pop    %esi
    7d77:	89 c6                	mov    %eax,%esi
    7d79:	8b 45 dc             	mov    -0x24(%ebp),%eax
    7d7c:	5f                   	pop    %edi
    7d7d:	8b 4d 0c             	mov    0xc(%ebp),%ecx
    7d80:	89 d7                	mov    %edx,%edi
    7d82:	8b 50 28             	mov    0x28(%eax),%edx
    7d85:	52                   	push   %edx
    7d86:	51                   	push   %ecx
    7d87:	8b 40 10             	mov    0x10(%eax),%eax
    7d8a:	6a 01                	push   $0x1
    7d8c:	57                   	push   %edi
    7d8d:	56                   	push   %esi
    7d8e:	50                   	push   %eax
    7d8f:	e8 3c 17 00 00       	call   94d0 <bd_read_blocks@plt>
    7d94:	83 c4 20             	add    $0x20,%esp
    7d97:	8b 4d e0             	mov    -0x20(%ebp),%ecx
    7d9a:	85 c0                	test   %eax,%eax
    7d9c:	75 22                	jne    7dc0 <block_seqread+0x180>
    7d9e:	8b 75 14             	mov    0x14(%ebp),%esi
    7da1:	8b 45 d8             	mov    -0x28(%ebp),%eax
    7da4:	c7 03 00 00 00 00    	movl   $0x0,(%ebx)
    7daa:	85 c9                	test   %ecx,%ecx
    7dac:	89 06                	mov    %eax,(%esi)
    7dae:	0f 85 5a ff ff ff    	jne    7d0e <block_seqread+0xce>
    7db4:	8d 65 f4             	lea    -0xc(%ebp),%esp
    7db7:	31 d2                	xor    %edx,%edx
    7db9:	89 d0                	mov    %edx,%eax
    7dbb:	5b                   	pop    %ebx
    7dbc:	5e                   	pop    %esi
    7dbd:	5f                   	pop    %edi
    7dbe:	5d                   	pop    %ebp
    7dbf:	c3                   	ret    
    7dc0:	8b 5d dc             	mov    -0x24(%ebp),%ebx
    7dc3:	89 c2                	mov    %eax,%edx
    7dc5:	50                   	push   %eax
    7dc6:	50                   	push   %eax
    7dc7:	8b 4b 08             	mov    0x8(%ebx),%ecx
    7dca:	89 55 e4             	mov    %edx,-0x1c(%ebp)
    7dcd:	51                   	push   %ecx
    7dce:	57                   	push   %edi
    7dcf:	56                   	push   %esi
    7dd0:	6a 01                	push   $0x1
    7dd2:	52                   	push   %edx
    7dd3:	68 28 90 00 00       	push   $0x9028
    7dd8:	e8 a3 15 00 00       	call   9380 <printf@plt>
    7ddd:	83 c4 20             	add    $0x20,%esp
    7de0:	e8 ab 16 00 00       	call   9490 <stacktrace_print@plt>
    7de5:	8b 55 e4             	mov    -0x1c(%ebp),%edx
    7de8:	8d 65 f4             	lea    -0xc(%ebp),%esp
    7deb:	89 d0                	mov    %edx,%eax
    7ded:	5b                   	pop    %ebx
    7dee:	5e                   	pop    %esi
    7def:	5f                   	pop    %edi
    7df0:	5d                   	pop    %ebp
    7df1:	c3                   	ret    
    7df2:	89 ce                	mov    %ecx,%esi
    7df4:	89 d1                	mov    %edx,%ecx
    7df6:	29 d6                	sub    %edx,%esi
    7df8:	e9 1c ff ff ff       	jmp    7d19 <block_seqread+0xd9>
    7dfd:	8d 76 00             	lea    0x0(%esi),%esi

00007e00 <block_read_direct>:
    7e00:	55                   	push   %ebp
    7e01:	89 e5                	mov    %esp,%ebp
    7e03:	57                   	push   %edi
    7e04:	56                   	push   %esi
    7e05:	53                   	push   %ebx
    7e06:	83 ec 28             	sub    $0x28,%esp
    7e09:	8b 45 08             	mov    0x8(%ebp),%eax
    7e0c:	8b 75 0c             	mov    0xc(%ebp),%esi
    7e0f:	68 08 b4 00 00       	push   $0xb408
    7e14:	89 45 e4             	mov    %eax,-0x1c(%ebp)
    7e17:	8b 7d 10             	mov    0x10(%ebp),%edi
    7e1a:	e8 21 19 00 00       	call   9740 <fibril_mutex_lock@plt>
    7e1f:	8b 1d 04 b4 00 00    	mov    0xb404,%ebx
    7e25:	83 c4 10             	add    $0x10,%esp
    7e28:	81 fb 00 b4 00 00    	cmp    $0xb400,%ebx
    7e2e:	74 20                	je     7e50 <block_read_direct+0x50>
    7e30:	8b 45 e4             	mov    -0x1c(%ebp),%eax
    7e33:	3b 43 08             	cmp    0x8(%ebx),%eax
    7e36:	75 0d                	jne    7e45 <block_read_direct+0x45>
    7e38:	eb 3e                	jmp    7e78 <block_read_direct+0x78>
    7e3a:	8d b6 00 00 00 00    	lea    0x0(%esi),%esi
    7e40:	3b 43 08             	cmp    0x8(%ebx),%eax
    7e43:	74 33                	je     7e78 <block_read_direct+0x78>
    7e45:	8b 5b 04             	mov    0x4(%ebx),%ebx
    7e48:	81 fb 00 b4 00 00    	cmp    $0xb400,%ebx
    7e4e:	75 f0                	jne    7e40 <block_read_direct+0x40>
    7e50:	83 ec 0c             	sub    $0xc,%esp
    7e53:	68 08 b4 00 00       	push   $0xb408
    7e58:	e8 03 17 00 00       	call   9560 <fibril_mutex_unlock@plt>
    7e5d:	83 c4 0c             	add    $0xc,%esp
    7e60:	68 fd 02 00 00       	push   $0x2fd
    7e65:	68 d8 8f 00 00       	push   $0x8fd8
    7e6a:	68 e0 8f 00 00       	push   $0x8fe0
    7e6f:	e8 8c 16 00 00       	call   9500 <assert_abort@plt>
    7e74:	8d 74 26 00          	lea    0x0(%esi,%eiz,1),%esi
    7e78:	83 ec 0c             	sub    $0xc,%esp
    7e7b:	68 08 b4 00 00       	push   $0xb408
    7e80:	e8 db 16 00 00       	call   9560 <fibril_mutex_unlock@plt>
    7e85:	58                   	pop    %eax
    7e86:	8b 4b 28             	mov    0x28(%ebx),%ecx
    7e89:	8b 45 14             	mov    0x14(%ebp),%eax
    7e8c:	5a                   	pop    %edx
    7e8d:	0f af c1             	imul   %ecx,%eax
    7e90:	50                   	push   %eax
    7e91:	8b 45 18             	mov    0x18(%ebp),%eax
    7e94:	50                   	push   %eax
    7e95:	8b 45 14             	mov    0x14(%ebp),%eax
    7e98:	50                   	push   %eax
    7e99:	8b 43 10             	mov    0x10(%ebx),%eax
    7e9c:	57                   	push   %edi
    7e9d:	56                   	push   %esi
    7e9e:	50                   	push   %eax
    7e9f:	e8 2c 16 00 00       	call   94d0 <bd_read_blocks@plt>
    7ea4:	83 c4 20             	add    $0x20,%esp
    7ea7:	89 c1                	mov    %eax,%ecx
    7ea9:	85 c0                	test   %eax,%eax
    7eab:	74 25                	je     7ed2 <block_read_direct+0xd2>
    7ead:	50                   	push   %eax
    7eae:	50                   	push   %eax
    7eaf:	8b 53 08             	mov    0x8(%ebx),%edx
    7eb2:	8b 5d 14             	mov    0x14(%ebp),%ebx
    7eb5:	52                   	push   %edx
    7eb6:	57                   	push   %edi
    7eb7:	56                   	push   %esi
    7eb8:	53                   	push   %ebx
    7eb9:	51                   	push   %ecx
    7eba:	68 28 90 00 00       	push   $0x9028
    7ebf:	89 4d e4             	mov    %ecx,-0x1c(%ebp)
    7ec2:	e8 b9 14 00 00       	call   9380 <printf@plt>
    7ec7:	83 c4 20             	add    $0x20,%esp
    7eca:	e8 c1 15 00 00       	call   9490 <stacktrace_print@plt>
    7ecf:	8b 4d e4             	mov    -0x1c(%ebp),%ecx
    7ed2:	8d 65 f4             	lea    -0xc(%ebp),%esp
    7ed5:	89 c8                	mov    %ecx,%eax
    7ed7:	5b                   	pop    %ebx
    7ed8:	5e                   	pop    %esi
    7ed9:	5f                   	pop    %edi
    7eda:	5d                   	pop    %ebp
    7edb:	c3                   	ret    
    7edc:	8d 74 26 00          	lea    0x0(%esi,%eiz,1),%esi

00007ee0 <block_write_direct>:
    7ee0:	55                   	push   %ebp
    7ee1:	89 e5                	mov    %esp,%ebp
    7ee3:	57                   	push   %edi
    7ee4:	56                   	push   %esi
    7ee5:	53                   	push   %ebx
    7ee6:	83 ec 28             	sub    $0x28,%esp
    7ee9:	8b 45 08             	mov    0x8(%ebp),%eax
    7eec:	8b 75 0c             	mov    0xc(%ebp),%esi
    7eef:	68 08 b4 00 00       	push   $0xb408
    7ef4:	89 45 e4             	mov    %eax,-0x1c(%ebp)
    7ef7:	8b 7d 10             	mov    0x10(%ebp),%edi
    7efa:	e8 41 18 00 00       	call   9740 <fibril_mutex_lock@plt>
    7eff:	8b 1d 04 b4 00 00    	mov    0xb404,%ebx
    7f05:	83 c4 10             	add    $0x10,%esp
    7f08:	81 fb 00 b4 00 00    	cmp    $0xb400,%ebx
    7f0e:	74 20                	je     7f30 <block_write_direct+0x50>
    7f10:	8b 45 e4             	mov    -0x1c(%ebp),%eax
    7f13:	3b 43 08             	cmp    0x8(%ebx),%eax
    7f16:	75 0d                	jne    7f25 <block_write_direct+0x45>
    7f18:	eb 3e                	jmp    7f58 <block_write_direct+0x78>
    7f1a:	8d b6 00 00 00 00    	lea    0x0(%esi),%esi
    7f20:	3b 43 08             	cmp    0x8(%ebx),%eax
    7f23:	74 33                	je     7f58 <block_write_direct+0x78>
    7f25:	8b 5b 04             	mov    0x4(%ebx),%ebx
    7f28:	81 fb 00 b4 00 00    	cmp    $0xb400,%ebx
    7f2e:	75 f0                	jne    7f20 <block_write_direct+0x40>
    7f30:	83 ec 0c             	sub    $0xc,%esp
    7f33:	68 08 b4 00 00       	push   $0xb408
    7f38:	e8 23 16 00 00       	call   9560 <fibril_mutex_unlock@plt>
    7f3d:	83 c4 0c             	add    $0xc,%esp
    7f40:	68 11 03 00 00       	push   $0x311
    7f45:	68 d8 8f 00 00       	push   $0x8fd8
    7f4a:	68 e0 8f 00 00       	push   $0x8fe0
    7f4f:	e8 ac 15 00 00       	call   9500 <assert_abort@plt>
    7f54:	8d 74 26 00          	lea    0x0(%esi,%eiz,1),%esi
    7f58:	83 ec 0c             	sub    $0xc,%esp
    7f5b:	68 08 b4 00 00       	push   $0xb408
    7f60:	e8 fb 15 00 00       	call   9560 <fibril_mutex_unlock@plt>
    7f65:	58                   	pop    %eax
    7f66:	8b 4b 28             	mov    0x28(%ebx),%ecx
    7f69:	8b 45 14             	mov    0x14(%ebp),%eax
    7f6c:	5a                   	pop    %edx
    7f6d:	0f af c1             	imul   %ecx,%eax
    7f70:	50                   	push   %eax
    7f71:	8b 45 18             	mov    0x18(%ebp),%eax
    7f74:	50                   	push   %eax
    7f75:	8b 45 14             	mov    0x14(%ebp),%eax
    7f78:	50                   	push   %eax
    7f79:	8b 43 10             	mov    0x10(%ebx),%eax
    7f7c:	57                   	push   %edi
    7f7d:	56                   	push   %esi
    7f7e:	50                   	push   %eax
    7f7f:	e8 6c 14 00 00       	call   93f0 <bd_write_blocks@plt>
    7f84:	83 c4 20             	add    $0x20,%esp
    7f87:	89 c1                	mov    %eax,%ecx
    7f89:	85 c0                	test   %eax,%eax
    7f8b:	74 25                	je     7fb2 <block_write_direct+0xd2>
    7f8d:	50                   	push   %eax
    7f8e:	50                   	push   %eax
    7f8f:	8b 53 08             	mov    0x8(%ebx),%edx
    7f92:	8b 5d 14             	mov    0x14(%ebp),%ebx
    7f95:	52                   	push   %edx
    7f96:	57                   	push   %edi
    7f97:	56                   	push   %esi
    7f98:	53                   	push   %ebx
    7f99:	51                   	push   %ecx
    7f9a:	68 74 90 00 00       	push   $0x9074
    7f9f:	89 4d e4             	mov    %ecx,-0x1c(%ebp)
    7fa2:	e8 d9 13 00 00       	call   9380 <printf@plt>
    7fa7:	83 c4 20             	add    $0x20,%esp
    7faa:	e8 e1 14 00 00       	call   9490 <stacktrace_print@plt>
    7faf:	8b 4d e4             	mov    -0x1c(%ebp),%ecx
    7fb2:	8d 65 f4             	lea    -0xc(%ebp),%esp
    7fb5:	89 c8                	mov    %ecx,%eax
    7fb7:	5b                   	pop    %ebx
    7fb8:	5e                   	pop    %esi
    7fb9:	5f                   	pop    %edi
    7fba:	5d                   	pop    %ebp
    7fbb:	c3                   	ret    
    7fbc:	8d 74 26 00          	lea    0x0(%esi,%eiz,1),%esi

00007fc0 <block_sync_cache>:
    7fc0:	55                   	push   %ebp
    7fc1:	89 e5                	mov    %esp,%ebp
    7fc3:	57                   	push   %edi
    7fc4:	56                   	push   %esi
    7fc5:	53                   	push   %ebx
    7fc6:	83 ec 28             	sub    $0x28,%esp
    7fc9:	8b 55 08             	mov    0x8(%ebp),%edx
    7fcc:	8b 75 0c             	mov    0xc(%ebp),%esi
    7fcf:	68 08 b4 00 00       	push   $0xb408
    7fd4:	89 55 e4             	mov    %edx,-0x1c(%ebp)
    7fd7:	8b 7d 10             	mov    0x10(%ebp),%edi
    7fda:	8b 5d 14             	mov    0x14(%ebp),%ebx
    7fdd:	e8 5e 17 00 00       	call   9740 <fibril_mutex_lock@plt>
    7fe2:	a1 04 b4 00 00       	mov    0xb404,%eax
    7fe7:	83 c4 10             	add    $0x10,%esp
    7fea:	3d 00 b4 00 00       	cmp    $0xb400,%eax
    7fef:	74 1e                	je     800f <block_sync_cache+0x4f>
    7ff1:	8b 55 e4             	mov    -0x1c(%ebp),%edx
    7ff4:	3b 50 08             	cmp    0x8(%eax),%edx
    7ff7:	75 0c                	jne    8005 <block_sync_cache+0x45>
    7ff9:	eb 3d                	jmp    8038 <block_sync_cache+0x78>
    7ffb:	90                   	nop
    7ffc:	8d 74 26 00          	lea    0x0(%esi,%eiz,1),%esi
    8000:	3b 50 08             	cmp    0x8(%eax),%edx
    8003:	74 33                	je     8038 <block_sync_cache+0x78>
    8005:	8b 40 04             	mov    0x4(%eax),%eax
    8008:	3d 00 b4 00 00       	cmp    $0xb400,%eax
    800d:	75 f1                	jne    8000 <block_sync_cache+0x40>
    800f:	83 ec 0c             	sub    $0xc,%esp
    8012:	68 08 b4 00 00       	push   $0xb408
    8017:	e8 44 15 00 00       	call   9560 <fibril_mutex_unlock@plt>
    801c:	83 c4 0c             	add    $0xc,%esp
    801f:	68 23 03 00 00       	push   $0x323
    8024:	68 d8 8f 00 00       	push   $0x8fd8
    8029:	68 e0 8f 00 00       	push   $0x8fe0
    802e:	e8 cd 14 00 00       	call   9500 <assert_abort@plt>
    8033:	90                   	nop
    8034:	8d 74 26 00          	lea    0x0(%esi,%eiz,1),%esi
    8038:	83 ec 0c             	sub    $0xc,%esp
    803b:	89 45 e4             	mov    %eax,-0x1c(%ebp)
    803e:	68 08 b4 00 00       	push   $0xb408
    8043:	e8 18 15 00 00       	call   9560 <fibril_mutex_unlock@plt>
    8048:	8b 45 e4             	mov    -0x1c(%ebp),%eax
    804b:	89 5d 14             	mov    %ebx,0x14(%ebp)
    804e:	89 75 0c             	mov    %esi,0xc(%ebp)
    8051:	89 7d 10             	mov    %edi,0x10(%ebp)
    8054:	8b 40 10             	mov    0x10(%eax),%eax
    8057:	83 c4 10             	add    $0x10,%esp
    805a:	89 45 08             	mov    %eax,0x8(%ebp)
    805d:	8d 65 f4             	lea    -0xc(%ebp),%esp
    8060:	5b                   	pop    %ebx
    8061:	5e                   	pop    %esi
    8062:	5f                   	pop    %edi
    8063:	5d                   	pop    %ebp
    8064:	e9 07 16 00 00       	jmp    9670 <bd_sync_cache@plt>
    8069:	8d b4 26 00 00 00 00 	lea    0x0(%esi,%eiz,1),%esi

00008070 <block_get_bsize>:
    8070:	55                   	push   %ebp
    8071:	89 e5                	mov    %esp,%ebp
    8073:	57                   	push   %edi
    8074:	56                   	push   %esi
    8075:	53                   	push   %ebx
    8076:	83 ec 18             	sub    $0x18,%esp
    8079:	8b 75 08             	mov    0x8(%ebp),%esi
    807c:	8b 7d 0c             	mov    0xc(%ebp),%edi
    807f:	68 08 b4 00 00       	push   $0xb408
    8084:	e8 b7 16 00 00       	call   9740 <fibril_mutex_lock@plt>
    8089:	8b 1d 04 b4 00 00    	mov    0xb404,%ebx
    808f:	83 c4 10             	add    $0x10,%esp
    8092:	81 fb 00 b4 00 00    	cmp    $0xb400,%ebx
    8098:	75 11                	jne    80ab <block_get_bsize+0x3b>
    809a:	eb 3c                	jmp    80d8 <block_get_bsize+0x68>
    809c:	8d 74 26 00          	lea    0x0(%esi,%eiz,1),%esi
    80a0:	8b 5b 04             	mov    0x4(%ebx),%ebx
    80a3:	81 fb 00 b4 00 00    	cmp    $0xb400,%ebx
    80a9:	74 2d                	je     80d8 <block_get_bsize+0x68>
    80ab:	3b 73 08             	cmp    0x8(%ebx),%esi
    80ae:	75 f0                	jne    80a0 <block_get_bsize+0x30>
    80b0:	83 ec 0c             	sub    $0xc,%esp
    80b3:	68 08 b4 00 00       	push   $0xb408
    80b8:	e8 a3 14 00 00       	call   9560 <fibril_mutex_unlock@plt>
    80bd:	89 7d 0c             	mov    %edi,0xc(%ebp)
    80c0:	83 c4 10             	add    $0x10,%esp
    80c3:	8b 43 10             	mov    0x10(%ebx),%eax
    80c6:	89 45 08             	mov    %eax,0x8(%ebp)
    80c9:	8d 65 f4             	lea    -0xc(%ebp),%esp
    80cc:	5b                   	pop    %ebx
    80cd:	5e                   	pop    %esi
    80ce:	5f                   	pop    %edi
    80cf:	5d                   	pop    %ebp
    80d0:	e9 6b 15 00 00       	jmp    9640 <bd_get_block_size@plt>
    80d5:	8d 76 00             	lea    0x0(%esi),%esi
    80d8:	83 ec 0c             	sub    $0xc,%esp
    80db:	68 08 b4 00 00       	push   $0xb408
    80e0:	e8 7b 14 00 00       	call   9560 <fibril_mutex_unlock@plt>
    80e5:	83 c4 0c             	add    $0xc,%esp
    80e8:	68 34 03 00 00       	push   $0x334
    80ed:	68 d8 8f 00 00       	push   $0x8fd8
    80f2:	68 e0 8f 00 00       	push   $0x8fe0
    80f7:	e8 04 14 00 00       	call   9500 <assert_abort@plt>
    80fc:	8d 74 26 00          	lea    0x0(%esi,%eiz,1),%esi

00008100 <block_get_nblocks>:
    8100:	55                   	push   %ebp
    8101:	89 e5                	mov    %esp,%ebp
    8103:	57                   	push   %edi
    8104:	56                   	push   %esi
    8105:	53                   	push   %ebx
    8106:	83 ec 18             	sub    $0x18,%esp
    8109:	8b 75 08             	mov    0x8(%ebp),%esi
    810c:	8b 7d 0c             	mov    0xc(%ebp),%edi
    810f:	68 08 b4 00 00       	push   $0xb408
    8114:	e8 27 16 00 00       	call   9740 <fibril_mutex_lock@plt>
    8119:	8b 1d 04 b4 00 00    	mov    0xb404,%ebx
    811f:	83 c4 10             	add    $0x10,%esp
    8122:	81 fb 00 b4 00 00    	cmp    $0xb400,%ebx
    8128:	75 11                	jne    813b <block_get_nblocks+0x3b>
    812a:	eb 3c                	jmp    8168 <block_get_nblocks+0x68>
    812c:	8d 74 26 00          	lea    0x0(%esi,%eiz,1),%esi
    8130:	8b 5b 04             	mov    0x4(%ebx),%ebx
    8133:	81 fb 00 b4 00 00    	cmp    $0xb400,%ebx
    8139:	74 2d                	je     8168 <block_get_nblocks+0x68>
    813b:	3b 73 08             	cmp    0x8(%ebx),%esi
    813e:	75 f0                	jne    8130 <block_get_nblocks+0x30>
    8140:	83 ec 0c             	sub    $0xc,%esp
    8143:	68 08 b4 00 00       	push   $0xb408
    8148:	e8 13 14 00 00       	call   9560 <fibril_mutex_unlock@plt>
    814d:	89 7d 0c             	mov    %edi,0xc(%ebp)
    8150:	83 c4 10             	add    $0x10,%esp
    8153:	8b 43 10             	mov    0x10(%ebx),%eax
    8156:	89 45 08             	mov    %eax,0x8(%ebp)
    8159:	8d 65 f4             	lea    -0xc(%ebp),%esp
    815c:	5b                   	pop    %ebx
    815d:	5e                   	pop    %esi
    815e:	5f                   	pop    %edi
    815f:	5d                   	pop    %ebp
    8160:	e9 9b 12 00 00       	jmp    9400 <bd_get_num_blocks@plt>
    8165:	8d 76 00             	lea    0x0(%esi),%esi
    8168:	83 ec 0c             	sub    $0xc,%esp
    816b:	68 08 b4 00 00       	push   $0xb408
    8170:	e8 eb 13 00 00       	call   9560 <fibril_mutex_unlock@plt>
    8175:	83 c4 0c             	add    $0xc,%esp
    8178:	68 43 03 00 00       	push   $0x343
    817d:	68 d8 8f 00 00       	push   $0x8fd8
    8182:	68 e0 8f 00 00       	push   $0x8fe0
    8187:	e8 74 13 00 00       	call   9500 <assert_abort@plt>
    818c:	8d 74 26 00          	lea    0x0(%esi,%eiz,1),%esi

00008190 <block_read_bytes_direct>:
    8190:	55                   	push   %ebp
    8191:	89 e5                	mov    %esp,%ebp
    8193:	57                   	push   %edi
    8194:	56                   	push   %esi
    8195:	53                   	push   %ebx
    8196:	83 ec 48             	sub    $0x48,%esp
    8199:	8b 45 0c             	mov    0xc(%ebp),%eax
    819c:	8b 55 10             	mov    0x10(%ebp),%edx
    819f:	68 08 b4 00 00       	push   $0xb408
    81a4:	8b 5d 08             	mov    0x8(%ebp),%ebx
    81a7:	89 45 d0             	mov    %eax,-0x30(%ebp)
    81aa:	89 55 d4             	mov    %edx,-0x2c(%ebp)
    81ad:	e8 8e 15 00 00       	call   9740 <fibril_mutex_lock@plt>
    81b2:	8b 35 04 b4 00 00    	mov    0xb404,%esi
    81b8:	83 c4 10             	add    $0x10,%esp
    81bb:	81 fe 00 b4 00 00    	cmp    $0xb400,%esi
    81c1:	75 10                	jne    81d3 <block_read_bytes_direct+0x43>
    81c3:	eb 43                	jmp    8208 <block_read_bytes_direct+0x78>
    81c5:	8d 76 00             	lea    0x0(%esi),%esi
    81c8:	8b 76 04             	mov    0x4(%esi),%esi
    81cb:	81 fe 00 b4 00 00    	cmp    $0xb400,%esi
    81d1:	74 35                	je     8208 <block_read_bytes_direct+0x78>
    81d3:	3b 5e 08             	cmp    0x8(%esi),%ebx
    81d6:	75 f0                	jne    81c8 <block_read_bytes_direct+0x38>
    81d8:	83 ec 0c             	sub    $0xc,%esp
    81db:	68 08 b4 00 00       	push   $0xb408
    81e0:	e8 7b 13 00 00       	call   9560 <fibril_mutex_unlock@plt>
    81e5:	8d 45 e4             	lea    -0x1c(%ebp),%eax
    81e8:	59                   	pop    %ecx
    81e9:	5f                   	pop    %edi
    81ea:	50                   	push   %eax
    81eb:	8b 46 10             	mov    0x10(%esi),%eax
    81ee:	50                   	push   %eax
    81ef:	e8 4c 14 00 00       	call   9640 <bd_get_block_size@plt>
    81f4:	83 c4 10             	add    $0x10,%esp
    81f7:	89 c1                	mov    %eax,%ecx
    81f9:	85 c0                	test   %eax,%eax
    81fb:	74 33                	je     8230 <block_read_bytes_direct+0xa0>
    81fd:	8d 65 f4             	lea    -0xc(%ebp),%esp
    8200:	89 c8                	mov    %ecx,%eax
    8202:	5b                   	pop    %ebx
    8203:	5e                   	pop    %esi
    8204:	5f                   	pop    %edi
    8205:	5d                   	pop    %ebp
    8206:	c3                   	ret    
    8207:	90                   	nop
    8208:	83 ec 0c             	sub    $0xc,%esp
    820b:	68 08 b4 00 00       	push   $0xb408
    8210:	e8 4b 13 00 00       	call   9560 <fibril_mutex_unlock@plt>
    8215:	83 c4 0c             	add    $0xc,%esp
    8218:	68 34 03 00 00       	push   $0x334
    821d:	68 d8 8f 00 00       	push   $0x8fd8
    8222:	68 e0 8f 00 00       	push   $0x8fe0
    8227:	e8 d4 12 00 00       	call   9500 <assert_abort@plt>
    822c:	8d 74 26 00          	lea    0x0(%esi,%eiz,1),%esi
    8230:	8b 75 e4             	mov    -0x1c(%ebp),%esi
    8233:	31 d2                	xor    %edx,%edx
    8235:	8b 45 d4             	mov    -0x2c(%ebp),%eax
    8238:	52                   	push   %edx
    8239:	56                   	push   %esi
    823a:	50                   	push   %eax
    823b:	8b 45 d0             	mov    -0x30(%ebp),%eax
    823e:	89 75 c8             	mov    %esi,-0x38(%ebp)
    8241:	50                   	push   %eax
    8242:	89 55 cc             	mov    %edx,-0x34(%ebp)
    8245:	e8 76 12 00 00       	call   94c0 <__udivdi3@plt>
    824a:	83 c4 10             	add    $0x10,%esp
    824d:	89 45 c0             	mov    %eax,-0x40(%ebp)
    8250:	8b 45 14             	mov    0x14(%ebp),%eax
    8253:	89 55 c4             	mov    %edx,-0x3c(%ebp)
    8256:	31 d2                	xor    %edx,%edx
    8258:	03 45 d0             	add    -0x30(%ebp),%eax
    825b:	8b 4d cc             	mov    -0x34(%ebp),%ecx
    825e:	13 55 d4             	adc    -0x2c(%ebp),%edx
    8261:	83 c0 ff             	add    $0xffffffff,%eax
    8264:	83 d2 ff             	adc    $0xffffffff,%edx
    8267:	8b 7d c8             	mov    -0x38(%ebp),%edi
    826a:	51                   	push   %ecx
    826b:	57                   	push   %edi
    826c:	52                   	push   %edx
    826d:	50                   	push   %eax
    826e:	e8 4d 12 00 00       	call   94c0 <__udivdi3@plt>
    8273:	8b 55 c0             	mov    -0x40(%ebp),%edx
    8276:	29 d0                	sub    %edx,%eax
    8278:	40                   	inc    %eax
    8279:	0f af f0             	imul   %eax,%esi
    827c:	89 45 bc             	mov    %eax,-0x44(%ebp)
    827f:	89 34 24             	mov    %esi,(%esp)
    8282:	e8 b9 11 00 00       	call   9440 <malloc@plt>
    8287:	83 c4 10             	add    $0x10,%esp
    828a:	89 c6                	mov    %eax,%esi
    828c:	85 c0                	test   %eax,%eax
    828e:	0f 84 19 01 00 00    	je     83ad <block_read_bytes_direct+0x21d>
    8294:	83 ec 0c             	sub    $0xc,%esp
    8297:	68 08 b4 00 00       	push   $0xb408
    829c:	e8 9f 14 00 00       	call   9740 <fibril_mutex_lock@plt>
    82a1:	8b 3d 04 b4 00 00    	mov    0xb404,%edi
    82a7:	83 c4 10             	add    $0x10,%esp
    82aa:	81 ff 00 b4 00 00    	cmp    $0xb400,%edi
    82b0:	75 15                	jne    82c7 <block_read_bytes_direct+0x137>
    82b2:	e9 91 00 00 00       	jmp    8348 <block_read_bytes_direct+0x1b8>
    82b7:	90                   	nop
    82b8:	8b 7f 04             	mov    0x4(%edi),%edi
    82bb:	81 ff 00 b4 00 00    	cmp    $0xb400,%edi
    82c1:	0f 84 81 00 00 00    	je     8348 <block_read_bytes_direct+0x1b8>
    82c7:	3b 5f 08             	cmp    0x8(%edi),%ebx
    82ca:	75 ec                	jne    82b8 <block_read_bytes_direct+0x128>
    82cc:	83 ec 0c             	sub    $0xc,%esp
    82cf:	68 08 b4 00 00       	push   $0xb408
    82d4:	e8 87 12 00 00       	call   9560 <fibril_mutex_unlock@plt>
    82d9:	58                   	pop    %eax
    82da:	8b 47 28             	mov    0x28(%edi),%eax
    82dd:	5a                   	pop    %edx
    82de:	8b 55 bc             	mov    -0x44(%ebp),%edx
    82e1:	0f af c2             	imul   %edx,%eax
    82e4:	50                   	push   %eax
    82e5:	56                   	push   %esi
    82e6:	8b 4d c4             	mov    -0x3c(%ebp),%ecx
    82e9:	8b 5d c0             	mov    -0x40(%ebp),%ebx
    82ec:	8b 47 10             	mov    0x10(%edi),%eax
    82ef:	52                   	push   %edx
    82f0:	51                   	push   %ecx
    82f1:	53                   	push   %ebx
    82f2:	50                   	push   %eax
    82f3:	e8 d8 11 00 00       	call   94d0 <bd_read_blocks@plt>
    82f8:	83 c4 20             	add    $0x20,%esp
    82fb:	89 c1                	mov    %eax,%ecx
    82fd:	85 c0                	test   %eax,%eax
    82ff:	75 6b                	jne    836c <block_read_bytes_direct+0x1dc>
    8301:	89 45 c0             	mov    %eax,-0x40(%ebp)
    8304:	8b 55 14             	mov    0x14(%ebp),%edx
    8307:	8b 5d cc             	mov    -0x34(%ebp),%ebx
    830a:	8b 7d c8             	mov    -0x38(%ebp),%edi
    830d:	50                   	push   %eax
    830e:	8b 45 d4             	mov    -0x2c(%ebp),%eax
    8311:	52                   	push   %edx
    8312:	51                   	push   %ecx
    8313:	51                   	push   %ecx
    8314:	53                   	push   %ebx
    8315:	57                   	push   %edi
    8316:	50                   	push   %eax
    8317:	8b 45 d0             	mov    -0x30(%ebp),%eax
    831a:	50                   	push   %eax
    831b:	e8 80 11 00 00       	call   94a0 <__umoddi3@plt>
    8320:	83 c4 18             	add    $0x18,%esp
    8323:	01 f0                	add    %esi,%eax
    8325:	50                   	push   %eax
    8326:	8b 45 18             	mov    0x18(%ebp),%eax
    8329:	50                   	push   %eax
    832a:	e8 01 11 00 00       	call   9430 <memcpy@plt>
    832f:	89 34 24             	mov    %esi,(%esp)
    8332:	e8 f9 13 00 00       	call   9730 <free@plt>
    8337:	8b 4d c0             	mov    -0x40(%ebp),%ecx
    833a:	83 c4 10             	add    $0x10,%esp
    833d:	8d 65 f4             	lea    -0xc(%ebp),%esp
    8340:	89 c8                	mov    %ecx,%eax
    8342:	5b                   	pop    %ebx
    8343:	5e                   	pop    %esi
    8344:	5f                   	pop    %edi
    8345:	5d                   	pop    %ebp
    8346:	c3                   	ret    
    8347:	90                   	nop
    8348:	83 ec 0c             	sub    $0xc,%esp
    834b:	68 08 b4 00 00       	push   $0xb408
    8350:	e8 0b 12 00 00       	call   9560 <fibril_mutex_unlock@plt>
    8355:	83 c4 0c             	add    $0xc,%esp
    8358:	68 fd 02 00 00       	push   $0x2fd
    835d:	68 d8 8f 00 00       	push   $0x8fd8
    8362:	68 e0 8f 00 00       	push   $0x8fe0
    8367:	e8 94 11 00 00       	call   9500 <assert_abort@plt>
    836c:	50                   	push   %eax
    836d:	50                   	push   %eax
    836e:	8b 47 08             	mov    0x8(%edi),%eax
    8371:	8b 55 c0             	mov    -0x40(%ebp),%edx
    8374:	50                   	push   %eax
    8375:	8b 5d bc             	mov    -0x44(%ebp),%ebx
    8378:	8b 45 c4             	mov    -0x3c(%ebp),%eax
    837b:	89 4d d0             	mov    %ecx,-0x30(%ebp)
    837e:	50                   	push   %eax
    837f:	52                   	push   %edx
    8380:	53                   	push   %ebx
    8381:	51                   	push   %ecx
    8382:	68 28 90 00 00       	push   $0x9028
    8387:	e8 f4 0f 00 00       	call   9380 <printf@plt>
    838c:	83 c4 20             	add    $0x20,%esp
    838f:	e8 fc 10 00 00       	call   9490 <stacktrace_print@plt>
    8394:	83 ec 0c             	sub    $0xc,%esp
    8397:	56                   	push   %esi
    8398:	e8 93 13 00 00       	call   9730 <free@plt>
    839d:	8b 4d d0             	mov    -0x30(%ebp),%ecx
    83a0:	83 c4 10             	add    $0x10,%esp
    83a3:	8d 65 f4             	lea    -0xc(%ebp),%esp
    83a6:	89 c8                	mov    %ecx,%eax
    83a8:	5b                   	pop    %ebx
    83a9:	5e                   	pop    %esi
    83aa:	5f                   	pop    %edi
    83ab:	5d                   	pop    %ebp
    83ac:	c3                   	ret    
    83ad:	b9 fe ff ff ff       	mov    $0xfffffffe,%ecx
    83b2:	e9 46 fe ff ff       	jmp    81fd <block_read_bytes_direct+0x6d>
    83b7:	89 f6                	mov    %esi,%esi
    83b9:	8d bc 27 00 00 00 00 	lea    0x0(%edi,%eiz,1),%edi

000083c0 <block_read_toc>:
    83c0:	55                   	push   %ebp
    83c1:	89 e5                	mov    %esp,%ebp
    83c3:	57                   	push   %edi
    83c4:	56                   	push   %esi
    83c5:	53                   	push   %ebx
    83c6:	83 ec 28             	sub    $0x28,%esp
    83c9:	8b 55 08             	mov    0x8(%ebp),%edx
    83cc:	8b 5d 0c             	mov    0xc(%ebp),%ebx
    83cf:	68 08 b4 00 00       	push   $0xb408
    83d4:	89 55 e4             	mov    %edx,-0x1c(%ebp)
    83d7:	8b 75 10             	mov    0x10(%ebp),%esi
    83da:	8b 7d 14             	mov    0x14(%ebp),%edi
    83dd:	e8 5e 13 00 00       	call   9740 <fibril_mutex_lock@plt>
    83e2:	a1 04 b4 00 00       	mov    0xb404,%eax
    83e7:	83 c4 10             	add    $0x10,%esp
    83ea:	3d 00 b4 00 00       	cmp    $0xb400,%eax
    83ef:	74 1e                	je     840f <block_read_toc+0x4f>
    83f1:	8b 55 e4             	mov    -0x1c(%ebp),%edx
    83f4:	3b 50 08             	cmp    0x8(%eax),%edx
    83f7:	75 0c                	jne    8405 <block_read_toc+0x45>
    83f9:	eb 3d                	jmp    8438 <block_read_toc+0x78>
    83fb:	90                   	nop
    83fc:	8d 74 26 00          	lea    0x0(%esi,%eiz,1),%esi
    8400:	3b 50 08             	cmp    0x8(%eax),%edx
    8403:	74 33                	je     8438 <block_read_toc+0x78>
    8405:	8b 40 04             	mov    0x4(%eax),%eax
    8408:	3d 00 b4 00 00       	cmp    $0xb400,%eax
    840d:	75 f1                	jne    8400 <block_read_toc+0x40>
    840f:	83 ec 0c             	sub    $0xc,%esp
    8412:	68 08 b4 00 00       	push   $0xb408
    8417:	e8 44 11 00 00       	call   9560 <fibril_mutex_unlock@plt>
    841c:	83 c4 0c             	add    $0xc,%esp
    841f:	68 8a 03 00 00       	push   $0x38a
    8424:	68 d8 8f 00 00       	push   $0x8fd8
    8429:	68 e0 8f 00 00       	push   $0x8fe0
    842e:	e8 cd 10 00 00       	call   9500 <assert_abort@plt>
    8433:	90                   	nop
    8434:	8d 74 26 00          	lea    0x0(%esi,%eiz,1),%esi
    8438:	83 ec 0c             	sub    $0xc,%esp
    843b:	89 45 e4             	mov    %eax,-0x1c(%ebp)
    843e:	81 e3 ff 00 00 00    	and    $0xff,%ebx
    8444:	68 08 b4 00 00       	push   $0xb408
    8449:	e8 12 11 00 00       	call   9560 <fibril_mutex_unlock@plt>
    844e:	8b 45 e4             	mov    -0x1c(%ebp),%eax
    8451:	89 7d 14             	mov    %edi,0x14(%ebp)
    8454:	89 75 10             	mov    %esi,0x10(%ebp)
    8457:	89 5d 0c             	mov    %ebx,0xc(%ebp)
    845a:	8b 40 10             	mov    0x10(%eax),%eax
    845d:	83 c4 10             	add    $0x10,%esp
    8460:	89 45 08             	mov    %eax,0x8(%ebp)
    8463:	8d 65 f4             	lea    -0xc(%ebp),%esp
    8466:	5b                   	pop    %ebx
    8467:	5e                   	pop    %esi
    8468:	5f                   	pop    %edi
    8469:	5d                   	pop    %ebp
    846a:	e9 d1 10 00 00       	jmp    9540 <bd_read_toc@plt>

0000846f <write_blocks.part.3>:
    846f:	55                   	push   %ebp
    8470:	89 e5                	mov    %esp,%ebp
    8472:	83 ec 0c             	sub    $0xc,%esp
    8475:	68 b5 03 00 00       	push   $0x3b5
    847a:	68 d8 8f 00 00       	push   $0x8fd8
    847f:	68 e0 8f 00 00       	push   $0x8fe0
    8484:	e8 77 10 00 00       	call   9500 <assert_abort@plt>
    8489:	76 62                	jbe    84ed <write_blocks.part.3+0x7e>
    848b:	64 73 5f             	fs jae 84ed <write_blocks.part.3+0x7e>
    848e:	62 64 5f 67          	bound  %esp,0x67(%edi,%ebx,2)
    8492:	65 74 5f             	gs je  84f4 <write_blocks.part.3+0x85>
    8495:	6e                   	outsb  %ds:(%esi),(%dx)
    8496:	75 6d                	jne    8505 <write_blocks.part.3+0x96>
    8498:	5f                   	pop    %edi
    8499:	62 6c 6f 63          	bound  %ebp,0x63(%edi,%ebp,2)
    849d:	6b 73 28 29          	imul   $0x29,0x28(%ebx),%esi
    84a1:	00 76 62             	add    %dh,0x62(%esi)
    84a4:	64 73 5f             	fs jae 8506 <write_blocks.part.3+0x97>
    84a7:	62 64 5f 67          	bound  %esp,0x67(%edi,%ebx,2)
    84ab:	65 74 5f             	gs je  850d <write_blocks.part.3+0x9e>
    84ae:	62 6c 6f 63          	bound  %ebp,0x63(%edi,%ebp,2)
    84b2:	6b 5f 73 69          	imul   $0x69,0x73(%edi),%ebx
    84b6:	7a 65                	jp     851d <write_blocks.part.3+0xae>
    84b8:	28 29                	sub    %ch,(%ecx)
    84ba:	00 76 62             	add    %dh,0x62(%esi)
    84bd:	64 73 5f             	fs jae 851f <write_blocks.part.3+0xb0>
    84c0:	62 64 5f 77          	bound  %esp,0x77(%edi,%ebx,2)
    84c4:	72 69                	jb     852f <write_blocks.part.3+0xc0>
    84c6:	74 65                	je     852d <write_blocks.part.3+0xbe>
    84c8:	5f                   	pop    %edi
    84c9:	62 6c 6f 63          	bound  %ebp,0x63(%edi,%ebp,2)
    84cd:	6b 73 28 29          	imul   $0x29,0x28(%ebx),%esi
    84d1:	00 76 62             	add    %dh,0x62(%esi)
    84d4:	64 73 5f             	fs jae 8536 <write_blocks.part.3+0xc7>
    84d7:	62 64 5f 73          	bound  %esp,0x73(%edi,%ebx,2)
    84db:	79 6e                	jns    854b <write_blocks.part.3+0xdc>
    84dd:	63 5f 63             	arpl   %bx,0x63(%edi)
    84e0:	61                   	popa   
    84e1:	63 68 65             	arpl   %bp,0x65(%eax)
    84e4:	28 29                	sub    %ch,(%ecx)
    84e6:	00 76 62             	add    %dh,0x62(%esi)
    84e9:	64 73 5f             	fs jae 854b <write_blocks.part.3+0xdc>
    84ec:	62 64 5f 72          	bound  %esp,0x72(%edi,%ebx,2)
    84f0:	65 61                	gs popa 
    84f2:	64 5f                	fs pop %edi
    84f4:	62 6c 6f 63          	bound  %ebp,0x63(%edi,%ebp,2)
    84f8:	6b 73 28 29          	imul   $0x29,0x28(%ebx),%esi
    84fc:	00 76 62             	add    %dh,0x62(%esi)
    84ff:	64 73 5f             	fs jae 8561 <write_blocks.part.3+0xf2>
    8502:	62 64 5f 63          	bound  %esp,0x63(%edi,%ebx,2)
    8506:	6c                   	insb   (%dx),%es:(%edi)
    8507:	6f                   	outsl  %ds:(%esi),(%dx)
    8508:	73 65                	jae    856f <write_blocks.part.3+0x100>
    850a:	28 29                	sub    %ch,(%ecx)
    850c:	00 76 62             	add    %dh,0x62(%esi)
    850f:	64 73 5f             	fs jae 8571 <write_blocks.part.3+0x102>
    8512:	62 64 5f 6f          	bound  %esp,0x6f(%edi,%ebx,2)
    8516:	70 65                	jo     857d <write_blocks.part.3+0x10e>
    8518:	6e                   	outsb  %ds:(%esi),(%dx)
    8519:	28 29                	sub    %ch,(%ecx)
    851b:	00 25 73 70 25 75    	add    %ah,0x75257073
    8521:	00 4f 75             	add    %cl,0x75(%edi)
    8524:	74 20                	je     8546 <write_blocks.part.3+0xd7>
    8526:	6f                   	outsl  %ds:(%esi),(%dx)
    8527:	66 20 6d 65          	data16 and %ch,0x65(%ebp)
    852b:	6d                   	insl   (%dx),%es:(%edi)
    852c:	6f                   	outsl  %ds:(%esi),(%dx)
    852d:	72 79                	jb     85a8 <write_blocks.part.3+0x139>
    852f:	2e 00 6c 6f 63       	add    %ch,%cs:0x63(%edi,%ebp,2)
    8534:	5f                   	pop    %edi
    8535:	73 65                	jae    859c <write_blocks.part.3+0x12d>
    8537:	72 76                	jb     85af <write_blocks.part.3+0x140>
    8539:	69 63 65 5f 72 65 67 	imul   $0x6765725f,0x65(%ebx),%esp
    8540:	69 73 74 65 72 28 27 	imul   $0x27287265,0x74(%ebx),%esi
    8547:	25 73 27 29 00       	and    $0x292773,%eax
    854c:	76 62                	jbe    85b0 <write_blocks.part.3+0x141>
    854e:	64 73 5f             	fs jae 85b0 <write_blocks.part.3+0x141>
    8551:	70 61                	jo     85b4 <write_blocks.part.3+0x145>
    8553:	72 74                	jb     85c9 <write_blocks.part.3+0x15a>
    8555:	5f                   	pop    %edi
    8556:	69 6e 64 69 63 65 73 	imul   $0x73656369,0x64(%esi),%ebp
    855d:	5f                   	pop    %edi
    855e:	75 70                	jne    85d0 <write_blocks.part.3+0x161>
    8560:	64 61                	fs popa 
    8562:	74 65                	je     85c9 <write_blocks.part.3+0x15a>
    8564:	28 29                	sub    %ch,(%ecx)
    8566:	00 76 62             	add    %dh,0x62(%esi)
    8569:	64 73 5f             	fs jae 85cb <write_blocks.part.3+0x15c>
    856c:	70 61                	jo     85cf <write_blocks.part.3+0x160>
    856e:	72 74                	jb     85e4 <write_blocks.part.3+0x175>
    8570:	5f                   	pop    %edi
    8571:	72 65                	jb     85d8 <write_blocks.part.3+0x169>
    8573:	6d                   	insl   (%dx),%es:(%edi)
    8574:	6f                   	outsl  %ds:(%esi),(%dx)
    8575:	76 65                	jbe    85dc <write_blocks.part.3+0x16d>
    8577:	28 25 70 29 00 70    	sub    %ah,0x70002970
    857d:	61                   	popa   
    857e:	72 74                	jb     85f4 <write_blocks.part.3+0x185>
    8580:	2d 3e 6f 70 65       	sub    $0x65706f3e,%eax
    8585:	6e                   	outsb  %ds:(%esi),(%dx)
    8586:	5f                   	pop    %edi
    8587:	63 6e 74             	arpl   %bp,0x74(%esi)
    858a:	20 3d 20 25 64 00    	and    %bh,0x642520
    8590:	76 62                	jbe    85f4 <write_blocks.part.3+0x185>
    8592:	64 73 5f             	fs jae 85f4 <write_blocks.part.3+0x185>
    8595:	70 61                	jo     85f8 <write_blocks.part.3+0x189>
    8597:	72 74                	jb     860d <write_blocks.part.3+0x19e>
    8599:	5f                   	pop    %edi
    859a:	64 65 6c             	fs gs insb (%dx),%es:(%edi)
    859d:	5f                   	pop    %edi
    859e:	72 65                	jb     8605 <write_blocks.part.3+0x196>
    85a0:	66 00 20             	data16 add %ah,(%eax)
    85a3:	2d 20 66 72 65       	sub    $0x65726620,%eax
    85a8:	65 20 70 61          	and    %dh,%gs:0x61(%eax)
    85ac:	72 74                	jb     8622 <write_blocks.part.3+0x1b3>
    85ae:	00 76 62             	add    %dh,0x62(%esi)
    85b1:	64 73 5f             	fs jae 8613 <write_blocks.part.3+0x1a4>
    85b4:	70 61                	jo     8617 <write_blocks.part.3+0x1a8>
    85b6:	72 74                	jb     862c <write_blocks.part.3+0x1bd>
    85b8:	5f                   	pop    %edi
    85b9:	61                   	popa   
    85ba:	64 64 28 25 73 2c 20 	fs sub %ah,%fs:0x25202c73
    85c1:	25 
    85c2:	70 29                	jo     85ed <write_blocks.part.3+0x17e>
    85c4:	00 76 62             	add    %dh,0x62(%esi)
    85c7:	64 73 5f             	fs jae 8629 <write_blocks.part.3+0x1ba>
    85ca:	70 61                	jo     862d <write_blocks.part.3+0x1be>
    85cc:	72 74                	jb     8642 <write_blocks.part.3+0x1d3>
    85ce:	5f                   	pop    %edi
    85cf:	61                   	popa   
    85d0:	64 64 20 2d 3e 20 25 	fs and %ch,%fs:0x7025203e
    85d7:	70 
    85d8:	00 76 62             	add    %dh,0x62(%esi)
    85db:	64 73 5f             	fs jae 863d <write_blocks.part.3+0x1ce>
    85de:	64 69 73 6b 5f 61 64 	imul   $0x6464615f,%fs:0x6b(%ebx),%esi
    85e5:	64 
    85e6:	28 25 7a 75 29 00    	sub    %ah,0x29757a
    85ec:	62 6c 6f 63          	bound  %ebp,0x63(%edi,%ebp,2)
    85f0:	6b 5f 69 6e          	imul   $0x6e,0x69(%edi),%ebx
    85f4:	69 74 28 25 7a 75 29 	imul   $0x29757a,0x25(%eax,%ebp,1),%esi
    85fb:	00 
    85fc:	62 6c 6f 63          	bound  %ebp,0x63(%edi,%ebp,2)
    8600:	6b 5f 66 69          	imul   $0x69,0x66(%edi),%ebx
    8604:	6e                   	outsb  %ds:(%esi),(%dx)
    8605:	69 28 25 7a 75 29    	imul   $0x29757a25,(%eax),%ebp
    860b:	00 76 62             	add    %dh,0x62(%esi)
    860e:	64 73 5f             	fs jae 8670 <write_blocks.part.3+0x201>
    8611:	64 69 73 6b 5f 72 65 	imul   $0x6d65725f,%fs:0x6b(%ebx),%esi
    8618:	6d 
    8619:	6f                   	outsl  %ds:(%esi),(%dx)
    861a:	76 65                	jbe    8681 <write_blocks.part.3+0x212>
    861c:	28 25 7a 75 29 00    	sub    %ah,0x29757a
    8622:	46                   	inc    %esi
    8623:	61                   	popa   
    8624:	69 6c 65 64 20 72 65 	imul   $0x6d657220,0x64(%ebp,%eiz,2),%ebp
    862b:	6d 
    862c:	6f                   	outsl  %ds:(%esi),(%dx)
    862d:	76 69                	jbe    8698 <write_blocks.part.3+0x229>
    862f:	6e                   	outsb  %ds:(%esi),(%dx)
    8630:	67 20 64 69          	and    %ah,0x69(%si)
    8634:	73 6b                	jae    86a1 <write_blocks.part.3+0x232>
    8636:	2e 00 76 62          	add    %dh,%cs:0x62(%esi)
    863a:	64 73 5f             	fs jae 869c <write_blocks.part.3+0x22d>
    863d:	64 69 73 6b 73 5f 63 	imul   $0x68635f73,%fs:0x6b(%ebx),%esi
    8644:	68 
    8645:	65 63 6b 5f          	arpl   %bp,%gs:0x5f(%ebx)
    8649:	6e                   	outsb  %ds:(%esi),(%dx)
    864a:	65 77 28             	gs ja  8675 <write_blocks.part.3+0x206>
    864d:	29 00                	sub    %eax,(%eax)
    864f:	64 69 73 6b 00 44 69 	imul   $0x73694400,%fs:0x6b(%ebx),%esi
    8656:	73 
    8657:	6b 20 25             	imul   $0x25,(%eax),%esp
    865a:	6c                   	insb   (%dx),%es:(%edi)
    865b:	75 20                	jne    867d <write_blocks.part.3+0x20e>
    865d:	61                   	popa   
    865e:	6c                   	insb   (%dx),%es:(%edi)
    865f:	72 65                	jb     86c6 <write_blocks.part.3+0x257>
    8661:	61                   	popa   
    8662:	64 79 20             	fs jns 8685 <write_blocks.part.3+0x216>
    8665:	6b 6e 6f 77          	imul   $0x77,0x6f(%esi),%ebp
    8669:	6e                   	outsb  %ds:(%esi),(%dx)
    866a:	00 46 6f             	add    %al,0x6f(%esi)
    866d:	75 6e                	jne    86dd <write_blocks.part.3+0x26e>
    866f:	64 20 64 69 73       	and    %ah,%fs:0x73(%ecx,%ebp,2)
    8674:	6b 20 27             	imul   $0x27,(%eax),%esp
    8677:	25 6c 75 27 00       	and    $0x27756c,%eax
    867c:	43                   	inc    %ebx
    867d:	6f                   	outsl  %ds:(%esi),(%dx)
    867e:	75 6c                	jne    86ec <write_blocks.part.3+0x27d>
    8680:	64 20 6e 6f          	and    %ch,%fs:0x6f(%esi)
    8684:	74 20                	je     86a6 <write_blocks.part.3+0x237>
    8686:	61                   	popa   
    8687:	64 64 20 64 69 73    	fs and %ah,%fs:0x73(%ecx,%ebp,2)
    868d:	6b 2e 00             	imul   $0x0,(%esi),%ebp
    8690:	44                   	inc    %esp
    8691:	69 73 6b 20 27 25 6c 	imul   $0x6c252720,0x6b(%ebx),%esi
    8698:	75 27                	jne    86c1 <write_blocks.part.3+0x252>
    869a:	20 69 73             	and    %ch,0x73(%ecx)
    869d:	20 67 6f             	and    %ah,0x6f(%edi)
    86a0:	6e                   	outsb  %ds:(%esi),(%dx)
    86a1:	65 00 43 6f          	add    %al,%gs:0x6f(%ebx)
    86a5:	75 6c                	jne    8713 <write_blocks.part.3+0x2a4>
    86a7:	64 20 6e 6f          	and    %ch,%fs:0x6f(%esi)
    86ab:	74 20                	je     86cd <write_blocks.part.3+0x25e>
    86ad:	72 65                	jb     8714 <write_blocks.part.3+0x2a5>
    86af:	6d                   	insl   (%dx),%es:(%edi)
    86b0:	6f                   	outsl  %ds:(%esi),(%dx)
    86b1:	76 65                	jbe    8718 <write_blocks.part.3+0x2a9>
    86b3:	20 64 69 73          	and    %ah,0x73(%ecx,%ebp,2)
    86b7:	6b 2e 00             	imul   $0x0,(%esi),%ebp
    86ba:	76 62                	jbe    871e <write_blocks.part.3+0x2af>
    86bc:	64 73 5f             	fs jae 871e <write_blocks.part.3+0x2af>
    86bf:	64 69 73 6b 5f 69 6e 	imul   $0x666e695f,%fs:0x6b(%ebx),%esi
    86c6:	66 
    86c7:	6f                   	outsl  %ds:(%esi),(%dx)
    86c8:	28 25 7a 75 29 00    	sub    %ah,0x29757a
    86ce:	76 62                	jbe    8732 <write_blocks.part.3+0x2c3>
    86d0:	64 73 5f             	fs jae 8732 <write_blocks.part.3+0x2c3>
    86d3:	6c                   	insb   (%dx),%es:(%edi)
    86d4:	61                   	popa   
    86d5:	62 65 6c             	bound  %esp,0x6c(%ebp)
    86d8:	5f                   	pop    %edi
    86d9:	63 72 65             	arpl   %si,0x65(%edx)
    86dc:	61                   	popa   
    86dd:	74 65                	je     8744 <write_blocks.part.3+0x2d5>
    86df:	28 25 7a 75 29 00    	sub    %ah,0x29757a
    86e5:	4c                   	dec    %esp
    86e6:	61                   	popa   
    86e7:	62 65 6c             	bound  %esp,0x6c(%ebp)
    86ea:	20 61 6c             	and    %ah,0x6c(%ecx)
    86ed:	72 65                	jb     8754 <write_blocks.part.3+0x2e5>
    86ef:	61                   	popa   
    86f0:	64 79 20             	fs jns 8713 <write_blocks.part.3+0x2a4>
    86f3:	65 78 69             	gs js  875f <write_blocks.part.3+0x2f0>
    86f6:	73 74                	jae    876c <write_blocks.part.3+0x2fd>
    86f8:	73 2e                	jae    8728 <write_blocks.part.3+0x2b9>
    86fa:	00 76 62             	add    %dh,0x62(%esi)
    86fd:	64 73 5f             	fs jae 875f <write_blocks.part.3+0x2f0>
    8700:	6c                   	insb   (%dx),%es:(%edi)
    8701:	61                   	popa   
    8702:	62 65 6c             	bound  %esp,0x6c(%ebp)
    8705:	5f                   	pop    %edi
    8706:	64 65 6c             	fs gs insb (%dx),%es:(%edi)
    8709:	65 74 65             	gs je  8771 <write_blocks.part.3+0x302>
    870c:	28 25 7a 75 29 00    	sub    %ah,0x29757a
    8712:	46                   	inc    %esi
    8713:	61                   	popa   
    8714:	69 6c 65 64 20 64 65 	imul   $0x6c656420,0x64(%ebp,%eiz,2),%ebp
    871b:	6c 
    871c:	65 74 69             	gs je  8788 <write_blocks.part.3+0x319>
    871f:	6e                   	outsb  %ds:(%esi),(%dx)
    8720:	67 20 6c 61          	and    %ch,0x61(%si)
    8724:	62 65 6c             	bound  %esp,0x6c(%ebp)
    8727:	2e 00 76 62          	add    %dh,%cs:0x62(%esi)
    872b:	64 73 5f             	fs jae 878d <write_blocks.part.3+0x31e>
    872e:	70 61                	jo     8791 <write_blocks.part.3+0x322>
    8730:	72 74                	jb     87a6 <write_blocks.part.3+0x337>
    8732:	5f                   	pop    %edi
    8733:	62 79 5f             	bound  %edi,0x5f(%ecx)
    8736:	70 69                	jo     87a1 <write_blocks.part.3+0x332>
    8738:	64 28 25 7a 75 29 00 	sub    %ah,%fs:0x29757a
    873f:	4e                   	dec    %esi
    8740:	6f                   	outsl  %ds:(%esi),(%dx)
    8741:	20 6d 61             	and    %ch,0x61(%ebp)
    8744:	74 63                	je     87a9 <write_blocks.part.3+0x33a>
    8746:	68 2e 00 25 7a       	push   $0x7a25002e
    874b:	75 20                	jne    876d <write_blocks.part.3+0x2fe>
    874d:	3d 3d 20 25 7a       	cmp    $0x7a25203d,%eax
    8752:	75 20                	jne    8774 <write_blocks.part.3+0x305>
    8754:	3f                   	aas    
    8755:	00 46 6f             	add    %al,0x6f(%esi)
    8758:	75 6e                	jne    87c8 <write_blocks.part.3+0x359>
    875a:	64 20 6d 61          	and    %ch,%fs:0x61(%ebp)
    875e:	74 63                	je     87c3 <write_blocks.part.3+0x354>
    8760:	68 2e 00 76 62       	push   $0x6276002e
    8765:	64 73 5f             	fs jae 87c7 <write_blocks.part.3+0x358>
    8768:	70 61                	jo     87cb <write_blocks.part.3+0x35c>
    876a:	72 74                	jb     87e0 <write_blocks.part.3+0x371>
    876c:	5f                   	pop    %edi
    876d:	61                   	popa   
    876e:	64 64 5f             	fs fs pop %edi
    8771:	72 65                	jb     87d8 <write_blocks.part.3+0x369>
    8773:	66 00 76 62          	data16 add %dh,0x62(%esi)
    8777:	64 73 5f             	fs jae 87d9 <write_blocks.part.3+0x36a>
    877a:	70 61                	jo     87dd <write_blocks.part.3+0x36e>
    877c:	72 74                	jb     87f2 <write_blocks.part.3+0x383>
    877e:	5f                   	pop    %edi
    877f:	63 72 65             	arpl   %si,0x65(%edx)
    8782:	61                   	popa   
    8783:	74 65                	je     87ea <write_blocks.part.3+0x37b>
    8785:	28 25 7a 75 29 00    	sub    %ah,0x29757a
    878b:	44                   	inc    %esp
    878c:	69 73 6b 20 25 7a 75 	imul   $0x757a2520,0x6b(%ebx),%esi
    8793:	20 6e 6f             	and    %ch,0x6f(%esi)
    8796:	74 20                	je     87b8 <write_blocks.part.3+0x349>
    8798:	66 6f                	outsw  %ds:(%esi),(%dx)
    879a:	75 6e                	jne    880a <write_blocks.part.3+0x39b>
    879c:	64 00 45 72          	add    %al,%fs:0x72(%ebp)
    87a0:	72 6f                	jb     8811 <write_blocks.part.3+0x3a2>
    87a2:	72 20                	jb     87c4 <write_blocks.part.3+0x355>
    87a4:	63 72 65             	arpl   %si,0x65(%edx)
    87a7:	61                   	popa   
    87a8:	74 69                	je     8813 <write_blocks.part.3+0x3a4>
    87aa:	6e                   	outsb  %ds:(%esi),(%dx)
    87ab:	67 20 70 61          	and    %dh,0x61(%bx,%si)
    87af:	72 74                	jb     8825 <write_blocks.part.3+0x3b6>
    87b1:	69 74 69 6f 6e 2e 00 	imul   $0x46002e6e,0x6f(%ecx,%ebp,2),%esi
    87b8:	46 
    87b9:	61                   	popa   
    87ba:	69 6c 65 64 20 64 65 	imul   $0x6c656420,0x64(%ebp,%eiz,2),%ebp
    87c1:	6c 
    87c2:	65 74 69             	gs je  882e <write_blocks.part.3+0x3bf>
    87c5:	6e                   	outsb  %ds:(%esi),(%dx)
    87c6:	67 20 70 61          	and    %dh,0x61(%bx,%si)
    87ca:	72 74                	jb     8840 <write_blocks.part.3+0x3d1>
    87cc:	69 74 69 6f 6e 00 46 	imul   $0x6146006e,0x6f(%ecx,%ebp,2),%esi
    87d3:	61 
    87d4:	69 6c 65 64 20 72 6f 	imul   $0x6c6f7220,0x64(%ebp,%eiz,2),%ebp
    87db:	6c 
    87dc:	6c                   	insb   (%dx),%es:(%edi)
    87dd:	69 6e 67 20 62 61 63 	imul   $0x63616220,0x67(%esi),%ebp
    87e4:	6b 2e 00             	imul   $0x0,(%esi),%ebp
    87e7:	6c                   	insb   (%dx),%es:(%edi)
    87e8:	61                   	popa   
    87e9:	62 65 6c             	bound  %esp,0x6c(%ebp)
    87ec:	5f                   	pop    %edi
    87ed:	73 75                	jae    8864 <write_blocks.part.3+0x3f5>
    87ef:	67 67 65 73 74       	addr16 addr16 gs jae 8868 <write_blocks.part.3+0x3f9>
    87f4:	5f                   	pop    %edi
    87f5:	70 74                	jo     886b <write_blocks.part.3+0x3fc>
    87f7:	79 70                	jns    8869 <write_blocks.part.3+0x3fa>
    87f9:	65 28 29             	sub    %ch,%gs:(%ecx)
    87fc:	20 66 61             	and    %ah,0x61(%esi)
    87ff:	69 6c 65 64 00 76 62 	imul   $0x64627600,0x64(%ebp,%eiz,2),%ebp
    8806:	64 
    8807:	73 5f                	jae    8868 <write_blocks.part.3+0x3f9>
    8809:	62 64 5f 63          	bound  %esp,0x63(%edi,%ebx,2)
    880d:	6f                   	outsl  %ds:(%esi),(%dx)
    880e:	6e                   	outsb  %ds:(%esi),(%dx)
    880f:	6e                   	outsb  %ds:(%esi),(%dx)
    8810:	28 29                	sub    %ch,(%ecx)
    8812:	00 76 62             	add    %dh,0x62(%esi)
    8815:	64 73 5f             	fs jae 8877 <write_blocks.part.3+0x408>
    8818:	62 64 5f 63          	bound  %esp,0x63(%edi,%ebx,2)
    881c:	6f                   	outsl  %ds:(%esi),(%dx)
    881d:	6e                   	outsb  %ds:(%esi),(%dx)
    881e:	6e                   	outsb  %ds:(%esi),(%dx)
    881f:	28 29                	sub    %ch,(%ecx)
    8821:	20 2d 20 73 76 63    	and    %ch,0x63767320
    8827:	69 64 3d 25 7a 75 00 	imul   $0x7600757a,0x25(%ebp,%edi,1),%esp
    882e:	76 
    882f:	62 64 73 5f          	bound  %esp,0x5f(%ebx,%esi,2)
    8833:	70 61                	jo     8896 <write_blocks.part.3+0x427>
    8835:	72 74                	jb     88ab <write_blocks.part.3+0x43c>
    8837:	5f                   	pop    %edi
    8838:	62 79 5f             	bound  %edi,0x5f(%ecx)
    883b:	73 76                	jae    88b3 <write_blocks.part.3+0x444>
    883d:	63 69 64             	arpl   %bp,0x64(%ecx)
    8840:	28 25 7a 75 29 00    	sub    %ah,0x29757a
    8846:	76 62                	jbe    88aa <write_blocks.part.3+0x43b>
    8848:	64 73 5f             	fs jae 88aa <write_blocks.part.3+0x43b>
    884b:	62 64 5f 63          	bound  %esp,0x63(%edi,%ebx,2)
    884f:	6f                   	outsl  %ds:(%esi),(%dx)
    8850:	6e                   	outsb  %ds:(%esi),(%dx)
    8851:	6e                   	outsb  %ds:(%esi),(%dx)
    8852:	28 29                	sub    %ch,(%ecx)
    8854:	20 2d 20 63 61 6c    	and    %ch,0x6c616320
    885a:	6c                   	insb   (%dx),%es:(%edi)
    885b:	20 62 64             	and    %ah,0x64(%edx)
    885e:	5f                   	pop    %edi
    885f:	63 6f 6e             	arpl   %bp,0x6e(%edi)
    8862:	6e                   	outsb  %ds:(%esi),(%dx)
    8863:	00 46 61             	add    %al,0x61(%esi)
    8866:	69 6c 65 64 20 72 65 	imul   $0x67657220,0x64(%ebp,%eiz,2),%ebp
    886d:	67 
    886e:	69 73 74 65 72 69 6e 	imul   $0x6e697265,0x74(%ebx),%esi
    8875:	67 20 73 65          	and    %dh,0x65(%bp,%di)
    8879:	72 76                	jb     88f1 <write_blocks.part.3+0x482>
    887b:	69 63 65 20 25 73 20 	imul   $0x20732520,0x65(%ebx),%esp
    8882:	28 25 64 29 2e 00    	sub    %ah,0x2e2964
    8888:	46                   	inc    %esi
    8889:	61                   	popa   
    888a:	69 6c 6c 65 64 20 61 	imul   $0x64612064,0x65(%esp,%ebp,2),%ebp
    8891:	64 
    8892:	64 69 6e 67 20 70 61 	imul   $0x72617020,%fs:0x67(%esi),%ebp
    8899:	72 
    889a:	74 69                	je     8905 <write_blocks.part.3+0x496>
    889c:	74 69                	je     8907 <write_blocks.part.3+0x498>
    889e:	6f                   	outsl  %ds:(%esi),(%dx)
    889f:	6e                   	outsb  %ds:(%esi),(%dx)
    88a0:	20 73 65             	and    %dh,0x65(%ebx)
    88a3:	72 76                	jb     891b <write_blocks.part.3+0x4ac>
    88a5:	69 63 65 20 25 73 20 	imul   $0x20732520,0x65(%ebx),%esp
    88ac:	74 6f                	je     891d <write_blocks.part.3+0x4ae>
    88ae:	20 70 61             	and    %dh,0x61(%eax)
    88b1:	72 74                	jb     8927 <write_blocks.part.3+0x4b8>
    88b3:	69 74 69 6f 6e 20 63 	imul   $0x6163206e,0x6f(%ecx,%ebp,2),%esi
    88ba:	61 
    88bb:	74 65                	je     8922 <write_blocks.part.3+0x4b3>
    88bd:	67 6f                	outsl  %ds:(%si),(%dx)
    88bf:	72 79                	jb     893a <write_blocks.part.3+0x4cb>
    88c1:	2e 00 00             	add    %al,%cs:(%eax)
    88c4:	45                   	inc    %ebp
    88c5:	72 72                	jb     8939 <write_blocks.part.3+0x4ca>
    88c7:	6f                   	outsl  %ds:(%esi),(%dx)
    88c8:	72 20                	jb     88ea <write_blocks.part.3+0x47b>
    88ca:	75 6e                	jne    893a <write_blocks.part.3+0x4cb>
    88cc:	72 65                	jb     8933 <write_blocks.part.3+0x4c4>
    88ce:	67 69 73 74 65 72 69 	imul   $0x6e697265,0x74(%bp,%di),%esi
    88d5:	6e 
    88d6:	67 20 73 65          	and    %dh,0x65(%bp,%di)
    88da:	72 76                	jb     8952 <write_blocks.part.3+0x4e3>
    88dc:	69 63 65 2e 20 52 6f 	imul   $0x6f52202e,0x65(%ebx),%esp
    88e3:	6c                   	insb   (%dx),%es:(%edi)
    88e4:	6c                   	insb   (%dx),%es:(%edi)
    88e5:	62 61 63             	bound  %esp,0x63(%ecx)
    88e8:	6b 20 66             	imul   $0x66,(%eax),%esp
    88eb:	61                   	popa   
    88ec:	69 6c 65 64 2e 00 00 	imul   $0x2e,0x64(%ebp,%eiz,2),%ebp
    88f3:	00 
    88f4:	76 62                	jbe    8958 <write_blocks.part.3+0x4e9>
    88f6:	64 73 5f             	fs jae 8958 <write_blocks.part.3+0x4e9>
    88f9:	70 61                	jo     895c <write_blocks.part.3+0x4ed>
    88fb:	72 74                	jb     8971 <write_blocks.part.3+0x502>
    88fd:	5f                   	pop    %edi
    88fe:	73 76                	jae    8976 <write_blocks.part.3+0x507>
    8900:	63 5f 75             	arpl   %bx,0x75(%edi)
    8903:	6e                   	outsb  %ds:(%esi),(%dx)
    8904:	72 65                	jb     896b <write_blocks.part.3+0x4fc>
    8906:	67 69 73 74 65 72 28 	imul   $0x64287265,0x74(%bp,%di),%esi
    890d:	64 
    890e:	69 73 6b 2d 3e 73 76 	imul   $0x76733e2d,0x6b(%ebx),%esi
    8915:	63 5f 6e             	arpl   %bx,0x6e(%edi)
    8918:	61                   	popa   
    8919:	6d                   	insl   (%dx),%es:(%edi)
    891a:	65 3d 27 25 73 27    	gs cmp $0x27732527,%eax
    8920:	2c 20                	sub    $0x20,%al
    8922:	69 64 3d 25 7a 75 29 	imul   $0x29757a,0x25(%ebp,%edi,1),%esp
    8929:	00 
    892a:	00 00                	add    %al,(%eax)
    892c:	45                   	inc    %ebp
    892d:	72 72                	jb     89a1 <write_blocks.part.3+0x532>
    892f:	6f                   	outsl  %ds:(%esi),(%dx)
    8930:	72 20                	jb     8952 <write_blocks.part.3+0x4e3>
    8932:	72 65                	jb     8999 <write_blocks.part.3+0x52a>
    8934:	2d 72 65 67 69       	sub    $0x69676572,%eax
    8939:	73 74                	jae    89af <write_blocks.part.3+0x540>
    893b:	65 72 69             	gs jb  89a7 <write_blocks.part.3+0x538>
    893e:	6e                   	outsb  %ds:(%esi),(%dx)
    893f:	67 20 70 61          	and    %dh,0x61(%bx,%si)
    8943:	72 74                	jb     89b9 <write_blocks.part.3+0x54a>
    8945:	69 74 69 6f 6e 2e 00 	imul   $0x45002e6e,0x6f(%ecx,%ebp,2),%esi
    894c:	45 
    894d:	72 72                	jb     89c1 <write_blocks.part.3+0x552>
    894f:	6f                   	outsl  %ds:(%esi),(%dx)
    8950:	72 20                	jb     8972 <write_blocks.part.3+0x503>
    8952:	75 6e                	jne    89c2 <write_blocks.part.3+0x553>
    8954:	2d 72 65 67 69       	sub    $0x69676572,%eax
    8959:	73 74                	jae    89cf <write_blocks.part.3+0x560>
    895b:	65 72 69             	gs jb  89c7 <write_blocks.part.3+0x558>
    895e:	6e                   	outsb  %ds:(%esi),(%dx)
    895f:	67 20 70 61          	and    %dh,0x61(%bx,%si)
    8963:	72 74                	jb     89d9 <write_blocks.part.3+0x56a>
    8965:	69 74 69 6f 6e 2e 00 	imul   $0x46002e6e,0x6f(%ecx,%ebp,2),%esi
    896c:	46 
    896d:	61                   	popa   
    896e:	69 6c 65 64 20 61 64 	imul   $0x64646120,0x64(%ebp,%eiz,2),%ebp
    8975:	64 
    8976:	69 6e 67 20 70 61 72 	imul   $0x72617020,0x67(%esi),%ebp
    897d:	74 69                	je     89e8 <write_blocks.part.3+0x579>
    897f:	74 69                	je     89ea <write_blocks.part.3+0x57b>
    8981:	6f                   	outsl  %ds:(%esi),(%dx)
    8982:	6e                   	outsb  %ds:(%esi),(%dx)
    8983:	20 28                	and    %ch,(%eax)
    8985:	64 69 73 6b 20 25 73 	imul   $0x29732520,%fs:0x6b(%ebx),%esi
    898c:	29 
    898d:	00 00                	add    %al,(%eax)
    898f:	00 45 72             	add    %al,0x72(%ebp)
    8992:	72 6f                	jb     8a03 <write_blocks.part.3+0x594>
    8994:	72 20                	jb     89b6 <write_blocks.part.3+0x547>
    8996:	6c                   	insb   (%dx),%es:(%edi)
    8997:	6f                   	outsl  %ds:(%esi),(%dx)
    8998:	6f                   	outsl  %ds:(%esi),(%dx)
    8999:	6b 69 6e 67          	imul   $0x67,0x6e(%ecx),%ebp
    899d:	20 75 70             	and    %dh,0x70(%ebp)
    89a0:	20 70 61             	and    %dh,0x61(%eax)
    89a3:	72 74                	jb     8a19 <write_blocks.part.3+0x5aa>
    89a5:	69 74 69 6f 6e 20 63 	imul   $0x6163206e,0x6f(%ecx,%ebp,2),%esi
    89ac:	61 
    89ad:	74 65                	je     8a14 <write_blocks.part.3+0x5a5>
    89af:	67 6f                	outsl  %ds:(%si),(%dx)
    89b1:	72 79                	jb     8a2c <write_blocks.part.3+0x5bd>
    89b3:	2e 00 00             	add    %al,%cs:(%eax)
    89b6:	00 00                	add    %al,(%eax)
    89b8:	46                   	inc    %esi
    89b9:	61                   	popa   
    89ba:	69 6c 65 64 20 67 65 	imul   $0x74656720,0x64(%ebp,%eiz,2),%ebp
    89c1:	74 
    89c2:	74 69                	je     8a2d <write_blocks.part.3+0x5be>
    89c4:	6e                   	outsb  %ds:(%esi),(%dx)
    89c5:	67 20 64 69          	and    %ah,0x69(%si)
    89c9:	73 6b                	jae    8a36 <write_blocks.part.3+0x5c7>
    89cb:	20 73 65             	and    %dh,0x65(%ebx)
    89ce:	72 76                	jb     8a46 <write_blocks.part.3+0x5d7>
    89d0:	69 63 65 20 6e 61 6d 	imul   $0x6d616e20,0x65(%ebx),%esp
    89d7:	65 2e 00 00          	gs add %al,%cs:(%eax)
    89db:	00 46 61             	add    %al,0x61(%esi)
    89de:	69 6c 65 64 20 6f 70 	imul   $0x65706f20,0x64(%ebp,%eiz,2),%ebp
    89e5:	65 
    89e6:	6e                   	outsb  %ds:(%esi),(%dx)
    89e7:	69 6e 67 20 62 6c 6f 	imul   $0x6f6c6220,0x67(%esi),%ebp
    89ee:	63 6b 20             	arpl   %bp,0x20(%ebx)
    89f1:	64 65 76 69          	fs gs jbe 8a5e <write_blocks.part.3+0x5ef>
    89f5:	63 65 20             	arpl   %sp,0x20(%ebp)
    89f8:	25 73 2e 00 46       	and    $0x46002e73,%eax
    89fd:	61                   	popa   
    89fe:	69 6c 65 64 20 67 65 	imul   $0x74656720,0x64(%ebp,%eiz,2),%ebp
    8a05:	74 
    8a06:	74 69                	je     8a71 <write_blocks.part.3+0x602>
    8a08:	6e                   	outsb  %ds:(%esi),(%dx)
    8a09:	67 20 62 6c          	and    %ah,0x6c(%bp,%si)
    8a0d:	6f                   	outsl  %ds:(%esi),(%dx)
    8a0e:	63 6b 20             	arpl   %bp,0x20(%ebx)
    8a11:	73 69                	jae    8a7c <write_blocks.part.3+0x60d>
    8a13:	7a 65                	jp     8a7a <write_blocks.part.3+0x60b>
    8a15:	20 6f 66             	and    %ch,0x66(%edi)
    8a18:	20 25 73 2e 00 00    	and    %ah,0x2e73
    8a1e:	00 00                	add    %al,(%eax)
    8a20:	46                   	inc    %esi
    8a21:	61                   	popa   
    8a22:	69 6c 65 64 20 67 65 	imul   $0x74656720,0x64(%ebp,%eiz,2),%ebp
    8a29:	74 
    8a2a:	74 69                	je     8a95 <write_blocks.part.3+0x626>
    8a2c:	6e                   	outsb  %ds:(%esi),(%dx)
    8a2d:	67 20 6e 75          	and    %ch,0x75(%bp)
    8a31:	6d                   	insl   (%dx),%es:(%edi)
    8a32:	62 65 72             	bound  %esp,0x72(%ebp)
    8a35:	20 6f 66             	and    %ch,0x66(%edi)
    8a38:	20 62 6c             	and    %ah,0x6c(%edx)
    8a3b:	6f                   	outsl  %ds:(%esi),(%dx)
    8a3c:	63 6b 73             	arpl   %bp,0x73(%ebx)
    8a3f:	20 6f 66             	and    %ch,0x66(%edi)
    8a42:	20 25 73 2e 00 00    	and    %ah,0x2e73
    8a48:	46                   	inc    %esi
    8a49:	61                   	popa   
    8a4a:	69 6c 65 64 20 74 6f 	imul   $0x206f7420,0x64(%ebp,%eiz,2),%ebp
    8a51:	20 
    8a52:	6f                   	outsl  %ds:(%esi),(%dx)
    8a53:	70 65                	jo     8aba <write_blocks.part.3+0x64b>
    8a55:	6e                   	outsb  %ds:(%esi),(%dx)
    8a56:	20 6c 61 62          	and    %ch,0x62(%ecx,%eiz,2)
    8a5a:	65 6c                	gs insb (%dx),%es:(%edi)
    8a5c:	20 69 6e             	and    %ch,0x6e(%ecx)
    8a5f:	20 64 69 73          	and    %ah,0x73(%ecx,%ebp,2)
    8a63:	6b 20 25             	imul   $0x25,(%eax),%esp
    8a66:	73 2e                	jae    8a96 <write_blocks.part.3+0x627>
    8a68:	00 00                	add    %al,(%eax)
    8a6a:	00 00                	add    %al,(%eax)
    8a6c:	52                   	push   %edx
    8a6d:	65 63 6f 67          	arpl   %bp,%gs:0x67(%edi)
    8a71:	6e                   	outsb  %ds:(%esi),(%dx)
    8a72:	69 7a 65 64 20 64 69 	imul   $0x69642064,0x65(%edx),%edi
    8a79:	73 6b                	jae    8ae6 <write_blocks.part.3+0x677>
    8a7b:	20 6c 61 62          	and    %ch,0x62(%ecx,%eiz,2)
    8a7f:	65 6c                	gs insb (%dx),%es:(%edi)
    8a81:	2e 20 41 64          	and    %al,%cs:0x64(%ecx)
    8a85:	64 69 6e 67 20 70 61 	imul   $0x72617020,%fs:0x67(%esi),%ebp
    8a8c:	72 
    8a8d:	74 69                	je     8af8 <write_blocks.part.3+0x689>
    8a8f:	74 69                	je     8afa <write_blocks.part.3+0x68b>
    8a91:	6f                   	outsl  %ds:(%esi),(%dx)
    8a92:	6e                   	outsb  %ds:(%esi),(%dx)
    8a93:	73 2e                	jae    8ac3 <write_blocks.part.3+0x654>
    8a95:	00 00                	add    %al,(%eax)
    8a97:	00 46 61             	add    %al,0x61(%esi)
    8a9a:	69 6c 65 64 20 72 65 	imul   $0x73657220,0x64(%ebp,%eiz,2),%ebp
    8aa1:	73 
    8aa2:	6f                   	outsl  %ds:(%esi),(%dx)
    8aa3:	6c                   	insb   (%dx),%es:(%edi)
    8aa4:	76 69                	jbe    8b0f <write_blocks.part.3+0x6a0>
    8aa6:	6e                   	outsb  %ds:(%esi),(%dx)
    8aa7:	67 20 63 61          	and    %ah,0x61(%bp,%di)
    8aab:	74 65                	je     8b12 <write_blocks.part.3+0x6a3>
    8aad:	67 6f                	outsl  %ds:(%si),(%dx)
    8aaf:	72 79                	jb     8b2a <write_blocks.part.3+0x6bb>
    8ab1:	20 27                	and    %ah,(%edi)
    8ab3:	64 69 73 6b 27 2e 00 	imul   $0x2e27,%fs:0x6b(%ebx),%esi
    8aba:	00 
    8abb:	00 46 61             	add    %al,0x61(%esi)
    8abe:	69 6c 65 64 20 67 65 	imul   $0x74656720,0x64(%ebp,%eiz,2),%ebp
    8ac5:	74 
    8ac6:	74 69                	je     8b31 <write_blocks.part.3+0x6c2>
    8ac8:	6e                   	outsb  %ds:(%esi),(%dx)
    8ac9:	67 20 6c 69          	and    %ch,0x69(%si)
    8acd:	73 74                	jae    8b43 <write_blocks.part.3+0x6d4>
    8acf:	20 6f 66             	and    %ch,0x66(%edi)
    8ad2:	20 64 69 73          	and    %ah,0x73(%ecx,%ebp,2)
    8ad6:	6b 20 64             	imul   $0x64,(%eax),%esp
    8ad9:	65 76 69             	gs jbe 8b45 <write_blocks.part.3+0x6d6>
    8adc:	63 65 73             	arpl   %sp,0x73(%ebp)
    8adf:	2e 00 00             	add    %al,%cs:(%eax)
    8ae2:	00 00                	add    %al,(%eax)
    8ae4:	46                   	inc    %esi
    8ae5:	61                   	popa   
    8ae6:	69 6c 65 64 20 72 65 	imul   $0x67657220,0x64(%ebp,%eiz,2),%ebp
    8aed:	67 
    8aee:	69 73 74 65 72 69 6e 	imul   $0x6e697265,0x74(%ebx),%esi
    8af5:	67 20 63 61          	and    %ah,0x61(%bp,%di)
    8af9:	6c                   	insb   (%dx),%es:(%edi)
    8afa:	6c                   	insb   (%dx),%es:(%edi)
    8afb:	62 61 63             	bound  %esp,0x63(%ecx)
    8afe:	6b 20 66             	imul   $0x66,(%eax),%esp
    8b01:	6f                   	outsl  %ds:(%esi),(%dx)
    8b02:	72 20                	jb     8b24 <write_blocks.part.3+0x6b5>
    8b04:	64 69 73 6b 20 64 69 	imul   $0x73696420,%fs:0x6b(%ebx),%esi
    8b0b:	73 
    8b0c:	63 6f 76             	arpl   %bp,0x76(%edi)
    8b0f:	65 72 79             	gs jb  8b8b <write_blocks.part.3+0x71c>
    8b12:	20 28                	and    %ch,(%eax)
    8b14:	25 64 29 2e 00       	and    $0x2e2964,%eax
    8b19:	00 00                	add    %al,(%eax)
    8b1b:	00 76 62             	add    %dh,0x62(%esi)
    8b1e:	64 73 5f             	fs jae 8b80 <write_blocks.part.3+0x711>
    8b21:	64 69 73 6b 5f 69 6e 	imul   $0x666e695f,%fs:0x6b(%ebx),%esi
    8b28:	66 
    8b29:	6f                   	outsl  %ds:(%esi),(%dx)
    8b2a:	20 2d 20 62 6c 6f    	and    %ch,0x6f6c6220
    8b30:	63 6b 5f             	arpl   %bp,0x5f(%ebx)
    8b33:	73 69                	jae    8b9e <write_blocks.part.3+0x72f>
    8b35:	7a 65                	jp     8b9c <write_blocks.part.3+0x72d>
    8b37:	3d 25 7a 75 00       	cmp    $0x757a25,%eax
    8b3c:	76 62                	jbe    8ba0 <write_blocks.part.3+0x731>
    8b3e:	64 73 5f             	fs jae 8ba0 <write_blocks.part.3+0x731>
    8b41:	6c                   	insb   (%dx),%es:(%edi)
    8b42:	61                   	popa   
    8b43:	62 65 6c             	bound  %esp,0x6c(%ebp)
    8b46:	5f                   	pop    %edi
    8b47:	63 72 65             	arpl   %si,0x65(%edx)
    8b4a:	61                   	popa   
    8b4b:	74 65                	je     8bb2 <write_blocks.part.3+0x743>
    8b4d:	28 25 7a 75 29 20    	sub    %ah,0x2029757a
    8b53:	2d 20 6c 61 62       	sub    $0x62616c20,%eax
    8b58:	65 6c                	gs insb (%dx),%es:(%edi)
    8b5a:	5f                   	pop    %edi
    8b5b:	63 6c 6f 73          	arpl   %bp,0x73(%edi,%ebp,2)
    8b5f:	65 00 00             	add    %al,%gs:(%eax)
    8b62:	00 00                	add    %al,(%eax)
    8b64:	76 62                	jbe    8bc8 <write_blocks.part.3+0x759>
    8b66:	64 73 5f             	fs jae 8bc8 <write_blocks.part.3+0x759>
    8b69:	6c                   	insb   (%dx),%es:(%edi)
    8b6a:	61                   	popa   
    8b6b:	62 65 6c             	bound  %esp,0x6c(%ebp)
    8b6e:	5f                   	pop    %edi
    8b6f:	63 72 65             	arpl   %si,0x65(%edx)
    8b72:	61                   	popa   
    8b73:	74 65                	je     8bda <write_blocks.part.3+0x76b>
    8b75:	28 25 7a 75 29 20    	sub    %ah,0x2029757a
    8b7b:	2d 20 6c 61 62       	sub    $0x62616c20,%eax
    8b80:	65 6c                	gs insb (%dx),%es:(%edi)
    8b82:	5f                   	pop    %edi
    8b83:	63 72 65             	arpl   %si,0x65(%edx)
    8b86:	61                   	popa   
    8b87:	74 65                	je     8bee <write_blocks.part.3+0x77f>
    8b89:	00 00                	add    %al,(%eax)
    8b8b:	00 76 62             	add    %dh,0x62(%esi)
    8b8e:	64 73 5f             	fs jae 8bf0 <write_blocks.part.3+0x781>
    8b91:	6c                   	insb   (%dx),%es:(%edi)
    8b92:	61                   	popa   
    8b93:	62 65 6c             	bound  %esp,0x6c(%ebp)
    8b96:	5f                   	pop    %edi
    8b97:	63 72 65             	arpl   %si,0x65(%edx)
    8b9a:	61                   	popa   
    8b9b:	74 65                	je     8c02 <write_blocks.part.3+0x793>
    8b9d:	28 25 7a 75 29 20    	sub    %ah,0x2029757a
    8ba3:	2d 20 73 75 63       	sub    $0x63757320,%eax
    8ba8:	63 65 73             	arpl   %sp,0x73(%ebp)
    8bab:	73 00                	jae    8bad <write_blocks.part.3+0x73e>
    8bad:	00 00                	add    %al,(%eax)
    8baf:	00 76 62             	add    %dh,0x62(%esi)
    8bb2:	64 73 5f             	fs jae 8c14 <write_blocks.part.3+0x7a5>
    8bb5:	6c                   	insb   (%dx),%es:(%edi)
    8bb6:	61                   	popa   
    8bb7:	62 65 6c             	bound  %esp,0x6c(%ebp)
    8bba:	5f                   	pop    %edi
    8bbb:	63 72 65             	arpl   %si,0x65(%edx)
    8bbe:	61                   	popa   
    8bbf:	74 65                	je     8c26 <write_blocks.part.3+0x7b7>
    8bc1:	28 25 7a 75 29 20    	sub    %ah,0x2029757a
    8bc7:	2d 20 66 61 69       	sub    $0x69616620,%eax
    8bcc:	6c                   	insb   (%dx),%es:(%edi)
    8bcd:	75 72                	jne    8c41 <write_blocks.part.3+0x7d2>
    8bcf:	65 00 00             	add    %al,%gs:(%eax)
    8bd2:	00 00                	add    %al,(%eax)
    8bd4:	76 62                	jbe    8c38 <write_blocks.part.3+0x7c9>
    8bd6:	64 73 5f             	fs jae 8c38 <write_blocks.part.3+0x7c9>
    8bd9:	70 61                	jo     8c3c <write_blocks.part.3+0x7cd>
    8bdb:	72 74                	jb     8c51 <write_blocks.part.3+0x7e2>
    8bdd:	5f                   	pop    %edi
    8bde:	63 72 61             	arpl   %si,0x61(%edx)
    8be1:	74 65                	je     8c48 <write_blocks.part.3+0x7d9>
    8be3:	28 25 7a 75 29 3a    	sub    %ah,0x3a29757a
    8be9:	20 69 6e             	and    %ch,0x6e(%ecx)
    8bec:	64 65 78 3d          	fs gs js 8c2d <write_blocks.part.3+0x7be>
    8bf0:	25 64 20 62 6c       	and    $0x6c622064,%eax
    8bf5:	6f                   	outsl  %ds:(%esi),(%dx)
    8bf6:	63 6b 30             	arpl   %bp,0x30(%ebx)
    8bf9:	3d 25 6c 6c 75       	cmp    $0x756c6c25,%eax
    8bfe:	20 6e 62             	and    %ch,0x62(%esi)
    8c01:	6c                   	insb   (%dx),%es:(%edi)
    8c02:	6f                   	outsl  %ds:(%esi),(%dx)
    8c03:	63 6b 73             	arpl   %bp,0x73(%ebx)
    8c06:	3d 25 6c 6c 75       	cmp    $0x756c6c25,%eax
    8c0b:	20 68 64             	and    %ch,0x64(%eax)
    8c0e:	72 5f                	jb     8c6f <write_blocks.part.3+0x800>
    8c10:	62 6c 6f 63          	bound  %ebp,0x63(%edi,%ebp,2)
    8c14:	6b 73 3d 25          	imul   $0x25,0x3d(%ebx),%esi
    8c18:	6c                   	insb   (%dx),%es:(%edi)
    8c19:	6c                   	insb   (%dx),%es:(%edi)
    8c1a:	75 20                	jne    8c3c <write_blocks.part.3+0x7cd>
    8c1c:	70 6b                	jo     8c89 <write_blocks.part.3+0x81a>
    8c1e:	69 6e 64 3d 25 64 00 	imul   $0x64253d,0x64(%esi),%ebp
    8c25:	00 00                	add    %al,(%eax)
    8c27:	00 45 72             	add    %al,0x72(%ebp)
    8c2a:	72 6f                	jb     8c9b <write_blocks.part.3+0x82c>
    8c2c:	72 20                	jb     8c4e <write_blocks.part.3+0x7df>
    8c2e:	75 70                	jne    8ca0 <write_blocks.part.3+0x831>
    8c30:	64 61                	fs popa 
    8c32:	74 69                	je     8c9d <write_blocks.part.3+0x82e>
    8c34:	6e                   	outsb  %ds:(%esi),(%dx)
    8c35:	67 20 70 61          	and    %dh,0x61(%bx,%si)
    8c39:	72 74                	jb     8caf <write_blocks.part.3+0x840>
    8c3b:	69 74 69 6f 6e 20 69 	imul   $0x6e69206e,0x6f(%ecx,%ebp,2),%esi
    8c42:	6e 
    8c43:	64 69 63 65 73 00 00 	imul   $0x73,%fs:0x65(%ebx),%esp
    8c4a:	00 
    8c4b:	00 43 61             	add    %al,0x61(%ebx)
    8c4e:	6e                   	outsb  %ds:(%esi),(%dx)
    8c4f:	6e                   	outsb  %ds:(%esi),(%dx)
    8c50:	6f                   	outsl  %ds:(%esi),(%dx)
    8c51:	74 20                	je     8c73 <write_blocks.part.3+0x804>
    8c53:	72 6f                	jb     8cc4 <write_blocks.part.3+0x855>
    8c55:	6c                   	insb   (%dx),%es:(%edi)
    8c56:	6c                   	insb   (%dx),%es:(%edi)
    8c57:	20 62 61             	and    %ah,0x61(%edx)
    8c5a:	63 6b 20             	arpl   %bp,0x20(%ebx)
    8c5d:	70 61                	jo     8cc0 <write_blocks.part.3+0x851>
    8c5f:	72 74                	jb     8cd5 <write_blocks.part.3+0x866>
    8c61:	69 74 69 6f 6e 20 63 	imul   $0x7263206e,0x6f(%ecx,%ebp,2),%esi
    8c68:	72 
    8c69:	65 61                	gs popa 
    8c6b:	74 69                	je     8cd6 <write_blocks.part.3+0x867>
    8c6d:	6f                   	outsl  %ds:(%esi),(%dx)
    8c6e:	6e                   	outsb  %ds:(%esi),(%dx)
    8c6f:	2e 00 00             	add    %al,%cs:(%eax)
    8c72:	00 00                	add    %al,(%eax)
    8c74:	46                   	inc    %esi
    8c75:	61                   	popa   
    8c76:	69 6c 65 64 20 77 68 	imul   $0x69687720,0x64(%ebp,%eiz,2),%ebp
    8c7d:	69 
    8c7e:	6c                   	insb   (%dx),%es:(%edi)
    8c7f:	65 20 63 72          	and    %ah,%gs:0x72(%ebx)
    8c83:	65 61                	gs popa 
    8c85:	74 69                	je     8cf0 <write_blocks.part.3+0x881>
    8c87:	6e                   	outsb  %ds:(%esi),(%dx)
    8c88:	67 20 70 61          	and    %dh,0x61(%bx,%si)
    8c8c:	72 74                	jb     8d02 <write_blocks.part.3+0x893>
    8c8e:	69 74 69 6f 6e 2e 00 	imul   $0x2e6e,0x6f(%ecx,%ebp,2),%esi
    8c95:	00 
    8c96:	00 00                	add    %al,(%eax)
    8c98:	76 62                	jbe    8cfc <write_blocks.part.3+0x88d>
    8c9a:	64 5f                	fs pop %edi
    8c9c:	62 64 5f 63          	bound  %esp,0x63(%edi,%ebx,2)
    8ca0:	6f                   	outsl  %ds:(%esi),(%dx)
    8ca1:	6e                   	outsb  %ds:(%esi),(%dx)
    8ca2:	6e                   	outsb  %ds:(%esi),(%dx)
    8ca3:	28 29                	sub    %ch,(%ecx)
    8ca5:	20 2d 20 70 61 72    	and    %ch,0x72617020
    8cab:	74 69                	je     8d16 <write_blocks.part.3+0x8a7>
    8cad:	74 69                	je     8d18 <write_blocks.part.3+0x8a9>
    8caf:	6f                   	outsl  %ds:(%esi),(%dx)
    8cb0:	6e                   	outsb  %ds:(%esi),(%dx)
    8cb1:	20 6e 6f             	and    %ch,0x6f(%esi)
    8cb4:	74 20                	je     8cd6 <write_blocks.part.3+0x867>
    8cb6:	66 6f                	outsw  %ds:(%esi),(%dx)
    8cb8:	75 6e                	jne    8d28 <write_blocks.part.3+0x8b9>
    8cba:	64 2e 00 76 62       	fs add %dh,%cs:0x62(%esi)
    8cbf:	64 73 5f             	fs jae 8d21 <write_blocks.part.3+0x8b2>
    8cc2:	63 6c 69 65          	arpl   %bp,0x65(%ecx,%ebp,2)
    8cc6:	6e                   	outsb  %ds:(%esi),(%dx)
    8cc7:	74 5f                	je     8d28 <write_blocks.part.3+0x8b9>
    8cc9:	63 6f 6e             	arpl   %bp,0x6e(%edi)
    8ccc:	6e                   	outsb  %ds:(%esi),(%dx)
    8ccd:	28 29                	sub    %ch,(%ecx)
    8ccf:	00 76 62             	add    %dh,0x62(%esi)
    8cd2:	64 73 5f             	fs jae 8d34 <write_blocks.part.3+0x8c5>
    8cd5:	64 69 73 6b 5f 69 6e 	imul   $0x666e695f,%fs:0x6b(%ebx),%esi
    8cdc:	66 
    8cdd:	6f                   	outsl  %ds:(%esi),(%dx)
    8cde:	5f                   	pop    %edi
    8cdf:	73 72                	jae    8d53 <write_blocks.part.3+0x8e4>
    8ce1:	76 28                	jbe    8d0b <write_blocks.part.3+0x89c>
    8ce3:	29 00                	sub    %eax,(%eax)
    8ce5:	76 62                	jbe    8d49 <write_blocks.part.3+0x8da>
    8ce7:	64 73 5f             	fs jae 8d49 <write_blocks.part.3+0x8da>
    8cea:	6c                   	insb   (%dx),%es:(%edi)
    8ceb:	61                   	popa   
    8cec:	62 65 6c             	bound  %esp,0x6c(%ebp)
    8cef:	5f                   	pop    %edi
    8cf0:	63 72 65             	arpl   %si,0x65(%edx)
    8cf3:	61                   	popa   
    8cf4:	74 65                	je     8d5b <write_blocks.part.3+0x8ec>
    8cf6:	5f                   	pop    %edi
    8cf7:	73 72                	jae    8d6b <write_blocks.part.3+0x8fc>
    8cf9:	76 28                	jbe    8d23 <write_blocks.part.3+0x8b4>
    8cfb:	29 00                	sub    %eax,(%eax)
    8cfd:	76 62                	jbe    8d61 <write_blocks.part.3+0x8f2>
    8cff:	64 73 5f             	fs jae 8d61 <write_blocks.part.3+0x8f2>
    8d02:	6c                   	insb   (%dx),%es:(%edi)
    8d03:	61                   	popa   
    8d04:	62 65 6c             	bound  %esp,0x6c(%ebp)
    8d07:	5f                   	pop    %edi
    8d08:	64 65 6c             	fs gs insb (%dx),%es:(%edi)
    8d0b:	65 74 65             	gs je  8d73 <write_blocks.part.3+0x904>
    8d0e:	5f                   	pop    %edi
    8d0f:	73 72                	jae    8d83 <write_blocks.part.3+0x914>
    8d11:	76 28                	jbe    8d3b <write_blocks.part.3+0x8cc>
    8d13:	29 00                	sub    %eax,(%eax)
    8d15:	76 62                	jbe    8d79 <write_blocks.part.3+0x90a>
    8d17:	64 73 5f             	fs jae 8d79 <write_blocks.part.3+0x90a>
    8d1a:	6c                   	insb   (%dx),%es:(%edi)
    8d1b:	61                   	popa   
    8d1c:	62 65 6c             	bound  %esp,0x6c(%ebp)
    8d1f:	5f                   	pop    %edi
    8d20:	67 65 74 5f          	addr16 gs je 8d83 <write_blocks.part.3+0x914>
    8d24:	70 61                	jo     8d87 <write_blocks.part.3+0x918>
    8d26:	72 74                	jb     8d9c <write_blocks.part.3+0x92d>
    8d28:	73 5f                	jae    8d89 <write_blocks.part.3+0x91a>
    8d2a:	73 72                	jae    8d9e <write_blocks.part.3+0x92f>
    8d2c:	76 28                	jbe    8d56 <write_blocks.part.3+0x8e7>
    8d2e:	29 00                	sub    %eax,(%eax)
    8d30:	76 62                	jbe    8d94 <write_blocks.part.3+0x925>
    8d32:	64 73 5f             	fs jae 8d94 <write_blocks.part.3+0x925>
    8d35:	70 61                	jo     8d98 <write_blocks.part.3+0x929>
    8d37:	72 74                	jb     8dad <write_blocks.part.3+0x93e>
    8d39:	5f                   	pop    %edi
    8d3a:	67 65 74 5f          	addr16 gs je 8d9d <write_blocks.part.3+0x92e>
    8d3e:	69 6e 66 6f 5f 73 72 	imul   $0x72735f6f,0x66(%esi),%ebp
    8d45:	76 28                	jbe    8d6f <write_blocks.part.3+0x900>
    8d47:	29 00                	sub    %eax,(%eax)
    8d49:	76 62                	jbe    8dad <write_blocks.part.3+0x93e>
    8d4b:	64 73 5f             	fs jae 8dad <write_blocks.part.3+0x93e>
    8d4e:	70 61                	jo     8db1 <write_blocks.part.3+0x942>
    8d50:	72 74                	jb     8dc6 <write_blocks.part.3+0x957>
    8d52:	5f                   	pop    %edi
    8d53:	63 72 65             	arpl   %si,0x65(%edx)
    8d56:	61                   	popa   
    8d57:	74 65                	je     8dbe <write_blocks.part.3+0x94f>
    8d59:	5f                   	pop    %edi
    8d5a:	73 72                	jae    8dce <write_blocks.part.3+0x95f>
    8d5c:	76 28                	jbe    8d86 <write_blocks.part.3+0x917>
    8d5e:	29 00                	sub    %eax,(%eax)
    8d60:	76 62                	jbe    8dc4 <write_blocks.part.3+0x955>
    8d62:	64 73 5f             	fs jae 8dc4 <write_blocks.part.3+0x955>
    8d65:	70 61                	jo     8dc8 <write_blocks.part.3+0x959>
    8d67:	72 74                	jb     8ddd <write_blocks.part.3+0x96e>
    8d69:	5f                   	pop    %edi
    8d6a:	64 65 6c             	fs gs insb (%dx),%es:(%edi)
    8d6d:	65 74 65             	gs je  8dd5 <write_blocks.part.3+0x966>
    8d70:	5f                   	pop    %edi
    8d71:	73 72                	jae    8de5 <write_blocks.part.3+0x976>
    8d73:	76 28                	jbe    8d9d <write_blocks.part.3+0x92e>
    8d75:	29 00                	sub    %eax,(%eax)
    8d77:	76 62                	jbe    8ddb <write_blocks.part.3+0x96c>
    8d79:	64 73 5f             	fs jae 8ddb <write_blocks.part.3+0x96c>
    8d7c:	73 75                	jae    8df3 <write_blocks.part.3+0x984>
    8d7e:	67 67 65 73 74       	addr16 addr16 gs jae 8df7 <write_blocks.part.3+0x988>
    8d83:	5f                   	pop    %edi
    8d84:	70 74                	jo     8dfa <write_blocks.part.3+0x98b>
    8d86:	79 70                	jns    8df8 <write_blocks.part.3+0x989>
    8d88:	65 5f                	gs pop %edi
    8d8a:	73 72                	jae    8dfe <write_blocks.part.3+0x98f>
    8d8c:	76 28                	jbe    8db6 <write_blocks.part.3+0x947>
    8d8e:	29 00                	sub    %eax,(%eax)
    8d90:	76 62                	jbe    8df4 <write_blocks.part.3+0x985>
    8d92:	64 00 76 62          	add    %dh,%fs:0x62(%esi)
    8d96:	64 73 5f             	fs jae 8df8 <write_blocks.part.3+0x989>
    8d99:	69 6e 69 74 28 29 00 	imul   $0x292874,0x69(%esi),%ebp
    8da0:	76 62                	jbe    8e04 <write_blocks.part.3+0x995>
    8da2:	64 3a 20             	cmp    %fs:(%eax),%ah
    8da5:	41                   	inc    %ecx
    8da6:	63 63 65             	arpl   %sp,0x65(%ebx)
    8da9:	70 74                	jo     8e1f <write_blocks.part.3+0x9b0>
    8dab:	69 6e 67 20 63 6f 6e 	imul   $0x6e6f6320,0x67(%esi),%ebp
    8db2:	6e                   	outsb  %ds:(%esi),(%dx)
    8db3:	65 63 74 69 6f       	arpl   %si,%gs:0x6f(%ecx,%ebp,2)
    8db8:	6e                   	outsb  %ds:(%esi),(%dx)
    8db9:	73 2e                	jae    8de9 <write_blocks.part.3+0x97a>
    8dbb:	0a 00                	or     (%eax),%al
    8dbd:	66 90                	xchg   %ax,%ax
    8dbf:	90                   	nop
    8dc0:	50                   	push   %eax
    8dc1:	32 00                	xor    (%eax),%al
    8dc3:	00 58 33             	add    %bl,0x33(%eax)
    8dc6:	00 00                	add    %al,(%eax)
    8dc8:	30 33                	xor    %dh,(%ebx)
    8dca:	00 00                	add    %al,(%eax)
    8dcc:	d0                   	(bad)  
    8dcd:	33 00                	xor    (%eax),%eax
    8dcf:	00 c0                	add    %al,%al
    8dd1:	31 00                	xor    %eax,(%eax)
    8dd3:	00 68 31             	add    %ch,0x31(%eax)
    8dd6:	00 00                	add    %al,(%eax)
    8dd8:	10 31                	adc    %dh,(%ecx)
    8dda:	00 00                	add    %al,(%eax)
    8ddc:	e8 30 00 00 d8       	call   d8008e11 <ctl_sid+0xd7ffd8ad>
    8de1:	32 00                	xor    (%eax),%al
    8de3:	00 25 73 3a 20 56    	add    %ah,0x56203a73
    8de9:	69 72 74 75 61 6c 20 	imul   $0x206c6175,0x74(%edx),%esi
    8df0:	42                   	inc    %edx
    8df1:	6c                   	insb   (%dx),%es:(%edi)
    8df2:	6f                   	outsl  %ds:(%esi),(%dx)
    8df3:	63 6b 20             	arpl   %bp,0x20(%ebx)
    8df6:	44                   	inc    %esp
    8df7:	65 76 69             	gs jbe 8e63 <write_blocks.part.3+0x9f4>
    8dfa:	63 65 20             	arpl   %sp,0x20(%ebp)
    8dfd:	73 65                	jae    8e64 <write_blocks.part.3+0x9f5>
    8dff:	72 76                	jb     8e77 <write_blocks.part.3+0xa08>
    8e01:	69 63 65 0a 00 00 00 	imul   $0xa,0x65(%ebx),%esp
    8e08:	76 62                	jbe    8e6c <write_blocks.part.3+0x9fd>
    8e0a:	64 3a 20             	cmp    %fs:(%eax),%ah
    8e0d:	46                   	inc    %esi
    8e0e:	61                   	popa   
    8e0f:	69 6c 65 64 20 74 6f 	imul   $0x206f7420,0x64(%ebp,%eiz,2),%ebp
    8e16:	20 
    8e17:	69 6e 69 74 69 61 6c 	imul   $0x6c616974,0x69(%esi),%ebp
    8e1e:	69 7a 65 20 6c 6f 67 	imul   $0x676f6c20,0x65(%edx),%edi
    8e25:	67 69 6e 67 2e 0a 00 	imul   $0x46000a2e,0x67(%bp),%ebp
    8e2c:	46 
    8e2d:	61                   	popa   
    8e2e:	69 6c 65 64 20 72 65 	imul   $0x67657220,0x64(%ebp,%eiz,2),%ebp
    8e35:	67 
    8e36:	69 73 74 65 72 69 6e 	imul   $0x6e697265,0x74(%ebx),%esi
    8e3d:	67 20 73 65          	and    %dh,0x65(%bp,%di)
    8e41:	72 76                	jb     8eb9 <write_blocks.part.3+0xa4a>
    8e43:	65 72 20             	gs jb  8e66 <write_blocks.part.3+0x9f7>
    8e46:	28 25 64 29 2e 00    	sub    %ah,0x2e2964
    8e4c:	46                   	inc    %esi
    8e4d:	61                   	popa   
    8e4e:	69 6c 65 64 20 72 65 	imul   $0x67657220,0x64(%ebp,%eiz,2),%ebp
    8e55:	67 
    8e56:	69 73 74 65 72 69 6e 	imul   $0x6e697265,0x74(%ebx),%esi
    8e5d:	67 20 73 65          	and    %dh,0x65(%bp,%di)
    8e61:	72 76                	jb     8ed9 <write_blocks.part.3+0xa6a>
    8e63:	69 63 65 20 28 25 64 	imul   $0x64252820,0x65(%ebx),%esp
    8e6a:	29 2e                	sub    %ebp,(%esi)
    8e6c:	00 66 90             	add    %ah,-0x70(%esi)
    8e6f:	90                   	nop
    8e70:	b0 3b                	mov    $0x3b,%al
    8e72:	00 00                	add    %al,(%eax)
    8e74:	b8 3b 00 00 c0       	mov    $0xc000003b,%eax
    8e79:	3b 00                	cmp    (%eax),%eax
    8e7b:	00 a0 3b 00 00 a8    	add    %ah,-0x57ffffc5(%eax)
    8e81:	3b 00                	cmp    (%eax),%eax
    8e83:	00 2e                	add    %ch,(%esi)
    8e85:	2e 2f                	cs das 
    8e87:	2e 2e 2f             	cs cs das 
    8e8a:	6c                   	insb   (%dx),%es:(%edi)
    8e8b:	69 62 2f 63 2f 69 6e 	imul   $0x6e692f63,0x2f(%edx),%esp
    8e92:	63 6c 75 64          	arpl   %bp,0x64(%ebp,%esi,2)
    8e96:	65 2f                	gs das 
    8e98:	61                   	popa   
    8e99:	64 74 2f             	fs je  8ecb <write_blocks.part.3+0xa5c>
    8e9c:	6c                   	insb   (%dx),%es:(%edi)
    8e9d:	69 73 74 2e 68 00 00 	imul   $0x682e,0x74(%ebx),%esi
    8ea4:	6c                   	insb   (%dx),%es:(%edi)
    8ea5:	69 6e 6b 2d 3e 70 72 	imul   $0x72703e2d,0x6b(%esi),%ebp
    8eac:	65 76 20             	gs jbe 8ecf <write_blocks.part.3+0xa60>
    8eaf:	21 3d 20 4e 55 4c    	and    %edi,0x4c554e20
    8eb5:	4c                   	dec    %esp
    8eb6:	20 26                	and    %ah,(%esi)
    8eb8:	26 20 6c 69 6e       	and    %ch,%es:0x6e(%ecx,%ebp,2)
    8ebd:	6b 2d 3e 6e 65 78 74 	imul   $0x74,0x78656e3e,%ebp
    8ec4:	20 21                	and    %ah,(%ecx)
    8ec6:	3d 20 4e 55 4c       	cmp    $0x4c554e20,%eax
    8ecb:	4c                   	dec    %esp
    8ecc:	00 00                	add    %al,(%eax)
    8ece:	00 00                	add    %al,(%eax)
    8ed0:	70 61                	jo     8f33 <write_blocks.part.3+0xac4>
    8ed2:	72 74                	jb     8f48 <write_blocks.part.3+0xad9>
    8ed4:	2d 3e 68 64 72       	sub    $0x7264683e,%eax
    8ed9:	5f                   	pop    %edi
    8eda:	62 6c 6f 63          	bound  %ebp,0x63(%edi,%ebp,2)
    8ede:	6b 73 20 3c          	imul   $0x3c,0x20(%ebx),%esi
    8ee2:	3d 20 70 61 72       	cmp    $0x72617020,%eax
    8ee7:	74 2d                	je     8f16 <write_blocks.part.3+0xaa7>
    8ee9:	3e 62 6c 6f 63       	bound  %ebp,%ds:0x63(%edi,%ebp,2)
    8eee:	6b 30 20             	imul   $0x20,(%eax),%esi
    8ef1:	2d 20 65 70 5f       	sub    $0x5f706520,%eax
    8ef6:	62 30                	bound  %esi,(%eax)
    8ef8:	00 73 72             	add    %dh,0x72(%ebx)
    8efb:	63 2f                	arpl   %bp,(%edi)
    8efd:	6d                   	insl   (%dx),%es:(%edi)
    8efe:	62 72 2e             	bound  %esi,0x2e(%edx)
    8f01:	63 00                	arpl   %ax,(%eax)
    8f03:	70 61                	jo     8f66 <write_blocks.part.3+0xaf7>
    8f05:	72 74                	jb     8f7b <write_blocks.part.3+0xb0c>
    8f07:	2d 3e 62 6c 6f       	sub    $0x6f6c623e,%eax
    8f0c:	63 6b 30             	arpl   %bp,0x30(%ebx)
    8f0f:	20 3e                	and    %bh,(%esi)
    8f11:	3d 20 65 70 5f       	cmp    $0x5f706520,%eax
    8f16:	62 30                	bound  %esi,(%eax)
    8f18:	00 6c 69 6e          	add    %ch,0x6e(%ecx,%ebp,2)
    8f1c:	6b 5f 75 73          	imul   $0x73,0x75(%edi),%ebx
    8f20:	65 64 28 26          	gs sub %ah,%fs:(%esi)
    8f24:	70 61                	jo     8f87 <write_blocks.part.3+0xb18>
    8f26:	72 74                	jb     8f9c <write_blocks.part.3+0xb2d>
    8f28:	2d 3e 6c 6c 6f       	sub    $0x6f6c6c3e,%eax
    8f2d:	67 29 00             	sub    %eax,(%bx,%si)
    8f30:	73 72                	jae    8fa4 <write_blocks.part.3+0xb35>
    8f32:	63 2f                	arpl   %bp,(%edi)
    8f34:	67 70 74             	addr16 jo 8fab <write_blocks.part.3+0xb3c>
    8f37:	2e 63 00             	arpl   %ax,%cs:(%eax)
    8f3a:	72 63                	jb     8f9f <write_blocks.part.3+0xb30>
    8f3c:	20 3d 3d 20 45 4f    	and    %bh,0x4f45203d
    8f42:	4b                   	dec    %ebx
    8f43:	00 45 42             	add    %al,0x42(%ebp)
    8f46:	44                   	inc    %esp
    8f47:	30 41 30             	xor    %al,0x30(%ecx)
    8f4a:	41                   	inc    %ecx
    8f4b:	32 2d 42 39 45 35    	xor    0x35453942,%ch
    8f51:	2d 34 34 33 33       	sub    $0x33333434,%eax
    8f56:	2d 38 37 43 30       	sub    $0x30433738,%eax
    8f5b:	2d 36 38 42 36       	sub    $0x36423836,%eax
    8f60:	42                   	inc    %edx
    8f61:	37                   	aaa    
    8f62:	32 36                	xor    (%esi),%dh
    8f64:	39 39                	cmp    %edi,(%ecx)
    8f66:	43                   	inc    %ebx
    8f67:	37                   	aaa    
    8f68:	00 00                	add    %al,(%eax)
    8f6a:	00 00                	add    %al,(%eax)
    8f6c:	30 46 43             	xor    %al,0x43(%esi)
    8f6f:	36 33 44 41 46       	xor    %ss:0x46(%ecx,%eax,2),%eax
    8f74:	2d 38 34 38 33       	sub    $0x33383438,%eax
    8f79:	2d 34 37 37 32       	sub    $0x32373734,%eax
    8f7e:	2d 38 45 37 39       	sub    $0x39374538,%eax
    8f83:	2d 33 44 36 39       	sub    $0x39364433,%eax
    8f88:	44                   	inc    %esp
    8f89:	38 34 37             	cmp    %dh,(%edi,%esi,1)
    8f8c:	37                   	aaa    
    8f8d:	44                   	inc    %esp
    8f8e:	45                   	inc    %ebp
    8f8f:	34 00                	xor    $0x0,%al
    8f91:	00 00                	add    %al,(%eax)
    8f93:	00 38                	add    %bh,(%eax)
    8f95:	33 30                	xor    (%eax),%esi
    8f97:	38 65 33             	cmp    %ah,0x33(%ebp)
    8f9a:	35 30 2d 34 65       	xor    $0x65342d30,%eax
    8f9f:	32 64 2d 34          	xor    0x34(%ebp,%ebp,1),%ah
    8fa3:	36 63 37             	arpl   %si,%ss:(%edi)
    8fa6:	2d 38 65 33 62       	sub    $0x62336538,%eax
    8fab:	2d 32 34 62 30       	sub    $0x30623432,%eax
    8fb0:	37                   	aaa    
    8fb1:	65 38 61 63          	cmp    %ah,%gs:0x63(%ecx)
    8fb5:	36 37                	ss aaa 
    8fb7:	34 00                	xor    $0x0,%al
    8fb9:	66 90                	xchg   %ax,%ax
    8fbb:	90                   	nop

00008fbc <CSWTCH.28>:
    8fbc:	44 8f 00 00 6c 8f 00 00 44 8f 00 00 44 8f 00 00     D...l...D...D...
    8fcc:	94 8f 00 00                                         ....

00008fd0 <efi_signature>:
    8fd0:	45 46 49 20 50 41 52 54 62 6c 6f 63 6b 2e 63 00     EFI PARTblock.c.
    8fe0:	64 65 76 63 6f 6e 00 64 65 76 63 6f 6e 2d 3e 63     devcon.devcon->c
    8ff0:	61 63 68 65 00 62 6c 6f 63 6b 2d 3e 72 65 66 63     ache.block->refc
    9000:	6e 74 20 3e 3d 20 31 00 64 65 76 63 6f 6e 2d 3e     nt >= 1.devcon->
    9010:	63 61 63 68 65 20 21 3d 20 4e 55 4c 4c 00 62 2d     cache != NULL.b-
    9020:	3e 74 6f 78 69 63 00 90 45 72 72 6f 72 20 25 64     >toxic..Error %d
    9030:	20 72 65 61 64 69 6e 67 20 25 7a 75 20 62 6c 6f      reading %zu blo
    9040:	63 6b 73 20 73 74 61 72 74 69 6e 67 20 61 74 20     cks starting at 
    9050:	62 6c 6f 63 6b 20 25 6c 6c 75 20 66 72 6f 6d 20     block %llu from 
    9060:	64 65 76 69 63 65 20 68 61 6e 64 6c 65 20 25 75     device handle %u
    9070:	0a 00 00 00 45 72 72 6f 72 20 25 64 20 77 72 69     ....Error %d wri
    9080:	74 69 6e 67 20 25 7a 75 20 62 6c 6f 63 6b 73 20     ting %zu blocks 
    9090:	73 74 61 72 74 69 6e 67 20 61 74 20 62 6c 6f 63     starting at bloc
    90a0:	6b 20 25 6c 6c 75 20 74 6f 20 64 65 76 69 63 65     k %llu to device
    90b0:	20 68 61 6e 64 6c 65 20 25 75 0a 00 54 6f 6f 20      handle %u..Too 
    90c0:	6d 61 6e 79 20 65 72 72 6f 72 73 20 77 72 69 74     many errors writ
    90d0:	69 6e 67 20 62 6c 6f 63 6b 20 25 6c 6c 75 66 72     ing block %llufr
    90e0:	6f 6d 20 64 65 76 69 63 65 20 68 61 6e 64 6c 65     om device handle
    90f0:	20 25 75 0a 53 45 56 45 52 45 20 44 41 54 41 20      %u.SEVERE DATA 
    9100:	4c 4f 53 53 20 50 4f 53 53 49 42 4c 45 0a 00 00     LOSS POSSIBLE...

Disassembly of section .plt:

00009330 <__main@plt-0x10>:
    9330:	ff 35 1c b4 00 00    	pushl  0xb41c
    9336:	ff 25 20 b4 00 00    	jmp    *0xb420
    933c:	00 00                	add    %al,(%eax)
	...

00009340 <__main@plt>:
    9340:	ff 25 24 b4 00 00    	jmp    *0xb424
    9346:	68 00 00 00 00       	push   $0x0
    934b:	e9 e0 ff ff ff       	jmp    9330 <efi_signature+0x360>

00009350 <loc_category_get_id@plt>:
    9350:	ff 25 28 b4 00 00    	jmp    *0xb428
    9356:	68 08 00 00 00       	push   $0x8
    935b:	e9 d0 ff ff ff       	jmp    9330 <efi_signature+0x360>

00009360 <task_retval@plt>:
    9360:	ff 25 2c b4 00 00    	jmp    *0xb42c
    9366:	68 10 00 00 00       	push   $0x10
    936b:	e9 c0 ff ff ff       	jmp    9330 <efi_signature+0x360>

00009370 <loc_service_connect@plt>:
    9370:	ff 25 30 b4 00 00    	jmp    *0xb430
    9376:	68 18 00 00 00       	push   $0x18
    937b:	e9 b0 ff ff ff       	jmp    9330 <efi_signature+0x360>

00009380 <printf@plt>:
    9380:	ff 25 34 b4 00 00    	jmp    *0xb434
    9386:	68 20 00 00 00       	push   $0x20
    938b:	e9 a0 ff ff ff       	jmp    9330 <efi_signature+0x360>

00009390 <async_hangup@plt>:
    9390:	ff 25 38 b4 00 00    	jmp    *0xb438
    9396:	68 28 00 00 00       	push   $0x28
    939b:	e9 90 ff ff ff       	jmp    9330 <efi_signature+0x360>

000093a0 <fibril_rwlock_read_unlock@plt>:
    93a0:	ff 25 3c b4 00 00    	jmp    *0xb43c
    93a6:	68 30 00 00 00       	push   $0x30
    93ab:	e9 80 ff ff ff       	jmp    9330 <efi_signature+0x360>

000093b0 <hash_table_create@plt>:
    93b0:	ff 25 40 b4 00 00    	jmp    *0xb440
    93b6:	68 38 00 00 00       	push   $0x38
    93bb:	e9 70 ff ff ff       	jmp    9330 <efi_signature+0x360>

000093c0 <log_init@plt>:
    93c0:	ff 25 44 b4 00 00    	jmp    *0xb444
    93c6:	68 40 00 00 00       	push   $0x40
    93cb:	e9 60 ff ff ff       	jmp    9330 <efi_signature+0x360>

000093d0 <hash_table_insert@plt>:
    93d0:	ff 25 48 b4 00 00    	jmp    *0xb448
    93d6:	68 48 00 00 00       	push   $0x48
    93db:	e9 50 ff ff ff       	jmp    9330 <efi_signature+0x360>

000093e0 <loc_service_register@plt>:
    93e0:	ff 25 4c b4 00 00    	jmp    *0xb44c
    93e6:	68 50 00 00 00       	push   $0x50
    93eb:	e9 40 ff ff ff       	jmp    9330 <efi_signature+0x360>

000093f0 <bd_write_blocks@plt>:
    93f0:	ff 25 50 b4 00 00    	jmp    *0xb450
    93f6:	68 58 00 00 00       	push   $0x58
    93fb:	e9 30 ff ff ff       	jmp    9330 <efi_signature+0x360>

00009400 <bd_get_num_blocks@plt>:
    9400:	ff 25 54 b4 00 00    	jmp    *0xb454
    9406:	68 60 00 00 00       	push   $0x60
    940b:	e9 20 ff ff ff       	jmp    9330 <efi_signature+0x360>

00009410 <async_data_read_finalize@plt>:
    9410:	ff 25 58 b4 00 00    	jmp    *0xb458
    9416:	68 68 00 00 00       	push   $0x68
    941b:	e9 10 ff ff ff       	jmp    9330 <efi_signature+0x360>

00009420 <bd_close@plt>:
    9420:	ff 25 5c b4 00 00    	jmp    *0xb45c
    9426:	68 70 00 00 00       	push   $0x70
    942b:	e9 00 ff ff ff       	jmp    9330 <efi_signature+0x360>

00009430 <memcpy@plt>:
    9430:	ff 25 60 b4 00 00    	jmp    *0xb460
    9436:	68 78 00 00 00       	push   $0x78
    943b:	e9 f0 fe ff ff       	jmp    9330 <efi_signature+0x360>

00009440 <malloc@plt>:
    9440:	ff 25 64 b4 00 00    	jmp    *0xb464
    9446:	68 80 00 00 00       	push   $0x80
    944b:	e9 e0 fe ff ff       	jmp    9330 <efi_signature+0x360>

00009450 <bd_open@plt>:
    9450:	ff 25 68 b4 00 00    	jmp    *0xb468
    9456:	68 88 00 00 00       	push   $0x88
    945b:	e9 d0 fe ff ff       	jmp    9330 <efi_signature+0x360>

00009460 <async_answer_0@plt>:
    9460:	ff 25 6c b4 00 00    	jmp    *0xb46c
    9466:	68 90 00 00 00       	push   $0x90
    946b:	e9 c0 fe ff ff       	jmp    9330 <efi_signature+0x360>

00009470 <bd_conn@plt>:
    9470:	ff 25 70 b4 00 00    	jmp    *0xb470
    9476:	68 98 00 00 00       	push   $0x98
    947b:	e9 b0 fe ff ff       	jmp    9330 <efi_signature+0x360>

00009480 <log_msg@plt>:
    9480:	ff 25 74 b4 00 00    	jmp    *0xb474
    9486:	68 a0 00 00 00       	push   $0xa0
    948b:	e9 a0 fe ff ff       	jmp    9330 <efi_signature+0x360>

00009490 <stacktrace_print@plt>:
    9490:	ff 25 78 b4 00 00    	jmp    *0xb478
    9496:	68 a8 00 00 00       	push   $0xa8
    949b:	e9 90 fe ff ff       	jmp    9330 <efi_signature+0x360>

000094a0 <__umoddi3@plt>:
    94a0:	ff 25 7c b4 00 00    	jmp    *0xb47c
    94a6:	68 b0 00 00 00       	push   $0xb0
    94ab:	e9 80 fe ff ff       	jmp    9330 <efi_signature+0x360>

000094b0 <uuid_encode@plt>:
    94b0:	ff 25 80 b4 00 00    	jmp    *0xb480
    94b6:	68 b8 00 00 00       	push   $0xb8
    94bb:	e9 70 fe ff ff       	jmp    9330 <efi_signature+0x360>

000094c0 <__udivdi3@plt>:
    94c0:	ff 25 84 b4 00 00    	jmp    *0xb484
    94c6:	68 c0 00 00 00       	push   $0xc0
    94cb:	e9 60 fe ff ff       	jmp    9330 <efi_signature+0x360>

000094d0 <bd_read_blocks@plt>:
    94d0:	ff 25 88 b4 00 00    	jmp    *0xb488
    94d6:	68 c8 00 00 00       	push   $0xc8
    94db:	e9 50 fe ff ff       	jmp    9330 <efi_signature+0x360>

000094e0 <fibril_mutex_trylock@plt>:
    94e0:	ff 25 8c b4 00 00    	jmp    *0xb48c
    94e6:	68 d0 00 00 00       	push   $0xd0
    94eb:	e9 40 fe ff ff       	jmp    9330 <efi_signature+0x360>

000094f0 <loc_service_get_name@plt>:
    94f0:	ff 25 90 b4 00 00    	jmp    *0xb490
    94f6:	68 d8 00 00 00       	push   $0xd8
    94fb:	e9 30 fe ff ff       	jmp    9330 <efi_signature+0x360>

00009500 <assert_abort@plt>:
    9500:	ff 25 94 b4 00 00    	jmp    *0xb494
    9506:	68 e0 00 00 00       	push   $0xe0
    950b:	e9 20 fe ff ff       	jmp    9330 <efi_signature+0x360>

00009510 <calloc@plt>:
    9510:	ff 25 98 b4 00 00    	jmp    *0xb498
    9516:	68 e8 00 00 00       	push   $0xe8
    951b:	e9 10 fe ff ff       	jmp    9330 <efi_signature+0x360>

00009520 <loc_register_cat_change_cb@plt>:
    9520:	ff 25 9c b4 00 00    	jmp    *0xb49c
    9526:	68 f0 00 00 00       	push   $0xf0
    952b:	e9 00 fe ff ff       	jmp    9330 <efi_signature+0x360>

00009530 <uuid_generate@plt>:
    9530:	ff 25 a0 b4 00 00    	jmp    *0xb4a0
    9536:	68 f8 00 00 00       	push   $0xf8
    953b:	e9 f0 fd ff ff       	jmp    9330 <efi_signature+0x360>

00009540 <bd_read_toc@plt>:
    9540:	ff 25 a4 b4 00 00    	jmp    *0xb4a4
    9546:	68 00 01 00 00       	push   $0x100
    954b:	e9 e0 fd ff ff       	jmp    9330 <efi_signature+0x360>

00009550 <bd_srvs_init@plt>:
    9550:	ff 25 a8 b4 00 00    	jmp    *0xb4a8
    9556:	68 08 01 00 00       	push   $0x108
    955b:	e9 d0 fd ff ff       	jmp    9330 <efi_signature+0x360>

00009560 <fibril_mutex_unlock@plt>:
    9560:	ff 25 ac b4 00 00    	jmp    *0xb4ac
    9566:	68 10 01 00 00       	push   $0x110
    956b:	e9 c0 fd ff ff       	jmp    9330 <efi_signature+0x360>

00009570 <loc_service_unregister@plt>:
    9570:	ff 25 b0 b4 00 00    	jmp    *0xb4b0
    9576:	68 18 01 00 00       	push   $0x118
    957b:	e9 b0 fd ff ff       	jmp    9330 <efi_signature+0x360>

00009580 <fibril_mutex_initialize@plt>:
    9580:	ff 25 b4 b4 00 00    	jmp    *0xb4b4
    9586:	68 20 01 00 00       	push   $0x120
    958b:	e9 a0 fd ff ff       	jmp    9330 <efi_signature+0x360>

00009590 <compute_crc32@plt>:
    9590:	ff 25 b8 b4 00 00    	jmp    *0xb4b8
    9596:	68 28 01 00 00       	push   $0x128
    959b:	e9 90 fd ff ff       	jmp    9330 <efi_signature+0x360>

000095a0 <loc_service_add_to_cat@plt>:
    95a0:	ff 25 bc b4 00 00    	jmp    *0xb4bc
    95a6:	68 30 01 00 00       	push   $0x130
    95ab:	e9 80 fd ff ff       	jmp    9330 <efi_signature+0x360>

000095b0 <fibril_rwlock_write_unlock@plt>:
    95b0:	ff 25 c0 b4 00 00    	jmp    *0xb4c0
    95b6:	68 38 01 00 00       	push   $0x138
    95bb:	e9 70 fd ff ff       	jmp    9330 <efi_signature+0x360>

000095c0 <uuid_decode@plt>:
    95c0:	ff 25 c4 b4 00 00    	jmp    *0xb4c4
    95c6:	68 40 01 00 00       	push   $0x140
    95cb:	e9 60 fd ff ff       	jmp    9330 <efi_signature+0x360>

000095d0 <hash_table_remove_item@plt>:
    95d0:	ff 25 c8 b4 00 00    	jmp    *0xb4c8
    95d6:	68 48 01 00 00       	push   $0x148
    95db:	e9 50 fd ff ff       	jmp    9330 <efi_signature+0x360>

000095e0 <memset@plt>:
    95e0:	ff 25 cc b4 00 00    	jmp    *0xb4cc
    95e6:	68 50 01 00 00       	push   $0x150
    95eb:	e9 40 fd ff ff       	jmp    9330 <efi_signature+0x360>

000095f0 <async_data_read_receive@plt>:
    95f0:	ff 25 d0 b4 00 00    	jmp    *0xb4d0
    95f6:	68 58 01 00 00       	push   $0x158
    95fb:	e9 30 fd ff ff       	jmp    9330 <efi_signature+0x360>

00009600 <uuid_parse@plt>:
    9600:	ff 25 d4 b4 00 00    	jmp    *0xb4d4
    9606:	68 60 01 00 00       	push   $0x160
    960b:	e9 20 fd ff ff       	jmp    9330 <efi_signature+0x360>

00009610 <asprintf@plt>:
    9610:	ff 25 d8 b4 00 00    	jmp    *0xb4d8
    9616:	68 68 01 00 00       	push   $0x168
    961b:	e9 10 fd ff ff       	jmp    9330 <efi_signature+0x360>

00009620 <loc_server_register@plt>:
    9620:	ff 25 dc b4 00 00    	jmp    *0xb4dc
    9626:	68 70 01 00 00       	push   $0x170
    962b:	e9 00 fd ff ff       	jmp    9330 <efi_signature+0x360>

00009630 <loc_category_get_svcs@plt>:
    9630:	ff 25 e0 b4 00 00    	jmp    *0xb4e0
    9636:	68 78 01 00 00       	push   $0x178
    963b:	e9 f0 fc ff ff       	jmp    9330 <efi_signature+0x360>

00009640 <bd_get_block_size@plt>:
    9640:	ff 25 e4 b4 00 00    	jmp    *0xb4e4
    9646:	68 80 01 00 00       	push   $0x180
    964b:	e9 e0 fc ff ff       	jmp    9330 <efi_signature+0x360>

00009650 <async_get_call_timeout@plt>:
    9650:	ff 25 e8 b4 00 00    	jmp    *0xb4e8
    9656:	68 88 01 00 00       	push   $0x188
    965b:	e9 d0 fc ff ff       	jmp    9330 <efi_signature+0x360>

00009660 <list_count@plt>:
    9660:	ff 25 ec b4 00 00    	jmp    *0xb4ec
    9666:	68 90 01 00 00       	push   $0x190
    966b:	e9 c0 fc ff ff       	jmp    9330 <efi_signature+0x360>

00009670 <bd_sync_cache@plt>:
    9670:	ff 25 f0 b4 00 00    	jmp    *0xb4f0
    9676:	68 98 01 00 00       	push   $0x198
    967b:	e9 b0 fc ff ff       	jmp    9330 <efi_signature+0x360>

00009680 <async_answer_1@plt>:
    9680:	ff 25 f4 b4 00 00    	jmp    *0xb4f4
    9686:	68 a0 01 00 00       	push   $0x1a0
    968b:	e9 a0 fc ff ff       	jmp    9330 <efi_signature+0x360>

00009690 <hash_table_find@plt>:
    9690:	ff 25 f8 b4 00 00    	jmp    *0xb4f8
    9696:	68 a8 01 00 00       	push   $0x1a8
    969b:	e9 90 fc ff ff       	jmp    9330 <efi_signature+0x360>

000096a0 <fibril_rwlock_write_lock@plt>:
    96a0:	ff 25 fc b4 00 00    	jmp    *0xb4fc
    96a6:	68 b0 01 00 00       	push   $0x1b0
    96ab:	e9 80 fc ff ff       	jmp    9330 <efi_signature+0x360>

000096b0 <async_data_write_finalize@plt>:
    96b0:	ff 25 00 b5 00 00    	jmp    *0xb500
    96b6:	68 b8 01 00 00       	push   $0x1b8
    96bb:	e9 70 fc ff ff       	jmp    9330 <efi_signature+0x360>

000096c0 <fibril_rwlock_initialize@plt>:
    96c0:	ff 25 04 b5 00 00    	jmp    *0xb504
    96c6:	68 c0 01 00 00       	push   $0x1c0
    96cb:	e9 60 fc ff ff       	jmp    9330 <efi_signature+0x360>

000096d0 <fibril_switch@plt>:
    96d0:	ff 25 08 b5 00 00    	jmp    *0xb508
    96d6:	68 c8 01 00 00       	push   $0x1c8
    96db:	e9 50 fc ff ff       	jmp    9330 <efi_signature+0x360>

000096e0 <__syscall_fast@plt>:
    96e0:	ff 25 0c b5 00 00    	jmp    *0xb50c
    96e6:	68 d0 01 00 00       	push   $0x1d0
    96eb:	e9 40 fc ff ff       	jmp    9330 <efi_signature+0x360>

000096f0 <fibril_rwlock_read_lock@plt>:
    96f0:	ff 25 10 b5 00 00    	jmp    *0xb510
    96f6:	68 d8 01 00 00       	push   $0x1d8
    96fb:	e9 30 fc ff ff       	jmp    9330 <efi_signature+0x360>

00009700 <async_set_fallback_port_handler@plt>:
    9700:	ff 25 14 b5 00 00    	jmp    *0xb514
    9706:	68 e0 01 00 00       	push   $0x1e0
    970b:	e9 20 fc ff ff       	jmp    9330 <efi_signature+0x360>

00009710 <hash_table_destroy@plt>:
    9710:	ff 25 18 b5 00 00    	jmp    *0xb518
    9716:	68 e8 01 00 00       	push   $0x1e8
    971b:	e9 10 fc ff ff       	jmp    9330 <efi_signature+0x360>

00009720 <async_data_write_receive@plt>:
    9720:	ff 25 1c b5 00 00    	jmp    *0xb51c
    9726:	68 f0 01 00 00       	push   $0x1f0
    972b:	e9 00 fc ff ff       	jmp    9330 <efi_signature+0x360>

00009730 <free@plt>:
    9730:	ff 25 20 b5 00 00    	jmp    *0xb520
    9736:	68 f8 01 00 00       	push   $0x1f8
    973b:	e9 f0 fb ff ff       	jmp    9330 <efi_signature+0x360>

00009740 <fibril_mutex_lock@plt>:
    9740:	ff 25 24 b5 00 00    	jmp    *0xb524
    9746:	68 00 02 00 00       	push   $0x200
    974b:	e9 e0 fb ff ff       	jmp    9330 <efi_signature+0x360>
