
sb16:     file format elf32-i386


Disassembly of section .init:

000010f4 <__entry>:
    10f4:	66 8c d0             	mov    %ss,%ax
    10f7:	8e d8                	mov    %eax,%ds
    10f9:	8e c0                	mov    %eax,%es
    10fb:	8e e0                	mov    %eax,%fs
    10fd:	b8 01 00 00 00       	mov    $0x1,%eax
    1102:	0f a2                	cpuid  
    1104:	0f ba e2 0b          	bt     $0xb,%edx
    1108:	73 0c                	jae    1116 <__entry+0x22>
    110a:	8d 05 88 1e 01 00    	lea    0x11e88,%eax
    1110:	c7 00 b0 fb 00 00    	movl   $0xfbb0,(%eax)
    1116:	6a 00                	push   $0x0
    1118:	6a 00                	push   $0x0
    111a:	89 e5                	mov    %esp,%ebp
    111c:	57                   	push   %edi
    111d:	e8 6e e5 00 00       	call   f690 <__main@plt>

Disassembly of section .text:

00001140 <sb_dsp_init>:
    1140:	55                   	push   %ebp
    1141:	89 e5                	mov    %esp,%ebp
    1143:	56                   	push   %esi
    1144:	53                   	push   %ebx
    1145:	8b 5d 08             	mov    0x8(%ebp),%ebx
    1148:	8b 45 0c             	mov    0xc(%ebp),%eax
    114b:	85 db                	test   %ebx,%ebx
    114d:	0f 84 fe 01 00 00    	je     1351 <sb_dsp_init+0x211>
    1153:	8b 55 14             	mov    0x14(%ebp),%edx
    1156:	89 03                	mov    %eax,(%ebx)
    1158:	89 53 04             	mov    %edx,0x4(%ebx)
    115b:	8b 55 18             	mov    0x18(%ebp),%edx
    115e:	89 53 08             	mov    %edx,0x8(%ebx)
    1161:	83 c0 06             	add    $0x6,%eax
    1164:	8b 55 10             	mov    0x10(%ebp),%edx
    1167:	c7 43 24 00 00 00 00 	movl   $0x0,0x24(%ebx)
    116e:	89 53 2c             	mov    %edx,0x2c(%ebx)
    1171:	c7 43 28 00 00 00 00 	movl   $0x0,0x28(%ebx)
    1178:	c7 43 20 07 00 00 00 	movl   $0x7,0x20(%ebx)
    117f:	56                   	push   %esi
    1180:	56                   	push   %esi
    1181:	6a 01                	push   $0x1
    1183:	50                   	push   %eax
    1184:	e8 77 e7 00 00       	call   f900 <pio_write_8@plt>
    1189:	c7 04 24 03 00 00 00 	movl   $0x3,(%esp)
    1190:	e8 3b e8 00 00       	call   f9d0 <udelay@plt>
    1195:	58                   	pop    %eax
    1196:	8b 03                	mov    (%ebx),%eax
    1198:	83 c0 06             	add    $0x6,%eax
    119b:	5a                   	pop    %edx
    119c:	6a 00                	push   $0x0
    119e:	50                   	push   %eax
    119f:	e8 5c e7 00 00       	call   f900 <pio_write_8@plt>
    11a4:	c7 04 24 64 00 00 00 	movl   $0x64,(%esp)
    11ab:	e8 20 e8 00 00       	call   f9d0 <udelay@plt>
    11b0:	8b 03                	mov    (%ebx),%eax
    11b2:	83 c0 0e             	add    $0xe,%eax
    11b5:	be 63 00 00 00       	mov    $0x63,%esi
    11ba:	89 04 24             	mov    %eax,(%esp)
    11bd:	e8 be e6 00 00       	call   f880 <pio_read_8@plt>
    11c2:	83 c4 10             	add    $0x10,%esp
    11c5:	eb 19                	jmp    11e0 <sb_dsp_init+0xa0>
    11c7:	90                   	nop
    11c8:	83 ec 0c             	sub    $0xc,%esp
    11cb:	8b 03                	mov    (%ebx),%eax
    11cd:	83 c0 0e             	add    $0xe,%eax
    11d0:	50                   	push   %eax
    11d1:	e8 aa e6 00 00       	call   f880 <pio_read_8@plt>
    11d6:	83 c4 10             	add    $0x10,%esp
    11d9:	4e                   	dec    %esi
    11da:	0f 84 08 01 00 00    	je     12e8 <sb_dsp_init+0x1a8>
    11e0:	84 c0                	test   %al,%al
    11e2:	79 e4                	jns    11c8 <sb_dsp_init+0x88>
    11e4:	83 ec 0c             	sub    $0xc,%esp
    11e7:	8b 03                	mov    (%ebx),%eax
    11e9:	83 c0 0a             	add    $0xa,%eax
    11ec:	50                   	push   %eax
    11ed:	e8 8e e6 00 00       	call   f880 <pio_read_8@plt>
    11f2:	83 c4 10             	add    $0x10,%esp
    11f5:	88 c1                	mov    %al,%cl
    11f7:	3c aa                	cmp    $0xaa,%al
    11f9:	0f 85 36 01 00 00    	jne    1335 <sb_dsp_init+0x1f5>
    11ff:	83 ec 0c             	sub    $0xc,%esp
    1202:	8b 03                	mov    (%ebx),%eax
    1204:	83 c0 0c             	add    $0xc,%eax
    1207:	be 63 00 00 00       	mov    $0x63,%esi
    120c:	50                   	push   %eax
    120d:	e8 6e e6 00 00       	call   f880 <pio_read_8@plt>
    1212:	83 c4 10             	add    $0x10,%esp
    1215:	eb 19                	jmp    1230 <sb_dsp_init+0xf0>
    1217:	90                   	nop
    1218:	83 ec 0c             	sub    $0xc,%esp
    121b:	8b 03                	mov    (%ebx),%eax
    121d:	83 c0 0c             	add    $0xc,%eax
    1220:	50                   	push   %eax
    1221:	e8 5a e6 00 00       	call   f880 <pio_read_8@plt>
    1226:	83 c4 10             	add    $0x10,%esp
    1229:	4e                   	dec    %esi
    122a:	0f 84 dd 00 00 00    	je     130d <sb_dsp_init+0x1cd>
    1230:	84 c0                	test   %al,%al
    1232:	78 e4                	js     1218 <sb_dsp_init+0xd8>
    1234:	52                   	push   %edx
    1235:	52                   	push   %edx
    1236:	8b 03                	mov    (%ebx),%eax
    1238:	68 e1 00 00 00       	push   $0xe1
    123d:	83 c0 0c             	add    $0xc,%eax
    1240:	50                   	push   %eax
    1241:	e8 ba e6 00 00       	call   f900 <pio_write_8@plt>
    1246:	83 c4 10             	add    $0x10,%esp
    1249:	83 ec 0c             	sub    $0xc,%esp
    124c:	8b 03                	mov    (%ebx),%eax
    124e:	83 c0 0e             	add    $0xe,%eax
    1251:	be 63 00 00 00       	mov    $0x63,%esi
    1256:	50                   	push   %eax
    1257:	e8 24 e6 00 00       	call   f880 <pio_read_8@plt>
    125c:	83 c4 10             	add    $0x10,%esp
    125f:	eb 1f                	jmp    1280 <sb_dsp_init+0x140>
    1261:	8d b4 26 00 00 00 00 	lea    0x0(%esi,%eiz,1),%esi
    1268:	83 ec 0c             	sub    $0xc,%esp
    126b:	8b 03                	mov    (%ebx),%eax
    126d:	83 c0 0e             	add    $0xe,%eax
    1270:	50                   	push   %eax
    1271:	e8 0a e6 00 00       	call   f880 <pio_read_8@plt>
    1276:	83 c4 10             	add    $0x10,%esp
    1279:	4e                   	dec    %esi
    127a:	0f 84 9a 00 00 00    	je     131a <sb_dsp_init+0x1da>
    1280:	84 c0                	test   %al,%al
    1282:	79 e4                	jns    1268 <sb_dsp_init+0x128>
    1284:	83 ec 0c             	sub    $0xc,%esp
    1287:	8b 03                	mov    (%ebx),%eax
    1289:	83 c0 0a             	add    $0xa,%eax
    128c:	50                   	push   %eax
    128d:	e8 ee e5 00 00       	call   f880 <pio_read_8@plt>
    1292:	83 c4 10             	add    $0x10,%esp
    1295:	88 43 0c             	mov    %al,0xc(%ebx)
    1298:	83 ec 0c             	sub    $0xc,%esp
    129b:	8b 03                	mov    (%ebx),%eax
    129d:	83 c0 0e             	add    $0xe,%eax
    12a0:	be 63 00 00 00       	mov    $0x63,%esi
    12a5:	50                   	push   %eax
    12a6:	e8 d5 e5 00 00       	call   f880 <pio_read_8@plt>
    12ab:	83 c4 10             	add    $0x10,%esp
    12ae:	eb 14                	jmp    12c4 <sb_dsp_init+0x184>
    12b0:	83 ec 0c             	sub    $0xc,%esp
    12b3:	8b 03                	mov    (%ebx),%eax
    12b5:	83 c0 0e             	add    $0xe,%eax
    12b8:	50                   	push   %eax
    12b9:	e8 c2 e5 00 00       	call   f880 <pio_read_8@plt>
    12be:	83 c4 10             	add    $0x10,%esp
    12c1:	4e                   	dec    %esi
    12c2:	74 64                	je     1328 <sb_dsp_init+0x1e8>
    12c4:	84 c0                	test   %al,%al
    12c6:	79 e8                	jns    12b0 <sb_dsp_init+0x170>
    12c8:	83 ec 0c             	sub    $0xc,%esp
    12cb:	8b 03                	mov    (%ebx),%eax
    12cd:	83 c0 0a             	add    $0xa,%eax
    12d0:	50                   	push   %eax
    12d1:	e8 aa e5 00 00       	call   f880 <pio_read_8@plt>
    12d6:	83 c4 10             	add    $0x10,%esp
    12d9:	88 43 0d             	mov    %al,0xd(%ebx)
    12dc:	31 c0                	xor    %eax,%eax
    12de:	8d 65 f8             	lea    -0x8(%ebp),%esp
    12e1:	5b                   	pop    %ebx
    12e2:	5e                   	pop    %esi
    12e3:	5d                   	pop    %ebp
    12e4:	c3                   	ret    
    12e5:	8d 76 00             	lea    0x0(%esi),%esi
    12e8:	84 c0                	test   %al,%al
    12ea:	0f 88 f4 fe ff ff    	js     11e4 <sb_dsp_init+0xa4>
    12f0:	50                   	push   %eax
    12f1:	50                   	push   %eax
    12f2:	68 7c cd 00 00       	push   $0xcd7c
    12f7:	6a 01                	push   $0x1
    12f9:	e8 32 38 00 00       	call   4b30 <ddf_msg>
    12fe:	83 c4 10             	add    $0x10,%esp
    1301:	8d 65 f8             	lea    -0x8(%ebp),%esp
    1304:	b8 f6 fe ff ff       	mov    $0xfffffef6,%eax
    1309:	5b                   	pop    %ebx
    130a:	5e                   	pop    %esi
    130b:	5d                   	pop    %ebp
    130c:	c3                   	ret    
    130d:	84 c0                	test   %al,%al
    130f:	0f 89 1f ff ff ff    	jns    1234 <sb_dsp_init+0xf4>
    1315:	e9 2f ff ff ff       	jmp    1249 <sb_dsp_init+0x109>
    131a:	84 c0                	test   %al,%al
    131c:	0f 89 76 ff ff ff    	jns    1298 <sb_dsp_init+0x158>
    1322:	e9 5d ff ff ff       	jmp    1284 <sb_dsp_init+0x144>
    1327:	90                   	nop
    1328:	84 c0                	test   %al,%al
    132a:	78 9c                	js     12c8 <sb_dsp_init+0x188>
    132c:	8d 65 f8             	lea    -0x8(%ebp),%esp
    132f:	31 c0                	xor    %eax,%eax
    1331:	5b                   	pop    %ebx
    1332:	5e                   	pop    %esi
    1333:	5d                   	pop    %ebp
    1334:	c3                   	ret    
    1335:	31 c0                	xor    %eax,%eax
    1337:	53                   	push   %ebx
    1338:	88 c8                	mov    %cl,%al
    133a:	50                   	push   %eax
    133b:	68 5c cd 00 00       	push   $0xcd5c
    1340:	6a 01                	push   $0x1
    1342:	e8 e9 37 00 00       	call   4b30 <ddf_msg>
    1347:	83 c4 10             	add    $0x10,%esp
    134a:	b8 f6 fe ff ff       	mov    $0xfffffef6,%eax
    134f:	eb 8d                	jmp    12de <sb_dsp_init+0x19e>
    1351:	51                   	push   %ecx
    1352:	68 d6 00 00 00       	push   $0xd6
    1357:	68 3f ca 00 00       	push   $0xca3f
    135c:	68 45 ca 00 00       	push   $0xca45
    1361:	e8 3a e5 00 00       	call   f8a0 <assert_abort@plt>
    1366:	8d 76 00             	lea    0x0(%esi),%esi
    1369:	8d bc 27 00 00 00 00 	lea    0x0(%edi,%eiz,1),%edi

00001370 <sb_dsp_interrupt>:
    1370:	55                   	push   %ebp
    1371:	89 e5                	mov    %esp,%ebp
    1373:	53                   	push   %ebx
    1374:	53                   	push   %ebx
    1375:	8b 5d 08             	mov    0x8(%ebp),%ebx
    1378:	85 db                	test   %ebx,%ebx
    137a:	0f 84 a5 01 00 00    	je     1525 <sb_dsp_interrupt+0x1b5>
    1380:	31 c0                	xor    %eax,%eax
    1382:	31 c9                	xor    %ecx,%ecx
    1384:	66 8b 43 1a          	mov    0x1a(%ebx),%ax
    1388:	f6 43 18 20          	testb  $0x20,0x18(%ebx)
    138c:	89 c2                	mov    %eax,%edx
    138e:	0f 95 c1             	setne  %cl
    1391:	c1 fa 1f             	sar    $0x1f,%edx
    1394:	41                   	inc    %ecx
    1395:	f7 f9                	idiv   %ecx
    1397:	8b 53 1c             	mov    0x1c(%ebx),%edx
    139a:	01 d0                	add    %edx,%eax
    139c:	8b 53 20             	mov    0x20(%ebx),%edx
    139f:	89 43 1c             	mov    %eax,0x1c(%ebx)
    13a2:	83 fa 05             	cmp    $0x5,%edx
    13a5:	77 09                	ja     13b0 <sb_dsp_interrupt+0x40>
    13a7:	ff 24 95 a0 cf 00 00 	jmp    *0xcfa0(,%edx,4)
    13ae:	66 90                	xchg   %ax,%ax
    13b0:	b8 49 ca 00 00       	mov    $0xca49,%eax
    13b5:	83 fa 07             	cmp    $0x7,%edx
    13b8:	77 07                	ja     13c1 <sb_dsp_interrupt+0x51>
    13ba:	8b 04 95 20 d1 00 00 	mov    0xd120(,%edx,4),%eax
    13c1:	52                   	push   %edx
    13c2:	50                   	push   %eax
    13c3:	68 a8 cd 00 00       	push   $0xcda8
    13c8:	6a 02                	push   $0x2
    13ca:	e8 61 37 00 00       	call   4b30 <ddf_msg>
    13cf:	83 c4 10             	add    $0x10,%esp
    13d2:	8b 5d fc             	mov    -0x4(%ebp),%ebx
    13d5:	c9                   	leave  
    13d6:	c3                   	ret    
    13d7:	90                   	nop
    13d8:	68 6f ca 00 00       	push   $0xca6f
    13dd:	68 75 ca 00 00       	push   $0xca75
    13e2:	68 87 ca 00 00       	push   $0xca87
    13e7:	6a 05                	push   $0x5
    13e9:	e8 42 37 00 00       	call   4b30 <ddf_msg>
    13ee:	8b 43 28             	mov    0x28(%ebx),%eax
    13f1:	83 c4 10             	add    $0x10,%esp
    13f4:	c7 43 20 06 00 00 00 	movl   $0x6,0x20(%ebx)
    13fb:	85 c0                	test   %eax,%eax
    13fd:	0f 84 a5 00 00 00    	je     14a8 <sb_dsp_interrupt+0x138>
    1403:	52                   	push   %edx
    1404:	8b 4b 1c             	mov    0x1c(%ebx),%ecx
    1407:	51                   	push   %ecx
    1408:	68 05 04 00 00       	push   $0x405
    140d:	50                   	push   %eax
    140e:	e8 9d e5 00 00       	call   f9b0 <async_msg_1@plt>
    1413:	8b 43 28             	mov    0x28(%ebx),%eax
    1416:	59                   	pop    %ecx
    1417:	50                   	push   %eax
    1418:	e8 73 e4 00 00       	call   f890 <async_exchange_end@plt>
    141d:	c7 43 28 00 00 00 00 	movl   $0x0,0x28(%ebx)
    1424:	83 c4 10             	add    $0x10,%esp
    1427:	8b 5d fc             	mov    -0x4(%ebp),%ebx
    142a:	c9                   	leave  
    142b:	c3                   	ret    
    142c:	8d 74 26 00          	lea    0x0(%esi,%eiz,1),%esi
    1430:	68 6f ca 00 00       	push   $0xca6f
    1435:	68 a4 ca 00 00       	push   $0xcaa4
    143a:	68 87 ca 00 00       	push   $0xca87
    143f:	6a 05                	push   $0x5
    1441:	e8 ea 36 00 00       	call   4b30 <ddf_msg>
    1446:	8b 43 28             	mov    0x28(%ebx),%eax
    1449:	83 c4 10             	add    $0x10,%esp
    144c:	c7 43 20 06 00 00 00 	movl   $0x6,0x20(%ebx)
    1453:	85 c0                	test   %eax,%eax
    1455:	0f 84 ad 00 00 00    	je     1508 <sb_dsp_interrupt+0x198>
    145b:	52                   	push   %edx
    145c:	8b 4b 1c             	mov    0x1c(%ebx),%ecx
    145f:	51                   	push   %ecx
    1460:	68 04 04 00 00       	push   $0x404
    1465:	eb a6                	jmp    140d <sb_dsp_interrupt+0x9d>
    1467:	90                   	nop
    1468:	8b 53 28             	mov    0x28(%ebx),%edx
    146b:	85 d2                	test   %edx,%edx
    146d:	74 79                	je     14e8 <sb_dsp_interrupt+0x178>
    146f:	51                   	push   %ecx
    1470:	50                   	push   %eax
    1471:	68 02 04 00 00       	push   $0x402
    1476:	52                   	push   %edx
    1477:	e8 34 e5 00 00       	call   f9b0 <async_msg_1@plt>
    147c:	83 c4 10             	add    $0x10,%esp
    147f:	8b 5d fc             	mov    -0x4(%ebp),%ebx
    1482:	c9                   	leave  
    1483:	c3                   	ret    
    1484:	8d 74 26 00          	lea    0x0(%esi,%eiz,1),%esi
    1488:	8b 53 28             	mov    0x28(%ebx),%edx
    148b:	85 d2                	test   %edx,%edx
    148d:	74 39                	je     14c8 <sb_dsp_interrupt+0x158>
    148f:	51                   	push   %ecx
    1490:	50                   	push   %eax
    1491:	68 03 04 00 00       	push   $0x403
    1496:	52                   	push   %edx
    1497:	e8 14 e5 00 00       	call   f9b0 <async_msg_1@plt>
    149c:	83 c4 10             	add    $0x10,%esp
    149f:	8b 5d fc             	mov    -0x4(%ebp),%ebx
    14a2:	c9                   	leave  
    14a3:	c3                   	ret    
    14a4:	8d 74 26 00          	lea    0x0(%esi,%eiz,1),%esi
    14a8:	50                   	push   %eax
    14a9:	68 05 04 00 00       	push   $0x405
    14ae:	68 51 ca 00 00       	push   $0xca51
    14b3:	6a 02                	push   $0x2
    14b5:	e8 76 36 00 00       	call   4b30 <ddf_msg>
    14ba:	8b 43 28             	mov    0x28(%ebx),%eax
    14bd:	83 c4 10             	add    $0x10,%esp
    14c0:	e9 3e ff ff ff       	jmp    1403 <sb_dsp_interrupt+0x93>
    14c5:	8d 76 00             	lea    0x0(%esi),%esi
    14c8:	50                   	push   %eax
    14c9:	68 03 04 00 00       	push   $0x403
    14ce:	68 51 ca 00 00       	push   $0xca51
    14d3:	6a 02                	push   $0x2
    14d5:	e8 56 36 00 00       	call   4b30 <ddf_msg>
    14da:	8b 43 1c             	mov    0x1c(%ebx),%eax
    14dd:	8b 53 28             	mov    0x28(%ebx),%edx
    14e0:	83 c4 10             	add    $0x10,%esp
    14e3:	eb aa                	jmp    148f <sb_dsp_interrupt+0x11f>
    14e5:	8d 76 00             	lea    0x0(%esi),%esi
    14e8:	50                   	push   %eax
    14e9:	68 02 04 00 00       	push   $0x402
    14ee:	68 51 ca 00 00       	push   $0xca51
    14f3:	6a 02                	push   $0x2
    14f5:	e8 36 36 00 00       	call   4b30 <ddf_msg>
    14fa:	8b 43 1c             	mov    0x1c(%ebx),%eax
    14fd:	8b 53 28             	mov    0x28(%ebx),%edx
    1500:	83 c4 10             	add    $0x10,%esp
    1503:	e9 67 ff ff ff       	jmp    146f <sb_dsp_interrupt+0xff>
    1508:	50                   	push   %eax
    1509:	68 04 04 00 00       	push   $0x404
    150e:	68 51 ca 00 00       	push   $0xca51
    1513:	6a 02                	push   $0x2
    1515:	e8 16 36 00 00       	call   4b30 <ddf_msg>
    151a:	8b 43 28             	mov    0x28(%ebx),%eax
    151d:	83 c4 10             	add    $0x10,%esp
    1520:	e9 36 ff ff ff       	jmp    145b <sb_dsp_interrupt+0xeb>
    1525:	51                   	push   %ecx
    1526:	68 f4 00 00 00       	push   $0xf4
    152b:	68 3f ca 00 00       	push   $0xca3f
    1530:	68 45 ca 00 00       	push   $0xca45
    1535:	e8 66 e3 00 00       	call   f8a0 <assert_abort@plt>
    153a:	8d b6 00 00 00 00    	lea    0x0(%esi),%esi

00001540 <sb_dsp_query_cap>:
    1540:	55                   	push   %ebp
    1541:	89 e5                	mov    %esp,%ebp
    1543:	53                   	push   %ebx
    1544:	83 ec 10             	sub    $0x10,%esp
    1547:	8b 5d 0c             	mov    0xc(%ebp),%ebx
    154a:	53                   	push   %ebx
    154b:	e8 00 42 00 00       	call   5750 <audio_pcm_cap_str>
    1550:	83 c4 0c             	add    $0xc,%esp
    1553:	50                   	push   %eax
    1554:	68 b7 ca 00 00       	push   $0xcab7
    1559:	6a 05                	push   $0x5
    155b:	e8 d0 35 00 00       	call   4b30 <ddf_msg>
    1560:	83 c4 10             	add    $0x10,%esp
    1563:	b8 f5 ff ff ff       	mov    $0xfffffff5,%eax
    1568:	83 fb 06             	cmp    $0x6,%ebx
    156b:	77 07                	ja     1574 <sb_dsp_query_cap+0x34>
    156d:	8b 04 9d 90 d0 00 00 	mov    0xd090(,%ebx,4),%eax
    1574:	8b 5d fc             	mov    -0x4(%ebp),%ebx
    1577:	c9                   	leave  
    1578:	c3                   	ret    
    1579:	8d b4 26 00 00 00 00 	lea    0x0(%esi,%eiz,1),%esi

00001580 <sb_dsp_get_buffer_position>:
    1580:	55                   	push   %ebp
    1581:	89 e5                	mov    %esp,%ebp
    1583:	57                   	push   %edi
    1584:	56                   	push   %esi
    1585:	53                   	push   %ebx
    1586:	83 ec 0c             	sub    $0xc,%esp
    1589:	8b 5d 08             	mov    0x8(%ebp),%ebx
    158c:	83 7b 20 07          	cmpl   $0x7,0x20(%ebx)
    1590:	74 66                	je     15f8 <sb_dsp_get_buffer_position+0x78>
    1592:	8b 43 10             	mov    0x10(%ebx),%eax
    1595:	85 c0                	test   %eax,%eax
    1597:	74 64                	je     15fd <sb_dsp_get_buffer_position+0x7d>
    1599:	83 ec 0c             	sub    $0xc,%esp
    159c:	8b 43 2c             	mov    0x2c(%ebx),%eax
    159f:	50                   	push   %eax
    15a0:	e8 9b 2c 00 00       	call   4240 <ddf_dev_get_handle>
    15a5:	5a                   	pop    %edx
    15a6:	59                   	pop    %ecx
    15a7:	6a 01                	push   $0x1
    15a9:	50                   	push   %eax
    15aa:	e8 91 e1 00 00       	call   f740 <devman_parent_device_connect@plt>
    15af:	5e                   	pop    %esi
    15b0:	89 c7                	mov    %eax,%edi
    15b2:	58                   	pop    %eax
    15b3:	8b 43 08             	mov    0x8(%ebx),%eax
    15b6:	50                   	push   %eax
    15b7:	57                   	push   %edi
    15b8:	e8 43 e4 00 00       	call   fa00 <hw_res_dma_channel_remain@plt>
    15bd:	89 3c 24             	mov    %edi,(%esp)
    15c0:	89 c6                	mov    %eax,%esi
    15c2:	e8 39 e1 00 00       	call   f700 <async_hangup@plt>
    15c7:	83 c4 10             	add    $0x10,%esp
    15ca:	85 f6                	test   %esi,%esi
    15cc:	78 1a                	js     15e8 <sb_dsp_get_buffer_position+0x68>
    15ce:	8b 43 14             	mov    0x14(%ebx),%eax
    15d1:	8b 55 0c             	mov    0xc(%ebp),%edx
    15d4:	29 f0                	sub    %esi,%eax
    15d6:	89 02                	mov    %eax,(%edx)
    15d8:	31 c0                	xor    %eax,%eax
    15da:	8d 65 f4             	lea    -0xc(%ebp),%esp
    15dd:	5b                   	pop    %ebx
    15de:	5e                   	pop    %esi
    15df:	5f                   	pop    %edi
    15e0:	5d                   	pop    %ebp
    15e1:	c3                   	ret    
    15e2:	8d b6 00 00 00 00    	lea    0x0(%esi),%esi
    15e8:	8d 65 f4             	lea    -0xc(%ebp),%esp
    15eb:	89 f0                	mov    %esi,%eax
    15ed:	5b                   	pop    %ebx
    15ee:	5e                   	pop    %esi
    15ef:	5f                   	pop    %edi
    15f0:	5d                   	pop    %ebp
    15f1:	c3                   	ret    
    15f2:	8d b6 00 00 00 00    	lea    0x0(%esi),%esi
    15f8:	83 c8 ff             	or     $0xffffffff,%eax
    15fb:	eb dd                	jmp    15da <sb_dsp_get_buffer_position+0x5a>
    15fd:	50                   	push   %eax
    15fe:	68 34 01 00 00       	push   $0x134
    1603:	68 3f ca 00 00       	push   $0xca3f
    1608:	68 c7 ca 00 00       	push   $0xcac7
    160d:	e8 8e e2 00 00       	call   f8a0 <assert_abort@plt>
    1612:	8d b4 26 00 00 00 00 	lea    0x0(%esi,%eiz,1),%esi
    1619:	8d bc 27 00 00 00 00 	lea    0x0(%edi,%eiz,1),%edi

00001620 <sb_dsp_test_format>:
    1620:	55                   	push   %ebp
    1621:	89 e5                	mov    %esp,%ebp
    1623:	56                   	push   %esi
    1624:	53                   	push   %ebx
    1625:	8b 55 0c             	mov    0xc(%ebp),%edx
    1628:	8b 4d 10             	mov    0x10(%ebp),%ecx
    162b:	8b 5d 14             	mov    0x14(%ebp),%ebx
    162e:	8b 02                	mov    (%edx),%eax
    1630:	48                   	dec    %eax
    1631:	83 f8 01             	cmp    $0x1,%eax
    1634:	76 6a                	jbe    16a0 <sb_dsp_test_format+0x80>
    1636:	c7 02 02 00 00 00    	movl   $0x2,(%edx)
    163c:	b8 fd ff ff ff       	mov    $0xfffffffd,%eax
    1641:	8b 13                	mov    (%ebx),%edx
    1643:	8d 72 fe             	lea    -0x2(%edx),%esi
    1646:	83 e6 fd             	and    $0xfffffffd,%esi
    1649:	74 19                	je     1664 <sb_dsp_test_format+0x44>
    164b:	83 fa 11             	cmp    $0x11,%edx
    164e:	77 48                	ja     1698 <sb_dsp_test_format+0x78>
    1650:	ff 24 95 b8 cf 00 00 	jmp    *0xcfb8(,%edx,4)
    1657:	90                   	nop
    1658:	b8 04 00 00 00       	mov    $0x4,%eax
    165d:	89 03                	mov    %eax,(%ebx)
    165f:	b8 fd ff ff ff       	mov    $0xfffffffd,%eax
    1664:	8b 11                	mov    (%ecx),%edx
    1666:	81 fa 44 ac 00 00    	cmp    $0xac44,%edx
    166c:	76 12                	jbe    1680 <sb_dsp_test_format+0x60>
    166e:	c7 01 44 ac 00 00    	movl   $0xac44,(%ecx)
    1674:	b8 fd ff ff ff       	mov    $0xfffffffd,%eax
    1679:	5b                   	pop    %ebx
    167a:	5e                   	pop    %esi
    167b:	5d                   	pop    %ebp
    167c:	c3                   	ret    
    167d:	8d 76 00             	lea    0x0(%esi),%esi
    1680:	81 fa 87 13 00 00    	cmp    $0x1387,%edx
    1686:	77 f1                	ja     1679 <sb_dsp_test_format+0x59>
    1688:	c7 01 88 13 00 00    	movl   $0x1388,(%ecx)
    168e:	b8 fd ff ff ff       	mov    $0xfffffffd,%eax
    1693:	eb e4                	jmp    1679 <sb_dsp_test_format+0x59>
    1695:	8d 76 00             	lea    0x0(%esi),%esi
    1698:	b8 02 00 00 00       	mov    $0x2,%eax
    169d:	eb be                	jmp    165d <sb_dsp_test_format+0x3d>
    169f:	90                   	nop
    16a0:	31 c0                	xor    %eax,%eax
    16a2:	eb 9d                	jmp    1641 <sb_dsp_test_format+0x21>
    16a4:	8d b6 00 00 00 00    	lea    0x0(%esi),%esi
    16aa:	8d bf 00 00 00 00    	lea    0x0(%edi),%edi

000016b0 <sb_dsp_set_event_session>:
    16b0:	55                   	push   %ebp
    16b1:	89 e5                	mov    %esp,%ebp
    16b3:	83 ec 08             	sub    $0x8,%esp
    16b6:	8b 45 08             	mov    0x8(%ebp),%eax
    16b9:	8b 55 0c             	mov    0xc(%ebp),%edx
    16bc:	85 c0                	test   %eax,%eax
    16be:	74 2f                	je     16ef <sb_dsp_set_event_session+0x3f>
    16c0:	8b 48 24             	mov    0x24(%eax),%ecx
    16c3:	85 c9                	test   %ecx,%ecx
    16c5:	74 04                	je     16cb <sb_dsp_set_event_session+0x1b>
    16c7:	85 d2                	test   %edx,%edx
    16c9:	75 1d                	jne    16e8 <sb_dsp_set_event_session+0x38>
    16cb:	89 50 24             	mov    %edx,0x24(%eax)
    16ce:	50                   	push   %eax
    16cf:	52                   	push   %edx
    16d0:	68 d8 ca 00 00       	push   $0xcad8
    16d5:	6a 04                	push   $0x4
    16d7:	e8 54 34 00 00       	call   4b30 <ddf_msg>
    16dc:	83 c4 10             	add    $0x10,%esp
    16df:	31 c0                	xor    %eax,%eax
    16e1:	c9                   	leave  
    16e2:	c3                   	ret    
    16e3:	90                   	nop
    16e4:	8d 74 26 00          	lea    0x0(%esi,%eiz,1),%esi
    16e8:	b8 f1 ff ff ff       	mov    $0xfffffff1,%eax
    16ed:	c9                   	leave  
    16ee:	c3                   	ret    
    16ef:	50                   	push   %eax
    16f0:	68 5d 01 00 00       	push   $0x15d
    16f5:	68 3f ca 00 00       	push   $0xca3f
    16fa:	68 45 ca 00 00       	push   $0xca45
    16ff:	e8 9c e1 00 00       	call   f8a0 <assert_abort@plt>
    1704:	8d b6 00 00 00 00    	lea    0x0(%esi),%esi
    170a:	8d bf 00 00 00 00    	lea    0x0(%edi),%edi

00001710 <sb_dsp_get_event_session>:
    1710:	55                   	push   %ebp
    1711:	89 e5                	mov    %esp,%ebp
    1713:	53                   	push   %ebx
    1714:	53                   	push   %ebx
    1715:	8b 5d 08             	mov    0x8(%ebp),%ebx
    1718:	85 db                	test   %ebx,%ebx
    171a:	74 19                	je     1735 <sb_dsp_get_event_session+0x25>
    171c:	50                   	push   %eax
    171d:	8b 53 24             	mov    0x24(%ebx),%edx
    1720:	52                   	push   %edx
    1721:	68 f1 ca 00 00       	push   $0xcaf1
    1726:	6a 04                	push   $0x4
    1728:	e8 03 34 00 00       	call   4b30 <ddf_msg>
    172d:	8b 43 24             	mov    0x24(%ebx),%eax
    1730:	8b 5d fc             	mov    -0x4(%ebp),%ebx
    1733:	c9                   	leave  
    1734:	c3                   	ret    
    1735:	51                   	push   %ecx
    1736:	68 67 01 00 00       	push   $0x167
    173b:	68 3f ca 00 00       	push   $0xca3f
    1740:	68 45 ca 00 00       	push   $0xca45
    1745:	e8 56 e1 00 00       	call   f8a0 <assert_abort@plt>
    174a:	8d b6 00 00 00 00    	lea    0x0(%esi),%esi

00001750 <sb_dsp_get_buffer>:
    1750:	55                   	push   %ebp
    1751:	89 e5                	mov    %esp,%ebp
    1753:	57                   	push   %edi
    1754:	56                   	push   %esi
    1755:	53                   	push   %ebx
    1756:	83 ec 2c             	sub    $0x2c,%esp
    1759:	8b 5d 08             	mov    0x8(%ebp),%ebx
    175c:	85 db                	test   %ebx,%ebx
    175e:	0f 84 ac 01 00 00    	je     1910 <sb_dsp_get_buffer+0x1c0>
    1764:	8b 75 10             	mov    0x10(%ebp),%esi
    1767:	85 f6                	test   %esi,%esi
    1769:	0f 84 cb 01 00 00    	je     193a <sb_dsp_get_buffer+0x1ea>
    176f:	83 7b 20 07          	cmpl   $0x7,0x20(%ebx)
    1773:	0f 85 77 01 00 00    	jne    18f0 <sb_dsp_get_buffer+0x1a0>
    1779:	8b 53 10             	mov    0x10(%ebx),%edx
    177c:	85 d2                	test   %edx,%edx
    177e:	0f 85 a1 01 00 00    	jne    1925 <sb_dsp_get_buffer+0x1d5>
    1784:	8b 45 10             	mov    0x10(%ebp),%eax
    1787:	8b 30                	mov    (%eax),%esi
    1789:	8d 46 ff             	lea    -0x1(%esi),%eax
    178c:	3d ff ff 00 00       	cmp    $0xffff,%eax
    1791:	0f 86 11 01 00 00    	jbe    18a8 <sb_dsp_get_buffer+0x158>
    1797:	be 00 00 01 00       	mov    $0x10000,%esi
    179c:	50                   	push   %eax
    179d:	50                   	push   %eax
    179e:	8d 45 e4             	lea    -0x1c(%ebp),%eax
    17a1:	c7 45 e0 00 00 00 00 	movl   $0x0,-0x20(%ebp)
    17a8:	50                   	push   %eax
    17a9:	8d 45 e0             	lea    -0x20(%ebp),%eax
    17ac:	50                   	push   %eax
    17ad:	c7 45 e4 ff ff ff ff 	movl   $0xffffffff,-0x1c(%ebp)
    17b4:	6a 00                	push   $0x0
    17b6:	6a 03                	push   $0x3
    17b8:	68 ff ff 00 ff       	push   $0xff00ffff
    17bd:	56                   	push   %esi
    17be:	e8 9d e2 00 00       	call   fa60 <dmamem_map_anonymous@plt>
    17c3:	83 c4 20             	add    $0x20,%esp
    17c6:	85 c0                	test   %eax,%eax
    17c8:	0f 85 2a 01 00 00    	jne    18f8 <sb_dsp_get_buffer+0x1a8>
    17ce:	83 ec 0c             	sub    $0xc,%esp
    17d1:	8b 45 e0             	mov    -0x20(%ebp),%eax
    17d4:	56                   	push   %esi
    17d5:	50                   	push   %eax
    17d6:	8b 45 e4             	mov    -0x1c(%ebp),%eax
    17d9:	50                   	push   %eax
    17da:	68 ec cd 00 00       	push   $0xcdec
    17df:	6a 05                	push   $0x5
    17e1:	e8 4a 33 00 00       	call   4b30 <ddf_msg>
    17e6:	8b 7d e0             	mov    -0x20(%ebp),%edi
    17e9:	83 c4 20             	add    $0x20,%esp
    17ec:	81 ff ff ff ff 00    	cmp    $0xffffff,%edi
    17f2:	0f 87 57 01 00 00    	ja     194f <sb_dsp_get_buffer+0x1ff>
    17f8:	83 ec 0c             	sub    $0xc,%esp
    17fb:	8b 43 2c             	mov    0x2c(%ebx),%eax
    17fe:	50                   	push   %eax
    17ff:	e8 3c 2a 00 00       	call   4240 <ddf_dev_get_handle>
    1804:	5a                   	pop    %edx
    1805:	59                   	pop    %ecx
    1806:	6a 01                	push   $0x1
    1808:	50                   	push   %eax
    1809:	e8 32 df 00 00       	call   f740 <devman_parent_device_connect@plt>
    180e:	c7 04 24 18 00 00 00 	movl   $0x18,(%esp)
    1815:	56                   	push   %esi
    1816:	57                   	push   %edi
    1817:	8b 7b 08             	mov    0x8(%ebx),%edi
    181a:	89 45 d4             	mov    %eax,-0x2c(%ebp)
    181d:	57                   	push   %edi
    181e:	50                   	push   %eax
    181f:	e8 1c e2 00 00       	call   fa40 <hw_res_dma_channel_setup@plt>
    1824:	83 c4 14             	add    $0x14,%esp
    1827:	8b 55 d4             	mov    -0x2c(%ebp),%edx
    182a:	89 c7                	mov    %eax,%edi
    182c:	52                   	push   %edx
    182d:	e8 ce de 00 00       	call   f700 <async_hangup@plt>
    1832:	83 c4 10             	add    $0x10,%esp
    1835:	85 ff                	test   %edi,%edi
    1837:	0f 85 83 00 00 00    	jne    18c0 <sb_dsp_get_buffer+0x170>
    183d:	8b 45 e4             	mov    -0x1c(%ebp),%eax
    1840:	89 73 14             	mov    %esi,0x14(%ebx)
    1843:	89 43 10             	mov    %eax,0x10(%ebx)
    1846:	56                   	push   %esi
    1847:	50                   	push   %eax
    1848:	68 35 cb 00 00       	push   $0xcb35
    184d:	6a 04                	push   $0x4
    184f:	e8 dc 32 00 00       	call   4b30 <ddf_msg>
    1854:	8b 4d 0c             	mov    0xc(%ebp),%ecx
    1857:	83 c4 10             	add    $0x10,%esp
    185a:	85 c9                	test   %ecx,%ecx
    185c:	74 08                	je     1866 <sb_dsp_get_buffer+0x116>
    185e:	8b 4d 0c             	mov    0xc(%ebp),%ecx
    1861:	8b 43 10             	mov    0x10(%ebx),%eax
    1864:	89 01                	mov    %eax,(%ecx)
    1866:	8b 4d 10             	mov    0x10(%ebp),%ecx
    1869:	8b 43 14             	mov    0x14(%ebx),%eax
    186c:	8b 53 20             	mov    0x20(%ebx),%edx
    186f:	89 01                	mov    %eax,(%ecx)
    1871:	83 fa 07             	cmp    $0x7,%edx
    1874:	b8 49 ca 00 00       	mov    $0xca49,%eax
    1879:	77 07                	ja     1882 <sb_dsp_get_buffer+0x132>
    187b:	8b 04 95 20 d1 00 00 	mov    0xd120(,%edx,4),%eax
    1882:	68 6f ca 00 00       	push   $0xca6f
    1887:	50                   	push   %eax
    1888:	68 87 ca 00 00       	push   $0xca87
    188d:	6a 05                	push   $0x5
    188f:	e8 9c 32 00 00       	call   4b30 <ddf_msg>
    1894:	c7 43 20 06 00 00 00 	movl   $0x6,0x20(%ebx)
    189b:	83 c4 10             	add    $0x10,%esp
    189e:	31 c0                	xor    %eax,%eax
    18a0:	8d 65 f4             	lea    -0xc(%ebp),%esp
    18a3:	5b                   	pop    %ebx
    18a4:	5e                   	pop    %esi
    18a5:	5f                   	pop    %edi
    18a6:	5d                   	pop    %ebp
    18a7:	c3                   	ret    
    18a8:	f7 c6 01 00 00 00    	test   $0x1,%esi
    18ae:	0f 84 e8 fe ff ff    	je     179c <sb_dsp_get_buffer+0x4c>
    18b4:	e9 de fe ff ff       	jmp    1797 <sb_dsp_get_buffer+0x47>
    18b9:	8d b4 26 00 00 00 00 	lea    0x0(%esi,%eiz,1),%esi
    18c0:	83 ec 0c             	sub    $0xc,%esp
    18c3:	57                   	push   %edi
    18c4:	e8 27 e2 00 00       	call   faf0 <str_error@plt>
    18c9:	83 c4 0c             	add    $0xc,%esp
    18cc:	50                   	push   %eax
    18cd:	68 10 ce 00 00       	push   $0xce10
    18d2:	6a 01                	push   $0x1
    18d4:	e8 57 32 00 00       	call   4b30 <ddf_msg>
    18d9:	8b 55 e4             	mov    -0x1c(%ebp),%edx
    18dc:	58                   	pop    %eax
    18dd:	52                   	push   %edx
    18de:	e8 fd df 00 00       	call   f8e0 <dmamem_unmap_anonymous@plt>
    18e3:	83 c4 10             	add    $0x10,%esp
    18e6:	8d 65 f4             	lea    -0xc(%ebp),%esp
    18e9:	89 f8                	mov    %edi,%eax
    18eb:	5b                   	pop    %ebx
    18ec:	5e                   	pop    %esi
    18ed:	5f                   	pop    %edi
    18ee:	5d                   	pop    %ebp
    18ef:	c3                   	ret    
    18f0:	b8 f1 ff ff ff       	mov    $0xfffffff1,%eax
    18f5:	eb a9                	jmp    18a0 <sb_dsp_get_buffer+0x150>
    18f7:	90                   	nop
    18f8:	50                   	push   %eax
    18f9:	50                   	push   %eax
    18fa:	68 cc cd 00 00       	push   $0xcdcc
    18ff:	6a 01                	push   $0x1
    1901:	e8 2a 32 00 00       	call   4b30 <ddf_msg>
    1906:	83 c4 10             	add    $0x10,%esp
    1909:	b8 fe ff ff ff       	mov    $0xfffffffe,%eax
    190e:	eb 90                	jmp    18a0 <sb_dsp_get_buffer+0x150>
    1910:	57                   	push   %edi
    1911:	68 6e 01 00 00       	push   $0x16e
    1916:	68 3f ca 00 00       	push   $0xca3f
    191b:	68 45 ca 00 00       	push   $0xca45
    1920:	e8 7b df 00 00       	call   f8a0 <assert_abort@plt>
    1925:	50                   	push   %eax
    1926:	68 75 01 00 00       	push   $0x175
    192b:	68 3f ca 00 00       	push   $0xca3f
    1930:	68 0d cb 00 00       	push   $0xcb0d
    1935:	e8 66 df 00 00       	call   f8a0 <assert_abort@plt>
    193a:	51                   	push   %ecx
    193b:	68 6f 01 00 00       	push   $0x16f
    1940:	68 3f ca 00 00       	push   $0xca3f
    1945:	68 08 cb 00 00       	push   $0xcb08
    194a:	e8 51 df 00 00       	call   f8a0 <assert_abort@plt>
    194f:	50                   	push   %eax
    1950:	68 be 00 00 00       	push   $0xbe
    1955:	68 3f ca 00 00       	push   $0xca3f
    195a:	68 26 cb 00 00       	push   $0xcb26
    195f:	e8 3c df 00 00       	call   f8a0 <assert_abort@plt>
    1964:	8d b6 00 00 00 00    	lea    0x0(%esi),%esi
    196a:	8d bf 00 00 00 00    	lea    0x0(%edi),%edi

00001970 <sb_dsp_release_buffer>:
    1970:	55                   	push   %ebp
    1971:	89 e5                	mov    %esp,%ebp
    1973:	53                   	push   %ebx
    1974:	50                   	push   %eax
    1975:	8b 5d 08             	mov    0x8(%ebp),%ebx
    1978:	85 db                	test   %ebx,%ebx
    197a:	0f 84 8c 00 00 00    	je     1a0c <sb_dsp_release_buffer+0x9c>
    1980:	83 7b 20 06          	cmpl   $0x6,0x20(%ebx)
    1984:	75 6a                	jne    19f0 <sb_dsp_release_buffer+0x80>
    1986:	8b 43 10             	mov    0x10(%ebx),%eax
    1989:	85 c0                	test   %eax,%eax
    198b:	74 6a                	je     19f7 <sb_dsp_release_buffer+0x87>
    198d:	83 ec 0c             	sub    $0xc,%esp
    1990:	50                   	push   %eax
    1991:	e8 4a df 00 00       	call   f8e0 <dmamem_unmap_anonymous@plt>
    1996:	c7 43 10 00 00 00 00 	movl   $0x0,0x10(%ebx)
    199d:	c7 43 14 00 00 00 00 	movl   $0x0,0x14(%ebx)
    19a4:	58                   	pop    %eax
    19a5:	5a                   	pop    %edx
    19a6:	68 52 cb 00 00       	push   $0xcb52
    19ab:	6a 04                	push   $0x4
    19ad:	e8 7e 31 00 00       	call   4b30 <ddf_msg>
    19b2:	8b 53 20             	mov    0x20(%ebx),%edx
    19b5:	83 c4 10             	add    $0x10,%esp
    19b8:	b8 49 ca 00 00       	mov    $0xca49,%eax
    19bd:	83 fa 07             	cmp    $0x7,%edx
    19c0:	77 07                	ja     19c9 <sb_dsp_release_buffer+0x59>
    19c2:	8b 04 95 20 d1 00 00 	mov    0xd120(,%edx,4),%eax
    19c9:	68 67 cb 00 00       	push   $0xcb67
    19ce:	50                   	push   %eax
    19cf:	68 87 ca 00 00       	push   $0xca87
    19d4:	6a 05                	push   $0x5
    19d6:	e8 55 31 00 00       	call   4b30 <ddf_msg>
    19db:	c7 43 20 07 00 00 00 	movl   $0x7,0x20(%ebx)
    19e2:	83 c4 10             	add    $0x10,%esp
    19e5:	31 c0                	xor    %eax,%eax
    19e7:	8b 5d fc             	mov    -0x4(%ebp),%ebx
    19ea:	c9                   	leave  
    19eb:	c3                   	ret    
    19ec:	8d 74 26 00          	lea    0x0(%esi,%eiz,1),%esi
    19f0:	b8 f2 ff ff ff       	mov    $0xfffffff2,%eax
    19f5:	eb f0                	jmp    19e7 <sb_dsp_release_buffer+0x77>
    19f7:	51                   	push   %ecx
    19f8:	68 8a 01 00 00       	push   $0x18a
    19fd:	68 3f ca 00 00       	push   $0xca3f
    1a02:	68 c7 ca 00 00       	push   $0xcac7
    1a07:	e8 94 de 00 00       	call   f8a0 <assert_abort@plt>
    1a0c:	53                   	push   %ebx
    1a0d:	68 87 01 00 00       	push   $0x187
    1a12:	68 3f ca 00 00       	push   $0xca3f
    1a17:	68 45 ca 00 00       	push   $0xca45
    1a1c:	e8 7f de 00 00       	call   f8a0 <assert_abort@plt>
    1a21:	eb 0d                	jmp    1a30 <sb_dsp_start_playback>
    1a23:	90                   	nop
    1a24:	90                   	nop
    1a25:	90                   	nop
    1a26:	90                   	nop
    1a27:	90                   	nop
    1a28:	90                   	nop
    1a29:	90                   	nop
    1a2a:	90                   	nop
    1a2b:	90                   	nop
    1a2c:	90                   	nop
    1a2d:	90                   	nop
    1a2e:	90                   	nop
    1a2f:	90                   	nop

00001a30 <sb_dsp_start_playback>:
    1a30:	55                   	push   %ebp
    1a31:	89 e5                	mov    %esp,%ebp
    1a33:	57                   	push   %edi
    1a34:	56                   	push   %esi
    1a35:	53                   	push   %ebx
    1a36:	83 ec 1c             	sub    $0x1c,%esp
    1a39:	8b 7d 08             	mov    0x8(%ebp),%edi
    1a3c:	8b 75 10             	mov    0x10(%ebp),%esi
    1a3f:	8b 5d 18             	mov    0x18(%ebp),%ebx
    1a42:	85 ff                	test   %edi,%edi
    1a44:	0f 84 f2 04 00 00    	je     1f3c <sb_dsp_start_playback+0x50c>
    1a4a:	8b 47 10             	mov    0x10(%edi),%eax
    1a4d:	85 c0                	test   %eax,%eax
    1a4f:	0f 84 9a 04 00 00    	je     1eef <sb_dsp_start_playback+0x4bf>
    1a55:	83 7f 20 06          	cmpl   $0x6,0x20(%edi)
    1a59:	0f 85 90 04 00 00    	jne    1eef <sb_dsp_start_playback+0x4bf>
    1a5f:	b8 71 cb 00 00       	mov    $0xcb71,%eax
    1a64:	83 fb 12             	cmp    $0x12,%ebx
    1a67:	76 4f                	jbe    1ab8 <sb_dsp_start_playback+0x88>
    1a69:	8b 4d 14             	mov    0x14(%ebp),%ecx
    1a6c:	52                   	push   %edx
    1a6d:	52                   	push   %edx
    1a6e:	56                   	push   %esi
    1a6f:	50                   	push   %eax
    1a70:	8b 45 0c             	mov    0xc(%ebp),%eax
    1a73:	51                   	push   %ecx
    1a74:	50                   	push   %eax
    1a75:	68 34 ce 00 00       	push   $0xce34
    1a7a:	6a 04                	push   $0x4
    1a7c:	e8 af 30 00 00       	call   4b30 <ddf_msg>
    1a81:	8d 46 ff             	lea    -0x1(%esi),%eax
    1a84:	83 c4 20             	add    $0x20,%esp
    1a87:	83 f8 01             	cmp    $0x1,%eax
    1a8a:	0f 86 e0 03 00 00    	jbe    1e70 <sb_dsp_start_playback+0x440>
    1a90:	be 02 00 00 00       	mov    $0x2,%esi
    1a95:	c7 45 e4 fd ff ff ff 	movl   $0xfffffffd,-0x1c(%ebp)
    1a9c:	8d 43 fe             	lea    -0x2(%ebx),%eax
    1a9f:	83 e0 fd             	and    $0xfffffffd,%eax
    1aa2:	74 24                	je     1ac8 <sb_dsp_start_playback+0x98>
    1aa4:	c7 45 e4 f5 ff ff ff 	movl   $0xfffffff5,-0x1c(%ebp)
    1aab:	8b 45 e4             	mov    -0x1c(%ebp),%eax
    1aae:	8d 65 f4             	lea    -0xc(%ebp),%esp
    1ab1:	5b                   	pop    %ebx
    1ab2:	5e                   	pop    %esi
    1ab3:	5f                   	pop    %edi
    1ab4:	5d                   	pop    %ebp
    1ab5:	c3                   	ret    
    1ab6:	66 90                	xchg   %ax,%ax
    1ab8:	8b 04 9d c0 d0 00 00 	mov    0xd0c0(,%ebx,4),%eax
    1abf:	eb a8                	jmp    1a69 <sb_dsp_start_playback+0x39>
    1ac1:	8d b4 26 00 00 00 00 	lea    0x0(%esi,%eiz,1),%esi
    1ac8:	8b 45 14             	mov    0x14(%ebp),%eax
    1acb:	2d 88 13 00 00       	sub    $0x1388,%eax
    1ad0:	3d bc 98 00 00       	cmp    $0x98bc,%eax
    1ad5:	77 cd                	ja     1aa4 <sb_dsp_start_playback+0x74>
    1ad7:	8b 4d e4             	mov    -0x1c(%ebp),%ecx
    1ada:	85 c9                	test   %ecx,%ecx
    1adc:	75 c6                	jne    1aa4 <sb_dsp_start_playback+0x74>
    1ade:	8b 55 0c             	mov    0xc(%ebp),%edx
    1ae1:	8b 47 24             	mov    0x24(%edi),%eax
    1ae4:	85 d2                	test   %edx,%edx
    1ae6:	0f 84 3c 03 00 00    	je     1e28 <sb_dsp_start_playback+0x3f8>
    1aec:	85 c0                	test   %eax,%eax
    1aee:	0f 84 fb 03 00 00    	je     1eef <sb_dsp_start_playback+0x4bf>
    1af4:	83 ec 0c             	sub    $0xc,%esp
    1af7:	50                   	push   %eax
    1af8:	e8 e3 df 00 00       	call   fae0 <async_exchange_begin@plt>
    1afd:	83 c4 10             	add    $0x10,%esp
    1b00:	89 47 28             	mov    %eax,0x28(%edi)
    1b03:	85 c0                	test   %eax,%eax
    1b05:	0f 84 25 04 00 00    	je     1f30 <sb_dsp_start_playback+0x500>
    1b0b:	83 fb 11             	cmp    $0x11,%ebx
    1b0e:	0f 87 fc 02 00 00    	ja     1e10 <sb_dsp_start_playback+0x3e0>
    1b14:	ff 24 9d 00 d0 00 00 	jmp    *0xd000(,%ebx,4)
    1b1b:	90                   	nop
    1b1c:	8d 74 26 00          	lea    0x0(%esi,%eiz,1),%esi
    1b20:	b1 30                	mov    $0x30,%cl
    1b22:	b0 10                	mov    $0x10,%al
    1b24:	83 fe 02             	cmp    $0x2,%esi
    1b27:	0f 84 f0 02 00 00    	je     1e1d <sb_dsp_start_playback+0x3ed>
    1b2d:	88 47 18             	mov    %al,0x18(%edi)
    1b30:	8b 45 0c             	mov    0xc(%ebp),%eax
    1b33:	0f af f0             	imul   %eax,%esi
    1b36:	83 ec 0c             	sub    $0xc,%esp
    1b39:	8b 07                	mov    (%edi),%eax
    1b3b:	83 c0 0c             	add    $0xc,%eax
    1b3e:	66 89 77 1a          	mov    %si,0x1a(%edi)
    1b42:	c7 47 1c 00 00 00 00 	movl   $0x0,0x1c(%edi)
    1b49:	50                   	push   %eax
    1b4a:	bb 63 00 00 00       	mov    $0x63,%ebx
    1b4f:	e8 2c dd 00 00       	call   f880 <pio_read_8@plt>
    1b54:	83 c4 10             	add    $0x10,%esp
    1b57:	eb 1f                	jmp    1b78 <sb_dsp_start_playback+0x148>
    1b59:	8d b4 26 00 00 00 00 	lea    0x0(%esi,%eiz,1),%esi
    1b60:	83 ec 0c             	sub    $0xc,%esp
    1b63:	8b 07                	mov    (%edi),%eax
    1b65:	83 c0 0c             	add    $0xc,%eax
    1b68:	50                   	push   %eax
    1b69:	e8 12 dd 00 00       	call   f880 <pio_read_8@plt>
    1b6e:	83 c4 10             	add    $0x10,%esp
    1b71:	4b                   	dec    %ebx
    1b72:	0f 84 08 03 00 00    	je     1e80 <sb_dsp_start_playback+0x450>
    1b78:	84 c0                	test   %al,%al
    1b7a:	78 e4                	js     1b60 <sb_dsp_start_playback+0x130>
    1b7c:	50                   	push   %eax
    1b7d:	50                   	push   %eax
    1b7e:	8b 07                	mov    (%edi),%eax
    1b80:	6a 41                	push   $0x41
    1b82:	83 c0 0c             	add    $0xc,%eax
    1b85:	50                   	push   %eax
    1b86:	e8 75 dd 00 00       	call   f900 <pio_write_8@plt>
    1b8b:	83 c4 10             	add    $0x10,%esp
    1b8e:	8b 45 14             	mov    0x14(%ebp),%eax
    1b91:	83 ec 0c             	sub    $0xc,%esp
    1b94:	c1 e8 08             	shr    $0x8,%eax
    1b97:	bb 63 00 00 00       	mov    $0x63,%ebx
    1b9c:	89 45 e0             	mov    %eax,-0x20(%ebp)
    1b9f:	8b 07                	mov    (%edi),%eax
    1ba1:	83 c0 0c             	add    $0xc,%eax
    1ba4:	50                   	push   %eax
    1ba5:	e8 d6 dc 00 00       	call   f880 <pio_read_8@plt>
    1baa:	83 c4 10             	add    $0x10,%esp
    1bad:	eb 19                	jmp    1bc8 <sb_dsp_start_playback+0x198>
    1baf:	90                   	nop
    1bb0:	83 ec 0c             	sub    $0xc,%esp
    1bb3:	8b 07                	mov    (%edi),%eax
    1bb5:	83 c0 0c             	add    $0xc,%eax
    1bb8:	50                   	push   %eax
    1bb9:	e8 c2 dc 00 00       	call   f880 <pio_read_8@plt>
    1bbe:	83 c4 10             	add    $0x10,%esp
    1bc1:	4b                   	dec    %ebx
    1bc2:	0f 84 08 03 00 00    	je     1ed0 <sb_dsp_start_playback+0x4a0>
    1bc8:	84 c0                	test   %al,%al
    1bca:	78 e4                	js     1bb0 <sb_dsp_start_playback+0x180>
    1bcc:	53                   	push   %ebx
    1bcd:	53                   	push   %ebx
    1bce:	8b 07                	mov    (%edi),%eax
    1bd0:	8b 75 e0             	mov    -0x20(%ebp),%esi
    1bd3:	83 c0 0c             	add    $0xc,%eax
    1bd6:	56                   	push   %esi
    1bd7:	50                   	push   %eax
    1bd8:	e8 23 dd 00 00       	call   f900 <pio_write_8@plt>
    1bdd:	83 c4 10             	add    $0x10,%esp
    1be0:	83 ec 0c             	sub    $0xc,%esp
    1be3:	8b 07                	mov    (%edi),%eax
    1be5:	0f b6 75 14          	movzbl 0x14(%ebp),%esi
    1be9:	83 c0 0c             	add    $0xc,%eax
    1bec:	81 e6 ff 00 00 00    	and    $0xff,%esi
    1bf2:	50                   	push   %eax
    1bf3:	bb 63 00 00 00       	mov    $0x63,%ebx
    1bf8:	e8 83 dc 00 00       	call   f880 <pio_read_8@plt>
    1bfd:	83 c4 10             	add    $0x10,%esp
    1c00:	eb 1e                	jmp    1c20 <sb_dsp_start_playback+0x1f0>
    1c02:	8d b6 00 00 00 00    	lea    0x0(%esi),%esi
    1c08:	83 ec 0c             	sub    $0xc,%esp
    1c0b:	8b 07                	mov    (%edi),%eax
    1c0d:	83 c0 0c             	add    $0xc,%eax
    1c10:	50                   	push   %eax
    1c11:	e8 6a dc 00 00       	call   f880 <pio_read_8@plt>
    1c16:	83 c4 10             	add    $0x10,%esp
    1c19:	4b                   	dec    %ebx
    1c1a:	0f 84 a0 02 00 00    	je     1ec0 <sb_dsp_start_playback+0x490>
    1c20:	84 c0                	test   %al,%al
    1c22:	78 e4                	js     1c08 <sb_dsp_start_playback+0x1d8>
    1c24:	51                   	push   %ecx
    1c25:	51                   	push   %ecx
    1c26:	8b 07                	mov    (%edi),%eax
    1c28:	56                   	push   %esi
    1c29:	83 c0 0c             	add    $0xc,%eax
    1c2c:	50                   	push   %eax
    1c2d:	e8 ce dc 00 00       	call   f900 <pio_write_8@plt>
    1c32:	83 c4 10             	add    $0x10,%esp
    1c35:	8b 55 e0             	mov    -0x20(%ebp),%edx
    1c38:	56                   	push   %esi
    1c39:	52                   	push   %edx
    1c3a:	68 87 cb 00 00       	push   $0xcb87
    1c3f:	6a 05                	push   $0x5
    1c41:	e8 ea 2e 00 00       	call   4b30 <ddf_msg>
    1c46:	8b 07                	mov    (%edi),%eax
    1c48:	bb 63 00 00 00       	mov    $0x63,%ebx
    1c4d:	83 c0 0c             	add    $0xc,%eax
    1c50:	89 04 24             	mov    %eax,(%esp)
    1c53:	e8 28 dc 00 00       	call   f880 <pio_read_8@plt>
    1c58:	83 c4 10             	add    $0x10,%esp
    1c5b:	eb 1b                	jmp    1c78 <sb_dsp_start_playback+0x248>
    1c5d:	8d 76 00             	lea    0x0(%esi),%esi
    1c60:	83 ec 0c             	sub    $0xc,%esp
    1c63:	8b 07                	mov    (%edi),%eax
    1c65:	83 c0 0c             	add    $0xc,%eax
    1c68:	50                   	push   %eax
    1c69:	e8 12 dc 00 00       	call   f880 <pio_read_8@plt>
    1c6e:	83 c4 10             	add    $0x10,%esp
    1c71:	4b                   	dec    %ebx
    1c72:	0f 84 38 02 00 00    	je     1eb0 <sb_dsp_start_playback+0x480>
    1c78:	84 c0                	test   %al,%al
    1c7a:	78 e4                	js     1c60 <sb_dsp_start_playback+0x230>
    1c7c:	50                   	push   %eax
    1c7d:	50                   	push   %eax
    1c7e:	8b 07                	mov    (%edi),%eax
    1c80:	68 b6 00 00 00       	push   $0xb6
    1c85:	83 c0 0c             	add    $0xc,%eax
    1c88:	50                   	push   %eax
    1c89:	e8 72 dc 00 00       	call   f900 <pio_write_8@plt>
    1c8e:	83 c4 10             	add    $0x10,%esp
    1c91:	83 ec 0c             	sub    $0xc,%esp
    1c94:	8b 07                	mov    (%edi),%eax
    1c96:	0f b6 77 18          	movzbl 0x18(%edi),%esi
    1c9a:	83 c0 0c             	add    $0xc,%eax
    1c9d:	81 e6 ff 00 00 00    	and    $0xff,%esi
    1ca3:	50                   	push   %eax
    1ca4:	bb 63 00 00 00       	mov    $0x63,%ebx
    1ca9:	e8 d2 db 00 00       	call   f880 <pio_read_8@plt>
    1cae:	83 c4 10             	add    $0x10,%esp
    1cb1:	eb 1d                	jmp    1cd0 <sb_dsp_start_playback+0x2a0>
    1cb3:	90                   	nop
    1cb4:	8d 74 26 00          	lea    0x0(%esi,%eiz,1),%esi
    1cb8:	83 ec 0c             	sub    $0xc,%esp
    1cbb:	8b 07                	mov    (%edi),%eax
    1cbd:	83 c0 0c             	add    $0xc,%eax
    1cc0:	50                   	push   %eax
    1cc1:	e8 ba db 00 00       	call   f880 <pio_read_8@plt>
    1cc6:	83 c4 10             	add    $0x10,%esp
    1cc9:	4b                   	dec    %ebx
    1cca:	0f 84 d0 01 00 00    	je     1ea0 <sb_dsp_start_playback+0x470>
    1cd0:	84 c0                	test   %al,%al
    1cd2:	78 e4                	js     1cb8 <sb_dsp_start_playback+0x288>
    1cd4:	50                   	push   %eax
    1cd5:	50                   	push   %eax
    1cd6:	8b 07                	mov    (%edi),%eax
    1cd8:	56                   	push   %esi
    1cd9:	83 c0 0c             	add    $0xc,%eax
    1cdc:	50                   	push   %eax
    1cdd:	e8 1e dc 00 00       	call   f900 <pio_write_8@plt>
    1ce2:	83 c4 10             	add    $0x10,%esp
    1ce5:	8a 47 1a             	mov    0x1a(%edi),%al
    1ce8:	83 ec 0c             	sub    $0xc,%esp
    1ceb:	bb 63 00 00 00       	mov    $0x63,%ebx
    1cf0:	8d 70 ff             	lea    -0x1(%eax),%esi
    1cf3:	89 f0                	mov    %esi,%eax
    1cf5:	25 ff 00 00 00       	and    $0xff,%eax
    1cfa:	89 c6                	mov    %eax,%esi
    1cfc:	8b 07                	mov    (%edi),%eax
    1cfe:	83 c0 0c             	add    $0xc,%eax
    1d01:	50                   	push   %eax
    1d02:	e8 79 db 00 00       	call   f880 <pio_read_8@plt>
    1d07:	83 c4 10             	add    $0x10,%esp
    1d0a:	eb 1c                	jmp    1d28 <sb_dsp_start_playback+0x2f8>
    1d0c:	8d 74 26 00          	lea    0x0(%esi,%eiz,1),%esi
    1d10:	83 ec 0c             	sub    $0xc,%esp
    1d13:	8b 07                	mov    (%edi),%eax
    1d15:	83 c0 0c             	add    $0xc,%eax
    1d18:	50                   	push   %eax
    1d19:	e8 62 db 00 00       	call   f880 <pio_read_8@plt>
    1d1e:	83 c4 10             	add    $0x10,%esp
    1d21:	4b                   	dec    %ebx
    1d22:	0f 84 b8 01 00 00    	je     1ee0 <sb_dsp_start_playback+0x4b0>
    1d28:	84 c0                	test   %al,%al
    1d2a:	78 e4                	js     1d10 <sb_dsp_start_playback+0x2e0>
    1d2c:	89 f2                	mov    %esi,%edx
    1d2e:	50                   	push   %eax
    1d2f:	50                   	push   %eax
    1d30:	8b 07                	mov    (%edi),%eax
    1d32:	52                   	push   %edx
    1d33:	83 c0 0c             	add    $0xc,%eax
    1d36:	50                   	push   %eax
    1d37:	e8 c4 db 00 00       	call   f900 <pio_write_8@plt>
    1d3c:	83 c4 10             	add    $0x10,%esp
    1d3f:	31 f6                	xor    %esi,%esi
    1d41:	83 ec 0c             	sub    $0xc,%esp
    1d44:	66 8b 77 1a          	mov    0x1a(%edi),%si
    1d48:	bb 63 00 00 00       	mov    $0x63,%ebx
    1d4d:	8d 46 ff             	lea    -0x1(%esi),%eax
    1d50:	0f b6 f4             	movzbl %ah,%esi
    1d53:	8b 07                	mov    (%edi),%eax
    1d55:	83 c0 0c             	add    $0xc,%eax
    1d58:	50                   	push   %eax
    1d59:	e8 22 db 00 00       	call   f880 <pio_read_8@plt>
    1d5e:	83 c4 10             	add    $0x10,%esp
    1d61:	eb 1d                	jmp    1d80 <sb_dsp_start_playback+0x350>
    1d63:	90                   	nop
    1d64:	8d 74 26 00          	lea    0x0(%esi,%eiz,1),%esi
    1d68:	83 ec 0c             	sub    $0xc,%esp
    1d6b:	8b 07                	mov    (%edi),%eax
    1d6d:	83 c0 0c             	add    $0xc,%eax
    1d70:	50                   	push   %eax
    1d71:	e8 0a db 00 00       	call   f880 <pio_read_8@plt>
    1d76:	83 c4 10             	add    $0x10,%esp
    1d79:	4b                   	dec    %ebx
    1d7a:	0f 84 10 01 00 00    	je     1e90 <sb_dsp_start_playback+0x460>
    1d80:	84 c0                	test   %al,%al
    1d82:	78 e4                	js     1d68 <sb_dsp_start_playback+0x338>
    1d84:	50                   	push   %eax
    1d85:	50                   	push   %eax
    1d86:	8b 07                	mov    (%edi),%eax
    1d88:	56                   	push   %esi
    1d89:	83 c0 0c             	add    $0xc,%eax
    1d8c:	50                   	push   %eax
    1d8d:	e8 6e db 00 00       	call   f900 <pio_write_8@plt>
    1d92:	83 c4 10             	add    $0x10,%esp
    1d95:	50                   	push   %eax
    1d96:	31 c0                	xor    %eax,%eax
    1d98:	66 8b 47 1a          	mov    0x1a(%edi),%ax
    1d9c:	50                   	push   %eax
    1d9d:	68 6c ce 00 00       	push   $0xce6c
    1da2:	6a 05                	push   $0x5
    1da4:	e8 87 2d 00 00       	call   4b30 <ddf_msg>
    1da9:	8b 45 0c             	mov    0xc(%ebp),%eax
    1dac:	83 c4 10             	add    $0x10,%esp
    1daf:	85 c0                	test   %eax,%eax
    1db1:	0f 84 81 00 00 00    	je     1e38 <sb_dsp_start_playback+0x408>
    1db7:	8b 47 20             	mov    0x20(%edi),%eax
    1dba:	83 f8 07             	cmp    $0x7,%eax
    1dbd:	0f 87 8e 01 00 00    	ja     1f51 <sb_dsp_start_playback+0x521>
    1dc3:	8b 14 85 20 d1 00 00 	mov    0xd120(,%eax,4),%edx
    1dca:	68 a1 cb 00 00       	push   $0xcba1
    1dcf:	52                   	push   %edx
    1dd0:	68 87 ca 00 00       	push   $0xca87
    1dd5:	6a 05                	push   $0x5
    1dd7:	e8 54 2d 00 00       	call   4b30 <ddf_msg>
    1ddc:	8b 47 28             	mov    0x28(%edi),%eax
    1ddf:	83 c4 10             	add    $0x10,%esp
    1de2:	c7 47 20 00 00 00 00 	movl   $0x0,0x20(%edi)
    1de9:	85 c0                	test   %eax,%eax
    1deb:	0f 84 22 01 00 00    	je     1f13 <sb_dsp_start_playback+0x4e3>
    1df1:	51                   	push   %ecx
    1df2:	8b 5f 1c             	mov    0x1c(%edi),%ebx
    1df5:	53                   	push   %ebx
    1df6:	68 00 04 00 00       	push   $0x400
    1dfb:	50                   	push   %eax
    1dfc:	e8 af db 00 00       	call   f9b0 <async_msg_1@plt>
    1e01:	8b 45 e4             	mov    -0x1c(%ebp),%eax
    1e04:	83 c4 10             	add    $0x10,%esp
    1e07:	8d 65 f4             	lea    -0xc(%ebp),%esp
    1e0a:	5b                   	pop    %ebx
    1e0b:	5e                   	pop    %esi
    1e0c:	5f                   	pop    %edi
    1e0d:	5d                   	pop    %ebp
    1e0e:	c3                   	ret    
    1e0f:	90                   	nop
    1e10:	31 c0                	xor    %eax,%eax
    1e12:	b1 20                	mov    $0x20,%cl
    1e14:	83 fe 02             	cmp    $0x2,%esi
    1e17:	0f 85 10 fd ff ff    	jne    1b2d <sb_dsp_start_playback+0xfd>
    1e1d:	88 c8                	mov    %cl,%al
    1e1f:	e9 09 fd ff ff       	jmp    1b2d <sb_dsp_start_playback+0xfd>
    1e24:	8d 74 26 00          	lea    0x0(%esi,%eiz,1),%esi
    1e28:	85 c0                	test   %eax,%eax
    1e2a:	0f 84 db fc ff ff    	je     1b0b <sb_dsp_start_playback+0xdb>
    1e30:	e9 bf fc ff ff       	jmp    1af4 <sb_dsp_start_playback+0xc4>
    1e35:	8d 76 00             	lea    0x0(%esi),%esi
    1e38:	8b 47 20             	mov    0x20(%edi),%eax
    1e3b:	83 f8 07             	cmp    $0x7,%eax
    1e3e:	0f 86 bd 00 00 00    	jbe    1f01 <sb_dsp_start_playback+0x4d1>
    1e44:	68 b4 cb 00 00       	push   $0xcbb4
    1e49:	68 49 ca 00 00       	push   $0xca49
    1e4e:	68 87 ca 00 00       	push   $0xca87
    1e53:	6a 05                	push   $0x5
    1e55:	e8 d6 2c 00 00       	call   4b30 <ddf_msg>
    1e5a:	c7 47 20 02 00 00 00 	movl   $0x2,0x20(%edi)
    1e61:	8b 45 e4             	mov    -0x1c(%ebp),%eax
    1e64:	83 c4 10             	add    $0x10,%esp
    1e67:	8d 65 f4             	lea    -0xc(%ebp),%esp
    1e6a:	5b                   	pop    %ebx
    1e6b:	5e                   	pop    %esi
    1e6c:	5f                   	pop    %edi
    1e6d:	5d                   	pop    %ebp
    1e6e:	c3                   	ret    
    1e6f:	90                   	nop
    1e70:	c7 45 e4 00 00 00 00 	movl   $0x0,-0x1c(%ebp)
    1e77:	e9 20 fc ff ff       	jmp    1a9c <sb_dsp_start_playback+0x6c>
    1e7c:	8d 74 26 00          	lea    0x0(%esi,%eiz,1),%esi
    1e80:	84 c0                	test   %al,%al
    1e82:	0f 89 f4 fc ff ff    	jns    1b7c <sb_dsp_start_playback+0x14c>
    1e88:	e9 01 fd ff ff       	jmp    1b8e <sb_dsp_start_playback+0x15e>
    1e8d:	8d 76 00             	lea    0x0(%esi),%esi
    1e90:	84 c0                	test   %al,%al
    1e92:	0f 89 ec fe ff ff    	jns    1d84 <sb_dsp_start_playback+0x354>
    1e98:	e9 f8 fe ff ff       	jmp    1d95 <sb_dsp_start_playback+0x365>
    1e9d:	8d 76 00             	lea    0x0(%esi),%esi
    1ea0:	84 c0                	test   %al,%al
    1ea2:	0f 89 2c fe ff ff    	jns    1cd4 <sb_dsp_start_playback+0x2a4>
    1ea8:	e9 38 fe ff ff       	jmp    1ce5 <sb_dsp_start_playback+0x2b5>
    1ead:	8d 76 00             	lea    0x0(%esi),%esi
    1eb0:	84 c0                	test   %al,%al
    1eb2:	0f 89 c4 fd ff ff    	jns    1c7c <sb_dsp_start_playback+0x24c>
    1eb8:	e9 d4 fd ff ff       	jmp    1c91 <sb_dsp_start_playback+0x261>
    1ebd:	8d 76 00             	lea    0x0(%esi),%esi
    1ec0:	84 c0                	test   %al,%al
    1ec2:	0f 89 5c fd ff ff    	jns    1c24 <sb_dsp_start_playback+0x1f4>
    1ec8:	e9 68 fd ff ff       	jmp    1c35 <sb_dsp_start_playback+0x205>
    1ecd:	8d 76 00             	lea    0x0(%esi),%esi
    1ed0:	84 c0                	test   %al,%al
    1ed2:	0f 89 f4 fc ff ff    	jns    1bcc <sb_dsp_start_playback+0x19c>
    1ed8:	e9 03 fd ff ff       	jmp    1be0 <sb_dsp_start_playback+0x1b0>
    1edd:	8d 76 00             	lea    0x0(%esi),%esi
    1ee0:	89 f2                	mov    %esi,%edx
    1ee2:	84 c0                	test   %al,%al
    1ee4:	0f 89 44 fe ff ff    	jns    1d2e <sb_dsp_start_playback+0x2fe>
    1eea:	e9 50 fe ff ff       	jmp    1d3f <sb_dsp_start_playback+0x30f>
    1eef:	c7 45 e4 f2 ff ff ff 	movl   $0xfffffff2,-0x1c(%ebp)
    1ef6:	8b 45 e4             	mov    -0x1c(%ebp),%eax
    1ef9:	8d 65 f4             	lea    -0xc(%ebp),%esp
    1efc:	5b                   	pop    %ebx
    1efd:	5e                   	pop    %esi
    1efe:	5f                   	pop    %edi
    1eff:	5d                   	pop    %ebp
    1f00:	c3                   	ret    
    1f01:	8b 04 85 20 d1 00 00 	mov    0xd120(,%eax,4),%eax
    1f08:	68 b4 cb 00 00       	push   $0xcbb4
    1f0d:	50                   	push   %eax
    1f0e:	e9 3b ff ff ff       	jmp    1e4e <sb_dsp_start_playback+0x41e>
    1f13:	56                   	push   %esi
    1f14:	68 00 04 00 00       	push   $0x400
    1f19:	68 51 ca 00 00       	push   $0xca51
    1f1e:	6a 02                	push   $0x2
    1f20:	e8 0b 2c 00 00       	call   4b30 <ddf_msg>
    1f25:	8b 47 28             	mov    0x28(%edi),%eax
    1f28:	83 c4 10             	add    $0x10,%esp
    1f2b:	e9 c1 fe ff ff       	jmp    1df1 <sb_dsp_start_playback+0x3c1>
    1f30:	c7 45 e4 fe ff ff ff 	movl   $0xfffffffe,-0x1c(%ebp)
    1f37:	e9 6f fb ff ff       	jmp    1aab <sb_dsp_start_playback+0x7b>
    1f3c:	50                   	push   %eax
    1f3d:	68 96 01 00 00       	push   $0x196
    1f42:	68 3f ca 00 00       	push   $0xca3f
    1f47:	68 45 ca 00 00       	push   $0xca45
    1f4c:	e8 4f d9 00 00       	call   f8a0 <assert_abort@plt>
    1f51:	68 a1 cb 00 00       	push   $0xcba1
    1f56:	68 49 ca 00 00       	push   $0xca49
    1f5b:	e9 70 fe ff ff       	jmp    1dd0 <sb_dsp_start_playback+0x3a0>

00001f60 <sb_dsp_stop_playback>:
    1f60:	55                   	push   %ebp
    1f61:	89 e5                	mov    %esp,%ebp
    1f63:	56                   	push   %esi
    1f64:	53                   	push   %ebx
    1f65:	8b 75 08             	mov    0x8(%ebp),%esi
    1f68:	8b 55 0c             	mov    0xc(%ebp),%edx
    1f6b:	85 f6                	test   %esi,%esi
    1f6d:	0f 84 f5 01 00 00    	je     2168 <sb_dsp_stop_playback+0x208>
    1f73:	8b 46 20             	mov    0x20(%esi),%eax
    1f76:	a9 fd ff ff ff       	test   $0xfffffffd,%eax
    1f7b:	75 08                	jne    1f85 <sb_dsp_stop_playback+0x25>
    1f7d:	84 d2                	test   %dl,%dl
    1f7f:	0f 85 ab 00 00 00    	jne    2030 <sb_dsp_stop_playback+0xd0>
    1f85:	85 c0                	test   %eax,%eax
    1f87:	0f 85 af 01 00 00    	jne    213c <sb_dsp_stop_playback+0x1dc>
    1f8d:	84 d2                	test   %dl,%dl
    1f8f:	0f 85 be 01 00 00    	jne    2153 <sb_dsp_stop_playback+0x1f3>
    1f95:	83 ec 0c             	sub    $0xc,%esp
    1f98:	8b 06                	mov    (%esi),%eax
    1f9a:	83 c0 0c             	add    $0xc,%eax
    1f9d:	bb 63 00 00 00       	mov    $0x63,%ebx
    1fa2:	50                   	push   %eax
    1fa3:	e8 d8 d8 00 00       	call   f880 <pio_read_8@plt>
    1fa8:	83 c4 10             	add    $0x10,%esp
    1fab:	eb 1b                	jmp    1fc8 <sb_dsp_stop_playback+0x68>
    1fad:	8d 76 00             	lea    0x0(%esi),%esi
    1fb0:	83 ec 0c             	sub    $0xc,%esp
    1fb3:	8b 06                	mov    (%esi),%eax
    1fb5:	83 c0 0c             	add    $0xc,%eax
    1fb8:	50                   	push   %eax
    1fb9:	e8 c2 d8 00 00       	call   f880 <pio_read_8@plt>
    1fbe:	83 c4 10             	add    $0x10,%esp
    1fc1:	4b                   	dec    %ebx
    1fc2:	0f 84 60 01 00 00    	je     2128 <sb_dsp_stop_playback+0x1c8>
    1fc8:	84 c0                	test   %al,%al
    1fca:	78 e4                	js     1fb0 <sb_dsp_stop_playback+0x50>
    1fcc:	52                   	push   %edx
    1fcd:	52                   	push   %edx
    1fce:	8b 06                	mov    (%esi),%eax
    1fd0:	68 d9 00 00 00       	push   $0xd9
    1fd5:	83 c0 0c             	add    $0xc,%eax
    1fd8:	50                   	push   %eax
    1fd9:	e8 22 d9 00 00       	call   f900 <pio_write_8@plt>
    1fde:	83 c4 10             	add    $0x10,%esp
    1fe1:	50                   	push   %eax
    1fe2:	50                   	push   %eax
    1fe3:	68 e4 cb 00 00       	push   $0xcbe4
    1fe8:	6a 04                	push   $0x4
    1fea:	e8 41 2b 00 00       	call   4b30 <ddf_msg>
    1fef:	8b 56 20             	mov    0x20(%esi),%edx
    1ff2:	83 c4 10             	add    $0x10,%esp
    1ff5:	b8 49 ca 00 00       	mov    $0xca49,%eax
    1ffa:	83 fa 07             	cmp    $0x7,%edx
    1ffd:	77 07                	ja     2006 <sb_dsp_stop_playback+0xa6>
    1fff:	8b 04 95 20 d1 00 00 	mov    0xd120(,%edx,4),%eax
    2006:	68 a4 ca 00 00       	push   $0xcaa4
    200b:	50                   	push   %eax
    200c:	68 87 ca 00 00       	push   $0xca87
    2011:	6a 05                	push   $0x5
    2013:	e8 18 2b 00 00       	call   4b30 <ddf_msg>
    2018:	c7 46 20 04 00 00 00 	movl   $0x4,0x20(%esi)
    201f:	83 c4 10             	add    $0x10,%esp
    2022:	31 c0                	xor    %eax,%eax
    2024:	8d 65 f8             	lea    -0x8(%ebp),%esp
    2027:	5b                   	pop    %ebx
    2028:	5e                   	pop    %esi
    2029:	5d                   	pop    %ebp
    202a:	c3                   	ret    
    202b:	90                   	nop
    202c:	8d 74 26 00          	lea    0x0(%esi,%eiz,1),%esi
    2030:	83 ec 0c             	sub    $0xc,%esp
    2033:	8b 06                	mov    (%esi),%eax
    2035:	83 c0 0c             	add    $0xc,%eax
    2038:	bb 63 00 00 00       	mov    $0x63,%ebx
    203d:	50                   	push   %eax
    203e:	e8 3d d8 00 00       	call   f880 <pio_read_8@plt>
    2043:	83 c4 10             	add    $0x10,%esp
    2046:	eb 18                	jmp    2060 <sb_dsp_stop_playback+0x100>
    2048:	83 ec 0c             	sub    $0xc,%esp
    204b:	8b 06                	mov    (%esi),%eax
    204d:	83 c0 0c             	add    $0xc,%eax
    2050:	50                   	push   %eax
    2051:	e8 2a d8 00 00       	call   f880 <pio_read_8@plt>
    2056:	83 c4 10             	add    $0x10,%esp
    2059:	4b                   	dec    %ebx
    205a:	0f 84 e6 00 00 00    	je     2146 <sb_dsp_stop_playback+0x1e6>
    2060:	84 c0                	test   %al,%al
    2062:	78 e4                	js     2048 <sb_dsp_stop_playback+0xe8>
    2064:	50                   	push   %eax
    2065:	50                   	push   %eax
    2066:	8b 06                	mov    (%esi),%eax
    2068:	68 d5 00 00 00       	push   $0xd5
    206d:	83 c0 0c             	add    $0xc,%eax
    2070:	50                   	push   %eax
    2071:	e8 8a d8 00 00       	call   f900 <pio_write_8@plt>
    2076:	83 c4 10             	add    $0x10,%esp
    2079:	50                   	push   %eax
    207a:	50                   	push   %eax
    207b:	8b 06                	mov    (%esi),%eax
    207d:	6a 01                	push   $0x1
    207f:	83 c0 06             	add    $0x6,%eax
    2082:	50                   	push   %eax
    2083:	e8 78 d8 00 00       	call   f900 <pio_write_8@plt>
    2088:	c7 04 24 03 00 00 00 	movl   $0x3,(%esp)
    208f:	e8 3c d9 00 00       	call   f9d0 <udelay@plt>
    2094:	58                   	pop    %eax
    2095:	8b 06                	mov    (%esi),%eax
    2097:	83 c0 06             	add    $0x6,%eax
    209a:	5a                   	pop    %edx
    209b:	6a 00                	push   $0x0
    209d:	50                   	push   %eax
    209e:	e8 5d d8 00 00       	call   f900 <pio_write_8@plt>
    20a3:	c7 04 24 64 00 00 00 	movl   $0x64,(%esp)
    20aa:	e8 21 d9 00 00       	call   f9d0 <udelay@plt>
    20af:	59                   	pop    %ecx
    20b0:	5b                   	pop    %ebx
    20b1:	68 c8 cb 00 00       	push   $0xcbc8
    20b6:	6a 04                	push   $0x4
    20b8:	e8 73 2a 00 00       	call   4b30 <ddf_msg>
    20bd:	8b 56 20             	mov    0x20(%esi),%edx
    20c0:	83 c4 10             	add    $0x10,%esp
    20c3:	b8 49 ca 00 00       	mov    $0xca49,%eax
    20c8:	83 fa 07             	cmp    $0x7,%edx
    20cb:	77 07                	ja     20d4 <sb_dsp_stop_playback+0x174>
    20cd:	8b 04 95 20 d1 00 00 	mov    0xd120(,%edx,4),%eax
    20d4:	68 6f ca 00 00       	push   $0xca6f
    20d9:	50                   	push   %eax
    20da:	68 87 ca 00 00       	push   $0xca87
    20df:	6a 05                	push   $0x5
    20e1:	e8 4a 2a 00 00       	call   4b30 <ddf_msg>
    20e6:	8b 46 28             	mov    0x28(%esi),%eax
    20e9:	83 c4 10             	add    $0x10,%esp
    20ec:	c7 46 20 06 00 00 00 	movl   $0x6,0x20(%esi)
    20f3:	85 c0                	test   %eax,%eax
    20f5:	74 3e                	je     2135 <sb_dsp_stop_playback+0x1d5>
    20f7:	53                   	push   %ebx
    20f8:	8b 56 1c             	mov    0x1c(%esi),%edx
    20fb:	52                   	push   %edx
    20fc:	68 04 04 00 00       	push   $0x404
    2101:	50                   	push   %eax
    2102:	e8 a9 d8 00 00       	call   f9b0 <async_msg_1@plt>
    2107:	8b 5e 28             	mov    0x28(%esi),%ebx
    210a:	59                   	pop    %ecx
    210b:	53                   	push   %ebx
    210c:	e8 7f d7 00 00       	call   f890 <async_exchange_end@plt>
    2111:	c7 46 28 00 00 00 00 	movl   $0x0,0x28(%esi)
    2118:	83 c4 10             	add    $0x10,%esp
    211b:	8d 65 f8             	lea    -0x8(%ebp),%esp
    211e:	31 c0                	xor    %eax,%eax
    2120:	5b                   	pop    %ebx
    2121:	5e                   	pop    %esi
    2122:	5d                   	pop    %ebp
    2123:	c3                   	ret    
    2124:	8d 74 26 00          	lea    0x0(%esi,%eiz,1),%esi
    2128:	84 c0                	test   %al,%al
    212a:	0f 89 9c fe ff ff    	jns    1fcc <sb_dsp_stop_playback+0x6c>
    2130:	e9 ac fe ff ff       	jmp    1fe1 <sb_dsp_stop_playback+0x81>
    2135:	31 c0                	xor    %eax,%eax
    2137:	e9 e8 fe ff ff       	jmp    2024 <sb_dsp_stop_playback+0xc4>
    213c:	b8 f2 ff ff ff       	mov    $0xfffffff2,%eax
    2141:	e9 de fe ff ff       	jmp    2024 <sb_dsp_stop_playback+0xc4>
    2146:	84 c0                	test   %al,%al
    2148:	0f 89 16 ff ff ff    	jns    2064 <sb_dsp_stop_playback+0x104>
    214e:	e9 26 ff ff ff       	jmp    2079 <sb_dsp_stop_playback+0x119>
    2153:	51                   	push   %ecx
    2154:	68 d9 01 00 00       	push   $0x1d9
    2159:	68 3f ca 00 00       	push   $0xca3f
    215e:	68 d9 cb 00 00       	push   $0xcbd9
    2163:	e8 38 d7 00 00       	call   f8a0 <assert_abort@plt>
    2168:	50                   	push   %eax
    2169:	68 c6 01 00 00       	push   $0x1c6
    216e:	68 3f ca 00 00       	push   $0xca3f
    2173:	68 45 ca 00 00       	push   $0xca45
    2178:	e8 23 d7 00 00       	call   f8a0 <assert_abort@plt>
    217d:	8d 76 00             	lea    0x0(%esi),%esi

00002180 <sb_dsp_start_capture>:
    2180:	55                   	push   %ebp
    2181:	89 e5                	mov    %esp,%ebp
    2183:	57                   	push   %edi
    2184:	56                   	push   %esi
    2185:	53                   	push   %ebx
    2186:	83 ec 1c             	sub    $0x1c,%esp
    2189:	8b 7d 08             	mov    0x8(%ebp),%edi
    218c:	8b 75 10             	mov    0x10(%ebp),%esi
    218f:	8b 5d 18             	mov    0x18(%ebp),%ebx
    2192:	85 ff                	test   %edi,%edi
    2194:	0f 84 f2 04 00 00    	je     268c <sb_dsp_start_capture+0x50c>
    219a:	8b 47 10             	mov    0x10(%edi),%eax
    219d:	85 c0                	test   %eax,%eax
    219f:	0f 84 9a 04 00 00    	je     263f <sb_dsp_start_capture+0x4bf>
    21a5:	83 7f 20 06          	cmpl   $0x6,0x20(%edi)
    21a9:	0f 85 90 04 00 00    	jne    263f <sb_dsp_start_capture+0x4bf>
    21af:	b8 71 cb 00 00       	mov    $0xcb71,%eax
    21b4:	83 fb 12             	cmp    $0x12,%ebx
    21b7:	76 4f                	jbe    2208 <sb_dsp_start_capture+0x88>
    21b9:	8b 4d 14             	mov    0x14(%ebp),%ecx
    21bc:	52                   	push   %edx
    21bd:	52                   	push   %edx
    21be:	56                   	push   %esi
    21bf:	50                   	push   %eax
    21c0:	8b 45 0c             	mov    0xc(%ebp),%eax
    21c3:	51                   	push   %ecx
    21c4:	50                   	push   %eax
    21c5:	68 98 ce 00 00       	push   $0xce98
    21ca:	6a 04                	push   $0x4
    21cc:	e8 5f 29 00 00       	call   4b30 <ddf_msg>
    21d1:	8d 46 ff             	lea    -0x1(%esi),%eax
    21d4:	83 c4 20             	add    $0x20,%esp
    21d7:	83 f8 01             	cmp    $0x1,%eax
    21da:	0f 86 e0 03 00 00    	jbe    25c0 <sb_dsp_start_capture+0x440>
    21e0:	be 02 00 00 00       	mov    $0x2,%esi
    21e5:	c7 45 e4 fd ff ff ff 	movl   $0xfffffffd,-0x1c(%ebp)
    21ec:	8d 43 fe             	lea    -0x2(%ebx),%eax
    21ef:	83 e0 fd             	and    $0xfffffffd,%eax
    21f2:	74 24                	je     2218 <sb_dsp_start_capture+0x98>
    21f4:	c7 45 e4 f5 ff ff ff 	movl   $0xfffffff5,-0x1c(%ebp)
    21fb:	8b 45 e4             	mov    -0x1c(%ebp),%eax
    21fe:	8d 65 f4             	lea    -0xc(%ebp),%esp
    2201:	5b                   	pop    %ebx
    2202:	5e                   	pop    %esi
    2203:	5f                   	pop    %edi
    2204:	5d                   	pop    %ebp
    2205:	c3                   	ret    
    2206:	66 90                	xchg   %ax,%ax
    2208:	8b 04 9d c0 d0 00 00 	mov    0xd0c0(,%ebx,4),%eax
    220f:	eb a8                	jmp    21b9 <sb_dsp_start_capture+0x39>
    2211:	8d b4 26 00 00 00 00 	lea    0x0(%esi,%eiz,1),%esi
    2218:	8b 45 14             	mov    0x14(%ebp),%eax
    221b:	2d 88 13 00 00       	sub    $0x1388,%eax
    2220:	3d bc 98 00 00       	cmp    $0x98bc,%eax
    2225:	77 cd                	ja     21f4 <sb_dsp_start_capture+0x74>
    2227:	8b 4d e4             	mov    -0x1c(%ebp),%ecx
    222a:	85 c9                	test   %ecx,%ecx
    222c:	75 c6                	jne    21f4 <sb_dsp_start_capture+0x74>
    222e:	8b 55 0c             	mov    0xc(%ebp),%edx
    2231:	8b 47 24             	mov    0x24(%edi),%eax
    2234:	85 d2                	test   %edx,%edx
    2236:	0f 84 3c 03 00 00    	je     2578 <sb_dsp_start_capture+0x3f8>
    223c:	85 c0                	test   %eax,%eax
    223e:	0f 84 fb 03 00 00    	je     263f <sb_dsp_start_capture+0x4bf>
    2244:	83 ec 0c             	sub    $0xc,%esp
    2247:	50                   	push   %eax
    2248:	e8 93 d8 00 00       	call   fae0 <async_exchange_begin@plt>
    224d:	83 c4 10             	add    $0x10,%esp
    2250:	89 47 28             	mov    %eax,0x28(%edi)
    2253:	85 c0                	test   %eax,%eax
    2255:	0f 84 25 04 00 00    	je     2680 <sb_dsp_start_capture+0x500>
    225b:	83 fb 11             	cmp    $0x11,%ebx
    225e:	0f 87 fc 02 00 00    	ja     2560 <sb_dsp_start_capture+0x3e0>
    2264:	ff 24 9d 48 d0 00 00 	jmp    *0xd048(,%ebx,4)
    226b:	90                   	nop
    226c:	8d 74 26 00          	lea    0x0(%esi,%eiz,1),%esi
    2270:	b1 30                	mov    $0x30,%cl
    2272:	b0 10                	mov    $0x10,%al
    2274:	83 fe 02             	cmp    $0x2,%esi
    2277:	0f 84 f0 02 00 00    	je     256d <sb_dsp_start_capture+0x3ed>
    227d:	88 47 18             	mov    %al,0x18(%edi)
    2280:	8b 45 0c             	mov    0xc(%ebp),%eax
    2283:	0f af f0             	imul   %eax,%esi
    2286:	83 ec 0c             	sub    $0xc,%esp
    2289:	8b 07                	mov    (%edi),%eax
    228b:	83 c0 0c             	add    $0xc,%eax
    228e:	66 89 77 1a          	mov    %si,0x1a(%edi)
    2292:	c7 47 1c 00 00 00 00 	movl   $0x0,0x1c(%edi)
    2299:	50                   	push   %eax
    229a:	bb 63 00 00 00       	mov    $0x63,%ebx
    229f:	e8 dc d5 00 00       	call   f880 <pio_read_8@plt>
    22a4:	83 c4 10             	add    $0x10,%esp
    22a7:	eb 1f                	jmp    22c8 <sb_dsp_start_capture+0x148>
    22a9:	8d b4 26 00 00 00 00 	lea    0x0(%esi,%eiz,1),%esi
    22b0:	83 ec 0c             	sub    $0xc,%esp
    22b3:	8b 07                	mov    (%edi),%eax
    22b5:	83 c0 0c             	add    $0xc,%eax
    22b8:	50                   	push   %eax
    22b9:	e8 c2 d5 00 00       	call   f880 <pio_read_8@plt>
    22be:	83 c4 10             	add    $0x10,%esp
    22c1:	4b                   	dec    %ebx
    22c2:	0f 84 08 03 00 00    	je     25d0 <sb_dsp_start_capture+0x450>
    22c8:	84 c0                	test   %al,%al
    22ca:	78 e4                	js     22b0 <sb_dsp_start_capture+0x130>
    22cc:	50                   	push   %eax
    22cd:	50                   	push   %eax
    22ce:	8b 07                	mov    (%edi),%eax
    22d0:	6a 41                	push   $0x41
    22d2:	83 c0 0c             	add    $0xc,%eax
    22d5:	50                   	push   %eax
    22d6:	e8 25 d6 00 00       	call   f900 <pio_write_8@plt>
    22db:	83 c4 10             	add    $0x10,%esp
    22de:	8b 45 14             	mov    0x14(%ebp),%eax
    22e1:	83 ec 0c             	sub    $0xc,%esp
    22e4:	c1 e8 08             	shr    $0x8,%eax
    22e7:	bb 63 00 00 00       	mov    $0x63,%ebx
    22ec:	89 45 e0             	mov    %eax,-0x20(%ebp)
    22ef:	8b 07                	mov    (%edi),%eax
    22f1:	83 c0 0c             	add    $0xc,%eax
    22f4:	50                   	push   %eax
    22f5:	e8 86 d5 00 00       	call   f880 <pio_read_8@plt>
    22fa:	83 c4 10             	add    $0x10,%esp
    22fd:	eb 19                	jmp    2318 <sb_dsp_start_capture+0x198>
    22ff:	90                   	nop
    2300:	83 ec 0c             	sub    $0xc,%esp
    2303:	8b 07                	mov    (%edi),%eax
    2305:	83 c0 0c             	add    $0xc,%eax
    2308:	50                   	push   %eax
    2309:	e8 72 d5 00 00       	call   f880 <pio_read_8@plt>
    230e:	83 c4 10             	add    $0x10,%esp
    2311:	4b                   	dec    %ebx
    2312:	0f 84 08 03 00 00    	je     2620 <sb_dsp_start_capture+0x4a0>
    2318:	84 c0                	test   %al,%al
    231a:	78 e4                	js     2300 <sb_dsp_start_capture+0x180>
    231c:	53                   	push   %ebx
    231d:	53                   	push   %ebx
    231e:	8b 07                	mov    (%edi),%eax
    2320:	8b 75 e0             	mov    -0x20(%ebp),%esi
    2323:	83 c0 0c             	add    $0xc,%eax
    2326:	56                   	push   %esi
    2327:	50                   	push   %eax
    2328:	e8 d3 d5 00 00       	call   f900 <pio_write_8@plt>
    232d:	83 c4 10             	add    $0x10,%esp
    2330:	83 ec 0c             	sub    $0xc,%esp
    2333:	8b 07                	mov    (%edi),%eax
    2335:	0f b6 75 14          	movzbl 0x14(%ebp),%esi
    2339:	83 c0 0c             	add    $0xc,%eax
    233c:	81 e6 ff 00 00 00    	and    $0xff,%esi
    2342:	50                   	push   %eax
    2343:	bb 63 00 00 00       	mov    $0x63,%ebx
    2348:	e8 33 d5 00 00       	call   f880 <pio_read_8@plt>
    234d:	83 c4 10             	add    $0x10,%esp
    2350:	eb 1e                	jmp    2370 <sb_dsp_start_capture+0x1f0>
    2352:	8d b6 00 00 00 00    	lea    0x0(%esi),%esi
    2358:	83 ec 0c             	sub    $0xc,%esp
    235b:	8b 07                	mov    (%edi),%eax
    235d:	83 c0 0c             	add    $0xc,%eax
    2360:	50                   	push   %eax
    2361:	e8 1a d5 00 00       	call   f880 <pio_read_8@plt>
    2366:	83 c4 10             	add    $0x10,%esp
    2369:	4b                   	dec    %ebx
    236a:	0f 84 a0 02 00 00    	je     2610 <sb_dsp_start_capture+0x490>
    2370:	84 c0                	test   %al,%al
    2372:	78 e4                	js     2358 <sb_dsp_start_capture+0x1d8>
    2374:	51                   	push   %ecx
    2375:	51                   	push   %ecx
    2376:	8b 07                	mov    (%edi),%eax
    2378:	56                   	push   %esi
    2379:	83 c0 0c             	add    $0xc,%eax
    237c:	50                   	push   %eax
    237d:	e8 7e d5 00 00       	call   f900 <pio_write_8@plt>
    2382:	83 c4 10             	add    $0x10,%esp
    2385:	8b 55 e0             	mov    -0x20(%ebp),%edx
    2388:	56                   	push   %esi
    2389:	52                   	push   %edx
    238a:	68 87 cb 00 00       	push   $0xcb87
    238f:	6a 05                	push   $0x5
    2391:	e8 9a 27 00 00       	call   4b30 <ddf_msg>
    2396:	8b 07                	mov    (%edi),%eax
    2398:	bb 63 00 00 00       	mov    $0x63,%ebx
    239d:	83 c0 0c             	add    $0xc,%eax
    23a0:	89 04 24             	mov    %eax,(%esp)
    23a3:	e8 d8 d4 00 00       	call   f880 <pio_read_8@plt>
    23a8:	83 c4 10             	add    $0x10,%esp
    23ab:	eb 1b                	jmp    23c8 <sb_dsp_start_capture+0x248>
    23ad:	8d 76 00             	lea    0x0(%esi),%esi
    23b0:	83 ec 0c             	sub    $0xc,%esp
    23b3:	8b 07                	mov    (%edi),%eax
    23b5:	83 c0 0c             	add    $0xc,%eax
    23b8:	50                   	push   %eax
    23b9:	e8 c2 d4 00 00       	call   f880 <pio_read_8@plt>
    23be:	83 c4 10             	add    $0x10,%esp
    23c1:	4b                   	dec    %ebx
    23c2:	0f 84 38 02 00 00    	je     2600 <sb_dsp_start_capture+0x480>
    23c8:	84 c0                	test   %al,%al
    23ca:	78 e4                	js     23b0 <sb_dsp_start_capture+0x230>
    23cc:	50                   	push   %eax
    23cd:	50                   	push   %eax
    23ce:	8b 07                	mov    (%edi),%eax
    23d0:	68 be 00 00 00       	push   $0xbe
    23d5:	83 c0 0c             	add    $0xc,%eax
    23d8:	50                   	push   %eax
    23d9:	e8 22 d5 00 00       	call   f900 <pio_write_8@plt>
    23de:	83 c4 10             	add    $0x10,%esp
    23e1:	83 ec 0c             	sub    $0xc,%esp
    23e4:	8b 07                	mov    (%edi),%eax
    23e6:	0f b6 77 18          	movzbl 0x18(%edi),%esi
    23ea:	83 c0 0c             	add    $0xc,%eax
    23ed:	81 e6 ff 00 00 00    	and    $0xff,%esi
    23f3:	50                   	push   %eax
    23f4:	bb 63 00 00 00       	mov    $0x63,%ebx
    23f9:	e8 82 d4 00 00       	call   f880 <pio_read_8@plt>
    23fe:	83 c4 10             	add    $0x10,%esp
    2401:	eb 1d                	jmp    2420 <sb_dsp_start_capture+0x2a0>
    2403:	90                   	nop
    2404:	8d 74 26 00          	lea    0x0(%esi,%eiz,1),%esi
    2408:	83 ec 0c             	sub    $0xc,%esp
    240b:	8b 07                	mov    (%edi),%eax
    240d:	83 c0 0c             	add    $0xc,%eax
    2410:	50                   	push   %eax
    2411:	e8 6a d4 00 00       	call   f880 <pio_read_8@plt>
    2416:	83 c4 10             	add    $0x10,%esp
    2419:	4b                   	dec    %ebx
    241a:	0f 84 d0 01 00 00    	je     25f0 <sb_dsp_start_capture+0x470>
    2420:	84 c0                	test   %al,%al
    2422:	78 e4                	js     2408 <sb_dsp_start_capture+0x288>
    2424:	50                   	push   %eax
    2425:	50                   	push   %eax
    2426:	8b 07                	mov    (%edi),%eax
    2428:	56                   	push   %esi
    2429:	83 c0 0c             	add    $0xc,%eax
    242c:	50                   	push   %eax
    242d:	e8 ce d4 00 00       	call   f900 <pio_write_8@plt>
    2432:	83 c4 10             	add    $0x10,%esp
    2435:	8a 47 1a             	mov    0x1a(%edi),%al
    2438:	83 ec 0c             	sub    $0xc,%esp
    243b:	bb 63 00 00 00       	mov    $0x63,%ebx
    2440:	8d 70 ff             	lea    -0x1(%eax),%esi
    2443:	89 f0                	mov    %esi,%eax
    2445:	25 ff 00 00 00       	and    $0xff,%eax
    244a:	89 c6                	mov    %eax,%esi
    244c:	8b 07                	mov    (%edi),%eax
    244e:	83 c0 0c             	add    $0xc,%eax
    2451:	50                   	push   %eax
    2452:	e8 29 d4 00 00       	call   f880 <pio_read_8@plt>
    2457:	83 c4 10             	add    $0x10,%esp
    245a:	eb 1c                	jmp    2478 <sb_dsp_start_capture+0x2f8>
    245c:	8d 74 26 00          	lea    0x0(%esi,%eiz,1),%esi
    2460:	83 ec 0c             	sub    $0xc,%esp
    2463:	8b 07                	mov    (%edi),%eax
    2465:	83 c0 0c             	add    $0xc,%eax
    2468:	50                   	push   %eax
    2469:	e8 12 d4 00 00       	call   f880 <pio_read_8@plt>
    246e:	83 c4 10             	add    $0x10,%esp
    2471:	4b                   	dec    %ebx
    2472:	0f 84 b8 01 00 00    	je     2630 <sb_dsp_start_capture+0x4b0>
    2478:	84 c0                	test   %al,%al
    247a:	78 e4                	js     2460 <sb_dsp_start_capture+0x2e0>
    247c:	89 f2                	mov    %esi,%edx
    247e:	50                   	push   %eax
    247f:	50                   	push   %eax
    2480:	8b 07                	mov    (%edi),%eax
    2482:	52                   	push   %edx
    2483:	83 c0 0c             	add    $0xc,%eax
    2486:	50                   	push   %eax
    2487:	e8 74 d4 00 00       	call   f900 <pio_write_8@plt>
    248c:	83 c4 10             	add    $0x10,%esp
    248f:	31 f6                	xor    %esi,%esi
    2491:	83 ec 0c             	sub    $0xc,%esp
    2494:	66 8b 77 1a          	mov    0x1a(%edi),%si
    2498:	bb 63 00 00 00       	mov    $0x63,%ebx
    249d:	8d 46 ff             	lea    -0x1(%esi),%eax
    24a0:	0f b6 f4             	movzbl %ah,%esi
    24a3:	8b 07                	mov    (%edi),%eax
    24a5:	83 c0 0c             	add    $0xc,%eax
    24a8:	50                   	push   %eax
    24a9:	e8 d2 d3 00 00       	call   f880 <pio_read_8@plt>
    24ae:	83 c4 10             	add    $0x10,%esp
    24b1:	eb 1d                	jmp    24d0 <sb_dsp_start_capture+0x350>
    24b3:	90                   	nop
    24b4:	8d 74 26 00          	lea    0x0(%esi,%eiz,1),%esi
    24b8:	83 ec 0c             	sub    $0xc,%esp
    24bb:	8b 07                	mov    (%edi),%eax
    24bd:	83 c0 0c             	add    $0xc,%eax
    24c0:	50                   	push   %eax
    24c1:	e8 ba d3 00 00       	call   f880 <pio_read_8@plt>
    24c6:	83 c4 10             	add    $0x10,%esp
    24c9:	4b                   	dec    %ebx
    24ca:	0f 84 10 01 00 00    	je     25e0 <sb_dsp_start_capture+0x460>
    24d0:	84 c0                	test   %al,%al
    24d2:	78 e4                	js     24b8 <sb_dsp_start_capture+0x338>
    24d4:	50                   	push   %eax
    24d5:	50                   	push   %eax
    24d6:	8b 07                	mov    (%edi),%eax
    24d8:	56                   	push   %esi
    24d9:	83 c0 0c             	add    $0xc,%eax
    24dc:	50                   	push   %eax
    24dd:	e8 1e d4 00 00       	call   f900 <pio_write_8@plt>
    24e2:	83 c4 10             	add    $0x10,%esp
    24e5:	50                   	push   %eax
    24e6:	31 c0                	xor    %eax,%eax
    24e8:	66 8b 47 1a          	mov    0x1a(%edi),%ax
    24ec:	50                   	push   %eax
    24ed:	68 d0 ce 00 00       	push   $0xced0
    24f2:	6a 05                	push   $0x5
    24f4:	e8 37 26 00 00       	call   4b30 <ddf_msg>
    24f9:	8b 45 0c             	mov    0xc(%ebp),%eax
    24fc:	83 c4 10             	add    $0x10,%esp
    24ff:	85 c0                	test   %eax,%eax
    2501:	0f 84 81 00 00 00    	je     2588 <sb_dsp_start_capture+0x408>
    2507:	8b 47 20             	mov    0x20(%edi),%eax
    250a:	83 f8 07             	cmp    $0x7,%eax
    250d:	0f 87 8e 01 00 00    	ja     26a1 <sb_dsp_start_capture+0x521>
    2513:	8b 14 85 20 d1 00 00 	mov    0xd120(,%eax,4),%edx
    251a:	68 fb cb 00 00       	push   $0xcbfb
    251f:	52                   	push   %edx
    2520:	68 87 ca 00 00       	push   $0xca87
    2525:	6a 05                	push   $0x5
    2527:	e8 04 26 00 00       	call   4b30 <ddf_msg>
    252c:	8b 47 28             	mov    0x28(%edi),%eax
    252f:	83 c4 10             	add    $0x10,%esp
    2532:	c7 47 20 01 00 00 00 	movl   $0x1,0x20(%edi)
    2539:	85 c0                	test   %eax,%eax
    253b:	0f 84 22 01 00 00    	je     2663 <sb_dsp_start_capture+0x4e3>
    2541:	51                   	push   %ecx
    2542:	8b 5f 1c             	mov    0x1c(%edi),%ebx
    2545:	53                   	push   %ebx
    2546:	68 01 04 00 00       	push   $0x401
    254b:	50                   	push   %eax
    254c:	e8 5f d4 00 00       	call   f9b0 <async_msg_1@plt>
    2551:	8b 45 e4             	mov    -0x1c(%ebp),%eax
    2554:	83 c4 10             	add    $0x10,%esp
    2557:	8d 65 f4             	lea    -0xc(%ebp),%esp
    255a:	5b                   	pop    %ebx
    255b:	5e                   	pop    %esi
    255c:	5f                   	pop    %edi
    255d:	5d                   	pop    %ebp
    255e:	c3                   	ret    
    255f:	90                   	nop
    2560:	31 c0                	xor    %eax,%eax
    2562:	b1 20                	mov    $0x20,%cl
    2564:	83 fe 02             	cmp    $0x2,%esi
    2567:	0f 85 10 fd ff ff    	jne    227d <sb_dsp_start_capture+0xfd>
    256d:	88 c8                	mov    %cl,%al
    256f:	e9 09 fd ff ff       	jmp    227d <sb_dsp_start_capture+0xfd>
    2574:	8d 74 26 00          	lea    0x0(%esi,%eiz,1),%esi
    2578:	85 c0                	test   %eax,%eax
    257a:	0f 84 db fc ff ff    	je     225b <sb_dsp_start_capture+0xdb>
    2580:	e9 bf fc ff ff       	jmp    2244 <sb_dsp_start_capture+0xc4>
    2585:	8d 76 00             	lea    0x0(%esi),%esi
    2588:	8b 47 20             	mov    0x20(%edi),%eax
    258b:	83 f8 07             	cmp    $0x7,%eax
    258e:	0f 86 bd 00 00 00    	jbe    2651 <sb_dsp_start_capture+0x4d1>
    2594:	68 0d cc 00 00       	push   $0xcc0d
    2599:	68 49 ca 00 00       	push   $0xca49
    259e:	68 87 ca 00 00       	push   $0xca87
    25a3:	6a 05                	push   $0x5
    25a5:	e8 86 25 00 00       	call   4b30 <ddf_msg>
    25aa:	c7 47 20 03 00 00 00 	movl   $0x3,0x20(%edi)
    25b1:	8b 45 e4             	mov    -0x1c(%ebp),%eax
    25b4:	83 c4 10             	add    $0x10,%esp
    25b7:	8d 65 f4             	lea    -0xc(%ebp),%esp
    25ba:	5b                   	pop    %ebx
    25bb:	5e                   	pop    %esi
    25bc:	5f                   	pop    %edi
    25bd:	5d                   	pop    %ebp
    25be:	c3                   	ret    
    25bf:	90                   	nop
    25c0:	c7 45 e4 00 00 00 00 	movl   $0x0,-0x1c(%ebp)
    25c7:	e9 20 fc ff ff       	jmp    21ec <sb_dsp_start_capture+0x6c>
    25cc:	8d 74 26 00          	lea    0x0(%esi,%eiz,1),%esi
    25d0:	84 c0                	test   %al,%al
    25d2:	0f 89 f4 fc ff ff    	jns    22cc <sb_dsp_start_capture+0x14c>
    25d8:	e9 01 fd ff ff       	jmp    22de <sb_dsp_start_capture+0x15e>
    25dd:	8d 76 00             	lea    0x0(%esi),%esi
    25e0:	84 c0                	test   %al,%al
    25e2:	0f 89 ec fe ff ff    	jns    24d4 <sb_dsp_start_capture+0x354>
    25e8:	e9 f8 fe ff ff       	jmp    24e5 <sb_dsp_start_capture+0x365>
    25ed:	8d 76 00             	lea    0x0(%esi),%esi
    25f0:	84 c0                	test   %al,%al
    25f2:	0f 89 2c fe ff ff    	jns    2424 <sb_dsp_start_capture+0x2a4>
    25f8:	e9 38 fe ff ff       	jmp    2435 <sb_dsp_start_capture+0x2b5>
    25fd:	8d 76 00             	lea    0x0(%esi),%esi
    2600:	84 c0                	test   %al,%al
    2602:	0f 89 c4 fd ff ff    	jns    23cc <sb_dsp_start_capture+0x24c>
    2608:	e9 d4 fd ff ff       	jmp    23e1 <sb_dsp_start_capture+0x261>
    260d:	8d 76 00             	lea    0x0(%esi),%esi
    2610:	84 c0                	test   %al,%al
    2612:	0f 89 5c fd ff ff    	jns    2374 <sb_dsp_start_capture+0x1f4>
    2618:	e9 68 fd ff ff       	jmp    2385 <sb_dsp_start_capture+0x205>
    261d:	8d 76 00             	lea    0x0(%esi),%esi
    2620:	84 c0                	test   %al,%al
    2622:	0f 89 f4 fc ff ff    	jns    231c <sb_dsp_start_capture+0x19c>
    2628:	e9 03 fd ff ff       	jmp    2330 <sb_dsp_start_capture+0x1b0>
    262d:	8d 76 00             	lea    0x0(%esi),%esi
    2630:	89 f2                	mov    %esi,%edx
    2632:	84 c0                	test   %al,%al
    2634:	0f 89 44 fe ff ff    	jns    247e <sb_dsp_start_capture+0x2fe>
    263a:	e9 50 fe ff ff       	jmp    248f <sb_dsp_start_capture+0x30f>
    263f:	c7 45 e4 f2 ff ff ff 	movl   $0xfffffff2,-0x1c(%ebp)
    2646:	8b 45 e4             	mov    -0x1c(%ebp),%eax
    2649:	8d 65 f4             	lea    -0xc(%ebp),%esp
    264c:	5b                   	pop    %ebx
    264d:	5e                   	pop    %esi
    264e:	5f                   	pop    %edi
    264f:	5d                   	pop    %ebp
    2650:	c3                   	ret    
    2651:	8b 04 85 20 d1 00 00 	mov    0xd120(,%eax,4),%eax
    2658:	68 0d cc 00 00       	push   $0xcc0d
    265d:	50                   	push   %eax
    265e:	e9 3b ff ff ff       	jmp    259e <sb_dsp_start_capture+0x41e>
    2663:	56                   	push   %esi
    2664:	68 01 04 00 00       	push   $0x401
    2669:	68 51 ca 00 00       	push   $0xca51
    266e:	6a 02                	push   $0x2
    2670:	e8 bb 24 00 00       	call   4b30 <ddf_msg>
    2675:	8b 47 28             	mov    0x28(%edi),%eax
    2678:	83 c4 10             	add    $0x10,%esp
    267b:	e9 c1 fe ff ff       	jmp    2541 <sb_dsp_start_capture+0x3c1>
    2680:	c7 45 e4 fe ff ff ff 	movl   $0xfffffffe,-0x1c(%ebp)
    2687:	e9 6f fb ff ff       	jmp    21fb <sb_dsp_start_capture+0x7b>
    268c:	50                   	push   %eax
    268d:	68 e5 01 00 00       	push   $0x1e5
    2692:	68 3f ca 00 00       	push   $0xca3f
    2697:	68 45 ca 00 00       	push   $0xca45
    269c:	e8 ff d1 00 00       	call   f8a0 <assert_abort@plt>
    26a1:	68 fb cb 00 00       	push   $0xcbfb
    26a6:	68 49 ca 00 00       	push   $0xca49
    26ab:	e9 70 fe ff ff       	jmp    2520 <sb_dsp_start_capture+0x3a0>

000026b0 <sb_dsp_stop_capture>:
    26b0:	55                   	push   %ebp
    26b1:	89 e5                	mov    %esp,%ebp
    26b3:	56                   	push   %esi
    26b4:	53                   	push   %ebx
    26b5:	8b 75 08             	mov    0x8(%ebp),%esi
    26b8:	8b 55 0c             	mov    0xc(%ebp),%edx
    26bb:	85 f6                	test   %esi,%esi
    26bd:	0f 84 f5 01 00 00    	je     28b8 <sb_dsp_stop_capture+0x208>
    26c3:	8b 46 20             	mov    0x20(%esi),%eax
    26c6:	89 c1                	mov    %eax,%ecx
    26c8:	83 e1 fd             	and    $0xfffffffd,%ecx
    26cb:	49                   	dec    %ecx
    26cc:	75 08                	jne    26d6 <sb_dsp_stop_capture+0x26>
    26ce:	84 d2                	test   %dl,%dl
    26d0:	0f 85 aa 00 00 00    	jne    2780 <sb_dsp_stop_capture+0xd0>
    26d6:	48                   	dec    %eax
    26d7:	0f 85 a8 01 00 00    	jne    2885 <sb_dsp_stop_capture+0x1d5>
    26dd:	84 d2                	test   %dl,%dl
    26df:	0f 85 be 01 00 00    	jne    28a3 <sb_dsp_stop_capture+0x1f3>
    26e5:	83 ec 0c             	sub    $0xc,%esp
    26e8:	8b 06                	mov    (%esi),%eax
    26ea:	83 c0 0c             	add    $0xc,%eax
    26ed:	bb 63 00 00 00       	mov    $0x63,%ebx
    26f2:	50                   	push   %eax
    26f3:	e8 88 d1 00 00       	call   f880 <pio_read_8@plt>
    26f8:	83 c4 10             	add    $0x10,%esp
    26fb:	eb 1b                	jmp    2718 <sb_dsp_stop_capture+0x68>
    26fd:	8d 76 00             	lea    0x0(%esi),%esi
    2700:	83 ec 0c             	sub    $0xc,%esp
    2703:	8b 06                	mov    (%esi),%eax
    2705:	83 c0 0c             	add    $0xc,%eax
    2708:	50                   	push   %eax
    2709:	e8 72 d1 00 00       	call   f880 <pio_read_8@plt>
    270e:	83 c4 10             	add    $0x10,%esp
    2711:	4b                   	dec    %ebx
    2712:	0f 84 60 01 00 00    	je     2878 <sb_dsp_stop_capture+0x1c8>
    2718:	84 c0                	test   %al,%al
    271a:	78 e4                	js     2700 <sb_dsp_stop_capture+0x50>
    271c:	52                   	push   %edx
    271d:	52                   	push   %edx
    271e:	8b 06                	mov    (%esi),%eax
    2720:	68 d9 00 00 00       	push   $0xd9
    2725:	83 c0 0c             	add    $0xc,%eax
    2728:	50                   	push   %eax
    2729:	e8 d2 d1 00 00       	call   f900 <pio_write_8@plt>
    272e:	83 c4 10             	add    $0x10,%esp
    2731:	50                   	push   %eax
    2732:	50                   	push   %eax
    2733:	68 39 cc 00 00       	push   $0xcc39
    2738:	6a 04                	push   $0x4
    273a:	e8 f1 23 00 00       	call   4b30 <ddf_msg>
    273f:	8b 56 20             	mov    0x20(%esi),%edx
    2742:	83 c4 10             	add    $0x10,%esp
    2745:	b8 49 ca 00 00       	mov    $0xca49,%eax
    274a:	83 fa 07             	cmp    $0x7,%edx
    274d:	77 07                	ja     2756 <sb_dsp_stop_capture+0xa6>
    274f:	8b 04 95 20 d1 00 00 	mov    0xd120(,%edx,4),%eax
    2756:	68 75 ca 00 00       	push   $0xca75
    275b:	50                   	push   %eax
    275c:	68 87 ca 00 00       	push   $0xca87
    2761:	6a 05                	push   $0x5
    2763:	e8 c8 23 00 00       	call   4b30 <ddf_msg>
    2768:	c7 46 20 05 00 00 00 	movl   $0x5,0x20(%esi)
    276f:	83 c4 10             	add    $0x10,%esp
    2772:	31 c0                	xor    %eax,%eax
    2774:	8d 65 f8             	lea    -0x8(%ebp),%esp
    2777:	5b                   	pop    %ebx
    2778:	5e                   	pop    %esi
    2779:	5d                   	pop    %ebp
    277a:	c3                   	ret    
    277b:	90                   	nop
    277c:	8d 74 26 00          	lea    0x0(%esi,%eiz,1),%esi
    2780:	83 ec 0c             	sub    $0xc,%esp
    2783:	8b 06                	mov    (%esi),%eax
    2785:	83 c0 0c             	add    $0xc,%eax
    2788:	bb 63 00 00 00       	mov    $0x63,%ebx
    278d:	50                   	push   %eax
    278e:	e8 ed d0 00 00       	call   f880 <pio_read_8@plt>
    2793:	83 c4 10             	add    $0x10,%esp
    2796:	eb 18                	jmp    27b0 <sb_dsp_stop_capture+0x100>
    2798:	83 ec 0c             	sub    $0xc,%esp
    279b:	8b 06                	mov    (%esi),%eax
    279d:	83 c0 0c             	add    $0xc,%eax
    27a0:	50                   	push   %eax
    27a1:	e8 da d0 00 00       	call   f880 <pio_read_8@plt>
    27a6:	83 c4 10             	add    $0x10,%esp
    27a9:	4b                   	dec    %ebx
    27aa:	0f 84 e6 00 00 00    	je     2896 <sb_dsp_stop_capture+0x1e6>
    27b0:	84 c0                	test   %al,%al
    27b2:	78 e4                	js     2798 <sb_dsp_stop_capture+0xe8>
    27b4:	50                   	push   %eax
    27b5:	50                   	push   %eax
    27b6:	8b 06                	mov    (%esi),%eax
    27b8:	68 d5 00 00 00       	push   $0xd5
    27bd:	83 c0 0c             	add    $0xc,%eax
    27c0:	50                   	push   %eax
    27c1:	e8 3a d1 00 00       	call   f900 <pio_write_8@plt>
    27c6:	83 c4 10             	add    $0x10,%esp
    27c9:	50                   	push   %eax
    27ca:	50                   	push   %eax
    27cb:	8b 06                	mov    (%esi),%eax
    27cd:	6a 01                	push   $0x1
    27cf:	83 c0 06             	add    $0x6,%eax
    27d2:	50                   	push   %eax
    27d3:	e8 28 d1 00 00       	call   f900 <pio_write_8@plt>
    27d8:	c7 04 24 03 00 00 00 	movl   $0x3,(%esp)
    27df:	e8 ec d1 00 00       	call   f9d0 <udelay@plt>
    27e4:	58                   	pop    %eax
    27e5:	8b 06                	mov    (%esi),%eax
    27e7:	83 c0 06             	add    $0x6,%eax
    27ea:	5a                   	pop    %edx
    27eb:	6a 00                	push   $0x0
    27ed:	50                   	push   %eax
    27ee:	e8 0d d1 00 00       	call   f900 <pio_write_8@plt>
    27f3:	c7 04 24 64 00 00 00 	movl   $0x64,(%esp)
    27fa:	e8 d1 d1 00 00       	call   f9d0 <udelay@plt>
    27ff:	59                   	pop    %ecx
    2800:	5b                   	pop    %ebx
    2801:	68 20 cc 00 00       	push   $0xcc20
    2806:	6a 04                	push   $0x4
    2808:	e8 23 23 00 00       	call   4b30 <ddf_msg>
    280d:	8b 56 20             	mov    0x20(%esi),%edx
    2810:	83 c4 10             	add    $0x10,%esp
    2813:	b8 49 ca 00 00       	mov    $0xca49,%eax
    2818:	83 fa 07             	cmp    $0x7,%edx
    281b:	77 07                	ja     2824 <sb_dsp_stop_capture+0x174>
    281d:	8b 04 95 20 d1 00 00 	mov    0xd120(,%edx,4),%eax
    2824:	68 6f ca 00 00       	push   $0xca6f
    2829:	50                   	push   %eax
    282a:	68 87 ca 00 00       	push   $0xca87
    282f:	6a 05                	push   $0x5
    2831:	e8 fa 22 00 00       	call   4b30 <ddf_msg>
    2836:	8b 46 28             	mov    0x28(%esi),%eax
    2839:	83 c4 10             	add    $0x10,%esp
    283c:	c7 46 20 06 00 00 00 	movl   $0x6,0x20(%esi)
    2843:	85 c0                	test   %eax,%eax
    2845:	74 48                	je     288f <sb_dsp_stop_capture+0x1df>
    2847:	53                   	push   %ebx
    2848:	8b 56 1c             	mov    0x1c(%esi),%edx
    284b:	52                   	push   %edx
    284c:	68 05 04 00 00       	push   $0x405
    2851:	50                   	push   %eax
    2852:	e8 59 d1 00 00       	call   f9b0 <async_msg_1@plt>
    2857:	8b 5e 28             	mov    0x28(%esi),%ebx
    285a:	59                   	pop    %ecx
    285b:	53                   	push   %ebx
    285c:	e8 2f d0 00 00       	call   f890 <async_exchange_end@plt>
    2861:	c7 46 28 00 00 00 00 	movl   $0x0,0x28(%esi)
    2868:	83 c4 10             	add    $0x10,%esp
    286b:	8d 65 f8             	lea    -0x8(%ebp),%esp
    286e:	31 c0                	xor    %eax,%eax
    2870:	5b                   	pop    %ebx
    2871:	5e                   	pop    %esi
    2872:	5d                   	pop    %ebp
    2873:	c3                   	ret    
    2874:	8d 74 26 00          	lea    0x0(%esi,%eiz,1),%esi
    2878:	84 c0                	test   %al,%al
    287a:	0f 89 9c fe ff ff    	jns    271c <sb_dsp_stop_capture+0x6c>
    2880:	e9 ac fe ff ff       	jmp    2731 <sb_dsp_stop_capture+0x81>
    2885:	b8 f2 ff ff ff       	mov    $0xfffffff2,%eax
    288a:	e9 e5 fe ff ff       	jmp    2774 <sb_dsp_stop_capture+0xc4>
    288f:	31 c0                	xor    %eax,%eax
    2891:	e9 de fe ff ff       	jmp    2774 <sb_dsp_stop_capture+0xc4>
    2896:	84 c0                	test   %al,%al
    2898:	0f 89 16 ff ff ff    	jns    27b4 <sb_dsp_stop_capture+0x104>
    289e:	e9 26 ff ff ff       	jmp    27c9 <sb_dsp_stop_capture+0x119>
    28a3:	51                   	push   %ecx
    28a4:	68 25 02 00 00       	push   $0x225
    28a9:	68 3f ca 00 00       	push   $0xca3f
    28ae:	68 d9 cb 00 00       	push   $0xcbd9
    28b3:	e8 e8 cf 00 00       	call   f8a0 <assert_abort@plt>
    28b8:	50                   	push   %eax
    28b9:	68 12 02 00 00       	push   $0x212
    28be:	68 3f ca 00 00       	push   $0xca3f
    28c3:	68 45 ca 00 00       	push   $0xca45
    28c8:	e8 d3 cf 00 00       	call   f8a0 <assert_abort@plt>
    28cd:	66 90                	xchg   %ax,%ax
    28cf:	90                   	nop

000028d0 <irq_handler>:
    28d0:	55                   	push   %ebp
    28d1:	89 e5                	mov    %esp,%ebp
    28d3:	83 ec 14             	sub    $0x14,%esp
    28d6:	8b 45 10             	mov    0x10(%ebp),%eax
    28d9:	50                   	push   %eax
    28da:	e8 51 19 00 00       	call   4230 <ddf_dev_data_get>
    28df:	83 c4 10             	add    $0x10,%esp
    28e2:	89 45 08             	mov    %eax,0x8(%ebp)
    28e5:	c9                   	leave  
    28e6:	e9 85 0f 00 00       	jmp    3870 <sb16_interrupt>
    28eb:	90                   	nop
    28ec:	8d 74 26 00          	lea    0x0(%esi,%eiz,1),%esi

000028f0 <sb_add_device>:
    28f0:	55                   	push   %ebp
    28f1:	89 e5                	mov    %esp,%ebp
    28f3:	57                   	push   %edi
    28f4:	56                   	push   %esi
    28f5:	53                   	push   %ebx
    28f6:	81 ec 8c 00 00 00    	sub    $0x8c,%esp
    28fc:	e8 af 0b 00 00       	call   34b0 <sb16_irq_code_size>
    2901:	8b 7d 08             	mov    0x8(%ebp),%edi
    2904:	89 c3                	mov    %eax,%ebx
    2906:	8d 04 80             	lea    (%eax,%eax,4),%eax
    2909:	8d 04 85 12 00 00 00 	lea    0x12(,%eax,4),%eax
    2910:	83 e0 f0             	and    $0xfffffff0,%eax
    2913:	29 c4                	sub    %eax,%esp
    2915:	89 65 84             	mov    %esp,-0x7c(%ebp)
    2918:	56                   	push   %esi
    2919:	56                   	push   %esi
    291a:	6a 40                	push   $0x40
    291c:	57                   	push   %edi
    291d:	e8 ce 18 00 00       	call   41f0 <ddf_dev_data_alloc>
    2922:	83 c4 10             	add    $0x10,%esp
    2925:	89 45 80             	mov    %eax,-0x80(%ebp)
    2928:	85 c0                	test   %eax,%eax
    292a:	0f 84 90 01 00 00    	je     2ac0 <sb_add_device+0x1d0>
    2930:	8b 75 08             	mov    0x8(%ebp),%esi
    2933:	85 f6                	test   %esi,%esi
    2935:	0f 84 1c 04 00 00    	je     2d57 <sb_add_device+0x467>
    293b:	83 ec 0c             	sub    $0xc,%esp
    293e:	8b 45 08             	mov    0x8(%ebp),%eax
    2941:	50                   	push   %eax
    2942:	e8 f9 18 00 00       	call   4240 <ddf_dev_get_handle>
    2947:	5a                   	pop    %edx
    2948:	59                   	pop    %ecx
    2949:	6a 01                	push   $0x1
    294b:	50                   	push   %eax
    294c:	e8 ef cd 00 00       	call   f740 <devman_parent_device_connect@plt>
    2951:	83 c4 10             	add    $0x10,%esp
    2954:	89 c6                	mov    %eax,%esi
    2956:	85 c0                	test   %eax,%eax
    2958:	0f 84 82 01 00 00    	je     2ae0 <sb_add_device+0x1f0>
    295e:	50                   	push   %eax
    295f:	8d 45 c8             	lea    -0x38(%ebp),%eax
    2962:	6a 20                	push   $0x20
    2964:	6a 00                	push   $0x0
    2966:	50                   	push   %eax
    2967:	e8 b4 d0 00 00       	call   fa20 <memset@plt>
    296c:	83 c4 0c             	add    $0xc,%esp
    296f:	8d 45 c8             	lea    -0x38(%ebp),%eax
    2972:	6a 00                	push   $0x0
    2974:	50                   	push   %eax
    2975:	56                   	push   %esi
    2976:	e8 05 d2 00 00       	call   fb80 <hw_res_get_list_parsed@plt>
    297b:	89 c7                	mov    %eax,%edi
    297d:	89 34 24             	mov    %esi,(%esp)
    2980:	e8 7b cd 00 00       	call   f700 <async_hangup@plt>
    2985:	83 c4 10             	add    $0x10,%esp
    2988:	85 ff                	test   %edi,%edi
    298a:	0f 85 55 01 00 00    	jne    2ae5 <sb_add_device+0x1f5>
    2990:	83 7d c8 01          	cmpl   $0x1,-0x38(%ebp)
    2994:	0f 85 4e 02 00 00    	jne    2be8 <sb_add_device+0x2f8>
    299a:	8b 55 e0             	mov    -0x20(%ebp),%edx
    299d:	8d 42 ff             	lea    -0x1(%edx),%eax
    29a0:	83 f8 01             	cmp    $0x1,%eax
    29a3:	0f 87 3f 02 00 00    	ja     2be8 <sb_add_device+0x2f8>
    29a9:	8b 4d d0             	mov    -0x30(%ebp),%ecx
    29ac:	8d 41 ff             	lea    -0x1(%ecx),%eax
    29af:	83 f8 01             	cmp    $0x1,%eax
    29b2:	0f 87 30 02 00 00    	ja     2be8 <sb_add_device+0x2f8>
    29b8:	8b 45 cc             	mov    -0x34(%ebp),%eax
    29bb:	8b 75 d4             	mov    -0x2c(%ebp),%esi
    29be:	8b 00                	mov    (%eax),%eax
    29c0:	89 85 7c ff ff ff    	mov    %eax,-0x84(%ebp)
    29c6:	8b 06                	mov    (%esi),%eax
    29c8:	83 f8 03             	cmp    $0x3,%eax
    29cb:	0f 86 3f 01 00 00    	jbe    2b10 <sb_add_device+0x220>
    29d1:	83 f9 02             	cmp    $0x2,%ecx
    29d4:	0f 84 be 02 00 00    	je     2c98 <sb_add_device+0x3a8>
    29da:	c7 85 74 ff ff ff 00 	movl   $0x0,-0x8c(%ebp)
    29e1:	00 00 00 
    29e4:	83 f8 04             	cmp    $0x4,%eax
    29e7:	0f 84 32 01 00 00    	je     2b1f <sb_add_device+0x22f>
    29ed:	89 85 78 ff ff ff    	mov    %eax,-0x88(%ebp)
    29f3:	4a                   	dec    %edx
    29f4:	0f 84 36 02 00 00    	je     2c30 <sb_add_device+0x340>
    29fa:	8b 55 e4             	mov    -0x1c(%ebp),%edx
    29fd:	31 c0                	xor    %eax,%eax
    29ff:	8d 7d 98             	lea    -0x68(%ebp),%edi
    2a02:	83 7a 10 13          	cmpl   $0x13,0x10(%edx)
    2a06:	0f 96 c0             	setbe  %al
    2a09:	89 bd 70 ff ff ff    	mov    %edi,-0x90(%ebp)
    2a0f:	8d 0c 00             	lea    (%eax,%eax,1),%ecx
    2a12:	01 c1                	add    %eax,%ecx
    2a14:	8d 34 ca             	lea    (%edx,%ecx,8),%esi
    2a17:	b9 06 00 00 00       	mov    $0x6,%ecx
    2a1c:	f3 a5                	rep movsl %ds:(%esi),%es:(%edi)
    2a1e:	b9 01 00 00 00       	mov    $0x1,%ecx
    2a23:	8d 7d b0             	lea    -0x50(%ebp),%edi
    2a26:	29 c1                	sub    %eax,%ecx
    2a28:	8d 04 49             	lea    (%ecx,%ecx,2),%eax
    2a2b:	b9 06 00 00 00       	mov    $0x6,%ecx
    2a30:	8d 34 c2             	lea    (%edx,%eax,8),%esi
    2a33:	f3 a5                	rep movsl %ds:(%esi),%es:(%edi)
    2a35:	8d 75 b0             	lea    -0x50(%ebp),%esi
    2a38:	83 ec 0c             	sub    $0xc,%esp
    2a3b:	8d 7d 90             	lea    -0x70(%ebp),%edi
    2a3e:	8b 45 84             	mov    -0x7c(%ebp),%eax
    2a41:	8b 95 70 ff ff ff    	mov    -0x90(%ebp),%edx
    2a47:	57                   	push   %edi
    2a48:	50                   	push   %eax
    2a49:	8b 85 78 ff ff ff    	mov    -0x88(%ebp),%eax
    2a4f:	50                   	push   %eax
    2a50:	8b 85 74 ff ff ff    	mov    -0x8c(%ebp),%eax
    2a56:	50                   	push   %eax
    2a57:	52                   	push   %edx
    2a58:	e8 63 0a 00 00       	call   34c0 <sb16_irq_code>
    2a5d:	83 c4 20             	add    $0x20,%esp
    2a60:	8b 45 84             	mov    -0x7c(%ebp),%eax
    2a63:	89 5d d0             	mov    %ebx,-0x30(%ebp)
    2a66:	89 45 d4             	mov    %eax,-0x2c(%ebp)
    2a69:	8b 8d 7c ff ff ff    	mov    -0x84(%ebp),%ecx
    2a6f:	8d 45 c8             	lea    -0x38(%ebp),%eax
    2a72:	8b 5d 08             	mov    0x8(%ebp),%ebx
    2a75:	50                   	push   %eax
    2a76:	89 7d cc             	mov    %edi,-0x34(%ebp)
    2a79:	68 d0 28 00 00       	push   $0x28d0
    2a7e:	c7 45 c8 01 00 00 00 	movl   $0x1,-0x38(%ebp)
    2a85:	51                   	push   %ecx
    2a86:	53                   	push   %ebx
    2a87:	e8 54 20 00 00       	call   4ae0 <register_interrupt_handler>
    2a8c:	83 c4 10             	add    $0x10,%esp
    2a8f:	89 c7                	mov    %eax,%edi
    2a91:	85 c0                	test   %eax,%eax
    2a93:	0f 84 97 00 00 00    	je     2b30 <sb_add_device+0x240>
    2a99:	83 ec 0c             	sub    $0xc,%esp
    2a9c:	57                   	push   %edi
    2a9d:	e8 4e d0 00 00       	call   faf0 <str_error@plt>
    2aa2:	83 c4 0c             	add    $0xc,%esp
    2aa5:	50                   	push   %eax
    2aa6:	68 78 d1 00 00       	push   $0xd178
    2aab:	6a 01                	push   $0x1
    2aad:	e8 7e 20 00 00       	call   4b30 <ddf_msg>
    2ab2:	83 c4 10             	add    $0x10,%esp
    2ab5:	8d 65 f4             	lea    -0xc(%ebp),%esp
    2ab8:	89 f8                	mov    %edi,%eax
    2aba:	5b                   	pop    %ebx
    2abb:	5e                   	pop    %esi
    2abc:	5f                   	pop    %edi
    2abd:	5d                   	pop    %ebp
    2abe:	c3                   	ret    
    2abf:	90                   	nop
    2ac0:	57                   	push   %edi
    2ac1:	57                   	push   %edi
    2ac2:	68 20 d2 00 00       	push   $0xd220
    2ac7:	6a 01                	push   $0x1
    2ac9:	bf fe ff ff ff       	mov    $0xfffffffe,%edi
    2ace:	e8 5d 20 00 00       	call   4b30 <ddf_msg>
    2ad3:	83 c4 10             	add    $0x10,%esp
    2ad6:	8d 65 f4             	lea    -0xc(%ebp),%esp
    2ad9:	89 f8                	mov    %edi,%eax
    2adb:	5b                   	pop    %ebx
    2adc:	5e                   	pop    %esi
    2add:	5f                   	pop    %edi
    2ade:	5d                   	pop    %ebp
    2adf:	c3                   	ret    
    2ae0:	bf fe ff ff ff       	mov    $0xfffffffe,%edi
    2ae5:	83 ec 0c             	sub    $0xc,%esp
    2ae8:	57                   	push   %edi
    2ae9:	e8 02 d0 00 00       	call   faf0 <str_error@plt>
    2aee:	83 c4 0c             	add    $0xc,%esp
    2af1:	50                   	push   %eax
    2af2:	68 53 d1 00 00       	push   $0xd153
    2af7:	6a 01                	push   $0x1
    2af9:	e8 32 20 00 00       	call   4b30 <ddf_msg>
    2afe:	83 c4 10             	add    $0x10,%esp
    2b01:	8d 65 f4             	lea    -0xc(%ebp),%esp
    2b04:	89 f8                	mov    %edi,%eax
    2b06:	5b                   	pop    %ebx
    2b07:	5e                   	pop    %esi
    2b08:	5f                   	pop    %edi
    2b09:	5d                   	pop    %ebp
    2b0a:	c3                   	ret    
    2b0b:	90                   	nop
    2b0c:	8d 74 26 00          	lea    0x0(%esi,%eiz,1),%esi
    2b10:	89 85 74 ff ff ff    	mov    %eax,-0x8c(%ebp)
    2b16:	83 f9 02             	cmp    $0x2,%ecx
    2b19:	0f 84 51 01 00 00    	je     2c70 <sb_add_device+0x380>
    2b1f:	c7 85 78 ff ff ff 00 	movl   $0x0,-0x88(%ebp)
    2b26:	00 00 00 
    2b29:	e9 c5 fe ff ff       	jmp    29f3 <sb_add_device+0x103>
    2b2e:	66 90                	xchg   %ax,%ax
    2b30:	83 ec 0c             	sub    $0xc,%esp
    2b33:	8b 45 08             	mov    0x8(%ebp),%eax
    2b36:	50                   	push   %eax
    2b37:	e8 04 17 00 00       	call   4240 <ddf_dev_get_handle>
    2b3c:	5a                   	pop    %edx
    2b3d:	59                   	pop    %ecx
    2b3e:	6a 01                	push   $0x1
    2b40:	50                   	push   %eax
    2b41:	e8 fa cb 00 00       	call   f740 <devman_parent_device_connect@plt>
    2b46:	83 c4 10             	add    $0x10,%esp
    2b49:	89 c3                	mov    %eax,%ebx
    2b4b:	85 c0                	test   %eax,%eax
    2b4d:	0f 84 f7 00 00 00    	je     2c4a <sb_add_device+0x35a>
    2b53:	83 ec 0c             	sub    $0xc,%esp
    2b56:	50                   	push   %eax
    2b57:	e8 b4 cb 00 00       	call   f710 <hw_res_enable_interrupt@plt>
    2b5c:	89 c7                	mov    %eax,%edi
    2b5e:	89 1c 24             	mov    %ebx,(%esp)
    2b61:	e8 9a cb 00 00       	call   f700 <async_hangup@plt>
    2b66:	89 f8                	mov    %edi,%eax
    2b68:	83 c4 10             	add    $0x10,%esp
    2b6b:	bf f6 fe ff ff       	mov    $0xfffffef6,%edi
    2b70:	84 c0                	test   %al,%al
    2b72:	0f 84 d7 00 00 00    	je     2c4f <sb_add_device+0x35f>
    2b78:	83 ec 0c             	sub    $0xc,%esp
    2b7b:	8b bd 74 ff ff ff    	mov    -0x8c(%ebp),%edi
    2b81:	8b 45 08             	mov    0x8(%ebp),%eax
    2b84:	8b 9d 78 ff ff ff    	mov    -0x88(%ebp),%ebx
    2b8a:	53                   	push   %ebx
    2b8b:	57                   	push   %edi
    2b8c:	50                   	push   %eax
    2b8d:	8b 85 70 ff ff ff    	mov    -0x90(%ebp),%eax
    2b93:	50                   	push   %eax
    2b94:	8b 45 80             	mov    -0x80(%ebp),%eax
    2b97:	50                   	push   %eax
    2b98:	e8 c3 09 00 00       	call   3560 <sb16_init_sb16>
    2b9d:	83 c4 20             	add    $0x20,%esp
    2ba0:	89 c7                	mov    %eax,%edi
    2ba2:	85 c0                	test   %eax,%eax
    2ba4:	0f 84 0e 01 00 00    	je     2cb8 <sb_add_device+0x3c8>
    2baa:	83 ec 0c             	sub    $0xc,%esp
    2bad:	57                   	push   %edi
    2bae:	e8 3d cf 00 00       	call   faf0 <str_error@plt>
    2bb3:	83 c4 0c             	add    $0xc,%esp
    2bb6:	50                   	push   %eax
    2bb7:	68 9c d1 00 00       	push   $0xd19c
    2bbc:	6a 01                	push   $0x1
    2bbe:	e8 6d 1f 00 00       	call   4b30 <ddf_msg>
    2bc3:	83 c4 10             	add    $0x10,%esp
    2bc6:	8b 95 7c ff ff ff    	mov    -0x84(%ebp),%edx
    2bcc:	8b 4d 08             	mov    0x8(%ebp),%ecx
    2bcf:	50                   	push   %eax
    2bd0:	50                   	push   %eax
    2bd1:	52                   	push   %edx
    2bd2:	51                   	push   %ecx
    2bd3:	e8 28 1f 00 00       	call   4b00 <unregister_interrupt_handler>
    2bd8:	83 c4 10             	add    $0x10,%esp
    2bdb:	8d 65 f4             	lea    -0xc(%ebp),%esp
    2bde:	89 f8                	mov    %edi,%eax
    2be0:	5b                   	pop    %ebx
    2be1:	5e                   	pop    %esi
    2be2:	5f                   	pop    %edi
    2be3:	5d                   	pop    %ebp
    2be4:	c3                   	ret    
    2be5:	8d 76 00             	lea    0x0(%esi),%esi
    2be8:	83 ec 0c             	sub    $0xc,%esp
    2beb:	8b 5d cc             	mov    -0x34(%ebp),%ebx
    2bee:	53                   	push   %ebx
    2bef:	e8 ec cf 00 00       	call   fbe0 <free@plt>
    2bf4:	8b 7d e4             	mov    -0x1c(%ebp),%edi
    2bf7:	5e                   	pop    %esi
    2bf8:	57                   	push   %edi
    2bf9:	e8 e2 cf 00 00       	call   fbe0 <free@plt>
    2bfe:	58                   	pop    %eax
    2bff:	8b 45 dc             	mov    -0x24(%ebp),%eax
    2c02:	50                   	push   %eax
    2c03:	e8 d8 cf 00 00       	call   fbe0 <free@plt>
    2c08:	58                   	pop    %eax
    2c09:	8b 45 d4             	mov    -0x2c(%ebp),%eax
    2c0c:	50                   	push   %eax
    2c0d:	e8 ce cf 00 00       	call   fbe0 <free@plt>
    2c12:	83 c4 0c             	add    $0xc,%esp
    2c15:	8d 45 c8             	lea    -0x38(%ebp),%eax
    2c18:	bf f2 ff ff ff       	mov    $0xfffffff2,%edi
    2c1d:	6a 20                	push   $0x20
    2c1f:	6a 00                	push   $0x0
    2c21:	50                   	push   %eax
    2c22:	e8 f9 cd 00 00       	call   fa20 <memset@plt>
    2c27:	83 c4 10             	add    $0x10,%esp
    2c2a:	e9 b6 fe ff ff       	jmp    2ae5 <sb_add_device+0x1f5>
    2c2f:	90                   	nop
    2c30:	8d 7d 98             	lea    -0x68(%ebp),%edi
    2c33:	8b 75 e4             	mov    -0x1c(%ebp),%esi
    2c36:	b9 06 00 00 00       	mov    $0x6,%ecx
    2c3b:	89 bd 70 ff ff ff    	mov    %edi,-0x90(%ebp)
    2c41:	f3 a5                	rep movsl %ds:(%esi),%es:(%edi)
    2c43:	31 f6                	xor    %esi,%esi
    2c45:	e9 ee fd ff ff       	jmp    2a38 <sb_add_device+0x148>
    2c4a:	bf fe ff ff ff       	mov    $0xfffffffe,%edi
    2c4f:	83 ec 0c             	sub    $0xc,%esp
    2c52:	57                   	push   %edi
    2c53:	e8 98 ce 00 00       	call   faf0 <str_error@plt>
    2c58:	83 c4 0c             	add    $0xc,%esp
    2c5b:	50                   	push   %eax
    2c5c:	68 44 d2 00 00       	push   $0xd244
    2c61:	6a 01                	push   $0x1
    2c63:	e8 c8 1e 00 00       	call   4b30 <ddf_msg>
    2c68:	83 c4 10             	add    $0x10,%esp
    2c6b:	e9 56 ff ff ff       	jmp    2bc6 <sb_add_device+0x2d6>
    2c70:	8b 4e 04             	mov    0x4(%esi),%ecx
    2c73:	c7 85 78 ff ff ff 00 	movl   $0x0,-0x88(%ebp)
    2c7a:	00 00 00 
    2c7d:	83 f9 04             	cmp    $0x4,%ecx
    2c80:	0f 86 6d fd ff ff    	jbe    29f3 <sb_add_device+0x103>
    2c86:	89 8d 78 ff ff ff    	mov    %ecx,-0x88(%ebp)
    2c8c:	e9 62 fd ff ff       	jmp    29f3 <sb_add_device+0x103>
    2c91:	8d b4 26 00 00 00 00 	lea    0x0(%esi,%eiz,1),%esi
    2c98:	8b 4e 04             	mov    0x4(%esi),%ecx
    2c9b:	89 ce                	mov    %ecx,%esi
    2c9d:	83 f9 03             	cmp    $0x3,%ecx
    2ca0:	76 02                	jbe    2ca4 <sb_add_device+0x3b4>
    2ca2:	31 f6                	xor    %esi,%esi
    2ca4:	89 b5 74 ff ff ff    	mov    %esi,-0x8c(%ebp)
    2caa:	83 f8 04             	cmp    $0x4,%eax
    2cad:	0f 85 3a fd ff ff    	jne    29ed <sb_add_device+0xfd>
    2cb3:	eb be                	jmp    2c73 <sb_add_device+0x383>
    2cb5:	8d 76 00             	lea    0x0(%esi),%esi
    2cb8:	50                   	push   %eax
    2cb9:	50                   	push   %eax
    2cba:	8b 45 80             	mov    -0x80(%ebp),%eax
    2cbd:	56                   	push   %esi
    2cbe:	50                   	push   %eax
    2cbf:	e8 8c 0b 00 00       	call   3850 <sb16_init_mpu>
    2cc4:	83 c4 10             	add    $0x10,%esp
    2cc7:	85 c0                	test   %eax,%eax
    2cc9:	75 55                	jne    2d20 <sb_add_device+0x430>
    2ccb:	50                   	push   %eax
    2ccc:	8b 45 08             	mov    0x8(%ebp),%eax
    2ccf:	68 4e d1 00 00       	push   $0xd14e
    2cd4:	6a 02                	push   $0x2
    2cd6:	50                   	push   %eax
    2cd7:	e8 44 16 00 00       	call   4320 <ddf_fun_create>
    2cdc:	83 c4 10             	add    $0x10,%esp
    2cdf:	85 c0                	test   %eax,%eax
    2ce1:	74 5e                	je     2d41 <sb_add_device+0x451>
    2ce3:	83 ec 0c             	sub    $0xc,%esp
    2ce6:	50                   	push   %eax
    2ce7:	e8 f4 18 00 00       	call   45e0 <ddf_fun_bind>
    2cec:	83 c4 10             	add    $0x10,%esp
    2cef:	89 c7                	mov    %eax,%edi
    2cf1:	85 c0                	test   %eax,%eax
    2cf3:	0f 84 dd fd ff ff    	je     2ad6 <sb_add_device+0x1e6>
    2cf9:	83 ec 0c             	sub    $0xc,%esp
    2cfc:	31 ff                	xor    %edi,%edi
    2cfe:	50                   	push   %eax
    2cff:	e8 ec cd 00 00       	call   faf0 <str_error@plt>
    2d04:	83 c4 0c             	add    $0xc,%esp
    2d07:	50                   	push   %eax
    2d08:	68 bc d1 00 00       	push   $0xd1bc
    2d0d:	6a 01                	push   $0x1
    2d0f:	e8 1c 1e 00 00       	call   4b30 <ddf_msg>
    2d14:	83 c4 10             	add    $0x10,%esp
    2d17:	e9 ba fd ff ff       	jmp    2ad6 <sb_add_device+0x1e6>
    2d1c:	8d 74 26 00          	lea    0x0(%esi,%eiz,1),%esi
    2d20:	83 ec 0c             	sub    $0xc,%esp
    2d23:	50                   	push   %eax
    2d24:	e8 c7 cd 00 00       	call   faf0 <str_error@plt>
    2d29:	83 c4 0c             	add    $0xc,%esp
    2d2c:	50                   	push   %eax
    2d2d:	68 00 d2 00 00       	push   $0xd200
    2d32:	6a 02                	push   $0x2
    2d34:	e8 f7 1d 00 00       	call   4b30 <ddf_msg>
    2d39:	83 c4 10             	add    $0x10,%esp
    2d3c:	e9 95 fd ff ff       	jmp    2ad6 <sb_add_device+0x1e6>
    2d41:	50                   	push   %eax
    2d42:	50                   	push   %eax
    2d43:	68 e0 d1 00 00       	push   $0xd1e0
    2d48:	6a 01                	push   $0x1
    2d4a:	e8 e1 1d 00 00       	call   4b30 <ddf_msg>
    2d4f:	83 c4 10             	add    $0x10,%esp
    2d52:	e9 7f fd ff ff       	jmp    2ad6 <sb_add_device+0x1e6>
    2d57:	53                   	push   %ebx
    2d58:	68 b1 00 00 00       	push   $0xb1
    2d5d:	68 40 d1 00 00       	push   $0xd140
    2d62:	68 47 d1 00 00       	push   $0xd147
    2d67:	e8 34 cb 00 00       	call   f8a0 <assert_abort@plt>
    2d6c:	66 90                	xchg   %ax,%ax
    2d6e:	66 90                	xchg   %ax,%ax

00002d70 <main>:
    2d70:	8d 4c 24 04          	lea    0x4(%esp),%ecx
    2d74:	83 e4 f0             	and    $0xfffffff0,%esp
    2d77:	ff 71 fc             	pushl  -0x4(%ecx)
    2d7a:	55                   	push   %ebp
    2d7b:	89 e5                	mov    %esp,%ebp
    2d7d:	51                   	push   %ecx
    2d7e:	83 ec 10             	sub    $0x10,%esp
    2d81:	68 68 d2 00 00       	push   $0xd268
    2d86:	e8 65 c9 00 00       	call   f6f0 <printf@plt>
    2d8b:	c7 04 24 70 d1 00 00 	movl   $0xd170,(%esp)
    2d92:	e8 89 1d 00 00       	call   4b20 <ddf_log_init>
    2d97:	c7 04 24 c0 1b 01 00 	movl   $0x11bc0,(%esp)
    2d9e:	e8 dd 1b 00 00       	call   4980 <ddf_driver_main>
    2da3:	8b 4d fc             	mov    -0x4(%ebp),%ecx
    2da6:	c9                   	leave  
    2da7:	8d 61 fc             	lea    -0x4(%ecx),%esp
    2daa:	c3                   	ret    
    2dab:	66 90                	xchg   %ax,%ax
    2dad:	66 90                	xchg   %ax,%ax
    2daf:	90                   	nop

00002db0 <sb_mixer_type_str>:
    2db0:	55                   	push   %ebp
    2db1:	89 e5                	mov    %esp,%ebp
    2db3:	8b 45 08             	mov    0x8(%ebp),%eax
    2db6:	5d                   	pop    %ebp
    2db7:	8b 04 85 20 d4 00 00 	mov    0xd420(,%eax,4),%eax
    2dbe:	c3                   	ret    
    2dbf:	90                   	nop

00002dc0 <sb_mixer_init>:
    2dc0:	55                   	push   %ebp
    2dc1:	89 e5                	mov    %esp,%ebp
    2dc3:	57                   	push   %edi
    2dc4:	56                   	push   %esi
    2dc5:	53                   	push   %ebx
    2dc6:	83 ec 0c             	sub    $0xc,%esp
    2dc9:	8b 45 08             	mov    0x8(%ebp),%eax
    2dcc:	8b 5d 0c             	mov    0xc(%ebp),%ebx
    2dcf:	8b 55 10             	mov    0x10(%ebp),%edx
    2dd2:	85 c0                	test   %eax,%eax
    2dd4:	0f 84 8d 00 00 00    	je     2e67 <sb_mixer_init+0xa7>
    2dda:	89 18                	mov    %ebx,(%eax)
    2ddc:	89 50 04             	mov    %edx,0x4(%eax)
    2ddf:	83 fa 04             	cmp    $0x4,%edx
    2de2:	74 7c                	je     2e60 <sb_mixer_init+0xa0>
    2de4:	8d 7b 04             	lea    0x4(%ebx),%edi
    2de7:	85 d2                	test   %edx,%edx
    2de9:	75 55                	jne    2e40 <sb_mixer_init+0x80>
    2deb:	83 c3 05             	add    $0x5,%ebx
    2dee:	50                   	push   %eax
    2def:	50                   	push   %eax
    2df0:	68 80 00 00 00       	push   $0x80
    2df5:	57                   	push   %edi
    2df6:	e8 05 cb 00 00       	call   f900 <pio_write_8@plt>
    2dfb:	89 1c 24             	mov    %ebx,(%esp)
    2dfe:	e8 7d ca 00 00       	call   f880 <pio_read_8@plt>
    2e03:	5a                   	pop    %edx
    2e04:	59                   	pop    %ecx
    2e05:	68 81 00 00 00       	push   $0x81
    2e0a:	57                   	push   %edi
    2e0b:	89 c6                	mov    %eax,%esi
    2e0d:	e8 ee ca 00 00       	call   f900 <pio_write_8@plt>
    2e12:	89 1c 24             	mov    %ebx,(%esp)
    2e15:	e8 66 ca 00 00       	call   f880 <pio_read_8@plt>
    2e1a:	81 e6 ff 00 00 00    	and    $0xff,%esi
    2e20:	25 ff 00 00 00       	and    $0xff,%eax
    2e25:	50                   	push   %eax
    2e26:	56                   	push   %esi
    2e27:	68 e4 d3 00 00       	push   $0xd3e4
    2e2c:	6a 04                	push   $0x4
    2e2e:	e8 fd 1c 00 00       	call   4b30 <ddf_msg>
    2e33:	83 c4 20             	add    $0x20,%esp
    2e36:	31 c0                	xor    %eax,%eax
    2e38:	8d 65 f4             	lea    -0xc(%ebp),%esp
    2e3b:	5b                   	pop    %ebx
    2e3c:	5e                   	pop    %esi
    2e3d:	5f                   	pop    %edi
    2e3e:	5d                   	pop    %ebp
    2e3f:	c3                   	ret    
    2e40:	83 c3 05             	add    $0x5,%ebx
    2e43:	56                   	push   %esi
    2e44:	56                   	push   %esi
    2e45:	6a 00                	push   $0x0
    2e47:	57                   	push   %edi
    2e48:	e8 b3 ca 00 00       	call   f900 <pio_write_8@plt>
    2e4d:	58                   	pop    %eax
    2e4e:	5a                   	pop    %edx
    2e4f:	6a 01                	push   $0x1
    2e51:	53                   	push   %ebx
    2e52:	e8 a9 ca 00 00       	call   f900 <pio_write_8@plt>
    2e57:	83 c4 10             	add    $0x10,%esp
    2e5a:	eb 92                	jmp    2dee <sb_mixer_init+0x2e>
    2e5c:	8d 74 26 00          	lea    0x0(%esi,%eiz,1),%esi
    2e60:	b8 f5 ff ff ff       	mov    $0xfffffff5,%eax
    2e65:	eb d1                	jmp    2e38 <sb_mixer_init+0x78>
    2e67:	51                   	push   %ecx
    2e68:	68 80 00 00 00       	push   $0x80
    2e6d:	68 8a d2 00 00       	push   $0xd28a
    2e72:	68 d5 d2 00 00       	push   $0xd2d5
    2e77:	e8 24 ca 00 00       	call   f8a0 <assert_abort@plt>
    2e7c:	8d 74 26 00          	lea    0x0(%esi,%eiz,1),%esi

00002e80 <sb_mixer_get_control_item_count>:
    2e80:	55                   	push   %ebp
    2e81:	89 e5                	mov    %esp,%ebp
    2e83:	83 ec 08             	sub    $0x8,%esp
    2e86:	8b 45 08             	mov    0x8(%ebp),%eax
    2e89:	85 c0                	test   %eax,%eax
    2e8b:	74 0c                	je     2e99 <sb_mixer_get_control_item_count+0x19>
    2e8d:	8b 40 04             	mov    0x4(%eax),%eax
    2e90:	8b 04 c5 44 d4 00 00 	mov    0xd444(,%eax,8),%eax
    2e97:	c9                   	leave  
    2e98:	c3                   	ret    
    2e99:	50                   	push   %eax
    2e9a:	68 94 00 00 00       	push   $0x94
    2e9f:	68 8a d2 00 00       	push   $0xd28a
    2ea4:	68 d5 d2 00 00       	push   $0xd2d5
    2ea9:	e8 f2 c9 00 00       	call   f8a0 <assert_abort@plt>
    2eae:	66 90                	xchg   %ax,%ax

00002eb0 <sb_mixer_get_control_item_info>:
    2eb0:	55                   	push   %ebp
    2eb1:	89 e5                	mov    %esp,%ebp
    2eb3:	56                   	push   %esi
    2eb4:	53                   	push   %ebx
    2eb5:	8b 55 08             	mov    0x8(%ebp),%edx
    2eb8:	8b 45 0c             	mov    0xc(%ebp),%eax
    2ebb:	8b 5d 10             	mov    0x10(%ebp),%ebx
    2ebe:	8b 4d 14             	mov    0x14(%ebp),%ecx
    2ec1:	85 d2                	test   %edx,%edx
    2ec3:	74 40                	je     2f05 <sb_mixer_get_control_item_info+0x55>
    2ec5:	8b 52 04             	mov    0x4(%edx),%edx
    2ec8:	39 04 d5 44 d4 00 00 	cmp    %eax,0xd444(,%edx,8)
    2ecf:	72 2f                	jb     2f00 <sb_mixer_get_control_item_info+0x50>
    2ed1:	8d 34 80             	lea    (%eax,%eax,4),%esi
    2ed4:	8b 04 d5 40 d4 00 00 	mov    0xd440(,%edx,8),%eax
    2edb:	85 db                	test   %ebx,%ebx
    2edd:	8d 04 b0             	lea    (%eax,%esi,4),%eax
    2ee0:	74 04                	je     2ee6 <sb_mixer_get_control_item_info+0x36>
    2ee2:	8b 10                	mov    (%eax),%edx
    2ee4:	89 13                	mov    %edx,(%ebx)
    2ee6:	85 c9                	test   %ecx,%ecx
    2ee8:	74 0e                	je     2ef8 <sb_mixer_get_control_item_info+0x48>
    2eea:	8b 40 0c             	mov    0xc(%eax),%eax
    2eed:	89 01                	mov    %eax,(%ecx)
    2eef:	31 c0                	xor    %eax,%eax
    2ef1:	8d 65 f8             	lea    -0x8(%ebp),%esp
    2ef4:	5b                   	pop    %ebx
    2ef5:	5e                   	pop    %esi
    2ef6:	5d                   	pop    %ebp
    2ef7:	c3                   	ret    
    2ef8:	31 c0                	xor    %eax,%eax
    2efa:	eb f5                	jmp    2ef1 <sb_mixer_get_control_item_info+0x41>
    2efc:	8d 74 26 00          	lea    0x0(%esi,%eiz,1),%esi
    2f00:	83 c8 ff             	or     $0xffffffff,%eax
    2f03:	eb ec                	jmp    2ef1 <sb_mixer_get_control_item_info+0x41>
    2f05:	50                   	push   %eax
    2f06:	68 9b 00 00 00       	push   $0x9b
    2f0b:	68 8a d2 00 00       	push   $0xd28a
    2f10:	68 d5 d2 00 00       	push   $0xd2d5
    2f15:	e8 86 c9 00 00       	call   f8a0 <assert_abort@plt>
    2f1a:	8d b6 00 00 00 00    	lea    0x0(%esi),%esi

00002f20 <sb_mixer_get_control_item_value>:
    2f20:	55                   	push   %ebp
    2f21:	89 e5                	mov    %esp,%ebp
    2f23:	57                   	push   %edi
    2f24:	56                   	push   %esi
    2f25:	53                   	push   %ebx
    2f26:	83 ec 0c             	sub    $0xc,%esp
    2f29:	8b 7d 08             	mov    0x8(%ebp),%edi
    2f2c:	8b 45 0c             	mov    0xc(%ebp),%eax
    2f2f:	8b 5d 10             	mov    0x10(%ebp),%ebx
    2f32:	85 ff                	test   %edi,%edi
    2f34:	74 6e                	je     2fa4 <sb_mixer_get_control_item_value+0x84>
    2f36:	85 db                	test   %ebx,%ebx
    2f38:	74 63                	je     2f9d <sb_mixer_get_control_item_value+0x7d>
    2f3a:	8b 57 04             	mov    0x4(%edi),%edx
    2f3d:	39 04 d5 44 d4 00 00 	cmp    %eax,0xd444(,%edx,8)
    2f44:	72 52                	jb     2f98 <sb_mixer_get_control_item_value+0x78>
    2f46:	8d 0c 80             	lea    (%eax,%eax,4),%ecx
    2f49:	8b 04 d5 40 d4 00 00 	mov    0xd440(,%edx,8),%eax
    2f50:	8d 34 88             	lea    (%eax,%ecx,4),%esi
    2f53:	50                   	push   %eax
    2f54:	50                   	push   %eax
    2f55:	31 c0                	xor    %eax,%eax
    2f57:	8a 46 04             	mov    0x4(%esi),%al
    2f5a:	50                   	push   %eax
    2f5b:	8b 07                	mov    (%edi),%eax
    2f5d:	83 c0 04             	add    $0x4,%eax
    2f60:	50                   	push   %eax
    2f61:	e8 9a c9 00 00       	call   f900 <pio_write_8@plt>
    2f66:	8b 07                	mov    (%edi),%eax
    2f68:	83 c0 05             	add    $0x5,%eax
    2f6b:	89 04 24             	mov    %eax,(%esp)
    2f6e:	e8 0d c9 00 00       	call   f880 <pio_read_8@plt>
    2f73:	88 c1                	mov    %al,%cl
    2f75:	31 c0                	xor    %eax,%eax
    2f77:	88 c8                	mov    %cl,%al
    2f79:	8b 56 0c             	mov    0xc(%esi),%edx
    2f7c:	8b 4e 08             	mov    0x8(%esi),%ecx
    2f7f:	4a                   	dec    %edx
    2f80:	d3 f8                	sar    %cl,%eax
    2f82:	21 d0                	and    %edx,%eax
    2f84:	83 c4 10             	add    $0x10,%esp
    2f87:	89 03                	mov    %eax,(%ebx)
    2f89:	31 c0                	xor    %eax,%eax
    2f8b:	8d 65 f4             	lea    -0xc(%ebp),%esp
    2f8e:	5b                   	pop    %ebx
    2f8f:	5e                   	pop    %esi
    2f90:	5f                   	pop    %edi
    2f91:	5d                   	pop    %ebp
    2f92:	c3                   	ret    
    2f93:	90                   	nop
    2f94:	8d 74 26 00          	lea    0x0(%esi,%eiz,1),%esi
    2f98:	83 c8 ff             	or     $0xffffffff,%eax
    2f9b:	eb ee                	jmp    2f8b <sb_mixer_get_control_item_value+0x6b>
    2f9d:	b8 f6 ff ff ff       	mov    $0xfffffff6,%eax
    2fa2:	eb e7                	jmp    2f8b <sb_mixer_get_control_item_value+0x6b>
    2fa4:	52                   	push   %edx
    2fa5:	68 b1 00 00 00       	push   $0xb1
    2faa:	68 8a d2 00 00       	push   $0xd28a
    2faf:	68 d5 d2 00 00       	push   $0xd2d5
    2fb4:	e8 e7 c8 00 00       	call   f8a0 <assert_abort@plt>
    2fb9:	8d b4 26 00 00 00 00 	lea    0x0(%esi,%eiz,1),%esi

00002fc0 <sb_mixer_set_control_item_value>:
    2fc0:	55                   	push   %ebp
    2fc1:	89 e5                	mov    %esp,%ebp
    2fc3:	57                   	push   %edi
    2fc4:	56                   	push   %esi
    2fc5:	53                   	push   %ebx
    2fc6:	83 ec 0c             	sub    $0xc,%esp
    2fc9:	8b 5d 08             	mov    0x8(%ebp),%ebx
    2fcc:	8b 45 0c             	mov    0xc(%ebp),%eax
    2fcf:	85 db                	test   %ebx,%ebx
    2fd1:	0f 84 c6 00 00 00    	je     309d <sb_mixer_set_control_item_value+0xdd>
    2fd7:	8b 53 04             	mov    0x4(%ebx),%edx
    2fda:	39 04 d5 44 d4 00 00 	cmp    %eax,0xd444(,%edx,8)
    2fe1:	0f 82 b1 00 00 00    	jb     3098 <sb_mixer_set_control_item_value+0xd8>
    2fe7:	8d 34 80             	lea    (%eax,%eax,4),%esi
    2fea:	8b 3c d5 40 d4 00 00 	mov    0xd440(,%edx,8),%edi
    2ff1:	c1 e6 02             	shl    $0x2,%esi
    2ff4:	01 f7                	add    %esi,%edi
    2ff6:	8b 47 0c             	mov    0xc(%edi),%eax
    2ff9:	3b 45 10             	cmp    0x10(%ebp),%eax
    2ffc:	76 6a                	jbe    3068 <sb_mixer_set_control_item_value+0xa8>
    2ffe:	50                   	push   %eax
    2fff:	50                   	push   %eax
    3000:	31 c0                	xor    %eax,%eax
    3002:	8a 47 04             	mov    0x4(%edi),%al
    3005:	50                   	push   %eax
    3006:	8b 03                	mov    (%ebx),%eax
    3008:	83 c0 04             	add    $0x4,%eax
    300b:	50                   	push   %eax
    300c:	e8 ef c8 00 00       	call   f900 <pio_write_8@plt>
    3011:	83 c4 10             	add    $0x10,%esp
    3014:	80 7f 10 00          	cmpb   $0x0,0x10(%edi)
    3018:	75 56                	jne    3070 <sb_mixer_set_control_item_value+0xb0>
    301a:	8b 4f 08             	mov    0x8(%edi),%ecx
    301d:	31 c0                	xor    %eax,%eax
    301f:	52                   	push   %edx
    3020:	52                   	push   %edx
    3021:	8b 55 10             	mov    0x10(%ebp),%edx
    3024:	d3 e2                	shl    %cl,%edx
    3026:	09 d0                	or     %edx,%eax
    3028:	88 c1                	mov    %al,%cl
    302a:	31 c0                	xor    %eax,%eax
    302c:	88 c8                	mov    %cl,%al
    302e:	50                   	push   %eax
    302f:	8b 03                	mov    (%ebx),%eax
    3031:	83 c0 05             	add    $0x5,%eax
    3034:	50                   	push   %eax
    3035:	e8 c6 c8 00 00       	call   f900 <pio_write_8@plt>
    303a:	8b 43 04             	mov    0x4(%ebx),%eax
    303d:	8b 4d 10             	mov    0x10(%ebp),%ecx
    3040:	51                   	push   %ecx
    3041:	8b 04 c5 40 d4 00 00 	mov    0xd440(,%eax,8),%eax
    3048:	8b 1c 30             	mov    (%eax,%esi,1),%ebx
    304b:	53                   	push   %ebx
    304c:	68 92 d2 00 00       	push   $0xd292
    3051:	6a 03                	push   $0x3
    3053:	e8 d8 1a 00 00       	call   4b30 <ddf_msg>
    3058:	83 c4 20             	add    $0x20,%esp
    305b:	31 c0                	xor    %eax,%eax
    305d:	8d 65 f4             	lea    -0xc(%ebp),%esp
    3060:	5b                   	pop    %ebx
    3061:	5e                   	pop    %esi
    3062:	5f                   	pop    %edi
    3063:	5d                   	pop    %ebp
    3064:	c3                   	ret    
    3065:	8d 76 00             	lea    0x0(%esi),%esi
    3068:	48                   	dec    %eax
    3069:	89 45 10             	mov    %eax,0x10(%ebp)
    306c:	eb 90                	jmp    2ffe <sb_mixer_set_control_item_value+0x3e>
    306e:	66 90                	xchg   %ax,%ax
    3070:	83 ec 0c             	sub    $0xc,%esp
    3073:	8b 03                	mov    (%ebx),%eax
    3075:	83 c0 05             	add    $0x5,%eax
    3078:	50                   	push   %eax
    3079:	e8 02 c8 00 00       	call   f880 <pio_read_8@plt>
    307e:	8b 57 0c             	mov    0xc(%edi),%edx
    3081:	8b 4f 08             	mov    0x8(%edi),%ecx
    3084:	4a                   	dec    %edx
    3085:	83 c4 10             	add    $0x10,%esp
    3088:	d3 e2                	shl    %cl,%edx
    308a:	83 f2 ff             	xor    $0xffffffff,%edx
    308d:	21 d0                	and    %edx,%eax
    308f:	eb 8e                	jmp    301f <sb_mixer_set_control_item_value+0x5f>
    3091:	8d b4 26 00 00 00 00 	lea    0x0(%esi,%eiz,1),%esi
    3098:	83 c8 ff             	or     $0xffffffff,%eax
    309b:	eb c0                	jmp    305d <sb_mixer_set_control_item_value+0x9d>
    309d:	50                   	push   %eax
    309e:	68 c8 00 00 00       	push   $0xc8
    30a3:	68 8a d2 00 00       	push   $0xd28a
    30a8:	68 d5 d2 00 00       	push   $0xd2d5
    30ad:	e8 ee c7 00 00       	call   f8a0 <assert_abort@plt>
    30b2:	66 90                	xchg   %ax,%ax
    30b4:	66 90                	xchg   %ax,%ax
    30b6:	66 90                	xchg   %ax,%ax
    30b8:	66 90                	xchg   %ax,%ax
    30ba:	66 90                	xchg   %ax,%ax
    30bc:	66 90                	xchg   %ax,%ax
    30be:	66 90                	xchg   %ax,%ax

000030c0 <sb_set_item_level>:
    30c0:	55                   	push   %ebp
    30c1:	89 e5                	mov    %esp,%ebp
    30c3:	56                   	push   %esi
    30c4:	53                   	push   %ebx
    30c5:	83 ec 0c             	sub    $0xc,%esp
    30c8:	8b 45 08             	mov    0x8(%ebp),%eax
    30cb:	8b 5d 0c             	mov    0xc(%ebp),%ebx
    30ce:	8b 75 10             	mov    0x10(%ebp),%esi
    30d1:	50                   	push   %eax
    30d2:	e8 29 12 00 00       	call   4300 <ddf_fun_get_dev>
    30d7:	89 04 24             	mov    %eax,(%esp)
    30da:	e8 51 11 00 00       	call   4230 <ddf_dev_data_get>
    30df:	83 c0 38             	add    $0x38,%eax
    30e2:	89 75 10             	mov    %esi,0x10(%ebp)
    30e5:	89 5d 0c             	mov    %ebx,0xc(%ebp)
    30e8:	89 45 08             	mov    %eax,0x8(%ebp)
    30eb:	83 c4 10             	add    $0x10,%esp
    30ee:	8d 65 f8             	lea    -0x8(%ebp),%esp
    30f1:	5b                   	pop    %ebx
    30f2:	5e                   	pop    %esi
    30f3:	5d                   	pop    %ebp
    30f4:	e9 c7 fe ff ff       	jmp    2fc0 <sb_mixer_set_control_item_value>
    30f9:	8d b4 26 00 00 00 00 	lea    0x0(%esi,%eiz,1),%esi

00003100 <sb_get_item_level>:
    3100:	55                   	push   %ebp
    3101:	89 e5                	mov    %esp,%ebp
    3103:	56                   	push   %esi
    3104:	53                   	push   %ebx
    3105:	83 ec 0c             	sub    $0xc,%esp
    3108:	8b 45 08             	mov    0x8(%ebp),%eax
    310b:	8b 5d 0c             	mov    0xc(%ebp),%ebx
    310e:	8b 75 10             	mov    0x10(%ebp),%esi
    3111:	50                   	push   %eax
    3112:	e8 e9 11 00 00       	call   4300 <ddf_fun_get_dev>
    3117:	89 04 24             	mov    %eax,(%esp)
    311a:	e8 11 11 00 00       	call   4230 <ddf_dev_data_get>
    311f:	83 c0 38             	add    $0x38,%eax
    3122:	89 75 10             	mov    %esi,0x10(%ebp)
    3125:	89 5d 0c             	mov    %ebx,0xc(%ebp)
    3128:	89 45 08             	mov    %eax,0x8(%ebp)
    312b:	83 c4 10             	add    $0x10,%esp
    312e:	8d 65 f8             	lea    -0x8(%ebp),%esp
    3131:	5b                   	pop    %ebx
    3132:	5e                   	pop    %esi
    3133:	5d                   	pop    %ebp
    3134:	e9 e7 fd ff ff       	jmp    2f20 <sb_mixer_get_control_item_value>
    3139:	8d b4 26 00 00 00 00 	lea    0x0(%esi,%eiz,1),%esi

00003140 <sb_get_item_info>:
    3140:	55                   	push   %ebp
    3141:	89 e5                	mov    %esp,%ebp
    3143:	57                   	push   %edi
    3144:	56                   	push   %esi
    3145:	53                   	push   %ebx
    3146:	83 ec 18             	sub    $0x18,%esp
    3149:	8b 45 08             	mov    0x8(%ebp),%eax
    314c:	8b 5d 0c             	mov    0xc(%ebp),%ebx
    314f:	8b 75 10             	mov    0x10(%ebp),%esi
    3152:	8b 7d 14             	mov    0x14(%ebp),%edi
    3155:	50                   	push   %eax
    3156:	e8 a5 11 00 00       	call   4300 <ddf_fun_get_dev>
    315b:	89 04 24             	mov    %eax,(%esp)
    315e:	e8 cd 10 00 00       	call   4230 <ddf_dev_data_get>
    3163:	83 c0 38             	add    $0x38,%eax
    3166:	89 7d 14             	mov    %edi,0x14(%ebp)
    3169:	89 75 10             	mov    %esi,0x10(%ebp)
    316c:	89 5d 0c             	mov    %ebx,0xc(%ebp)
    316f:	89 45 08             	mov    %eax,0x8(%ebp)
    3172:	83 c4 10             	add    $0x10,%esp
    3175:	8d 65 f4             	lea    -0xc(%ebp),%esp
    3178:	5b                   	pop    %ebx
    3179:	5e                   	pop    %esi
    317a:	5f                   	pop    %edi
    317b:	5d                   	pop    %ebp
    317c:	e9 2f fd ff ff       	jmp    2eb0 <sb_mixer_get_control_item_info>
    3181:	eb 0d                	jmp    3190 <sb_get_info>
    3183:	90                   	nop
    3184:	90                   	nop
    3185:	90                   	nop
    3186:	90                   	nop
    3187:	90                   	nop
    3188:	90                   	nop
    3189:	90                   	nop
    318a:	90                   	nop
    318b:	90                   	nop
    318c:	90                   	nop
    318d:	90                   	nop
    318e:	90                   	nop
    318f:	90                   	nop

00003190 <sb_get_info>:
    3190:	55                   	push   %ebp
    3191:	89 e5                	mov    %esp,%ebp
    3193:	57                   	push   %edi
    3194:	56                   	push   %esi
    3195:	53                   	push   %ebx
    3196:	83 ec 18             	sub    $0x18,%esp
    3199:	8b 55 08             	mov    0x8(%ebp),%edx
    319c:	8b 75 0c             	mov    0xc(%ebp),%esi
    319f:	52                   	push   %edx
    31a0:	8b 5d 10             	mov    0x10(%ebp),%ebx
    31a3:	e8 58 11 00 00       	call   4300 <ddf_fun_get_dev>
    31a8:	89 04 24             	mov    %eax,(%esp)
    31ab:	e8 80 10 00 00       	call   4230 <ddf_dev_data_get>
    31b0:	83 c4 10             	add    $0x10,%esp
    31b3:	85 f6                	test   %esi,%esi
    31b5:	8d 78 38             	lea    0x38(%eax),%edi
    31b8:	74 11                	je     31cb <sb_get_info+0x3b>
    31ba:	83 ec 0c             	sub    $0xc,%esp
    31bd:	8b 40 3c             	mov    0x3c(%eax),%eax
    31c0:	50                   	push   %eax
    31c1:	e8 ea fb ff ff       	call   2db0 <sb_mixer_type_str>
    31c6:	83 c4 10             	add    $0x10,%esp
    31c9:	89 06                	mov    %eax,(%esi)
    31cb:	85 db                	test   %ebx,%ebx
    31cd:	74 0e                	je     31dd <sb_get_info+0x4d>
    31cf:	83 ec 0c             	sub    $0xc,%esp
    31d2:	57                   	push   %edi
    31d3:	e8 a8 fc ff ff       	call   2e80 <sb_mixer_get_control_item_count>
    31d8:	83 c4 10             	add    $0x10,%esp
    31db:	89 03                	mov    %eax,(%ebx)
    31dd:	8d 65 f4             	lea    -0xc(%ebp),%esp
    31e0:	31 c0                	xor    %eax,%eax
    31e2:	5b                   	pop    %ebx
    31e3:	5e                   	pop    %esi
    31e4:	5f                   	pop    %edi
    31e5:	5d                   	pop    %ebp
    31e6:	c3                   	ret    
    31e7:	66 90                	xchg   %ax,%ax
    31e9:	66 90                	xchg   %ax,%ax
    31eb:	66 90                	xchg   %ax,%ax
    31ed:	66 90                	xchg   %ax,%ax
    31ef:	90                   	nop

000031f0 <sb_get_info_str>:
    31f0:	55                   	push   %ebp
    31f1:	89 e5                	mov    %esp,%ebp
    31f3:	8b 45 0c             	mov    0xc(%ebp),%eax
    31f6:	85 c0                	test   %eax,%eax
    31f8:	74 06                	je     3200 <sb_get_info_str+0x10>
    31fa:	c7 00 50 d7 00 00    	movl   $0xd750,(%eax)
    3200:	31 c0                	xor    %eax,%eax
    3202:	5d                   	pop    %ebp
    3203:	c3                   	ret    
    3204:	8d b6 00 00 00 00    	lea    0x0(%esi),%esi
    320a:	8d bf 00 00 00 00    	lea    0x0(%edi),%edi

00003210 <sb_stop_capture>:
    3210:	55                   	push   %ebp
    3211:	89 e5                	mov    %esp,%ebp
    3213:	53                   	push   %ebx
    3214:	83 ec 10             	sub    $0x10,%esp
    3217:	8b 45 08             	mov    0x8(%ebp),%eax
    321a:	8b 5d 0c             	mov    0xc(%ebp),%ebx
    321d:	50                   	push   %eax
    321e:	e8 dd 10 00 00       	call   4300 <ddf_fun_get_dev>
    3223:	89 04 24             	mov    %eax,(%esp)
    3226:	e8 05 10 00 00       	call   4230 <ddf_dev_data_get>
    322b:	81 e3 ff 00 00 00    	and    $0xff,%ebx
    3231:	83 c4 10             	add    $0x10,%esp
    3234:	89 5d 0c             	mov    %ebx,0xc(%ebp)
    3237:	83 c0 08             	add    $0x8,%eax
    323a:	8b 5d fc             	mov    -0x4(%ebp),%ebx
    323d:	89 45 08             	mov    %eax,0x8(%ebp)
    3240:	c9                   	leave  
    3241:	e9 6a f4 ff ff       	jmp    26b0 <sb_dsp_stop_capture>
    3246:	8d 76 00             	lea    0x0(%esi),%esi
    3249:	8d bc 27 00 00 00 00 	lea    0x0(%edi,%eiz,1),%edi

00003250 <sb_start_capture>:
    3250:	55                   	push   %ebp
    3251:	89 e5                	mov    %esp,%ebp
    3253:	57                   	push   %edi
    3254:	56                   	push   %esi
    3255:	53                   	push   %ebx
    3256:	83 ec 28             	sub    $0x28,%esp
    3259:	8b 55 18             	mov    0x18(%ebp),%edx
    325c:	8b 45 08             	mov    0x8(%ebp),%eax
    325f:	8b 5d 0c             	mov    0xc(%ebp),%ebx
    3262:	8b 75 10             	mov    0x10(%ebp),%esi
    3265:	8b 7d 14             	mov    0x14(%ebp),%edi
    3268:	89 55 e4             	mov    %edx,-0x1c(%ebp)
    326b:	50                   	push   %eax
    326c:	e8 8f 10 00 00       	call   4300 <ddf_fun_get_dev>
    3271:	89 04 24             	mov    %eax,(%esp)
    3274:	e8 b7 0f 00 00       	call   4230 <ddf_dev_data_get>
    3279:	8b 55 e4             	mov    -0x1c(%ebp),%edx
    327c:	83 c0 08             	add    $0x8,%eax
    327f:	89 7d 14             	mov    %edi,0x14(%ebp)
    3282:	89 75 10             	mov    %esi,0x10(%ebp)
    3285:	89 5d 0c             	mov    %ebx,0xc(%ebp)
    3288:	89 55 18             	mov    %edx,0x18(%ebp)
    328b:	89 45 08             	mov    %eax,0x8(%ebp)
    328e:	83 c4 10             	add    $0x10,%esp
    3291:	8d 65 f4             	lea    -0xc(%ebp),%esp
    3294:	5b                   	pop    %ebx
    3295:	5e                   	pop    %esi
    3296:	5f                   	pop    %edi
    3297:	5d                   	pop    %ebp
    3298:	e9 e3 ee ff ff       	jmp    2180 <sb_dsp_start_capture>
    329d:	8d 76 00             	lea    0x0(%esi),%esi

000032a0 <sb_stop_playback>:
    32a0:	55                   	push   %ebp
    32a1:	89 e5                	mov    %esp,%ebp
    32a3:	53                   	push   %ebx
    32a4:	83 ec 10             	sub    $0x10,%esp
    32a7:	8b 45 08             	mov    0x8(%ebp),%eax
    32aa:	8b 5d 0c             	mov    0xc(%ebp),%ebx
    32ad:	50                   	push   %eax
    32ae:	e8 4d 10 00 00       	call   4300 <ddf_fun_get_dev>
    32b3:	89 04 24             	mov    %eax,(%esp)
    32b6:	e8 75 0f 00 00       	call   4230 <ddf_dev_data_get>
    32bb:	81 e3 ff 00 00 00    	and    $0xff,%ebx
    32c1:	83 c4 10             	add    $0x10,%esp
    32c4:	89 5d 0c             	mov    %ebx,0xc(%ebp)
    32c7:	83 c0 08             	add    $0x8,%eax
    32ca:	8b 5d fc             	mov    -0x4(%ebp),%ebx
    32cd:	89 45 08             	mov    %eax,0x8(%ebp)
    32d0:	c9                   	leave  
    32d1:	e9 8a ec ff ff       	jmp    1f60 <sb_dsp_stop_playback>
    32d6:	8d 76 00             	lea    0x0(%esi),%esi
    32d9:	8d bc 27 00 00 00 00 	lea    0x0(%edi,%eiz,1),%edi

000032e0 <sb_start_playback>:
    32e0:	55                   	push   %ebp
    32e1:	89 e5                	mov    %esp,%ebp
    32e3:	57                   	push   %edi
    32e4:	56                   	push   %esi
    32e5:	53                   	push   %ebx
    32e6:	83 ec 28             	sub    $0x28,%esp
    32e9:	8b 55 18             	mov    0x18(%ebp),%edx
    32ec:	8b 45 08             	mov    0x8(%ebp),%eax
    32ef:	8b 5d 0c             	mov    0xc(%ebp),%ebx
    32f2:	8b 75 10             	mov    0x10(%ebp),%esi
    32f5:	8b 7d 14             	mov    0x14(%ebp),%edi
    32f8:	89 55 e4             	mov    %edx,-0x1c(%ebp)
    32fb:	50                   	push   %eax
    32fc:	e8 ff 0f 00 00       	call   4300 <ddf_fun_get_dev>
    3301:	89 04 24             	mov    %eax,(%esp)
    3304:	e8 27 0f 00 00       	call   4230 <ddf_dev_data_get>
    3309:	8b 55 e4             	mov    -0x1c(%ebp),%edx
    330c:	83 c0 08             	add    $0x8,%eax
    330f:	89 7d 14             	mov    %edi,0x14(%ebp)
    3312:	89 75 10             	mov    %esi,0x10(%ebp)
    3315:	89 5d 0c             	mov    %ebx,0xc(%ebp)
    3318:	89 55 18             	mov    %edx,0x18(%ebp)
    331b:	89 45 08             	mov    %eax,0x8(%ebp)
    331e:	83 c4 10             	add    $0x10,%esp
    3321:	8d 65 f4             	lea    -0xc(%ebp),%esp
    3324:	5b                   	pop    %ebx
    3325:	5e                   	pop    %esi
    3326:	5f                   	pop    %edi
    3327:	5d                   	pop    %ebp
    3328:	e9 03 e7 ff ff       	jmp    1a30 <sb_dsp_start_playback>
    332d:	8d 76 00             	lea    0x0(%esi),%esi

00003330 <sb_get_event_session>:
    3330:	55                   	push   %ebp
    3331:	89 e5                	mov    %esp,%ebp
    3333:	83 ec 14             	sub    $0x14,%esp
    3336:	8b 45 08             	mov    0x8(%ebp),%eax
    3339:	50                   	push   %eax
    333a:	e8 c1 0f 00 00       	call   4300 <ddf_fun_get_dev>
    333f:	89 04 24             	mov    %eax,(%esp)
    3342:	e8 e9 0e 00 00       	call   4230 <ddf_dev_data_get>
    3347:	83 c4 10             	add    $0x10,%esp
    334a:	83 c0 08             	add    $0x8,%eax
    334d:	89 45 08             	mov    %eax,0x8(%ebp)
    3350:	c9                   	leave  
    3351:	e9 ba e3 ff ff       	jmp    1710 <sb_dsp_get_event_session>
    3356:	8d 76 00             	lea    0x0(%esi),%esi
    3359:	8d bc 27 00 00 00 00 	lea    0x0(%edi,%eiz,1),%edi

00003360 <sb_set_event_session>:
    3360:	55                   	push   %ebp
    3361:	89 e5                	mov    %esp,%ebp
    3363:	53                   	push   %ebx
    3364:	83 ec 10             	sub    $0x10,%esp
    3367:	8b 45 08             	mov    0x8(%ebp),%eax
    336a:	8b 5d 0c             	mov    0xc(%ebp),%ebx
    336d:	50                   	push   %eax
    336e:	e8 8d 0f 00 00       	call   4300 <ddf_fun_get_dev>
    3373:	89 04 24             	mov    %eax,(%esp)
    3376:	e8 b5 0e 00 00       	call   4230 <ddf_dev_data_get>
    337b:	89 5d 0c             	mov    %ebx,0xc(%ebp)
    337e:	83 c4 10             	add    $0x10,%esp
    3381:	83 c0 08             	add    $0x8,%eax
    3384:	8b 5d fc             	mov    -0x4(%ebp),%ebx
    3387:	89 45 08             	mov    %eax,0x8(%ebp)
    338a:	c9                   	leave  
    338b:	e9 20 e3 ff ff       	jmp    16b0 <sb_dsp_set_event_session>

00003390 <sb_release_buffer>:
    3390:	55                   	push   %ebp
    3391:	89 e5                	mov    %esp,%ebp
    3393:	83 ec 14             	sub    $0x14,%esp
    3396:	8b 45 08             	mov    0x8(%ebp),%eax
    3399:	50                   	push   %eax
    339a:	e8 61 0f 00 00       	call   4300 <ddf_fun_get_dev>
    339f:	89 04 24             	mov    %eax,(%esp)
    33a2:	e8 89 0e 00 00       	call   4230 <ddf_dev_data_get>
    33a7:	83 c4 10             	add    $0x10,%esp
    33aa:	83 c0 08             	add    $0x8,%eax
    33ad:	89 45 08             	mov    %eax,0x8(%ebp)
    33b0:	c9                   	leave  
    33b1:	e9 ba e5 ff ff       	jmp    1970 <sb_dsp_release_buffer>
    33b6:	8d 76 00             	lea    0x0(%esi),%esi
    33b9:	8d bc 27 00 00 00 00 	lea    0x0(%edi,%eiz,1),%edi

000033c0 <sb_get_buffer>:
    33c0:	55                   	push   %ebp
    33c1:	89 e5                	mov    %esp,%ebp
    33c3:	56                   	push   %esi
    33c4:	53                   	push   %ebx
    33c5:	83 ec 0c             	sub    $0xc,%esp
    33c8:	8b 45 08             	mov    0x8(%ebp),%eax
    33cb:	8b 5d 0c             	mov    0xc(%ebp),%ebx
    33ce:	8b 75 10             	mov    0x10(%ebp),%esi
    33d1:	50                   	push   %eax
    33d2:	e8 29 0f 00 00       	call   4300 <ddf_fun_get_dev>
    33d7:	89 04 24             	mov    %eax,(%esp)
    33da:	e8 51 0e 00 00       	call   4230 <ddf_dev_data_get>
    33df:	83 c0 08             	add    $0x8,%eax
    33e2:	89 75 10             	mov    %esi,0x10(%ebp)
    33e5:	89 5d 0c             	mov    %ebx,0xc(%ebp)
    33e8:	89 45 08             	mov    %eax,0x8(%ebp)
    33eb:	83 c4 10             	add    $0x10,%esp
    33ee:	8d 65 f8             	lea    -0x8(%ebp),%esp
    33f1:	5b                   	pop    %ebx
    33f2:	5e                   	pop    %esi
    33f3:	5d                   	pop    %ebp
    33f4:	e9 57 e3 ff ff       	jmp    1750 <sb_dsp_get_buffer>
    33f9:	8d b4 26 00 00 00 00 	lea    0x0(%esi,%eiz,1),%esi

00003400 <sb_get_buffer_position>:
    3400:	55                   	push   %ebp
    3401:	89 e5                	mov    %esp,%ebp
    3403:	53                   	push   %ebx
    3404:	83 ec 10             	sub    $0x10,%esp
    3407:	8b 45 08             	mov    0x8(%ebp),%eax
    340a:	8b 5d 0c             	mov    0xc(%ebp),%ebx
    340d:	50                   	push   %eax
    340e:	e8 ed 0e 00 00       	call   4300 <ddf_fun_get_dev>
    3413:	89 04 24             	mov    %eax,(%esp)
    3416:	e8 15 0e 00 00       	call   4230 <ddf_dev_data_get>
    341b:	89 5d 0c             	mov    %ebx,0xc(%ebp)
    341e:	83 c4 10             	add    $0x10,%esp
    3421:	83 c0 08             	add    $0x8,%eax
    3424:	8b 5d fc             	mov    -0x4(%ebp),%ebx
    3427:	89 45 08             	mov    %eax,0x8(%ebp)
    342a:	c9                   	leave  
    342b:	e9 50 e1 ff ff       	jmp    1580 <sb_dsp_get_buffer_position>

00003430 <sb_query_cap>:
    3430:	55                   	push   %ebp
    3431:	89 e5                	mov    %esp,%ebp
    3433:	53                   	push   %ebx
    3434:	83 ec 10             	sub    $0x10,%esp
    3437:	8b 45 08             	mov    0x8(%ebp),%eax
    343a:	8b 5d 0c             	mov    0xc(%ebp),%ebx
    343d:	50                   	push   %eax
    343e:	e8 bd 0e 00 00       	call   4300 <ddf_fun_get_dev>
    3443:	89 04 24             	mov    %eax,(%esp)
    3446:	e8 e5 0d 00 00       	call   4230 <ddf_dev_data_get>
    344b:	89 5d 0c             	mov    %ebx,0xc(%ebp)
    344e:	83 c4 10             	add    $0x10,%esp
    3451:	83 c0 08             	add    $0x8,%eax
    3454:	8b 5d fc             	mov    -0x4(%ebp),%ebx
    3457:	89 45 08             	mov    %eax,0x8(%ebp)
    345a:	c9                   	leave  
    345b:	e9 e0 e0 ff ff       	jmp    1540 <sb_dsp_query_cap>

00003460 <sb_test_format>:
    3460:	55                   	push   %ebp
    3461:	89 e5                	mov    %esp,%ebp
    3463:	57                   	push   %edi
    3464:	56                   	push   %esi
    3465:	53                   	push   %ebx
    3466:	83 ec 18             	sub    $0x18,%esp
    3469:	8b 45 08             	mov    0x8(%ebp),%eax
    346c:	8b 5d 0c             	mov    0xc(%ebp),%ebx
    346f:	8b 75 10             	mov    0x10(%ebp),%esi
    3472:	8b 7d 14             	mov    0x14(%ebp),%edi
    3475:	50                   	push   %eax
    3476:	e8 85 0e 00 00       	call   4300 <ddf_fun_get_dev>
    347b:	89 04 24             	mov    %eax,(%esp)
    347e:	e8 ad 0d 00 00       	call   4230 <ddf_dev_data_get>
    3483:	83 c0 08             	add    $0x8,%eax
    3486:	89 7d 14             	mov    %edi,0x14(%ebp)
    3489:	89 75 10             	mov    %esi,0x10(%ebp)
    348c:	89 5d 0c             	mov    %ebx,0xc(%ebp)
    348f:	89 45 08             	mov    %eax,0x8(%ebp)
    3492:	83 c4 10             	add    $0x10,%esp
    3495:	8d 65 f4             	lea    -0xc(%ebp),%esp
    3498:	5b                   	pop    %ebx
    3499:	5e                   	pop    %esi
    349a:	5f                   	pop    %edi
    349b:	5d                   	pop    %ebp
    349c:	e9 7f e1 ff ff       	jmp    1620 <sb_dsp_test_format>
    34a1:	66 90                	xchg   %ax,%ax
    34a3:	66 90                	xchg   %ax,%ax
    34a5:	66 90                	xchg   %ax,%ax
    34a7:	66 90                	xchg   %ax,%ax
    34a9:	66 90                	xchg   %ax,%ax
    34ab:	66 90                	xchg   %ax,%ax
    34ad:	66 90                	xchg   %ax,%ax
    34af:	90                   	nop

000034b0 <sb16_irq_code_size>:
    34b0:	55                   	push   %ebp
    34b1:	b8 03 00 00 00       	mov    $0x3,%eax
    34b6:	89 e5                	mov    %esp,%ebp
    34b8:	5d                   	pop    %ebp
    34b9:	c3                   	ret    
    34ba:	8d b6 00 00 00 00    	lea    0x0(%esi),%esi

000034c0 <sb16_irq_code>:
    34c0:	55                   	push   %ebp
    34c1:	89 e5                	mov    %esp,%ebp
    34c3:	57                   	push   %edi
    34c4:	56                   	push   %esi
    34c5:	53                   	push   %ebx
    34c6:	83 ec 0c             	sub    $0xc,%esp
    34c9:	8b 55 08             	mov    0x8(%ebp),%edx
    34cc:	8b 75 14             	mov    0x14(%ebp),%esi
    34cf:	8b 7d 18             	mov    0x18(%ebp),%edi
    34d2:	85 d2                	test   %edx,%edx
    34d4:	74 6a                	je     3540 <sb16_irq_code+0x80>
    34d6:	8b 45 0c             	mov    0xc(%ebp),%eax
    34d9:	48                   	dec    %eax
    34da:	83 f8 02             	cmp    $0x2,%eax
    34dd:	77 4f                	ja     352e <sb16_irq_code+0x6e>
    34df:	8b 1a                	mov    (%edx),%ebx
    34e1:	50                   	push   %eax
    34e2:	6a 3c                	push   $0x3c
    34e4:	68 20 d9 00 00       	push   $0xd920
    34e9:	56                   	push   %esi
    34ea:	e8 d1 c2 00 00       	call   f7c0 <memcpy@plt>
    34ef:	8d 43 0e             	lea    0xe(%ebx),%eax
    34f2:	83 c4 10             	add    $0x10,%esp
    34f5:	89 46 04             	mov    %eax,0x4(%esi)
    34f8:	8b 45 10             	mov    0x10(%ebp),%eax
    34fb:	83 e8 05             	sub    $0x5,%eax
    34fe:	89 1f                	mov    %ebx,(%edi)
    3500:	c7 47 04 14 00 00 00 	movl   $0x14,0x4(%edi)
    3507:	83 f8 02             	cmp    $0x2,%eax
    350a:	76 14                	jbe    3520 <sb16_irq_code+0x60>
    350c:	c7 46 14 0d 00 00 00 	movl   $0xd,0x14(%esi)
    3513:	8d 65 f4             	lea    -0xc(%ebp),%esp
    3516:	5b                   	pop    %ebx
    3517:	5e                   	pop    %esi
    3518:	5f                   	pop    %edi
    3519:	5d                   	pop    %ebp
    351a:	c3                   	ret    
    351b:	90                   	nop
    351c:	8d 74 26 00          	lea    0x0(%esi,%eiz,1),%esi
    3520:	83 c3 0f             	add    $0xf,%ebx
    3523:	89 5e 18             	mov    %ebx,0x18(%esi)
    3526:	8d 65 f4             	lea    -0xc(%ebp),%esp
    3529:	5b                   	pop    %ebx
    352a:	5e                   	pop    %esi
    352b:	5f                   	pop    %edi
    352c:	5d                   	pop    %ebp
    352d:	c3                   	ret    
    352e:	52                   	push   %edx
    352f:	6a 51                	push   $0x51
    3531:	68 5a d7 00 00       	push   $0xd75a
    3536:	68 66 d7 00 00       	push   $0xd766
    353b:	e8 60 c3 00 00       	call   f8a0 <assert_abort@plt>
    3540:	51                   	push   %ecx
    3541:	6a 50                	push   $0x50
    3543:	68 5a d7 00 00       	push   $0xd75a
    3548:	68 61 d7 00 00       	push   $0xd761
    354d:	e8 4e c3 00 00       	call   f8a0 <assert_abort@plt>
    3552:	8d b4 26 00 00 00 00 	lea    0x0(%esi,%eiz,1),%esi
    3559:	8d bc 27 00 00 00 00 	lea    0x0(%edi,%eiz,1),%edi

00003560 <sb16_init_sb16>:
    3560:	55                   	push   %ebp
    3561:	89 e5                	mov    %esp,%ebp
    3563:	57                   	push   %edi
    3564:	56                   	push   %esi
    3565:	53                   	push   %ebx
    3566:	83 ec 1c             	sub    $0x1c,%esp
    3569:	8b 5d 08             	mov    0x8(%ebp),%ebx
    356c:	85 db                	test   %ebx,%ebx
    356e:	0f 84 c0 02 00 00    	je     3834 <sb16_init_sb16+0x2d4>
    3574:	8b 7d 0c             	mov    0xc(%ebp),%edi
    3577:	56                   	push   %esi
    3578:	56                   	push   %esi
    3579:	53                   	push   %ebx
    357a:	57                   	push   %edi
    357b:	e8 50 c2 00 00       	call   f7d0 <pio_enable_range@plt>
    3580:	83 c4 10             	add    $0x10,%esp
    3583:	89 c7                	mov    %eax,%edi
    3585:	85 c0                	test   %eax,%eax
    3587:	74 0f                	je     3598 <sb16_init_sb16+0x38>
    3589:	8d 65 f4             	lea    -0xc(%ebp),%esp
    358c:	89 f8                	mov    %edi,%eax
    358e:	5b                   	pop    %ebx
    358f:	5e                   	pop    %esi
    3590:	5f                   	pop    %edi
    3591:	5d                   	pop    %ebp
    3592:	c3                   	ret    
    3593:	90                   	nop
    3594:	8d 74 26 00          	lea    0x0(%esi,%eiz,1),%esi
    3598:	50                   	push   %eax
    3599:	8b 13                	mov    (%ebx),%edx
    359b:	52                   	push   %edx
    359c:	68 b8 d7 00 00       	push   $0xd7b8
    35a1:	6a 03                	push   $0x3
    35a3:	e8 88 15 00 00       	call   4b30 <ddf_msg>
    35a8:	83 c4 0c             	add    $0xc,%esp
    35ab:	8b 4d 10             	mov    0x10(%ebp),%ecx
    35ae:	68 84 d7 00 00       	push   $0xd784
    35b3:	6a 02                	push   $0x2
    35b5:	51                   	push   %ecx
    35b6:	e8 65 0d 00 00       	call   4320 <ddf_fun_create>
    35bb:	83 c4 10             	add    $0x10,%esp
    35be:	89 c6                	mov    %eax,%esi
    35c0:	85 c0                	test   %eax,%eax
    35c2:	0f 84 26 02 00 00    	je     37ee <sb16_init_sb16+0x28e>
    35c8:	83 ec 0c             	sub    $0xc,%esp
    35cb:	8b 45 18             	mov    0x18(%ebp),%eax
    35ce:	50                   	push   %eax
    35cf:	8b 45 14             	mov    0x14(%ebp),%eax
    35d2:	50                   	push   %eax
    35d3:	8b 45 10             	mov    0x10(%ebp),%eax
    35d6:	50                   	push   %eax
    35d7:	8b 03                	mov    (%ebx),%eax
    35d9:	50                   	push   %eax
    35da:	8d 43 08             	lea    0x8(%ebx),%eax
    35dd:	50                   	push   %eax
    35de:	e8 5d db ff ff       	call   1140 <sb_dsp_init>
    35e3:	83 c4 20             	add    $0x20,%esp
    35e6:	89 c7                	mov    %eax,%edi
    35e8:	85 c0                	test   %eax,%eax
    35ea:	0f 85 68 01 00 00    	jne    3758 <sb16_init_sb16+0x1f8>
    35f0:	57                   	push   %edi
    35f1:	57                   	push   %edi
    35f2:	68 40 1c 01 00       	push   $0x11c40
    35f7:	56                   	push   %esi
    35f8:	e8 d3 12 00 00       	call   48d0 <ddf_fun_set_ops>
    35fd:	31 c0                	xor    %eax,%eax
    35ff:	8a 43 15             	mov    0x15(%ebx),%al
    3602:	50                   	push   %eax
    3603:	31 c0                	xor    %eax,%eax
    3605:	8a 43 14             	mov    0x14(%ebx),%al
    3608:	50                   	push   %eax
    3609:	68 1c d8 00 00       	push   $0xd81c
    360e:	6a 03                	push   $0x3
    3610:	e8 1b 15 00 00       	call   4b30 <ddf_msg>
    3615:	83 c4 14             	add    $0x14,%esp
    3618:	56                   	push   %esi
    3619:	e8 c2 0f 00 00       	call   45e0 <ddf_fun_bind>
    361e:	83 c4 10             	add    $0x10,%esp
    3621:	89 c7                	mov    %eax,%edi
    3623:	85 c0                	test   %eax,%eax
    3625:	0f 85 fd 00 00 00    	jne    3728 <sb16_init_sb16+0x1c8>
    362b:	51                   	push   %ecx
    362c:	51                   	push   %ecx
    362d:	68 7e d7 00 00       	push   $0xd77e
    3632:	56                   	push   %esi
    3633:	e8 f8 12 00 00       	call   4930 <ddf_fun_add_to_category>
    3638:	83 c4 10             	add    $0x10,%esp
    363b:	89 c7                	mov    %eax,%edi
    363d:	85 c0                	test   %eax,%eax
    363f:	0f 85 7b 01 00 00    	jne    37c0 <sb16_init_sb16+0x260>
    3645:	8a 43 14             	mov    0x14(%ebx),%al
    3648:	8a 53 15             	mov    0x15(%ebx),%dl
    364b:	3c 02                	cmp    $0x2,%al
    364d:	0f 84 8d 01 00 00    	je     37e0 <sb16_init_sb16+0x280>
    3653:	0f 86 57 01 00 00    	jbe    37b0 <sb16_init_sb16+0x250>
    3659:	bf 02 00 00 00       	mov    $0x2,%edi
    365e:	3c 03                	cmp    $0x3,%al
    3660:	74 0e                	je     3670 <sb16_init_sb16+0x110>
    3662:	bf 03 00 00 00       	mov    $0x3,%edi
    3667:	3c 04                	cmp    $0x4,%al
    3669:	74 05                	je     3670 <sb16_init_sb16+0x110>
    366b:	bf 04 00 00 00       	mov    $0x4,%edi
    3670:	8b 55 10             	mov    0x10(%ebp),%edx
    3673:	50                   	push   %eax
    3674:	68 88 d7 00 00       	push   $0xd788
    3679:	6a 02                	push   $0x2
    367b:	52                   	push   %edx
    367c:	e8 9f 0c 00 00       	call   4320 <ddf_fun_create>
    3681:	83 c4 10             	add    $0x10,%esp
    3684:	89 45 e4             	mov    %eax,-0x1c(%ebp)
    3687:	85 c0                	test   %eax,%eax
    3689:	0f 84 7a 01 00 00    	je     3809 <sb16_init_sb16+0x2a9>
    368f:	50                   	push   %eax
    3690:	57                   	push   %edi
    3691:	8b 03                	mov    (%ebx),%eax
    3693:	50                   	push   %eax
    3694:	8d 43 38             	lea    0x38(%ebx),%eax
    3697:	50                   	push   %eax
    3698:	e8 23 f7 ff ff       	call   2dc0 <sb_mixer_init>
    369d:	83 c4 10             	add    $0x10,%esp
    36a0:	89 c7                	mov    %eax,%edi
    36a2:	85 c0                	test   %eax,%eax
    36a4:	0f 85 c6 00 00 00    	jne    3770 <sb16_init_sb16+0x210>
    36aa:	83 ec 0c             	sub    $0xc,%esp
    36ad:	8b 4b 3c             	mov    0x3c(%ebx),%ecx
    36b0:	51                   	push   %ecx
    36b1:	e8 fa f6 ff ff       	call   2db0 <sb_mixer_type_str>
    36b6:	83 c4 0c             	add    $0xc,%esp
    36b9:	50                   	push   %eax
    36ba:	68 90 d7 00 00       	push   $0xd790
    36bf:	6a 03                	push   $0x3
    36c1:	e8 6a 14 00 00       	call   4b30 <ddf_msg>
    36c6:	5b                   	pop    %ebx
    36c7:	8b 5d e4             	mov    -0x1c(%ebp),%ebx
    36ca:	5f                   	pop    %edi
    36cb:	68 a0 1c 01 00       	push   $0x11ca0
    36d0:	53                   	push   %ebx
    36d1:	e8 fa 11 00 00       	call   48d0 <ddf_fun_set_ops>
    36d6:	89 1c 24             	mov    %ebx,(%esp)
    36d9:	e8 02 0f 00 00       	call   45e0 <ddf_fun_bind>
    36de:	83 c4 10             	add    $0x10,%esp
    36e1:	89 c7                	mov    %eax,%edi
    36e3:	85 c0                	test   %eax,%eax
    36e5:	0f 84 9e fe ff ff    	je     3589 <sb16_init_sb16+0x29>
    36eb:	83 ec 0c             	sub    $0xc,%esp
    36ee:	50                   	push   %eax
    36ef:	e8 fc c3 00 00       	call   faf0 <str_error@plt>
    36f4:	83 c4 0c             	add    $0xc,%esp
    36f7:	50                   	push   %eax
    36f8:	68 e0 d8 00 00       	push   $0xd8e0
    36fd:	6a 01                	push   $0x1
    36ff:	e8 2c 14 00 00       	call   4b30 <ddf_msg>
    3704:	8b 55 e4             	mov    -0x1c(%ebp),%edx
    3707:	58                   	pop    %eax
    3708:	52                   	push   %edx
    3709:	e8 a2 0d 00 00       	call   44b0 <ddf_fun_destroy>
    370e:	89 34 24             	mov    %esi,(%esp)
    3711:	e8 fa 0f 00 00       	call   4710 <ddf_fun_unbind>
    3716:	89 34 24             	mov    %esi,(%esp)
    3719:	e8 92 0d 00 00       	call   44b0 <ddf_fun_destroy>
    371e:	83 c4 10             	add    $0x10,%esp
    3721:	e9 63 fe ff ff       	jmp    3589 <sb16_init_sb16+0x29>
    3726:	66 90                	xchg   %ax,%ax
    3728:	83 ec 0c             	sub    $0xc,%esp
    372b:	50                   	push   %eax
    372c:	e8 bf c3 00 00       	call   faf0 <str_error@plt>
    3731:	83 c4 0c             	add    $0xc,%esp
    3734:	50                   	push   %eax
    3735:	68 44 d8 00 00       	push   $0xd844
    373a:	6a 01                	push   $0x1
    373c:	e8 ef 13 00 00       	call   4b30 <ddf_msg>
    3741:	89 34 24             	mov    %esi,(%esp)
    3744:	e8 67 0d 00 00       	call   44b0 <ddf_fun_destroy>
    3749:	83 c4 10             	add    $0x10,%esp
    374c:	8d 65 f4             	lea    -0xc(%ebp),%esp
    374f:	89 f8                	mov    %edi,%eax
    3751:	5b                   	pop    %ebx
    3752:	5e                   	pop    %esi
    3753:	5f                   	pop    %edi
    3754:	5d                   	pop    %ebp
    3755:	c3                   	ret    
    3756:	66 90                	xchg   %ax,%ax
    3758:	83 ec 0c             	sub    $0xc,%esp
    375b:	50                   	push   %eax
    375c:	e8 8f c3 00 00       	call   faf0 <str_error@plt>
    3761:	83 c4 0c             	add    $0xc,%esp
    3764:	50                   	push   %eax
    3765:	68 f8 d7 00 00       	push   $0xd7f8
    376a:	eb ce                	jmp    373a <sb16_init_sb16+0x1da>
    376c:	8d 74 26 00          	lea    0x0(%esi,%eiz,1),%esi
    3770:	83 ec 0c             	sub    $0xc,%esp
    3773:	50                   	push   %eax
    3774:	e8 77 c3 00 00       	call   faf0 <str_error@plt>
    3779:	83 c4 0c             	add    $0xc,%esp
    377c:	50                   	push   %eax
    377d:	68 bc d8 00 00       	push   $0xd8bc
    3782:	6a 01                	push   $0x1
    3784:	e8 a7 13 00 00       	call   4b30 <ddf_msg>
    3789:	89 34 24             	mov    %esi,(%esp)
    378c:	e8 7f 0f 00 00       	call   4710 <ddf_fun_unbind>
    3791:	89 34 24             	mov    %esi,(%esp)
    3794:	e8 17 0d 00 00       	call   44b0 <ddf_fun_destroy>
    3799:	58                   	pop    %eax
    379a:	8b 45 e4             	mov    -0x1c(%ebp),%eax
    379d:	50                   	push   %eax
    379e:	e8 0d 0d 00 00       	call   44b0 <ddf_fun_destroy>
    37a3:	83 c4 10             	add    $0x10,%esp
    37a6:	e9 de fd ff ff       	jmp    3589 <sb16_init_sb16+0x29>
    37ab:	90                   	nop
    37ac:	8d 74 26 00          	lea    0x0(%esi,%eiz,1),%esi
    37b0:	31 ff                	xor    %edi,%edi
    37b2:	fe c8                	dec    %al
    37b4:	0f 84 b6 fe ff ff    	je     3670 <sb16_init_sb16+0x110>
    37ba:	e9 ac fe ff ff       	jmp    366b <sb16_init_sb16+0x10b>
    37bf:	90                   	nop
    37c0:	83 ec 0c             	sub    $0xc,%esp
    37c3:	50                   	push   %eax
    37c4:	e8 27 c3 00 00       	call   faf0 <str_error@plt>
    37c9:	83 c4 0c             	add    $0xc,%esp
    37cc:	50                   	push   %eax
    37cd:	68 68 d8 00 00       	push   $0xd868
    37d2:	6a 01                	push   $0x1
    37d4:	e8 57 13 00 00       	call   4b30 <ddf_msg>
    37d9:	e9 30 ff ff ff       	jmp    370e <sb16_init_sb16+0x1ae>
    37de:	66 90                	xchg   %ax,%ax
    37e0:	31 c0                	xor    %eax,%eax
    37e2:	84 d2                	test   %dl,%dl
    37e4:	0f 95 c0             	setne  %al
    37e7:	89 c7                	mov    %eax,%edi
    37e9:	e9 82 fe ff ff       	jmp    3670 <sb16_init_sb16+0x110>
    37ee:	50                   	push   %eax
    37ef:	50                   	push   %eax
    37f0:	68 d8 d7 00 00       	push   $0xd7d8
    37f5:	6a 01                	push   $0x1
    37f7:	bf fe ff ff ff       	mov    $0xfffffffe,%edi
    37fc:	e8 2f 13 00 00       	call   4b30 <ddf_msg>
    3801:	83 c4 10             	add    $0x10,%esp
    3804:	e9 80 fd ff ff       	jmp    3589 <sb16_init_sb16+0x29>
    3809:	50                   	push   %eax
    380a:	50                   	push   %eax
    380b:	68 98 d8 00 00       	push   $0xd898
    3810:	6a 01                	push   $0x1
    3812:	bf fe ff ff ff       	mov    $0xfffffffe,%edi
    3817:	e8 14 13 00 00       	call   4b30 <ddf_msg>
    381c:	89 34 24             	mov    %esi,(%esp)
    381f:	e8 ec 0e 00 00       	call   4710 <ddf_fun_unbind>
    3824:	89 34 24             	mov    %esi,(%esp)
    3827:	e8 84 0c 00 00       	call   44b0 <ddf_fun_destroy>
    382c:	83 c4 10             	add    $0x10,%esp
    382f:	e9 55 fd ff ff       	jmp    3589 <sb16_init_sb16+0x29>
    3834:	50                   	push   %eax
    3835:	6a 63                	push   $0x63
    3837:	68 5a d7 00 00       	push   $0xd75a
    383c:	68 7b d7 00 00       	push   $0xd77b
    3841:	e8 5a c0 00 00       	call   f8a0 <assert_abort@plt>
    3846:	8d 76 00             	lea    0x0(%esi),%esi
    3849:	8d bc 27 00 00 00 00 	lea    0x0(%edi,%eiz,1),%edi

00003850 <sb16_init_mpu>:
    3850:	55                   	push   %ebp
    3851:	89 e5                	mov    %esp,%ebp
    3853:	8b 45 08             	mov    0x8(%ebp),%eax
    3856:	c7 40 04 00 00 00 00 	movl   $0x0,0x4(%eax)
    385d:	b8 f5 ff ff ff       	mov    $0xfffffff5,%eax
    3862:	5d                   	pop    %ebp
    3863:	c3                   	ret    
    3864:	8d b6 00 00 00 00    	lea    0x0(%esi),%esi
    386a:	8d bf 00 00 00 00    	lea    0x0(%edi),%edi

00003870 <sb16_interrupt>:
    3870:	55                   	push   %ebp
    3871:	89 e5                	mov    %esp,%ebp
    3873:	53                   	push   %ebx
    3874:	53                   	push   %ebx
    3875:	8b 5d 08             	mov    0x8(%ebp),%ebx
    3878:	85 db                	test   %ebx,%ebx
    387a:	74 57                	je     38d3 <sb16_interrupt+0x63>
    387c:	80 7b 14 03          	cmpb   $0x3,0x14(%ebx)
    3880:	77 26                	ja     38a8 <sb16_interrupt+0x38>
    3882:	50                   	push   %eax
    3883:	50                   	push   %eax
    3884:	68 a7 d7 00 00       	push   $0xd7a7
    3889:	6a 04                	push   $0x4
    388b:	e8 a0 12 00 00       	call   4b30 <ddf_msg>
    3890:	83 c4 10             	add    $0x10,%esp
    3893:	83 c3 08             	add    $0x8,%ebx
    3896:	89 5d 08             	mov    %ebx,0x8(%ebp)
    3899:	8b 5d fc             	mov    -0x4(%ebp),%ebx
    389c:	c9                   	leave  
    389d:	e9 ce da ff ff       	jmp    1370 <sb_dsp_interrupt>
    38a2:	8d b6 00 00 00 00    	lea    0x0(%esi),%esi
    38a8:	52                   	push   %edx
    38a9:	52                   	push   %edx
    38aa:	68 82 00 00 00       	push   $0x82
    38af:	8b 03                	mov    (%ebx),%eax
    38b1:	83 c0 04             	add    $0x4,%eax
    38b4:	50                   	push   %eax
    38b5:	e8 46 c0 00 00       	call   f900 <pio_write_8@plt>
    38ba:	8b 03                	mov    (%ebx),%eax
    38bc:	83 c0 05             	add    $0x5,%eax
    38bf:	89 04 24             	mov    %eax,(%esp)
    38c2:	e8 b9 bf 00 00       	call   f880 <pio_read_8@plt>
    38c7:	83 c4 10             	add    $0x10,%esp
    38ca:	a8 04                	test   $0x4,%al
    38cc:	74 c5                	je     3893 <sb16_interrupt+0x23>
    38ce:	8b 5d fc             	mov    -0x4(%ebp),%ebx
    38d1:	c9                   	leave  
    38d2:	c3                   	ret    
    38d3:	51                   	push   %ecx
    38d4:	68 bd 00 00 00       	push   $0xbd
    38d9:	68 5a d7 00 00       	push   $0xd75a
    38de:	68 7b d7 00 00       	push   $0xd77b
    38e3:	e8 b8 bf 00 00       	call   f8a0 <assert_abort@plt>
    38e8:	66 90                	xchg   %ax,%ax
    38ea:	66 90                	xchg   %ax,%ax
    38ec:	66 90                	xchg   %ax,%ax
    38ee:	66 90                	xchg   %ax,%ax

000038f0 <fun_del_ref>:
    38f0:	55                   	push   %ebp
    38f1:	83 ca ff             	or     $0xffffffff,%edx
    38f4:	89 e5                	mov    %esp,%ebp
    38f6:	57                   	push   %edi
    38f7:	56                   	push   %esi
    38f8:	53                   	push   %ebx
    38f9:	83 ec 1c             	sub    $0x1c,%esp
    38fc:	8b 70 0c             	mov    0xc(%eax),%esi
    38ff:	f0 0f c1 50 08       	lock xadd %edx,0x8(%eax)
    3904:	4a                   	dec    %edx
    3905:	74 69                	je     3970 <fun_del_ref+0x80>
    3907:	83 c8 ff             	or     $0xffffffff,%eax
    390a:	f0 0f c1 46 04       	lock xadd %eax,0x4(%esi)
    390f:	48                   	dec    %eax
    3910:	74 0e                	je     3920 <fun_del_ref+0x30>
    3912:	8d 65 f4             	lea    -0xc(%ebp),%esp
    3915:	5b                   	pop    %ebx
    3916:	5e                   	pop    %esi
    3917:	5f                   	pop    %edi
    3918:	5d                   	pop    %ebp
    3919:	c3                   	ret    
    391a:	8d b6 00 00 00 00    	lea    0x0(%esi),%esi
    3920:	8b 46 08             	mov    0x8(%esi),%eax
    3923:	85 c0                	test   %eax,%eax
    3925:	74 0c                	je     3933 <fun_del_ref+0x43>
    3927:	83 ec 0c             	sub    $0xc,%esp
    392a:	50                   	push   %eax
    392b:	e8 d0 bd 00 00       	call   f700 <async_hangup@plt>
    3930:	83 c4 10             	add    $0x10,%esp
    3933:	8b 46 10             	mov    0x10(%esi),%eax
    3936:	85 c0                	test   %eax,%eax
    3938:	74 0c                	je     3946 <fun_del_ref+0x56>
    393a:	83 ec 0c             	sub    $0xc,%esp
    393d:	50                   	push   %eax
    393e:	e8 9d c2 00 00       	call   fbe0 <free@plt>
    3943:	83 c4 10             	add    $0x10,%esp
    3946:	8b 46 0c             	mov    0xc(%esi),%eax
    3949:	85 c0                	test   %eax,%eax
    394b:	74 0c                	je     3959 <fun_del_ref+0x69>
    394d:	83 ec 0c             	sub    $0xc,%esp
    3950:	50                   	push   %eax
    3951:	e8 8a c2 00 00       	call   fbe0 <free@plt>
    3956:	83 c4 10             	add    $0x10,%esp
    3959:	83 ec 0c             	sub    $0xc,%esp
    395c:	56                   	push   %esi
    395d:	e8 7e c2 00 00       	call   fbe0 <free@plt>
    3962:	83 c4 10             	add    $0x10,%esp
    3965:	8d 65 f4             	lea    -0xc(%ebp),%esp
    3968:	5b                   	pop    %ebx
    3969:	5e                   	pop    %esi
    396a:	5f                   	pop    %edi
    396b:	5d                   	pop    %ebp
    396c:	c3                   	ret    
    396d:	8d 76 00             	lea    0x0(%esi),%esi
    3970:	8b 58 1c             	mov    0x1c(%eax),%ebx
    3973:	89 c7                	mov    %eax,%edi
    3975:	8d 40 18             	lea    0x18(%eax),%eax
    3978:	89 45 e4             	mov    %eax,-0x1c(%ebp)
    397b:	39 d8                	cmp    %ebx,%eax
    397d:	74 49                	je     39c8 <fun_del_ref+0xd8>
    397f:	90                   	nop
    3980:	8b 0b                	mov    (%ebx),%ecx
    3982:	85 c9                	test   %ecx,%ecx
    3984:	74 0e                	je     3994 <fun_del_ref+0xa4>
    3986:	8b 53 04             	mov    0x4(%ebx),%edx
    3989:	85 d2                	test   %edx,%edx
    398b:	74 07                	je     3994 <fun_del_ref+0xa4>
    398d:	89 0a                	mov    %ecx,(%edx)
    398f:	8b 0b                	mov    (%ebx),%ecx
    3991:	89 51 04             	mov    %edx,0x4(%ecx)
    3994:	8b 53 08             	mov    0x8(%ebx),%edx
    3997:	c7 03 00 00 00 00    	movl   $0x0,(%ebx)
    399d:	c7 43 04 00 00 00 00 	movl   $0x0,0x4(%ebx)
    39a4:	85 d2                	test   %edx,%edx
    39a6:	74 0c                	je     39b4 <fun_del_ref+0xc4>
    39a8:	83 ec 0c             	sub    $0xc,%esp
    39ab:	52                   	push   %edx
    39ac:	e8 2f c2 00 00       	call   fbe0 <free@plt>
    39b1:	83 c4 10             	add    $0x10,%esp
    39b4:	83 ec 0c             	sub    $0xc,%esp
    39b7:	53                   	push   %ebx
    39b8:	e8 23 c2 00 00       	call   fbe0 <free@plt>
    39bd:	8b 5f 1c             	mov    0x1c(%edi),%ebx
    39c0:	83 c4 10             	add    $0x10,%esp
    39c3:	3b 5d e4             	cmp    -0x1c(%ebp),%ebx
    39c6:	75 b8                	jne    3980 <fun_del_ref+0x90>
    39c8:	8b 57 20             	mov    0x20(%edi),%edx
    39cb:	85 d2                	test   %edx,%edx
    39cd:	74 0c                	je     39db <fun_del_ref+0xeb>
    39cf:	83 ec 0c             	sub    $0xc,%esp
    39d2:	52                   	push   %edx
    39d3:	e8 08 c2 00 00       	call   fbe0 <free@plt>
    39d8:	83 c4 10             	add    $0x10,%esp
    39db:	8b 57 14             	mov    0x14(%edi),%edx
    39de:	85 d2                	test   %edx,%edx
    39e0:	74 0c                	je     39ee <fun_del_ref+0xfe>
    39e2:	83 ec 0c             	sub    $0xc,%esp
    39e5:	52                   	push   %edx
    39e6:	e8 f5 c1 00 00       	call   fbe0 <free@plt>
    39eb:	83 c4 10             	add    $0x10,%esp
    39ee:	83 ec 0c             	sub    $0xc,%esp
    39f1:	57                   	push   %edi
    39f2:	e8 e9 c1 00 00       	call   fbe0 <free@plt>
    39f7:	83 c4 10             	add    $0x10,%esp
    39fa:	e9 08 ff ff ff       	jmp    3907 <fun_del_ref+0x17>
    39ff:	90                   	nop

00003a00 <driver_connection_gen.constprop.7>:
    3a00:	55                   	push   %ebp
    3a01:	89 e5                	mov    %esp,%ebp
    3a03:	57                   	push   %edi
    3a04:	56                   	push   %esi
    3a05:	53                   	push   %ebx
    3a06:	83 ec 58             	sub    $0x58,%esp
    3a09:	89 d3                	mov    %edx,%ebx
    3a0b:	8b 72 08             	mov    0x8(%edx),%esi
    3a0e:	89 45 b4             	mov    %eax,-0x4c(%ebp)
    3a11:	68 e8 1c 01 00       	push   $0x11ce8
    3a16:	e8 e5 c1 00 00       	call   fc00 <fibril_mutex_lock@plt>
    3a1b:	c7 04 24 e8 1c 01 00 	movl   $0x11ce8,(%esp)
    3a22:	e8 49 bd 00 00       	call   f770 <fibril_mutex_is_locked@plt>
    3a27:	83 c4 10             	add    $0x10,%esp
    3a2a:	84 c0                	test   %al,%al
    3a2c:	0f 84 71 02 00 00    	je     3ca3 <driver_connection_gen.constprop.7+0x2a3>
    3a32:	a1 fc 1c 01 00       	mov    0x11cfc,%eax
    3a37:	3d f8 1c 01 00       	cmp    $0x11cf8,%eax
    3a3c:	8d 78 d4             	lea    -0x2c(%eax),%edi
    3a3f:	75 18                	jne    3a59 <driver_connection_gen.constprop.7+0x59>
    3a41:	e9 22 02 00 00       	jmp    3c68 <driver_connection_gen.constprop.7+0x268>
    3a46:	66 90                	xchg   %ax,%ax
    3a48:	8b 40 04             	mov    0x4(%eax),%eax
    3a4b:	3d f8 1c 01 00       	cmp    $0x11cf8,%eax
    3a50:	8d 78 d4             	lea    -0x2c(%eax),%edi
    3a53:	0f 84 0f 02 00 00    	je     3c68 <driver_connection_gen.constprop.7+0x268>
    3a59:	3b 77 04             	cmp    0x4(%edi),%esi
    3a5c:	75 ea                	jne    3a48 <driver_connection_gen.constprop.7+0x48>
    3a5e:	8b 47 0c             	mov    0xc(%edi),%eax
    3a61:	f0 ff 40 04          	lock incl 0x4(%eax)
    3a65:	f0 ff 47 08          	lock incl 0x8(%edi)
    3a69:	83 ec 0c             	sub    $0xc,%esp
    3a6c:	68 e8 1c 01 00       	push   $0x11ce8
    3a71:	e8 ca be 00 00       	call   f940 <fibril_mutex_unlock@plt>
    3a76:	8b 47 28             	mov    0x28(%edi),%eax
    3a79:	83 c4 10             	add    $0x10,%esp
    3a7c:	85 c0                	test   %eax,%eax
    3a7e:	74 20                	je     3aa0 <driver_connection_gen.constprop.7+0xa0>
    3a80:	8b 55 b4             	mov    -0x4c(%ebp),%edx
    3a83:	56                   	push   %esi
    3a84:	57                   	push   %edi
    3a85:	53                   	push   %ebx
    3a86:	52                   	push   %edx
    3a87:	ff d0                	call   *%eax
    3a89:	89 f8                	mov    %edi,%eax
    3a8b:	e8 60 fe ff ff       	call   38f0 <fun_del_ref>
    3a90:	83 c4 10             	add    $0x10,%esp
    3a93:	8d 65 f4             	lea    -0xc(%ebp),%esp
    3a96:	5b                   	pop    %ebx
    3a97:	5e                   	pop    %esi
    3a98:	5f                   	pop    %edi
    3a99:	5d                   	pop    %ebp
    3a9a:	c3                   	ret    
    3a9b:	90                   	nop
    3a9c:	8d 74 26 00          	lea    0x0(%esi,%eiz,1),%esi
    3aa0:	8b 47 24             	mov    0x24(%edi),%eax
    3aa3:	85 c0                	test   %eax,%eax
    3aa5:	0f 84 a5 01 00 00    	je     3c50 <driver_connection_gen.constprop.7+0x250>
    3aab:	8b 00                	mov    (%eax),%eax
    3aad:	85 c0                	test   %eax,%eax
    3aaf:	0f 84 9b 01 00 00    	je     3c50 <driver_connection_gen.constprop.7+0x250>
    3ab5:	83 ec 0c             	sub    $0xc,%esp
    3ab8:	57                   	push   %edi
    3ab9:	ff d0                	call   *%eax
    3abb:	8b 4d b4             	mov    -0x4c(%ebp),%ecx
    3abe:	89 c3                	mov    %eax,%ebx
    3ac0:	58                   	pop    %eax
    3ac1:	5a                   	pop    %edx
    3ac2:	53                   	push   %ebx
    3ac3:	51                   	push   %ecx
    3ac4:	e8 67 bd 00 00       	call   f830 <async_answer_0@plt>
    3ac9:	83 c4 10             	add    $0x10,%esp
    3acc:	85 db                	test   %ebx,%ebx
    3ace:	0f 85 70 01 00 00    	jne    3c44 <driver_connection_gen.constprop.7+0x244>
    3ad4:	8d 74 26 00          	lea    0x0(%esi,%eiz,1),%esi
    3ad8:	50                   	push   %eax
    3ad9:	50                   	push   %eax
    3ada:	8d 45 c4             	lea    -0x3c(%ebp),%eax
    3add:	6a 00                	push   $0x0
    3adf:	50                   	push   %eax
    3ae0:	e8 bb bf 00 00       	call   faa0 <async_get_call_timeout@plt>
    3ae5:	8b 5d c4             	mov    -0x3c(%ebp),%ebx
    3ae8:	83 c4 10             	add    $0x10,%esp
    3aeb:	89 45 b4             	mov    %eax,-0x4c(%ebp)
    3aee:	85 db                	test   %ebx,%ebx
    3af0:	0f 84 e2 00 00 00    	je     3bd8 <driver_connection_gen.constprop.7+0x1d8>
    3af6:	83 ec 0c             	sub    $0xc,%esp
    3af9:	81 eb 00 04 00 00    	sub    $0x400,%ebx
    3aff:	53                   	push   %ebx
    3b00:	e8 cb 0f 00 00       	call   4ad0 <is_valid_iface_idx>
    3b05:	83 c4 10             	add    $0x10,%esp
    3b08:	84 c0                	test   %al,%al
    3b0a:	75 2c                	jne    3b38 <driver_connection_gen.constprop.7+0x138>
    3b0c:	8b 47 24             	mov    0x24(%edi),%eax
    3b0f:	85 c0                	test   %eax,%eax
    3b11:	0f 84 91 00 00 00    	je     3ba8 <driver_connection_gen.constprop.7+0x1a8>
    3b17:	8b 40 44             	mov    0x44(%eax),%eax
    3b1a:	85 c0                	test   %eax,%eax
    3b1c:	0f 84 86 00 00 00    	je     3ba8 <driver_connection_gen.constprop.7+0x1a8>
    3b22:	8d 4d c4             	lea    -0x3c(%ebp),%ecx
    3b25:	52                   	push   %edx
    3b26:	51                   	push   %ecx
    3b27:	8b 4d b4             	mov    -0x4c(%ebp),%ecx
    3b2a:	51                   	push   %ecx
    3b2b:	57                   	push   %edi
    3b2c:	ff d0                	call   *%eax
    3b2e:	83 c4 10             	add    $0x10,%esp
    3b31:	eb a5                	jmp    3ad8 <driver_connection_gen.constprop.7+0xd8>
    3b33:	90                   	nop
    3b34:	8d 74 26 00          	lea    0x0(%esi,%eiz,1),%esi
    3b38:	83 ec 0c             	sub    $0xc,%esp
    3b3b:	53                   	push   %ebx
    3b3c:	e8 8f 0f 00 00       	call   4ad0 <is_valid_iface_idx>
    3b41:	83 c4 10             	add    $0x10,%esp
    3b44:	84 c0                	test   %al,%al
    3b46:	0f 84 69 01 00 00    	je     3cb5 <driver_connection_gen.constprop.7+0x2b5>
    3b4c:	8b 47 24             	mov    0x24(%edi),%eax
    3b4f:	85 c0                	test   %eax,%eax
    3b51:	0f 84 b9 00 00 00    	je     3c10 <driver_connection_gen.constprop.7+0x210>
    3b57:	8b 44 98 08          	mov    0x8(%eax,%ebx,4),%eax
    3b5b:	89 45 b0             	mov    %eax,-0x50(%ebp)
    3b5e:	85 c0                	test   %eax,%eax
    3b60:	0f 84 aa 00 00 00    	je     3c10 <driver_connection_gen.constprop.7+0x210>
    3b66:	83 ec 0c             	sub    $0xc,%esp
    3b69:	53                   	push   %ebx
    3b6a:	e8 11 0f 00 00       	call   4a80 <get_remote_iface>
    3b6f:	83 c4 10             	add    $0x10,%esp
    3b72:	85 c0                	test   %eax,%eax
    3b74:	0f 84 50 01 00 00    	je     3cca <driver_connection_gen.constprop.7+0x2ca>
    3b7a:	8b 4d c8             	mov    -0x38(%ebp),%ecx
    3b7d:	52                   	push   %edx
    3b7e:	52                   	push   %edx
    3b7f:	51                   	push   %ecx
    3b80:	50                   	push   %eax
    3b81:	e8 2a 0f 00 00       	call   4ab0 <get_remote_method>
    3b86:	83 c4 10             	add    $0x10,%esp
    3b89:	85 c0                	test   %eax,%eax
    3b8b:	0f 84 9f 00 00 00    	je     3c30 <driver_connection_gen.constprop.7+0x230>
    3b91:	8d 55 c4             	lea    -0x3c(%ebp),%edx
    3b94:	8b 4d b0             	mov    -0x50(%ebp),%ecx
    3b97:	52                   	push   %edx
    3b98:	8b 55 b4             	mov    -0x4c(%ebp),%edx
    3b9b:	52                   	push   %edx
    3b9c:	51                   	push   %ecx
    3b9d:	57                   	push   %edi
    3b9e:	ff d0                	call   *%eax
    3ba0:	83 c4 10             	add    $0x10,%esp
    3ba3:	e9 30 ff ff ff       	jmp    3ad8 <driver_connection_gen.constprop.7+0xd8>
    3ba8:	50                   	push   %eax
    3ba9:	a1 94 1e 01 00       	mov    0x11e94,%eax
    3bae:	53                   	push   %ebx
    3baf:	8b 00                	mov    (%eax),%eax
    3bb1:	50                   	push   %eax
    3bb2:	68 e0 da 00 00       	push   $0xdae0
    3bb7:	e8 34 bb 00 00       	call   f6f0 <printf@plt>
    3bbc:	5b                   	pop    %ebx
    3bbd:	58                   	pop    %eax
    3bbe:	8b 45 b4             	mov    -0x4c(%ebp),%eax
    3bc1:	6a f5                	push   $0xfffffff5
    3bc3:	50                   	push   %eax
    3bc4:	e8 67 bc 00 00       	call   f830 <async_answer_0@plt>
    3bc9:	83 c4 10             	add    $0x10,%esp
    3bcc:	e9 07 ff ff ff       	jmp    3ad8 <driver_connection_gen.constprop.7+0xd8>
    3bd1:	8d b4 26 00 00 00 00 	lea    0x0(%esi,%eiz,1),%esi
    3bd8:	8b 47 24             	mov    0x24(%edi),%eax
    3bdb:	85 c0                	test   %eax,%eax
    3bdd:	74 10                	je     3bef <driver_connection_gen.constprop.7+0x1ef>
    3bdf:	8b 40 04             	mov    0x4(%eax),%eax
    3be2:	85 c0                	test   %eax,%eax
    3be4:	74 09                	je     3bef <driver_connection_gen.constprop.7+0x1ef>
    3be6:	83 ec 0c             	sub    $0xc,%esp
    3be9:	57                   	push   %edi
    3bea:	ff d0                	call   *%eax
    3bec:	83 c4 10             	add    $0x10,%esp
    3bef:	8b 75 b4             	mov    -0x4c(%ebp),%esi
    3bf2:	53                   	push   %ebx
    3bf3:	53                   	push   %ebx
    3bf4:	6a 00                	push   $0x0
    3bf6:	56                   	push   %esi
    3bf7:	e8 34 bc 00 00       	call   f830 <async_answer_0@plt>
    3bfc:	89 f8                	mov    %edi,%eax
    3bfe:	e8 ed fc ff ff       	call   38f0 <fun_del_ref>
    3c03:	83 c4 10             	add    $0x10,%esp
    3c06:	8d 65 f4             	lea    -0xc(%ebp),%esp
    3c09:	5b                   	pop    %ebx
    3c0a:	5e                   	pop    %esi
    3c0b:	5f                   	pop    %edi
    3c0c:	5d                   	pop    %ebp
    3c0d:	c3                   	ret    
    3c0e:	66 90                	xchg   %ax,%ax
    3c10:	50                   	push   %eax
    3c11:	50                   	push   %eax
    3c12:	a1 94 1e 01 00       	mov    0x11e94,%eax
    3c17:	8b 00                	mov    (%eax),%eax
    3c19:	50                   	push   %eax
    3c1a:	68 1c db 00 00       	push   $0xdb1c
    3c1f:	e8 cc ba 00 00       	call   f6f0 <printf@plt>
    3c24:	83 c4 0c             	add    $0xc,%esp
    3c27:	53                   	push   %ebx
    3c28:	56                   	push   %esi
    3c29:	68 40 db 00 00       	push   $0xdb40
    3c2e:	eb 87                	jmp    3bb7 <driver_connection_gen.constprop.7+0x1b7>
    3c30:	50                   	push   %eax
    3c31:	50                   	push   %eax
    3c32:	a1 94 1e 01 00       	mov    0x11e94,%eax
    3c37:	8b 00                	mov    (%eax),%eax
    3c39:	50                   	push   %eax
    3c3a:	68 78 db 00 00       	push   $0xdb78
    3c3f:	e9 73 ff ff ff       	jmp    3bb7 <driver_connection_gen.constprop.7+0x1b7>
    3c44:	89 f8                	mov    %edi,%eax
    3c46:	e8 a5 fc ff ff       	call   38f0 <fun_del_ref>
    3c4b:	e9 43 fe ff ff       	jmp    3a93 <driver_connection_gen.constprop.7+0x93>
    3c50:	8b 55 b4             	mov    -0x4c(%ebp),%edx
    3c53:	50                   	push   %eax
    3c54:	50                   	push   %eax
    3c55:	6a 00                	push   $0x0
    3c57:	52                   	push   %edx
    3c58:	e8 d3 bb 00 00       	call   f830 <async_answer_0@plt>
    3c5d:	83 c4 10             	add    $0x10,%esp
    3c60:	e9 73 fe ff ff       	jmp    3ad8 <driver_connection_gen.constprop.7+0xd8>
    3c65:	8d 76 00             	lea    0x0(%esi),%esi
    3c68:	83 ec 0c             	sub    $0xc,%esp
    3c6b:	68 e8 1c 01 00       	push   $0x11ce8
    3c70:	e8 cb bc 00 00       	call   f940 <fibril_mutex_unlock@plt>
    3c75:	a1 94 1e 01 00       	mov    0x11e94,%eax
    3c7a:	83 c4 0c             	add    $0xc,%esp
    3c7d:	8b 08                	mov    (%eax),%ecx
    3c7f:	56                   	push   %esi
    3c80:	51                   	push   %ecx
    3c81:	68 b4 db 00 00       	push   $0xdbb4
    3c86:	e8 65 ba 00 00       	call   f6f0 <printf@plt>
    3c8b:	8b 7d b4             	mov    -0x4c(%ebp),%edi
    3c8e:	5b                   	pop    %ebx
    3c8f:	5e                   	pop    %esi
    3c90:	6a ff                	push   $0xffffffff
    3c92:	57                   	push   %edi
    3c93:	e8 98 bb 00 00       	call   f830 <async_answer_0@plt>
    3c98:	83 c4 10             	add    $0x10,%esp
    3c9b:	8d 65 f4             	lea    -0xc(%ebp),%esp
    3c9e:	5b                   	pop    %ebx
    3c9f:	5e                   	pop    %esi
    3ca0:	5f                   	pop    %edi
    3ca1:	5d                   	pop    %ebp
    3ca2:	c3                   	ret    
    3ca3:	51                   	push   %ecx
    3ca4:	6a 6b                	push   $0x6b
    3ca6:	68 5c d9 00 00       	push   $0xd95c
    3cab:	68 b4 da 00 00       	push   $0xdab4
    3cb0:	e8 eb bb 00 00       	call   f8a0 <assert_abort@plt>
    3cb5:	50                   	push   %eax
    3cb6:	68 fb 02 00 00       	push   $0x2fb
    3cbb:	68 5c d9 00 00       	push   $0xd95c
    3cc0:	68 6d d9 00 00       	push   $0xd96d
    3cc5:	e8 d6 bb 00 00       	call   f8a0 <assert_abort@plt>
    3cca:	53                   	push   %ebx
    3ccb:	68 aa 01 00 00       	push   $0x1aa
    3cd0:	68 5c d9 00 00       	push   $0xd95c
    3cd5:	68 85 d9 00 00       	push   $0xd985
    3cda:	e8 c1 bb 00 00       	call   f8a0 <assert_abort@plt>
    3cdf:	90                   	nop

00003ce0 <driver_connection_driver>:
    3ce0:	55                   	push   %ebp
    3ce1:	89 e5                	mov    %esp,%ebp
    3ce3:	8b 55 0c             	mov    0xc(%ebp),%edx
    3ce6:	8b 45 08             	mov    0x8(%ebp),%eax
    3ce9:	5d                   	pop    %ebp
    3cea:	e9 11 fd ff ff       	jmp    3a00 <driver_connection_gen.constprop.7>
    3cef:	90                   	nop

00003cf0 <driver_connection_client>:
    3cf0:	55                   	push   %ebp
    3cf1:	89 e5                	mov    %esp,%ebp
    3cf3:	8b 55 0c             	mov    0xc(%ebp),%edx
    3cf6:	8b 45 08             	mov    0x8(%ebp),%eax
    3cf9:	5d                   	pop    %ebp
    3cfa:	e9 01 fd ff ff       	jmp    3a00 <driver_connection_gen.constprop.7>
    3cff:	90                   	nop

00003d00 <driver_connection_devman>:
    3d00:	55                   	push   %ebp
    3d01:	89 e5                	mov    %esp,%ebp
    3d03:	57                   	push   %edi
    3d04:	56                   	push   %esi
    3d05:	53                   	push   %ebx
    3d06:	83 ec 54             	sub    $0x54,%esp
    3d09:	8d 75 c4             	lea    -0x3c(%ebp),%esi
    3d0c:	8b 45 08             	mov    0x8(%ebp),%eax
    3d0f:	6a 00                	push   $0x0
    3d11:	50                   	push   %eax
    3d12:	e8 19 bb 00 00       	call   f830 <async_answer_0@plt>
    3d17:	83 c4 10             	add    $0x10,%esp
    3d1a:	8d b6 00 00 00 00    	lea    0x0(%esi),%esi
    3d20:	50                   	push   %eax
    3d21:	50                   	push   %eax
    3d22:	6a 00                	push   $0x0
    3d24:	56                   	push   %esi
    3d25:	e8 76 bd 00 00       	call   faa0 <async_get_call_timeout@plt>
    3d2a:	83 c4 10             	add    $0x10,%esp
    3d2d:	89 c3                	mov    %eax,%ebx
    3d2f:	8b 45 c4             	mov    -0x3c(%ebp),%eax
    3d32:	85 c0                	test   %eax,%eax
    3d34:	0f 84 de 03 00 00    	je     4118 <driver_connection_devman+0x418>
    3d3a:	2d 00 04 00 00       	sub    $0x400,%eax
    3d3f:	83 f8 04             	cmp    $0x4,%eax
    3d42:	0f 87 b8 03 00 00    	ja     4100 <driver_connection_devman+0x400>
    3d48:	8b 7d c8             	mov    -0x38(%ebp),%edi
    3d4b:	ff 24 85 64 dc 00 00 	jmp    *0xdc64(,%eax,4)
    3d52:	8d b6 00 00 00 00    	lea    0x0(%esi),%esi
    3d58:	83 ec 0c             	sub    $0xc,%esp
    3d5b:	68 e8 1c 01 00       	push   $0x11ce8
    3d60:	e8 9b be 00 00       	call   fc00 <fibril_mutex_lock@plt>
    3d65:	c7 04 24 e8 1c 01 00 	movl   $0x11ce8,(%esp)
    3d6c:	e8 ff b9 00 00       	call   f770 <fibril_mutex_is_locked@plt>
    3d71:	83 c4 10             	add    $0x10,%esp
    3d74:	84 c0                	test   %al,%al
    3d76:	0f 84 5a 04 00 00    	je     41d6 <driver_connection_devman+0x4d6>
    3d7c:	a1 fc 1c 01 00       	mov    0x11cfc,%eax
    3d81:	3d f8 1c 01 00       	cmp    $0x11cf8,%eax
    3d86:	8d 50 d4             	lea    -0x2c(%eax),%edx
    3d89:	75 16                	jne    3da1 <driver_connection_devman+0xa1>
    3d8b:	e9 90 03 00 00       	jmp    4120 <driver_connection_devman+0x420>
    3d90:	8b 40 04             	mov    0x4(%eax),%eax
    3d93:	3d f8 1c 01 00       	cmp    $0x11cf8,%eax
    3d98:	8d 50 d4             	lea    -0x2c(%eax),%edx
    3d9b:	0f 84 7f 03 00 00    	je     4120 <driver_connection_devman+0x420>
    3da1:	3b 7a 04             	cmp    0x4(%edx),%edi
    3da4:	75 ea                	jne    3d90 <driver_connection_devman+0x90>
    3da6:	8b 42 0c             	mov    0xc(%edx),%eax
    3da9:	f0 ff 40 04          	lock incl 0x4(%eax)
    3dad:	f0 ff 42 08          	lock incl 0x8(%edx)
    3db1:	83 ec 0c             	sub    $0xc,%esp
    3db4:	89 55 b4             	mov    %edx,-0x4c(%ebp)
    3db7:	68 e8 1c 01 00       	push   $0x11ce8
    3dbc:	e8 7f bb 00 00       	call   f940 <fibril_mutex_unlock@plt>
    3dc1:	a1 94 1e 01 00       	mov    0x11e94,%eax
    3dc6:	83 c4 10             	add    $0x10,%esp
    3dc9:	8b 55 b4             	mov    -0x4c(%ebp),%edx
    3dcc:	8b 40 04             	mov    0x4(%eax),%eax
    3dcf:	8b 40 0c             	mov    0xc(%eax),%eax
    3dd2:	85 c0                	test   %eax,%eax
    3dd4:	0f 84 76 03 00 00    	je     4150 <driver_connection_devman+0x450>
    3dda:	83 ec 0c             	sub    $0xc,%esp
    3ddd:	52                   	push   %edx
    3dde:	ff d0                	call   *%eax
    3de0:	83 c4 10             	add    $0x10,%esp
    3de3:	89 c7                	mov    %eax,%edi
    3de5:	8b 55 b4             	mov    -0x4c(%ebp),%edx
    3de8:	89 d0                	mov    %edx,%eax
    3dea:	e8 01 fb ff ff       	call   38f0 <fun_del_ref>
    3def:	51                   	push   %ecx
    3df0:	51                   	push   %ecx
    3df1:	57                   	push   %edi
    3df2:	53                   	push   %ebx
    3df3:	e8 38 ba 00 00       	call   f830 <async_answer_0@plt>
    3df8:	83 c4 10             	add    $0x10,%esp
    3dfb:	e9 20 ff ff ff       	jmp    3d20 <driver_connection_devman+0x20>
    3e00:	83 ec 0c             	sub    $0xc,%esp
    3e03:	68 00 1d 01 00       	push   $0x11d00
    3e08:	e8 f3 bd 00 00       	call   fc00 <fibril_mutex_lock@plt>
    3e0d:	c7 04 24 00 1d 01 00 	movl   $0x11d00,(%esp)
    3e14:	e8 57 b9 00 00       	call   f770 <fibril_mutex_is_locked@plt>
    3e19:	83 c4 10             	add    $0x10,%esp
    3e1c:	84 c0                	test   %al,%al
    3e1e:	0f 84 a0 03 00 00    	je     41c4 <driver_connection_devman+0x4c4>
    3e24:	a1 14 1d 01 00       	mov    0x11d14,%eax
    3e29:	3d 10 1d 01 00       	cmp    $0x11d10,%eax
    3e2e:	8d 50 ec             	lea    -0x14(%eax),%edx
    3e31:	75 16                	jne    3e49 <driver_connection_devman+0x149>
    3e33:	e9 08 03 00 00       	jmp    4140 <driver_connection_devman+0x440>
    3e38:	8b 40 04             	mov    0x4(%eax),%eax
    3e3b:	3d 10 1d 01 00       	cmp    $0x11d10,%eax
    3e40:	8d 50 ec             	lea    -0x14(%eax),%edx
    3e43:	0f 84 f7 02 00 00    	je     4140 <driver_connection_devman+0x440>
    3e49:	3b 78 ec             	cmp    -0x14(%eax),%edi
    3e4c:	75 ea                	jne    3e38 <driver_connection_devman+0x138>
    3e4e:	8d 7a 04             	lea    0x4(%edx),%edi
    3e51:	f0 ff 42 04          	lock incl 0x4(%edx)
    3e55:	83 ec 0c             	sub    $0xc,%esp
    3e58:	89 55 b4             	mov    %edx,-0x4c(%ebp)
    3e5b:	68 00 1d 01 00       	push   $0x11d00
    3e60:	e8 db ba 00 00       	call   f940 <fibril_mutex_unlock@plt>
    3e65:	a1 94 1e 01 00       	mov    0x11e94,%eax
    3e6a:	83 c4 10             	add    $0x10,%esp
    3e6d:	8b 40 04             	mov    0x4(%eax),%eax
    3e70:	8b 40 08             	mov    0x8(%eax),%eax
    3e73:	85 c0                	test   %eax,%eax
    3e75:	0f 85 88 00 00 00    	jne    3f03 <driver_connection_devman+0x203>
    3e7b:	b8 f5 ff ff ff       	mov    $0xfffffff5,%eax
    3e80:	e9 63 02 00 00       	jmp    40e8 <driver_connection_devman+0x3e8>
    3e85:	8d 76 00             	lea    0x0(%esi),%esi
    3e88:	83 ec 0c             	sub    $0xc,%esp
    3e8b:	68 00 1d 01 00       	push   $0x11d00
    3e90:	e8 6b bd 00 00       	call   fc00 <fibril_mutex_lock@plt>
    3e95:	c7 04 24 00 1d 01 00 	movl   $0x11d00,(%esp)
    3e9c:	e8 cf b8 00 00       	call   f770 <fibril_mutex_is_locked@plt>
    3ea1:	83 c4 10             	add    $0x10,%esp
    3ea4:	84 c0                	test   %al,%al
    3ea6:	0f 84 18 03 00 00    	je     41c4 <driver_connection_devman+0x4c4>
    3eac:	a1 14 1d 01 00       	mov    0x11d14,%eax
    3eb1:	3d 10 1d 01 00       	cmp    $0x11d10,%eax
    3eb6:	8d 50 ec             	lea    -0x14(%eax),%edx
    3eb9:	75 16                	jne    3ed1 <driver_connection_devman+0x1d1>
    3ebb:	e9 80 02 00 00       	jmp    4140 <driver_connection_devman+0x440>
    3ec0:	8b 40 04             	mov    0x4(%eax),%eax
    3ec3:	3d 10 1d 01 00       	cmp    $0x11d10,%eax
    3ec8:	8d 50 ec             	lea    -0x14(%eax),%edx
    3ecb:	0f 84 6f 02 00 00    	je     4140 <driver_connection_devman+0x440>
    3ed1:	3b 78 ec             	cmp    -0x14(%eax),%edi
    3ed4:	75 ea                	jne    3ec0 <driver_connection_devman+0x1c0>
    3ed6:	8d 7a 04             	lea    0x4(%edx),%edi
    3ed9:	f0 ff 42 04          	lock incl 0x4(%edx)
    3edd:	83 ec 0c             	sub    $0xc,%esp
    3ee0:	89 55 b4             	mov    %edx,-0x4c(%ebp)
    3ee3:	68 00 1d 01 00       	push   $0x11d00
    3ee8:	e8 53 ba 00 00       	call   f940 <fibril_mutex_unlock@plt>
    3eed:	a1 94 1e 01 00       	mov    0x11e94,%eax
    3ef2:	83 c4 10             	add    $0x10,%esp
    3ef5:	8b 40 04             	mov    0x4(%eax),%eax
    3ef8:	8b 40 04             	mov    0x4(%eax),%eax
    3efb:	85 c0                	test   %eax,%eax
    3efd:	0f 84 78 ff ff ff    	je     3e7b <driver_connection_devman+0x17b>
    3f03:	83 ec 0c             	sub    $0xc,%esp
    3f06:	8b 55 b4             	mov    -0x4c(%ebp),%edx
    3f09:	52                   	push   %edx
    3f0a:	ff d0                	call   *%eax
    3f0c:	83 c4 10             	add    $0x10,%esp
    3f0f:	8b 55 b4             	mov    -0x4c(%ebp),%edx
    3f12:	85 c0                	test   %eax,%eax
    3f14:	0f 85 ce 01 00 00    	jne    40e8 <driver_connection_devman+0x3e8>
    3f1a:	83 c9 ff             	or     $0xffffffff,%ecx
    3f1d:	f0 0f c1 0f          	lock xadd %ecx,(%edi)
    3f21:	49                   	dec    %ecx
    3f22:	0f 85 c0 01 00 00    	jne    40e8 <driver_connection_devman+0x3e8>
    3f28:	8b 42 08             	mov    0x8(%edx),%eax
    3f2b:	85 c0                	test   %eax,%eax
    3f2d:	74 0f                	je     3f3e <driver_connection_devman+0x23e>
    3f2f:	83 ec 0c             	sub    $0xc,%esp
    3f32:	50                   	push   %eax
    3f33:	e8 c8 b7 00 00       	call   f700 <async_hangup@plt>
    3f38:	83 c4 10             	add    $0x10,%esp
    3f3b:	8b 55 b4             	mov    -0x4c(%ebp),%edx
    3f3e:	8b 42 10             	mov    0x10(%edx),%eax
    3f41:	85 c0                	test   %eax,%eax
    3f43:	74 12                	je     3f57 <driver_connection_devman+0x257>
    3f45:	83 ec 0c             	sub    $0xc,%esp
    3f48:	89 55 b4             	mov    %edx,-0x4c(%ebp)
    3f4b:	50                   	push   %eax
    3f4c:	e8 8f bc 00 00       	call   fbe0 <free@plt>
    3f51:	83 c4 10             	add    $0x10,%esp
    3f54:	8b 55 b4             	mov    -0x4c(%ebp),%edx
    3f57:	8b 42 0c             	mov    0xc(%edx),%eax
    3f5a:	85 c0                	test   %eax,%eax
    3f5c:	74 12                	je     3f70 <driver_connection_devman+0x270>
    3f5e:	83 ec 0c             	sub    $0xc,%esp
    3f61:	89 55 b4             	mov    %edx,-0x4c(%ebp)
    3f64:	50                   	push   %eax
    3f65:	e8 76 bc 00 00       	call   fbe0 <free@plt>
    3f6a:	83 c4 10             	add    $0x10,%esp
    3f6d:	8b 55 b4             	mov    -0x4c(%ebp),%edx
    3f70:	83 ec 0c             	sub    $0xc,%esp
    3f73:	52                   	push   %edx
    3f74:	e8 67 bc 00 00       	call   fbe0 <free@plt>
    3f79:	83 c4 10             	add    $0x10,%esp
    3f7c:	31 c0                	xor    %eax,%eax
    3f7e:	e9 65 01 00 00       	jmp    40e8 <driver_connection_devman+0x3e8>
    3f83:	90                   	nop
    3f84:	8d 74 26 00          	lea    0x0(%esi,%eiz,1),%esi
    3f88:	50                   	push   %eax
    3f89:	50                   	push   %eax
    3f8a:	8d 45 c0             	lea    -0x40(%ebp),%eax
    3f8d:	6a 00                	push   $0x0
    3f8f:	c7 45 c0 00 00 00 00 	movl   $0x0,-0x40(%ebp)
    3f96:	6a 00                	push   $0x0
    3f98:	6a 00                	push   $0x0
    3f9a:	6a 00                	push   $0x0
    3f9c:	6a 01                	push   $0x1
    3f9e:	50                   	push   %eax
    3f9f:	e8 bc bb 00 00       	call   fb60 <async_data_write_accept@plt>
    3fa4:	83 c4 20             	add    $0x20,%esp
    3fa7:	85 c0                	test   %eax,%eax
    3fa9:	0f 85 39 01 00 00    	jne    40e8 <driver_connection_devman+0x3e8>
    3faf:	50                   	push   %eax
    3fb0:	50                   	push   %eax
    3fb1:	6a 1c                	push   $0x1c
    3fb3:	6a 01                	push   $0x1
    3fb5:	e8 06 b9 00 00       	call   f8c0 <calloc@plt>
    3fba:	83 c4 10             	add    $0x10,%esp
    3fbd:	89 c2                	mov    %eax,%edx
    3fbf:	85 c0                	test   %eax,%eax
    3fc1:	0f 84 df 01 00 00    	je     41a6 <driver_connection_devman+0x4a6>
    3fc7:	f0 ff 40 04          	lock incl 0x4(%eax)
    3fcb:	89 38                	mov    %edi,(%eax)
    3fcd:	8b 45 c0             	mov    -0x40(%ebp),%eax
    3fd0:	89 42 0c             	mov    %eax,0xc(%edx)
    3fd3:	a1 94 1e 01 00       	mov    0x11e94,%eax
    3fd8:	83 ec 0c             	sub    $0xc,%esp
    3fdb:	89 55 b4             	mov    %edx,-0x4c(%ebp)
    3fde:	8b 40 04             	mov    0x4(%eax),%eax
    3fe1:	52                   	push   %edx
    3fe2:	ff 10                	call   *(%eax)
    3fe4:	83 c4 10             	add    $0x10,%esp
    3fe7:	89 c7                	mov    %eax,%edi
    3fe9:	85 c0                	test   %eax,%eax
    3feb:	8b 55 b4             	mov    -0x4c(%ebp),%edx
    3fee:	0f 84 66 01 00 00    	je     415a <driver_connection_devman+0x45a>
    3ff4:	83 c8 ff             	or     $0xffffffff,%eax
    3ff7:	f0 0f c1 42 04       	lock xadd %eax,0x4(%edx)
    3ffc:	48                   	dec    %eax
    3ffd:	0f 85 ec fd ff ff    	jne    3def <driver_connection_devman+0xef>
    4003:	8b 42 08             	mov    0x8(%edx),%eax
    4006:	85 c0                	test   %eax,%eax
    4008:	74 12                	je     401c <driver_connection_devman+0x31c>
    400a:	83 ec 0c             	sub    $0xc,%esp
    400d:	89 55 b4             	mov    %edx,-0x4c(%ebp)
    4010:	50                   	push   %eax
    4011:	e8 ea b6 00 00       	call   f700 <async_hangup@plt>
    4016:	83 c4 10             	add    $0x10,%esp
    4019:	8b 55 b4             	mov    -0x4c(%ebp),%edx
    401c:	8b 42 10             	mov    0x10(%edx),%eax
    401f:	85 c0                	test   %eax,%eax
    4021:	74 12                	je     4035 <driver_connection_devman+0x335>
    4023:	83 ec 0c             	sub    $0xc,%esp
    4026:	89 55 b4             	mov    %edx,-0x4c(%ebp)
    4029:	50                   	push   %eax
    402a:	e8 b1 bb 00 00       	call   fbe0 <free@plt>
    402f:	83 c4 10             	add    $0x10,%esp
    4032:	8b 55 b4             	mov    -0x4c(%ebp),%edx
    4035:	8b 42 0c             	mov    0xc(%edx),%eax
    4038:	85 c0                	test   %eax,%eax
    403a:	74 12                	je     404e <driver_connection_devman+0x34e>
    403c:	83 ec 0c             	sub    $0xc,%esp
    403f:	89 55 b4             	mov    %edx,-0x4c(%ebp)
    4042:	50                   	push   %eax
    4043:	e8 98 bb 00 00       	call   fbe0 <free@plt>
    4048:	83 c4 10             	add    $0x10,%esp
    404b:	8b 55 b4             	mov    -0x4c(%ebp),%edx
    404e:	83 ec 0c             	sub    $0xc,%esp
    4051:	52                   	push   %edx
    4052:	e8 89 bb 00 00       	call   fbe0 <free@plt>
    4057:	83 c4 10             	add    $0x10,%esp
    405a:	e9 90 fd ff ff       	jmp    3def <driver_connection_devman+0xef>
    405f:	90                   	nop
    4060:	83 ec 0c             	sub    $0xc,%esp
    4063:	68 e8 1c 01 00       	push   $0x11ce8
    4068:	e8 93 bb 00 00       	call   fc00 <fibril_mutex_lock@plt>
    406d:	c7 04 24 e8 1c 01 00 	movl   $0x11ce8,(%esp)
    4074:	e8 f7 b6 00 00       	call   f770 <fibril_mutex_is_locked@plt>
    4079:	83 c4 10             	add    $0x10,%esp
    407c:	84 c0                	test   %al,%al
    407e:	0f 84 52 01 00 00    	je     41d6 <driver_connection_devman+0x4d6>
    4084:	a1 fc 1c 01 00       	mov    0x11cfc,%eax
    4089:	3d f8 1c 01 00       	cmp    $0x11cf8,%eax
    408e:	8d 50 d4             	lea    -0x2c(%eax),%edx
    4091:	75 12                	jne    40a5 <driver_connection_devman+0x3a5>
    4093:	e9 88 00 00 00       	jmp    4120 <driver_connection_devman+0x420>
    4098:	8b 40 04             	mov    0x4(%eax),%eax
    409b:	3d f8 1c 01 00       	cmp    $0x11cf8,%eax
    40a0:	8d 50 d4             	lea    -0x2c(%eax),%edx
    40a3:	74 7b                	je     4120 <driver_connection_devman+0x420>
    40a5:	3b 7a 04             	cmp    0x4(%edx),%edi
    40a8:	75 ee                	jne    4098 <driver_connection_devman+0x398>
    40aa:	8b 42 0c             	mov    0xc(%edx),%eax
    40ad:	f0 ff 40 04          	lock incl 0x4(%eax)
    40b1:	f0 ff 42 08          	lock incl 0x8(%edx)
    40b5:	83 ec 0c             	sub    $0xc,%esp
    40b8:	89 55 b4             	mov    %edx,-0x4c(%ebp)
    40bb:	68 e8 1c 01 00       	push   $0x11ce8
    40c0:	e8 7b b8 00 00       	call   f940 <fibril_mutex_unlock@plt>
    40c5:	a1 94 1e 01 00       	mov    0x11e94,%eax
    40ca:	83 c4 10             	add    $0x10,%esp
    40cd:	8b 40 04             	mov    0x4(%eax),%eax
    40d0:	8b 40 10             	mov    0x10(%eax),%eax
    40d3:	85 c0                	test   %eax,%eax
    40d5:	0f 84 a0 fd ff ff    	je     3e7b <driver_connection_devman+0x17b>
    40db:	83 ec 0c             	sub    $0xc,%esp
    40de:	8b 55 b4             	mov    -0x4c(%ebp),%edx
    40e1:	52                   	push   %edx
    40e2:	ff d0                	call   *%eax
    40e4:	83 c4 10             	add    $0x10,%esp
    40e7:	90                   	nop
    40e8:	52                   	push   %edx
    40e9:	52                   	push   %edx
    40ea:	50                   	push   %eax
    40eb:	53                   	push   %ebx
    40ec:	e8 3f b7 00 00       	call   f830 <async_answer_0@plt>
    40f1:	83 c4 10             	add    $0x10,%esp
    40f4:	e9 27 fc ff ff       	jmp    3d20 <driver_connection_devman+0x20>
    40f9:	8d b4 26 00 00 00 00 	lea    0x0(%esi,%eiz,1),%esi
    4100:	50                   	push   %eax
    4101:	50                   	push   %eax
    4102:	6a f5                	push   $0xfffffff5
    4104:	53                   	push   %ebx
    4105:	e8 26 b7 00 00       	call   f830 <async_answer_0@plt>
    410a:	83 c4 10             	add    $0x10,%esp
    410d:	e9 0e fc ff ff       	jmp    3d20 <driver_connection_devman+0x20>
    4112:	8d b6 00 00 00 00    	lea    0x0(%esi),%esi
    4118:	8d 65 f4             	lea    -0xc(%ebp),%esp
    411b:	5b                   	pop    %ebx
    411c:	5e                   	pop    %esi
    411d:	5f                   	pop    %edi
    411e:	5d                   	pop    %ebp
    411f:	c3                   	ret    
    4120:	83 ec 0c             	sub    $0xc,%esp
    4123:	68 e8 1c 01 00       	push   $0x11ce8
    4128:	e8 13 b8 00 00       	call   f940 <fibril_mutex_unlock@plt>
    412d:	58                   	pop    %eax
    412e:	5a                   	pop    %edx
    412f:	6a ff                	push   $0xffffffff
    4131:	53                   	push   %ebx
    4132:	e8 f9 b6 00 00       	call   f830 <async_answer_0@plt>
    4137:	83 c4 10             	add    $0x10,%esp
    413a:	e9 e1 fb ff ff       	jmp    3d20 <driver_connection_devman+0x20>
    413f:	90                   	nop
    4140:	83 ec 0c             	sub    $0xc,%esp
    4143:	68 00 1d 01 00       	push   $0x11d00
    4148:	eb de                	jmp    4128 <driver_connection_devman+0x428>
    414a:	8d b6 00 00 00 00    	lea    0x0(%esi),%esi
    4150:	bf f5 ff ff ff       	mov    $0xfffffff5,%edi
    4155:	e9 8e fc ff ff       	jmp    3de8 <driver_connection_devman+0xe8>
    415a:	83 ec 0c             	sub    $0xc,%esp
    415d:	89 55 b4             	mov    %edx,-0x4c(%ebp)
    4160:	68 00 1d 01 00       	push   $0x11d00
    4165:	e8 96 ba 00 00       	call   fc00 <fibril_mutex_lock@plt>
    416a:	8b 55 b4             	mov    -0x4c(%ebp),%edx
    416d:	8b 0d 10 1d 01 00    	mov    0x11d10,%ecx
    4173:	8d 42 14             	lea    0x14(%edx),%eax
    4176:	c7 42 18 10 1d 01 00 	movl   $0x11d10,0x18(%edx)
    417d:	89 4a 14             	mov    %ecx,0x14(%edx)
    4180:	89 41 04             	mov    %eax,0x4(%ecx)
    4183:	a3 10 1d 01 00       	mov    %eax,0x11d10
    4188:	c7 04 24 00 1d 01 00 	movl   $0x11d00,(%esp)
    418f:	e8 ac b7 00 00       	call   f940 <fibril_mutex_unlock@plt>
    4194:	5f                   	pop    %edi
    4195:	58                   	pop    %eax
    4196:	6a 00                	push   $0x0
    4198:	53                   	push   %ebx
    4199:	e8 92 b6 00 00       	call   f830 <async_answer_0@plt>
    419e:	83 c4 10             	add    $0x10,%esp
    41a1:	e9 7a fb ff ff       	jmp    3d20 <driver_connection_devman+0x20>
    41a6:	83 ec 0c             	sub    $0xc,%esp
    41a9:	8b 4d c0             	mov    -0x40(%ebp),%ecx
    41ac:	51                   	push   %ecx
    41ad:	e8 2e ba 00 00       	call   fbe0 <free@plt>
    41b2:	5f                   	pop    %edi
    41b3:	58                   	pop    %eax
    41b4:	6a fe                	push   $0xfffffffe
    41b6:	53                   	push   %ebx
    41b7:	e8 74 b6 00 00       	call   f830 <async_answer_0@plt>
    41bc:	83 c4 10             	add    $0x10,%esp
    41bf:	e9 5c fb ff ff       	jmp    3d20 <driver_connection_devman+0x20>
    41c4:	56                   	push   %esi
    41c5:	6a 5f                	push   $0x5f
    41c7:	68 5c d9 00 00       	push   $0xd95c
    41cc:	68 00 dc 00 00       	push   $0xdc00
    41d1:	e8 ca b6 00 00       	call   f8a0 <assert_abort@plt>
    41d6:	53                   	push   %ebx
    41d7:	6a 6b                	push   $0x6b
    41d9:	68 5c d9 00 00       	push   $0xd95c
    41de:	68 b4 da 00 00       	push   $0xdab4
    41e3:	e8 b8 b6 00 00       	call   f8a0 <assert_abort@plt>
    41e8:	90                   	nop
    41e9:	8d b4 26 00 00 00 00 	lea    0x0(%esi,%eiz,1),%esi

000041f0 <ddf_dev_data_alloc>:
    41f0:	55                   	push   %ebp
    41f1:	89 e5                	mov    %esp,%ebp
    41f3:	53                   	push   %ebx
    41f4:	53                   	push   %ebx
    41f5:	8b 5d 08             	mov    0x8(%ebp),%ebx
    41f8:	8b 43 10             	mov    0x10(%ebx),%eax
    41fb:	85 c0                	test   %eax,%eax
    41fd:	75 1c                	jne    421b <ddf_dev_data_alloc+0x2b>
    41ff:	8b 55 0c             	mov    0xc(%ebp),%edx
    4202:	50                   	push   %eax
    4203:	50                   	push   %eax
    4204:	52                   	push   %edx
    4205:	6a 01                	push   $0x1
    4207:	e8 b4 b6 00 00       	call   f8c0 <calloc@plt>
    420c:	83 c4 10             	add    $0x10,%esp
    420f:	85 c0                	test   %eax,%eax
    4211:	74 03                	je     4216 <ddf_dev_data_alloc+0x26>
    4213:	89 43 10             	mov    %eax,0x10(%ebx)
    4216:	8b 5d fc             	mov    -0x4(%ebp),%ebx
    4219:	c9                   	leave  
    421a:	c3                   	ret    
    421b:	51                   	push   %ecx
    421c:	68 39 02 00 00       	push   $0x239
    4221:	68 5c d9 00 00       	push   $0xd95c
    4226:	68 97 d9 00 00       	push   $0xd997
    422b:	e8 70 b6 00 00       	call   f8a0 <assert_abort@plt>

00004230 <ddf_dev_data_get>:
    4230:	55                   	push   %ebp
    4231:	89 e5                	mov    %esp,%ebp
    4233:	8b 45 08             	mov    0x8(%ebp),%eax
    4236:	5d                   	pop    %ebp
    4237:	8b 40 10             	mov    0x10(%eax),%eax
    423a:	c3                   	ret    
    423b:	90                   	nop
    423c:	8d 74 26 00          	lea    0x0(%esi,%eiz,1),%esi

00004240 <ddf_dev_get_handle>:
    4240:	55                   	push   %ebp
    4241:	89 e5                	mov    %esp,%ebp
    4243:	8b 45 08             	mov    0x8(%ebp),%eax
    4246:	5d                   	pop    %ebp
    4247:	8b 00                	mov    (%eax),%eax
    4249:	c3                   	ret    
    424a:	8d b6 00 00 00 00    	lea    0x0(%esi),%esi

00004250 <ddf_dev_get_name>:
    4250:	55                   	push   %ebp
    4251:	89 e5                	mov    %esp,%ebp
    4253:	8b 45 08             	mov    0x8(%ebp),%eax
    4256:	5d                   	pop    %ebp
    4257:	8b 40 0c             	mov    0xc(%eax),%eax
    425a:	c3                   	ret    
    425b:	90                   	nop
    425c:	8d 74 26 00          	lea    0x0(%esi,%eiz,1),%esi

00004260 <ddf_dev_parent_sess_create>:
    4260:	55                   	push   %ebp
    4261:	89 e5                	mov    %esp,%ebp
    4263:	53                   	push   %ebx
    4264:	53                   	push   %ebx
    4265:	8b 5d 08             	mov    0x8(%ebp),%ebx
    4268:	8b 43 08             	mov    0x8(%ebx),%eax
    426b:	85 c0                	test   %eax,%eax
    426d:	75 14                	jne    4283 <ddf_dev_parent_sess_create+0x23>
    426f:	50                   	push   %eax
    4270:	50                   	push   %eax
    4271:	6a 01                	push   $0x1
    4273:	8b 13                	mov    (%ebx),%edx
    4275:	52                   	push   %edx
    4276:	e8 c5 b4 00 00       	call   f740 <devman_parent_device_connect@plt>
    427b:	89 43 08             	mov    %eax,0x8(%ebx)
    427e:	8b 5d fc             	mov    -0x4(%ebp),%ebx
    4281:	c9                   	leave  
    4282:	c3                   	ret    
    4283:	51                   	push   %ecx
    4284:	68 64 02 00 00       	push   $0x264
    4289:	68 5c d9 00 00       	push   $0xd95c
    428e:	68 b0 d9 00 00       	push   $0xd9b0
    4293:	e8 08 b6 00 00       	call   f8a0 <assert_abort@plt>
    4298:	90                   	nop
    4299:	8d b4 26 00 00 00 00 	lea    0x0(%esi,%eiz,1),%esi

000042a0 <ddf_dev_parent_sess_get>:
    42a0:	55                   	push   %ebp
    42a1:	89 e5                	mov    %esp,%ebp
    42a3:	8b 45 08             	mov    0x8(%ebp),%eax
    42a6:	5d                   	pop    %ebp
    42a7:	8b 40 08             	mov    0x8(%eax),%eax
    42aa:	c3                   	ret    
    42ab:	90                   	nop
    42ac:	8d 74 26 00          	lea    0x0(%esi,%eiz,1),%esi

000042b0 <ddf_fun_set_name>:
    42b0:	55                   	push   %ebp
    42b1:	89 e5                	mov    %esp,%ebp
    42b3:	53                   	push   %ebx
    42b4:	51                   	push   %ecx
    42b5:	8b 5d 08             	mov    0x8(%ebp),%ebx
    42b8:	8b 43 14             	mov    0x14(%ebx),%eax
    42bb:	85 c0                	test   %eax,%eax
    42bd:	75 23                	jne    42e2 <ddf_fun_set_name+0x32>
    42bf:	83 ec 0c             	sub    $0xc,%esp
    42c2:	8b 45 0c             	mov    0xc(%ebp),%eax
    42c5:	50                   	push   %eax
    42c6:	e8 95 b6 00 00       	call   f960 <str_dup@plt>
    42cb:	83 c4 10             	add    $0x10,%esp
    42ce:	89 43 14             	mov    %eax,0x14(%ebx)
    42d1:	85 c0                	test   %eax,%eax
    42d3:	8b 5d fc             	mov    -0x4(%ebp),%ebx
    42d6:	0f 94 c0             	sete   %al
    42d9:	25 ff 00 00 00       	and    $0xff,%eax
    42de:	c9                   	leave  
    42df:	f7 d8                	neg    %eax
    42e1:	c3                   	ret    
    42e2:	52                   	push   %edx
    42e3:	68 7d 02 00 00       	push   $0x27d
    42e8:	68 5c d9 00 00       	push   $0xd95c
    42ed:	68 c9 d9 00 00       	push   $0xd9c9
    42f2:	e8 a9 b5 00 00       	call   f8a0 <assert_abort@plt>
    42f7:	89 f6                	mov    %esi,%esi
    42f9:	8d bc 27 00 00 00 00 	lea    0x0(%edi,%eiz,1),%edi

00004300 <ddf_fun_get_dev>:
    4300:	55                   	push   %ebp
    4301:	89 e5                	mov    %esp,%ebp
    4303:	8b 45 08             	mov    0x8(%ebp),%eax
    4306:	5d                   	pop    %ebp
    4307:	8b 40 0c             	mov    0xc(%eax),%eax
    430a:	c3                   	ret    
    430b:	90                   	nop
    430c:	8d 74 26 00          	lea    0x0(%esi,%eiz,1),%esi

00004310 <ddf_fun_get_handle>:
    4310:	55                   	push   %ebp
    4311:	89 e5                	mov    %esp,%ebp
    4313:	8b 45 08             	mov    0x8(%ebp),%eax
    4316:	5d                   	pop    %ebp
    4317:	8b 40 04             	mov    0x4(%eax),%eax
    431a:	c3                   	ret    
    431b:	90                   	nop
    431c:	8d 74 26 00          	lea    0x0(%esi,%eiz,1),%esi

00004320 <ddf_fun_create>:
    4320:	55                   	push   %ebp
    4321:	89 e5                	mov    %esp,%ebp
    4323:	57                   	push   %edi
    4324:	56                   	push   %esi
    4325:	53                   	push   %ebx
    4326:	83 ec 14             	sub    $0x14,%esp
    4329:	8b 75 08             	mov    0x8(%ebp),%esi
    432c:	6a 34                	push   $0x34
    432e:	6a 01                	push   $0x1
    4330:	e8 8b b5 00 00       	call   f8c0 <calloc@plt>
    4335:	83 c4 10             	add    $0x10,%esp
    4338:	89 c3                	mov    %eax,%ebx
    433a:	85 c0                	test   %eax,%eax
    433c:	74 48                	je     4386 <ddf_fun_create+0x66>
    433e:	8d 78 18             	lea    0x18(%eax),%edi
    4341:	c7 40 2c 00 00 00 00 	movl   $0x0,0x2c(%eax)
    4348:	89 78 18             	mov    %edi,0x18(%eax)
    434b:	89 78 1c             	mov    %edi,0x1c(%eax)
    434e:	c7 40 30 00 00 00 00 	movl   $0x0,0x30(%eax)
    4355:	89 70 0c             	mov    %esi,0xc(%eax)
    4358:	f0 ff 46 04          	lock incl 0x4(%esi)
    435c:	f0 ff 40 08          	lock incl 0x8(%eax)
    4360:	c6 00 00             	movb   $0x0,(%eax)
    4363:	8b 55 10             	mov    0x10(%ebp),%edx
    4366:	8b 45 0c             	mov    0xc(%ebp),%eax
    4369:	85 d2                	test   %edx,%edx
    436b:	89 43 10             	mov    %eax,0x10(%ebx)
    436e:	74 16                	je     4386 <ddf_fun_create+0x66>
    4370:	83 ec 0c             	sub    $0xc,%esp
    4373:	8b 45 10             	mov    0x10(%ebp),%eax
    4376:	50                   	push   %eax
    4377:	e8 e4 b5 00 00       	call   f960 <str_dup@plt>
    437c:	83 c4 10             	add    $0x10,%esp
    437f:	89 43 14             	mov    %eax,0x14(%ebx)
    4382:	85 c0                	test   %eax,%eax
    4384:	74 0a                	je     4390 <ddf_fun_create+0x70>
    4386:	8d 65 f4             	lea    -0xc(%ebp),%esp
    4389:	89 d8                	mov    %ebx,%eax
    438b:	5b                   	pop    %ebx
    438c:	5e                   	pop    %esi
    438d:	5f                   	pop    %edi
    438e:	5d                   	pop    %ebp
    438f:	c3                   	ret    
    4390:	8b 73 1c             	mov    0x1c(%ebx),%esi
    4393:	39 f7                	cmp    %esi,%edi
    4395:	0f 84 85 00 00 00    	je     4420 <ddf_fun_create+0x100>
    439b:	90                   	nop
    439c:	8d 74 26 00          	lea    0x0(%esi,%eiz,1),%esi
    43a0:	8b 0e                	mov    (%esi),%ecx
    43a2:	85 c9                	test   %ecx,%ecx
    43a4:	74 0e                	je     43b4 <ddf_fun_create+0x94>
    43a6:	8b 46 04             	mov    0x4(%esi),%eax
    43a9:	85 c0                	test   %eax,%eax
    43ab:	74 07                	je     43b4 <ddf_fun_create+0x94>
    43ad:	89 08                	mov    %ecx,(%eax)
    43af:	8b 0e                	mov    (%esi),%ecx
    43b1:	89 41 04             	mov    %eax,0x4(%ecx)
    43b4:	8b 46 08             	mov    0x8(%esi),%eax
    43b7:	c7 06 00 00 00 00    	movl   $0x0,(%esi)
    43bd:	c7 46 04 00 00 00 00 	movl   $0x0,0x4(%esi)
    43c4:	85 c0                	test   %eax,%eax
    43c6:	74 0c                	je     43d4 <ddf_fun_create+0xb4>
    43c8:	83 ec 0c             	sub    $0xc,%esp
    43cb:	50                   	push   %eax
    43cc:	e8 0f b8 00 00       	call   fbe0 <free@plt>
    43d1:	83 c4 10             	add    $0x10,%esp
    43d4:	83 ec 0c             	sub    $0xc,%esp
    43d7:	56                   	push   %esi
    43d8:	e8 03 b8 00 00       	call   fbe0 <free@plt>
    43dd:	8b 73 1c             	mov    0x1c(%ebx),%esi
    43e0:	83 c4 10             	add    $0x10,%esp
    43e3:	39 f7                	cmp    %esi,%edi
    43e5:	75 b9                	jne    43a0 <ddf_fun_create+0x80>
    43e7:	8b 43 20             	mov    0x20(%ebx),%eax
    43ea:	85 c0                	test   %eax,%eax
    43ec:	74 0c                	je     43fa <ddf_fun_create+0xda>
    43ee:	83 ec 0c             	sub    $0xc,%esp
    43f1:	50                   	push   %eax
    43f2:	e8 e9 b7 00 00       	call   fbe0 <free@plt>
    43f7:	83 c4 10             	add    $0x10,%esp
    43fa:	8b 43 14             	mov    0x14(%ebx),%eax
    43fd:	85 c0                	test   %eax,%eax
    43ff:	74 0c                	je     440d <ddf_fun_create+0xed>
    4401:	83 ec 0c             	sub    $0xc,%esp
    4404:	50                   	push   %eax
    4405:	e8 d6 b7 00 00       	call   fbe0 <free@plt>
    440a:	83 c4 10             	add    $0x10,%esp
    440d:	83 ec 0c             	sub    $0xc,%esp
    4410:	53                   	push   %ebx
    4411:	31 db                	xor    %ebx,%ebx
    4413:	e8 c8 b7 00 00       	call   fbe0 <free@plt>
    4418:	83 c4 10             	add    $0x10,%esp
    441b:	e9 66 ff ff ff       	jmp    4386 <ddf_fun_create+0x66>
    4420:	8b 43 20             	mov    0x20(%ebx),%eax
    4423:	85 c0                	test   %eax,%eax
    4425:	75 c7                	jne    43ee <ddf_fun_create+0xce>
    4427:	eb e4                	jmp    440d <ddf_fun_create+0xed>
    4429:	8d b4 26 00 00 00 00 	lea    0x0(%esi,%eiz,1),%esi

00004430 <ddf_fun_data_alloc>:
    4430:	55                   	push   %ebp
    4431:	89 e5                	mov    %esp,%ebp
    4433:	53                   	push   %ebx
    4434:	50                   	push   %eax
    4435:	8b 5d 08             	mov    0x8(%ebp),%ebx
    4438:	80 3b 00             	cmpb   $0x0,(%ebx)
    443b:	75 23                	jne    4460 <ddf_fun_data_alloc+0x30>
    443d:	8b 43 20             	mov    0x20(%ebx),%eax
    4440:	85 c0                	test   %eax,%eax
    4442:	75 31                	jne    4475 <ddf_fun_data_alloc+0x45>
    4444:	8b 55 0c             	mov    0xc(%ebp),%edx
    4447:	50                   	push   %eax
    4448:	50                   	push   %eax
    4449:	52                   	push   %edx
    444a:	6a 01                	push   $0x1
    444c:	e8 6f b4 00 00       	call   f8c0 <calloc@plt>
    4451:	83 c4 10             	add    $0x10,%esp
    4454:	85 c0                	test   %eax,%eax
    4456:	74 03                	je     445b <ddf_fun_data_alloc+0x2b>
    4458:	89 43 20             	mov    %eax,0x20(%ebx)
    445b:	8b 5d fc             	mov    -0x4(%ebp),%ebx
    445e:	c9                   	leave  
    445f:	c3                   	ret    
    4460:	50                   	push   %eax
    4461:	68 c9 02 00 00       	push   $0x2c9
    4466:	68 5c d9 00 00       	push   $0xd95c
    446b:	68 db d9 00 00       	push   $0xd9db
    4470:	e8 2b b4 00 00       	call   f8a0 <assert_abort@plt>
    4475:	51                   	push   %ecx
    4476:	68 ca 02 00 00       	push   $0x2ca
    447b:	68 5c d9 00 00       	push   $0xd95c
    4480:	68 ef d9 00 00       	push   $0xd9ef
    4485:	e8 16 b4 00 00       	call   f8a0 <assert_abort@plt>
    448a:	8d b6 00 00 00 00    	lea    0x0(%esi),%esi

00004490 <ddf_fun_data_get>:
    4490:	55                   	push   %ebp
    4491:	89 e5                	mov    %esp,%ebp
    4493:	8b 45 08             	mov    0x8(%ebp),%eax
    4496:	5d                   	pop    %ebp
    4497:	8b 40 20             	mov    0x20(%eax),%eax
    449a:	c3                   	ret    
    449b:	90                   	nop
    449c:	8d 74 26 00          	lea    0x0(%esi,%eiz,1),%esi

000044a0 <ddf_fun_get_name>:
    44a0:	55                   	push   %ebp
    44a1:	89 e5                	mov    %esp,%ebp
    44a3:	8b 45 08             	mov    0x8(%ebp),%eax
    44a6:	5d                   	pop    %ebp
    44a7:	8b 40 14             	mov    0x14(%eax),%eax
    44aa:	c3                   	ret    
    44ab:	90                   	nop
    44ac:	8d 74 26 00          	lea    0x0(%esi,%eiz,1),%esi

000044b0 <ddf_fun_destroy>:
    44b0:	55                   	push   %ebp
    44b1:	89 e5                	mov    %esp,%ebp
    44b3:	57                   	push   %edi
    44b4:	56                   	push   %esi
    44b5:	53                   	push   %ebx
    44b6:	83 ec 1c             	sub    $0x1c,%esp
    44b9:	8b 7d 08             	mov    0x8(%ebp),%edi
    44bc:	80 3f 00             	cmpb   $0x0,(%edi)
    44bf:	0f 85 fa 00 00 00    	jne    45bf <ddf_fun_destroy+0x10f>
    44c5:	8b 77 0c             	mov    0xc(%edi),%esi
    44c8:	83 ca ff             	or     $0xffffffff,%edx
    44cb:	f0 0f c1 57 08       	lock xadd %edx,0x8(%edi)
    44d0:	4a                   	dec    %edx
    44d1:	74 5d                	je     4530 <ddf_fun_destroy+0x80>
    44d3:	83 c8 ff             	or     $0xffffffff,%eax
    44d6:	f0 0f c1 46 04       	lock xadd %eax,0x4(%esi)
    44db:	48                   	dec    %eax
    44dc:	74 0a                	je     44e8 <ddf_fun_destroy+0x38>
    44de:	8d 65 f4             	lea    -0xc(%ebp),%esp
    44e1:	5b                   	pop    %ebx
    44e2:	5e                   	pop    %esi
    44e3:	5f                   	pop    %edi
    44e4:	5d                   	pop    %ebp
    44e5:	c3                   	ret    
    44e6:	66 90                	xchg   %ax,%ax
    44e8:	8b 46 08             	mov    0x8(%esi),%eax
    44eb:	85 c0                	test   %eax,%eax
    44ed:	74 0c                	je     44fb <ddf_fun_destroy+0x4b>
    44ef:	83 ec 0c             	sub    $0xc,%esp
    44f2:	50                   	push   %eax
    44f3:	e8 08 b2 00 00       	call   f700 <async_hangup@plt>
    44f8:	83 c4 10             	add    $0x10,%esp
    44fb:	8b 46 10             	mov    0x10(%esi),%eax
    44fe:	85 c0                	test   %eax,%eax
    4500:	74 0c                	je     450e <ddf_fun_destroy+0x5e>
    4502:	83 ec 0c             	sub    $0xc,%esp
    4505:	50                   	push   %eax
    4506:	e8 d5 b6 00 00       	call   fbe0 <free@plt>
    450b:	83 c4 10             	add    $0x10,%esp
    450e:	8b 46 0c             	mov    0xc(%esi),%eax
    4511:	85 c0                	test   %eax,%eax
    4513:	74 0c                	je     4521 <ddf_fun_destroy+0x71>
    4515:	83 ec 0c             	sub    $0xc,%esp
    4518:	50                   	push   %eax
    4519:	e8 c2 b6 00 00       	call   fbe0 <free@plt>
    451e:	83 c4 10             	add    $0x10,%esp
    4521:	89 75 08             	mov    %esi,0x8(%ebp)
    4524:	8d 65 f4             	lea    -0xc(%ebp),%esp
    4527:	5b                   	pop    %ebx
    4528:	5e                   	pop    %esi
    4529:	5f                   	pop    %edi
    452a:	5d                   	pop    %ebp
    452b:	e9 b0 b6 00 00       	jmp    fbe0 <free@plt>
    4530:	8d 47 18             	lea    0x18(%edi),%eax
    4533:	8b 5f 1c             	mov    0x1c(%edi),%ebx
    4536:	89 45 e4             	mov    %eax,-0x1c(%ebp)
    4539:	39 d8                	cmp    %ebx,%eax
    453b:	74 4b                	je     4588 <ddf_fun_destroy+0xd8>
    453d:	8d 76 00             	lea    0x0(%esi),%esi
    4540:	8b 0b                	mov    (%ebx),%ecx
    4542:	85 c9                	test   %ecx,%ecx
    4544:	74 0e                	je     4554 <ddf_fun_destroy+0xa4>
    4546:	8b 53 04             	mov    0x4(%ebx),%edx
    4549:	85 d2                	test   %edx,%edx
    454b:	74 07                	je     4554 <ddf_fun_destroy+0xa4>
    454d:	89 0a                	mov    %ecx,(%edx)
    454f:	8b 0b                	mov    (%ebx),%ecx
    4551:	89 51 04             	mov    %edx,0x4(%ecx)
    4554:	8b 53 08             	mov    0x8(%ebx),%edx
    4557:	c7 03 00 00 00 00    	movl   $0x0,(%ebx)
    455d:	c7 43 04 00 00 00 00 	movl   $0x0,0x4(%ebx)
    4564:	85 d2                	test   %edx,%edx
    4566:	74 0c                	je     4574 <ddf_fun_destroy+0xc4>
    4568:	83 ec 0c             	sub    $0xc,%esp
    456b:	52                   	push   %edx
    456c:	e8 6f b6 00 00       	call   fbe0 <free@plt>
    4571:	83 c4 10             	add    $0x10,%esp
    4574:	83 ec 0c             	sub    $0xc,%esp
    4577:	53                   	push   %ebx
    4578:	e8 63 b6 00 00       	call   fbe0 <free@plt>
    457d:	8b 5f 1c             	mov    0x1c(%edi),%ebx
    4580:	83 c4 10             	add    $0x10,%esp
    4583:	3b 5d e4             	cmp    -0x1c(%ebp),%ebx
    4586:	75 b8                	jne    4540 <ddf_fun_destroy+0x90>
    4588:	8b 57 20             	mov    0x20(%edi),%edx
    458b:	85 d2                	test   %edx,%edx
    458d:	74 0c                	je     459b <ddf_fun_destroy+0xeb>
    458f:	83 ec 0c             	sub    $0xc,%esp
    4592:	52                   	push   %edx
    4593:	e8 48 b6 00 00       	call   fbe0 <free@plt>
    4598:	83 c4 10             	add    $0x10,%esp
    459b:	8b 57 14             	mov    0x14(%edi),%edx
    459e:	85 d2                	test   %edx,%edx
    45a0:	74 0c                	je     45ae <ddf_fun_destroy+0xfe>
    45a2:	83 ec 0c             	sub    $0xc,%esp
    45a5:	52                   	push   %edx
    45a6:	e8 35 b6 00 00       	call   fbe0 <free@plt>
    45ab:	83 c4 10             	add    $0x10,%esp
    45ae:	83 ec 0c             	sub    $0xc,%esp
    45b1:	57                   	push   %edi
    45b2:	e8 29 b6 00 00       	call   fbe0 <free@plt>
    45b7:	83 c4 10             	add    $0x10,%esp
    45ba:	e9 14 ff ff ff       	jmp    44d3 <ddf_fun_destroy+0x23>
    45bf:	50                   	push   %eax
    45c0:	68 ee 02 00 00       	push   $0x2ee
    45c5:	68 5c d9 00 00       	push   $0xd95c
    45ca:	68 db d9 00 00       	push   $0xd9db
    45cf:	e8 cc b2 00 00       	call   f8a0 <assert_abort@plt>
    45d4:	8d b6 00 00 00 00    	lea    0x0(%esi),%esi
    45da:	8d bf 00 00 00 00    	lea    0x0(%edi),%edi

000045e0 <ddf_fun_bind>:
    45e0:	55                   	push   %ebp
    45e1:	89 e5                	mov    %esp,%ebp
    45e3:	53                   	push   %ebx
    45e4:	83 ec 14             	sub    $0x14,%esp
    45e7:	8b 5d 08             	mov    0x8(%ebp),%ebx
    45ea:	80 3b 00             	cmpb   $0x0,(%ebx)
    45ed:	0f 85 d2 00 00 00    	jne    46c5 <ddf_fun_bind+0xe5>
    45f3:	8b 43 14             	mov    0x14(%ebx),%eax
    45f6:	85 c0                	test   %eax,%eax
    45f8:	0f 84 f1 00 00 00    	je     46ef <ddf_fun_bind+0x10f>
    45fe:	8b 43 0c             	mov    0xc(%ebx),%eax
    4601:	85 c0                	test   %eax,%eax
    4603:	0f 84 d1 00 00 00    	je     46da <ddf_fun_bind+0xfa>
    4609:	83 ec 0c             	sub    $0xc,%esp
    460c:	68 e8 1c 01 00       	push   $0x11ce8
    4611:	e8 ea b5 00 00       	call   fc00 <fibril_mutex_lock@plt>
    4616:	8b 15 f8 1c 01 00    	mov    0x11cf8,%edx
    461c:	8d 43 2c             	lea    0x2c(%ebx),%eax
    461f:	89 53 2c             	mov    %edx,0x2c(%ebx)
    4622:	c7 43 30 f8 1c 01 00 	movl   $0x11cf8,0x30(%ebx)
    4629:	89 42 04             	mov    %eax,0x4(%edx)
    462c:	a3 f8 1c 01 00       	mov    %eax,0x11cf8
    4631:	c7 04 24 e8 1c 01 00 	movl   $0x11ce8,(%esp)
    4638:	e8 03 b3 00 00       	call   f940 <fibril_mutex_unlock@plt>
    463d:	8d 43 04             	lea    0x4(%ebx),%eax
    4640:	8b 53 10             	mov    0x10(%ebx),%edx
    4643:	89 04 24             	mov    %eax,(%esp)
    4646:	8b 43 0c             	mov    0xc(%ebx),%eax
    4649:	8b 4b 14             	mov    0x14(%ebx),%ecx
    464c:	8b 00                	mov    (%eax),%eax
    464e:	50                   	push   %eax
    464f:	8d 43 18             	lea    0x18(%ebx),%eax
    4652:	50                   	push   %eax
    4653:	52                   	push   %edx
    4654:	51                   	push   %ecx
    4655:	e8 16 b2 00 00       	call   f870 <devman_add_function@plt>
    465a:	83 c4 20             	add    $0x20,%esp
    465d:	85 c0                	test   %eax,%eax
    465f:	75 0f                	jne    4670 <ddf_fun_bind+0x90>
    4661:	c6 03 01             	movb   $0x1,(%ebx)
    4664:	8b 5d fc             	mov    -0x4(%ebp),%ebx
    4667:	c9                   	leave  
    4668:	c3                   	ret    
    4669:	8d b4 26 00 00 00 00 	lea    0x0(%esi,%eiz,1),%esi
    4670:	83 ec 0c             	sub    $0xc,%esp
    4673:	89 45 f4             	mov    %eax,-0xc(%ebp)
    4676:	68 e8 1c 01 00       	push   $0x11ce8
    467b:	e8 80 b5 00 00       	call   fc00 <fibril_mutex_lock@plt>
    4680:	8b 4b 2c             	mov    0x2c(%ebx),%ecx
    4683:	83 c4 10             	add    $0x10,%esp
    4686:	8b 45 f4             	mov    -0xc(%ebp),%eax
    4689:	85 c9                	test   %ecx,%ecx
    468b:	74 0f                	je     469c <ddf_fun_bind+0xbc>
    468d:	8b 53 30             	mov    0x30(%ebx),%edx
    4690:	85 d2                	test   %edx,%edx
    4692:	74 08                	je     469c <ddf_fun_bind+0xbc>
    4694:	89 0a                	mov    %ecx,(%edx)
    4696:	8b 4b 2c             	mov    0x2c(%ebx),%ecx
    4699:	89 51 04             	mov    %edx,0x4(%ecx)
    469c:	83 ec 0c             	sub    $0xc,%esp
    469f:	c7 43 2c 00 00 00 00 	movl   $0x0,0x2c(%ebx)
    46a6:	c7 43 30 00 00 00 00 	movl   $0x0,0x30(%ebx)
    46ad:	89 45 f4             	mov    %eax,-0xc(%ebp)
    46b0:	68 e8 1c 01 00       	push   $0x11ce8
    46b5:	e8 86 b2 00 00       	call   f940 <fibril_mutex_unlock@plt>
    46ba:	8b 45 f4             	mov    -0xc(%ebp),%eax
    46bd:	83 c4 10             	add    $0x10,%esp
    46c0:	8b 5d fc             	mov    -0x4(%ebp),%ebx
    46c3:	c9                   	leave  
    46c4:	c3                   	ret    
    46c5:	50                   	push   %eax
    46c6:	68 12 03 00 00       	push   $0x312
    46cb:	68 5c d9 00 00       	push   $0xd95c
    46d0:	68 db d9 00 00       	push   $0xd9db
    46d5:	e8 c6 b1 00 00       	call   f8a0 <assert_abort@plt>
    46da:	53                   	push   %ebx
    46db:	68 14 03 00 00       	push   $0x314
    46e0:	68 5c d9 00 00       	push   $0xd95c
    46e5:	68 1a da 00 00       	push   $0xda1a
    46ea:	e8 b1 b1 00 00       	call   f8a0 <assert_abort@plt>
    46ef:	50                   	push   %eax
    46f0:	68 13 03 00 00       	push   $0x313
    46f5:	68 5c d9 00 00       	push   $0xd95c
    46fa:	68 08 da 00 00       	push   $0xda08
    46ff:	e8 9c b1 00 00       	call   f8a0 <assert_abort@plt>
    4704:	8d b6 00 00 00 00    	lea    0x0(%esi),%esi
    470a:	8d bf 00 00 00 00    	lea    0x0(%edi),%edi

00004710 <ddf_fun_unbind>:
    4710:	55                   	push   %ebp
    4711:	89 e5                	mov    %esp,%ebp
    4713:	53                   	push   %ebx
    4714:	83 ec 14             	sub    $0x14,%esp
    4717:	8b 5d 08             	mov    0x8(%ebp),%ebx
    471a:	80 3b 00             	cmpb   $0x0,(%ebx)
    471d:	74 71                	je     4790 <ddf_fun_unbind+0x80>
    471f:	83 ec 0c             	sub    $0xc,%esp
    4722:	8b 43 04             	mov    0x4(%ebx),%eax
    4725:	50                   	push   %eax
    4726:	e8 c5 b1 00 00       	call   f8f0 <devman_remove_function@plt>
    472b:	83 c4 10             	add    $0x10,%esp
    472e:	85 c0                	test   %eax,%eax
    4730:	74 06                	je     4738 <ddf_fun_unbind+0x28>
    4732:	8b 5d fc             	mov    -0x4(%ebp),%ebx
    4735:	c9                   	leave  
    4736:	c3                   	ret    
    4737:	90                   	nop
    4738:	83 ec 0c             	sub    $0xc,%esp
    473b:	89 45 f4             	mov    %eax,-0xc(%ebp)
    473e:	68 e8 1c 01 00       	push   $0x11ce8
    4743:	e8 b8 b4 00 00       	call   fc00 <fibril_mutex_lock@plt>
    4748:	8b 4b 2c             	mov    0x2c(%ebx),%ecx
    474b:	83 c4 10             	add    $0x10,%esp
    474e:	8b 45 f4             	mov    -0xc(%ebp),%eax
    4751:	85 c9                	test   %ecx,%ecx
    4753:	74 0f                	je     4764 <ddf_fun_unbind+0x54>
    4755:	8b 53 30             	mov    0x30(%ebx),%edx
    4758:	85 d2                	test   %edx,%edx
    475a:	74 08                	je     4764 <ddf_fun_unbind+0x54>
    475c:	89 0a                	mov    %ecx,(%edx)
    475e:	8b 4b 2c             	mov    0x2c(%ebx),%ecx
    4761:	89 51 04             	mov    %edx,0x4(%ecx)
    4764:	83 ec 0c             	sub    $0xc,%esp
    4767:	c7 43 2c 00 00 00 00 	movl   $0x0,0x2c(%ebx)
    476e:	c7 43 30 00 00 00 00 	movl   $0x0,0x30(%ebx)
    4775:	89 45 f4             	mov    %eax,-0xc(%ebp)
    4778:	68 e8 1c 01 00       	push   $0x11ce8
    477d:	e8 be b1 00 00       	call   f940 <fibril_mutex_unlock@plt>
    4782:	c6 03 00             	movb   $0x0,(%ebx)
    4785:	8b 45 f4             	mov    -0xc(%ebp),%eax
    4788:	83 c4 10             	add    $0x10,%esp
    478b:	8b 5d fc             	mov    -0x4(%ebp),%ebx
    478e:	c9                   	leave  
    478f:	c3                   	ret    
    4790:	52                   	push   %edx
    4791:	68 2e 03 00 00       	push   $0x32e
    4796:	68 5c d9 00 00       	push   $0xd95c
    479b:	68 2b da 00 00       	push   $0xda2b
    47a0:	e8 fb b0 00 00       	call   f8a0 <assert_abort@plt>
    47a5:	8d 74 26 00          	lea    0x0(%esi,%eiz,1),%esi
    47a9:	8d bc 27 00 00 00 00 	lea    0x0(%edi,%eiz,1),%edi

000047b0 <ddf_fun_online>:
    47b0:	55                   	push   %ebp
    47b1:	89 e5                	mov    %esp,%ebp
    47b3:	83 ec 08             	sub    $0x8,%esp
    47b6:	8b 45 08             	mov    0x8(%ebp),%eax
    47b9:	80 38 00             	cmpb   $0x0,(%eax)
    47bc:	74 0c                	je     47ca <ddf_fun_online+0x1a>
    47be:	8b 40 04             	mov    0x4(%eax),%eax
    47c1:	89 45 08             	mov    %eax,0x8(%ebp)
    47c4:	c9                   	leave  
    47c5:	e9 b6 af 00 00       	jmp    f780 <devman_drv_fun_online@plt>
    47ca:	50                   	push   %eax
    47cb:	68 43 03 00 00       	push   $0x343
    47d0:	68 5c d9 00 00       	push   $0xd95c
    47d5:	68 2b da 00 00       	push   $0xda2b
    47da:	e8 c1 b0 00 00       	call   f8a0 <assert_abort@plt>
    47df:	90                   	nop

000047e0 <ddf_fun_offline>:
    47e0:	55                   	push   %ebp
    47e1:	89 e5                	mov    %esp,%ebp
    47e3:	83 ec 08             	sub    $0x8,%esp
    47e6:	8b 45 08             	mov    0x8(%ebp),%eax
    47e9:	80 38 00             	cmpb   $0x0,(%eax)
