
wavplay:     file format elf32-i386


Disassembly of section .init:

000010f4 <__entry>:
    10f4:	66 8c d0             	mov    %ss,%ax
    10f7:	8e d8                	mov    %eax,%ds
    10f9:	8e c0                	mov    %eax,%es
    10fb:	8e e0                	mov    %eax,%fs
    10fd:	b8 01 00 00 00       	mov    $0x1,%eax
    1102:	0f a2                	cpuid  
    1104:	0f ba e2 0b          	bt     $0xb,%edx
    1108:	73 0c                	jae    1116 <__entry+0x22>
    110a:	8d 05 68 b5 00 00    	lea    0xb568,%eax
    1110:	c7 00 40 97 00 00    	movl   $0x9740,(%eax)
    1116:	6a 00                	push   $0x0
    1118:	6a 00                	push   $0x0
    111a:	89 e5                	mov    %esp,%ebp
    111c:	57                   	push   %edi
    111d:	e8 ce 81 00 00       	call   92f0 <__main@plt>

Disassembly of section .text:

00001140 <device_event_callback>:
    1140:	55                   	push   %ebp
    1141:	89 e5                	mov    %esp,%ebp
    1143:	57                   	push   %edi
    1144:	56                   	push   %esi
    1145:	53                   	push   %ebx
    1146:	83 ec 54             	sub    $0x54,%esp
    1149:	8d 75 c4             	lea    -0x3c(%ebp),%esi
    114c:	8b 5d 10             	mov    0x10(%ebp),%ebx
    114f:	8b 45 08             	mov    0x8(%ebp),%eax
    1152:	6a 00                	push   $0x0
    1154:	50                   	push   %eax
    1155:	e8 d6 82 00 00       	call   9430 <async_answer_0@plt>
    115a:	8b 43 04             	mov    0x4(%ebx),%eax
    115d:	d1 e8                	shr    %eax
    115f:	83 c4 10             	add    $0x10,%esp
    1162:	89 45 b4             	mov    %eax,-0x4c(%ebp)
    1165:	50                   	push   %eax
    1166:	50                   	push   %eax
    1167:	6a 00                	push   $0x0
    1169:	56                   	push   %esi
    116a:	e8 e1 84 00 00       	call   9650 <async_get_call_timeout@plt>
    116f:	83 c4 10             	add    $0x10,%esp
    1172:	89 c7                	mov    %eax,%edi
    1174:	8b 45 c4             	mov    -0x3c(%ebp),%eax
    1177:	3d 02 04 00 00       	cmp    $0x402,%eax
    117c:	74 32                	je     11b0 <device_event_callback+0x70>
    117e:	3d 04 04 00 00       	cmp    $0x404,%eax
    1183:	0f 84 b7 00 00 00    	je     1240 <device_event_callback+0x100>
    1189:	3d 00 04 00 00       	cmp    $0x400,%eax
    118e:	74 20                	je     11b0 <device_event_callback+0x70>
    1190:	52                   	push   %edx
    1191:	52                   	push   %edx
    1192:	50                   	push   %eax
    1193:	68 50 6e 00 00       	push   $0x6e50
    1198:	e8 93 81 00 00       	call   9330 <printf@plt>
    119d:	59                   	pop    %ecx
    119e:	58                   	pop    %eax
    119f:	6a f5                	push   $0xfffffff5
    11a1:	57                   	push   %edi
    11a2:	e8 89 82 00 00       	call   9430 <async_answer_0@plt>
    11a7:	83 c4 10             	add    $0x10,%esp
    11aa:	eb b9                	jmp    1165 <device_event_callback+0x25>
    11ac:	8d 74 26 00          	lea    0x0(%esi,%eiz,1),%esi
    11b0:	8b 45 c8             	mov    -0x38(%ebp),%eax
    11b3:	51                   	push   %ecx
    11b4:	51                   	push   %ecx
    11b5:	50                   	push   %eax
    11b6:	68 2f 6e 00 00       	push   $0x6e2f
    11bb:	e8 70 81 00 00       	call   9330 <printf@plt>
    11c0:	58                   	pop    %eax
    11c1:	5a                   	pop    %edx
    11c2:	6a 00                	push   $0x0
    11c4:	57                   	push   %edi
    11c5:	e8 66 82 00 00       	call   9430 <async_answer_0@plt>
    11ca:	8b 4b 18             	mov    0x18(%ebx),%ecx
    11cd:	51                   	push   %ecx
    11ce:	8b 7d b4             	mov    -0x4c(%ebp),%edi
    11d1:	8b 43 08             	mov    0x8(%ebx),%eax
    11d4:	57                   	push   %edi
    11d5:	6a 01                	push   $0x1
    11d7:	50                   	push   %eax
    11d8:	e8 83 83 00 00       	call   9560 <fread@plt>
    11dd:	83 c4 20             	add    $0x20,%esp
    11e0:	89 c7                	mov    %eax,%edi
    11e2:	8b 45 b4             	mov    -0x4c(%ebp),%eax
    11e5:	50                   	push   %eax
    11e6:	8b 43 08             	mov    0x8(%ebx),%eax
    11e9:	57                   	push   %edi
    11ea:	50                   	push   %eax
    11eb:	68 50 70 00 00       	push   $0x7050
    11f0:	e8 3b 81 00 00       	call   9330 <printf@plt>
    11f5:	83 c4 10             	add    $0x10,%esp
    11f8:	85 ff                	test   %edi,%edi
    11fa:	0f 84 88 00 00 00    	je     1288 <device_event_callback+0x148>
    1200:	50                   	push   %eax
    1201:	8b 45 b4             	mov    -0x4c(%ebp),%eax
    1204:	8b 53 08             	mov    0x8(%ebx),%edx
    1207:	29 f8                	sub    %edi,%eax
    1209:	01 fa                	add    %edi,%edx
    120b:	50                   	push   %eax
    120c:	6a 00                	push   $0x0
    120e:	52                   	push   %edx
    120f:	e8 7c 83 00 00       	call   9590 <memset@plt>
    1214:	8b 53 08             	mov    0x8(%ebx),%edx
    1217:	8b 45 b4             	mov    -0x4c(%ebp),%eax
    121a:	8b 0b                	mov    (%ebx),%ecx
    121c:	01 d0                	add    %edx,%eax
    121e:	8b 53 04             	mov    0x4(%ebx),%edx
    1221:	01 d1                	add    %edx,%ecx
    1223:	83 c4 10             	add    $0x10,%esp
    1226:	89 43 08             	mov    %eax,0x8(%ebx)
    1229:	39 c8                	cmp    %ecx,%eax
    122b:	0f 82 34 ff ff ff    	jb     1165 <device_event_callback+0x25>
    1231:	29 d0                	sub    %edx,%eax
    1233:	89 43 08             	mov    %eax,0x8(%ebx)
    1236:	e9 2a ff ff ff       	jmp    1165 <device_event_callback+0x25>
    123b:	90                   	nop
    123c:	8d 74 26 00          	lea    0x0(%esi,%eiz,1),%esi
    1240:	83 ec 0c             	sub    $0xc,%esp
    1243:	8d 73 20             	lea    0x20(%ebx),%esi
    1246:	83 c3 30             	add    $0x30,%ebx
    1249:	68 3b 6e 00 00       	push   $0x6e3b
    124e:	e8 dd 80 00 00       	call   9330 <printf@plt>
    1253:	89 34 24             	mov    %esi,(%esp)
    1256:	e8 05 85 00 00       	call   9760 <fibril_mutex_lock@plt>
    125b:	c6 43 ec 00          	movb   $0x0,-0x14(%ebx)
    125f:	89 1c 24             	mov    %ebx,(%esp)
    1262:	e8 79 81 00 00       	call   93e0 <fibril_condvar_signal@plt>
    1267:	58                   	pop    %eax
    1268:	5a                   	pop    %edx
    1269:	6a 00                	push   $0x0
    126b:	57                   	push   %edi
    126c:	e8 bf 81 00 00       	call   9430 <async_answer_0@plt>
    1271:	89 34 24             	mov    %esi,(%esp)
    1274:	e8 87 82 00 00       	call   9500 <fibril_mutex_unlock@plt>
    1279:	8d 65 f4             	lea    -0xc(%ebp),%esp
    127c:	5b                   	pop    %ebx
    127d:	5e                   	pop    %esi
    127e:	5f                   	pop    %edi
    127f:	5d                   	pop    %ebp
    1280:	c3                   	ret    
    1281:	8d b4 26 00 00 00 00 	lea    0x0(%esi,%eiz,1),%esi
    1288:	83 ec 0c             	sub    $0xc,%esp
    128b:	8b 4b 38             	mov    0x38(%ebx),%ecx
    128e:	51                   	push   %ecx
    128f:	e8 9c 40 00 00       	call   5330 <audio_pcm_last_playback_fragment>
    1294:	83 c4 10             	add    $0x10,%esp
    1297:	e9 64 ff ff ff       	jmp    1200 <device_event_callback+0xc0>
    129c:	8d 74 26 00          	lea    0x0(%esi,%eiz,1),%esi

000012a0 <dplay>:
    12a0:	55                   	push   %ebp
    12a1:	89 e5                	mov    %esp,%ebp
    12a3:	57                   	push   %edi
    12a4:	56                   	push   %esi
    12a5:	53                   	push   %ebx
    12a6:	81 ec a4 00 00 00    	sub    $0xa4,%esp
    12ac:	8b 5d 08             	mov    0x8(%ebp),%ebx
    12af:	68 79 6e 00 00       	push   $0x6e79
    12b4:	53                   	push   %ebx
    12b5:	e8 96 82 00 00       	call   9550 <str_cmp@plt>
    12ba:	83 c4 10             	add    $0x10,%esp
    12bd:	85 c0                	test   %eax,%eax
    12bf:	0f 85 b3 00 00 00    	jne    1378 <dplay+0xd8>
    12c5:	e8 d6 39 00 00       	call   4ca0 <audio_pcm_open_default>
    12ca:	89 85 64 ff ff ff    	mov    %eax,-0x9c(%ebp)
    12d0:	8b bd 64 ff ff ff    	mov    -0x9c(%ebp),%edi
    12d6:	85 ff                	test   %edi,%edi
    12d8:	0f 84 ba 00 00 00    	je     1398 <dplay+0xf8>
    12de:	50                   	push   %eax
    12df:	50                   	push   %eax
    12e0:	53                   	push   %ebx
    12e1:	68 81 6e 00 00       	push   $0x6e81
    12e6:	e8 45 80 00 00       	call   9330 <printf@plt>
    12eb:	8b 8d 64 ff ff ff    	mov    -0x9c(%ebp),%ecx
    12f1:	58                   	pop    %eax
    12f2:	5a                   	pop    %edx
    12f3:	6a 01                	push   $0x1
    12f5:	51                   	push   %ecx
    12f6:	e8 b5 3b 00 00       	call   4eb0 <audio_pcm_query_cap>
    12fb:	83 c4 10             	add    $0x10,%esp
    12fe:	85 c0                	test   %eax,%eax
    1300:	0f 8e 02 02 00 00    	jle    1508 <dplay+0x268>
    1306:	8d 85 6c ff ff ff    	lea    -0x94(%ebp),%eax
    130c:	8b b5 64 ff ff ff    	mov    -0x9c(%ebp),%esi
    1312:	c7 85 6c ff ff ff 00 	movl   $0x0,-0x94(%ebp)
    1319:	00 00 00 
    131c:	53                   	push   %ebx
    131d:	53                   	push   %ebx
    131e:	50                   	push   %eax
    131f:	56                   	push   %esi
    1320:	e8 9b 3a 00 00       	call   4dc0 <audio_pcm_get_info_str>
    1325:	83 c4 10             	add    $0x10,%esp
    1328:	85 c0                	test   %eax,%eax
    132a:	0f 84 90 00 00 00    	je     13c0 <dplay+0x120>
    1330:	83 ec 0c             	sub    $0xc,%esp
    1333:	50                   	push   %eax
    1334:	e8 67 83 00 00       	call   96a0 <str_error@plt>
    1339:	5a                   	pop    %edx
    133a:	59                   	pop    %ecx
    133b:	50                   	push   %eax
    133c:	68 99 6e 00 00       	push   $0x6e99
    1341:	e8 ea 7f 00 00       	call   9330 <printf@plt>
    1346:	83 c4 10             	add    $0x10,%esp
    1349:	c7 85 60 ff ff ff 01 	movl   $0x1,-0xa0(%ebp)
    1350:	00 00 00 
    1353:	83 ec 0c             	sub    $0xc,%esp
    1356:	8b b5 64 ff ff ff    	mov    -0x9c(%ebp),%esi
    135c:	56                   	push   %esi
    135d:	e8 3e 3a 00 00       	call   4da0 <audio_pcm_close>
    1362:	8b 85 60 ff ff ff    	mov    -0xa0(%ebp),%eax
    1368:	83 c4 10             	add    $0x10,%esp
    136b:	8d 65 f4             	lea    -0xc(%ebp),%esp
    136e:	5b                   	pop    %ebx
    136f:	5e                   	pop    %esi
    1370:	5f                   	pop    %edi
    1371:	5d                   	pop    %ebp
    1372:	c3                   	ret    
    1373:	90                   	nop
    1374:	8d 74 26 00          	lea    0x0(%esi,%eiz,1),%esi
    1378:	83 ec 0c             	sub    $0xc,%esp
    137b:	53                   	push   %ebx
    137c:	e8 bf 39 00 00       	call   4d40 <audio_pcm_open>
    1381:	89 85 64 ff ff ff    	mov    %eax,-0x9c(%ebp)
    1387:	83 c4 10             	add    $0x10,%esp
    138a:	8b bd 64 ff ff ff    	mov    -0x9c(%ebp),%edi
    1390:	85 ff                	test   %edi,%edi
    1392:	0f 85 46 ff ff ff    	jne    12de <dplay+0x3e>
    1398:	56                   	push   %esi
    1399:	56                   	push   %esi
    139a:	53                   	push   %ebx
    139b:	68 78 70 00 00       	push   $0x7078
    13a0:	e8 8b 7f 00 00       	call   9330 <printf@plt>
    13a5:	c7 85 60 ff ff ff 01 	movl   $0x1,-0xa0(%ebp)
    13ac:	00 00 00 
    13af:	8b 85 60 ff ff ff    	mov    -0xa0(%ebp),%eax
    13b5:	83 c4 10             	add    $0x10,%esp
    13b8:	8d 65 f4             	lea    -0xc(%ebp),%esp
    13bb:	5b                   	pop    %ebx
    13bc:	5e                   	pop    %esi
    13bd:	5f                   	pop    %edi
    13be:	5d                   	pop    %ebp
    13bf:	c3                   	ret    
    13c0:	8b 85 6c ff ff ff    	mov    -0x94(%ebp),%eax
    13c6:	57                   	push   %edi
    13c7:	57                   	push   %edi
    13c8:	50                   	push   %eax
    13c9:	68 b6 6e 00 00       	push   $0x6eb6
    13ce:	e8 5d 7f 00 00       	call   9330 <printf@plt>
    13d3:	58                   	pop    %eax
    13d4:	8b 85 6c ff ff ff    	mov    -0x94(%ebp),%eax
    13da:	50                   	push   %eax
    13db:	8d 5d cc             	lea    -0x34(%ebp),%ebx
    13de:	e8 6d 83 00 00       	call   9750 <free@plt>
    13e3:	8d 75 dc             	lea    -0x24(%ebp),%esi
    13e6:	8b 85 64 ff ff ff    	mov    -0x9c(%ebp),%eax
    13ec:	89 1c 24             	mov    %ebx,(%esp)
    13ef:	89 45 e4             	mov    %eax,-0x1c(%ebp)
    13f2:	c7 45 ac 00 00 00 00 	movl   $0x0,-0x54(%ebp)
    13f9:	c7 45 b0 00 00 00 00 	movl   $0x0,-0x50(%ebp)
    1400:	c7 45 b4 00 00 00 00 	movl   $0x0,-0x4c(%ebp)
    1407:	c6 45 c8 00          	movb   $0x0,-0x38(%ebp)
    140b:	c7 45 c4 00 00 00 00 	movl   $0x0,-0x3c(%ebp)
    1412:	e8 19 81 00 00       	call   9530 <fibril_mutex_initialize@plt>
    1417:	89 34 24             	mov    %esi,(%esp)
    141a:	e8 a1 80 00 00       	call   94c0 <fibril_condvar_initialize@plt>
    141f:	83 c4 0c             	add    $0xc,%esp
    1422:	8d 45 b0             	lea    -0x50(%ebp),%eax
    1425:	8d 7d ac             	lea    -0x54(%ebp),%edi
    1428:	50                   	push   %eax
    1429:	8b 45 e4             	mov    -0x1c(%ebp),%eax
    142c:	57                   	push   %edi
    142d:	50                   	push   %eax
    142e:	e8 6d 3d 00 00       	call   51a0 <audio_pcm_get_buffer>
    1433:	83 c4 10             	add    $0x10,%esp
    1436:	85 c0                	test   %eax,%eax
    1438:	0f 85 ea 00 00 00    	jne    1528 <dplay+0x288>
    143e:	50                   	push   %eax
    143f:	8b 45 b0             	mov    -0x50(%ebp),%eax
    1442:	50                   	push   %eax
    1443:	8b 45 ac             	mov    -0x54(%ebp),%eax
    1446:	50                   	push   %eax
    1447:	68 c6 6e 00 00       	push   $0x6ec6
    144c:	e8 df 7e 00 00       	call   9330 <printf@plt>
    1451:	8b 4d 0c             	mov    0xc(%ebp),%ecx
    1454:	58                   	pop    %eax
    1455:	5a                   	pop    %edx
    1456:	68 d7 6e 00 00       	push   $0x6ed7
    145b:	51                   	push   %ecx
    145c:	e8 1f 81 00 00       	call   9580 <fopen@plt>
    1461:	83 c4 10             	add    $0x10,%esp
    1464:	89 45 c4             	mov    %eax,-0x3c(%ebp)
    1467:	85 c0                	test   %eax,%eax
    1469:	0f 84 4b 04 00 00    	je     18ba <dplay+0x61a>
    146f:	8d 55 80             	lea    -0x80(%ebp),%edx
    1472:	50                   	push   %eax
    1473:	6a 01                	push   $0x1
    1475:	6a 2c                	push   $0x2c
    1477:	52                   	push   %edx
    1478:	89 95 60 ff ff ff    	mov    %edx,-0xa0(%ebp)
    147e:	e8 dd 80 00 00       	call   9560 <fread@plt>
    1483:	83 c4 0c             	add    $0xc,%esp
    1486:	8d 85 70 ff ff ff    	lea    -0x90(%ebp),%eax
    148c:	8b 95 60 ff ff ff    	mov    -0xa0(%ebp),%edx
    1492:	50                   	push   %eax
    1493:	8d 45 c0             	lea    -0x40(%ebp),%eax
    1496:	50                   	push   %eax
    1497:	8d 45 bc             	lea    -0x44(%ebp),%eax
    149a:	50                   	push   %eax
    149b:	8d 45 b8             	lea    -0x48(%ebp),%eax
    149e:	50                   	push   %eax
    149f:	6a 00                	push   $0x0
    14a1:	6a 00                	push   $0x0
    14a3:	52                   	push   %edx
    14a4:	e8 17 12 00 00       	call   26c0 <wav_parse_header>
    14a9:	83 c4 20             	add    $0x20,%esp
    14ac:	89 85 60 ff ff ff    	mov    %eax,-0xa0(%ebp)
    14b2:	85 c0                	test   %eax,%eax
    14b4:	0f 84 96 00 00 00    	je     1550 <dplay+0x2b0>
    14ba:	50                   	push   %eax
    14bb:	50                   	push   %eax
    14bc:	8b 85 70 ff ff ff    	mov    -0x90(%ebp),%eax
    14c2:	50                   	push   %eax
    14c3:	68 e4 70 00 00       	push   $0x70e4
    14c8:	e8 63 7e 00 00       	call   9330 <printf@plt>
    14cd:	83 c4 10             	add    $0x10,%esp
    14d0:	c7 85 60 ff ff ff 01 	movl   $0x1,-0xa0(%ebp)
    14d7:	00 00 00 
    14da:	83 ec 0c             	sub    $0xc,%esp
    14dd:	8b 7d c4             	mov    -0x3c(%ebp),%edi
    14e0:	57                   	push   %edi
    14e1:	e8 ea 80 00 00       	call   95d0 <fclose@plt>
    14e6:	58                   	pop    %eax
    14e7:	8b 45 ac             	mov    -0x54(%ebp),%eax
    14ea:	50                   	push   %eax
    14eb:	e8 30 7f 00 00       	call   9420 <as_area_destroy@plt>
    14f0:	58                   	pop    %eax
    14f1:	8b 45 e4             	mov    -0x1c(%ebp),%eax
    14f4:	50                   	push   %eax
    14f5:	e8 56 3d 00 00       	call   5250 <audio_pcm_release_buffer>
    14fa:	83 c4 10             	add    $0x10,%esp
    14fd:	e9 51 fe ff ff       	jmp    1353 <dplay+0xb3>
    1502:	8d b6 00 00 00 00    	lea    0x0(%esi),%esi
    1508:	57                   	push   %edi
    1509:	57                   	push   %edi
    150a:	53                   	push   %ebx
    150b:	68 9c 70 00 00       	push   $0x709c
    1510:	e8 1b 7e 00 00       	call   9330 <printf@plt>
    1515:	83 c4 10             	add    $0x10,%esp
    1518:	c7 85 60 ff ff ff 01 	movl   $0x1,-0xa0(%ebp)
    151f:	00 00 00 
    1522:	e9 2c fe ff ff       	jmp    1353 <dplay+0xb3>
    1527:	90                   	nop
    1528:	83 ec 0c             	sub    $0xc,%esp
    152b:	50                   	push   %eax
    152c:	e8 6f 81 00 00       	call   96a0 <str_error@plt>
    1531:	5b                   	pop    %ebx
    1532:	5e                   	pop    %esi
    1533:	50                   	push   %eax
    1534:	68 c4 70 00 00       	push   $0x70c4
    1539:	e8 f2 7d 00 00       	call   9330 <printf@plt>
    153e:	83 c4 10             	add    $0x10,%esp
    1541:	c7 85 60 ff ff ff 01 	movl   $0x1,-0xa0(%ebp)
    1548:	00 00 00 
    154b:	e9 03 fe ff ff       	jmp    1353 <dplay+0xb3>
    1550:	50                   	push   %eax
    1551:	50                   	push   %eax
    1552:	8b 45 e4             	mov    -0x1c(%ebp),%eax
    1555:	6a 03                	push   $0x3
    1557:	50                   	push   %eax
    1558:	e8 53 39 00 00       	call   4eb0 <audio_pcm_query_cap>
    155d:	83 c4 10             	add    $0x10,%esp
    1560:	85 c0                	test   %eax,%eax
    1562:	0f 8e 74 03 00 00    	jle    18dc <dplay+0x63c>
    1568:	8b 45 e4             	mov    -0x1c(%ebp),%eax
    156b:	85 c0                	test   %eax,%eax
    156d:	0f 84 6f 05 00 00    	je     1ae2 <dplay+0x842>
    1573:	8b 45 ac             	mov    -0x54(%ebp),%eax
    1576:	8b 55 c0             	mov    -0x40(%ebp),%edx
    1579:	89 45 b4             	mov    %eax,-0x4c(%ebp)
    157c:	8b 4d b8             	mov    -0x48(%ebp),%ecx
    157f:	b8 63 6e 00 00       	mov    $0x6e63,%eax
    1584:	83 fa 12             	cmp    $0x12,%edx
    1587:	0f 86 21 03 00 00    	jbe    18ae <dplay+0x60e>
    158d:	8b 7d bc             	mov    -0x44(%ebp),%edi
    1590:	51                   	push   %ecx
    1591:	50                   	push   %eax
    1592:	57                   	push   %edi
    1593:	68 04 71 00 00       	push   $0x7104
    1598:	e8 93 7d 00 00       	call   9330 <printf@plt>
    159d:	8d 85 78 ff ff ff    	lea    -0x88(%ebp),%eax
    15a3:	c7 85 74 ff ff ff 00 	movl   $0x0,-0x8c(%ebp)
    15aa:	00 00 00 
    15ad:	89 04 24             	mov    %eax,(%esp)
    15b0:	c7 85 78 ff ff ff 00 	movl   $0x0,-0x88(%ebp)
    15b7:	00 00 00 
    15ba:	c7 85 7c ff ff ff 00 	movl   $0x0,-0x84(%ebp)
    15c1:	00 00 00 
    15c4:	e8 47 80 00 00       	call   9610 <getuptime@plt>
    15c9:	83 c4 10             	add    $0x10,%esp
    15cc:	c6 85 5c ff ff ff 00 	movb   $0x0,-0xa4(%ebp)
    15d3:	90                   	nop
    15d4:	8d 74 26 00          	lea    0x0(%esi,%eiz,1),%esi
    15d8:	8b 45 ac             	mov    -0x54(%ebp),%eax
    15db:	8b 9d 74 ff ff ff    	mov    -0x8c(%ebp),%ebx
    15e1:	01 c3                	add    %eax,%ebx
    15e3:	8b 55 b4             	mov    -0x4c(%ebp),%edx
    15e6:	39 d3                	cmp    %edx,%ebx
    15e8:	0f 86 72 02 00 00    	jbe    1860 <dplay+0x5c0>
    15ee:	29 d3                	sub    %edx,%ebx
    15f0:	8b 4d b0             	mov    -0x50(%ebp),%ecx
    15f3:	4b                   	dec    %ebx
    15f4:	01 c8                	add    %ecx,%eax
    15f6:	8b 75 c4             	mov    -0x3c(%ebp),%esi
    15f9:	29 d0                	sub    %edx,%eax
    15fb:	56                   	push   %esi
    15fc:	39 d8                	cmp    %ebx,%eax
    15fe:	76 02                	jbe    1602 <dplay+0x362>
    1600:	89 d8                	mov    %ebx,%eax
    1602:	50                   	push   %eax
    1603:	6a 01                	push   $0x1
    1605:	52                   	push   %edx
    1606:	e8 55 7f 00 00       	call   9560 <fread@plt>
    160b:	8b 7d ac             	mov    -0x54(%ebp),%edi
    160e:	8b 55 b0             	mov    -0x50(%ebp),%edx
    1611:	89 c6                	mov    %eax,%esi
    1613:	8b 45 b4             	mov    -0x4c(%ebp),%eax
    1616:	01 f0                	add    %esi,%eax
    1618:	8d 0c 17             	lea    (%edi,%edx,1),%ecx
    161b:	83 c4 10             	add    $0x10,%esp
    161e:	89 45 b4             	mov    %eax,-0x4c(%ebp)
    1621:	39 c1                	cmp    %eax,%ecx
    1623:	77 0c                	ja     1631 <dplay+0x391>
    1625:	f7 da                	neg    %edx
    1627:	90                   	nop
    1628:	01 d0                	add    %edx,%eax
    162a:	39 c1                	cmp    %eax,%ecx
    162c:	76 fa                	jbe    1628 <dplay+0x388>
    162e:	89 45 b4             	mov    %eax,-0x4c(%ebp)
    1631:	29 f8                	sub    %edi,%eax
    1633:	52                   	push   %edx
    1634:	50                   	push   %eax
    1635:	8b 85 78 ff ff ff    	mov    -0x88(%ebp),%eax
    163b:	8b bd 7c ff ff ff    	mov    -0x84(%ebp),%edi
    1641:	8b 8d 74 ff ff ff    	mov    -0x8c(%ebp),%ecx
    1647:	89 c2                	mov    %eax,%edx
    1649:	56                   	push   %esi
    164a:	c1 fa 1f             	sar    $0x1f,%edx
    164d:	53                   	push   %ebx
    164e:	51                   	push   %ecx
    164f:	57                   	push   %edi
    1650:	bf 64 00 00 00       	mov    $0x64,%edi
    1655:	f7 ff                	idiv   %edi
    1657:	52                   	push   %edx
    1658:	89 df                	mov    %ebx,%edi
    165a:	68 28 71 00 00       	push   $0x7128
    165f:	e8 cc 7c 00 00       	call   9330 <printf@plt>
    1664:	83 c4 20             	add    $0x20,%esp
    1667:	29 f7                	sub    %esi,%edi
    1669:	74 7c                	je     16e7 <dplay+0x447>
    166b:	8b 45 c4             	mov    -0x3c(%ebp),%eax
    166e:	8b 4d ac             	mov    -0x54(%ebp),%ecx
    1671:	50                   	push   %eax
    1672:	8b 45 b0             	mov    -0x50(%ebp),%eax
    1675:	01 c8                	add    %ecx,%eax
    1677:	8b 55 b4             	mov    -0x4c(%ebp),%edx
    167a:	29 d0                	sub    %edx,%eax
    167c:	39 f8                	cmp    %edi,%eax
    167e:	76 02                	jbe    1682 <dplay+0x3e2>
    1680:	89 f8                	mov    %edi,%eax
    1682:	50                   	push   %eax
    1683:	6a 01                	push   $0x1
    1685:	52                   	push   %edx
    1686:	e8 d5 7e 00 00       	call   9560 <fread@plt>
    168b:	8b 75 ac             	mov    -0x54(%ebp),%esi
    168e:	8b 55 b0             	mov    -0x50(%ebp),%edx
    1691:	89 c3                	mov    %eax,%ebx
    1693:	8b 45 b4             	mov    -0x4c(%ebp),%eax
    1696:	01 d8                	add    %ebx,%eax
    1698:	8d 0c 16             	lea    (%esi,%edx,1),%ecx
    169b:	83 c4 10             	add    $0x10,%esp
    169e:	89 45 b4             	mov    %eax,-0x4c(%ebp)
    16a1:	39 c8                	cmp    %ecx,%eax
    16a3:	72 0c                	jb     16b1 <dplay+0x411>
    16a5:	f7 da                	neg    %edx
    16a7:	90                   	nop
    16a8:	01 d0                	add    %edx,%eax
    16aa:	39 c8                	cmp    %ecx,%eax
    16ac:	73 fa                	jae    16a8 <dplay+0x408>
    16ae:	89 45 b4             	mov    %eax,-0x4c(%ebp)
    16b1:	29 f0                	sub    %esi,%eax
    16b3:	52                   	push   %edx
    16b4:	50                   	push   %eax
    16b5:	8b 85 78 ff ff ff    	mov    -0x88(%ebp),%eax
    16bb:	8b b5 7c ff ff ff    	mov    -0x84(%ebp),%esi
    16c1:	8b 8d 74 ff ff ff    	mov    -0x8c(%ebp),%ecx
    16c7:	89 c2                	mov    %eax,%edx
    16c9:	53                   	push   %ebx
    16ca:	c1 fa 1f             	sar    $0x1f,%edx
    16cd:	57                   	push   %edi
    16ce:	51                   	push   %ecx
    16cf:	56                   	push   %esi
    16d0:	be 64 00 00 00       	mov    $0x64,%esi
    16d5:	29 df                	sub    %ebx,%edi
    16d7:	f7 fe                	idiv   %esi
    16d9:	52                   	push   %edx
    16da:	68 6c 71 00 00       	push   $0x716c
    16df:	e8 4c 7c 00 00       	call   9330 <printf@plt>
    16e4:	83 c4 20             	add    $0x20,%esp
    16e7:	80 bd 5c ff ff ff 00 	cmpb   $0x0,-0xa4(%ebp)
    16ee:	75 3d                	jne    172d <dplay+0x48d>
    16f0:	8b 45 b8             	mov    -0x48(%ebp),%eax
    16f3:	8b 5d c0             	mov    -0x40(%ebp),%ebx
    16f6:	8b 75 bc             	mov    -0x44(%ebp),%esi
    16f9:	53                   	push   %ebx
    16fa:	56                   	push   %esi
    16fb:	50                   	push   %eax
    16fc:	8b 45 e4             	mov    -0x1c(%ebp),%eax
    16ff:	50                   	push   %eax
    1700:	e8 7b 3c 00 00       	call   5380 <audio_pcm_start_playback>
    1705:	83 c4 10             	add    $0x10,%esp
    1708:	85 c0                	test   %eax,%eax
    170a:	0f 85 42 03 00 00    	jne    1a52 <dplay+0x7b2>
    1710:	50                   	push   %eax
    1711:	50                   	push   %eax
    1712:	8d 85 74 ff ff ff    	lea    -0x8c(%ebp),%eax
    1718:	50                   	push   %eax
    1719:	8b 45 e4             	mov    -0x1c(%ebp),%eax
    171c:	50                   	push   %eax
    171d:	e8 ee 37 00 00       	call   4f10 <audio_pcm_get_buffer_pos>
    1722:	83 c4 10             	add    $0x10,%esp
    1725:	85 c0                	test   %eax,%eax
    1727:	0f 85 63 01 00 00    	jne    1890 <dplay+0x5f0>
    172d:	8b 85 74 ff ff ff    	mov    -0x8c(%ebp),%eax
    1733:	8b 55 ac             	mov    -0x54(%ebp),%edx
    1736:	01 c2                	add    %eax,%edx
    1738:	89 85 5c ff ff ff    	mov    %eax,-0xa4(%ebp)
    173e:	8b 45 b4             	mov    -0x4c(%ebp),%eax
    1741:	89 c6                	mov    %eax,%esi
    1743:	29 d6                	sub    %edx,%esi
    1745:	39 c2                	cmp    %eax,%edx
    1747:	76 09                	jbe    1752 <dplay+0x4b2>
    1749:	8b 4d b0             	mov    -0x50(%ebp),%ecx
    174c:	01 c8                	add    %ecx,%eax
    174e:	89 c6                	mov    %eax,%esi
    1750:	29 d6                	sub    %edx,%esi
    1752:	8b 45 c0             	mov    -0x40(%ebp),%eax
    1755:	31 db                	xor    %ebx,%ebx
    1757:	8b 4d bc             	mov    -0x44(%ebp),%ecx
    175a:	83 f8 12             	cmp    $0x12,%eax
    175d:	77 0d                	ja     176c <dplay+0x4cc>
    175f:	8b 5d b8             	mov    -0x48(%ebp),%ebx
    1762:	8b 14 85 c0 73 00 00 	mov    0x73c0(,%eax,4),%edx
    1769:	0f af da             	imul   %edx,%ebx
    176c:	8d 44 1e ff          	lea    -0x1(%esi,%ebx,1),%eax
    1770:	31 d2                	xor    %edx,%edx
    1772:	f7 f3                	div    %ebx
    1774:	ba 40 42 0f 00       	mov    $0xf4240,%edx
    1779:	31 db                	xor    %ebx,%ebx
    177b:	f7 e2                	mul    %edx
    177d:	53                   	push   %ebx
    177e:	51                   	push   %ecx
    177f:	52                   	push   %edx
    1780:	50                   	push   %eax
    1781:	e8 da 7c 00 00       	call   9460 <__udivdi3@plt>
    1786:	83 c4 10             	add    $0x10,%esp
    1789:	3d 50 c3 00 00       	cmp    $0xc350,%eax
    178e:	0f 86 94 00 00 00    	jbe    1828 <dplay+0x588>
    1794:	8d 98 b0 3c ff ff    	lea    -0xc350(%eax),%ebx
    179a:	52                   	push   %edx
    179b:	56                   	push   %esi
    179c:	53                   	push   %ebx
    179d:	50                   	push   %eax
    179e:	8b 85 78 ff ff ff    	mov    -0x88(%ebp),%eax
    17a4:	8b 8d 5c ff ff ff    	mov    -0xa4(%ebp),%ecx
    17aa:	8b b5 7c ff ff ff    	mov    -0x84(%ebp),%esi
    17b0:	89 c2                	mov    %eax,%edx
    17b2:	51                   	push   %ecx
    17b3:	c1 fa 1f             	sar    $0x1f,%edx
    17b6:	56                   	push   %esi
    17b7:	be 64 00 00 00       	mov    $0x64,%esi
    17bc:	f7 fe                	idiv   %esi
    17be:	52                   	push   %edx
    17bf:	68 e0 71 00 00       	push   $0x71e0
    17c4:	e8 67 7b 00 00       	call   9330 <printf@plt>
    17c9:	83 c4 14             	add    $0x14,%esp
    17cc:	53                   	push   %ebx
    17cd:	e8 2e 7e 00 00       	call   9600 <async_usleep@plt>
    17d2:	83 c4 10             	add    $0x10,%esp
    17d5:	8d 85 74 ff ff ff    	lea    -0x8c(%ebp),%eax
    17db:	8b 75 e4             	mov    -0x1c(%ebp),%esi
    17de:	53                   	push   %ebx
    17df:	53                   	push   %ebx
    17e0:	50                   	push   %eax
    17e1:	56                   	push   %esi
    17e2:	e8 29 37 00 00       	call   4f10 <audio_pcm_get_buffer_pos>
    17e7:	83 c4 10             	add    $0x10,%esp
    17ea:	85 c0                	test   %eax,%eax
    17ec:	0f 85 7e 00 00 00    	jne    1870 <dplay+0x5d0>
    17f2:	83 ec 0c             	sub    $0xc,%esp
    17f5:	8d 85 78 ff ff ff    	lea    -0x88(%ebp),%eax
    17fb:	50                   	push   %eax
    17fc:	e8 0f 7e 00 00       	call   9610 <getuptime@plt>
    1801:	83 c4 10             	add    $0x10,%esp
    1804:	c6 85 5c ff ff ff 01 	movb   $0x1,-0xa4(%ebp)
    180b:	85 ff                	test   %edi,%edi
    180d:	0f 84 c5 fd ff ff    	je     15d8 <dplay+0x338>
    1813:	83 ec 0c             	sub    $0xc,%esp
    1816:	8b 45 e4             	mov    -0x1c(%ebp),%eax
    1819:	50                   	push   %eax
    181a:	e8 f1 3b 00 00       	call   5410 <audio_pcm_stop_playback_immediate>
    181f:	83 c4 10             	add    $0x10,%esp
    1822:	e9 b3 fc ff ff       	jmp    14da <dplay+0x23a>
    1827:	90                   	nop
    1828:	52                   	push   %edx
    1829:	56                   	push   %esi
    182a:	6a 00                	push   $0x0
    182c:	50                   	push   %eax
    182d:	8b 85 78 ff ff ff    	mov    -0x88(%ebp),%eax
    1833:	be 64 00 00 00       	mov    $0x64,%esi
    1838:	89 c2                	mov    %eax,%edx
    183a:	8b 8d 5c ff ff ff    	mov    -0xa4(%ebp),%ecx
    1840:	c1 fa 1f             	sar    $0x1f,%edx
    1843:	8b 9d 7c ff ff ff    	mov    -0x84(%ebp),%ebx
    1849:	f7 fe                	idiv   %esi
    184b:	51                   	push   %ecx
    184c:	53                   	push   %ebx
    184d:	52                   	push   %edx
    184e:	68 e0 71 00 00       	push   $0x71e0
    1853:	e8 d8 7a 00 00       	call   9330 <printf@plt>
    1858:	83 c4 20             	add    $0x20,%esp
    185b:	e9 75 ff ff ff       	jmp    17d5 <dplay+0x535>
    1860:	8b 4d b0             	mov    -0x50(%ebp),%ecx
    1863:	01 cb                	add    %ecx,%ebx
    1865:	29 d3                	sub    %edx,%ebx
    1867:	4b                   	dec    %ebx
    1868:	e9 87 fd ff ff       	jmp    15f4 <dplay+0x354>
    186d:	8d 76 00             	lea    0x0(%esi),%esi
    1870:	83 ec 0c             	sub    $0xc,%esp
    1873:	50                   	push   %eax
    1874:	e8 27 7e 00 00       	call   96a0 <str_error@plt>
    1879:	5a                   	pop    %edx
    187a:	59                   	pop    %ecx
    187b:	50                   	push   %eax
    187c:	68 b8 71 00 00       	push   $0x71b8
    1881:	e8 aa 7a 00 00       	call   9330 <printf@plt>
    1886:	83 c4 10             	add    $0x10,%esp
    1889:	e9 64 ff ff ff       	jmp    17f2 <dplay+0x552>
    188e:	66 90                	xchg   %ax,%ax
    1890:	83 ec 0c             	sub    $0xc,%esp
    1893:	50                   	push   %eax
    1894:	e8 07 7e 00 00       	call   96a0 <str_error@plt>
    1899:	5b                   	pop    %ebx
    189a:	5e                   	pop    %esi
    189b:	50                   	push   %eax
    189c:	68 b8 71 00 00       	push   $0x71b8
    18a1:	e8 8a 7a 00 00       	call   9330 <printf@plt>
    18a6:	83 c4 10             	add    $0x10,%esp
    18a9:	e9 7f fe ff ff       	jmp    172d <dplay+0x48d>
    18ae:	8b 04 95 60 73 00 00 	mov    0x7360(,%edx,4),%eax
    18b5:	e9 d3 fc ff ff       	jmp    158d <dplay+0x2ed>
    18ba:	8b 4d 0c             	mov    0xc(%ebp),%ecx
    18bd:	52                   	push   %edx
    18be:	52                   	push   %edx
    18bf:	51                   	push   %ecx
    18c0:	68 da 6e 00 00       	push   $0x6eda
    18c5:	e8 66 7a 00 00       	call   9330 <printf@plt>
    18ca:	83 c4 10             	add    $0x10,%esp
    18cd:	c7 85 60 ff ff ff 01 	movl   $0x1,-0xa0(%ebp)
    18d4:	00 00 00 
    18d7:	e9 fe fb ff ff       	jmp    14da <dplay+0x23a>
    18dc:	50                   	push   %eax
    18dd:	50                   	push   %eax
    18de:	8b 45 e4             	mov    -0x1c(%ebp),%eax
    18e1:	6a 04                	push   $0x4
    18e3:	50                   	push   %eax
    18e4:	e8 c7 35 00 00       	call   4eb0 <audio_pcm_query_cap>
    18e9:	83 c4 10             	add    $0x10,%esp
    18ec:	85 c0                	test   %eax,%eax
    18ee:	0f 8e 7c 01 00 00    	jle    1a70 <dplay+0x7d0>
    18f4:	8b 45 e4             	mov    -0x1c(%ebp),%eax
    18f7:	85 c0                	test   %eax,%eax
    18f9:	0f 84 f8 01 00 00    	je     1af7 <dplay+0x857>
    18ff:	83 ec 0c             	sub    $0xc,%esp
    1902:	8b 45 b0             	mov    -0x50(%ebp),%eax
    1905:	d1 e8                	shr    %eax
    1907:	68 25 6f 00 00       	push   $0x6f25
    190c:	89 85 5c ff ff ff    	mov    %eax,-0xa4(%ebp)
    1912:	e8 19 7a 00 00       	call   9330 <printf@plt>
    1917:	83 c4 0c             	add    $0xc,%esp
    191a:	57                   	push   %edi
    191b:	8b 7d e4             	mov    -0x1c(%ebp),%edi
    191e:	68 40 11 00 00       	push   $0x1140
    1923:	57                   	push   %edi
    1924:	e8 97 37 00 00       	call   50c0 <audio_pcm_register_event_callback>
    1929:	83 c4 10             	add    $0x10,%esp
    192c:	85 c0                	test   %eax,%eax
    192e:	0f 85 90 01 00 00    	jne    1ac4 <dplay+0x824>
    1934:	8b 55 c0             	mov    -0x40(%ebp),%edx
    1937:	8b 4d b8             	mov    -0x48(%ebp),%ecx
    193a:	b8 63 6e 00 00       	mov    $0x6e63,%eax
    193f:	83 fa 12             	cmp    $0x12,%edx
    1942:	77 07                	ja     194b <dplay+0x6ab>
    1944:	8b 04 95 60 73 00 00 	mov    0x7360(,%edx,4),%eax
    194b:	8b 7d bc             	mov    -0x44(%ebp),%edi
    194e:	51                   	push   %ecx
    194f:	50                   	push   %eax
    1950:	57                   	push   %edi
    1951:	68 04 71 00 00       	push   $0x7104
    1956:	e8 d5 79 00 00       	call   9330 <printf@plt>
    195b:	8b 45 c4             	mov    -0x3c(%ebp),%eax
    195e:	50                   	push   %eax
    195f:	8b 85 5c ff ff ff    	mov    -0xa4(%ebp),%eax
    1965:	50                   	push   %eax
    1966:	8b 45 ac             	mov    -0x54(%ebp),%eax
    1969:	6a 01                	push   $0x1
    196b:	50                   	push   %eax
    196c:	e8 ef 7b 00 00       	call   9560 <fread@plt>
    1971:	83 c4 20             	add    $0x20,%esp
    1974:	89 c7                	mov    %eax,%edi
    1976:	8b 85 5c ff ff ff    	mov    -0xa4(%ebp),%eax
    197c:	39 f8                	cmp    %edi,%eax
    197e:	74 14                	je     1994 <dplay+0x6f4>
    1980:	29 f8                	sub    %edi,%eax
    1982:	51                   	push   %ecx
    1983:	50                   	push   %eax
    1984:	8b 45 ac             	mov    -0x54(%ebp),%eax
    1987:	01 f8                	add    %edi,%eax
    1989:	6a 00                	push   $0x0
    198b:	50                   	push   %eax
    198c:	e8 ff 7b 00 00       	call   9590 <memset@plt>
    1991:	83 c4 10             	add    $0x10,%esp
    1994:	8b 85 5c ff ff ff    	mov    -0xa4(%ebp),%eax
    199a:	50                   	push   %eax
    199b:	8b 45 ac             	mov    -0x54(%ebp),%eax
    199e:	57                   	push   %edi
    199f:	50                   	push   %eax
    19a0:	68 44 72 00 00       	push   $0x7244
    19a5:	e8 86 79 00 00       	call   9330 <printf@plt>
    19aa:	8b 55 ac             	mov    -0x54(%ebp),%edx
    19ad:	8b 85 5c ff ff ff    	mov    -0xa4(%ebp),%eax
    19b3:	01 d0                	add    %edx,%eax
    19b5:	89 1c 24             	mov    %ebx,(%esp)
    19b8:	89 45 b4             	mov    %eax,-0x4c(%ebp)
    19bb:	e8 a0 7d 00 00       	call   9760 <fibril_mutex_lock@plt>
    19c0:	8b 45 c0             	mov    -0x40(%ebp),%eax
    19c3:	83 c4 10             	add    $0x10,%esp
    19c6:	31 c9                	xor    %ecx,%ecx
    19c8:	8b 55 b8             	mov    -0x48(%ebp),%edx
    19cb:	83 f8 12             	cmp    $0x12,%eax
    19ce:	77 0a                	ja     19da <dplay+0x73a>
    19d0:	8b 0c 85 c0 73 00 00 	mov    0x73c0(,%eax,4),%ecx
    19d7:	0f af ca             	imul   %edx,%ecx
    19da:	83 ec 0c             	sub    $0xc,%esp
    19dd:	50                   	push   %eax
    19de:	8b 45 bc             	mov    -0x44(%ebp),%eax
    19e1:	50                   	push   %eax
    19e2:	8b 85 5c ff ff ff    	mov    -0xa4(%ebp),%eax
    19e8:	52                   	push   %edx
    19e9:	31 d2                	xor    %edx,%edx
    19eb:	8d 44 08 ff          	lea    -0x1(%eax,%ecx,1),%eax
    19ef:	f7 f1                	div    %ecx
    19f1:	50                   	push   %eax
    19f2:	8b 45 e4             	mov    -0x1c(%ebp),%eax
    19f5:	50                   	push   %eax
    19f6:	e8 a5 38 00 00       	call   52a0 <audio_pcm_start_playback_fragment>
    19fb:	83 c4 20             	add    $0x20,%esp
    19fe:	89 85 60 ff ff ff    	mov    %eax,-0xa0(%ebp)
    1a04:	85 c0                	test   %eax,%eax
    1a06:	75 7d                	jne    1a85 <dplay+0x7e5>
    1a08:	c6 45 c8 01          	movb   $0x1,-0x38(%ebp)
    1a0c:	8a 45 c8             	mov    -0x38(%ebp),%al
    1a0f:	84 c0                	test   %al,%al
    1a11:	74 18                	je     1a2b <dplay+0x78b>
    1a13:	90                   	nop
    1a14:	8d 74 26 00          	lea    0x0(%esi,%eiz,1),%esi
    1a18:	50                   	push   %eax
    1a19:	50                   	push   %eax
    1a1a:	53                   	push   %ebx
    1a1b:	56                   	push   %esi
    1a1c:	e8 1f 7a 00 00       	call   9440 <fibril_condvar_wait@plt>
    1a21:	8a 45 c8             	mov    -0x38(%ebp),%al
    1a24:	83 c4 10             	add    $0x10,%esp
    1a27:	84 c0                	test   %al,%al
    1a29:	75 ed                	jne    1a18 <dplay+0x778>
    1a2b:	83 ec 0c             	sub    $0xc,%esp
    1a2e:	53                   	push   %ebx
    1a2f:	e8 cc 7a 00 00       	call   9500 <fibril_mutex_unlock@plt>
    1a34:	c7 04 24 5a 79 00 00 	movl   $0x795a,(%esp)
    1a3b:	e8 f0 78 00 00       	call   9330 <printf@plt>
    1a40:	8b 55 e4             	mov    -0x1c(%ebp),%edx
    1a43:	58                   	pop    %eax
    1a44:	52                   	push   %edx
    1a45:	e8 06 37 00 00       	call   5150 <audio_pcm_unregister_event_callback>
    1a4a:	83 c4 10             	add    $0x10,%esp
    1a4d:	e9 88 fa ff ff       	jmp    14da <dplay+0x23a>
    1a52:	83 ec 0c             	sub    $0xc,%esp
    1a55:	50                   	push   %eax
    1a56:	e8 45 7c 00 00       	call   96a0 <str_error@plt>
    1a5b:	5a                   	pop    %edx
    1a5c:	59                   	pop    %ecx
    1a5d:	50                   	push   %eax
    1a5e:	68 07 6f 00 00       	push   $0x6f07
    1a63:	e8 c8 78 00 00       	call   9330 <printf@plt>
    1a68:	83 c4 10             	add    $0x10,%esp
    1a6b:	e9 6a fa ff ff       	jmp    14da <dplay+0x23a>
    1a70:	83 ec 0c             	sub    $0xc,%esp
    1a73:	68 94 72 00 00       	push   $0x7294
    1a78:	e8 b3 78 00 00       	call   9330 <printf@plt>
    1a7d:	83 c4 10             	add    $0x10,%esp
    1a80:	e9 55 fa ff ff       	jmp    14da <dplay+0x23a>
    1a85:	83 ec 0c             	sub    $0xc,%esp
    1a88:	53                   	push   %ebx
    1a89:	e8 72 7a 00 00       	call   9500 <fibril_mutex_unlock@plt>
    1a8e:	8b 9d 60 ff ff ff    	mov    -0xa0(%ebp),%ebx
    1a94:	59                   	pop    %ecx
    1a95:	53                   	push   %ebx
    1a96:	e8 05 7c 00 00       	call   96a0 <str_error@plt>
    1a9b:	5e                   	pop    %esi
    1a9c:	5f                   	pop    %edi
    1a9d:	50                   	push   %eax
    1a9e:	68 74 72 00 00       	push   $0x7274
    1aa3:	e8 88 78 00 00       	call   9330 <printf@plt>
    1aa8:	58                   	pop    %eax
    1aa9:	8b 45 e4             	mov    -0x1c(%ebp),%eax
    1aac:	50                   	push   %eax
    1aad:	e8 9e 36 00 00       	call   5150 <audio_pcm_unregister_event_callback>
    1ab2:	83 c4 10             	add    $0x10,%esp
    1ab5:	c7 85 60 ff ff ff 00 	movl   $0x0,-0xa0(%ebp)
    1abc:	00 00 00 
    1abf:	e9 16 fa ff ff       	jmp    14da <dplay+0x23a>
    1ac4:	83 ec 0c             	sub    $0xc,%esp
    1ac7:	50                   	push   %eax
    1ac8:	e8 d3 7b 00 00       	call   96a0 <str_error@plt>
    1acd:	5a                   	pop    %edx
    1ace:	59                   	pop    %ecx
    1acf:	50                   	push   %eax
    1ad0:	68 1c 72 00 00       	push   $0x721c
    1ad5:	e8 56 78 00 00       	call   9330 <printf@plt>
    1ada:	83 c4 10             	add    $0x10,%esp
    1add:	e9 f8 f9 ff ff       	jmp    14da <dplay+0x23a>
    1ae2:	50                   	push   %eax
    1ae3:	68 fa 00 00 00       	push   $0xfa
    1ae8:	68 f4 6e 00 00       	push   $0x6ef4
    1aed:	68 fc 6e 00 00       	push   $0x6efc
    1af2:	e8 a9 79 00 00       	call   94a0 <assert_abort@plt>
    1af7:	50                   	push   %eax
    1af8:	68 93 00 00 00       	push   $0x93
    1afd:	68 f4 6e 00 00       	push   $0x6ef4
    1b02:	68 fc 6e 00 00       	push   $0x6efc
    1b07:	e8 94 79 00 00       	call   94a0 <assert_abort@plt>
    1b0c:	66 90                	xchg   %ax,%ax
    1b0e:	66 90                	xchg   %ax,%ax

00001b10 <device_event_callback>:
    1b10:	55                   	push   %ebp
    1b11:	89 e5                	mov    %esp,%ebp
    1b13:	57                   	push   %edi
    1b14:	56                   	push   %esi
    1b15:	53                   	push   %ebx
    1b16:	83 ec 54             	sub    $0x54,%esp
    1b19:	8d 7d c4             	lea    -0x3c(%ebp),%edi
    1b1c:	8b 5d 10             	mov    0x10(%ebp),%ebx
    1b1f:	8b 75 08             	mov    0x8(%ebp),%esi
    1b22:	6a 00                	push   $0x0
    1b24:	56                   	push   %esi
    1b25:	e8 06 79 00 00       	call   9430 <async_answer_0@plt>
    1b2a:	8b 43 04             	mov    0x4(%ebx),%eax
    1b2d:	c1 e8 04             	shr    $0x4,%eax
    1b30:	83 c4 10             	add    $0x10,%esp
    1b33:	89 45 b4             	mov    %eax,-0x4c(%ebp)
    1b36:	66 90                	xchg   %ax,%ax
    1b38:	50                   	push   %eax
    1b39:	50                   	push   %eax
    1b3a:	6a 00                	push   $0x0
    1b3c:	57                   	push   %edi
    1b3d:	e8 0e 7b 00 00       	call   9650 <async_get_call_timeout@plt>
    1b42:	83 c4 10             	add    $0x10,%esp
    1b45:	89 c6                	mov    %eax,%esi
    1b47:	8b 45 c4             	mov    -0x3c(%ebp),%eax
    1b4a:	3d 03 04 00 00       	cmp    $0x403,%eax
    1b4f:	74 2f                	je     1b80 <device_event_callback+0x70>
    1b51:	3d 05 04 00 00       	cmp    $0x405,%eax
    1b56:	0f 85 84 00 00 00    	jne    1be0 <device_event_callback+0xd0>
    1b5c:	83 ec 0c             	sub    $0xc,%esp
    1b5f:	68 0c 74 00 00       	push   $0x740c
    1b64:	e8 c7 77 00 00       	call   9330 <printf@plt>
    1b69:	59                   	pop    %ecx
    1b6a:	5b                   	pop    %ebx
    1b6b:	6a 00                	push   $0x0
    1b6d:	56                   	push   %esi
    1b6e:	e8 bd 78 00 00       	call   9430 <async_answer_0@plt>
    1b73:	8d 65 f4             	lea    -0xc(%ebp),%esp
    1b76:	5b                   	pop    %ebx
    1b77:	5e                   	pop    %esi
    1b78:	5f                   	pop    %edi
    1b79:	5d                   	pop    %ebp
    1b7a:	c3                   	ret    
    1b7b:	90                   	nop
    1b7c:	8d 74 26 00          	lea    0x0(%esi,%eiz,1),%esi
    1b80:	8b 45 c8             	mov    -0x38(%ebp),%eax
    1b83:	51                   	push   %ecx
    1b84:	51                   	push   %ecx
    1b85:	50                   	push   %eax
    1b86:	68 22 74 00 00       	push   $0x7422
    1b8b:	e8 a0 77 00 00       	call   9330 <printf@plt>
    1b90:	8b 43 10             	mov    0x10(%ebx),%eax
    1b93:	50                   	push   %eax
    1b94:	8b 45 b4             	mov    -0x4c(%ebp),%eax
    1b97:	50                   	push   %eax
    1b98:	8b 43 0c             	mov    0xc(%ebx),%eax
    1b9b:	6a 01                	push   $0x1
    1b9d:	50                   	push   %eax
    1b9e:	e8 0d 7b 00 00       	call   96b0 <fwrite@plt>
    1ba3:	83 c4 18             	add    $0x18,%esp
    1ba6:	50                   	push   %eax
    1ba7:	68 2d 74 00 00       	push   $0x742d
    1bac:	e8 7f 77 00 00       	call   9330 <printf@plt>
    1bb1:	8b 53 0c             	mov    0xc(%ebx),%edx
    1bb4:	8b 45 b4             	mov    -0x4c(%ebp),%eax
    1bb7:	8b 4b 04             	mov    0x4(%ebx),%ecx
    1bba:	01 d0                	add    %edx,%eax
    1bbc:	8b 13                	mov    (%ebx),%edx
    1bbe:	01 d1                	add    %edx,%ecx
    1bc0:	83 c4 10             	add    $0x10,%esp
    1bc3:	89 43 0c             	mov    %eax,0xc(%ebx)
    1bc6:	39 c8                	cmp    %ecx,%eax
    1bc8:	72 03                	jb     1bcd <device_event_callback+0xbd>
    1bca:	89 53 0c             	mov    %edx,0xc(%ebx)
    1bcd:	52                   	push   %edx
    1bce:	52                   	push   %edx
    1bcf:	6a 00                	push   $0x0
    1bd1:	56                   	push   %esi
    1bd2:	e8 59 78 00 00       	call   9430 <async_answer_0@plt>
    1bd7:	83 c4 10             	add    $0x10,%esp
    1bda:	e9 59 ff ff ff       	jmp    1b38 <device_event_callback+0x28>
    1bdf:	90                   	nop
    1be0:	51                   	push   %ecx
    1be1:	51                   	push   %ecx
    1be2:	50                   	push   %eax
    1be3:	68 50 6e 00 00       	push   $0x6e50
    1be8:	e8 43 77 00 00       	call   9330 <printf@plt>
    1bed:	58                   	pop    %eax
    1bee:	5a                   	pop    %edx
    1bef:	6a f5                	push   $0xfffffff5
    1bf1:	56                   	push   %esi
    1bf2:	e8 39 78 00 00       	call   9430 <async_answer_0@plt>
    1bf7:	83 c4 10             	add    $0x10,%esp
    1bfa:	e9 39 ff ff ff       	jmp    1b38 <device_event_callback+0x28>
    1bff:	90                   	nop

00001c00 <drecord>:
    1c00:	55                   	push   %ebp
    1c01:	89 e5                	mov    %esp,%ebp
    1c03:	57                   	push   %edi
    1c04:	56                   	push   %esi
    1c05:	53                   	push   %ebx
    1c06:	83 ec 64             	sub    $0x64,%esp
    1c09:	8b 75 08             	mov    0x8(%ebp),%esi
    1c0c:	68 79 6e 00 00       	push   $0x6e79
    1c11:	56                   	push   %esi
    1c12:	e8 39 79 00 00       	call   9550 <str_cmp@plt>
    1c17:	83 c4 10             	add    $0x10,%esp
    1c1a:	85 c0                	test   %eax,%eax
    1c1c:	75 72                	jne    1c90 <drecord+0x90>
    1c1e:	e8 7d 30 00 00       	call   4ca0 <audio_pcm_open_default>
    1c23:	89 c3                	mov    %eax,%ebx
    1c25:	85 db                	test   %ebx,%ebx
    1c27:	74 79                	je     1ca2 <drecord+0xa2>
    1c29:	52                   	push   %edx
    1c2a:	52                   	push   %edx
    1c2b:	56                   	push   %esi
    1c2c:	68 32 74 00 00       	push   $0x7432
    1c31:	e8 fa 76 00 00       	call   9330 <printf@plt>
    1c36:	59                   	pop    %ecx
    1c37:	5f                   	pop    %edi
    1c38:	6a 00                	push   $0x0
    1c3a:	53                   	push   %ebx
    1c3b:	e8 70 32 00 00       	call   4eb0 <audio_pcm_query_cap>
    1c40:	83 c4 10             	add    $0x10,%esp
    1c43:	85 c0                	test   %eax,%eax
    1c45:	0f 8e 55 02 00 00    	jle    1ea0 <drecord+0x2a0>
    1c4b:	50                   	push   %eax
    1c4c:	50                   	push   %eax
    1c4d:	8d 45 a0             	lea    -0x60(%ebp),%eax
    1c50:	c7 45 a0 00 00 00 00 	movl   $0x0,-0x60(%ebp)
    1c57:	50                   	push   %eax
    1c58:	53                   	push   %ebx
    1c59:	e8 62 31 00 00       	call   4dc0 <audio_pcm_get_info_str>
    1c5e:	83 c4 10             	add    $0x10,%esp
    1c61:	85 c0                	test   %eax,%eax
    1c63:	74 63                	je     1cc8 <drecord+0xc8>
    1c65:	83 ec 0c             	sub    $0xc,%esp
    1c68:	be 01 00 00 00       	mov    $0x1,%esi
    1c6d:	68 4c 74 00 00       	push   $0x744c
    1c72:	e8 b9 76 00 00       	call   9330 <printf@plt>
    1c77:	83 c4 10             	add    $0x10,%esp
    1c7a:	83 ec 0c             	sub    $0xc,%esp
    1c7d:	53                   	push   %ebx
    1c7e:	e8 1d 31 00 00       	call   4da0 <audio_pcm_close>
    1c83:	83 c4 10             	add    $0x10,%esp
    1c86:	8d 65 f4             	lea    -0xc(%ebp),%esp
    1c89:	89 f0                	mov    %esi,%eax
    1c8b:	5b                   	pop    %ebx
    1c8c:	5e                   	pop    %esi
    1c8d:	5f                   	pop    %edi
    1c8e:	5d                   	pop    %ebp
    1c8f:	c3                   	ret    
    1c90:	83 ec 0c             	sub    $0xc,%esp
    1c93:	56                   	push   %esi
    1c94:	e8 a7 30 00 00       	call   4d40 <audio_pcm_open>
    1c99:	89 c3                	mov    %eax,%ebx
    1c9b:	83 c4 10             	add    $0x10,%esp
    1c9e:	85 db                	test   %ebx,%ebx
    1ca0:	75 87                	jne    1c29 <drecord+0x29>
    1ca2:	50                   	push   %eax
    1ca3:	50                   	push   %eax
    1ca4:	56                   	push   %esi
    1ca5:	68 78 70 00 00       	push   $0x7078
    1caa:	e8 81 76 00 00       	call   9330 <printf@plt>
    1caf:	83 c4 10             	add    $0x10,%esp
    1cb2:	8d 65 f4             	lea    -0xc(%ebp),%esp
    1cb5:	be 01 00 00 00       	mov    $0x1,%esi
    1cba:	89 f0                	mov    %esi,%eax
    1cbc:	5b                   	pop    %ebx
    1cbd:	5e                   	pop    %esi
    1cbe:	5f                   	pop    %edi
    1cbf:	5d                   	pop    %ebp
    1cc0:	c3                   	ret    
    1cc1:	8d b4 26 00 00 00 00 	lea    0x0(%esi,%eiz,1),%esi
    1cc8:	50                   	push   %eax
    1cc9:	50                   	push   %eax
    1cca:	8b 45 a0             	mov    -0x60(%ebp),%eax
    1ccd:	8d 7d a4             	lea    -0x5c(%ebp),%edi
    1cd0:	50                   	push   %eax
    1cd1:	68 65 74 00 00       	push   $0x7465
    1cd6:	e8 55 76 00 00       	call   9330 <printf@plt>
    1cdb:	58                   	pop    %eax
    1cdc:	8b 45 a0             	mov    -0x60(%ebp),%eax
    1cdf:	50                   	push   %eax
    1ce0:	e8 6b 7a 00 00       	call   9750 <free@plt>
    1ce5:	83 c4 0c             	add    $0xc,%esp
    1ce8:	8d 45 a8             	lea    -0x58(%ebp),%eax
    1ceb:	c7 45 a4 00 00 00 00 	movl   $0x0,-0x5c(%ebp)
    1cf2:	c7 45 a8 00 00 00 00 	movl   $0x0,-0x58(%ebp)
    1cf9:	50                   	push   %eax
    1cfa:	c7 45 b0 00 00 00 00 	movl   $0x0,-0x50(%ebp)
    1d01:	57                   	push   %edi
    1d02:	c7 45 b4 00 00 00 00 	movl   $0x0,-0x4c(%ebp)
    1d09:	53                   	push   %ebx
    1d0a:	89 5d b8             	mov    %ebx,-0x48(%ebp)
    1d0d:	e8 8e 34 00 00       	call   51a0 <audio_pcm_get_buffer>
    1d12:	83 c4 10             	add    $0x10,%esp
    1d15:	89 c6                	mov    %eax,%esi
    1d17:	85 c0                	test   %eax,%eax
    1d19:	0f 85 a1 01 00 00    	jne    1ec0 <drecord+0x2c0>
    1d1f:	50                   	push   %eax
    1d20:	8b 45 a8             	mov    -0x58(%ebp),%eax
    1d23:	50                   	push   %eax
    1d24:	8b 45 a4             	mov    -0x5c(%ebp),%eax
    1d27:	50                   	push   %eax
    1d28:	68 c6 6e 00 00       	push   $0x6ec6
    1d2d:	e8 fe 75 00 00       	call   9330 <printf@plt>
    1d32:	8b 4d 0c             	mov    0xc(%ebp),%ecx
    1d35:	58                   	pop    %eax
    1d36:	5a                   	pop    %edx
    1d37:	68 77 74 00 00       	push   $0x7477
    1d3c:	51                   	push   %ecx
    1d3d:	e8 3e 78 00 00       	call   9580 <fopen@plt>
    1d42:	83 c4 10             	add    $0x10,%esp
    1d45:	89 45 b4             	mov    %eax,-0x4c(%ebp)
    1d48:	85 c0                	test   %eax,%eax
    1d4a:	0f 84 d0 01 00 00    	je     1f20 <drecord+0x320>
    1d50:	6a 00                	push   $0x0
    1d52:	6a 00                	push   $0x0
    1d54:	6a 2c                	push   $0x2c
    1d56:	50                   	push   %eax
    1d57:	e8 94 77 00 00       	call   94f0 <fseek@plt>
    1d5c:	8b 4d b8             	mov    -0x48(%ebp),%ecx
    1d5f:	58                   	pop    %eax
    1d60:	5a                   	pop    %edx
    1d61:	6a 04                	push   $0x4
    1d63:	51                   	push   %ecx
    1d64:	e8 47 31 00 00       	call   4eb0 <audio_pcm_query_cap>
    1d69:	83 c4 10             	add    $0x10,%esp
    1d6c:	85 c0                	test   %eax,%eax
    1d6e:	0f 8e 94 01 00 00    	jle    1f08 <drecord+0x308>
    1d74:	8b 45 b8             	mov    -0x48(%ebp),%eax
    1d77:	85 c0                	test   %eax,%eax
    1d79:	0f 84 df 01 00 00    	je     1f5e <drecord+0x35e>
    1d7f:	52                   	push   %edx
    1d80:	57                   	push   %edi
    1d81:	68 10 1b 00 00       	push   $0x1b10
    1d86:	50                   	push   %eax
    1d87:	e8 34 33 00 00       	call   50c0 <audio_pcm_register_event_callback>
    1d8c:	83 c4 10             	add    $0x10,%esp
    1d8f:	85 c0                	test   %eax,%eax
    1d91:	0f 85 a9 01 00 00    	jne    1f40 <drecord+0x340>
    1d97:	8b 45 a4             	mov    -0x5c(%ebp),%eax
    1d9a:	6a 02                	push   $0x2
    1d9c:	89 45 b0             	mov    %eax,-0x50(%ebp)
    1d9f:	68 85 6f 00 00       	push   $0x6f85
    1da4:	68 44 ac 00 00       	push   $0xac44
    1da9:	68 ec 74 00 00       	push   $0x74ec
    1dae:	e8 7d 75 00 00       	call   9330 <printf@plt>
    1db3:	8b 45 a8             	mov    -0x58(%ebp),%eax
    1db6:	c1 e8 04             	shr    $0x4,%eax
    1db9:	8b 7d b8             	mov    -0x48(%ebp),%edi
    1dbc:	83 c0 03             	add    $0x3,%eax
    1dbf:	c7 04 24 04 00 00 00 	movl   $0x4,(%esp)
    1dc6:	c1 e8 02             	shr    $0x2,%eax
    1dc9:	68 44 ac 00 00       	push   $0xac44
    1dce:	6a 02                	push   $0x2
    1dd0:	50                   	push   %eax
    1dd1:	57                   	push   %edi
    1dd2:	e8 d9 36 00 00       	call   54b0 <audio_pcm_start_capture_fragment>
    1dd7:	83 c4 20             	add    $0x20,%esp
    1dda:	85 c0                	test   %eax,%eax
    1ddc:	0f 85 06 01 00 00    	jne    1ee8 <drecord+0x2e8>
    1de2:	e8 f9 77 00 00       	call   95e0 <getchar@plt>
    1de7:	83 ec 0c             	sub    $0xc,%esp
    1dea:	68 5a 79 00 00       	push   $0x795a
    1def:	e8 3c 75 00 00       	call   9330 <printf@plt>
    1df4:	8b 7d b8             	mov    -0x48(%ebp),%edi
    1df7:	59                   	pop    %ecx
    1df8:	57                   	push   %edi
    1df9:	e8 72 38 00 00       	call   5670 <audio_pcm_stop_capture>
    1dfe:	c7 04 24 34 75 00 00 	movl   $0x7534,(%esp)
    1e05:	e8 26 75 00 00       	call   9330 <printf@plt>
    1e0a:	c7 04 24 40 42 0f 00 	movl   $0xf4240,(%esp)
    1e11:	e8 ea 77 00 00       	call   9600 <async_usleep@plt>
    1e16:	c7 04 24 8c 74 00 00 	movl   $0x748c,(%esp)
    1e1d:	e8 0e 75 00 00       	call   9330 <printf@plt>
    1e22:	83 c4 10             	add    $0x10,%esp
    1e25:	83 ec 0c             	sub    $0xc,%esp
    1e28:	8b 45 b4             	mov    -0x4c(%ebp),%eax
    1e2b:	8d 7d bc             	lea    -0x44(%ebp),%edi
    1e2e:	50                   	push   %eax
    1e2f:	e8 7c 77 00 00       	call   95b0 <ftell@plt>
    1e34:	83 e8 2c             	sub    $0x2c,%eax
    1e37:	89 04 24             	mov    %eax,(%esp)
    1e3a:	a1 84 75 00 00       	mov    0x7584,%eax
    1e3f:	50                   	push   %eax
    1e40:	a1 80 75 00 00       	mov    0x7580,%eax
    1e45:	50                   	push   %eax
    1e46:	a1 7c 75 00 00       	mov    0x757c,%eax
    1e4b:	50                   	push   %eax
    1e4c:	57                   	push   %edi
    1e4d:	e8 5e 0a 00 00       	call   28b0 <wav_init_header>
    1e52:	83 c4 20             	add    $0x20,%esp
    1e55:	8b 45 b4             	mov    -0x4c(%ebp),%eax
    1e58:	6a 00                	push   $0x0
    1e5a:	6a 00                	push   $0x0
    1e5c:	6a 00                	push   $0x0
    1e5e:	50                   	push   %eax
    1e5f:	e8 8c 76 00 00       	call   94f0 <fseek@plt>
    1e64:	8b 55 b4             	mov    -0x4c(%ebp),%edx
    1e67:	52                   	push   %edx
    1e68:	6a 01                	push   $0x1
    1e6a:	6a 2c                	push   $0x2c
    1e6c:	57                   	push   %edi
    1e6d:	e8 3e 78 00 00       	call   96b0 <fwrite@plt>
    1e72:	83 c4 20             	add    $0x20,%esp
    1e75:	83 ec 0c             	sub    $0xc,%esp
    1e78:	8b 45 b4             	mov    -0x4c(%ebp),%eax
    1e7b:	50                   	push   %eax
    1e7c:	e8 4f 77 00 00       	call   95d0 <fclose@plt>
    1e81:	8b 4d a4             	mov    -0x5c(%ebp),%ecx
    1e84:	5a                   	pop    %edx
    1e85:	51                   	push   %ecx
    1e86:	e8 95 75 00 00       	call   9420 <as_area_destroy@plt>
    1e8b:	8b 45 b8             	mov    -0x48(%ebp),%eax
    1e8e:	5f                   	pop    %edi
    1e8f:	50                   	push   %eax
    1e90:	e8 bb 33 00 00       	call   5250 <audio_pcm_release_buffer>
    1e95:	83 c4 10             	add    $0x10,%esp
    1e98:	e9 dd fd ff ff       	jmp    1c7a <drecord+0x7a>
    1e9d:	8d 76 00             	lea    0x0(%esi),%esi
    1ea0:	50                   	push   %eax
    1ea1:	50                   	push   %eax
    1ea2:	56                   	push   %esi
    1ea3:	68 a0 74 00 00       	push   $0x74a0
    1ea8:	be 01 00 00 00       	mov    $0x1,%esi
    1ead:	e8 7e 74 00 00       	call   9330 <printf@plt>
    1eb2:	83 c4 10             	add    $0x10,%esp
    1eb5:	e9 c0 fd ff ff       	jmp    1c7a <drecord+0x7a>
    1eba:	8d b6 00 00 00 00    	lea    0x0(%esi),%esi
    1ec0:	83 ec 0c             	sub    $0xc,%esp
    1ec3:	50                   	push   %eax
    1ec4:	e8 d7 77 00 00       	call   96a0 <str_error@plt>
    1ec9:	5e                   	pop    %esi
    1eca:	5f                   	pop    %edi
    1ecb:	50                   	push   %eax
    1ecc:	68 c4 70 00 00       	push   $0x70c4
    1ed1:	be 01 00 00 00       	mov    $0x1,%esi
    1ed6:	e8 55 74 00 00       	call   9330 <printf@plt>
    1edb:	83 c4 10             	add    $0x10,%esp
    1ede:	e9 97 fd ff ff       	jmp    1c7a <drecord+0x7a>
    1ee3:	90                   	nop
    1ee4:	8d 74 26 00          	lea    0x0(%esi,%eiz,1),%esi
    1ee8:	83 ec 0c             	sub    $0xc,%esp
    1eeb:	50                   	push   %eax
    1eec:	e8 af 77 00 00       	call   96a0 <str_error@plt>
    1ef1:	5a                   	pop    %edx
    1ef2:	59                   	pop    %ecx
    1ef3:	50                   	push   %eax
    1ef4:	68 14 75 00 00       	push   $0x7514
    1ef9:	e8 32 74 00 00       	call   9330 <printf@plt>
    1efe:	83 c4 10             	add    $0x10,%esp
    1f01:	e9 1f ff ff ff       	jmp    1e25 <drecord+0x225>
    1f06:	66 90                	xchg   %ax,%ax
    1f08:	83 ec 0c             	sub    $0xc,%esp
    1f0b:	68 58 75 00 00       	push   $0x7558
    1f10:	e8 1b 74 00 00       	call   9330 <printf@plt>
    1f15:	83 c4 10             	add    $0x10,%esp
    1f18:	e9 08 ff ff ff       	jmp    1e25 <drecord+0x225>
    1f1d:	8d 76 00             	lea    0x0(%esi),%esi
    1f20:	8b 7d 0c             	mov    0xc(%ebp),%edi
    1f23:	56                   	push   %esi
    1f24:	56                   	push   %esi
    1f25:	57                   	push   %edi
    1f26:	68 da 6e 00 00       	push   $0x6eda
    1f2b:	be 01 00 00 00       	mov    $0x1,%esi
    1f30:	e8 fb 73 00 00       	call   9330 <printf@plt>
    1f35:	83 c4 10             	add    $0x10,%esp
    1f38:	e9 38 ff ff ff       	jmp    1e75 <drecord+0x275>
    1f3d:	8d 76 00             	lea    0x0(%esi),%esi
    1f40:	83 ec 0c             	sub    $0xc,%esp
    1f43:	50                   	push   %eax
    1f44:	e8 57 77 00 00       	call   96a0 <str_error@plt>
    1f49:	5a                   	pop    %edx
    1f4a:	59                   	pop    %ecx
    1f4b:	50                   	push   %eax
    1f4c:	68 c8 74 00 00       	push   $0x74c8
    1f51:	e8 da 73 00 00       	call   9330 <printf@plt>
    1f56:	83 c4 10             	add    $0x10,%esp
    1f59:	e9 c7 fe ff ff       	jmp    1e25 <drecord+0x225>
    1f5e:	51                   	push   %ecx
    1f5f:	68 8c 00 00 00       	push   $0x8c
    1f64:	68 79 74 00 00       	push   $0x7479
    1f69:	68 80 74 00 00       	push   $0x7480
    1f6e:	e8 2d 75 00 00       	call   94a0 <assert_abort@plt>
    1f73:	66 90                	xchg   %ax,%ax
    1f75:	66 90                	xchg   %ax,%ax
    1f77:	66 90                	xchg   %ax,%ax
    1f79:	66 90                	xchg   %ax,%ax
    1f7b:	66 90                	xchg   %ax,%ax
    1f7d:	66 90                	xchg   %ax,%ax
    1f7f:	90                   	nop

00001f80 <print_help>:
    1f80:	55                   	push   %ebp
    1f81:	89 e5                	mov    %esp,%ebp
    1f83:	83 ec 10             	sub    $0x10,%esp
    1f86:	50                   	push   %eax
    1f87:	68 88 75 00 00       	push   $0x7588
    1f8c:	e8 9f 73 00 00       	call   9330 <printf@plt>
    1f91:	c7 04 24 cc 78 00 00 	movl   $0x78cc,(%esp)
    1f98:	e8 93 73 00 00       	call   9330 <printf@plt>
    1f9d:	c7 04 24 b0 75 00 00 	movl   $0x75b0,(%esp)
    1fa4:	e8 87 73 00 00       	call   9330 <printf@plt>
    1fa9:	c7 04 24 d0 75 00 00 	movl   $0x75d0,(%esp)
    1fb0:	e8 7b 73 00 00       	call   9330 <printf@plt>
    1fb5:	c7 04 24 18 76 00 00 	movl   $0x7618,(%esp)
    1fbc:	e8 6f 73 00 00       	call   9330 <printf@plt>
    1fc1:	c7 04 24 8c 76 00 00 	movl   $0x768c,(%esp)
    1fc8:	e8 63 73 00 00       	call   9330 <printf@plt>
    1fcd:	83 c4 10             	add    $0x10,%esp
    1fd0:	c9                   	leave  
    1fd1:	c3                   	ret    
    1fd2:	8d b4 26 00 00 00 00 	lea    0x0(%esi,%eiz,1),%esi
    1fd9:	8d bc 27 00 00 00 00 	lea    0x0(%edi,%eiz,1),%edi

00001fe0 <play_wrapper>:
    1fe0:	55                   	push   %ebp
    1fe1:	89 e5                	mov    %esp,%ebp
    1fe3:	57                   	push   %edi
    1fe4:	56                   	push   %esi
    1fe5:	53                   	push   %ebx
    1fe6:	83 ec 5c             	sub    $0x5c,%esp
    1fe9:	8b 5d 08             	mov    0x8(%ebp),%ebx
    1fec:	85 db                	test   %ebx,%ebx
    1fee:	0f 84 e6 01 00 00    	je     21da <play_wrapper+0x1fa>
    1ff4:	8b 45 08             	mov    0x8(%ebp),%eax
    1ff7:	8b 58 08             	mov    0x8(%eax),%ebx
    1ffa:	8b 00                	mov    (%eax),%eax
    1ffc:	89 45 a0             	mov    %eax,-0x60(%ebp)
    1fff:	57                   	push   %edi
    2000:	57                   	push   %edi
    2001:	53                   	push   %ebx
    2002:	68 eb 78 00 00       	push   $0x78eb
    2007:	e8 24 73 00 00       	call   9330 <printf@plt>
    200c:	58                   	pop    %eax
    200d:	5a                   	pop    %edx
    200e:	68 d7 6e 00 00       	push   $0x6ed7
    2013:	53                   	push   %ebx
    2014:	e8 67 75 00 00       	call   9580 <fopen@plt>
    2019:	83 c4 10             	add    $0x10,%esp
    201c:	89 c6                	mov    %eax,%esi
    201e:	85 c0                	test   %eax,%eax
    2020:	0f 84 80 01 00 00    	je     21a6 <play_wrapper+0x1c6>
    2026:	8d 7d bc             	lea    -0x44(%ebp),%edi
    2029:	50                   	push   %eax
    202a:	6a 01                	push   $0x1
    202c:	6a 2c                	push   $0x2c
    202e:	57                   	push   %edi
    202f:	e8 2c 75 00 00       	call   9560 <fread@plt>
    2034:	83 c4 10             	add    $0x10,%esp
    2037:	83 f8 01             	cmp    $0x1,%eax
    203a:	0f 85 1e 01 00 00    	jne    215e <play_wrapper+0x17e>
    2040:	8d 45 ac             	lea    -0x54(%ebp),%eax
    2043:	51                   	push   %ecx
    2044:	8d 4d b8             	lea    -0x48(%ebp),%ecx
    2047:	50                   	push   %eax
    2048:	8d 45 b0             	lea    -0x50(%ebp),%eax
    204b:	51                   	push   %ecx
    204c:	8d 4d b4             	lea    -0x4c(%ebp),%ecx
    204f:	51                   	push   %ecx
    2050:	50                   	push   %eax
    2051:	6a 00                	push   $0x0
    2053:	6a 00                	push   $0x0
    2055:	57                   	push   %edi
    2056:	e8 65 06 00 00       	call   26c0 <wav_parse_header>
    205b:	83 c4 20             	add    $0x20,%esp
    205e:	89 45 a4             	mov    %eax,-0x5c(%ebp)
    2061:	85 c0                	test   %eax,%eax
    2063:	0f 85 16 01 00 00    	jne    217f <play_wrapper+0x19f>
    2069:	8b 55 b8             	mov    -0x48(%ebp),%edx
    206c:	b8 63 6e 00 00       	mov    $0x6e63,%eax
    2071:	83 fa 12             	cmp    $0x12,%edx
    2074:	0f 86 b6 00 00 00    	jbe    2130 <play_wrapper+0x150>
    207a:	83 ec 0c             	sub    $0xc,%esp
    207d:	50                   	push   %eax
    207e:	8b 45 b4             	mov    -0x4c(%ebp),%eax
    2081:	50                   	push   %eax
    2082:	8b 45 b0             	mov    -0x50(%ebp),%eax
    2085:	50                   	push   %eax
    2086:	53                   	push   %ebx
    2087:	68 34 77 00 00       	push   $0x7734
    208c:	e8 9f 72 00 00       	call   9330 <printf@plt>
    2091:	83 c4 14             	add    $0x14,%esp
    2094:	68 00 80 00 00       	push   $0x8000
    2099:	e8 32 73 00 00       	call   93d0 <malloc@plt>
    209e:	83 c4 10             	add    $0x10,%esp
    20a1:	89 c3                	mov    %eax,%ebx
    20a3:	85 c0                	test   %eax,%eax
    20a5:	0f 84 17 01 00 00    	je     21c2 <play_wrapper+0x1e2>
    20ab:	8b 7d b8             	mov    -0x48(%ebp),%edi
    20ae:	8b 45 b4             	mov    -0x4c(%ebp),%eax
    20b1:	51                   	push   %ecx
    20b2:	51                   	push   %ecx
    20b3:	68 00 00 01 00       	push   $0x10000
    20b8:	57                   	push   %edi
    20b9:	50                   	push   %eax
    20ba:	8b 45 b0             	mov    -0x50(%ebp),%eax
    20bd:	50                   	push   %eax
    20be:	8b 45 a0             	mov    -0x60(%ebp),%eax
    20c1:	6a 01                	push   $0x1
    20c3:	50                   	push   %eax
    20c4:	e8 37 0e 00 00       	call   2f00 <hound_stream_create>
    20c9:	83 c4 20             	add    $0x20,%esp
    20cc:	89 c7                	mov    %eax,%edi
    20ce:	eb 10                	jmp    20e0 <play_wrapper+0x100>
    20d0:	52                   	push   %edx
    20d1:	50                   	push   %eax
    20d2:	53                   	push   %ebx
    20d3:	57                   	push   %edi
    20d4:	e8 87 0f 00 00       	call   3060 <hound_stream_write>
    20d9:	83 c4 10             	add    $0x10,%esp
    20dc:	85 c0                	test   %eax,%eax
    20de:	75 60                	jne    2140 <play_wrapper+0x160>
    20e0:	56                   	push   %esi
    20e1:	68 00 80 00 00       	push   $0x8000
    20e6:	6a 01                	push   $0x1
    20e8:	53                   	push   %ebx
    20e9:	e8 72 74 00 00       	call   9560 <fread@plt>
    20ee:	83 c4 10             	add    $0x10,%esp
    20f1:	85 c0                	test   %eax,%eax
    20f3:	75 db                	jne    20d0 <play_wrapper+0xf0>
    20f5:	83 ec 0c             	sub    $0xc,%esp
    20f8:	53                   	push   %ebx
    20f9:	e8 52 76 00 00       	call   9750 <free@plt>
    20fe:	89 34 24             	mov    %esi,(%esp)
    2101:	e8 ca 74 00 00       	call   95d0 <fclose@plt>
    2106:	83 c4 10             	add    $0x10,%esp
    2109:	8b 45 08             	mov    0x8(%ebp),%eax
    210c:	8b 40 04             	mov    0x4(%eax),%eax
    210f:	f0 ff 08             	lock decl (%eax)
    2112:	83 ec 0c             	sub    $0xc,%esp
    2115:	8b 45 08             	mov    0x8(%ebp),%eax
    2118:	50                   	push   %eax
    2119:	e8 32 76 00 00       	call   9750 <free@plt>
    211e:	8b 45 a4             	mov    -0x5c(%ebp),%eax
    2121:	8d 65 f4             	lea    -0xc(%ebp),%esp
    2124:	5b                   	pop    %ebx
    2125:	5e                   	pop    %esi
    2126:	5f                   	pop    %edi
    2127:	5d                   	pop    %ebp
    2128:	c3                   	ret    
    2129:	8d b4 26 00 00 00 00 	lea    0x0(%esi,%eiz,1),%esi
    2130:	8b 04 95 c0 79 00 00 	mov    0x79c0(,%edx,4),%eax
    2137:	e9 3e ff ff ff       	jmp    207a <play_wrapper+0x9a>
    213c:	8d 74 26 00          	lea    0x0(%esi,%eiz,1),%esi
    2140:	83 ec 0c             	sub    $0xc,%esp
    2143:	89 45 a4             	mov    %eax,-0x5c(%ebp)
    2146:	50                   	push   %eax
    2147:	e8 54 75 00 00       	call   96a0 <str_error@plt>
    214c:	5a                   	pop    %edx
    214d:	59                   	pop    %ecx
    214e:	50                   	push   %eax
    214f:	68 60 77 00 00       	push   $0x7760
    2154:	e8 d7 71 00 00       	call   9330 <printf@plt>
    2159:	83 c4 10             	add    $0x10,%esp
    215c:	eb 97                	jmp    20f5 <play_wrapper+0x115>
    215e:	53                   	push   %ebx
    215f:	53                   	push   %ebx
    2160:	50                   	push   %eax
    2161:	68 f0 76 00 00       	push   $0x76f0
    2166:	e8 c5 71 00 00       	call   9330 <printf@plt>
    216b:	89 34 24             	mov    %esi,(%esp)
    216e:	e8 5d 74 00 00       	call   95d0 <fclose@plt>
    2173:	83 c4 10             	add    $0x10,%esp
    2176:	c7 45 a4 f6 fe ff ff 	movl   $0xfffffef6,-0x5c(%ebp)
    217d:	eb 8a                	jmp    2109 <play_wrapper+0x129>
    217f:	8b 55 ac             	mov    -0x54(%ebp),%edx
    2182:	50                   	push   %eax
    2183:	52                   	push   %edx
    2184:	53                   	push   %ebx
    2185:	68 10 77 00 00       	push   $0x7710
    218a:	e8 a1 71 00 00       	call   9330 <printf@plt>
    218f:	89 34 24             	mov    %esi,(%esp)
    2192:	e8 39 74 00 00       	call   95d0 <fclose@plt>
    2197:	83 c4 10             	add    $0x10,%esp
    219a:	c7 45 a4 f2 ff ff ff 	movl   $0xfffffff2,-0x5c(%ebp)
    21a1:	e9 63 ff ff ff       	jmp    2109 <play_wrapper+0x129>
    21a6:	56                   	push   %esi
    21a7:	56                   	push   %esi
    21a8:	53                   	push   %ebx
    21a9:	68 07 79 00 00       	push   $0x7907
    21ae:	e8 7d 71 00 00       	call   9330 <printf@plt>
    21b3:	83 c4 10             	add    $0x10,%esp
    21b6:	c7 45 a4 f2 ff ff ff 	movl   $0xfffffff2,-0x5c(%ebp)
    21bd:	e9 47 ff ff ff       	jmp    2109 <play_wrapper+0x129>
    21c2:	83 ec 0c             	sub    $0xc,%esp
    21c5:	56                   	push   %esi
    21c6:	e8 05 74 00 00       	call   95d0 <fclose@plt>
    21cb:	83 c4 10             	add    $0x10,%esp
    21ce:	c7 45 a4 fe ff ff ff 	movl   $0xfffffffe,-0x5c(%ebp)
    21d5:	e9 2f ff ff ff       	jmp    2109 <play_wrapper+0x129>
    21da:	51                   	push   %ecx
    21db:	68 c9 00 00 00       	push   $0xc9
    21e0:	68 e0 78 00 00       	push   $0x78e0
    21e5:	68 e7 78 00 00       	push   $0x78e7
    21ea:	e8 b1 72 00 00       	call   94a0 <assert_abort@plt>
    21ef:	90                   	nop

000021f0 <main>:
    21f0:	8d 4c 24 04          	lea    0x4(%esp),%ecx
    21f4:	83 e4 f0             	and    $0xfffffff0,%esp
    21f7:	ff 71 fc             	pushl  -0x4(%ecx)
    21fa:	55                   	push   %ebp
    21fb:	89 e5                	mov    %esp,%ebp
    21fd:	57                   	push   %edi
    21fe:	56                   	push   %esi
    21ff:	53                   	push   %ebx
    2200:	51                   	push   %ecx
    2201:	8d 5d a4             	lea    -0x5c(%ebp),%ebx
    2204:	83 ec 78             	sub    $0x78,%esp
    2207:	c7 45 a4 00 00 00 00 	movl   $0x0,-0x5c(%ebp)
    220e:	8b 01                	mov    (%ecx),%eax
    2210:	c7 05 64 b5 00 00 00 	movl   $0x0,0xb564
    2217:	00 00 00 
    221a:	89 45 90             	mov    %eax,-0x70(%ebp)
    221d:	8b 41 04             	mov    0x4(%ecx),%eax
    2220:	89 45 94             	mov    %eax,-0x6c(%ebp)
    2223:	c6 45 8d 00          	movb   $0x0,-0x73(%ebp)
    2227:	c6 45 8e 00          	movb   $0x0,-0x72(%ebp)
    222b:	c6 45 8f 00          	movb   $0x0,-0x71(%ebp)
    222f:	c7 45 88 79 6e 00 00 	movl   $0x6e79,-0x78(%ebp)
    2236:	83 ec 0c             	sub    $0xc,%esp
    2239:	8b 45 94             	mov    -0x6c(%ebp),%eax
    223c:	53                   	push   %ebx
    223d:	68 20 7a 00 00       	push   $0x7a20
    2242:	68 1f 79 00 00       	push   $0x791f
    2247:	50                   	push   %eax
    2248:	8b 45 90             	mov    -0x70(%ebp),%eax
    224b:	50                   	push   %eax
    224c:	e8 0f 71 00 00       	call   9360 <getopt_long@plt>
    2251:	83 c4 20             	add    $0x20,%esp
    2254:	83 f8 68             	cmp    $0x68,%eax
    2257:	0f 84 db 00 00 00    	je     2338 <main+0x148>
    225d:	7e 19                	jle    2278 <main+0x88>
    225f:	83 f8 70             	cmp    $0x70,%eax
    2262:	0f 84 e8 00 00 00    	je     2350 <main+0x160>
    2268:	83 f8 72             	cmp    $0x72,%eax
    226b:	75 23                	jne    2290 <main+0xa0>
    226d:	c6 45 8e 01          	movb   $0x1,-0x72(%ebp)
    2271:	eb c3                	jmp    2236 <main+0x46>
    2273:	90                   	nop
    2274:	8d 74 26 00          	lea    0x0(%esi,%eiz,1),%esi
    2278:	83 f8 64             	cmp    $0x64,%eax
    227b:	75 13                	jne    2290 <main+0xa0>
    227d:	a1 60 b5 00 00       	mov    0xb560,%eax
    2282:	c6 45 8f 01          	movb   $0x1,-0x71(%ebp)
    2286:	89 45 88             	mov    %eax,-0x78(%ebp)
    2289:	eb ab                	jmp    2236 <main+0x46>
    228b:	90                   	nop
    228c:	8d 74 26 00          	lea    0x0(%esi,%eiz,1),%esi
    2290:	40                   	inc    %eax
    2291:	75 a3                	jne    2236 <main+0x46>
    2293:	80 7d 8f 00          	cmpb   $0x0,-0x71(%ebp)
    2297:	74 0a                	je     22a3 <main+0xb3>
    2299:	80 7d 8d 00          	cmpb   $0x0,-0x73(%ebp)
    229d:	0f 85 32 03 00 00    	jne    25d5 <main+0x3e5>
    22a3:	8b 45 90             	mov    -0x70(%ebp),%eax
    22a6:	3b 05 64 b5 00 00    	cmp    0xb564,%eax
    22ac:	0f 84 65 03 00 00    	je     2617 <main+0x427>
    22b2:	c7 45 a8 00 00 00 00 	movl   $0x0,-0x58(%ebp)
    22b9:	c7 45 80 00 00 00 00 	movl   $0x0,-0x80(%ebp)
    22c0:	80 7d 8d 00          	cmpb   $0x0,-0x73(%ebp)
    22c4:	0f 85 9d 02 00 00    	jne    2567 <main+0x377>
    22ca:	a1 64 b5 00 00       	mov    0xb564,%eax
    22cf:	89 45 84             	mov    %eax,-0x7c(%ebp)
    22d2:	8b 75 90             	mov    -0x70(%ebp),%esi
    22d5:	39 75 84             	cmp    %esi,-0x7c(%ebp)
    22d8:	0f 8d fc 00 00 00    	jge    23da <main+0x1ea>
    22de:	8b 7d 84             	mov    -0x7c(%ebp),%edi
    22e1:	8b 75 94             	mov    -0x6c(%ebp),%esi
    22e4:	a1 64 b5 00 00       	mov    0xb564,%eax
    22e9:	8b 55 90             	mov    -0x70(%ebp),%edx
    22ec:	8b 1c be             	mov    (%esi,%edi,4),%ebx
    22ef:	29 c7                	sub    %eax,%edi
    22f1:	29 c2                	sub    %eax,%edx
    22f3:	89 f8                	mov    %edi,%eax
    22f5:	40                   	inc    %eax
    22f6:	80 7d 8e 00          	cmpb   $0x0,-0x72(%ebp)
    22fa:	74 5d                	je     2359 <main+0x169>
    22fc:	83 ec 0c             	sub    $0xc,%esp
    22ff:	53                   	push   %ebx
    2300:	52                   	push   %edx
    2301:	50                   	push   %eax
    2302:	68 70 79 00 00       	push   $0x7970
    2307:	68 7a 79 00 00       	push   $0x797a
    230c:	e8 1f 70 00 00       	call   9330 <printf@plt>
    2311:	83 c4 20             	add    $0x20,%esp
    2314:	80 7d 8f 00          	cmpb   $0x0,-0x71(%ebp)
    2318:	0f 84 ac 00 00 00    	je     23ca <main+0x1da>
    231e:	57                   	push   %edi
    231f:	57                   	push   %edi
    2320:	53                   	push   %ebx
    2321:	ff 75 88             	pushl  -0x78(%ebp)
    2324:	e8 d7 f8 ff ff       	call   1c00 <drecord>
    2329:	83 c4 10             	add    $0x10,%esp
    232c:	ff 45 84             	incl   -0x7c(%ebp)
    232f:	eb a1                	jmp    22d2 <main+0xe2>
    2331:	8d b4 26 00 00 00 00 	lea    0x0(%esi,%eiz,1),%esi
    2338:	8b 45 94             	mov    -0x6c(%ebp),%eax
    233b:	8b 00                	mov    (%eax),%eax
    233d:	e8 3e fc ff ff       	call   1f80 <print_help>
    2342:	31 c0                	xor    %eax,%eax
    2344:	8d 65 f0             	lea    -0x10(%ebp),%esp
    2347:	59                   	pop    %ecx
    2348:	5b                   	pop    %ebx
    2349:	5e                   	pop    %esi
    234a:	5f                   	pop    %edi
    234b:	5d                   	pop    %ebp
    234c:	8d 61 fc             	lea    -0x4(%ecx),%esp
    234f:	c3                   	ret    
    2350:	c6 45 8d 01          	movb   $0x1,-0x73(%ebp)
    2354:	e9 dd fe ff ff       	jmp    2236 <main+0x46>
    2359:	83 ec 0c             	sub    $0xc,%esp
    235c:	53                   	push   %ebx
    235d:	52                   	push   %edx
    235e:	50                   	push   %eax
    235f:	68 89 79 00 00       	push   $0x7989
    2364:	68 7a 79 00 00       	push   $0x797a
    2369:	e8 c2 6f 00 00       	call   9330 <printf@plt>
    236e:	83 c4 20             	add    $0x20,%esp
    2371:	80 7d 8f 00          	cmpb   $0x0,-0x71(%ebp)
    2375:	0f 85 cd 01 00 00    	jne    2548 <main+0x358>
    237b:	80 7d 8d 00          	cmpb   $0x0,-0x73(%ebp)
    237f:	0f 84 95 00 00 00    	je     241a <main+0x22a>
    2385:	83 ec 0c             	sub    $0xc,%esp
    2388:	6a 0c                	push   $0xc
    238a:	e8 41 70 00 00       	call   93d0 <malloc@plt>
    238f:	83 c4 10             	add    $0x10,%esp
    2392:	85 c0                	test   %eax,%eax
    2394:	0f 84 a5 02 00 00    	je     263f <main+0x44f>
    239a:	8d 55 a8             	lea    -0x58(%ebp),%edx
    239d:	89 58 08             	mov    %ebx,0x8(%eax)
    23a0:	89 50 04             	mov    %edx,0x4(%eax)
    23a3:	8b 55 80             	mov    -0x80(%ebp),%edx
    23a6:	89 10                	mov    %edx,(%eax)
    23a8:	52                   	push   %edx
    23a9:	6a 00                	push   $0x0
    23ab:	50                   	push   %eax
    23ac:	68 e0 1f 00 00       	push   $0x1fe0
    23b1:	e8 6a 73 00 00       	call   9720 <fibril_create_generic@plt>
    23b6:	f0 ff 45 a8          	lock incl -0x58(%ebp)
    23ba:	89 04 24             	mov    %eax,(%esp)
    23bd:	e8 6e 73 00 00       	call   9730 <fibril_add_ready@plt>
    23c2:	83 c4 10             	add    $0x10,%esp
    23c5:	e9 62 ff ff ff       	jmp    232c <main+0x13c>
    23ca:	83 ec 0c             	sub    $0xc,%esp
    23cd:	68 28 78 00 00       	push   $0x7828
    23d2:	e8 59 6f 00 00       	call   9330 <printf@plt>
    23d7:	83 c4 10             	add    $0x10,%esp
    23da:	8b 45 a8             	mov    -0x58(%ebp),%eax
    23dd:	85 c0                	test   %eax,%eax
    23df:	74 1e                	je     23ff <main+0x20f>
    23e1:	8d b4 26 00 00 00 00 	lea    0x0(%esi,%eiz,1),%esi
    23e8:	83 ec 0c             	sub    $0xc,%esp
    23eb:	68 40 42 0f 00       	push   $0xf4240
    23f0:	e8 0b 72 00 00       	call   9600 <async_usleep@plt>
    23f5:	8b 45 a8             	mov    -0x58(%ebp),%eax
    23f8:	83 c4 10             	add    $0x10,%esp
    23fb:	85 c0                	test   %eax,%eax
    23fd:	75 e9                	jne    23e8 <main+0x1f8>
    23ff:	83 7d 80 00          	cmpl   $0x0,-0x80(%ebp)
    2403:	74 0e                	je     2413 <main+0x223>
    2405:	83 ec 0c             	sub    $0xc,%esp
    2408:	ff 75 80             	pushl  -0x80(%ebp)
    240b:	e8 80 07 00 00       	call   2b90 <hound_context_destroy>
    2410:	83 c4 10             	add    $0x10,%esp
    2413:	31 c0                	xor    %eax,%eax
    2415:	e9 2a ff ff ff       	jmp    2344 <main+0x154>
    241a:	56                   	push   %esi
    241b:	56                   	push   %esi
    241c:	53                   	push   %ebx
    241d:	68 5c 79 00 00       	push   $0x795c
    2422:	e8 09 6f 00 00       	call   9330 <printf@plt>
    2427:	5f                   	pop    %edi
    2428:	58                   	pop    %eax
    2429:	68 d7 6e 00 00       	push   $0x6ed7
    242e:	53                   	push   %ebx
    242f:	e8 4c 71 00 00       	call   9580 <fopen@plt>
    2434:	83 c4 10             	add    $0x10,%esp
    2437:	89 85 7c ff ff ff    	mov    %eax,-0x84(%ebp)
    243d:	85 c0                	test   %eax,%eax
    243f:	0f 84 60 02 00 00    	je     26a5 <main+0x4b5>
    2445:	ff b5 7c ff ff ff    	pushl  -0x84(%ebp)
    244b:	8d 45 bc             	lea    -0x44(%ebp),%eax
    244e:	6a 01                	push   $0x1
    2450:	6a 2c                	push   $0x2c
    2452:	50                   	push   %eax
    2453:	e8 08 71 00 00       	call   9560 <fread@plt>
    2458:	83 c4 10             	add    $0x10,%esp
    245b:	83 f8 01             	cmp    $0x1,%eax
    245e:	0f 85 f0 01 00 00    	jne    2654 <main+0x464>
    2464:	50                   	push   %eax
    2465:	8d 45 ac             	lea    -0x54(%ebp),%eax
    2468:	50                   	push   %eax
    2469:	8d 45 b8             	lea    -0x48(%ebp),%eax
    246c:	50                   	push   %eax
    246d:	8d 45 b4             	lea    -0x4c(%ebp),%eax
    2470:	50                   	push   %eax
    2471:	8d 75 b0             	lea    -0x50(%ebp),%esi
    2474:	8d 45 bc             	lea    -0x44(%ebp),%eax
    2477:	56                   	push   %esi
    2478:	6a 00                	push   $0x0
    247a:	6a 00                	push   $0x0
    247c:	50                   	push   %eax
    247d:	e8 3e 02 00 00       	call   26c0 <wav_parse_header>
    2482:	83 c4 20             	add    $0x20,%esp
    2485:	85 c0                	test   %eax,%eax
    2487:	0f 85 02 02 00 00    	jne    268f <main+0x49f>
    248d:	8b 55 b8             	mov    -0x48(%ebp),%edx
    2490:	b8 63 6e 00 00       	mov    $0x6e63,%eax
    2495:	83 fa 12             	cmp    $0x12,%edx
    2498:	0f 86 bd 00 00 00    	jbe    255b <main+0x36b>
    249e:	83 ec 0c             	sub    $0xc,%esp
    24a1:	50                   	push   %eax
    24a2:	ff 75 b4             	pushl  -0x4c(%ebp)
    24a5:	ff 75 b0             	pushl  -0x50(%ebp)
    24a8:	53                   	push   %ebx
    24a9:	68 34 77 00 00       	push   $0x7734
    24ae:	e8 7d 6e 00 00       	call   9330 <printf@plt>
    24b3:	83 c4 14             	add    $0x14,%esp
    24b6:	68 00 00 01 00       	push   $0x10000
    24bb:	b9 03 00 00 00       	mov    $0x3,%ecx
    24c0:	83 ec 0c             	sub    $0xc,%esp
    24c3:	89 e7                	mov    %esp,%edi
    24c5:	f3 a5                	rep movsl %ds:(%esi),%es:(%edi)
    24c7:	53                   	push   %ebx
    24c8:	e8 c3 04 00 00       	call   2990 <hound_context_create_playback>
    24cd:	83 c4 20             	add    $0x20,%esp
    24d0:	89 c3                	mov    %eax,%ebx
    24d2:	85 c0                	test   %eax,%eax
    24d4:	0f 84 c1 01 00 00    	je     269b <main+0x4ab>
    24da:	56                   	push   %esi
    24db:	56                   	push   %esi
    24dc:	68 79 6e 00 00       	push   $0x6e79
    24e1:	50                   	push   %eax
    24e2:	e8 89 08 00 00       	call   2d70 <hound_context_connect_target>
    24e7:	83 c4 10             	add    $0x10,%esp
    24ea:	85 c0                	test   %eax,%eax
    24ec:	0f 85 2f 01 00 00    	jne    2621 <main+0x431>
    24f2:	8b b5 7c ff ff ff    	mov    -0x84(%ebp),%esi
    24f8:	eb 18                	jmp    2512 <main+0x322>
    24fa:	57                   	push   %edi
    24fb:	50                   	push   %eax
    24fc:	68 80 b5 00 00       	push   $0xb580
    2501:	53                   	push   %ebx
    2502:	e8 29 0c 00 00       	call   3130 <hound_write_main_stream>
    2507:	83 c4 10             	add    $0x10,%esp
    250a:	85 c0                	test   %eax,%eax
    250c:	0f 85 e7 00 00 00    	jne    25f9 <main+0x409>
    2512:	56                   	push   %esi
    2513:	68 00 80 00 00       	push   $0x8000
    2518:	6a 01                	push   $0x1
    251a:	68 80 b5 00 00       	push   $0xb580
    251f:	e8 3c 70 00 00       	call   9560 <fread@plt>
    2524:	83 c4 10             	add    $0x10,%esp
    2527:	85 c0                	test   %eax,%eax
    2529:	75 cf                	jne    24fa <main+0x30a>
    252b:	83 ec 0c             	sub    $0xc,%esp
    252e:	53                   	push   %ebx
    252f:	e8 5c 06 00 00       	call   2b90 <hound_context_destroy>
    2534:	58                   	pop    %eax
    2535:	ff b5 7c ff ff ff    	pushl  -0x84(%ebp)
    253b:	e8 90 70 00 00       	call   95d0 <fclose@plt>
    2540:	83 c4 10             	add    $0x10,%esp
    2543:	e9 e4 fd ff ff       	jmp    232c <main+0x13c>
    2548:	56                   	push   %esi
    2549:	56                   	push   %esi
    254a:	53                   	push   %ebx
    254b:	ff 75 88             	pushl  -0x78(%ebp)
    254e:	e8 4d ed ff ff       	call   12a0 <dplay>
    2553:	83 c4 10             	add    $0x10,%esp
    2556:	e9 d1 fd ff ff       	jmp    232c <main+0x13c>
    255b:	8b 04 95 c0 79 00 00 	mov    0x79c0(,%edx,4),%eax
    2562:	e9 37 ff ff ff       	jmp    249e <main+0x2ae>
    2567:	83 ec 0c             	sub    $0xc,%esp
    256a:	be 38 90 00 00       	mov    $0x9038,%esi
    256f:	b9 03 00 00 00       	mov    $0x3,%ecx
    2574:	68 00 00 01 00       	push   $0x10000
    2579:	83 ec 0c             	sub    $0xc,%esp
    257c:	89 e7                	mov    %esp,%edi
    257e:	f3 a5                	rep movsl %ds:(%esi),%es:(%edi)
    2580:	68 3c 79 00 00       	push   $0x793c
    2585:	e8 06 04 00 00       	call   2990 <hound_context_create_playback>
    258a:	83 c4 20             	add    $0x20,%esp
    258d:	89 45 80             	mov    %eax,-0x80(%ebp)
    2590:	85 c0                	test   %eax,%eax
    2592:	0f 84 dd 00 00 00    	je     2675 <main+0x485>
    2598:	50                   	push   %eax
    2599:	50                   	push   %eax
    259a:	68 79 6e 00 00       	push   $0x6e79
    259f:	ff 75 80             	pushl  -0x80(%ebp)
    25a2:	e8 c9 07 00 00       	call   2d70 <hound_context_connect_target>
    25a7:	83 c4 10             	add    $0x10,%esp
    25aa:	85 c0                	test   %eax,%eax
    25ac:	0f 84 18 fd ff ff    	je     22ca <main+0xda>
    25b2:	83 ec 0c             	sub    $0xc,%esp
    25b5:	68 f4 77 00 00       	push   $0x77f4
    25ba:	e8 71 6d 00 00       	call   9330 <printf@plt>
    25bf:	58                   	pop    %eax
    25c0:	ff 75 80             	pushl  -0x80(%ebp)
    25c3:	e8 c8 05 00 00       	call   2b90 <hound_context_destroy>
    25c8:	83 c4 10             	add    $0x10,%esp
    25cb:	b8 01 00 00 00       	mov    $0x1,%eax
    25d0:	e9 6f fd ff ff       	jmp    2344 <main+0x154>
    25d5:	83 ec 0c             	sub    $0xc,%esp
    25d8:	68 88 77 00 00       	push   $0x7788
    25dd:	e8 4e 6d 00 00       	call   9330 <printf@plt>
    25e2:	8b 45 94             	mov    -0x6c(%ebp),%eax
    25e5:	8b 00                	mov    (%eax),%eax
    25e7:	e8 94 f9 ff ff       	call   1f80 <print_help>
    25ec:	83 c4 10             	add    $0x10,%esp
    25ef:	b8 01 00 00 00       	mov    $0x1,%eax
    25f4:	e9 4b fd ff ff       	jmp    2344 <main+0x154>
    25f9:	83 ec 0c             	sub    $0xc,%esp
    25fc:	50                   	push   %eax
    25fd:	e8 9e 70 00 00       	call   96a0 <str_error@plt>
    2602:	5a                   	pop    %edx
    2603:	59                   	pop    %ecx
    2604:	50                   	push   %eax
    2605:	68 a0 78 00 00       	push   $0x78a0
    260a:	e8 21 6d 00 00       	call   9330 <printf@plt>
    260f:	83 c4 10             	add    $0x10,%esp
    2612:	e9 14 ff ff ff       	jmp    252b <main+0x33b>
    2617:	83 ec 0c             	sub    $0xc,%esp
    261a:	68 25 79 00 00       	push   $0x7925
    261f:	eb bc                	jmp    25dd <main+0x3ed>
    2621:	83 ec 0c             	sub    $0xc,%esp
    2624:	50                   	push   %eax
    2625:	e8 76 70 00 00       	call   96a0 <str_error@plt>
    262a:	5a                   	pop    %edx
    262b:	59                   	pop    %ecx
    262c:	50                   	push   %eax
    262d:	68 74 78 00 00       	push   $0x7874
    2632:	e8 f9 6c 00 00       	call   9330 <printf@plt>
    2637:	89 1c 24             	mov    %ebx,(%esp)
    263a:	e9 f0 fe ff ff       	jmp    252f <main+0x33f>
    263f:	51                   	push   %ecx
    2640:	51                   	push   %ecx
    2641:	53                   	push   %ebx
    2642:	68 44 79 00 00       	push   $0x7944
    2647:	e8 e4 6c 00 00       	call   9330 <printf@plt>
    264c:	83 c4 10             	add    $0x10,%esp
    264f:	e9 d8 fc ff ff       	jmp    232c <main+0x13c>
    2654:	52                   	push   %edx
    2655:	52                   	push   %edx
    2656:	50                   	push   %eax
    2657:	68 f0 76 00 00       	push   $0x76f0
    265c:	e8 cf 6c 00 00       	call   9330 <printf@plt>
    2661:	5f                   	pop    %edi
    2662:	ff b5 7c ff ff ff    	pushl  -0x84(%ebp)
    2668:	e8 63 6f 00 00       	call   95d0 <fclose@plt>
    266d:	83 c4 10             	add    $0x10,%esp
    2670:	e9 b7 fc ff ff       	jmp    232c <main+0x13c>
    2675:	83 ec 0c             	sub    $0xc,%esp
    2678:	68 cc 77 00 00       	push   $0x77cc
    267d:	e8 ae 6c 00 00       	call   9330 <printf@plt>
    2682:	83 c4 10             	add    $0x10,%esp
    2685:	b8 01 00 00 00       	mov    $0x1,%eax
    268a:	e9 b5 fc ff ff       	jmp    2344 <main+0x154>
    268f:	50                   	push   %eax
    2690:	ff 75 ac             	pushl  -0x54(%ebp)
    2693:	53                   	push   %ebx
    2694:	68 10 77 00 00       	push   $0x7710
    2699:	eb c1                	jmp    265c <main+0x46c>
    269b:	83 ec 0c             	sub    $0xc,%esp
    269e:	68 54 78 00 00       	push   $0x7854
    26a3:	eb b7                	jmp    265c <main+0x46c>
    26a5:	51                   	push   %ecx
    26a6:	51                   	push   %ecx
    26a7:	53                   	push   %ebx
    26a8:	68 07 79 00 00       	push   $0x7907
    26ad:	e8 7e 6c 00 00       	call   9330 <printf@plt>
    26b2:	83 c4 10             	add    $0x10,%esp
    26b5:	e9 72 fc ff ff       	jmp    232c <main+0x13c>
    26ba:	66 90                	xchg   %ax,%ax
    26bc:	66 90                	xchg   %ax,%ax
    26be:	66 90                	xchg   %ax,%ax

000026c0 <wav_parse_header>:
    26c0:	55                   	push   %ebp
    26c1:	89 e5                	mov    %esp,%ebp
    26c3:	57                   	push   %edi
    26c4:	56                   	push   %esi
    26c5:	53                   	push   %ebx
    26c6:	83 ec 1c             	sub    $0x1c,%esp
    26c9:	8b 5d 08             	mov    0x8(%ebp),%ebx
    26cc:	8b 75 20             	mov    0x20(%ebp),%esi
    26cf:	85 db                	test   %ebx,%ebx
    26d1:	74 6d                	je     2740 <wav_parse_header+0x80>
    26d3:	50                   	push   %eax
    26d4:	6a 04                	push   $0x4
    26d6:	68 7a 7a 00 00       	push   $0x7a7a
    26db:	53                   	push   %ebx
    26dc:	e8 8f 6f 00 00       	call   9670 <str_lcmp@plt>
    26e1:	83 c4 10             	add    $0x10,%esp
    26e4:	85 c0                	test   %eax,%eax
    26e6:	74 20                	je     2708 <wav_parse_header+0x48>
    26e8:	85 f6                	test   %esi,%esi
    26ea:	74 5e                	je     274a <wav_parse_header+0x8a>
    26ec:	c7 06 7f 7a 00 00    	movl   $0x7a7f,(%esi)
    26f2:	bf f2 ff ff ff       	mov    $0xfffffff2,%edi
    26f7:	8d 65 f4             	lea    -0xc(%ebp),%esp
    26fa:	89 f8                	mov    %edi,%eax
    26fc:	5b                   	pop    %ebx
    26fd:	5e                   	pop    %esi
    26fe:	5f                   	pop    %edi
    26ff:	5d                   	pop    %ebp
    2700:	c3                   	ret    
    2701:	8d b4 26 00 00 00 00 	lea    0x0(%esi,%eiz,1),%esi
    2708:	50                   	push   %eax
    2709:	8d 43 08             	lea    0x8(%ebx),%eax
    270c:	6a 04                	push   $0x4
    270e:	68 90 7a 00 00       	push   $0x7a90
    2713:	50                   	push   %eax
    2714:	e8 57 6f 00 00       	call   9670 <str_lcmp@plt>
    2719:	83 c4 10             	add    $0x10,%esp
    271c:	85 c0                	test   %eax,%eax
    271e:	74 40                	je     2760 <wav_parse_header+0xa0>
    2720:	85 f6                	test   %esi,%esi
    2722:	74 26                	je     274a <wav_parse_header+0x8a>
    2724:	c7 06 95 7a 00 00    	movl   $0x7a95,(%esi)
    272a:	8d 65 f4             	lea    -0xc(%ebp),%esp
    272d:	bf f2 ff ff ff       	mov    $0xfffffff2,%edi
    2732:	5b                   	pop    %ebx
    2733:	89 f8                	mov    %edi,%eax
    2735:	5e                   	pop    %esi
    2736:	5f                   	pop    %edi
    2737:	5d                   	pop    %ebp
    2738:	c3                   	ret    
    2739:	8d b4 26 00 00 00 00 	lea    0x0(%esi,%eiz,1),%esi
    2740:	85 f6                	test   %esi,%esi
    2742:	74 06                	je     274a <wav_parse_header+0x8a>
    2744:	c7 06 70 7a 00 00    	movl   $0x7a70,(%esi)
    274a:	8d 65 f4             	lea    -0xc(%ebp),%esp
    274d:	bf f2 ff ff ff       	mov    $0xfffffff2,%edi
    2752:	89 f8                	mov    %edi,%eax
    2754:	5b                   	pop    %ebx
    2755:	5e                   	pop    %esi
    2756:	5f                   	pop    %edi
    2757:	5d                   	pop    %ebp
    2758:	c3                   	ret    
    2759:	8d b4 26 00 00 00 00 	lea    0x0(%esi,%eiz,1),%esi
    2760:	50                   	push   %eax
    2761:	8d 43 0c             	lea    0xc(%ebx),%eax
    2764:	6a 04                	push   $0x4
    2766:	68 ab 7a 00 00       	push   $0x7aab
    276b:	50                   	push   %eax
    276c:	e8 ff 6e 00 00       	call   9670 <str_lcmp@plt>
    2771:	83 c4 10             	add    $0x10,%esp
    2774:	89 c7                	mov    %eax,%edi
    2776:	85 c0                	test   %eax,%eax
    2778:	75 36                	jne    27b0 <wav_parse_header+0xf0>
    277a:	85 f6                	test   %esi,%esi
    277c:	0f 95 c2             	setne  %dl
    277f:	83 7b 10 10          	cmpl   $0x10,0x10(%ebx)
    2783:	74 0a                	je     278f <wav_parse_header+0xcf>
    2785:	84 d2                	test   %dl,%dl
    2787:	74 06                	je     278f <wav_parse_header+0xcf>
    2789:	c7 06 c5 7a 00 00    	movl   $0x7ac5,(%esi)
    278f:	66 83 7b 14 01       	cmpw   $0x1,0x14(%ebx)
    2794:	74 2e                	je     27c4 <wav_parse_header+0x104>
    2796:	85 f6                	test   %esi,%esi
    2798:	0f 84 c8 00 00 00    	je     2866 <wav_parse_header+0x1a6>
    279e:	c7 06 dc 7a 00 00    	movl   $0x7adc,(%esi)
    27a4:	bf f5 ff ff ff       	mov    $0xfffffff5,%edi
    27a9:	e9 49 ff ff ff       	jmp    26f7 <wav_parse_header+0x37>
    27ae:	66 90                	xchg   %ax,%ax
    27b0:	85 f6                	test   %esi,%esi
    27b2:	74 96                	je     274a <wav_parse_header+0x8a>
    27b4:	c7 06 b0 7a 00 00    	movl   $0x7ab0,(%esi)
    27ba:	bf f2 ff ff ff       	mov    $0xfffffff2,%edi
    27bf:	e9 33 ff ff ff       	jmp    26f7 <wav_parse_header+0x37>
    27c4:	50                   	push   %eax
    27c5:	8d 43 24             	lea    0x24(%ebx),%eax
    27c8:	6a 04                	push   $0x4
    27ca:	88 55 e7             	mov    %dl,-0x19(%ebp)
    27cd:	68 eb 7a 00 00       	push   $0x7aeb
    27d2:	50                   	push   %eax
    27d3:	e8 98 6e 00 00       	call   9670 <str_lcmp@plt>
    27d8:	83 c4 10             	add    $0x10,%esp
    27db:	85 c0                	test   %eax,%eax
    27dd:	74 0d                	je     27ec <wav_parse_header+0x12c>
    27df:	8a 55 e7             	mov    -0x19(%ebp),%dl
    27e2:	84 d2                	test   %dl,%dl
    27e4:	74 06                	je     27ec <wav_parse_header+0x12c>
    27e6:	c7 06 f0 7a 00 00    	movl   $0x7af0,(%esi)
    27ec:	8b 45 0c             	mov    0xc(%ebp),%eax
    27ef:	85 c0                	test   %eax,%eax
    27f1:	74 08                	je     27fb <wav_parse_header+0x13b>
    27f3:	8b 4d 0c             	mov    0xc(%ebp),%ecx
    27f6:	8d 43 2c             	lea    0x2c(%ebx),%eax
    27f9:	89 01                	mov    %eax,(%ecx)
    27fb:	8b 45 10             	mov    0x10(%ebp),%eax
    27fe:	85 c0                	test   %eax,%eax
    2800:	74 08                	je     280a <wav_parse_header+0x14a>
    2802:	8b 4d 10             	mov    0x10(%ebp),%ecx
    2805:	8b 43 28             	mov    0x28(%ebx),%eax
    2808:	89 01                	mov    %eax,(%ecx)
    280a:	8b 4d 18             	mov    0x18(%ebp),%ecx
    280d:	85 c9                	test   %ecx,%ecx
    280f:	74 08                	je     2819 <wav_parse_header+0x159>
    2811:	8b 4d 18             	mov    0x18(%ebp),%ecx
    2814:	8b 43 18             	mov    0x18(%ebx),%eax
    2817:	89 01                	mov    %eax,(%ecx)
    2819:	8b 55 14             	mov    0x14(%ebp),%edx
    281c:	85 d2                	test   %edx,%edx
    281e:	74 0b                	je     282b <wav_parse_header+0x16b>
    2820:	31 c0                	xor    %eax,%eax
    2822:	8b 4d 14             	mov    0x14(%ebp),%ecx
    2825:	66 8b 43 16          	mov    0x16(%ebx),%ax
    2829:	89 01                	mov    %eax,(%ecx)
    282b:	8b 45 1c             	mov    0x1c(%ebp),%eax
    282e:	85 c0                	test   %eax,%eax
    2830:	74 21                	je     2853 <wav_parse_header+0x193>
    2832:	66 8b 43 22          	mov    0x22(%ebx),%ax
    2836:	66 83 f8 10          	cmp    $0x10,%ax
    283a:	74 45                	je     2881 <wav_parse_header+0x1c1>
    283c:	76 32                	jbe    2870 <wav_parse_header+0x1b0>
    283e:	66 83 f8 18          	cmp    $0x18,%ax
    2842:	74 58                	je     289c <wav_parse_header+0x1dc>
    2844:	66 83 f8 20          	cmp    $0x20,%ax
    2848:	75 42                	jne    288c <wav_parse_header+0x1cc>
    284a:	8b 45 1c             	mov    0x1c(%ebp),%eax
    284d:	c7 00 10 00 00 00    	movl   $0x10,(%eax)
    2853:	85 f6                	test   %esi,%esi
    2855:	0f 84 9c fe ff ff    	je     26f7 <wav_parse_header+0x37>
    285b:	c7 06 14 7b 00 00    	movl   $0x7b14,(%esi)
    2861:	e9 91 fe ff ff       	jmp    26f7 <wav_parse_header+0x37>
    2866:	bf f5 ff ff ff       	mov    $0xfffffff5,%edi
    286b:	e9 87 fe ff ff       	jmp    26f7 <wav_parse_header+0x37>
    2870:	66 83 f8 08          	cmp    $0x8,%ax
    2874:	75 16                	jne    288c <wav_parse_header+0x1cc>
    2876:	8b 45 1c             	mov    0x1c(%ebp),%eax
    2879:	c7 00 00 00 00 00    	movl   $0x0,(%eax)
    287f:	eb d2                	jmp    2853 <wav_parse_header+0x193>
    2881:	8b 45 1c             	mov    0x1c(%ebp),%eax
    2884:	c7 00 04 00 00 00    	movl   $0x4,(%eax)
    288a:	eb c7                	jmp    2853 <wav_parse_header+0x193>
    288c:	c7 06 05 7b 00 00    	movl   $0x7b05,(%esi)
    2892:	bf f5 ff ff ff       	mov    $0xfffffff5,%edi
    2897:	e9 5b fe ff ff       	jmp    26f7 <wav_parse_header+0x37>
    289c:	8b 45 1c             	mov    0x1c(%ebp),%eax
    289f:	c7 00 08 00 00 00    	movl   $0x8,(%eax)
    28a5:	eb ac                	jmp    2853 <wav_parse_header+0x193>
    28a7:	89 f6                	mov    %esi,%esi
    28a9:	8d bc 27 00 00 00 00 	lea    0x0(%edi,%eiz,1),%edi

000028b0 <wav_init_header>:
    28b0:	55                   	push   %ebp
    28b1:	89 e5                	mov    %esp,%ebp
    28b3:	53                   	push   %ebx
    28b4:	52                   	push   %edx
    28b5:	8b 5d 08             	mov    0x8(%ebp),%ebx
    28b8:	85 db                	test   %ebx,%ebx
    28ba:	0f 84 b6 00 00 00    	je     2976 <wav_init_header+0xc6>
    28c0:	83 ec 0c             	sub    $0xc,%esp
    28c3:	68 7a 7a 00 00       	push   $0x7a7a
    28c8:	e8 93 6d 00 00       	call   9660 <str_size@plt>
    28cd:	83 c4 0c             	add    $0xc,%esp
    28d0:	50                   	push   %eax
    28d1:	68 7a 7a 00 00       	push   $0x7a7a
    28d6:	53                   	push   %ebx
    28d7:	e8 e4 6a 00 00       	call   93c0 <memcpy@plt>
    28dc:	c7 04 24 90 7a 00 00 	movl   $0x7a90,(%esp)
    28e3:	e8 78 6d 00 00       	call   9660 <str_size@plt>
    28e8:	83 c4 0c             	add    $0xc,%esp
    28eb:	50                   	push   %eax
    28ec:	8d 43 08             	lea    0x8(%ebx),%eax
    28ef:	68 90 7a 00 00       	push   $0x7a90
    28f4:	50                   	push   %eax
    28f5:	e8 c6 6a 00 00       	call   93c0 <memcpy@plt>
    28fa:	c7 04 24 ab 7a 00 00 	movl   $0x7aab,(%esp)
    2901:	e8 5a 6d 00 00       	call   9660 <str_size@plt>
    2906:	83 c4 0c             	add    $0xc,%esp
    2909:	50                   	push   %eax
    290a:	8d 43 0c             	lea    0xc(%ebx),%eax
    290d:	68 ab 7a 00 00       	push   $0x7aab
    2912:	50                   	push   %eax
    2913:	e8 a8 6a 00 00       	call   93c0 <memcpy@plt>
    2918:	c7 43 10 10 00 00 00 	movl   $0x10,0x10(%ebx)
    291f:	66 c7 43 14 01 00    	movw   $0x1,0x14(%ebx)
    2925:	c7 04 24 eb 7a 00 00 	movl   $0x7aeb,(%esp)
    292c:	e8 2f 6d 00 00       	call   9660 <str_size@plt>
    2931:	83 c4 0c             	add    $0xc,%esp
    2934:	50                   	push   %eax
    2935:	8d 43 24             	lea    0x24(%ebx),%eax
    2938:	68 eb 7a 00 00       	push   $0x7aeb
    293d:	50                   	push   %eax
    293e:	e8 7d 6a 00 00       	call   93c0 <memcpy@plt>
    2943:	8b 45 18             	mov    0x18(%ebp),%eax
    2946:	89 43 28             	mov    %eax,0x28(%ebx)
    2949:	8b 45 10             	mov    0x10(%ebp),%eax
    294c:	89 43 18             	mov    %eax,0x18(%ebx)
    294f:	8b 55 14             	mov    0x14(%ebp),%edx
    2952:	8b 45 0c             	mov    0xc(%ebp),%eax
    2955:	83 c4 10             	add    $0x10,%esp
    2958:	66 89 43 16          	mov    %ax,0x16(%ebx)
    295c:	31 c0                	xor    %eax,%eax
    295e:	83 fa 12             	cmp    $0x12,%edx
    2961:	77 0a                	ja     296d <wav_init_header+0xbd>
    2963:	8b 04 95 40 7b 00 00 	mov    0x7b40(,%edx,4),%eax
    296a:	c1 e0 03             	shl    $0x3,%eax
    296d:	66 89 43 22          	mov    %ax,0x22(%ebx)
    2971:	8b 5d fc             	mov    -0x4(%ebp),%ebx
    2974:	c9                   	leave  
    2975:	c3                   	ret    
    2976:	50                   	push   %eax
    2977:	68 91 00 00 00       	push   $0x91
    297c:	68 1d 7b 00 00       	push   $0x7b1d
    2981:	68 73 7a 00 00       	push   $0x7a73
    2986:	e8 15 6b 00 00       	call   94a0 <assert_abort@plt>
    298b:	66 90                	xchg   %ax,%ax
    298d:	66 90                	xchg   %ax,%ax
    298f:	90                   	nop

00002990 <hound_context_create_playback>:
    2990:	55                   	push   %ebp
    2991:	89 e5                	mov    %esp,%ebp
    2993:	57                   	push   %edi
    2994:	56                   	push   %esi
    2995:	53                   	push   %ebx
    2996:	83 ec 38             	sub    $0x38,%esp
    2999:	8b 45 14             	mov    0x14(%ebp),%eax
    299c:	8b 7d 0c             	mov    0xc(%ebp),%edi
    299f:	6a 2c                	push   $0x2c
    29a1:	8b 75 10             	mov    0x10(%ebp),%esi
    29a4:	89 45 d0             	mov    %eax,-0x30(%ebp)
    29a7:	e8 24 6a 00 00       	call   93d0 <malloc@plt>
    29ac:	83 c4 10             	add    $0x10,%esp
    29af:	89 45 d4             	mov    %eax,-0x2c(%ebp)
    29b2:	85 c0                	test   %eax,%eax
    29b4:	0f 84 83 00 00 00    	je     2a3d <hound_context_create_playback+0xad>
    29ba:	89 c3                	mov    %eax,%ebx
    29bc:	e8 af 6b 00 00       	call   9570 <task_get_id@plt>
    29c1:	83 ec 0c             	sub    $0xc,%esp
    29c4:	8b 4d 08             	mov    0x8(%ebp),%ecx
    29c7:	51                   	push   %ecx
    29c8:	52                   	push   %edx
    29c9:	50                   	push   %eax
    29ca:	8d 45 e4             	lea    -0x1c(%ebp),%eax
    29cd:	68 8c 7b 00 00       	push   $0x7b8c
    29d2:	50                   	push   %eax
    29d3:	e8 48 6c 00 00       	call   9620 <asprintf@plt>
    29d8:	83 c4 20             	add    $0x20,%esp
    29db:	85 c0                	test   %eax,%eax
    29dd:	0f 88 95 00 00 00    	js     2a78 <hound_context_create_playback+0xe8>
    29e3:	8d 43 0c             	lea    0xc(%ebx),%eax
    29e6:	83 ec 0c             	sub    $0xc,%esp
    29e9:	89 43 0c             	mov    %eax,0xc(%ebx)
    29ec:	89 43 10             	mov    %eax,0x10(%ebx)
    29ef:	8b 45 e4             	mov    -0x1c(%ebp),%eax
    29f2:	c6 43 08 00          	movb   $0x0,0x8(%ebx)
    29f6:	89 43 04             	mov    %eax,0x4(%ebx)
    29f9:	a1 28 b4 00 00       	mov    0xb428,%eax
    29fe:	50                   	push   %eax
    29ff:	e8 dc 0a 00 00       	call   34e0 <hound_service_connect>
    2a04:	8b 4d d0             	mov    -0x30(%ebp),%ecx
    2a07:	8b 55 18             	mov    0x18(%ebp),%edx
    2a0a:	83 c4 10             	add    $0x10,%esp
    2a0d:	89 03                	mov    %eax,(%ebx)
    2a0f:	c7 43 14 00 00 00 00 	movl   $0x0,0x14(%ebx)
    2a16:	89 7b 18             	mov    %edi,0x18(%ebx)
    2a19:	89 73 1c             	mov    %esi,0x1c(%ebx)
    2a1c:	89 4b 20             	mov    %ecx,0x20(%ebx)
    2a1f:	89 53 24             	mov    %edx,0x24(%ebx)
    2a22:	85 c0                	test   %eax,%eax
    2a24:	74 62                	je     2a88 <hound_context_create_playback+0xf8>
    2a26:	56                   	push   %esi
    2a27:	6a 00                	push   $0x0
    2a29:	8b 7b 04             	mov    0x4(%ebx),%edi
    2a2c:	57                   	push   %edi
    2a2d:	50                   	push   %eax
    2a2e:	e8 1d 0b 00 00       	call   3550 <hound_service_register_context>
    2a33:	83 c4 10             	add    $0x10,%esp
    2a36:	89 43 28             	mov    %eax,0x28(%ebx)
    2a39:	85 c0                	test   %eax,%eax
    2a3b:	7e 0b                	jle    2a48 <hound_context_create_playback+0xb8>
    2a3d:	8b 45 d4             	mov    -0x2c(%ebp),%eax
    2a40:	8d 65 f4             	lea    -0xc(%ebp),%esp
    2a43:	5b                   	pop    %ebx
    2a44:	5e                   	pop    %esi
    2a45:	5f                   	pop    %edi
    2a46:	5d                   	pop    %ebp
    2a47:	c3                   	ret    
    2a48:	83 ec 0c             	sub    $0xc,%esp
    2a4b:	8b 13                	mov    (%ebx),%edx
    2a4d:	52                   	push   %edx
    2a4e:	e8 dd 0a 00 00       	call   3530 <hound_service_disconnect>
    2a53:	59                   	pop    %ecx
    2a54:	8b 43 04             	mov    0x4(%ebx),%eax
    2a57:	50                   	push   %eax
    2a58:	e8 f3 6c 00 00       	call   9750 <free@plt>
    2a5d:	89 1c 24             	mov    %ebx,(%esp)
    2a60:	e8 eb 6c 00 00       	call   9750 <free@plt>
    2a65:	83 c4 10             	add    $0x10,%esp
    2a68:	c7 45 d4 00 00 00 00 	movl   $0x0,-0x2c(%ebp)
    2a6f:	eb cc                	jmp    2a3d <hound_context_create_playback+0xad>
    2a71:	8d b4 26 00 00 00 00 	lea    0x0(%esi,%eiz,1),%esi
    2a78:	83 ec 0c             	sub    $0xc,%esp
    2a7b:	53                   	push   %ebx
    2a7c:	e8 cf 6c 00 00       	call   9750 <free@plt>
    2a81:	83 c4 10             	add    $0x10,%esp
    2a84:	eb e2                	jmp    2a68 <hound_context_create_playback+0xd8>
    2a86:	66 90                	xchg   %ax,%ax
    2a88:	83 ec 0c             	sub    $0xc,%esp
    2a8b:	eb c7                	jmp    2a54 <hound_context_create_playback+0xc4>
    2a8d:	8d 76 00             	lea    0x0(%esi),%esi

00002a90 <hound_context_create_capture>:
    2a90:	55                   	push   %ebp
    2a91:	89 e5                	mov    %esp,%ebp
    2a93:	57                   	push   %edi
    2a94:	56                   	push   %esi
    2a95:	53                   	push   %ebx
    2a96:	83 ec 38             	sub    $0x38,%esp
    2a99:	8b 45 14             	mov    0x14(%ebp),%eax
    2a9c:	8b 7d 0c             	mov    0xc(%ebp),%edi
    2a9f:	6a 2c                	push   $0x2c
    2aa1:	8b 75 10             	mov    0x10(%ebp),%esi
    2aa4:	89 45 d0             	mov    %eax,-0x30(%ebp)
    2aa7:	e8 24 69 00 00       	call   93d0 <malloc@plt>
    2aac:	83 c4 10             	add    $0x10,%esp
    2aaf:	89 45 d4             	mov    %eax,-0x2c(%ebp)
    2ab2:	85 c0                	test   %eax,%eax
    2ab4:	0f 84 83 00 00 00    	je     2b3d <hound_context_create_capture+0xad>
    2aba:	89 c3                	mov    %eax,%ebx
    2abc:	e8 af 6a 00 00       	call   9570 <task_get_id@plt>
    2ac1:	83 ec 0c             	sub    $0xc,%esp
    2ac4:	8b 4d 08             	mov    0x8(%ebp),%ecx
    2ac7:	51                   	push   %ecx
    2ac8:	52                   	push   %edx
    2ac9:	50                   	push   %eax
    2aca:	8d 45 e4             	lea    -0x1c(%ebp),%eax
    2acd:	68 8c 7b 00 00       	push   $0x7b8c
    2ad2:	50                   	push   %eax
    2ad3:	e8 48 6b 00 00       	call   9620 <asprintf@plt>
    2ad8:	83 c4 20             	add    $0x20,%esp
    2adb:	85 c0                	test   %eax,%eax
    2add:	0f 88 95 00 00 00    	js     2b78 <hound_context_create_capture+0xe8>
    2ae3:	8d 43 0c             	lea    0xc(%ebx),%eax
    2ae6:	83 ec 0c             	sub    $0xc,%esp
    2ae9:	89 43 0c             	mov    %eax,0xc(%ebx)
    2aec:	89 43 10             	mov    %eax,0x10(%ebx)
    2aef:	8b 45 e4             	mov    -0x1c(%ebp),%eax
    2af2:	c6 43 08 01          	movb   $0x1,0x8(%ebx)
    2af6:	89 43 04             	mov    %eax,0x4(%ebx)
    2af9:	a1 28 b4 00 00       	mov    0xb428,%eax
    2afe:	50                   	push   %eax
    2aff:	e8 dc 09 00 00       	call   34e0 <hound_service_connect>
    2b04:	8b 4d d0             	mov    -0x30(%ebp),%ecx
    2b07:	8b 55 18             	mov    0x18(%ebp),%edx
    2b0a:	83 c4 10             	add    $0x10,%esp
    2b0d:	89 03                	mov    %eax,(%ebx)
    2b0f:	c7 43 14 00 00 00 00 	movl   $0x0,0x14(%ebx)
    2b16:	89 7b 18             	mov    %edi,0x18(%ebx)
    2b19:	89 73 1c             	mov    %esi,0x1c(%ebx)
    2b1c:	89 4b 20             	mov    %ecx,0x20(%ebx)
    2b1f:	89 53 24             	mov    %edx,0x24(%ebx)
    2b22:	85 c0                	test   %eax,%eax
    2b24:	74 62                	je     2b88 <hound_context_create_capture+0xf8>
    2b26:	56                   	push   %esi
    2b27:	6a 01                	push   $0x1
    2b29:	8b 7b 04             	mov    0x4(%ebx),%edi
    2b2c:	57                   	push   %edi
    2b2d:	50                   	push   %eax
    2b2e:	e8 1d 0a 00 00       	call   3550 <hound_service_register_context>
    2b33:	83 c4 10             	add    $0x10,%esp
    2b36:	89 43 28             	mov    %eax,0x28(%ebx)
    2b39:	85 c0                	test   %eax,%eax
    2b3b:	7e 0b                	jle    2b48 <hound_context_create_capture+0xb8>
    2b3d:	8b 45 d4             	mov    -0x2c(%ebp),%eax
    2b40:	8d 65 f4             	lea    -0xc(%ebp),%esp
    2b43:	5b                   	pop    %ebx
    2b44:	5e                   	pop    %esi
    2b45:	5f                   	pop    %edi
    2b46:	5d                   	pop    %ebp
    2b47:	c3                   	ret    
    2b48:	83 ec 0c             	sub    $0xc,%esp
    2b4b:	8b 13                	mov    (%ebx),%edx
    2b4d:	52                   	push   %edx
    2b4e:	e8 dd 09 00 00       	call   3530 <hound_service_disconnect>
    2b53:	59                   	pop    %ecx
    2b54:	8b 43 04             	mov    0x4(%ebx),%eax
    2b57:	50                   	push   %eax
    2b58:	e8 f3 6b 00 00       	call   9750 <free@plt>
    2b5d:	89 1c 24             	mov    %ebx,(%esp)
    2b60:	e8 eb 6b 00 00       	call   9750 <free@plt>
    2b65:	83 c4 10             	add    $0x10,%esp
    2b68:	c7 45 d4 00 00 00 00 	movl   $0x0,-0x2c(%ebp)
    2b6f:	eb cc                	jmp    2b3d <hound_context_create_capture+0xad>
    2b71:	8d b4 26 00 00 00 00 	lea    0x0(%esi,%eiz,1),%esi
    2b78:	83 ec 0c             	sub    $0xc,%esp
    2b7b:	53                   	push   %ebx
    2b7c:	e8 cf 6b 00 00       	call   9750 <free@plt>
    2b81:	83 c4 10             	add    $0x10,%esp
    2b84:	eb e2                	jmp    2b68 <hound_context_create_capture+0xd8>
    2b86:	66 90                	xchg   %ax,%ax
    2b88:	83 ec 0c             	sub    $0xc,%esp
    2b8b:	eb c7                	jmp    2b54 <hound_context_create_capture+0xc4>
    2b8d:	8d 76 00             	lea    0x0(%esi),%esi

00002b90 <hound_context_destroy>:
    2b90:	55                   	push   %ebp
    2b91:	89 e5                	mov    %esp,%ebp
    2b93:	57                   	push   %edi
    2b94:	56                   	push   %esi
    2b95:	53                   	push   %ebx
    2b96:	83 ec 0c             	sub    $0xc,%esp
    2b99:	8b 75 08             	mov    0x8(%ebp),%esi
    2b9c:	85 f6                	test   %esi,%esi
    2b9e:	0f 84 af 00 00 00    	je     2c53 <hound_context_destroy+0xc3>
    2ba4:	8d 7e 0c             	lea    0xc(%esi),%edi
    2ba7:	eb 4d                	jmp    2bf6 <hound_context_destroy+0x66>
    2ba9:	8d b4 26 00 00 00 00 	lea    0x0(%esi,%eiz,1),%esi
    2bb0:	83 ec 0c             	sub    $0xc,%esp
    2bb3:	8b 43 14             	mov    0x14(%ebx),%eax
    2bb6:	50                   	push   %eax
    2bb7:	e8 64 10 00 00       	call   3c20 <hound_service_stream_exit>
    2bbc:	58                   	pop    %eax
    2bbd:	8b 43 14             	mov    0x14(%ebx),%eax
    2bc0:	50                   	push   %eax
    2bc1:	e8 ba 68 00 00       	call   9480 <async_exchange_end@plt>
    2bc6:	8b 13                	mov    (%ebx),%edx
    2bc8:	83 c4 10             	add    $0x10,%esp
    2bcb:	85 d2                	test   %edx,%edx
    2bcd:	74 0e                	je     2bdd <hound_context_destroy+0x4d>
    2bcf:	8b 43 04             	mov    0x4(%ebx),%eax
    2bd2:	85 c0                	test   %eax,%eax
    2bd4:	74 07                	je     2bdd <hound_context_destroy+0x4d>
    2bd6:	89 10                	mov    %edx,(%eax)
    2bd8:	8b 13                	mov    (%ebx),%edx
    2bda:	89 42 04             	mov    %eax,0x4(%edx)
    2bdd:	83 ec 0c             	sub    $0xc,%esp
    2be0:	c7 03 00 00 00 00    	movl   $0x0,(%ebx)
    2be6:	c7 43 04 00 00 00 00 	movl   $0x0,0x4(%ebx)
    2bed:	53                   	push   %ebx
    2bee:	e8 5d 6b 00 00       	call   9750 <free@plt>
    2bf3:	83 c4 10             	add    $0x10,%esp
    2bf6:	8b 5e 10             	mov    0x10(%esi),%ebx
    2bf9:	39 df                	cmp    %ebx,%edi
    2bfb:	74 23                	je     2c20 <hound_context_destroy+0x90>
    2bfd:	85 db                	test   %ebx,%ebx
    2bff:	74 17                	je     2c18 <hound_context_destroy+0x88>
    2c01:	f6 43 1c 01          	testb  $0x1,0x1c(%ebx)
    2c05:	74 a9                	je     2bb0 <hound_context_destroy+0x20>
    2c07:	83 ec 0c             	sub    $0xc,%esp
    2c0a:	8b 43 14             	mov    0x14(%ebx),%eax
    2c0d:	50                   	push   %eax
    2c0e:	e8 3d 10 00 00       	call   3c50 <hound_service_stream_drain>
    2c13:	83 c4 10             	add    $0x10,%esp
    2c16:	eb 98                	jmp    2bb0 <hound_context_destroy+0x20>
    2c18:	eb fe                	jmp    2c18 <hound_context_destroy+0x88>
    2c1a:	8d b6 00 00 00 00    	lea    0x0(%esi),%esi
    2c20:	50                   	push   %eax
    2c21:	50                   	push   %eax
    2c22:	8b 56 28             	mov    0x28(%esi),%edx
    2c25:	52                   	push   %edx
    2c26:	8b 0e                	mov    (%esi),%ecx
    2c28:	51                   	push   %ecx
    2c29:	e8 12 0a 00 00       	call   3640 <hound_service_unregister_context>
    2c2e:	8b 3e                	mov    (%esi),%edi
    2c30:	5b                   	pop    %ebx
    2c31:	57                   	push   %edi
    2c32:	e8 f9 08 00 00       	call   3530 <hound_service_disconnect>
    2c37:	58                   	pop    %eax
    2c38:	8b 46 04             	mov    0x4(%esi),%eax
    2c3b:	50                   	push   %eax
    2c3c:	e8 0f 6b 00 00       	call   9750 <free@plt>
    2c41:	89 75 08             	mov    %esi,0x8(%ebp)
    2c44:	83 c4 10             	add    $0x10,%esp
    2c47:	8d 65 f4             	lea    -0xc(%ebp),%esp
    2c4a:	5b                   	pop    %ebx
    2c4b:	5e                   	pop    %esi
    2c4c:	5f                   	pop    %edi
    2c4d:	5d                   	pop    %ebp
    2c4e:	e9 fd 6a 00 00       	jmp    9750 <free@plt>
    2c53:	52                   	push   %edx
    2c54:	68 ad 00 00 00       	push   $0xad
    2c59:	68 94 7b 00 00       	push   $0x7b94
    2c5e:	68 f4 7b 00 00       	push   $0x7bf4
    2c63:	e8 38 68 00 00       	call   94a0 <assert_abort@plt>
    2c68:	90                   	nop
    2c69:	8d b4 26 00 00 00 00 	lea    0x0(%esi,%eiz,1),%esi

00002c70 <hound_context_get_available_targets>:
    2c70:	55                   	push   %ebp
    2c71:	89 e5                	mov    %esp,%ebp
    2c73:	53                   	push   %ebx
    2c74:	50                   	push   %eax
    2c75:	8b 55 08             	mov    0x8(%ebp),%edx
    2c78:	8b 4d 0c             	mov    0xc(%ebp),%ecx
    2c7b:	8b 5d 10             	mov    0x10(%ebp),%ebx
    2c7e:	85 d2                	test   %edx,%edx
    2c80:	74 29                	je     2cab <hound_context_get_available_targets+0x3b>
    2c82:	85 c9                	test   %ecx,%ecx
    2c84:	74 4f                	je     2cd5 <hound_context_get_available_targets+0x65>
    2c86:	85 db                	test   %ebx,%ebx
    2c88:	74 36                	je     2cc0 <hound_context_get_available_targets+0x50>
    2c8a:	80 7a 08 01          	cmpb   $0x1,0x8(%edx)
    2c8e:	19 c0                	sbb    %eax,%eax
    2c90:	83 ec 0c             	sub    $0xc,%esp
    2c93:	83 e0 fa             	and    $0xfffffffa,%eax
    2c96:	83 c0 08             	add    $0x8,%eax
    2c99:	6a 00                	push   $0x0
    2c9b:	50                   	push   %eax
    2c9c:	53                   	push   %ebx
    2c9d:	51                   	push   %ecx
    2c9e:	8b 02                	mov    (%edx),%eax
    2ca0:	50                   	push   %eax
    2ca1:	e8 0a 0a 00 00       	call   36b0 <hound_service_get_list>
    2ca6:	8b 5d fc             	mov    -0x4(%ebp),%ebx
    2ca9:	c9                   	leave  
    2caa:	c3                   	ret    
    2cab:	53                   	push   %ebx
    2cac:	68 c7 00 00 00       	push   $0xc7
    2cb1:	68 94 7b 00 00       	push   $0x7b94
    2cb6:	68 f4 7b 00 00       	push   $0x7bf4
    2cbb:	e8 e0 67 00 00       	call   94a0 <assert_abort@plt>
    2cc0:	52                   	push   %edx
    2cc1:	68 c9 00 00 00       	push   $0xc9
    2cc6:	68 94 7b 00 00       	push   $0x7b94
    2ccb:	68 a7 7b 00 00       	push   $0x7ba7
    2cd0:	e8 cb 67 00 00       	call   94a0 <assert_abort@plt>
    2cd5:	51                   	push   %ecx
    2cd6:	68 c8 00 00 00       	push   $0xc8
    2cdb:	68 94 7b 00 00       	push   $0x7b94
    2ce0:	68 a1 7b 00 00       	push   $0x7ba1
    2ce5:	e8 b6 67 00 00       	call   94a0 <assert_abort@plt>
    2cea:	8d b6 00 00 00 00    	lea    0x0(%esi),%esi

00002cf0 <hound_context_get_connected_targets>:
    2cf0:	55                   	push   %ebp
    2cf1:	89 e5                	mov    %esp,%ebp
    2cf3:	53                   	push   %ebx
    2cf4:	50                   	push   %eax
    2cf5:	8b 55 08             	mov    0x8(%ebp),%edx
    2cf8:	8b 4d 0c             	mov    0xc(%ebp),%ecx
    2cfb:	8b 5d 10             	mov    0x10(%ebp),%ebx
    2cfe:	85 d2                	test   %edx,%edx
    2d00:	74 2a                	je     2d2c <hound_context_get_connected_targets+0x3c>
    2d02:	85 c9                	test   %ecx,%ecx
    2d04:	74 50                	je     2d56 <hound_context_get_connected_targets+0x66>
    2d06:	85 db                	test   %ebx,%ebx
    2d08:	74 37                	je     2d41 <hound_context_get_connected_targets+0x51>
    2d0a:	80 7a 08 01          	cmpb   $0x1,0x8(%edx)
    2d0e:	19 c0                	sbb    %eax,%eax
    2d10:	83 ec 0c             	sub    $0xc,%esp
    2d13:	ff 72 04             	pushl  0x4(%edx)
    2d16:	83 e0 fa             	and    $0xfffffffa,%eax
    2d19:	83 c0 18             	add    $0x18,%eax
    2d1c:	50                   	push   %eax
    2d1d:	53                   	push   %ebx
    2d1e:	51                   	push   %ecx
    2d1f:	8b 02                	mov    (%edx),%eax
    2d21:	50                   	push   %eax
    2d22:	e8 89 09 00 00       	call   36b0 <hound_service_get_list>
    2d27:	8b 5d fc             	mov    -0x4(%ebp),%ebx
    2d2a:	c9                   	leave  
    2d2b:	c3                   	ret    
    2d2c:	53                   	push   %ebx
    2d2d:	68 d8 00 00 00       	push   $0xd8
    2d32:	68 94 7b 00 00       	push   $0x7b94
    2d37:	68 f4 7b 00 00       	push   $0x7bf4
    2d3c:	e8 5f 67 00 00       	call   94a0 <assert_abort@plt>
    2d41:	52                   	push   %edx
    2d42:	68 da 00 00 00       	push   $0xda
    2d47:	68 94 7b 00 00       	push   $0x7b94
    2d4c:	68 a7 7b 00 00       	push   $0x7ba7
    2d51:	e8 4a 67 00 00       	call   94a0 <assert_abort@plt>
    2d56:	51                   	push   %ecx
    2d57:	68 d9 00 00 00       	push   $0xd9
    2d5c:	68 94 7b 00 00       	push   $0x7b94
    2d61:	68 a1 7b 00 00       	push   $0x7ba1
    2d66:	e8 35 67 00 00       	call   94a0 <assert_abort@plt>
    2d6b:	90                   	nop
    2d6c:	8d 74 26 00          	lea    0x0(%esi,%eiz,1),%esi

00002d70 <hound_context_connect_target>:
    2d70:	55                   	push   %ebp
    2d71:	89 e5                	mov    %esp,%ebp
    2d73:	56                   	push   %esi
    2d74:	53                   	push   %ebx
    2d75:	83 ec 20             	sub    $0x20,%esp
    2d78:	8b 5d 08             	mov    0x8(%ebp),%ebx
    2d7b:	8b 75 0c             	mov    0xc(%ebp),%esi
    2d7e:	85 db                	test   %ebx,%ebx
    2d80:	0f 84 e6 00 00 00    	je     2e6c <hound_context_connect_target+0xfc>
    2d86:	85 f6                	test   %esi,%esi
    2d88:	0f 84 c9 00 00 00    	je     2e57 <hound_context_connect_target+0xe7>
    2d8e:	c7 45 f0 00 00 00 00 	movl   $0x0,-0x10(%ebp)
    2d95:	50                   	push   %eax
    2d96:	c7 45 f4 01 00 00 00 	movl   $0x1,-0xc(%ebp)
    2d9d:	50                   	push   %eax
    2d9e:	68 79 6e 00 00       	push   $0x6e79
    2da3:	56                   	push   %esi
    2da4:	e8 a7 67 00 00       	call   9550 <str_cmp@plt>
    2da9:	83 c4 10             	add    $0x10,%esp
    2dac:	85 c0                	test   %eax,%eax
    2dae:	74 68                	je     2e18 <hound_context_connect_target+0xa8>
    2db0:	80 7b 08 00          	cmpb   $0x0,0x8(%ebx)
    2db4:	75 4a                	jne    2e00 <hound_context_connect_target+0x90>
    2db6:	52                   	push   %edx
    2db7:	56                   	push   %esi
    2db8:	8b 4b 04             	mov    0x4(%ebx),%ecx
    2dbb:	8b 1b                	mov    (%ebx),%ebx
    2dbd:	51                   	push   %ecx
    2dbe:	53                   	push   %ebx
    2dbf:	e8 ec 0b 00 00       	call   39b0 <hound_service_connect_source_sink>
    2dc4:	83 c4 10             	add    $0x10,%esp
    2dc7:	8b 55 f0             	mov    -0x10(%ebp),%edx
    2dca:	85 d2                	test   %edx,%edx
    2dcc:	74 17                	je     2de5 <hound_context_connect_target+0x75>
    2dce:	83 ec 0c             	sub    $0xc,%esp
    2dd1:	89 45 e4             	mov    %eax,-0x1c(%ebp)
    2dd4:	8b 02                	mov    (%edx),%eax
    2dd6:	50                   	push   %eax
    2dd7:	e8 74 69 00 00       	call   9750 <free@plt>
    2ddc:	8b 55 f0             	mov    -0x10(%ebp),%edx
    2ddf:	83 c4 10             	add    $0x10,%esp
    2de2:	8b 45 e4             	mov    -0x1c(%ebp),%eax
    2de5:	83 ec 0c             	sub    $0xc,%esp
    2de8:	89 45 e4             	mov    %eax,-0x1c(%ebp)
    2deb:	52                   	push   %edx
    2dec:	e8 5f 69 00 00       	call   9750 <free@plt>
    2df1:	83 c4 10             	add    $0x10,%esp
    2df4:	8b 45 e4             	mov    -0x1c(%ebp),%eax
    2df7:	8d 65 f8             	lea    -0x8(%ebp),%esp
    2dfa:	5b                   	pop    %ebx
    2dfb:	5e                   	pop    %esi
    2dfc:	5d                   	pop    %ebp
    2dfd:	c3                   	ret    
    2dfe:	66 90                	xchg   %ax,%ax
    2e00:	50                   	push   %eax
    2e01:	8b 43 04             	mov    0x4(%ebx),%eax
    2e04:	50                   	push   %eax
    2e05:	8b 03                	mov    (%ebx),%eax
    2e07:	56                   	push   %esi
    2e08:	50                   	push   %eax
    2e09:	e8 a2 0b 00 00       	call   39b0 <hound_service_connect_source_sink>
    2e0e:	83 c4 10             	add    $0x10,%esp
    2e11:	eb b4                	jmp    2dc7 <hound_context_connect_target+0x57>
    2e13:	90                   	nop
    2e14:	8d 74 26 00          	lea    0x0(%esi,%eiz,1),%esi
    2e18:	80 7b 08 01          	cmpb   $0x1,0x8(%ebx)
    2e1c:	19 c0                	sbb    %eax,%eax
    2e1e:	83 ec 0c             	sub    $0xc,%esp
    2e21:	83 e0 fa             	and    $0xfffffffa,%eax
    2e24:	83 c0 08             	add    $0x8,%eax
    2e27:	6a 00                	push   $0x0
    2e29:	50                   	push   %eax
    2e2a:	8d 45 f4             	lea    -0xc(%ebp),%eax
    2e2d:	50                   	push   %eax
    2e2e:	8d 45 f0             	lea    -0x10(%ebp),%eax
    2e31:	50                   	push   %eax
    2e32:	8b 03                	mov    (%ebx),%eax
    2e34:	50                   	push   %eax
    2e35:	e8 76 08 00 00       	call   36b0 <hound_service_get_list>
    2e3a:	83 c4 20             	add    $0x20,%esp
    2e3d:	85 c0                	test   %eax,%eax
    2e3f:	75 b6                	jne    2df7 <hound_context_connect_target+0x87>
    2e41:	8b 45 f4             	mov    -0xc(%ebp),%eax
    2e44:	85 c0                	test   %eax,%eax
    2e46:	74 0a                	je     2e52 <hound_context_connect_target+0xe2>
    2e48:	8b 45 f0             	mov    -0x10(%ebp),%eax
    2e4b:	8b 30                	mov    (%eax),%esi
    2e4d:	e9 5e ff ff ff       	jmp    2db0 <hound_context_connect_target+0x40>
    2e52:	83 c8 ff             	or     $0xffffffff,%eax
    2e55:	eb a0                	jmp    2df7 <hound_context_connect_target+0x87>
    2e57:	52                   	push   %edx
    2e58:	68 ec 00 00 00       	push   $0xec
    2e5d:	68 94 7b 00 00       	push   $0x7b94
    2e62:	68 ad 7b 00 00       	push   $0x7bad
    2e67:	e8 34 66 00 00       	call   94a0 <assert_abort@plt>
    2e6c:	51                   	push   %ecx
    2e6d:	68 eb 00 00 00       	push   $0xeb
    2e72:	68 94 7b 00 00       	push   $0x7b94
    2e77:	68 f4 7b 00 00       	push   $0x7bf4
    2e7c:	e8 1f 66 00 00       	call   94a0 <assert_abort@plt>
    2e81:	eb 0d                	jmp    2e90 <hound_context_disconnect_target>
    2e83:	90                   	nop
    2e84:	90                   	nop
    2e85:	90                   	nop
    2e86:	90                   	nop
    2e87:	90                   	nop
    2e88:	90                   	nop
    2e89:	90                   	nop
    2e8a:	90                   	nop
    2e8b:	90                   	nop
    2e8c:	90                   	nop
    2e8d:	90                   	nop
    2e8e:	90                   	nop
    2e8f:	90                   	nop

00002e90 <hound_context_disconnect_target>:
    2e90:	55                   	push   %ebp
    2e91:	89 e5                	mov    %esp,%ebp
    2e93:	83 ec 08             	sub    $0x8,%esp
    2e96:	8b 45 08             	mov    0x8(%ebp),%eax
    2e99:	8b 55 0c             	mov    0xc(%ebp),%edx
    2e9c:	85 c0                	test   %eax,%eax
    2e9e:	74 48                	je     2ee8 <hound_context_disconnect_target+0x58>
    2ea0:	85 d2                	test   %edx,%edx
    2ea2:	74 2f                	je     2ed3 <hound_context_disconnect_target+0x43>
    2ea4:	80 78 08 00          	cmpb   $0x0,0x8(%eax)
    2ea8:	75 16                	jne    2ec0 <hound_context_disconnect_target+0x30>
    2eaa:	51                   	push   %ecx
    2eab:	52                   	push   %edx
    2eac:	8b 50 04             	mov    0x4(%eax),%edx
    2eaf:	52                   	push   %edx
    2eb0:	8b 08                	mov    (%eax),%ecx
    2eb2:	51                   	push   %ecx
    2eb3:	e8 18 0c 00 00       	call   3ad0 <hound_service_disconnect_source_sink>
    2eb8:	83 c4 10             	add    $0x10,%esp
    2ebb:	c9                   	leave  
    2ebc:	c3                   	ret    
    2ebd:	8d 76 00             	lea    0x0(%esi),%esi
    2ec0:	51                   	push   %ecx
    2ec1:	8b 48 04             	mov    0x4(%eax),%ecx
    2ec4:	51                   	push   %ecx
    2ec5:	52                   	push   %edx
    2ec6:	8b 00                	mov    (%eax),%eax
    2ec8:	50                   	push   %eax
    2ec9:	e8 02 0c 00 00       	call   3ad0 <hound_service_disconnect_source_sink>
    2ece:	83 c4 10             	add    $0x10,%esp
    2ed1:	c9                   	leave  
    2ed2:	c3                   	ret    
    2ed3:	50                   	push   %eax
    2ed4:	68 11 01 00 00       	push   $0x111
    2ed9:	68 94 7b 00 00       	push   $0x7b94
    2ede:	68 ad 7b 00 00       	push   $0x7bad
    2ee3:	e8 b8 65 00 00       	call   94a0 <assert_abort@plt>
    2ee8:	50                   	push   %eax
    2ee9:	68 10 01 00 00       	push   $0x110
    2eee:	68 94 7b 00 00       	push   $0x7b94
    2ef3:	68 f4 7b 00 00       	push   $0x7bf4
    2ef8:	e8 a3 65 00 00       	call   94a0 <assert_abort@plt>
    2efd:	8d 76 00             	lea    0x0(%esi),%esi

00002f00 <hound_stream_create>:
    2f00:	55                   	push   %ebp
    2f01:	89 e5                	mov    %esp,%ebp
    2f03:	57                   	push   %edi
    2f04:	56                   	push   %esi
    2f05:	53                   	push   %ebx
    2f06:	83 ec 0c             	sub    $0xc,%esp
    2f09:	8b 75 08             	mov    0x8(%ebp),%esi
    2f0c:	85 f6                	test   %esi,%esi
    2f0e:	0f 84 b7 00 00 00    	je     2fcb <hound_stream_create+0xcb>
    2f14:	83 ec 0c             	sub    $0xc,%esp
    2f17:	8b 1e                	mov    (%esi),%ebx
    2f19:	53                   	push   %ebx
    2f1a:	e8 71 67 00 00       	call   9690 <async_exchange_begin@plt>
    2f1f:	83 c4 10             	add    $0x10,%esp
    2f22:	89 c7                	mov    %eax,%edi
    2f24:	85 c0                	test   %eax,%eax
    2f26:	0f 84 93 00 00 00    	je     2fbf <hound_stream_create+0xbf>
    2f2c:	83 ec 0c             	sub    $0xc,%esp
    2f2f:	6a 20                	push   $0x20
    2f31:	e8 9a 64 00 00       	call   93d0 <malloc@plt>
    2f36:	83 c4 10             	add    $0x10,%esp
    2f39:	89 c3                	mov    %eax,%ebx
    2f3b:	85 c0                	test   %eax,%eax
    2f3d:	0f 84 7c 00 00 00    	je     2fbf <hound_stream_create+0xbf>
    2f43:	c7 00 00 00 00 00    	movl   $0x0,(%eax)
    2f49:	c7 40 04 00 00 00 00 	movl   $0x0,0x4(%eax)
    2f50:	89 78 14             	mov    %edi,0x14(%eax)
    2f53:	8b 45 10             	mov    0x10(%ebp),%eax
    2f56:	83 ec 04             	sub    $0x4,%esp
    2f59:	89 43 08             	mov    %eax,0x8(%ebx)
    2f5c:	8b 55 14             	mov    0x14(%ebp),%edx
    2f5f:	8b 4d 18             	mov    0x18(%ebp),%ecx
    2f62:	8b 45 0c             	mov    0xc(%ebp),%eax
    2f65:	89 53 0c             	mov    %edx,0xc(%ebx)
    2f68:	89 4b 10             	mov    %ecx,0x10(%ebx)
    2f6b:	89 73 18             	mov    %esi,0x18(%ebx)
    2f6e:	89 43 1c             	mov    %eax,0x1c(%ebx)
    2f71:	ff 75 1c             	pushl  0x1c(%ebp)
    2f74:	51                   	push   %ecx
    2f75:	52                   	push   %edx
    2f76:	8b 55 10             	mov    0x10(%ebp),%edx
    2f79:	52                   	push   %edx
    2f7a:	50                   	push   %eax
    2f7b:	8b 4e 28             	mov    0x28(%esi),%ecx
    2f7e:	51                   	push   %ecx
    2f7f:	57                   	push   %edi
    2f80:	e8 3b 0c 00 00       	call   3bc0 <hound_service_stream_enter>
    2f85:	83 c4 20             	add    $0x20,%esp
    2f88:	85 c0                	test   %eax,%eax
    2f8a:	75 1c                	jne    2fa8 <hound_stream_create+0xa8>
    2f8c:	8d 46 0c             	lea    0xc(%esi),%eax
    2f8f:	89 43 04             	mov    %eax,0x4(%ebx)
    2f92:	8b 46 0c             	mov    0xc(%esi),%eax
    2f95:	89 03                	mov    %eax,(%ebx)
    2f97:	89 58 04             	mov    %ebx,0x4(%eax)
    2f9a:	89 5e 0c             	mov    %ebx,0xc(%esi)
    2f9d:	8d 65 f4             	lea    -0xc(%ebp),%esp
    2fa0:	89 d8                	mov    %ebx,%eax
    2fa2:	5b                   	pop    %ebx
    2fa3:	5e                   	pop    %esi
    2fa4:	5f                   	pop    %edi
    2fa5:	5d                   	pop    %ebp
    2fa6:	c3                   	ret    
    2fa7:	90                   	nop
    2fa8:	83 ec 0c             	sub    $0xc,%esp
    2fab:	8b 43 14             	mov    0x14(%ebx),%eax
    2fae:	50                   	push   %eax
    2faf:	e8 cc 64 00 00       	call   9480 <async_exchange_end@plt>
    2fb4:	89 1c 24             	mov    %ebx,(%esp)
    2fb7:	e8 94 67 00 00       	call   9750 <free@plt>
    2fbc:	83 c4 10             	add    $0x10,%esp
    2fbf:	8d 65 f4             	lea    -0xc(%ebp),%esp
    2fc2:	31 db                	xor    %ebx,%ebx
    2fc4:	89 d8                	mov    %ebx,%eax
    2fc6:	5b                   	pop    %ebx
    2fc7:	5e                   	pop    %esi
    2fc8:	5f                   	pop    %edi
    2fc9:	5d                   	pop    %ebp
    2fca:	c3                   	ret    
    2fcb:	56                   	push   %esi
    2fcc:	68 27 01 00 00       	push   $0x127
    2fd1:	68 94 7b 00 00       	push   $0x7b94
    2fd6:	68 f4 7b 00 00       	push   $0x7bf4
    2fdb:	e8 c0 64 00 00       	call   94a0 <assert_abort@plt>

00002fe0 <hound_stream_destroy>:
    2fe0:	55                   	push   %ebp
    2fe1:	89 e5                	mov    %esp,%ebp
    2fe3:	53                   	push   %ebx
    2fe4:	50                   	push   %eax
    2fe5:	8b 5d 08             	mov    0x8(%ebp),%ebx
    2fe8:	85 db                	test   %ebx,%ebx
    2fea:	74 64                	je     3050 <hound_stream_destroy+0x70>
    2fec:	f6 43 1c 01          	testb  $0x1,0x1c(%ebx)
    2ff0:	75 46                	jne    3038 <hound_stream_destroy+0x58>
    2ff2:	83 ec 0c             	sub    $0xc,%esp
    2ff5:	8b 43 14             	mov    0x14(%ebx),%eax
    2ff8:	50                   	push   %eax
    2ff9:	e8 22 0c 00 00       	call   3c20 <hound_service_stream_exit>
    2ffe:	8b 4b 14             	mov    0x14(%ebx),%ecx
    3001:	5a                   	pop    %edx
    3002:	51                   	push   %ecx
    3003:	e8 78 64 00 00       	call   9480 <async_exchange_end@plt>
    3008:	8b 13                	mov    (%ebx),%edx
    300a:	83 c4 10             	add    $0x10,%esp
    300d:	85 d2                	test   %edx,%edx
    300f:	74 0e                	je     301f <hound_stream_destroy+0x3f>
    3011:	8b 43 04             	mov    0x4(%ebx),%eax
    3014:	85 c0                	test   %eax,%eax
    3016:	74 07                	je     301f <hound_stream_destroy+0x3f>
    3018:	89 10                	mov    %edx,(%eax)
    301a:	8b 13                	mov    (%ebx),%edx
    301c:	89 42 04             	mov    %eax,0x4(%edx)
    301f:	c7 03 00 00 00 00    	movl   $0x0,(%ebx)
    3025:	c7 43 04 00 00 00 00 	movl   $0x0,0x4(%ebx)
    302c:	89 5d 08             	mov    %ebx,0x8(%ebp)
    302f:	8b 5d fc             	mov    -0x4(%ebp),%ebx
    3032:	c9                   	leave  
    3033:	e9 18 67 00 00       	jmp    9750 <free@plt>
    3038:	83 ec 0c             	sub    $0xc,%esp
    303b:	8b 43 14             	mov    0x14(%ebx),%eax
    303e:	50                   	push   %eax
    303f:	e8 0c 0c 00 00       	call   3c50 <hound_service_stream_drain>
    3044:	83 c4 10             	add    $0x10,%esp
    3047:	eb a9                	jmp    2ff2 <hound_stream_destroy+0x12>
    3049:	8d b4 26 00 00 00 00 	lea    0x0(%esi,%eiz,1),%esi
    3050:	8b 5d fc             	mov    -0x4(%ebp),%ebx
    3053:	c9                   	leave  
    3054:	c3                   	ret    
    3055:	8d 74 26 00          	lea    0x0(%esi,%eiz,1),%esi
    3059:	8d bc 27 00 00 00 00 	lea    0x0(%edi,%eiz,1),%edi

00003060 <hound_stream_write>:
    3060:	55                   	push   %ebp
    3061:	89 e5                	mov    %esp,%ebp
    3063:	83 ec 08             	sub    $0x8,%esp
    3066:	8b 45 08             	mov    0x8(%ebp),%eax
    3069:	8b 55 0c             	mov    0xc(%ebp),%edx
    306c:	8b 4d 10             	mov    0x10(%ebp),%ecx
    306f:	85 c0                	test   %eax,%eax
    3071:	74 24                	je     3097 <hound_stream_write+0x37>
    3073:	85 d2                	test   %edx,%edx
    3075:	74 19                	je     3090 <hound_stream_write+0x30>
    3077:	85 c9                	test   %ecx,%ecx
    3079:	74 15                	je     3090 <hound_stream_write+0x30>
    307b:	89 4d 10             	mov    %ecx,0x10(%ebp)
    307e:	89 55 0c             	mov    %edx,0xc(%ebp)
    3081:	8b 40 14             	mov    0x14(%eax),%eax
    3084:	89 45 08             	mov    %eax,0x8(%ebp)
    3087:	c9                   	leave  
    3088:	e9 f3 0b 00 00       	jmp    3c80 <hound_service_stream_write>
    308d:	8d 76 00             	lea    0x0(%esi),%esi
    3090:	b8 f6 ff ff ff       	mov    $0xfffffff6,%eax
    3095:	c9                   	leave  
    3096:	c3                   	ret    
    3097:	50                   	push   %eax
    3098:	68 5a 01 00 00       	push   $0x15a
    309d:	68 94 7b 00 00       	push   $0x7b94
    30a2:	68 b4 7b 00 00       	push   $0x7bb4
    30a7:	e8 f4 63 00 00       	call   94a0 <assert_abort@plt>
    30ac:	8d 74 26 00          	lea    0x0(%esi,%eiz,1),%esi

000030b0 <hound_stream_read>:
    30b0:	55                   	push   %ebp
    30b1:	89 e5                	mov    %esp,%ebp
    30b3:	83 ec 08             	sub    $0x8,%esp
    30b6:	8b 45 08             	mov    0x8(%ebp),%eax
    30b9:	8b 55 0c             	mov    0xc(%ebp),%edx
    30bc:	8b 4d 10             	mov    0x10(%ebp),%ecx
    30bf:	85 c0                	test   %eax,%eax
    30c1:	74 24                	je     30e7 <hound_stream_read+0x37>
    30c3:	85 d2                	test   %edx,%edx
    30c5:	74 19                	je     30e0 <hound_stream_read+0x30>
    30c7:	85 c9                	test   %ecx,%ecx
    30c9:	74 15                	je     30e0 <hound_stream_read+0x30>
    30cb:	89 4d 10             	mov    %ecx,0x10(%ebp)
    30ce:	89 55 0c             	mov    %edx,0xc(%ebp)
    30d1:	8b 40 14             	mov    0x14(%eax),%eax
    30d4:	89 45 08             	mov    %eax,0x8(%ebp)
    30d7:	c9                   	leave  
    30d8:	e9 b3 0b 00 00       	jmp    3c90 <hound_service_stream_read>
    30dd:	8d 76 00             	lea    0x0(%esi),%esi
    30e0:	b8 f6 ff ff ff       	mov    $0xfffffff6,%eax
    30e5:	c9                   	leave  
    30e6:	c3                   	ret    
    30e7:	50                   	push   %eax
    30e8:	68 69 01 00 00       	push   $0x169
    30ed:	68 94 7b 00 00       	push   $0x7b94
    30f2:	68 b4 7b 00 00       	push   $0x7bb4
    30f7:	e8 a4 63 00 00       	call   94a0 <assert_abort@plt>
    30fc:	8d 74 26 00          	lea    0x0(%esi,%eiz,1),%esi

00003100 <hound_stream_drain>:
    3100:	55                   	push   %ebp
    3101:	89 e5                	mov    %esp,%ebp
    3103:	83 ec 08             	sub    $0x8,%esp
    3106:	8b 45 08             	mov    0x8(%ebp),%eax
    3109:	85 c0                	test   %eax,%eax
    310b:	74 0c                	je     3119 <hound_stream_drain+0x19>
    310d:	8b 40 14             	mov    0x14(%eax),%eax
    3110:	89 45 08             	mov    %eax,0x8(%ebp)
    3113:	c9                   	leave  
    3114:	e9 37 0b 00 00       	jmp    3c50 <hound_service_stream_drain>
    3119:	50                   	push   %eax
    311a:	68 76 01 00 00       	push   $0x176
    311f:	68 94 7b 00 00       	push   $0x7b94
    3124:	68 b4 7b 00 00       	push   $0x7bb4
    3129:	e8 72 63 00 00       	call   94a0 <assert_abort@plt>
    312e:	66 90                	xchg   %ax,%ax

00003130 <hound_write_main_stream>:
    3130:	55                   	push   %ebp
    3131:	89 e5                	mov    %esp,%ebp
    3133:	57                   	push   %edi
    3134:	56                   	push   %esi
    3135:	53                   	push   %ebx
    3136:	83 ec 0c             	sub    $0xc,%esp
    3139:	8b 5d 08             	mov    0x8(%ebp),%ebx
    313c:	8b 75 0c             	mov    0xc(%ebp),%esi
    313f:	8b 7d 10             	mov    0x10(%ebp),%edi
    3142:	85 db                	test   %ebx,%ebx
    3144:	74 79                	je     31bf <hound_write_main_stream+0x8f>
    3146:	80 7b 08 00          	cmpb   $0x0,0x8(%ebx)
    314a:	75 2c                	jne    3178 <hound_write_main_stream+0x48>
    314c:	8b 43 14             	mov    0x14(%ebx),%eax
    314f:	85 c0                	test   %eax,%eax
    3151:	74 35                	je     3188 <hound_write_main_stream+0x58>
    3153:	85 f6                	test   %esi,%esi
    3155:	74 61                	je     31b8 <hound_write_main_stream+0x88>
    3157:	85 ff                	test   %edi,%edi
    3159:	74 5d                	je     31b8 <hound_write_main_stream+0x88>
    315b:	89 7d 10             	mov    %edi,0x10(%ebp)
    315e:	89 75 0c             	mov    %esi,0xc(%ebp)
    3161:	8b 40 14             	mov    0x14(%eax),%eax
    3164:	89 45 08             	mov    %eax,0x8(%ebp)
    3167:	8d 65 f4             	lea    -0xc(%ebp),%esp
    316a:	5b                   	pop    %ebx
    316b:	5e                   	pop    %esi
    316c:	5f                   	pop    %edi
    316d:	5d                   	pop    %ebp
    316e:	e9 0d 0b 00 00       	jmp    3c80 <hound_service_stream_write>
    3173:	90                   	nop
    3174:	8d 74 26 00          	lea    0x0(%esi,%eiz,1),%esi
    3178:	b8 f2 ff ff ff       	mov    $0xfffffff2,%eax
    317d:	8d 65 f4             	lea    -0xc(%ebp),%esp
    3180:	5b                   	pop    %ebx
    3181:	5e                   	pop    %esi
    3182:	5f                   	pop    %edi
    3183:	5d                   	pop    %ebp
    3184:	c3                   	ret    
    3185:	8d 76 00             	lea    0x0(%esi),%esi
    3188:	50                   	push   %eax
    3189:	50                   	push   %eax
    318a:	8b 53 24             	mov    0x24(%ebx),%edx
    318d:	52                   	push   %edx
    318e:	8b 4b 20             	mov    0x20(%ebx),%ecx
    3191:	51                   	push   %ecx
    3192:	8b 43 1c             	mov    0x1c(%ebx),%eax
    3195:	50                   	push   %eax
    3196:	8b 43 18             	mov    0x18(%ebx),%eax
    3199:	50                   	push   %eax
    319a:	6a 01                	push   $0x1
    319c:	53                   	push   %ebx
    319d:	e8 5e fd ff ff       	call   2f00 <hound_stream_create>
    31a2:	83 c4 20             	add    $0x20,%esp
    31a5:	89 43 14             	mov    %eax,0x14(%ebx)
    31a8:	85 c0                	test   %eax,%eax
    31aa:	75 a7                	jne    3153 <hound_write_main_stream+0x23>
    31ac:	b8 fe ff ff ff       	mov    $0xfffffffe,%eax
    31b1:	eb ca                	jmp    317d <hound_write_main_stream+0x4d>
    31b3:	90                   	nop
    31b4:	8d 74 26 00          	lea    0x0(%esi,%eiz,1),%esi
    31b8:	b8 f6 ff ff ff       	mov    $0xfffffff6,%eax
    31bd:	eb be                	jmp    317d <hound_write_main_stream+0x4d>
    31bf:	50                   	push   %eax
    31c0:	68 96 01 00 00       	push   $0x196
    31c5:	68 94 7b 00 00       	push   $0x7b94
    31ca:	68 f4 7b 00 00       	push   $0x7bf4
    31cf:	e8 cc 62 00 00       	call   94a0 <assert_abort@plt>
    31d4:	8d b6 00 00 00 00    	lea    0x0(%esi),%esi
    31da:	8d bf 00 00 00 00    	lea    0x0(%edi),%edi

000031e0 <hound_read_main_stream>:
    31e0:	55                   	push   %ebp
    31e1:	89 e5                	mov    %esp,%ebp
    31e3:	57                   	push   %edi
    31e4:	56                   	push   %esi
    31e5:	53                   	push   %ebx
    31e6:	83 ec 0c             	sub    $0xc,%esp
    31e9:	8b 5d 08             	mov    0x8(%ebp),%ebx
    31ec:	8b 75 0c             	mov    0xc(%ebp),%esi
    31ef:	8b 7d 10             	mov    0x10(%ebp),%edi
    31f2:	85 db                	test   %ebx,%ebx
    31f4:	74 79                	je     326f <hound_read_main_stream+0x8f>
    31f6:	80 7b 08 00          	cmpb   $0x0,0x8(%ebx)
    31fa:	74 2c                	je     3228 <hound_read_main_stream+0x48>
    31fc:	8b 43 14             	mov    0x14(%ebx),%eax
    31ff:	85 c0                	test   %eax,%eax
    3201:	74 35                	je     3238 <hound_read_main_stream+0x58>
    3203:	85 f6                	test   %esi,%esi
    3205:	74 61                	je     3268 <hound_read_main_stream+0x88>
    3207:	85 ff                	test   %edi,%edi
    3209:	74 5d                	je     3268 <hound_read_main_stream+0x88>
    320b:	89 7d 10             	mov    %edi,0x10(%ebp)
    320e:	89 75 0c             	mov    %esi,0xc(%ebp)
    3211:	8b 40 14             	mov    0x14(%eax),%eax
    3214:	89 45 08             	mov    %eax,0x8(%ebp)
    3217:	8d 65 f4             	lea    -0xc(%ebp),%esp
    321a:	5b                   	pop    %ebx
    321b:	5e                   	pop    %esi
    321c:	5f                   	pop    %edi
    321d:	5d                   	pop    %ebp
    321e:	e9 6d 0a 00 00       	jmp    3c90 <hound_service_stream_read>
    3223:	90                   	nop
    3224:	8d 74 26 00          	lea    0x0(%esi,%eiz,1),%esi
    3228:	b8 f2 ff ff ff       	mov    $0xfffffff2,%eax
    322d:	8d 65 f4             	lea    -0xc(%ebp),%esp
    3230:	5b                   	pop    %ebx
    3231:	5e                   	pop    %esi
    3232:	5f                   	pop    %edi
    3233:	5d                   	pop    %ebp
    3234:	c3                   	ret    
    3235:	8d 76 00             	lea    0x0(%esi),%esi
    3238:	50                   	push   %eax
    3239:	50                   	push   %eax
    323a:	8b 53 24             	mov    0x24(%ebx),%edx
    323d:	52                   	push   %edx
    323e:	8b 4b 20             	mov    0x20(%ebx),%ecx
    3241:	51                   	push   %ecx
    3242:	8b 43 1c             	mov    0x1c(%ebx),%eax
    3245:	50                   	push   %eax
    3246:	8b 43 18             	mov    0x18(%ebx),%eax
    3249:	50                   	push   %eax
    324a:	6a 01                	push   $0x1
    324c:	53                   	push   %ebx
    324d:	e8 ae fc ff ff       	call   2f00 <hound_stream_create>
    3252:	83 c4 20             	add    $0x20,%esp
    3255:	89 43 14             	mov    %eax,0x14(%ebx)
    3258:	85 c0                	test   %eax,%eax
    325a:	75 a7                	jne    3203 <hound_read_main_stream+0x23>
    325c:	b8 fe ff ff ff       	mov    $0xfffffffe,%eax
    3261:	eb ca                	jmp    322d <hound_read_main_stream+0x4d>
    3263:	90                   	nop
    3264:	8d 74 26 00          	lea    0x0(%esi,%eiz,1),%esi
    3268:	b8 f6 ff ff ff       	mov    $0xfffffff6,%eax
    326d:	eb be                	jmp    322d <hound_read_main_stream+0x4d>
    326f:	50                   	push   %eax
    3270:	68 a9 01 00 00       	push   $0x1a9
    3275:	68 94 7b 00 00       	push   $0x7b94
    327a:	68 f4 7b 00 00       	push   $0x7bf4
    327f:	e8 1c 62 00 00       	call   94a0 <assert_abort@plt>
    3284:	8d b6 00 00 00 00    	lea    0x0(%esi),%esi
    328a:	8d bf 00 00 00 00    	lea    0x0(%edi),%edi

00003290 <hound_write_replace_main_stream>:
    3290:	55                   	push   %ebp
    3291:	89 e5                	mov    %esp,%ebp
    3293:	83 ec 08             	sub    $0x8,%esp
    3296:	8b 45 08             	mov    0x8(%ebp),%eax
    3299:	85 c0                	test   %eax,%eax
    329b:	74 22                	je     32bf <hound_write_replace_main_stream+0x2f>
    329d:	8b 55 0c             	mov    0xc(%ebp),%edx
    32a0:	85 d2                	test   %edx,%edx
    32a2:	74 14                	je     32b8 <hound_write_replace_main_stream+0x28>
    32a4:	8b 45 10             	mov    0x10(%ebp),%eax
    32a7:	85 c0                	test   %eax,%eax
    32a9:	74 0d                	je     32b8 <hound_write_replace_main_stream+0x28>
    32ab:	b8 f5 ff ff ff       	mov    $0xfffffff5,%eax
    32b0:	c9                   	leave  
    32b1:	c3                   	ret    
    32b2:	8d b6 00 00 00 00    	lea    0x0(%esi),%esi
    32b8:	b8 f6 ff ff ff       	mov    $0xfffffff6,%eax
    32bd:	c9                   	leave  
    32be:	c3                   	ret    
    32bf:	51                   	push   %ecx
    32c0:	68 be 01 00 00       	push   $0x1be
    32c5:	68 94 7b 00 00       	push   $0x7b94
    32ca:	68 f4 7b 00 00       	push   $0x7bf4
    32cf:	e8 cc 61 00 00       	call   94a0 <assert_abort@plt>
    32d4:	8d b6 00 00 00 00    	lea    0x0(%esi),%esi
    32da:	8d bf 00 00 00 00    	lea    0x0(%edi),%edi

000032e0 <hound_context_set_main_stream_params>:
    32e0:	55                   	push   %ebp
    32e1:	89 e5                	mov    %esp,%ebp
    32e3:	83 ec 08             	sub    $0x8,%esp
    32e6:	8b 4d 08             	mov    0x8(%ebp),%ecx
    32e9:	85 c9                	test   %ecx,%ecx
    32eb:	74 07                	je     32f4 <hound_context_set_main_stream_params+0x14>
    32ed:	b8 f5 ff ff ff       	mov    $0xfffffff5,%eax
    32f2:	c9                   	leave  
    32f3:	c3                   	ret    
    32f4:	50                   	push   %eax
    32f5:	68 d0 01 00 00       	push   $0x1d0
    32fa:	68 94 7b 00 00       	push   $0x7b94
    32ff:	68 f4 7b 00 00       	push   $0x7bf4
    3304:	e8 97 61 00 00       	call   94a0 <assert_abort@plt>
    3309:	8d b4 26 00 00 00 00 	lea    0x0(%esi,%eiz,1),%esi

00003310 <hound_write_immediate>:
    3310:	55                   	push   %ebp
    3311:	89 e5                	mov    %esp,%ebp
    3313:	57                   	push   %edi
    3314:	56                   	push   %esi
    3315:	53                   	push   %ebx
    3316:	83 ec 1c             	sub    $0x1c,%esp
    3319:	8b 75 08             	mov    0x8(%ebp),%esi
    331c:	85 f6                	test   %esi,%esi
    331e:	0f 84 a6 01 00 00    	je     34ca <hound_write_immediate+0x1ba>
    3324:	80 7e 08 00          	cmpb   $0x0,0x8(%esi)
    3328:	0f 85 8a 01 00 00    	jne    34b8 <hound_write_immediate+0x1a8>
    332e:	8b 45 0c             	mov    0xc(%ebp),%eax
    3331:	83 ec 0c             	sub    $0xc,%esp
    3334:	89 45 dc             	mov    %eax,-0x24(%ebp)
    3337:	8b 45 10             	mov    0x10(%ebp),%eax
    333a:	89 45 e0             	mov    %eax,-0x20(%ebp)
    333d:	8b 16                	mov    (%esi),%edx
    333f:	8b 45 14             	mov    0x14(%ebp),%eax
    3342:	52                   	push   %edx
    3343:	89 45 e4             	mov    %eax,-0x1c(%ebp)
    3346:	e8 45 63 00 00       	call   9690 <async_exchange_begin@plt>
    334b:	83 c4 10             	add    $0x10,%esp
    334e:	89 c7                	mov    %eax,%edi
    3350:	85 c0                	test   %eax,%eax
    3352:	0f 84 1f 01 00 00    	je     3477 <hound_write_immediate+0x167>
    3358:	83 ec 0c             	sub    $0xc,%esp
    335b:	6a 20                	push   $0x20
    335d:	e8 6e 60 00 00       	call   93d0 <malloc@plt>
    3362:	83 c4 10             	add    $0x10,%esp
    3365:	89 c3                	mov    %eax,%ebx
    3367:	85 c0                	test   %eax,%eax
    3369:	0f 84 08 01 00 00    	je     3477 <hound_write_immediate+0x167>
    336f:	83 ec 04             	sub    $0x4,%esp
    3372:	c7 00 00 00 00 00    	movl   $0x0,(%eax)
    3378:	c7 40 04 00 00 00 00 	movl   $0x0,0x4(%eax)
    337f:	89 78 14             	mov    %edi,0x14(%eax)
    3382:	ff 75 1c             	pushl  0x1c(%ebp)
    3385:	8b 45 dc             	mov    -0x24(%ebp),%eax
    3388:	8b 55 e0             	mov    -0x20(%ebp),%edx
    338b:	8b 4d e4             	mov    -0x1c(%ebp),%ecx
    338e:	89 43 08             	mov    %eax,0x8(%ebx)
    3391:	51                   	push   %ecx
    3392:	52                   	push   %edx
    3393:	50                   	push   %eax
    3394:	6a 00                	push   $0x0
    3396:	8b 46 28             	mov    0x28(%esi),%eax
    3399:	89 53 0c             	mov    %edx,0xc(%ebx)
    339c:	50                   	push   %eax
    339d:	89 4b 10             	mov    %ecx,0x10(%ebx)
    33a0:	57                   	push   %edi
    33a1:	89 73 18             	mov    %esi,0x18(%ebx)
    33a4:	c7 43 1c 00 00 00 00 	movl   $0x0,0x1c(%ebx)
    33ab:	e8 10 08 00 00       	call   3bc0 <hound_service_stream_enter>
    33b0:	83 c4 20             	add    $0x20,%esp
    33b3:	85 c0                	test   %eax,%eax
    33b5:	0f 85 a5 00 00 00    	jne    3460 <hound_write_immediate+0x150>
    33bb:	8d 46 0c             	lea    0xc(%esi),%eax
    33be:	8b 55 18             	mov    0x18(%ebp),%edx
    33c1:	89 43 04             	mov    %eax,0x4(%ebx)
    33c4:	8b 46 0c             	mov    0xc(%esi),%eax
    33c7:	89 03                	mov    %eax,(%ebx)
    33c9:	85 d2                	test   %edx,%edx
    33cb:	89 58 04             	mov    %ebx,0x4(%eax)
    33ce:	89 5e 0c             	mov    %ebx,0xc(%esi)
    33d1:	0f 84 e9 00 00 00    	je     34c0 <hound_write_immediate+0x1b0>
    33d7:	8b 45 1c             	mov    0x1c(%ebp),%eax
    33da:	85 c0                	test   %eax,%eax
    33dc:	0f 84 de 00 00 00    	je     34c0 <hound_write_immediate+0x1b0>
    33e2:	50                   	push   %eax
    33e3:	8b 45 1c             	mov    0x1c(%ebp),%eax
    33e6:	50                   	push   %eax
    33e7:	8b 45 18             	mov    0x18(%ebp),%eax
    33ea:	50                   	push   %eax
    33eb:	8b 43 14             	mov    0x14(%ebx),%eax
    33ee:	50                   	push   %eax
    33ef:	e8 8c 08 00 00       	call   3c80 <hound_service_stream_write>
    33f4:	83 c4 10             	add    $0x10,%esp
    33f7:	89 c6                	mov    %eax,%esi
    33f9:	85 c0                	test   %eax,%eax
    33fb:	0f 84 87 00 00 00    	je     3488 <hound_write_immediate+0x178>
    3401:	f6 43 1c 01          	testb  $0x1,0x1c(%ebx)
    3405:	0f 85 96 00 00 00    	jne    34a1 <hound_write_immediate+0x191>
    340b:	83 ec 0c             	sub    $0xc,%esp
    340e:	8b 43 14             	mov    0x14(%ebx),%eax
    3411:	50                   	push   %eax
    3412:	e8 09 08 00 00       	call   3c20 <hound_service_stream_exit>
    3417:	8b 4b 14             	mov    0x14(%ebx),%ecx
    341a:	5a                   	pop    %edx
    341b:	51                   	push   %ecx
    341c:	e8 5f 60 00 00       	call   9480 <async_exchange_end@plt>
    3421:	8b 13                	mov    (%ebx),%edx
    3423:	83 c4 10             	add    $0x10,%esp
    3426:	85 d2                	test   %edx,%edx
    3428:	74 0e                	je     3438 <hound_write_immediate+0x128>
    342a:	8b 43 04             	mov    0x4(%ebx),%eax
    342d:	85 c0                	test   %eax,%eax
    342f:	74 07                	je     3438 <hound_write_immediate+0x128>
    3431:	89 10                	mov    %edx,(%eax)
    3433:	8b 13                	mov    (%ebx),%edx
    3435:	89 42 04             	mov    %eax,0x4(%edx)
    3438:	83 ec 0c             	sub    $0xc,%esp
    343b:	c7 03 00 00 00 00    	movl   $0x0,(%ebx)
    3441:	c7 43 04 00 00 00 00 	movl   $0x0,0x4(%ebx)
    3448:	53                   	push   %ebx
    3449:	e8 02 63 00 00       	call   9750 <free@plt>
    344e:	83 c4 10             	add    $0x10,%esp
    3451:	8d 65 f4             	lea    -0xc(%ebp),%esp
    3454:	89 f0                	mov    %esi,%eax
    3456:	5b                   	pop    %ebx
    3457:	5e                   	pop    %esi
    3458:	5f                   	pop    %edi
    3459:	5d                   	pop    %ebp
    345a:	c3                   	ret    
    345b:	90                   	nop
    345c:	8d 74 26 00          	lea    0x0(%esi,%eiz,1),%esi
    3460:	83 ec 0c             	sub    $0xc,%esp
    3463:	8b 4b 14             	mov    0x14(%ebx),%ecx
    3466:	51                   	push   %ecx
    3467:	e8 14 60 00 00       	call   9480 <async_exchange_end@plt>
    346c:	89 1c 24             	mov    %ebx,(%esp)
    346f:	e8 dc 62 00 00       	call   9750 <free@plt>
    3474:	83 c4 10             	add    $0x10,%esp
    3477:	8d 65 f4             	lea    -0xc(%ebp),%esp
    347a:	be fe ff ff ff       	mov    $0xfffffffe,%esi
    347f:	89 f0                	mov    %esi,%eax
    3481:	5b                   	pop    %ebx
    3482:	5e                   	pop    %esi
    3483:	5f                   	pop    %edi
    3484:	5d                   	pop    %ebp
    3485:	c3                   	ret    
    3486:	66 90                	xchg   %ax,%ax
    3488:	83 ec 0c             	sub    $0xc,%esp
    348b:	8b 43 14             	mov    0x14(%ebx),%eax
    348e:	50                   	push   %eax
    348f:	e8 bc 07 00 00       	call   3c50 <hound_service_stream_drain>
    3494:	83 c4 10             	add    $0x10,%esp
    3497:	f6 43 1c 01          	testb  $0x1,0x1c(%ebx)
    349b:	0f 84 6a ff ff ff    	je     340b <hound_write_immediate+0xfb>
    34a1:	83 ec 0c             	sub    $0xc,%esp
    34a4:	8b 7b 14             	mov    0x14(%ebx),%edi
    34a7:	57                   	push   %edi
    34a8:	e8 a3 07 00 00       	call   3c50 <hound_service_stream_drain>
    34ad:	83 c4 10             	add    $0x10,%esp
    34b0:	e9 56 ff ff ff       	jmp    340b <hound_write_immediate+0xfb>
    34b5:	8d 76 00             	lea    0x0(%esi),%esi
    34b8:	be f2 ff ff ff       	mov    $0xfffffff2,%esi
    34bd:	eb 92                	jmp    3451 <hound_write_immediate+0x141>
    34bf:	90                   	nop
    34c0:	be f6 ff ff ff       	mov    $0xfffffff6,%esi
    34c5:	e9 37 ff ff ff       	jmp    3401 <hound_write_immediate+0xf1>
    34ca:	51                   	push   %ecx
    34cb:	68 e3 01 00 00       	push   $0x1e3
    34d0:	68 94 7b 00 00       	push   $0x7b94
    34d5:	68 f4 7b 00 00       	push   $0x7bf4
    34da:	e8 c1 5f 00 00       	call   94a0 <assert_abort@plt>
    34df:	90                   	nop

000034e0 <hound_service_connect>:
    34e0:	55                   	push   %ebp
    34e1:	89 e5                	mov    %esp,%ebp
    34e3:	83 ec 1c             	sub    $0x1c,%esp
    34e6:	8d 45 f4             	lea    -0xc(%ebp),%eax
    34e9:	8b 4d 08             	mov    0x8(%ebp),%ecx
    34ec:	6a 01                	push   $0x1
    34ee:	c7 45 f4 00 00 00 00 	movl   $0x0,-0xc(%ebp)
    34f5:	50                   	push   %eax
    34f6:	51                   	push   %ecx
    34f7:	e8 04 5f 00 00       	call   9400 <loc_service_get_id@plt>
    34fc:	83 c4 10             	add    $0x10,%esp
    34ff:	85 c0                	test   %eax,%eax
    3501:	75 1d                	jne    3520 <hound_service_connect+0x40>
    3503:	8b 55 f4             	mov    -0xc(%ebp),%edx
    3506:	50                   	push   %eax
    3507:	6a 01                	push   $0x1
    3509:	68 82 7e d7 dd       	push   $0xddd77e82
    350e:	52                   	push   %edx
    350f:	e8 0c 5e 00 00       	call   9320 <loc_service_connect@plt>
    3514:	83 c4 10             	add    $0x10,%esp
    3517:	c9                   	leave  
    3518:	c3                   	ret    
    3519:	8d b4 26 00 00 00 00 	lea    0x0(%esi,%eiz,1),%esi
    3520:	31 c0                	xor    %eax,%eax
    3522:	c9                   	leave  
    3523:	c3                   	ret    
    3524:	8d b6 00 00 00 00    	lea    0x0(%esi),%esi
    352a:	8d bf 00 00 00 00    	lea    0x0(%edi),%edi

00003530 <hound_service_disconnect>:
    3530:	55                   	push   %ebp
    3531:	89 e5                	mov    %esp,%ebp
    3533:	8b 45 08             	mov    0x8(%ebp),%eax
    3536:	85 c0                	test   %eax,%eax
    3538:	74 06                	je     3540 <hound_service_disconnect+0x10>
    353a:	5d                   	pop    %ebp
    353b:	e9 00 5e 00 00       	jmp    9340 <async_hangup@plt>
    3540:	5d                   	pop    %ebp
    3541:	c3                   	ret    
    3542:	8d b4 26 00 00 00 00 	lea    0x0(%esi,%eiz,1),%esi
    3549:	8d bc 27 00 00 00 00 	lea    0x0(%edi,%eiz,1),%edi

00003550 <hound_service_register_context>:
    3550:	55                   	push   %ebp
    3551:	89 e5                	mov    %esp,%ebp
    3553:	57                   	push   %edi
    3554:	56                   	push   %esi
    3555:	53                   	push   %ebx
    3556:	83 ec 3c             	sub    $0x3c,%esp
    3559:	8b 45 08             	mov    0x8(%ebp),%eax
    355c:	8b 7d 0c             	mov    0xc(%ebp),%edi
    355f:	8b 5d 10             	mov    0x10(%ebp),%ebx
    3562:	85 c0                	test   %eax,%eax
    3564:	0f 84 be 00 00 00    	je     3628 <hound_service_register_context+0xd8>
    356a:	85 ff                	test   %edi,%edi
    356c:	0f 84 a4 00 00 00    	je     3616 <hound_service_register_context+0xc6>
    3572:	83 ec 0c             	sub    $0xc,%esp
    3575:	81 e3 ff 00 00 00    	and    $0xff,%ebx
    357b:	50                   	push   %eax
    357c:	e8 0f 61 00 00       	call   9690 <async_exchange_begin@plt>
    3581:	83 c4 0c             	add    $0xc,%esp
    3584:	89 c6                	mov    %eax,%esi
    3586:	8d 45 c4             	lea    -0x3c(%ebp),%eax
    3589:	50                   	push   %eax
    358a:	6a 00                	push   $0x0
    358c:	6a 00                	push   $0x0
    358e:	6a 00                	push   $0x0
    3590:	53                   	push   %ebx
    3591:	68 00 04 00 00       	push   $0x400
    3596:	56                   	push   %esi
    3597:	e8 b4 5e 00 00       	call   9450 <async_send_fast@plt>
    359c:	83 c4 20             	add    $0x20,%esp
    359f:	89 c3                	mov    %eax,%ebx
    35a1:	85 c0                	test   %eax,%eax
    35a3:	75 3b                	jne    35e0 <hound_service_register_context+0x90>
    35a5:	83 ec 0c             	sub    $0xc,%esp
    35a8:	c7 45 c0 f8 ff ff ff 	movl   $0xfffffff8,-0x40(%ebp)
    35af:	6a 00                	push   $0x0
    35b1:	e8 5a 61 00 00       	call   9710 <async_forget@plt>
    35b6:	8b 45 c0             	mov    -0x40(%ebp),%eax
    35b9:	83 c4 10             	add    $0x10,%esp
    35bc:	85 c0                	test   %eax,%eax
    35be:	74 45                	je     3605 <hound_service_register_context+0xb5>
    35c0:	83 ec 0c             	sub    $0xc,%esp
    35c3:	56                   	push   %esi
    35c4:	e8 b7 5e 00 00       	call   9480 <async_exchange_end@plt>
    35c9:	8b 45 c0             	mov    -0x40(%ebp),%eax
    35cc:	83 c4 10             	add    $0x10,%esp
    35cf:	85 c0                	test   %eax,%eax
    35d1:	75 03                	jne    35d6 <hound_service_register_context+0x86>
    35d3:	8b 45 c8             	mov    -0x38(%ebp),%eax
    35d6:	8d 65 f4             	lea    -0xc(%ebp),%esp
    35d9:	5b                   	pop    %ebx
    35da:	5e                   	pop    %esi
    35db:	5f                   	pop    %edi
    35dc:	5d                   	pop    %ebp
    35dd:	c3                   	ret    
    35de:	66 90                	xchg   %ax,%ax
    35e0:	83 ec 0c             	sub    $0xc,%esp
    35e3:	c7 45 c0 00 00 00 00 	movl   $0x0,-0x40(%ebp)
    35ea:	57                   	push   %edi
    35eb:	e8 70 60 00 00       	call   9660 <str_size@plt>
    35f0:	83 c4 0c             	add    $0xc,%esp
    35f3:	50                   	push   %eax
    35f4:	57                   	push   %edi
    35f5:	56                   	push   %esi
    35f6:	e8 85 5d 00 00       	call   9380 <async_data_write_start@plt>
    35fb:	83 c4 10             	add    $0x10,%esp
    35fe:	89 45 c0             	mov    %eax,-0x40(%ebp)
    3601:	85 c0                	test   %eax,%eax
    3603:	75 bb                	jne    35c0 <hound_service_register_context+0x70>
    3605:	50                   	push   %eax
    3606:	50                   	push   %eax
    3607:	8d 45 c0             	lea    -0x40(%ebp),%eax
    360a:	50                   	push   %eax
    360b:	53                   	push   %ebx
    360c:	e8 3f 5d 00 00       	call   9350 <async_wait_for@plt>
    3611:	83 c4 10             	add    $0x10,%esp
    3614:	eb aa                	jmp    35c0 <hound_service_register_context+0x70>
    3616:	52                   	push   %edx
    3617:	6a 7b                	push   $0x7b
    3619:	68 bb 7b 00 00       	push   $0x7bbb
    361e:	68 cf 7b 00 00       	push   $0x7bcf
    3623:	e8 78 5e 00 00       	call   94a0 <assert_abort@plt>
    3628:	51                   	push   %ecx
    3629:	6a 7a                	push   $0x7a
    362b:	68 bb 7b 00 00       	push   $0x7bbb
    3630:	68 ca 7b 00 00       	push   $0x7bca
    3635:	e8 66 5e 00 00       	call   94a0 <assert_abort@plt>
    363a:	8d b6 00 00 00 00    	lea    0x0(%esi),%esi

00003640 <hound_service_unregister_context>:
    3640:	55                   	push   %ebp
    3641:	89 e5                	mov    %esp,%ebp
    3643:	53                   	push   %ebx
    3644:	83 ec 14             	sub    $0x14,%esp
    3647:	8b 45 08             	mov    0x8(%ebp),%eax
    364a:	85 c0                	test   %eax,%eax
    364c:	74 41                	je     368f <hound_service_unregister_context+0x4f>
    364e:	83 ec 0c             	sub    $0xc,%esp
    3651:	50                   	push   %eax
    3652:	e8 39 60 00 00       	call   9690 <async_exchange_begin@plt>
    3657:	83 c4 0c             	add    $0xc,%esp
    365a:	89 c3                	mov    %eax,%ebx
    365c:	8b 45 0c             	mov    0xc(%ebp),%eax
    365f:	6a 00                	push   $0x0
    3661:	6a 00                	push   $0x0
    3663:	6a 00                	push   $0x0
    3665:	6a 00                	push   $0x0
    3667:	6a 00                	push   $0x0
    3669:	6a 00                	push   $0x0
    366b:	6a 00                	push   $0x0
    366d:	6a 00                	push   $0x0
    366f:	50                   	push   %eax
    3670:	68 01 04 00 00       	push   $0x401
    3675:	53                   	push   %ebx
    3676:	e8 75 5d 00 00       	call   93f0 <async_req_fast@plt>
    367b:	83 c4 24             	add    $0x24,%esp
    367e:	89 45 f4             	mov    %eax,-0xc(%ebp)
    3681:	53                   	push   %ebx
    3682:	e8 f9 5d 00 00       	call   9480 <async_exchange_end@plt>
    3687:	8b 45 f4             	mov    -0xc(%ebp),%eax
    368a:	8b 5d fc             	mov    -0x4(%ebp),%ebx
    368d:	c9                   	leave  
    368e:	c3                   	ret    
    368f:	52                   	push   %edx
    3690:	68 96 00 00 00       	push   $0x96
    3695:	68 bb 7b 00 00       	push   $0x7bbb
    369a:	68 ca 7b 00 00       	push   $0x7bca
    369f:	e8 fc 5d 00 00       	call   94a0 <assert_abort@plt>
    36a4:	8d b6 00 00 00 00    	lea    0x0(%esi),%esi
    36aa:	8d bf 00 00 00 00    	lea    0x0(%edi),%edi

000036b0 <hound_service_get_list>:
    36b0:	55                   	push   %ebp
    36b1:	89 e5                	mov    %esp,%ebp
    36b3:	57                   	push   %edi
    36b4:	56                   	push   %esi
    36b5:	53                   	push   %ebx
    36b6:	83 ec 4c             	sub    $0x4c,%esp
    36b9:	8b 45 08             	mov    0x8(%ebp),%eax
    36bc:	8b 5d 14             	mov    0x14(%ebp),%ebx
    36bf:	8b 75 18             	mov    0x18(%ebp),%esi
    36c2:	85 c0                	test   %eax,%eax
    36c4:	0f 84 b8 02 00 00    	je     3982 <hound_service_get_list+0x2d2>
    36ca:	8b 7d 0c             	mov    0xc(%ebp),%edi
    36cd:	85 ff                	test   %edi,%edi
    36cf:	0f 84 98 02 00 00    	je     396d <hound_service_get_list+0x2bd>
    36d5:	8b 55 10             	mov    0x10(%ebp),%edx
    36d8:	85 d2                	test   %edx,%edx
    36da:	0f 84 78 02 00 00    	je     3958 <hound_service_get_list+0x2a8>
    36e0:	85 f6                	test   %esi,%esi
    36e2:	0f 84 10 02 00 00    	je     38f8 <hound_service_get_list+0x248>
    36e8:	f6 c3 10             	test   $0x10,%bl
    36eb:	0f 84 49 02 00 00    	je     393a <hound_service_get_list+0x28a>
    36f1:	83 ec 0c             	sub    $0xc,%esp
    36f4:	50                   	push   %eax
    36f5:	e8 96 5f 00 00       	call   9690 <async_exchange_begin@plt>
    36fa:	83 c4 10             	add    $0x10,%esp
    36fd:	89 c2                	mov    %eax,%edx
    36ff:	89 45 b4             	mov    %eax,-0x4c(%ebp)
    3702:	85 c0                	test   %eax,%eax
    3704:	0f 84 3f 02 00 00    	je     3949 <hound_service_get_list+0x299>
    370a:	50                   	push   %eax
    370b:	8d 45 c4             	lea    -0x3c(%ebp),%eax
    370e:	50                   	push   %eax
    370f:	8b 45 10             	mov    0x10(%ebp),%eax
    3712:	6a 00                	push   $0x0
    3714:	6a 01                	push   $0x1
    3716:	8b 00                	mov    (%eax),%eax
    3718:	50                   	push   %eax
    3719:	53                   	push   %ebx
    371a:	68 02 04 00 00       	push   $0x402
    371f:	52                   	push   %edx
    3720:	e8 2b 5d 00 00       	call   9450 <async_send_fast@plt>
    3725:	83 c4 20             	add    $0x20,%esp
    3728:	89 c3                	mov    %eax,%ebx
    372a:	c7 45 c0 00 00 00 00 	movl   $0x0,-0x40(%ebp)
    3731:	85 c0                	test   %eax,%eax
    3733:	0f 85 77 01 00 00    	jne    38b0 <hound_service_get_list+0x200>
    3739:	50                   	push   %eax
    373a:	50                   	push   %eax
    373b:	8d 45 c0             	lea    -0x40(%ebp),%eax
    373e:	50                   	push   %eax
    373f:	53                   	push   %ebx
    3740:	e8 0b 5c 00 00       	call   9350 <async_wait_for@plt>
    3745:	8b 45 c0             	mov    -0x40(%ebp),%eax
    3748:	83 c4 10             	add    $0x10,%esp
    374b:	89 45 ac             	mov    %eax,-0x54(%ebp)
    374e:	85 c0                	test   %eax,%eax
    3750:	0f 85 7f 01 00 00    	jne    38d5 <hound_service_get_list+0x225>
    3756:	8b 45 c8             	mov    -0x38(%ebp),%eax
    3759:	89 45 b0             	mov    %eax,-0x50(%ebp)
    375c:	85 c0                	test   %eax,%eax
    375e:	75 38                	jne    3798 <hound_service_get_list+0xe8>
    3760:	83 ec 0c             	sub    $0xc,%esp
    3763:	8b 5d b4             	mov    -0x4c(%ebp),%ebx
    3766:	53                   	push   %ebx
    3767:	e8 14 5d 00 00       	call   9480 <async_exchange_end@plt>
    376c:	8b 75 c0             	mov    -0x40(%ebp),%esi
    376f:	83 c4 10             	add    $0x10,%esp
    3772:	31 db                	xor    %ebx,%ebx
    3774:	85 f6                	test   %esi,%esi
    3776:	0f 85 18 01 00 00    	jne    3894 <hound_service_get_list+0x1e4>
    377c:	8b 45 0c             	mov    0xc(%ebp),%eax
    377f:	8b 4d b0             	mov    -0x50(%ebp),%ecx
    3782:	89 18                	mov    %ebx,(%eax)
    3784:	8b 45 10             	mov    0x10(%ebp),%eax
    3787:	89 08                	mov    %ecx,(%eax)
    3789:	8b 45 ac             	mov    -0x54(%ebp),%eax
    378c:	8d 65 f4             	lea    -0xc(%ebp),%esp
    378f:	5b                   	pop    %ebx
    3790:	5e                   	pop    %esi
    3791:	5f                   	pop    %edi
    3792:	5d                   	pop    %ebp
    3793:	c3                   	ret    
    3794:	8d 74 26 00          	lea    0x0(%esi,%eiz,1),%esi
    3798:	89 c7                	mov    %eax,%edi
    379a:	52                   	push   %edx
    379b:	52                   	push   %edx
    379c:	6a 04                	push   $0x4
    379e:	50                   	push   %eax
    379f:	e8 0c 5d 00 00       	call   94b0 <calloc@plt>
    37a4:	59                   	pop    %ecx
    37a5:	89 c6                	mov    %eax,%esi
    37a7:	5b                   	pop    %ebx
    37a8:	6a 04                	push   $0x4
    37aa:	57                   	push   %edi
    37ab:	e8 00 5d 00 00       	call   94b0 <calloc@plt>
    37b0:	83 c4 10             	add    $0x10,%esp
    37b3:	89 c3                	mov    %eax,%ebx
    37b5:	85 c0                	test   %eax,%eax
    37b7:	0f 84 91 00 00 00    	je     384e <hound_service_get_list+0x19e>
    37bd:	85 f6                	test   %esi,%esi
    37bf:	0f 84 89 00 00 00    	je     384e <hound_service_get_list+0x19e>
    37c5:	8b 45 c0             	mov    -0x40(%ebp),%eax
    37c8:	85 c0                	test   %eax,%eax
    37ca:	0f 85 85 00 00 00    	jne    3855 <hound_service_get_list+0x1a5>
    37d0:	8b 45 b0             	mov    -0x50(%ebp),%eax
    37d3:	8b 7d b4             	mov    -0x4c(%ebp),%edi
    37d6:	c1 e0 02             	shl    $0x2,%eax
    37d9:	51                   	push   %ecx
    37da:	50                   	push   %eax
    37db:	56                   	push   %esi
    37dc:	57                   	push   %edi
    37dd:	e8 de 5d 00 00       	call   95c0 <async_data_read_start@plt>
    37e2:	83 c4 10             	add    $0x10,%esp
    37e5:	89 45 c0             	mov    %eax,-0x40(%ebp)
    37e8:	85 c0                	test   %eax,%eax
    37ea:	75 69                	jne    3855 <hound_service_get_list+0x1a5>
    37ec:	31 ff                	xor    %edi,%edi
    37ee:	89 5d a8             	mov    %ebx,-0x58(%ebp)
    37f1:	eb 42                	jmp    3835 <hound_service_get_list+0x185>
    37f3:	90                   	nop
    37f4:	8d 74 26 00          	lea    0x0(%esi,%eiz,1),%esi
    37f8:	50                   	push   %eax
    37f9:	8b 04 be             	mov    (%esi,%edi,4),%eax
    37fc:	40                   	inc    %eax
    37fd:	50                   	push   %eax
    37fe:	6a 00                	push   $0x0
    3800:	53                   	push   %ebx
    3801:	e8 8a 5d 00 00       	call   9590 <memset@plt>
    3806:	83 c4 0c             	add    $0xc,%esp
    3809:	8b 04 be             	mov    (%esi,%edi,4),%eax
    380c:	8b 55 b4             	mov    -0x4c(%ebp),%edx
    380f:	50                   	push   %eax
    3810:	53                   	push   %ebx
    3811:	52                   	push   %edx
    3812:	e8 a9 5d 00 00       	call   95c0 <async_data_read_start@plt>
    3817:	8b 4d a8             	mov    -0x58(%ebp),%ecx
    381a:	83 c4 10             	add    $0x10,%esp
    381d:	89 45 c0             	mov    %eax,-0x40(%ebp)
    3820:	89 1c b9             	mov    %ebx,(%ecx,%edi,4)
    3823:	47                   	inc    %edi
    3824:	39 7d b0             	cmp    %edi,-0x50(%ebp)
    3827:	0f 84 72 01 00 00    	je     399f <hound_service_get_list+0x2ef>
    382d:	85 c0                	test   %eax,%eax
    382f:	0f 85 62 01 00 00    	jne    3997 <hound_service_get_list+0x2e7>
    3835:	83 ec 0c             	sub    $0xc,%esp
    3838:	8b 04 be             	mov    (%esi,%edi,4),%eax
    383b:	40                   	inc    %eax
    383c:	50                   	push   %eax
    383d:	e8 8e 5b 00 00       	call   93d0 <malloc@plt>
    3842:	83 c4 10             	add    $0x10,%esp
    3845:	89 c3                	mov    %eax,%ebx
    3847:	85 c0                	test   %eax,%eax
    3849:	75 ad                	jne    37f8 <hound_service_get_list+0x148>
    384b:	8b 5d a8             	mov    -0x58(%ebp),%ebx
    384e:	c7 45 c0 fe ff ff ff 	movl   $0xfffffffe,-0x40(%ebp)
    3855:	83 ec 0c             	sub    $0xc,%esp
    3858:	56                   	push   %esi
    3859:	e8 f2 5e 00 00       	call   9750 <free@plt>
    385e:	58                   	pop    %eax
    385f:	8b 45 b4             	mov    -0x4c(%ebp),%eax
    3862:	50                   	push   %eax
    3863:	e8 18 5c 00 00       	call   9480 <async_exchange_end@plt>
    3868:	8b 45 c0             	mov    -0x40(%ebp),%eax
    386b:	83 c4 10             	add    $0x10,%esp
    386e:	85 c0                	test   %eax,%eax
    3870:	0f 84 06 ff ff ff    	je     377c <hound_service_get_list+0xcc>
    3876:	31 f6                	xor    %esi,%esi
    3878:	8b 7d b0             	mov    -0x50(%ebp),%edi
    387b:	90                   	nop
    387c:	8d 74 26 00          	lea    0x0(%esi,%eiz,1),%esi
    3880:	83 ec 0c             	sub    $0xc,%esp
    3883:	8b 04 b3             	mov    (%ebx,%esi,4),%eax
    3886:	46                   	inc    %esi
    3887:	50                   	push   %eax
    3888:	e8 c3 5e 00 00       	call   9750 <free@plt>
    388d:	83 c4 10             	add    $0x10,%esp
    3890:	39 f7                	cmp    %esi,%edi
    3892:	75 ec                	jne    3880 <hound_service_get_list+0x1d0>
    3894:	83 ec 0c             	sub    $0xc,%esp
    3897:	53                   	push   %ebx
    3898:	e8 b3 5e 00 00       	call   9750 <free@plt>
    389d:	8b 45 c0             	mov    -0x40(%ebp),%eax
    38a0:	83 c4 10             	add    $0x10,%esp
    38a3:	89 45 ac             	mov    %eax,-0x54(%ebp)
    38a6:	8d 65 f4             	lea    -0xc(%ebp),%esp
    38a9:	5b                   	pop    %ebx
    38aa:	5e                   	pop    %esi
    38ab:	5f                   	pop    %edi
    38ac:	5d                   	pop    %ebp
    38ad:	c3                   	ret    
    38ae:	66 90                	xchg   %ax,%ax
    38b0:	83 ec 0c             	sub    $0xc,%esp
    38b3:	56                   	push   %esi
    38b4:	e8 a7 5d 00 00       	call   9660 <str_size@plt>
    38b9:	83 c4 0c             	add    $0xc,%esp
    38bc:	8b 7d b4             	mov    -0x4c(%ebp),%edi
    38bf:	50                   	push   %eax
    38c0:	56                   	push   %esi
    38c1:	57                   	push   %edi
    38c2:	e8 b9 5a 00 00       	call   9380 <async_data_write_start@plt>
    38c7:	83 c4 10             	add    $0x10,%esp
    38ca:	89 45 c0             	mov    %eax,-0x40(%ebp)
    38cd:	85 c0                	test   %eax,%eax
    38cf:	0f 84 64 fe ff ff    	je     3739 <hound_service_get_list+0x89>
    38d5:	83 ec 0c             	sub    $0xc,%esp
    38d8:	8b 75 b4             	mov    -0x4c(%ebp),%esi
    38db:	56                   	push   %esi
    38dc:	e8 9f 5b 00 00       	call   9480 <async_exchange_end@plt>
    38e1:	8b 45 c0             	mov    -0x40(%ebp),%eax
    38e4:	83 c4 10             	add    $0x10,%esp
    38e7:	89 45 ac             	mov    %eax,-0x54(%ebp)
    38ea:	8d 65 f4             	lea    -0xc(%ebp),%esp
    38ed:	5b                   	pop    %ebx
    38ee:	5e                   	pop    %esi
    38ef:	5f                   	pop    %edi
    38f0:	5d                   	pop    %ebp
    38f1:	c3                   	ret    
    38f2:	8d b6 00 00 00 00    	lea    0x0(%esi),%esi
    38f8:	83 ec 0c             	sub    $0xc,%esp
    38fb:	50                   	push   %eax
    38fc:	e8 8f 5d 00 00       	call   9690 <async_exchange_begin@plt>
    3901:	83 c4 10             	add    $0x10,%esp
    3904:	89 45 b4             	mov    %eax,-0x4c(%ebp)
    3907:	85 c0                	test   %eax,%eax
    3909:	74 3e                	je     3949 <hound_service_get_list+0x299>
    390b:	50                   	push   %eax
    390c:	8d 45 c4             	lea    -0x3c(%ebp),%eax
    390f:	50                   	push   %eax
    3910:	8b 45 10             	mov    0x10(%ebp),%eax
    3913:	6a 00                	push   $0x0
    3915:	6a 00                	push   $0x0
    3917:	8b 10                	mov    (%eax),%edx
    3919:	8b 4d b4             	mov    -0x4c(%ebp),%ecx
    391c:	52                   	push   %edx
    391d:	53                   	push   %ebx
    391e:	68 02 04 00 00       	push   $0x402
    3923:	51                   	push   %ecx
    3924:	e8 27 5b 00 00       	call   9450 <async_send_fast@plt>
    3929:	c7 45 c0 00 00 00 00 	movl   $0x0,-0x40(%ebp)
    3930:	89 c3                	mov    %eax,%ebx
    3932:	83 c4 20             	add    $0x20,%esp
    3935:	e9 ff fd ff ff       	jmp    3739 <hound_service_get_list+0x89>
    393a:	c7 45 ac f2 ff ff ff 	movl   $0xfffffff2,-0x54(%ebp)
    3941:	8b 45 ac             	mov    -0x54(%ebp),%eax
    3944:	e9 43 fe ff ff       	jmp    378c <hound_service_get_list+0xdc>
    3949:	c7 45 ac fe ff ff ff 	movl   $0xfffffffe,-0x54(%ebp)
    3950:	8b 45 ac             	mov    -0x54(%ebp),%eax
    3953:	e9 34 fe ff ff       	jmp    378c <hound_service_get_list+0xdc>
    3958:	50                   	push   %eax
    3959:	68 ad 00 00 00       	push   $0xad
    395e:	68 bb 7b 00 00       	push   $0x7bbb
    3963:	68 a7 7b 00 00       	push   $0x7ba7
    3968:	e8 33 5b 00 00       	call   94a0 <assert_abort@plt>
    396d:	51                   	push   %ecx
    396e:	68 ac 00 00 00       	push   $0xac
    3973:	68 bb 7b 00 00       	push   $0x7bbb
    3978:	68 d4 7b 00 00       	push   $0x7bd4
    397d:	e8 1e 5b 00 00       	call   94a0 <assert_abort@plt>
    3982:	50                   	push   %eax
    3983:	68 ab 00 00 00       	push   $0xab
    3988:	68 bb 7b 00 00       	push   $0x7bbb
    398d:	68 ca 7b 00 00       	push   $0x7bca
    3992:	e8 09 5b 00 00       	call   94a0 <assert_abort@plt>
    3997:	8b 5d a8             	mov    -0x58(%ebp),%ebx
    399a:	e9 b6 fe ff ff       	jmp    3855 <hound_service_get_list+0x1a5>
    399f:	89 cb                	mov    %ecx,%ebx
    39a1:	e9 af fe ff ff       	jmp    3855 <hound_service_get_list+0x1a5>
    39a6:	8d 76 00             	lea    0x0(%esi),%esi
    39a9:	8d bc 27 00 00 00 00 	lea    0x0(%edi,%eiz,1),%edi

000039b0 <hound_service_connect_source_sink>:
    39b0:	55                   	push   %ebp
    39b1:	89 e5                	mov    %esp,%ebp
    39b3:	57                   	push   %edi
    39b4:	56                   	push   %esi
    39b5:	53                   	push   %ebx
    39b6:	83 ec 3c             	sub    $0x3c,%esp
    39b9:	8b 45 08             	mov    0x8(%ebp),%eax
    39bc:	8b 75 0c             	mov    0xc(%ebp),%esi
    39bf:	85 c0                	test   %eax,%eax
    39c1:	0f 84 f2 00 00 00    	je     3ab9 <hound_service_connect_source_sink+0x109>
    39c7:	85 f6                	test   %esi,%esi
    39c9:	0f 84 d5 00 00 00    	je     3aa4 <hound_service_connect_source_sink+0xf4>
    39cf:	8b 55 10             	mov    0x10(%ebp),%edx
    39d2:	85 d2                	test   %edx,%edx
    39d4:	0f 84 b5 00 00 00    	je     3a8f <hound_service_connect_source_sink+0xdf>
    39da:	83 ec 0c             	sub    $0xc,%esp
    39dd:	50                   	push   %eax
    39de:	e8 ad 5c 00 00       	call   9690 <async_exchange_begin@plt>
    39e3:	83 c4 10             	add    $0x10,%esp
    39e6:	89 c3                	mov    %eax,%ebx
    39e8:	85 c0                	test   %eax,%eax
    39ea:	0f 84 98 00 00 00    	je     3a88 <hound_service_connect_source_sink+0xd8>
    39f0:	8d 45 c4             	lea    -0x3c(%ebp),%eax
    39f3:	57                   	push   %edi
    39f4:	50                   	push   %eax
    39f5:	6a 00                	push   $0x0
    39f7:	6a 00                	push   $0x0
    39f9:	6a 00                	push   $0x0
    39fb:	6a 00                	push   $0x0
    39fd:	68 03 04 00 00       	push   $0x403
    3a02:	53                   	push   %ebx
    3a03:	e8 48 5a 00 00       	call   9450 <async_send_fast@plt>
    3a08:	83 c4 20             	add    $0x20,%esp
    3a0b:	89 c7                	mov    %eax,%edi
    3a0d:	85 c0                	test   %eax,%eax
    3a0f:	75 2f                	jne    3a40 <hound_service_connect_source_sink+0x90>
    3a11:	c7 45 c0 f8 ff ff ff 	movl   $0xfffffff8,-0x40(%ebp)
    3a18:	50                   	push   %eax
    3a19:	50                   	push   %eax
    3a1a:	8d 45 c0             	lea    -0x40(%ebp),%eax
    3a1d:	50                   	push   %eax
    3a1e:	57                   	push   %edi
    3a1f:	e8 2c 59 00 00       	call   9350 <async_wait_for@plt>
    3a24:	89 1c 24             	mov    %ebx,(%esp)
    3a27:	e8 54 5a 00 00       	call   9480 <async_exchange_end@plt>
    3a2c:	8b 45 c0             	mov    -0x40(%ebp),%eax
    3a2f:	83 c4 10             	add    $0x10,%esp
    3a32:	8d 65 f4             	lea    -0xc(%ebp),%esp
    3a35:	5b                   	pop    %ebx
    3a36:	5e                   	pop    %esi
    3a37:	5f                   	pop    %edi
    3a38:	5d                   	pop    %ebp
    3a39:	c3                   	ret    
    3a3a:	8d b6 00 00 00 00    	lea    0x0(%esi),%esi
    3a40:	83 ec 0c             	sub    $0xc,%esp
    3a43:	c7 45 c0 00 00 00 00 	movl   $0x0,-0x40(%ebp)
    3a4a:	56                   	push   %esi
    3a4b:	e8 10 5c 00 00       	call   9660 <str_size@plt>
    3a50:	83 c4 0c             	add    $0xc,%esp
    3a53:	50                   	push   %eax
    3a54:	56                   	push   %esi
    3a55:	53                   	push   %ebx
    3a56:	e8 25 59 00 00       	call   9380 <async_data_write_start@plt>
    3a5b:	83 c4 10             	add    $0x10,%esp
    3a5e:	89 45 c0             	mov    %eax,-0x40(%ebp)
    3a61:	85 c0                	test   %eax,%eax
    3a63:	75 b3                	jne    3a18 <hound_service_connect_source_sink+0x68>
    3a65:	83 ec 0c             	sub    $0xc,%esp
    3a68:	8b 55 10             	mov    0x10(%ebp),%edx
    3a6b:	52                   	push   %edx
    3a6c:	e8 ef 5b 00 00       	call   9660 <str_size@plt>
    3a71:	83 c4 0c             	add    $0xc,%esp
    3a74:	8b 4d 10             	mov    0x10(%ebp),%ecx
    3a77:	50                   	push   %eax
    3a78:	51                   	push   %ecx
    3a79:	53                   	push   %ebx
    3a7a:	e8 01 59 00 00       	call   9380 <async_data_write_start@plt>
    3a7f:	83 c4 10             	add    $0x10,%esp
    3a82:	89 45 c0             	mov    %eax,-0x40(%ebp)
    3a85:	eb 91                	jmp    3a18 <hound_service_connect_source_sink+0x68>
    3a87:	90                   	nop
    3a88:	b8 fe ff ff ff       	mov    $0xfffffffe,%eax
    3a8d:	eb a3                	jmp    3a32 <hound_service_connect_source_sink+0x82>
    3a8f:	50                   	push   %eax
    3a90:	68 f7 00 00 00       	push   $0xf7
    3a95:	68 bb 7b 00 00       	push   $0x7bbb
    3a9a:	68 df 7b 00 00       	push   $0x7bdf
    3a9f:	e8 fc 59 00 00       	call   94a0 <assert_abort@plt>
    3aa4:	51                   	push   %ecx
    3aa5:	68 f6 00 00 00       	push   $0xf6
    3aaa:	68 bb 7b 00 00       	push   $0x7bbb
    3aaf:	68 d8 7b 00 00       	push   $0x7bd8
    3ab4:	e8 e7 59 00 00       	call   94a0 <assert_abort@plt>
    3ab9:	53                   	push   %ebx
    3aba:	68 f5 00 00 00       	push   $0xf5
    3abf:	68 bb 7b 00 00       	push   $0x7bbb
    3ac4:	68 ca 7b 00 00       	push   $0x7bca
    3ac9:	e8 d2 59 00 00       	call   94a0 <assert_abort@plt>
    3ace:	66 90                	xchg   %ax,%ax

00003ad0 <hound_service_disconnect_source_sink>:
    3ad0:	55                   	push   %ebp
    3ad1:	89 e5                	mov    %esp,%ebp
    3ad3:	56                   	push   %esi
    3ad4:	53                   	push   %ebx
    3ad5:	83 ec 30             	sub    $0x30,%esp
    3ad8:	8b 45 08             	mov    0x8(%ebp),%eax
    3adb:	85 c0                	test   %eax,%eax
    3add:	0f 84 c1 00 00 00    	je     3ba4 <hound_service_disconnect_source_sink+0xd4>
    3ae3:	83 ec 0c             	sub    $0xc,%esp
    3ae6:	50                   	push   %eax
    3ae7:	e8 a4 5b 00 00       	call   9690 <async_exchange_begin@plt>
    3aec:	83 c4 10             	add    $0x10,%esp
    3aef:	89 c3                	mov    %eax,%ebx
    3af1:	85 c0                	test   %eax,%eax
    3af3:	0f 84 9f 00 00 00    	je     3b98 <hound_service_disconnect_source_sink+0xc8>
    3af9:	50                   	push   %eax
    3afa:	8d 45 d4             	lea    -0x2c(%ebp),%eax
    3afd:	50                   	push   %eax
    3afe:	6a 00                	push   $0x0
    3b00:	6a 00                	push   $0x0
    3b02:	6a 00                	push   $0x0
    3b04:	6a 00                	push   $0x0
    3b06:	68 04 04 00 00       	push   $0x404
    3b0b:	53                   	push   %ebx
    3b0c:	e8 3f 59 00 00       	call   9450 <async_send_fast@plt>
    3b11:	83 c4 20             	add    $0x20,%esp
    3b14:	89 c6                	mov    %eax,%esi
    3b16:	85 c0                	test   %eax,%eax
    3b18:	74 6e                	je     3b88 <hound_service_disconnect_source_sink+0xb8>
    3b1a:	83 ec 0c             	sub    $0xc,%esp
    3b1d:	8b 45 0c             	mov    0xc(%ebp),%eax
    3b20:	c7 45 d0 00 00 00 00 	movl   $0x0,-0x30(%ebp)
    3b27:	50                   	push   %eax
    3b28:	e8 33 5b 00 00       	call   9660 <str_size@plt>
    3b2d:	83 c4 0c             	add    $0xc,%esp
    3b30:	8b 55 0c             	mov    0xc(%ebp),%edx
    3b33:	50                   	push   %eax
    3b34:	52                   	push   %edx
    3b35:	53                   	push   %ebx
    3b36:	e8 45 58 00 00       	call   9380 <async_data_write_start@plt>
    3b3b:	83 c4 10             	add    $0x10,%esp
    3b3e:	89 45 d0             	mov    %eax,-0x30(%ebp)
    3b41:	85 c0                	test   %eax,%eax
    3b43:	75 20                	jne    3b65 <hound_service_disconnect_source_sink+0x95>
    3b45:	83 ec 0c             	sub    $0xc,%esp
    3b48:	8b 45 10             	mov    0x10(%ebp),%eax
    3b4b:	50                   	push   %eax
    3b4c:	e8 0f 5b 00 00       	call   9660 <str_size@plt>
    3b51:	83 c4 0c             	add    $0xc,%esp
    3b54:	50                   	push   %eax
    3b55:	8b 45 10             	mov    0x10(%ebp),%eax
    3b58:	50                   	push   %eax
    3b59:	53                   	push   %ebx
    3b5a:	e8 21 58 00 00       	call   9380 <async_data_write_start@plt>
    3b5f:	83 c4 10             	add    $0x10,%esp
    3b62:	89 45 d0             	mov    %eax,-0x30(%ebp)
    3b65:	8d 45 d0             	lea    -0x30(%ebp),%eax
    3b68:	51                   	push   %ecx
    3b69:	51                   	push   %ecx
    3b6a:	50                   	push   %eax
    3b6b:	56                   	push   %esi
    3b6c:	e8 df 57 00 00       	call   9350 <async_wait_for@plt>
    3b71:	89 1c 24             	mov    %ebx,(%esp)
    3b74:	e8 07 59 00 00       	call   9480 <async_exchange_end@plt>
    3b79:	83 c4 10             	add    $0x10,%esp
    3b7c:	8d 65 f8             	lea    -0x8(%ebp),%esp
    3b7f:	b8 f5 ff ff ff       	mov    $0xfffffff5,%eax
    3b84:	5b                   	pop    %ebx
    3b85:	5e                   	pop    %esi
    3b86:	5d                   	pop    %ebp
    3b87:	c3                   	ret    
    3b88:	c7 45 d0 f8 ff ff ff 	movl   $0xfffffff8,-0x30(%ebp)
    3b8f:	eb d4                	jmp    3b65 <hound_service_disconnect_source_sink+0x95>
    3b91:	8d b4 26 00 00 00 00 	lea    0x0(%esi,%eiz,1),%esi
    3b98:	8d 65 f8             	lea    -0x8(%ebp),%esp
    3b9b:	b8 fe ff ff ff       	mov    $0xfffffffe,%eax
    3ba0:	5b                   	pop    %ebx
    3ba1:	5e                   	pop    %esi
    3ba2:	5d                   	pop    %ebp
    3ba3:	c3                   	ret    
    3ba4:	50                   	push   %eax
    3ba5:	68 12 01 00 00       	push   $0x112
    3baa:	68 bb 7b 00 00       	push   $0x7bbb
    3baf:	68 ca 7b 00 00       	push   $0x7bca
    3bb4:	e8 e7 58 00 00       	call   94a0 <assert_abort@plt>
    3bb9:	8d b4 26 00 00 00 00 	lea    0x0(%esi,%eiz,1),%esi

00003bc0 <hound_service_stream_enter>:
    3bc0:	55                   	push   %ebp
    3bc1:	ba 1f 85 eb 51       	mov    $0x51eb851f,%edx
    3bc6:	89 e5                	mov    %esp,%ebp
    3bc8:	89 d0                	mov    %edx,%eax
    3bca:	83 ec 0c             	sub    $0xc,%esp
    3bcd:	31 c9                	xor    %ecx,%ecx
    3bcf:	f7 65 18             	mull   0x18(%ebp)
    3bd2:	8a 4d 14             	mov    0x14(%ebp),%cl
    3bd5:	31 c0                	xor    %eax,%eax
    3bd7:	c1 ea 05             	shr    $0x5,%edx
    3bda:	8a 45 1c             	mov    0x1c(%ebp),%al
    3bdd:	c1 e1 10             	shl    $0x10,%ecx
    3be0:	81 e2 ff ff 00 00    	and    $0xffff,%edx
    3be6:	c1 e0 18             	shl    $0x18,%eax
    3be9:	09 ca                	or     %ecx,%edx
    3beb:	09 c2                	or     %eax,%edx
    3bed:	8b 45 20             	mov    0x20(%ebp),%eax
    3bf0:	6a 00                	push   $0x0
    3bf2:	8b 4d 0c             	mov    0xc(%ebp),%ecx
    3bf5:	6a 00                	push   $0x0
    3bf7:	6a 00                	push   $0x0
    3bf9:	6a 00                	push   $0x0
    3bfb:	6a 00                	push   $0x0
    3bfd:	50                   	push   %eax
    3bfe:	8b 45 08             	mov    0x8(%ebp),%eax
    3c01:	52                   	push   %edx
    3c02:	8b 55 10             	mov    0x10(%ebp),%edx
    3c05:	52                   	push   %edx
    3c06:	51                   	push   %ecx
    3c07:	68 05 04 00 00       	push   $0x405
    3c0c:	50                   	push   %eax
    3c0d:	e8 de 57 00 00       	call   93f0 <async_req_fast@plt>
    3c12:	c9                   	leave  
    3c13:	c3                   	ret    
    3c14:	8d b6 00 00 00 00    	lea    0x0(%esi),%esi
    3c1a:	8d bf 00 00 00 00    	lea    0x0(%edi),%edi

00003c20 <hound_service_stream_exit>:
    3c20:	55                   	push   %ebp
    3c21:	89 e5                	mov    %esp,%ebp
    3c23:	83 ec 0c             	sub    $0xc,%esp
    3c26:	8b 45 08             	mov    0x8(%ebp),%eax
    3c29:	6a 00                	push   $0x0
    3c2b:	6a 00                	push   $0x0
    3c2d:	6a 00                	push   $0x0
    3c2f:	6a 00                	push   $0x0
    3c31:	6a 00                	push   $0x0
    3c33:	6a 00                	push   $0x0
    3c35:	6a 00                	push   $0x0
    3c37:	6a 00                	push   $0x0
    3c39:	6a 00                	push   $0x0
    3c3b:	68 06 04 00 00       	push   $0x406
    3c40:	50                   	push   %eax
    3c41:	e8 aa 57 00 00       	call   93f0 <async_req_fast@plt>
    3c46:	c9                   	leave  
    3c47:	c3                   	ret    
    3c48:	90                   	nop
    3c49:	8d b4 26 00 00 00 00 	lea    0x0(%esi,%eiz,1),%esi

00003c50 <hound_service_stream_drain>:
    3c50:	55                   	push   %ebp
    3c51:	89 e5                	mov    %esp,%ebp
    3c53:	83 ec 0c             	sub    $0xc,%esp
    3c56:	8b 45 08             	mov    0x8(%ebp),%eax
    3c59:	6a 00                	push   $0x0
    3c5b:	6a 00                	push   $0x0
    3c5d:	6a 00                	push   $0x0
    3c5f:	6a 00                	push   $0x0
    3c61:	6a 00                	push   $0x0
    3c63:	6a 00                	push   $0x0
    3c65:	6a 00                	push   $0x0
    3c67:	6a 00                	push   $0x0
    3c69:	6a 00                	push   $0x0
    3c6b:	68 07 04 00 00       	push   $0x407
    3c70:	50                   	push   %eax
    3c71:	e8 7a 57 00 00       	call   93f0 <async_req_fast@plt>
    3c76:	c9                   	leave  
    3c77:	c3                   	ret    
    3c78:	90                   	nop
    3c79:	8d b4 26 00 00 00 00 	lea    0x0(%esi,%eiz,1),%esi

00003c80 <hound_service_stream_write>:
    3c80:	55                   	push   %ebp
    3c81:	89 e5                	mov    %esp,%ebp
    3c83:	5d                   	pop    %ebp
    3c84:	e9 f7 56 00 00       	jmp    9380 <async_data_write_start@plt>
    3c89:	8d b4 26 00 00 00 00 	lea    0x0(%esi,%eiz,1),%esi

00003c90 <hound_service_stream_read>:
    3c90:	55                   	push   %ebp
    3c91:	89 e5                	mov    %esp,%ebp
    3c93:	5d                   	pop    %ebp
    3c94:	e9 27 59 00 00       	jmp    95c0 <async_data_read_start@plt>
    3c99:	8d b4 26 00 00 00 00 	lea    0x0(%esi,%eiz,1),%esi

00003ca0 <hound_service_set_server_iface>:
    3ca0:	55                   	push   %ebp
    3ca1:	89 e5                	mov    %esp,%ebp
    3ca3:	8b 45 08             	mov    0x8(%ebp),%eax
    3ca6:	5d                   	pop    %ebp
    3ca7:	a3 88 35 01 00       	mov    %eax,0x13588
    3cac:	c3                   	ret    
    3cad:	8d 76 00             	lea    0x0(%esi),%esi

00003cb0 <hound_connection_handler>:
    3cb0:	55                   	push   %ebp
    3cb1:	89 e5                	mov    %esp,%ebp
    3cb3:	57                   	push   %edi
    3cb4:	56                   	push   %esi
    3cb5:	53                   	push   %ebx
    3cb6:	83 ec 7c             	sub    $0x7c,%esp
    3cb9:	8b 1d 88 35 01 00    	mov    0x13588,%ebx
    3cbf:	8b 45 08             	mov    0x8(%ebp),%eax
    3cc2:	85 db                	test   %ebx,%ebx
    3cc4:	0f 84 4e 07 00 00    	je     4418 <hound_connection_handler+0x768>
    3cca:	51                   	push   %ecx
    3ccb:	51                   	push   %ecx
    3ccc:	6a 00                	push   $0x0
    3cce:	50                   	push   %eax
    3ccf:	e8 5c 57 00 00       	call   9430 <async_answer_0@plt>
    3cd4:	83 c4 10             	add    $0x10,%esp
    3cd7:	90                   	nop
    3cd8:	50                   	push   %eax
    3cd9:	50                   	push   %eax
    3cda:	8d 45 a0             	lea    -0x60(%ebp),%eax
    3cdd:	6a 00                	push   $0x0
    3cdf:	50                   	push   %eax
    3ce0:	e8 6b 59 00 00       	call   9650 <async_get_call_timeout@plt>
    3ce5:	89 c7                	mov    %eax,%edi
    3ce7:	8b 45 a0             	mov    -0x60(%ebp),%eax
    3cea:	2d 00 04 00 00       	sub    $0x400,%eax
    3cef:	83 c4 10             	add    $0x10,%esp
    3cf2:	83 f8 07             	cmp    $0x7,%eax
    3cf5:	0f 87 0d 04 00 00    	ja     4108 <hound_connection_handler+0x458>
    3cfb:	ff 24 85 fc 7b 00 00 	jmp    *0x7bfc(,%eax,4)
    3d02:	8d b6 00 00 00 00    	lea    0x0(%esi),%esi
    3d08:	a1 88 35 01 00       	mov    0x13588,%eax
    3d0d:	85 c0                	test   %eax,%eax
    3d0f:	0f 84 fb 01 00 00    	je     3f10 <hound_connection_handler+0x260>
    3d15:	8b 48 08             	mov    0x8(%eax),%ecx
    3d18:	85 c9                	test   %ecx,%ecx
    3d1a:	0f 84 f0 01 00 00    	je     3f10 <hound_connection_handler+0x260>
    3d20:	8b 58 18             	mov    0x18(%eax),%ebx
    3d23:	85 db                	test   %ebx,%ebx
    3d25:	0f 84 e5 01 00 00    	je     3f10 <hound_connection_handler+0x260>
    3d2b:	8b 50 1c             	mov    0x1c(%eax),%edx
    3d2e:	85 d2                	test   %edx,%edx
    3d30:	0f 84 da 01 00 00    	je     3f10 <hound_connection_handler+0x260>
    3d36:	8b 55 ac             	mov    -0x54(%ebp),%edx
    3d39:	8b 4d a4             	mov    -0x5c(%ebp),%ecx
    3d3c:	89 4d 80             	mov    %ecx,-0x80(%ebp)
    3d3f:	89 d1                	mov    %edx,%ecx
    3d41:	c1 e9 10             	shr    $0x10,%ecx
    3d44:	89 ce                	mov    %ecx,%esi
    3d46:	31 c9                	xor    %ecx,%ecx
    3d48:	66 89 d1             	mov    %dx,%cx
    3d4b:	81 e6 ff 00 00 00    	and    $0xff,%esi
    3d51:	c1 ea 18             	shr    $0x18,%edx
    3d54:	89 75 94             	mov    %esi,-0x6c(%ebp)
    3d57:	8d 0c 89             	lea    (%ecx,%ecx,4),%ecx
    3d5a:	89 55 84             	mov    %edx,-0x7c(%ebp)
    3d5d:	89 55 9c             	mov    %edx,-0x64(%ebp)
    3d60:	8d 55 88             	lea    -0x78(%ebp),%edx
    3d63:	52                   	push   %edx
    3d64:	8d 0c 89             	lea    (%ecx,%ecx,4),%ecx
    3d67:	c1 e1 02             	shl    $0x2,%ecx
    3d6a:	8b 55 b0             	mov    -0x50(%ebp),%edx
    3d6d:	52                   	push   %edx
    3d6e:	8b 55 84             	mov    -0x7c(%ebp),%edx
    3d71:	52                   	push   %edx
    3d72:	51                   	push   %ecx
    3d73:	56                   	push   %esi
    3d74:	89 4d 98             	mov    %ecx,-0x68(%ebp)
    3d77:	8b 75 80             	mov    -0x80(%ebp),%esi
    3d7a:	8b 4d a8             	mov    -0x58(%ebp),%ecx
    3d7d:	8b 40 2c             	mov    0x2c(%eax),%eax
    3d80:	51                   	push   %ecx
    3d81:	56                   	push   %esi
    3d82:	50                   	push   %eax
    3d83:	ff d3                	call   *%ebx
    3d85:	83 c4 20             	add    $0x20,%esp
    3d88:	89 45 84             	mov    %eax,-0x7c(%ebp)
    3d8b:	85 c0                	test   %eax,%eax
    3d8d:	0f 85 63 03 00 00    	jne    40f6 <hound_connection_handler+0x446>
    3d93:	a1 88 35 01 00       	mov    0x13588,%eax
    3d98:	52                   	push   %edx
    3d99:	52                   	push   %edx
    3d9a:	8b 4d 80             	mov    -0x80(%ebp),%ecx
    3d9d:	8b 58 2c             	mov    0x2c(%eax),%ebx
    3da0:	51                   	push   %ecx
    3da1:	53                   	push   %ebx
    3da2:	ff 50 08             	call   *0x8(%eax)
    3da5:	83 c4 10             	add    $0x10,%esp
    3da8:	84 c0                	test   %al,%al
    3daa:	a1 88 35 01 00       	mov    0x13588,%eax
    3daf:	0f 84 83 04 00 00    	je     4238 <hound_connection_handler+0x588>
    3db5:	8b 40 28             	mov    0x28(%eax),%eax
    3db8:	85 c0                	test   %eax,%eax
    3dba:	0f 84 50 01 00 00    	je     3f10 <hound_connection_handler+0x260>
    3dc0:	50                   	push   %eax
    3dc1:	50                   	push   %eax
    3dc2:	6a 00                	push   $0x0
    3dc4:	57                   	push   %edi
    3dc5:	e8 66 56 00 00       	call   9430 <async_answer_0@plt>
    3dca:	8b 45 88             	mov    -0x78(%ebp),%eax
    3dcd:	89 45 80             	mov    %eax,-0x80(%ebp)
    3dd0:	c7 45 90 00 00 00 00 	movl   $0x0,-0x70(%ebp)
    3dd7:	83 c4 10             	add    $0x10,%esp
    3dda:	8d 75 90             	lea    -0x70(%ebp),%esi
    3ddd:	8d 5d 8c             	lea    -0x74(%ebp),%ebx
    3de0:	50                   	push   %eax
    3de1:	8d 45 c4             	lea    -0x3c(%ebp),%eax
    3de4:	56                   	push   %esi
    3de5:	50                   	push   %eax
    3de6:	53                   	push   %ebx
    3de7:	e8 24 56 00 00       	call   9410 <async_data_read_receive_call@plt>
    3dec:	83 c4 10             	add    $0x10,%esp
    3def:	84 c0                	test   %al,%al
    3df1:	0f 84 61 05 00 00    	je     4358 <hound_connection_handler+0x6a8>
    3df7:	81 7d c4 07 04 00 00 	cmpl   $0x407,-0x3c(%ebp)
    3dfe:	74 5d                	je     3e5d <hound_connection_handler+0x1ad>
    3e00:	8b 45 84             	mov    -0x7c(%ebp),%eax
    3e03:	85 c0                	test   %eax,%eax
    3e05:	75 75                	jne    3e7c <hound_connection_handler+0x1cc>
    3e07:	83 ec 0c             	sub    $0xc,%esp
    3e0a:	8b 45 90             	mov    -0x70(%ebp),%eax
    3e0d:	50                   	push   %eax
    3e0e:	e8 bd 55 00 00       	call   93d0 <malloc@plt>
    3e13:	83 c4 10             	add    $0x10,%esp
    3e16:	89 c7                	mov    %eax,%edi
    3e18:	85 c0                	test   %eax,%eax
    3e1a:	0f 84 e0 05 00 00    	je     4400 <hound_connection_handler+0x750>
    3e20:	8b 45 90             	mov    -0x70(%ebp),%eax
    3e23:	51                   	push   %ecx
    3e24:	50                   	push   %eax
    3e25:	8b 45 80             	mov    -0x80(%ebp),%eax
    3e28:	57                   	push   %edi
    3e29:	50                   	push   %eax
    3e2a:	a1 88 35 01 00       	mov    0x13588,%eax
    3e2f:	ff 50 28             	call   *0x28(%eax)
    3e32:	83 c4 10             	add    $0x10,%esp
    3e35:	85 c0                	test   %eax,%eax
    3e37:	0f 84 5b 05 00 00    	je     4398 <hound_connection_handler+0x6e8>
    3e3d:	52                   	push   %edx
    3e3e:	8d 45 c4             	lea    -0x3c(%ebp),%eax
    3e41:	56                   	push   %esi
    3e42:	50                   	push   %eax
    3e43:	53                   	push   %ebx
    3e44:	e8 c7 55 00 00       	call   9410 <async_data_read_receive_call@plt>
    3e49:	83 c4 10             	add    $0x10,%esp
    3e4c:	84 c0                	test   %al,%al
    3e4e:	0f 84 04 05 00 00    	je     4358 <hound_connection_handler+0x6a8>
    3e54:	81 7d c4 07 04 00 00 	cmpl   $0x407,-0x3c(%ebp)
    3e5b:	75 aa                	jne    3e07 <hound_connection_handler+0x157>
    3e5d:	a1 88 35 01 00       	mov    0x13588,%eax
    3e62:	8b 40 20             	mov    0x20(%eax),%eax
    3e65:	85 c0                	test   %eax,%eax
    3e67:	0f 84 05 05 00 00    	je     4372 <hound_connection_handler+0x6c2>
    3e6d:	8d 76 00             	lea    0x0(%esi),%esi
    3e70:	83 ec 0c             	sub    $0xc,%esp
    3e73:	8b 7d 80             	mov    -0x80(%ebp),%edi
    3e76:	57                   	push   %edi
    3e77:	ff d0                	call   *%eax
    3e79:	83 c4 10             	add    $0x10,%esp
    3e7c:	8b 4d 8c             	mov    -0x74(%ebp),%ecx
    3e7f:	52                   	push   %edx
    3e80:	52                   	push   %edx
    3e81:	50                   	push   %eax
    3e82:	51                   	push   %ecx
    3e83:	e8 a8 55 00 00       	call   9430 <async_answer_0@plt>
    3e88:	83 c4 10             	add    $0x10,%esp
    3e8b:	e9 50 ff ff ff       	jmp    3de0 <hound_connection_handler+0x130>
    3e90:	a1 88 35 01 00       	mov    0x13588,%eax
    3e95:	85 c0                	test   %eax,%eax
    3e97:	74 77                	je     3f10 <hound_connection_handler+0x260>
    3e99:	8b 70 14             	mov    0x14(%eax),%esi
    3e9c:	85 f6                	test   %esi,%esi
    3e9e:	74 70                	je     3f10 <hound_connection_handler+0x260>
    3ea0:	8d 45 94             	lea    -0x6c(%ebp),%eax
    3ea3:	c7 45 94 00 00 00 00 	movl   $0x0,-0x6c(%ebp)
    3eaa:	53                   	push   %ebx
    3eab:	c7 45 c4 00 00 00 00 	movl   $0x0,-0x3c(%ebp)
    3eb2:	53                   	push   %ebx
    3eb3:	6a 00                	push   $0x0
    3eb5:	6a 00                	push   $0x0
    3eb7:	6a 00                	push   $0x0
    3eb9:	6a 00                	push   $0x0
    3ebb:	6a 01                	push   $0x1
    3ebd:	50                   	push   %eax
    3ebe:	e8 3d 58 00 00       	call   9700 <async_data_write_accept@plt>
    3ec3:	83 c4 20             	add    $0x20,%esp
    3ec6:	85 c0                	test   %eax,%eax
    3ec8:	0f 84 a2 02 00 00    	je     4170 <hound_connection_handler+0x4c0>
    3ece:	83 ec 0c             	sub    $0xc,%esp
    3ed1:	8b 5d 94             	mov    -0x6c(%ebp),%ebx
    3ed4:	89 45 84             	mov    %eax,-0x7c(%ebp)
    3ed7:	53                   	push   %ebx
    3ed8:	e8 73 58 00 00       	call   9750 <free@plt>
    3edd:	8b 45 c4             	mov    -0x3c(%ebp),%eax
    3ee0:	5e                   	pop    %esi
    3ee1:	50                   	push   %eax
    3ee2:	e8 69 58 00 00       	call   9750 <free@plt>
    3ee7:	58                   	pop    %eax
    3ee8:	8b 45 84             	mov    -0x7c(%ebp),%eax
    3eeb:	5a                   	pop    %edx
    3eec:	50                   	push   %eax
    3eed:	57                   	push   %edi
    3eee:	e8 3d 55 00 00       	call   9430 <async_answer_0@plt>
    3ef3:	83 c4 10             	add    $0x10,%esp
    3ef6:	e9 dd fd ff ff       	jmp    3cd8 <hound_connection_handler+0x28>
    3efb:	90                   	nop
    3efc:	8d 74 26 00          	lea    0x0(%esi,%eiz,1),%esi
    3f00:	a1 88 35 01 00       	mov    0x13588,%eax
    3f05:	85 c0                	test   %eax,%eax
    3f07:	74 07                	je     3f10 <hound_connection_handler+0x260>
    3f09:	8b 40 10             	mov    0x10(%eax),%eax
    3f0c:	85 c0                	test   %eax,%eax
    3f0e:	75 90                	jne    3ea0 <hound_connection_handler+0x1f0>
    3f10:	56                   	push   %esi
    3f11:	56                   	push   %esi
    3f12:	6a f5                	push   $0xfffffff5
    3f14:	57                   	push   %edi
    3f15:	e8 16 55 00 00       	call   9430 <async_answer_0@plt>
    3f1a:	83 c4 10             	add    $0x10,%esp
    3f1d:	e9 b6 fd ff ff       	jmp    3cd8 <hound_connection_handler+0x28>
    3f22:	8d b6 00 00 00 00    	lea    0x0(%esi),%esi
    3f28:	a1 88 35 01 00       	mov    0x13588,%eax
    3f2d:	85 c0                	test   %eax,%eax
    3f2f:	74 df                	je     3f10 <hound_connection_handler+0x260>
    3f31:	8b 48 0c             	mov    0xc(%eax),%ecx
    3f34:	85 c9                	test   %ecx,%ecx
    3f36:	74 d8                	je     3f10 <hound_connection_handler+0x260>
    3f38:	8b 5d a8             	mov    -0x58(%ebp),%ebx
    3f3b:	8b 75 ac             	mov    -0x54(%ebp),%esi
    3f3e:	89 5d 8c             	mov    %ebx,-0x74(%ebp)
    3f41:	c7 45 88 00 00 00 00 	movl   $0x0,-0x78(%ebp)
    3f48:	31 db                	xor    %ebx,%ebx
    3f4a:	8b 55 a4             	mov    -0x5c(%ebp),%edx
    3f4d:	c7 45 90 00 00 00 00 	movl   $0x0,-0x70(%ebp)
    3f54:	85 f6                	test   %esi,%esi
    3f56:	0f 85 54 02 00 00    	jne    41b0 <hound_connection_handler+0x500>
    3f5c:	83 ec 0c             	sub    $0xc,%esp
    3f5f:	52                   	push   %edx
    3f60:	8d 55 88             	lea    -0x78(%ebp),%edx
    3f63:	53                   	push   %ebx
    3f64:	8d 5d 8c             	lea    -0x74(%ebp),%ebx
    3f67:	53                   	push   %ebx
    3f68:	52                   	push   %edx
    3f69:	8b 50 2c             	mov    0x2c(%eax),%edx
    3f6c:	52                   	push   %edx
    3f6d:	ff d1                	call   *%ecx
    3f6f:	83 c4 20             	add    $0x20,%esp
    3f72:	89 c3                	mov    %eax,%ebx
    3f74:	83 ec 0c             	sub    $0xc,%esp
    3f77:	8b 45 90             	mov    -0x70(%ebp),%eax
    3f7a:	31 f6                	xor    %esi,%esi
    3f7c:	50                   	push   %eax
    3f7d:	e8 ce 57 00 00       	call   9750 <free@plt>
    3f82:	8b 55 8c             	mov    -0x74(%ebp),%edx
    3f85:	83 c4 10             	add    $0x10,%esp
    3f88:	85 d2                	test   %edx,%edx
    3f8a:	0f 85 58 02 00 00    	jne    41e8 <hound_connection_handler+0x538>
    3f90:	50                   	push   %eax
    3f91:	52                   	push   %edx
    3f92:	53                   	push   %ebx
    3f93:	57                   	push   %edi
    3f94:	e8 e7 56 00 00       	call   9680 <async_answer_1@plt>
    3f99:	8b 55 8c             	mov    -0x74(%ebp),%edx
    3f9c:	83 c4 10             	add    $0x10,%esp
    3f9f:	85 d2                	test   %edx,%edx
    3fa1:	0f 84 31 fd ff ff    	je     3cd8 <hound_connection_handler+0x28>
    3fa7:	85 db                	test   %ebx,%ebx
    3fa9:	0f 85 29 fd ff ff    	jne    3cd8 <hound_connection_handler+0x28>
    3faf:	90                   	nop
    3fb0:	8b 45 88             	mov    -0x78(%ebp),%eax
    3fb3:	83 ec 0c             	sub    $0xc,%esp
    3fb6:	8b 04 98             	mov    (%eax,%ebx,4),%eax
    3fb9:	50                   	push   %eax
    3fba:	e8 a1 56 00 00       	call   9660 <str_size@plt>
    3fbf:	89 04 9e             	mov    %eax,(%esi,%ebx,4)
    3fc2:	43                   	inc    %ebx
    3fc3:	83 c4 10             	add    $0x10,%esp
    3fc6:	39 5d 8c             	cmp    %ebx,-0x74(%ebp)
    3fc9:	77 e5                	ja     3fb0 <hound_connection_handler+0x300>
    3fcb:	50                   	push   %eax
    3fcc:	50                   	push   %eax
    3fcd:	8d 45 94             	lea    -0x6c(%ebp),%eax
    3fd0:	6a 00                	push   $0x0
    3fd2:	50                   	push   %eax
    3fd3:	e8 c8 55 00 00       	call   95a0 <async_data_read_receive@plt>
    3fd8:	83 c4 10             	add    $0x10,%esp
    3fdb:	84 c0                	test   %al,%al
    3fdd:	0f 85 4a 04 00 00    	jne    442d <hound_connection_handler+0x77d>
    3fe3:	31 ff                	xor    %edi,%edi
    3fe5:	83 ec 0c             	sub    $0xc,%esp
    3fe8:	31 db                	xor    %ebx,%ebx
    3fea:	56                   	push   %esi
    3feb:	e8 60 57 00 00       	call   9750 <free@plt>
    3ff0:	8b 75 8c             	mov    -0x74(%ebp),%esi
    3ff3:	83 c4 10             	add    $0x10,%esp
    3ff6:	85 f6                	test   %esi,%esi
    3ff8:	75 22                	jne    401c <hound_connection_handler+0x36c>
    3ffa:	e9 81 03 00 00       	jmp    4380 <hound_connection_handler+0x6d0>
    3fff:	90                   	nop
    4000:	8b 45 88             	mov    -0x78(%ebp),%eax
    4003:	83 ec 0c             	sub    $0xc,%esp
    4006:	43                   	inc    %ebx
    4007:	8b 04 30             	mov    (%eax,%esi,1),%eax
    400a:	50                   	push   %eax
    400b:	e8 40 57 00 00       	call   9750 <free@plt>
    4010:	83 c4 10             	add    $0x10,%esp
    4013:	39 5d 8c             	cmp    %ebx,-0x74(%ebp)
    4016:	0f 86 64 03 00 00    	jbe    4380 <hound_connection_handler+0x6d0>
    401c:	8b 45 88             	mov    -0x78(%ebp),%eax
    401f:	8d 34 9d 00 00 00 00 	lea    0x0(,%ebx,4),%esi
    4026:	83 ec 0c             	sub    $0xc,%esp
    4029:	8b 14 30             	mov    (%eax,%esi,1),%edx
    402c:	52                   	push   %edx
    402d:	e8 2e 56 00 00       	call   9660 <str_size@plt>
    4032:	83 c4 10             	add    $0x10,%esp
    4035:	85 ff                	test   %edi,%edi
    4037:	75 c7                	jne    4000 <hound_connection_handler+0x350>
    4039:	89 45 84             	mov    %eax,-0x7c(%ebp)
    403c:	50                   	push   %eax
    403d:	50                   	push   %eax
    403e:	8d 45 c4             	lea    -0x3c(%ebp),%eax
    4041:	6a 00                	push   $0x0
    4043:	50                   	push   %eax
    4044:	e8 57 55 00 00       	call   95a0 <async_data_read_receive@plt>
    4049:	83 c4 10             	add    $0x10,%esp
    404c:	8b 55 84             	mov    -0x7c(%ebp),%edx
    404f:	84 c0                	test   %al,%al
    4051:	74 ad                	je     4000 <hound_connection_handler+0x350>
    4053:	50                   	push   %eax
    4054:	8b 45 88             	mov    -0x78(%ebp),%eax
    4057:	52                   	push   %edx
    4058:	8b 04 30             	mov    (%eax,%esi,1),%eax
    405b:	50                   	push   %eax
    405c:	8b 45 c4             	mov    -0x3c(%ebp),%eax
    405f:	50                   	push   %eax
    4060:	e8 3b 53 00 00       	call   93a0 <async_data_read_finalize@plt>
    4065:	83 c4 10             	add    $0x10,%esp
    4068:	89 c7                	mov    %eax,%edi
    406a:	eb 94                	jmp    4000 <hound_connection_handler+0x350>
    406c:	8d 74 26 00          	lea    0x0(%esi,%eiz,1),%esi
    4070:	a1 88 35 01 00       	mov    0x13588,%eax
    4075:	85 c0                	test   %eax,%eax
    4077:	0f 84 93 fe ff ff    	je     3f10 <hound_connection_handler+0x260>
    407d:	8b 50 04             	mov    0x4(%eax),%edx
    4080:	85 d2                	test   %edx,%edx
    4082:	0f 84 88 fe ff ff    	je     3f10 <hound_connection_handler+0x260>
    4088:	51                   	push   %ecx
    4089:	51                   	push   %ecx
    408a:	8b 5d a4             	mov    -0x5c(%ebp),%ebx
    408d:	8b 70 2c             	mov    0x2c(%eax),%esi
    4090:	53                   	push   %ebx
    4091:	56                   	push   %esi
    4092:	ff d2                	call   *%edx
    4094:	5a                   	pop    %edx
    4095:	59                   	pop    %ecx
    4096:	50                   	push   %eax
    4097:	57                   	push   %edi
    4098:	e8 93 53 00 00       	call   9430 <async_answer_0@plt>
    409d:	83 c4 10             	add    $0x10,%esp
    40a0:	e9 33 fc ff ff       	jmp    3cd8 <hound_connection_handler+0x28>
    40a5:	8d 76 00             	lea    0x0(%esi),%esi
    40a8:	53                   	push   %ebx
    40a9:	53                   	push   %ebx
    40aa:	6a f2                	push   $0xfffffff2
    40ac:	57                   	push   %edi
    40ad:	e8 7e 53 00 00       	call   9430 <async_answer_0@plt>
    40b2:	83 c4 10             	add    $0x10,%esp
    40b5:	e9 1e fc ff ff       	jmp    3cd8 <hound_connection_handler+0x28>
    40ba:	8d b6 00 00 00 00    	lea    0x0(%esi),%esi
    40c0:	a1 88 35 01 00       	mov    0x13588,%eax
    40c5:	85 c0                	test   %eax,%eax
    40c7:	0f 84 43 fe ff ff    	je     3f10 <hound_connection_handler+0x260>
    40cd:	8b 00                	mov    (%eax),%eax
    40cf:	85 c0                	test   %eax,%eax
    40d1:	0f 84 39 fe ff ff    	je     3f10 <hound_connection_handler+0x260>
    40d7:	50                   	push   %eax
    40d8:	50                   	push   %eax
    40d9:	8d 45 94             	lea    -0x6c(%ebp),%eax
    40dc:	6a 00                	push   $0x0
    40de:	8b 5d a4             	mov    -0x5c(%ebp),%ebx
    40e1:	6a 00                	push   $0x0
    40e3:	6a 00                	push   $0x0
    40e5:	6a 00                	push   $0x0
    40e7:	6a 01                	push   $0x1
    40e9:	50                   	push   %eax
    40ea:	e8 11 56 00 00       	call   9700 <async_data_write_accept@plt>
    40ef:	83 c4 20             	add    $0x20,%esp
    40f2:	85 c0                	test   %eax,%eax
    40f4:	74 2a                	je     4120 <hound_connection_handler+0x470>
    40f6:	56                   	push   %esi
    40f7:	56                   	push   %esi
    40f8:	50                   	push   %eax
    40f9:	57                   	push   %edi
    40fa:	e8 31 53 00 00       	call   9430 <async_answer_0@plt>
    40ff:	83 c4 10             	add    $0x10,%esp
    4102:	e9 d1 fb ff ff       	jmp    3cd8 <hound_connection_handler+0x28>
    4107:	90                   	nop
    4108:	51                   	push   %ecx
    4109:	51                   	push   %ecx
    410a:	6a f5                	push   $0xfffffff5
    410c:	57                   	push   %edi
    410d:	e8 1e 53 00 00       	call   9430 <async_answer_0@plt>
    4112:	83 c4 10             	add    $0x10,%esp
    4115:	8d 65 f4             	lea    -0xc(%ebp),%esp
    4118:	5b                   	pop    %ebx
    4119:	5e                   	pop    %esi
    411a:	5f                   	pop    %edi
    411b:	5d                   	pop    %ebp
    411c:	c3                   	ret    
    411d:	8d 76 00             	lea    0x0(%esi),%esi
    4120:	31 d2                	xor    %edx,%edx
    4122:	85 db                	test   %ebx,%ebx
    4124:	0f 95 c2             	setne  %dl
    4127:	52                   	push   %edx
    4128:	a1 88 35 01 00       	mov    0x13588,%eax
    412d:	8b 55 94             	mov    -0x6c(%ebp),%edx
    4130:	8d 4d c4             	lea    -0x3c(%ebp),%ecx
    4133:	52                   	push   %edx
    4134:	51                   	push   %ecx
    4135:	8b 48 2c             	mov    0x2c(%eax),%ecx
    4138:	c7 45 c4 00 00 00 00 	movl   $0x0,-0x3c(%ebp)
    413f:	51                   	push   %ecx
    4140:	ff 10                	call   *(%eax)
    4142:	89 c3                	mov    %eax,%ebx
    4144:	8b 45 94             	mov    -0x6c(%ebp),%eax
    4147:	5e                   	pop    %esi
    4148:	50                   	push   %eax
    4149:	e8 02 56 00 00       	call   9750 <free@plt>
    414e:	83 c4 10             	add    $0x10,%esp
    4151:	85 db                	test   %ebx,%ebx
    4153:	0f 84 c7 00 00 00    	je     4220 <hound_connection_handler+0x570>
    4159:	50                   	push   %eax
    415a:	50                   	push   %eax
    415b:	53                   	push   %ebx
    415c:	57                   	push   %edi
    415d:	e8 ce 52 00 00       	call   9430 <async_answer_0@plt>
    4162:	83 c4 10             	add    $0x10,%esp
    4165:	e9 6e fb ff ff       	jmp    3cd8 <hound_connection_handler+0x28>
    416a:	8d b6 00 00 00 00    	lea    0x0(%esi),%esi
    4170:	8d 45 c4             	lea    -0x3c(%ebp),%eax
    4173:	51                   	push   %ecx
    4174:	51                   	push   %ecx
    4175:	6a 00                	push   $0x0
    4177:	6a 00                	push   $0x0
    4179:	6a 00                	push   $0x0
    417b:	6a 00                	push   $0x0
    417d:	6a 01                	push   $0x1
    417f:	50                   	push   %eax
    4180:	e8 7b 55 00 00       	call   9700 <async_data_write_accept@plt>
    4185:	83 c4 20             	add    $0x20,%esp
    4188:	85 c0                	test   %eax,%eax
    418a:	0f 85 3e fd ff ff    	jne    3ece <hound_connection_handler+0x21e>
    4190:	a1 88 35 01 00       	mov    0x13588,%eax
    4195:	8b 5d c4             	mov    -0x3c(%ebp),%ebx
    4198:	8b 75 94             	mov    -0x6c(%ebp),%esi
    419b:	51                   	push   %ecx
    419c:	53                   	push   %ebx
    419d:	56                   	push   %esi
    419e:	8b 50 2c             	mov    0x2c(%eax),%edx
    41a1:	52                   	push   %edx
    41a2:	ff 50 10             	call   *0x10(%eax)
    41a5:	83 c4 10             	add    $0x10,%esp
    41a8:	e9 21 fd ff ff       	jmp    3ece <hound_connection_handler+0x21e>
    41ad:	8d 76 00             	lea    0x0(%esi),%esi
    41b0:	8d 75 90             	lea    -0x70(%ebp),%esi
    41b3:	89 55 84             	mov    %edx,-0x7c(%ebp)
    41b6:	51                   	push   %ecx
    41b7:	51                   	push   %ecx
    41b8:	6a 00                	push   $0x0
    41ba:	6a 00                	push   $0x0
    41bc:	6a 00                	push   $0x0
    41be:	6a 00                	push   $0x0
    41c0:	6a 01                	push   $0x1
    41c2:	56                   	push   %esi
    41c3:	e8 38 55 00 00       	call   9700 <async_data_write_accept@plt>
    41c8:	83 c4 20             	add    $0x20,%esp
    41cb:	89 c3                	mov    %eax,%ebx
    41cd:	85 c0                	test   %eax,%eax
    41cf:	8b 55 84             	mov    -0x7c(%ebp),%edx
    41d2:	0f 85 9c fd ff ff    	jne    3f74 <hound_connection_handler+0x2c4>
    41d8:	a1 88 35 01 00       	mov    0x13588,%eax
    41dd:	8b 5d 90             	mov    -0x70(%ebp),%ebx
    41e0:	8b 48 0c             	mov    0xc(%eax),%ecx
    41e3:	e9 74 fd ff ff       	jmp    3f5c <hound_connection_handler+0x2ac>
    41e8:	50                   	push   %eax
    41e9:	50                   	push   %eax
    41ea:	6a 04                	push   $0x4
    41ec:	52                   	push   %edx
    41ed:	e8 be 52 00 00       	call   94b0 <calloc@plt>
    41f2:	8b 55 8c             	mov    -0x74(%ebp),%edx
    41f5:	83 c4 10             	add    $0x10,%esp
    41f8:	89 c6                	mov    %eax,%esi
    41fa:	85 d2                	test   %edx,%edx
    41fc:	0f 84 8e fd ff ff    	je     3f90 <hound_connection_handler+0x2e0>
    4202:	85 c0                	test   %eax,%eax
    4204:	0f 85 86 fd ff ff    	jne    3f90 <hound_connection_handler+0x2e0>
    420a:	50                   	push   %eax
    420b:	52                   	push   %edx
    420c:	6a fe                	push   $0xfffffffe
    420e:	57                   	push   %edi
    420f:	e8 6c 54 00 00       	call   9680 <async_answer_1@plt>
    4214:	83 c4 10             	add    $0x10,%esp
    4217:	e9 bc fa ff ff       	jmp    3cd8 <hound_connection_handler+0x28>
    421c:	8d 74 26 00          	lea    0x0(%esi,%eiz,1),%esi
    4220:	8b 75 c4             	mov    -0x3c(%ebp),%esi
    4223:	53                   	push   %ebx
    4224:	56                   	push   %esi
    4225:	6a 00                	push   $0x0
    4227:	57                   	push   %edi
    4228:	e8 53 54 00 00       	call   9680 <async_answer_1@plt>
    422d:	83 c4 10             	add    $0x10,%esp
    4230:	e9 a3 fa ff ff       	jmp    3cd8 <hound_connection_handler+0x28>
    4235:	8d 76 00             	lea    0x0(%esi),%esi
    4238:	8b 40 24             	mov    0x24(%eax),%eax
    423b:	85 c0                	test   %eax,%eax
    423d:	0f 84 cd fc ff ff    	je     3f10 <hound_connection_handler+0x260>
    4243:	50                   	push   %eax
    4244:	50                   	push   %eax
    4245:	6a 00                	push   $0x0
    4247:	57                   	push   %edi
    4248:	e8 e3 51 00 00       	call   9430 <async_answer_0@plt>
    424d:	8b 45 88             	mov    -0x78(%ebp),%eax
    4250:	89 45 80             	mov    %eax,-0x80(%ebp)
    4253:	c7 45 90 00 00 00 00 	movl   $0x0,-0x70(%ebp)
    425a:	83 c4 10             	add    $0x10,%esp
    425d:	8d 75 90             	lea    -0x70(%ebp),%esi
    4260:	8d 5d 8c             	lea    -0x74(%ebp),%ebx
    4263:	90                   	nop
    4264:	8d 74 26 00          	lea    0x0(%esi,%eiz,1),%esi
    4268:	8d 45 c4             	lea    -0x3c(%ebp),%eax
    426b:	57                   	push   %edi
    426c:	56                   	push   %esi
    426d:	50                   	push   %eax
    426e:	53                   	push   %ebx
    426f:	e8 6c 52 00 00       	call   94e0 <async_data_write_receive_call@plt>
    4274:	83 c4 10             	add    $0x10,%esp
    4277:	84 c0                	test   %al,%al
    4279:	0f 84 91 00 00 00    	je     4310 <hound_connection_handler+0x660>
    427f:	81 7d c4 07 04 00 00 	cmpl   $0x407,-0x3c(%ebp)
    4286:	74 58                	je     42e0 <hound_connection_handler+0x630>
    4288:	8b 45 84             	mov    -0x7c(%ebp),%eax
    428b:	85 c0                	test   %eax,%eax
    428d:	75 6d                	jne    42fc <hound_connection_handler+0x64c>
    428f:	83 ec 0c             	sub    $0xc,%esp
    4292:	8b 45 90             	mov    -0x70(%ebp),%eax
    4295:	50                   	push   %eax
    4296:	e8 35 51 00 00       	call   93d0 <malloc@plt>
    429b:	83 c4 10             	add    $0x10,%esp
    429e:	89 c7                	mov    %eax,%edi
    42a0:	85 c0                	test   %eax,%eax
    42a2:	0f 84 40 01 00 00    	je     43e8 <hound_connection_handler+0x738>
    42a8:	8b 55 8c             	mov    -0x74(%ebp),%edx
    42ab:	50                   	push   %eax
    42ac:	8b 45 90             	mov    -0x70(%ebp),%eax
    42af:	50                   	push   %eax
    42b0:	57                   	push   %edi
    42b1:	52                   	push   %edx
    42b2:	e8 39 54 00 00       	call   96f0 <async_data_write_finalize@plt>
    42b7:	83 c4 10             	add    $0x10,%esp
    42ba:	85 c0                	test   %eax,%eax
    42bc:	0f 84 f6 00 00 00    	je     43b8 <hound_connection_handler+0x708>
    42c2:	50                   	push   %eax
    42c3:	8d 45 c4             	lea    -0x3c(%ebp),%eax
    42c6:	56                   	push   %esi
    42c7:	50                   	push   %eax
    42c8:	53                   	push   %ebx
    42c9:	e8 12 52 00 00       	call   94e0 <async_data_write_receive_call@plt>
    42ce:	83 c4 10             	add    $0x10,%esp
    42d1:	84 c0                	test   %al,%al
    42d3:	74 3b                	je     4310 <hound_connection_handler+0x660>
    42d5:	81 7d c4 07 04 00 00 	cmpl   $0x407,-0x3c(%ebp)
    42dc:	75 b1                	jne    428f <hound_connection_handler+0x5df>
    42de:	66 90                	xchg   %ax,%ax
    42e0:	a1 88 35 01 00       	mov    0x13588,%eax
    42e5:	8b 40 20             	mov    0x20(%eax),%eax
    42e8:	85 c0                	test   %eax,%eax
    42ea:	0f 84 e8 00 00 00    	je     43d8 <hound_connection_handler+0x728>
    42f0:	83 ec 0c             	sub    $0xc,%esp
    42f3:	8b 7d 80             	mov    -0x80(%ebp),%edi
    42f6:	57                   	push   %edi
    42f7:	ff d0                	call   *%eax
    42f9:	83 c4 10             	add    $0x10,%esp
    42fc:	8b 4d 8c             	mov    -0x74(%ebp),%ecx
    42ff:	52                   	push   %edx
    4300:	52                   	push   %edx
    4301:	50                   	push   %eax
    4302:	51                   	push   %ecx
    4303:	e8 28 51 00 00       	call   9430 <async_answer_0@plt>
    4308:	83 c4 10             	add    $0x10,%esp
    430b:	e9 58 ff ff ff       	jmp    4268 <hound_connection_handler+0x5b8>
    4310:	8b 45 c4             	mov    -0x3c(%ebp),%eax
    4313:	3d 07 04 00 00       	cmp    $0x407,%eax
    4318:	74 c6                	je     42e0 <hound_connection_handler+0x630>
    431a:	3d 06 04 00 00       	cmp    $0x406,%eax
    431f:	57                   	push   %edi
    4320:	0f 94 c0             	sete   %al
    4323:	25 ff 00 00 00       	and    $0xff,%eax
    4328:	57                   	push   %edi
    4329:	48                   	dec    %eax
    432a:	83 e0 f2             	and    $0xfffffff2,%eax
    432d:	50                   	push   %eax
    432e:	8b 45 8c             	mov    -0x74(%ebp),%eax
    4331:	50                   	push   %eax
    4332:	e8 f9 50 00 00       	call   9430 <async_answer_0@plt>
    4337:	a1 88 35 01 00       	mov    0x13588,%eax
    433c:	8b 5d 88             	mov    -0x78(%ebp),%ebx
    433f:	5a                   	pop    %edx
    4340:	59                   	pop    %ecx
    4341:	53                   	push   %ebx
    4342:	8b 70 2c             	mov    0x2c(%eax),%esi
    4345:	56                   	push   %esi
    4346:	ff 50 1c             	call   *0x1c(%eax)
    4349:	83 c4 10             	add    $0x10,%esp
    434c:	e9 87 f9 ff ff       	jmp    3cd8 <hound_connection_handler+0x28>
    4351:	8d b4 26 00 00 00 00 	lea    0x0(%esi,%eiz,1),%esi
    4358:	8b 45 c4             	mov    -0x3c(%ebp),%eax
    435b:	3d 07 04 00 00       	cmp    $0x407,%eax
    4360:	75 b8                	jne    431a <hound_connection_handler+0x66a>
    4362:	a1 88 35 01 00       	mov    0x13588,%eax
    4367:	8b 40 20             	mov    0x20(%eax),%eax
    436a:	85 c0                	test   %eax,%eax
    436c:	0f 85 fe fa ff ff    	jne    3e70 <hound_connection_handler+0x1c0>
    4372:	b8 f5 ff ff ff       	mov    $0xfffffff5,%eax
    4377:	e9 00 fb ff ff       	jmp    3e7c <hound_connection_handler+0x1cc>
    437c:	8d 74 26 00          	lea    0x0(%esi,%eiz,1),%esi
    4380:	83 ec 0c             	sub    $0xc,%esp
    4383:	8b 4d 88             	mov    -0x78(%ebp),%ecx
    4386:	51                   	push   %ecx
    4387:	e8 c4 53 00 00       	call   9750 <free@plt>
    438c:	83 c4 10             	add    $0x10,%esp
    438f:	e9 44 f9 ff ff       	jmp    3cd8 <hound_connection_handler+0x28>
    4394:	8d 74 26 00          	lea    0x0(%esi,%eiz,1),%esi
    4398:	50                   	push   %eax
    4399:	8b 45 90             	mov    -0x70(%ebp),%eax
    439c:	50                   	push   %eax
    439d:	8b 45 8c             	mov    -0x74(%ebp),%eax
    43a0:	57                   	push   %edi
    43a1:	50                   	push   %eax
    43a2:	e8 f9 4f 00 00       	call   93a0 <async_data_read_finalize@plt>
    43a7:	83 c4 10             	add    $0x10,%esp
    43aa:	89 45 84             	mov    %eax,-0x7c(%ebp)
    43ad:	e9 2e fa ff ff       	jmp    3de0 <hound_connection_handler+0x130>
    43b2:	8d b6 00 00 00 00    	lea    0x0(%esi),%esi
    43b8:	50                   	push   %eax
    43b9:	8b 45 90             	mov    -0x70(%ebp),%eax
    43bc:	50                   	push   %eax
    43bd:	8b 45 80             	mov    -0x80(%ebp),%eax
    43c0:	57                   	push   %edi
    43c1:	50                   	push   %eax
    43c2:	a1 88 35 01 00       	mov    0x13588,%eax
    43c7:	ff 50 24             	call   *0x24(%eax)
    43ca:	83 c4 10             	add    $0x10,%esp
    43cd:	89 45 84             	mov    %eax,-0x7c(%ebp)
    43d0:	e9 93 fe ff ff       	jmp    4268 <hound_connection_handler+0x5b8>
    43d5:	8d 76 00             	lea    0x0(%esi),%esi
    43d8:	b8 f5 ff ff ff       	mov    $0xfffffff5,%eax
    43dd:	e9 1a ff ff ff       	jmp    42fc <hound_connection_handler+0x64c>
    43e2:	8d b6 00 00 00 00    	lea    0x0(%esi),%esi
    43e8:	8b 7d 8c             	mov    -0x74(%ebp),%edi
    43eb:	51                   	push   %ecx
    43ec:	51                   	push   %ecx
    43ed:	6a fe                	push   $0xfffffffe
    43ef:	57                   	push   %edi
    43f0:	e8 3b 50 00 00       	call   9430 <async_answer_0@plt>
    43f5:	83 c4 0c             	add    $0xc,%esp
    43f8:	e9 c6 fe ff ff       	jmp    42c3 <hound_connection_handler+0x613>
    43fd:	8d 76 00             	lea    0x0(%esi),%esi
    4400:	50                   	push   %eax
    4401:	50                   	push   %eax
    4402:	8b 45 8c             	mov    -0x74(%ebp),%eax
    4405:	6a fe                	push   $0xfffffffe
    4407:	50                   	push   %eax
    4408:	e8 23 50 00 00       	call   9430 <async_answer_0@plt>
    440d:	83 c4 0c             	add    $0xc,%esp
    4410:	e9 29 fa ff ff       	jmp    3e3e <hound_connection_handler+0x18e>
    4415:	8d 76 00             	lea    0x0(%esi),%esi
    4418:	52                   	push   %edx
    4419:	52                   	push   %edx
    441a:	6a f5                	push   $0xfffffff5
    441c:	50                   	push   %eax
    441d:	e8 0e 50 00 00       	call   9430 <async_answer_0@plt>
    4422:	83 c4 10             	add    $0x10,%esp
    4425:	8d 65 f4             	lea    -0xc(%ebp),%esp
    4428:	5b                   	pop    %ebx
    4429:	5e                   	pop    %esi
    442a:	5f                   	pop    %edi
    442b:	5d                   	pop    %ebp
    442c:	c3                   	ret    
    442d:	8b 45 8c             	mov    -0x74(%ebp),%eax
    4430:	57                   	push   %edi
    4431:	c1 e0 02             	shl    $0x2,%eax
    4434:	50                   	push   %eax
    4435:	8b 45 94             	mov    -0x6c(%ebp),%eax
    4438:	56                   	push   %esi
    4439:	50                   	push   %eax
    443a:	e8 61 4f 00 00       	call   93a0 <async_data_read_finalize@plt>
    443f:	83 c4 10             	add    $0x10,%esp
    4442:	89 c7                	mov    %eax,%edi
    4444:	e9 9c fb ff ff       	jmp    3fe5 <hound_connection_handler+0x335>
    4449:	8d b4 26 00 00 00 00 	lea    0x0(%esi,%eiz,1),%esi

00004450 <hound_server_register>:
    4450:	55                   	push   %ebp
    4451:	89 e5                	mov    %esp,%ebp
    4453:	53                   	push   %ebx
    4454:	50                   	push   %eax
    4455:	8b 45 08             	mov    0x8(%ebp),%eax
    4458:	8b 5d 0c             	mov    0xc(%ebp),%ebx
    445b:	85 c0                	test   %eax,%eax
    445d:	74 31                	je     4490 <hound_server_register+0x40>
    445f:	85 db                	test   %ebx,%ebx
    4461:	74 2d                	je     4490 <hound_server_register+0x40>
    4463:	83 ec 0c             	sub    $0xc,%esp
    4466:	50                   	push   %eax
    4467:	e8 c4 51 00 00       	call   9630 <loc_server_register@plt>
    446c:	83 c4 10             	add    $0x10,%esp
    446f:	85 c0                	test   %eax,%eax
    4471:	74 05                	je     4478 <hound_server_register+0x28>
    4473:	8b 5d fc             	mov    -0x4(%ebp),%ebx
    4476:	c9                   	leave  
    4477:	c3                   	ret    
    4478:	89 5d 0c             	mov    %ebx,0xc(%ebp)
    447b:	a1 28 b4 00 00       	mov    0xb428,%eax
    4480:	8b 5d fc             	mov    -0x4(%ebp),%ebx
    4483:	89 45 08             	mov    %eax,0x8(%ebp)
    4486:	c9                   	leave  
    4487:	e9 04 4f 00 00       	jmp    9390 <loc_service_register@plt>
    448c:	8d 74 26 00          	lea    0x0(%esi,%eiz,1),%esi
    4490:	b8 f2 ff ff ff       	mov    $0xfffffff2,%eax
    4495:	eb dc                	jmp    4473 <hound_server_register+0x23>
    4497:	89 f6                	mov    %esi,%esi
    4499:	8d bc 27 00 00 00 00 	lea    0x0(%edi,%eiz,1),%edi

000044a0 <hound_server_unregister>:
    44a0:	55                   	push   %ebp
    44a1:	89 e5                	mov    %esp,%ebp
    44a3:	5d                   	pop    %ebp
    44a4:	e9 77 50 00 00       	jmp    9520 <loc_service_unregister@plt>
    44a9:	8d b4 26 00 00 00 00 	lea    0x0(%esi,%eiz,1),%esi

000044b0 <hound_server_set_device_change_callback>:
    44b0:	55                   	push   %ebp
    44b1:	89 e5                	mov    %esp,%ebp
    44b3:	5d                   	pop    %ebp
    44b4:	e9 17 50 00 00       	jmp    94d0 <loc_register_cat_change_cb@plt>
    44b9:	8d b4 26 00 00 00 00 	lea    0x0(%esi,%eiz,1),%esi

000044c0 <hound_server_devices_iterate>:
    44c0:	55                   	push   %ebp
    44c1:	89 e5                	mov    %esp,%ebp
    44c3:	57                   	push   %edi
    44c4:	56                   	push   %esi
    44c5:	53                   	push   %ebx
    44c6:	83 ec 1c             	sub    $0x1c,%esp
    44c9:	8b 7d 08             	mov    0x8(%ebp),%edi
    44cc:	85 ff                	test   %edi,%edi
    44ce:	0f 84 bd 00 00 00    	je     4591 <hound_server_devices_iterate+0xd1>
    44d4:	80 3d 84 35 01 00 00 	cmpb   $0x0,0x13584
    44db:	75 24                	jne    4501 <hound_server_devices_iterate+0x41>
    44dd:	56                   	push   %esi
    44de:	6a 01                	push   $0x1
    44e0:	68 80 35 01 00       	push   $0x13580
    44e5:	68 e4 7b 00 00       	push   $0x7be4
    44ea:	e8 11 4e 00 00       	call   9300 <loc_category_get_id@plt>
    44ef:	83 c4 10             	add    $0x10,%esp
    44f2:	85 c0                	test   %eax,%eax
    44f4:	0f 85 8f 00 00 00    	jne    4589 <hound_server_devices_iterate+0xc9>
    44fa:	c6 05 84 35 01 00 01 	movb   $0x1,0x13584
    4501:	8d 45 e0             	lea    -0x20(%ebp),%eax
    4504:	8b 1d 80 35 01 00    	mov    0x13580,%ebx
    450a:	51                   	push   %ecx
    450b:	50                   	push   %eax
    450c:	8d 45 dc             	lea    -0x24(%ebp),%eax
    450f:	c7 45 dc 00 00 00 00 	movl   $0x0,-0x24(%ebp)
    4516:	50                   	push   %eax
    4517:	c7 45 e0 00 00 00 00 	movl   $0x0,-0x20(%ebp)
    451e:	53                   	push   %ebx
    451f:	e8 1c 51 00 00       	call   9640 <loc_category_get_svcs@plt>
    4524:	83 c4 10             	add    $0x10,%esp
    4527:	85 c0                	test   %eax,%eax
    4529:	75 5e                	jne    4589 <hound_server_devices_iterate+0xc9>
    452b:	8b 55 e0             	mov    -0x20(%ebp),%edx
    452e:	31 db                	xor    %ebx,%ebx
    4530:	8d 7d e4             	lea    -0x1c(%ebp),%edi
    4533:	85 d2                	test   %edx,%edx
    4535:	74 41                	je     4578 <hound_server_devices_iterate+0xb8>
    4537:	90                   	nop
    4538:	8d 34 9d 00 00 00 00 	lea    0x0(,%ebx,4),%esi
    453f:	50                   	push   %eax
    4540:	50                   	push   %eax
    4541:	8b 45 dc             	mov    -0x24(%ebp),%eax
    4544:	57                   	push   %edi
    4545:	c7 45 e4 00 00 00 00 	movl   $0x0,-0x1c(%ebp)
    454c:	8b 14 30             	mov    (%eax,%esi,1),%edx
    454f:	43                   	inc    %ebx
    4550:	52                   	push   %edx
    4551:	e8 3a 4f 00 00       	call   9490 <loc_service_get_name@plt>
    4556:	59                   	pop    %ecx
    4557:	58                   	pop    %eax
    4558:	8b 45 e4             	mov    -0x1c(%ebp),%eax
    455b:	50                   	push   %eax
    455c:	8b 45 dc             	mov    -0x24(%ebp),%eax
    455f:	8b 04 30             	mov    (%eax,%esi,1),%eax
    4562:	50                   	push   %eax
    4563:	ff 55 08             	call   *0x8(%ebp)
    4566:	58                   	pop    %eax
    4567:	8b 45 e4             	mov    -0x1c(%ebp),%eax
    456a:	50                   	push   %eax
    456b:	e8 e0 51 00 00       	call   9750 <free@plt>
    4570:	83 c4 10             	add    $0x10,%esp
    4573:	39 5d e0             	cmp    %ebx,-0x20(%ebp)
    4576:	77 c0                	ja     4538 <hound_server_devices_iterate+0x78>
    4578:	83 ec 0c             	sub    $0xc,%esp
    457b:	8b 45 dc             	mov    -0x24(%ebp),%eax
    457e:	50                   	push   %eax
    457f:	e8 cc 51 00 00       	call   9750 <free@plt>
    4584:	83 c4 10             	add    $0x10,%esp
    4587:	31 c0                	xor    %eax,%eax
    4589:	8d 65 f4             	lea    -0xc(%ebp),%esp
    458c:	5b                   	pop    %ebx
    458d:	5e                   	pop    %esi
    458e:	5f                   	pop    %edi
    458f:	5d                   	pop    %ebp
    4590:	c3                   	ret    
    4591:	b8 f2 ff ff ff       	mov    $0xfffffff2,%eax
    4596:	eb f1                	jmp    4589 <hound_server_devices_iterate+0xc9>
    4598:	66 90                	xchg   %ax,%ax
    459a:	66 90                	xchg   %ax,%ax
    459c:	66 90                	xchg   %ax,%ax
    459e:	66 90                	xchg   %ax,%ax

000045a0 <remote_audio_pcm_stop_capture>:
    45a0:	55                   	push   %ebp
    45a1:	89 e5                	mov    %esp,%ebp
    45a3:	53                   	push   %ebx
    45a4:	50                   	push   %eax
    45a5:	8b 45 14             	mov    0x14(%ebp),%eax
    45a8:	8b 4d 08             	mov    0x8(%ebp),%ecx
    45ab:	8b 5d 10             	mov    0x10(%ebp),%ebx
    45ae:	8b 50 08             	mov    0x8(%eax),%edx
    45b1:	85 d2                	test   %edx,%edx
    45b3:	8b 55 0c             	mov    0xc(%ebp),%edx
    45b6:	0f 95 c0             	setne  %al
    45b9:	8b 52 2c             	mov    0x2c(%edx),%edx
    45bc:	85 d2                	test   %edx,%edx
    45be:	74 20                	je     45e0 <remote_audio_pcm_stop_capture+0x40>
    45c0:	83 ec 08             	sub    $0x8,%esp
    45c3:	25 ff 00 00 00       	and    $0xff,%eax
    45c8:	50                   	push   %eax
    45c9:	51                   	push   %ecx
    45ca:	ff d2                	call   *%edx
    45cc:	89 5d 08             	mov    %ebx,0x8(%ebp)
    45cf:	83 c4 10             	add    $0x10,%esp
    45d2:	8b 5d fc             	mov    -0x4(%ebp),%ebx
    45d5:	89 45 0c             	mov    %eax,0xc(%ebp)
    45d8:	c9                   	leave  
    45d9:	e9 52 4e 00 00       	jmp    9430 <async_answer_0@plt>
    45de:	66 90                	xchg   %ax,%ax
    45e0:	89 5d 08             	mov    %ebx,0x8(%ebp)
    45e3:	b8 f5 ff ff ff       	mov    $0xfffffff5,%eax
    45e8:	8b 5d fc             	mov    -0x4(%ebp),%ebx
    45eb:	89 45 0c             	mov    %eax,0xc(%ebp)
    45ee:	c9                   	leave  
    45ef:	e9 3c 4e 00 00       	jmp    9430 <async_answer_0@plt>
    45f4:	8d b6 00 00 00 00    	lea    0x0(%esi),%esi
    45fa:	8d bf 00 00 00 00    	lea    0x0(%edi),%edi

00004600 <remote_audio_pcm_start_capture>:
    4600:	55                   	push   %ebp
    4601:	89 e5                	mov    %esp,%ebp
    4603:	57                   	push   %edi
    4604:	56                   	push   %esi
    4605:	53                   	push   %ebx
    4606:	83 ec 0c             	sub    $0xc,%esp
    4609:	8b 55 14             	mov    0x14(%ebp),%edx
    460c:	8b 7d 0c             	mov    0xc(%ebp),%edi
    460f:	8b 4d 08             	mov    0x8(%ebp),%ecx
    4612:	8b 5d 10             	mov    0x10(%ebp),%ebx
    4615:	8b 42 10             	mov    0x10(%edx),%eax
    4618:	8b 7f 28             	mov    0x28(%edi),%edi
    461b:	89 c6                	mov    %eax,%esi
    461d:	25 ff ff 00 00       	and    $0xffff,%eax
    4622:	c1 ee 10             	shr    $0x10,%esi
    4625:	85 ff                	test   %edi,%edi
    4627:	74 27                	je     4650 <remote_audio_pcm_start_capture+0x50>
    4629:	83 ec 0c             	sub    $0xc,%esp
    462c:	50                   	push   %eax
    462d:	8b 42 0c             	mov    0xc(%edx),%eax
    4630:	50                   	push   %eax
    4631:	56                   	push   %esi
    4632:	8b 52 08             	mov    0x8(%edx),%edx
    4635:	52                   	push   %edx
    4636:	51                   	push   %ecx
    4637:	ff d7                	call   *%edi
    4639:	83 c4 20             	add    $0x20,%esp
    463c:	89 5d 08             	mov    %ebx,0x8(%ebp)
    463f:	89 45 0c             	mov    %eax,0xc(%ebp)
    4642:	8d 65 f4             	lea    -0xc(%ebp),%esp
    4645:	5b                   	pop    %ebx
    4646:	5e                   	pop    %esi
    4647:	5f                   	pop    %edi
    4648:	5d                   	pop    %ebp
    4649:	e9 e2 4d 00 00       	jmp    9430 <async_answer_0@plt>
    464e:	66 90                	xchg   %ax,%ax
    4650:	b8 f5 ff ff ff       	mov    $0xfffffff5,%eax
    4655:	eb e5                	jmp    463c <remote_audio_pcm_start_capture+0x3c>
    4657:	89 f6                	mov    %esi,%esi
    4659:	8d bc 27 00 00 00 00 	lea    0x0(%edi,%eiz,1),%edi

00004660 <remote_audio_pcm_stop_playback>:
    4660:	55                   	push   %ebp
    4661:	89 e5                	mov    %esp,%ebp
    4663:	53                   	push   %ebx
    4664:	50                   	push   %eax
    4665:	8b 45 14             	mov    0x14(%ebp),%eax
    4668:	8b 4d 08             	mov    0x8(%ebp),%ecx
    466b:	8b 5d 10             	mov    0x10(%ebp),%ebx
    466e:	8b 50 08             	mov    0x8(%eax),%edx
    4671:	85 d2                	test   %edx,%edx
    4673:	8b 55 0c             	mov    0xc(%ebp),%edx
    4676:	0f 95 c0             	setne  %al
    4679:	8b 52 24             	mov    0x24(%edx),%edx
    467c:	85 d2                	test   %edx,%edx
    467e:	74 20                	je     46a0 <remote_audio_pcm_stop_playback+0x40>
    4680:	83 ec 08             	sub    $0x8,%esp
    4683:	25 ff 00 00 00       	and    $0xff,%eax
    4688:	50                   	push   %eax
    4689:	51                   	push   %ecx
    468a:	ff d2                	call   *%edx
    468c:	89 5d 08             	mov    %ebx,0x8(%ebp)
    468f:	83 c4 10             	add    $0x10,%esp
    4692:	8b 5d fc             	mov    -0x4(%ebp),%ebx
    4695:	89 45 0c             	mov    %eax,0xc(%ebp)
    4698:	c9                   	leave  
    4699:	e9 92 4d 00 00       	jmp    9430 <async_answer_0@plt>
    469e:	66 90                	xchg   %ax,%ax
    46a0:	89 5d 08             	mov    %ebx,0x8(%ebp)
    46a3:	b8 f5 ff ff ff       	mov    $0xfffffff5,%eax
    46a8:	8b 5d fc             	mov    -0x4(%ebp),%ebx
    46ab:	89 45 0c             	mov    %eax,0xc(%ebp)
    46ae:	c9                   	leave  
    46af:	e9 7c 4d 00 00       	jmp    9430 <async_answer_0@plt>
    46b4:	8d b6 00 00 00 00    	lea    0x0(%esi),%esi
    46ba:	8d bf 00 00 00 00    	lea    0x0(%edi),%edi

000046c0 <remote_audio_pcm_start_playback>:
    46c0:	55                   	push   %ebp
    46c1:	89 e5                	mov    %esp,%ebp
    46c3:	57                   	push   %edi
    46c4:	56                   	push   %esi
    46c5:	53                   	push   %ebx
    46c6:	83 ec 0c             	sub    $0xc,%esp
    46c9:	8b 4d 14             	mov    0x14(%ebp),%ecx
    46cc:	8b 7d 0c             	mov    0xc(%ebp),%edi
    46cf:	8b 75 08             	mov    0x8(%ebp),%esi
    46d2:	8b 5d 10             	mov    0x10(%ebp),%ebx
    46d5:	8b 41 10             	mov    0x10(%ecx),%eax
    46d8:	8b 7f 20             	mov    0x20(%edi),%edi
    46db:	89 c2                	mov    %eax,%edx
    46dd:	25 ff ff 00 00       	and    $0xffff,%eax
    46e2:	c1 ea 10             	shr    $0x10,%edx
    46e5:	81 e2 ff 00 00 00    	and    $0xff,%edx
    46eb:	85 ff                	test   %edi,%edi
    46ed:	74 29                	je     4718 <remote_audio_pcm_start_playback+0x58>
    46ef:	83 ec 0c             	sub    $0xc,%esp
    46f2:	50                   	push   %eax
    46f3:	8b 41 0c             	mov    0xc(%ecx),%eax
    46f6:	50                   	push   %eax
    46f7:	52                   	push   %edx
    46f8:	8b 51 08             	mov    0x8(%ecx),%edx
    46fb:	52                   	push   %edx
    46fc:	56                   	push   %esi
    46fd:	ff d7                	call   *%edi
    46ff:	83 c4 20             	add    $0x20,%esp
    4702:	89 5d 08             	mov    %ebx,0x8(%ebp)
    4705:	89 45 0c             	mov    %eax,0xc(%ebp)
    4708:	8d 65 f4             	lea    -0xc(%ebp),%esp
    470b:	5b                   	pop    %ebx
    470c:	5e                   	pop    %esi
    470d:	5f                   	pop    %edi
    470e:	5d                   	pop    %ebp
    470f:	e9 1c 4d 00 00       	jmp    9430 <async_answer_0@plt>
    4714:	8d 74 26 00          	lea    0x0(%esi,%eiz,1),%esi
    4718:	b8 f5 ff ff ff       	mov    $0xfffffff5,%eax
    471d:	eb e3                	jmp    4702 <remote_audio_pcm_start_playback+0x42>
    471f:	90                   	nop

00004720 <remote_audio_pcm_release_buffer>:
    4720:	55                   	push   %ebp
    4721:	89 e5                	mov    %esp,%ebp
    4723:	53                   	push   %ebx
    4724:	50                   	push   %eax
    4725:	8b 45 0c             	mov    0xc(%ebp),%eax
    4728:	8b 55 08             	mov    0x8(%ebp),%edx
    472b:	8b 5d 10             	mov    0x10(%ebp),%ebx
    472e:	8b 40 14             	mov    0x14(%eax),%eax
    4731:	85 c0                	test   %eax,%eax
    4733:	74 1b                	je     4750 <remote_audio_pcm_release_buffer+0x30>
    4735:	83 ec 0c             	sub    $0xc,%esp
    4738:	52                   	push   %edx
    4739:	ff d0                	call   *%eax
    473b:	89 5d 08             	mov    %ebx,0x8(%ebp)
    473e:	83 c4 10             	add    $0x10,%esp
    4741:	8b 5d fc             	mov    -0x4(%ebp),%ebx
    4744:	89 45 0c             	mov    %eax,0xc(%ebp)
    4747:	c9                   	leave  
    4748:	e9 e3 4c 00 00       	jmp    9430 <async_answer_0@plt>
    474d:	8d 76 00             	lea    0x0(%esi),%esi
    4750:	89 5d 08             	mov    %ebx,0x8(%ebp)
    4753:	b8 f5 ff ff ff       	mov    $0xfffffff5,%eax
    4758:	8b 5d fc             	mov    -0x4(%ebp),%ebx
    475b:	89 45 0c             	mov    %eax,0xc(%ebp)
    475e:	c9                   	leave  
    475f:	e9 cc 4c 00 00       	jmp    9430 <async_answer_0@plt>
    4764:	8d b6 00 00 00 00    	lea    0x0(%esi),%esi
    476a:	8d bf 00 00 00 00    	lea    0x0(%edi),%edi

00004770 <remote_audio_pcm_events_unregister>:
    4770:	55                   	push   %ebp
    4771:	89 e5                	mov    %esp,%ebp
    4773:	57                   	push   %edi
    4774:	56                   	push   %esi
    4775:	53                   	push   %ebx
    4776:	83 ec 0c             	sub    $0xc,%esp
    4779:	8b 5d 0c             	mov    0xc(%ebp),%ebx
    477c:	8b 75 08             	mov    0x8(%ebp),%esi
    477f:	8b 7d 10             	mov    0x10(%ebp),%edi
    4782:	8b 43 1c             	mov    0x1c(%ebx),%eax
    4785:	85 c0                	test   %eax,%eax
    4787:	74 3f                	je     47c8 <remote_audio_pcm_events_unregister+0x58>
    4789:	8b 4b 18             	mov    0x18(%ebx),%ecx
    478c:	85 c9                	test   %ecx,%ecx
    478e:	74 38                	je     47c8 <remote_audio_pcm_events_unregister+0x58>
    4790:	83 ec 0c             	sub    $0xc,%esp
    4793:	56                   	push   %esi
    4794:	ff d0                	call   *%eax
    4796:	83 c4 10             	add    $0x10,%esp
    4799:	85 c0                	test   %eax,%eax
    479b:	74 14                	je     47b1 <remote_audio_pcm_events_unregister+0x41>
    479d:	83 ec 0c             	sub    $0xc,%esp
    47a0:	50                   	push   %eax
    47a1:	e8 9a 4b 00 00       	call   9340 <async_hangup@plt>
    47a6:	58                   	pop    %eax
    47a7:	5a                   	pop    %edx
    47a8:	6a 00                	push   $0x0
    47aa:	56                   	push   %esi
    47ab:	ff 53 18             	call   *0x18(%ebx)
    47ae:	83 c4 10             	add    $0x10,%esp
    47b1:	89 7d 08             	mov    %edi,0x8(%ebp)
    47b4:	c7 45 0c 00 00 00 00 	movl   $0x0,0xc(%ebp)
    47bb:	8d 65 f4             	lea    -0xc(%ebp),%esp
    47be:	5b                   	pop    %ebx
    47bf:	5e                   	pop    %esi
    47c0:	5f                   	pop    %edi
    47c1:	5d                   	pop    %ebp
    47c2:	e9 69 4c 00 00       	jmp    9430 <async_answer_0@plt>
    47c7:	90                   	nop
    47c8:	89 7d 08             	mov    %edi,0x8(%ebp)
    47cb:	c7 45 0c f5 ff ff ff 	movl   $0xfffffff5,0xc(%ebp)
    47d2:	8d 65 f4             	lea    -0xc(%ebp),%esp
    47d5:	5b                   	pop    %ebx
    47d6:	5e                   	pop    %esi
    47d7:	5f                   	pop    %edi
    47d8:	5d                   	pop    %ebp
    47d9:	e9 52 4c 00 00       	jmp    9430 <async_answer_0@plt>
    47de:	66 90                	xchg   %ax,%ax

000047e0 <remote_audio_pcm_get_buffer_pos>:
    47e0:	55                   	push   %ebp
    47e1:	89 e5                	mov    %esp,%ebp
    47e3:	83 ec 18             	sub    $0x18,%esp
    47e6:	8b 45 0c             	mov    0xc(%ebp),%eax
    47e9:	c7 45 f4 00 00 00 00 	movl   $0x0,-0xc(%ebp)
    47f0:	8b 40 0c             	mov    0xc(%eax),%eax
    47f3:	85 c0                	test   %eax,%eax
    47f5:	74 29                	je     4820 <remote_audio_pcm_get_buffer_pos+0x40>
    47f7:	8b 4d 08             	mov    0x8(%ebp),%ecx
    47fa:	52                   	push   %edx
    47fb:	52                   	push   %edx
    47fc:	8d 55 f4             	lea    -0xc(%ebp),%edx
    47ff:	52                   	push   %edx
    4800:	51                   	push   %ecx
    4801:	ff d0                	call   *%eax
    4803:	8b 55 f4             	mov    -0xc(%ebp),%edx
    4806:	83 c4 10             	add    $0x10,%esp
    4809:	51                   	push   %ecx
    480a:	52                   	push   %edx
    480b:	50                   	push   %eax
    480c:	8b 45 10             	mov    0x10(%ebp),%eax
    480f:	50                   	push   %eax
    4810:	e8 6b 4e 00 00       	call   9680 <async_answer_1@plt>
    4815:	83 c4 10             	add    $0x10,%esp
    4818:	c9                   	leave  
    4819:	c3                   	ret    
    481a:	8d b6 00 00 00 00    	lea    0x0(%esi),%esi
    4820:	b8 f5 ff ff ff       	mov    $0xfffffff5,%eax
    4825:	31 d2                	xor    %edx,%edx
    4827:	eb e0                	jmp    4809 <remote_audio_pcm_get_buffer_pos+0x29>
    4829:	8d b4 26 00 00 00 00 	lea    0x0(%esi,%eiz,1),%esi

00004830 <remote_audio_pcm_query_caps>:
    4830:	55                   	push   %ebp
    4831:	89 e5                	mov    %esp,%ebp
    4833:	53                   	push   %ebx
    4834:	53                   	push   %ebx
    4835:	8b 45 0c             	mov    0xc(%ebp),%eax
    4838:	8b 55 08             	mov    0x8(%ebp),%edx
    483b:	8b 5d 10             	mov    0x10(%ebp),%ebx
    483e:	8b 4d 14             	mov    0x14(%ebp),%ecx
    4841:	8b 40 08             	mov    0x8(%eax),%eax
    4844:	85 c0                	test   %eax,%eax
    4846:	74 28                	je     4870 <remote_audio_pcm_query_caps+0x40>
    4848:	83 ec 08             	sub    $0x8,%esp
    484b:	8b 49 08             	mov    0x8(%ecx),%ecx
    484e:	51                   	push   %ecx
    484f:	52                   	push   %edx
    4850:	ff d0                	call   *%eax
    4852:	89 5d 08             	mov    %ebx,0x8(%ebp)
    4855:	83 c4 10             	add    $0x10,%esp
    4858:	8b 5d fc             	mov    -0x4(%ebp),%ebx
    485b:	89 45 10             	mov    %eax,0x10(%ebp)
    485e:	c7 45 0c 00 00 00 00 	movl   $0x0,0xc(%ebp)
    4865:	c9                   	leave  
    4866:	e9 15 4e 00 00       	jmp    9680 <async_answer_1@plt>
    486b:	90                   	nop
    486c:	8d 74 26 00          	lea    0x0(%esi,%eiz,1),%esi
    4870:	89 5d 08             	mov    %ebx,0x8(%ebp)
    4873:	8b 5d fc             	mov    -0x4(%ebp),%ebx
    4876:	c7 45 0c f5 ff ff ff 	movl   $0xfffffff5,0xc(%ebp)
    487d:	c9                   	leave  
    487e:	e9 ad 4b 00 00       	jmp    9430 <async_answer_0@plt>
    4883:	8d b6 00 00 00 00    	lea    0x0(%esi),%esi
    4889:	8d bc 27 00 00 00 00 	lea    0x0(%edi,%eiz,1),%edi

00004890 <remote_audio_pcm_get_buffer>:
    4890:	55                   	push   %ebp
    4891:	89 e5                	mov    %esp,%ebp
    4893:	56                   	push   %esi
    4894:	53                   	push   %ebx
    4895:	83 ec 10             	sub    $0x10,%esp
    4898:	8b 5d 0c             	mov    0xc(%ebp),%ebx
    489b:	8b 43 10             	mov    0x10(%ebx),%eax
    489e:	85 c0                	test   %eax,%eax
    48a0:	0f 84 d2 00 00 00    	je     4978 <remote_audio_pcm_get_buffer+0xe8>
    48a6:	8b 53 14             	mov    0x14(%ebx),%edx
    48a9:	85 d2                	test   %edx,%edx
    48ab:	0f 84 c7 00 00 00    	je     4978 <remote_audio_pcm_get_buffer+0xe8>
    48b1:	8b 55 14             	mov    0x14(%ebp),%edx
    48b4:	c7 45 e8 00 00 00 00 	movl   $0x0,-0x18(%ebp)
    48bb:	8b 52 08             	mov    0x8(%edx),%edx
    48be:	56                   	push   %esi
    48bf:	89 55 ec             	mov    %edx,-0x14(%ebp)
    48c2:	8d 55 ec             	lea    -0x14(%ebp),%edx
    48c5:	52                   	push   %edx
    48c6:	8d 55 e8             	lea    -0x18(%ebp),%edx
    48c9:	52                   	push   %edx
    48ca:	8b 55 08             	mov    0x8(%ebp),%edx
    48cd:	52                   	push   %edx
    48ce:	ff d0                	call   *%eax
    48d0:	83 c4 0c             	add    $0xc,%esp
    48d3:	8b 4d ec             	mov    -0x14(%ebp),%ecx
    48d6:	89 c6                	mov    %eax,%esi
    48d8:	51                   	push   %ecx
    48d9:	50                   	push   %eax
    48da:	8b 45 10             	mov    0x10(%ebp),%eax
    48dd:	50                   	push   %eax
    48de:	e8 9d 4d 00 00       	call   9680 <async_answer_1@plt>
    48e3:	83 c4 10             	add    $0x10,%esp
    48e6:	85 f6                	test   %esi,%esi
    48e8:	74 0e                	je     48f8 <remote_audio_pcm_get_buffer+0x68>
    48ea:	8d 65 f8             	lea    -0x8(%ebp),%esp
    48ed:	5b                   	pop    %ebx
    48ee:	5e                   	pop    %esi
    48ef:	5d                   	pop    %ebp
    48f0:	c3                   	ret    
    48f1:	8d b4 26 00 00 00 00 	lea    0x0(%esi,%eiz,1),%esi
    48f8:	8b 4d ec             	mov    -0x14(%ebp),%ecx
    48fb:	85 c9                	test   %ecx,%ecx
    48fd:	74 eb                	je     48ea <remote_audio_pcm_get_buffer+0x5a>
    48ff:	c7 45 f0 00 00 00 00 	movl   $0x0,-0x10(%ebp)
    4906:	56                   	push   %esi
    4907:	c7 45 f4 00 00 00 00 	movl   $0x0,-0xc(%ebp)
    490e:	56                   	push   %esi
    490f:	68 1c 7c 00 00       	push   $0x7c1c
    4914:	6a 05                	push   $0x5
    4916:	e8 b5 0d 00 00       	call   56d0 <ddf_msg>
    491b:	58                   	pop    %eax
    491c:	8d 45 f0             	lea    -0x10(%ebp),%eax
    491f:	5a                   	pop    %edx
    4920:	50                   	push   %eax
    4921:	8d 45 f4             	lea    -0xc(%ebp),%eax
    4924:	50                   	push   %eax
    4925:	e8 c6 4c 00 00       	call   95f0 <async_share_in_receive@plt>
    492a:	83 c4 10             	add    $0x10,%esp
    492d:	84 c0                	test   %al,%al
    492f:	74 5f                	je     4990 <remote_audio_pcm_get_buffer+0x100>
    4931:	50                   	push   %eax
    4932:	50                   	push   %eax
    4933:	68 d8 7d 00 00       	push   $0x7dd8
    4938:	6a 05                	push   $0x5
    493a:	e8 91 0d 00 00       	call   56d0 <ddf_msg>
    493f:	8b 45 ec             	mov    -0x14(%ebp),%eax
    4942:	83 c4 10             	add    $0x10,%esp
    4945:	39 45 f0             	cmp    %eax,-0x10(%ebp)
    4948:	74 76                	je     49c0 <remote_audio_pcm_get_buffer+0x130>
    494a:	50                   	push   %eax
    494b:	50                   	push   %eax
    494c:	68 f8 7d 00 00       	push   $0x7df8
    4951:	6a 04                	push   $0x4
    4953:	e8 78 0d 00 00       	call   56d0 <ddf_msg>
    4958:	8b 55 08             	mov    0x8(%ebp),%edx
    495b:	58                   	pop    %eax
    495c:	52                   	push   %edx
    495d:	ff 53 14             	call   *0x14(%ebx)
    4960:	8b 75 f4             	mov    -0xc(%ebp),%esi
    4963:	59                   	pop    %ecx
    4964:	5b                   	pop    %ebx
    4965:	6a fd                	push   $0xfffffffd
    4967:	56                   	push   %esi
    4968:	e8 c3 4a 00 00       	call   9430 <async_answer_0@plt>
    496d:	83 c4 10             	add    $0x10,%esp
    4970:	e9 75 ff ff ff       	jmp    48ea <remote_audio_pcm_get_buffer+0x5a>
    4975:	8d 76 00             	lea    0x0(%esi),%esi
    4978:	50                   	push   %eax
    4979:	50                   	push   %eax
    497a:	8b 45 10             	mov    0x10(%ebp),%eax
    497d:	6a f5                	push   $0xfffffff5
    497f:	50                   	push   %eax
    4980:	e8 ab 4a 00 00       	call   9430 <async_answer_0@plt>
    4985:	83 c4 10             	add    $0x10,%esp
    4988:	8d 65 f8             	lea    -0x8(%ebp),%esp
    498b:	5b                   	pop    %ebx
    498c:	5e                   	pop    %esi
    498d:	5d                   	pop    %ebp
    498e:	c3                   	ret    
    498f:	90                   	nop
    4990:	50                   	push   %eax
    4991:	50                   	push   %eax
    4992:	68 35 7c 00 00       	push   $0x7c35
    4997:	6a 04                	push   $0x4
    4999:	e8 32 0d 00 00       	call   56d0 <ddf_msg>
    499e:	58                   	pop    %eax
    499f:	8b 45 08             	mov    0x8(%ebp),%eax
    49a2:	50                   	push   %eax
    49a3:	ff 53 14             	call   *0x14(%ebx)
    49a6:	8b 4d f4             	mov    -0xc(%ebp),%ecx
    49a9:	58                   	pop    %eax
    49aa:	5a                   	pop    %edx
    49ab:	6a f8                	push   $0xfffffff8
    49ad:	51                   	push   %ecx
    49ae:	e8 7d 4a 00 00       	call   9430 <async_answer_0@plt>
    49b3:	83 c4 10             	add    $0x10,%esp
    49b6:	e9 2f ff ff ff       	jmp    48ea <remote_audio_pcm_get_buffer+0x5a>
    49bb:	90                   	nop
    49bc:	8d 74 26 00          	lea    0x0(%esi,%eiz,1),%esi
    49c0:	50                   	push   %eax
    49c1:	50                   	push   %eax
    49c2:	68 51 7c 00 00       	push   $0x7c51
    49c7:	6a 05                	push   $0x5
    49c9:	e8 02 0d 00 00       	call   56d0 <ddf_msg>
    49ce:	83 c4 0c             	add    $0xc,%esp
    49d1:	8b 45 e8             	mov    -0x18(%ebp),%eax
    49d4:	6a 03                	push   $0x3
    49d6:	50                   	push   %eax
    49d7:	8b 45 f4             	mov    -0xc(%ebp),%eax
    49da:	50                   	push   %eax
    49db:	e8 f0 4c 00 00       	call   96d0 <async_share_in_finalize@plt>
    49e0:	83 c4 10             	add    $0x10,%esp
    49e3:	85 c0                	test   %eax,%eax
    49e5:	74 1e                	je     4a05 <remote_audio_pcm_get_buffer+0x175>
    49e7:	51                   	push   %ecx
    49e8:	51                   	push   %ecx
    49e9:	68 69 7c 00 00       	push   $0x7c69
    49ee:	6a 04                	push   $0x4
    49f0:	e8 db 0c 00 00       	call   56d0 <ddf_msg>
    49f5:	8b 45 08             	mov    0x8(%ebp),%eax
    49f8:	5e                   	pop    %esi
    49f9:	50                   	push   %eax
    49fa:	ff 53 14             	call   *0x14(%ebx)
    49fd:	83 c4 10             	add    $0x10,%esp
    4a00:	e9 e5 fe ff ff       	jmp    48ea <remote_audio_pcm_get_buffer+0x5a>
    4a05:	8b 55 f0             	mov    -0x10(%ebp),%edx
    4a08:	50                   	push   %eax
    4a09:	52                   	push   %edx
    4a0a:	68 81 7c 00 00       	push   $0x7c81
    4a0f:	6a 05                	push   $0x5
    4a11:	e8 ba 0c 00 00       	call   56d0 <ddf_msg>
    4a16:	83 c4 10             	add    $0x10,%esp
    4a19:	e9 cc fe ff ff       	jmp    48ea <remote_audio_pcm_get_buffer+0x5a>
    4a1e:	66 90                	xchg   %ax,%ax

00004a20 <remote_audio_pcm_test_format>:
    4a20:	55                   	push   %ebp
    4a21:	89 e5                	mov    %esp,%ebp
    4a23:	53                   	push   %ebx
    4a24:	83 ec 14             	sub    $0x14,%esp
    4a27:	8b 45 14             	mov    0x14(%ebp),%eax
    4a2a:	8b 55 0c             	mov    0xc(%ebp),%edx
    4a2d:	8b 48 08             	mov    0x8(%eax),%ecx
    4a30:	8b 58 0c             	mov    0xc(%eax),%ebx
    4a33:	8b 52 04             	mov    0x4(%edx),%edx
    4a36:	8b 40 10             	mov    0x10(%eax),%eax
    4a39:	89 4d ec             	mov    %ecx,-0x14(%ebp)
    4a3c:	89 5d f0             	mov    %ebx,-0x10(%ebp)
    4a3f:	89 45 f4             	mov    %eax,-0xc(%ebp)
    4a42:	85 d2                	test   %edx,%edx
    4a44:	74 3a                	je     4a80 <remote_audio_pcm_test_format+0x60>
    4a46:	8d 45 f4             	lea    -0xc(%ebp),%eax
    4a49:	8b 4d 08             	mov    0x8(%ebp),%ecx
    4a4c:	50                   	push   %eax
    4a4d:	8d 45 f0             	lea    -0x10(%ebp),%eax
    4a50:	50                   	push   %eax
    4a51:	8d 45 ec             	lea    -0x14(%ebp),%eax
    4a54:	50                   	push   %eax
    4a55:	51                   	push   %ecx
    4a56:	ff d2                	call   *%edx
    4a58:	8b 55 f4             	mov    -0xc(%ebp),%edx
    4a5b:	8b 5d f0             	mov    -0x10(%ebp),%ebx
    4a5e:	8b 4d ec             	mov    -0x14(%ebp),%ecx
    4a61:	83 c4 10             	add    $0x10,%esp
    4a64:	83 ec 0c             	sub    $0xc,%esp
    4a67:	52                   	push   %edx
    4a68:	53                   	push   %ebx
    4a69:	51                   	push   %ecx
    4a6a:	50                   	push   %eax
    4a6b:	8b 45 10             	mov    0x10(%ebp),%eax
    4a6e:	50                   	push   %eax
    4a6f:	e8 6c 4c 00 00       	call   96e0 <async_answer_3@plt>
    4a74:	83 c4 20             	add    $0x20,%esp
    4a77:	8b 5d fc             	mov    -0x4(%ebp),%ebx
    4a7a:	c9                   	leave  
    4a7b:	c3                   	ret    
    4a7c:	8d 74 26 00          	lea    0x0(%esi,%eiz,1),%esi
    4a80:	89 c2                	mov    %eax,%edx
    4a82:	b8 f5 ff ff ff       	mov    $0xfffffff5,%eax
    4a87:	eb db                	jmp    4a64 <remote_audio_pcm_test_format+0x44>
    4a89:	8d b4 26 00 00 00 00 	lea    0x0(%esi,%eiz,1),%esi

00004a90 <remote_audio_pcm_events_register>:
    4a90:	55                   	push   %ebp
    4a91:	89 e5                	mov    %esp,%ebp
    4a93:	57                   	push   %edi
    4a94:	56                   	push   %esi
    4a95:	53                   	push   %ebx
    4a96:	83 ec 3c             	sub    $0x3c,%esp
    4a99:	8b 5d 0c             	mov    0xc(%ebp),%ebx
    4a9c:	8b 7b 1c             	mov    0x1c(%ebx),%edi
    4a9f:	85 ff                	test   %edi,%edi
    4aa1:	0f 84 91 00 00 00    	je     4b38 <remote_audio_pcm_events_register+0xa8>
    4aa7:	8b 73 18             	mov    0x18(%ebx),%esi
    4aaa:	85 f6                	test   %esi,%esi
    4aac:	0f 84 86 00 00 00    	je     4b38 <remote_audio_pcm_events_register+0xa8>
    4ab2:	8b 75 10             	mov    0x10(%ebp),%esi
    4ab5:	51                   	push   %ecx
    4ab6:	51                   	push   %ecx
    4ab7:	6a 00                	push   $0x0
    4ab9:	56                   	push   %esi
    4aba:	8d 75 c4             	lea    -0x3c(%ebp),%esi
    4abd:	e8 6e 49 00 00       	call   9430 <async_answer_0@plt>
    4ac2:	5f                   	pop    %edi
    4ac3:	58                   	pop    %eax
    4ac4:	6a 00                	push   $0x0
    4ac6:	56                   	push   %esi
    4ac7:	e8 84 4b 00 00       	call   9650 <async_get_call_timeout@plt>
    4acc:	89 c7                	mov    %eax,%edi
    4ace:	58                   	pop    %eax
    4acf:	5a                   	pop    %edx
    4ad0:	56                   	push   %esi
    4ad1:	6a 00                	push   $0x0
    4ad3:	e8 38 4a 00 00       	call   9510 <async_callback_receive_start@plt>
    4ad8:	83 c4 10             	add    $0x10,%esp
    4adb:	89 c6                	mov    %eax,%esi
    4add:	85 c0                	test   %eax,%eax
    4adf:	74 6f                	je     4b50 <remote_audio_pcm_events_register+0xc0>
    4ae1:	50                   	push   %eax
    4ae2:	50                   	push   %eax
    4ae3:	8b 45 08             	mov    0x8(%ebp),%eax
    4ae6:	56                   	push   %esi
    4ae7:	50                   	push   %eax
    4ae8:	ff 53 18             	call   *0x18(%ebx)
    4aeb:	83 c4 10             	add    $0x10,%esp
    4aee:	89 c3                	mov    %eax,%ebx
    4af0:	85 c0                	test   %eax,%eax
    4af2:	74 2c                	je     4b20 <remote_audio_pcm_events_register+0x90>
    4af4:	52                   	push   %edx
    4af5:	52                   	push   %edx
    4af6:	68 9e 7c 00 00       	push   $0x7c9e
    4afb:	6a 04                	push   $0x4
    4afd:	e8 ce 0b 00 00       	call   56d0 <ddf_msg>
    4b02:	89 34 24             	mov    %esi,(%esp)
    4b05:	e8 36 48 00 00       	call   9340 <async_hangup@plt>
    4b0a:	59                   	pop    %ecx
    4b0b:	5e                   	pop    %esi
    4b0c:	53                   	push   %ebx
    4b0d:	57                   	push   %edi
    4b0e:	e8 1d 49 00 00       	call   9430 <async_answer_0@plt>
    4b13:	83 c4 10             	add    $0x10,%esp
    4b16:	8d 65 f4             	lea    -0xc(%ebp),%esp
    4b19:	5b                   	pop    %ebx
    4b1a:	5e                   	pop    %esi
    4b1b:	5f                   	pop    %edi
    4b1c:	5d                   	pop    %ebp
    4b1d:	c3                   	ret    
    4b1e:	66 90                	xchg   %ax,%ax
    4b20:	50                   	push   %eax
    4b21:	50                   	push   %eax
    4b22:	6a 00                	push   $0x0
    4b24:	57                   	push   %edi
    4b25:	e8 06 49 00 00       	call   9430 <async_answer_0@plt>
    4b2a:	83 c4 10             	add    $0x10,%esp
    4b2d:	8d 65 f4             	lea    -0xc(%ebp),%esp
    4b30:	5b                   	pop    %ebx
    4b31:	5e                   	pop    %esi
    4b32:	5f                   	pop    %edi
    4b33:	5d                   	pop    %ebp
    4b34:	c3                   	ret    
    4b35:	8d 76 00             	lea    0x0(%esi),%esi
    4b38:	8b 5d 10             	mov    0x10(%ebp),%ebx
    4b3b:	51                   	push   %ecx
    4b3c:	51                   	push   %ecx
    4b3d:	6a f5                	push   $0xfffffff5
    4b3f:	53                   	push   %ebx
    4b40:	e8 eb 48 00 00       	call   9430 <async_answer_0@plt>
    4b45:	83 c4 10             	add    $0x10,%esp
    4b48:	8d 65 f4             	lea    -0xc(%ebp),%esp
    4b4b:	5b                   	pop    %ebx
    4b4c:	5e                   	pop    %esi
    4b4d:	5f                   	pop    %edi
    4b4e:	5d                   	pop    %ebp
    4b4f:	c3                   	ret    
    4b50:	50                   	push   %eax
    4b51:	50                   	push   %eax
    4b52:	68 20 7e 00 00       	push   $0x7e20
    4b57:	6a 04                	push   $0x4
    4b59:	e8 72 0b 00 00       	call   56d0 <ddf_msg>
    4b5e:	58                   	pop    %eax
    4b5f:	5a                   	pop    %edx
    4b60:	68 06 d5 ff ff       	push   $0xffffd506
    4b65:	57                   	push   %edi
    4b66:	e8 c5 48 00 00       	call   9430 <async_answer_0@plt>
    4b6b:	83 c4 10             	add    $0x10,%esp
    4b6e:	eb a6                	jmp    4b16 <remote_audio_pcm_events_register+0x86>

00004b70 <remote_audio_pcm_get_info_str>:
    4b70:	55                   	push   %ebp
    4b71:	89 e5                	mov    %esp,%ebp
    4b73:	56                   	push   %esi
    4b74:	53                   	push   %ebx
    4b75:	83 ec 10             	sub    $0x10,%esp
    4b78:	8b 45 0c             	mov    0xc(%ebp),%eax
    4b7b:	8b 00                	mov    (%eax),%eax
    4b7d:	85 c0                	test   %eax,%eax
    4b7f:	0f 84 ab 00 00 00    	je     4c30 <remote_audio_pcm_get_info_str+0xc0>
    4b85:	8b 4d 08             	mov    0x8(%ebp),%ecx
    4b88:	52                   	push   %edx
    4b89:	c7 45 ec 00 00 00 00 	movl   $0x0,-0x14(%ebp)
    4b90:	52                   	push   %edx
    4b91:	8d 55 ec             	lea    -0x14(%ebp),%edx
    4b94:	52                   	push   %edx
    4b95:	51                   	push   %ecx
    4b96:	ff d0                	call   *%eax
    4b98:	83 c4 10             	add    $0x10,%esp
    4b9b:	89 c6                	mov    %eax,%esi
    4b9d:	8b 45 ec             	mov    -0x14(%ebp),%eax
    4ba0:	85 c0                	test   %eax,%eax
    4ba2:	74 5c                	je     4c00 <remote_audio_pcm_get_info_str+0x90>
    4ba4:	83 ec 0c             	sub    $0xc,%esp
    4ba7:	50                   	push   %eax
    4ba8:	e8 b3 4a 00 00       	call   9660 <str_size@plt>
    4bad:	83 c4 0c             	add    $0xc,%esp
    4bb0:	8d 58 01             	lea    0x1(%eax),%ebx
    4bb3:	8b 45 10             	mov    0x10(%ebp),%eax
    4bb6:	53                   	push   %ebx
    4bb7:	56                   	push   %esi
    4bb8:	50                   	push   %eax
    4bb9:	e8 c2 4a 00 00       	call   9680 <async_answer_1@plt>
    4bbe:	83 c4 10             	add    $0x10,%esp
    4bc1:	85 f6                	test   %esi,%esi
    4bc3:	75 2f                	jne    4bf4 <remote_audio_pcm_get_info_str+0x84>
    4bc5:	85 db                	test   %ebx,%ebx
    4bc7:	74 2b                	je     4bf4 <remote_audio_pcm_get_info_str+0x84>
    4bc9:	50                   	push   %eax
    4bca:	50                   	push   %eax
    4bcb:	8d 45 f0             	lea    -0x10(%ebp),%eax
    4bce:	50                   	push   %eax
    4bcf:	8d 45 f4             	lea    -0xc(%ebp),%eax
    4bd2:	50                   	push   %eax
    4bd3:	e8 c8 49 00 00       	call   95a0 <async_data_read_receive@plt>
    4bd8:	83 c4 10             	add    $0x10,%esp
    4bdb:	84 c0                	test   %al,%al
    4bdd:	74 69                	je     4c48 <remote_audio_pcm_get_info_str+0xd8>
    4bdf:	3b 5d f0             	cmp    -0x10(%ebp),%ebx
    4be2:	74 34                	je     4c18 <remote_audio_pcm_get_info_str+0xa8>
    4be4:	50                   	push   %eax
    4be5:	50                   	push   %eax
    4be6:	8b 45 f4             	mov    -0xc(%ebp),%eax
    4be9:	6a fd                	push   $0xfffffffd
    4beb:	50                   	push   %eax
    4bec:	e8 3f 48 00 00       	call   9430 <async_answer_0@plt>
    4bf1:	83 c4 10             	add    $0x10,%esp
    4bf4:	8d 65 f8             	lea    -0x8(%ebp),%esp
    4bf7:	5b                   	pop    %ebx
    4bf8:	5e                   	pop    %esi
    4bf9:	5d                   	pop    %ebp
    4bfa:	c3                   	ret    
    4bfb:	90                   	nop
    4bfc:	8d 74 26 00          	lea    0x0(%esi,%eiz,1),%esi
    4c00:	8b 55 10             	mov    0x10(%ebp),%edx
    4c03:	50                   	push   %eax
    4c04:	6a 00                	push   $0x0
    4c06:	56                   	push   %esi
    4c07:	52                   	push   %edx
    4c08:	e8 73 4a 00 00       	call   9680 <async_answer_1@plt>
    4c0d:	83 c4 10             	add    $0x10,%esp
    4c10:	8d 65 f8             	lea    -0x8(%ebp),%esp
    4c13:	5b                   	pop    %ebx
    4c14:	5e                   	pop    %esi
    4c15:	5d                   	pop    %ebp
    4c16:	c3                   	ret    
    4c17:	90                   	nop
    4c18:	8b 75 f4             	mov    -0xc(%ebp),%esi
    4c1b:	51                   	push   %ecx
    4c1c:	53                   	push   %ebx
    4c1d:	8b 5d ec             	mov    -0x14(%ebp),%ebx
    4c20:	53                   	push   %ebx
    4c21:	56                   	push   %esi
    4c22:	e8 79 47 00 00       	call   93a0 <async_data_read_finalize@plt>
    4c27:	83 c4 10             	add    $0x10,%esp
    4c2a:	eb c8                	jmp    4bf4 <remote_audio_pcm_get_info_str+0x84>
    4c2c:	8d 74 26 00          	lea    0x0(%esi,%eiz,1),%esi
    4c30:	8b 75 10             	mov    0x10(%ebp),%esi
    4c33:	53                   	push   %ebx
    4c34:	53                   	push   %ebx
    4c35:	6a f5                	push   $0xfffffff5
    4c37:	56                   	push   %esi
    4c38:	e8 f3 47 00 00       	call   9430 <async_answer_0@plt>
    4c3d:	83 c4 10             	add    $0x10,%esp
    4c40:	8d 65 f8             	lea    -0x8(%ebp),%esp
    4c43:	5b                   	pop    %ebx
    4c44:	5e                   	pop    %esi
    4c45:	5d                   	pop    %ebp
    4c46:	c3                   	ret    
    4c47:	90                   	nop
    4c48:	50                   	push   %eax
    4c49:	50                   	push   %eax
    4c4a:	8b 45 f4             	mov    -0xc(%ebp),%eax
    4c4d:	6a f8                	push   $0xfffffff8
    4c4f:	50                   	push   %eax
    4c50:	e8 db 47 00 00       	call   9430 <async_answer_0@plt>
    4c55:	83 c4 10             	add    $0x10,%esp
    4c58:	eb 9a                	jmp    4bf4 <remote_audio_pcm_get_info_str+0x84>
    4c5a:	8d b6 00 00 00 00    	lea    0x0(%esi),%esi

00004c60 <audio_pcm_cap_str>:
    4c60:	55                   	push   %ebp
    4c61:	b8 bc 7c 00 00       	mov    $0x7cbc,%eax
    4c66:	89 e5                	mov    %esp,%ebp
    4c68:	8b 55 08             	mov    0x8(%ebp),%edx
    4c6b:	83 fa 06             	cmp    $0x6,%edx
    4c6e:	77 07                	ja     4c77 <audio_pcm_cap_str+0x17>
    4c70:	8b 04 95 78 8e 00 00 	mov    0x8e78(,%edx,4),%eax
    4c77:	5d                   	pop    %ebp
    4c78:	c3                   	ret    
    4c79:	8d b4 26 00 00 00 00 	lea    0x0(%esi,%eiz,1),%esi

00004c80 <audio_pcm_event_str>:
    4c80:	55                   	push   %ebp
    4c81:	b8 c8 7c 00 00       	mov    $0x7cc8,%eax
    4c86:	89 e5                	mov    %esp,%ebp
    4c88:	8b 55 08             	mov    0x8(%ebp),%edx
    4c8b:	81 fa 05 04 00 00    	cmp    $0x405,%edx
    4c91:	77 07                	ja     4c9a <audio_pcm_event_str+0x1a>
    4c93:	8b 04 95 60 7e 00 00 	mov    0x7e60(,%edx,4),%eax
    4c9a:	5d                   	pop    %ebp
    4c9b:	c3                   	ret    
    4c9c:	8d 74 26 00          	lea    0x0(%esi,%eiz,1),%esi

00004ca0 <audio_pcm_open_default>:
    4ca0:	55                   	push   %ebp
    4ca1:	89 e5                	mov    %esp,%ebp
    4ca3:	83 ec 28             	sub    $0x28,%esp
    4ca6:	80 3d 90 35 01 00 00 	cmpb   $0x0,0x13590
    4cad:	75 20                	jne    4ccf <audio_pcm_open_default+0x2f>
    4caf:	50                   	push   %eax
    4cb0:	6a 01                	push   $0x1
    4cb2:	68 8c 35 01 00       	push   $0x1358c
    4cb7:	68 e4 7b 00 00       	push   $0x7be4
    4cbc:	e8 3f 46 00 00       	call   9300 <loc_category_get_id@plt>
    4cc1:	83 c4 10             	add    $0x10,%esp
    4cc4:	85 c0                	test   %eax,%eax
    4cc6:	75 68                	jne    4d30 <audio_pcm_open_default+0x90>
    4cc8:	c6 05 90 35 01 00 01 	movb   $0x1,0x13590
    4ccf:	8d 45 f4             	lea    -0xc(%ebp),%eax
    4cd2:	51                   	push   %ecx
    4cd3:	50                   	push   %eax
    4cd4:	8d 45 f0             	lea    -0x10(%ebp),%eax
    4cd7:	50                   	push   %eax
    4cd8:	a1 8c 35 01 00       	mov    0x1358c,%eax
    4cdd:	50                   	push   %eax
    4cde:	c7 45 f0 00 00 00 00 	movl   $0x0,-0x10(%ebp)
    4ce5:	c7 45 f4 00 00 00 00 	movl   $0x0,-0xc(%ebp)
    4cec:	e8 4f 49 00 00       	call   9640 <loc_category_get_svcs@plt>
    4cf1:	83 c4 10             	add    $0x10,%esp
    4cf4:	85 c0                	test   %eax,%eax
    4cf6:	75 38                	jne    4d30 <audio_pcm_open_default+0x90>
    4cf8:	8b 55 f4             	mov    -0xc(%ebp),%edx
    4cfb:	85 d2                	test   %edx,%edx
    4cfd:	75 19                	jne    4d18 <audio_pcm_open_default+0x78>
    4cff:	83 ec 0c             	sub    $0xc,%esp
    4d02:	89 45 e4             	mov    %eax,-0x1c(%ebp)
    4d05:	8b 45 f0             	mov    -0x10(%ebp),%eax
    4d08:	50                   	push   %eax
    4d09:	e8 42 4a 00 00       	call   9750 <free@plt>
    4d0e:	8b 45 e4             	mov    -0x1c(%ebp),%eax
    4d11:	83 c4 10             	add    $0x10,%esp
    4d14:	c9                   	leave  
    4d15:	c3                   	ret    
    4d16:	66 90                	xchg   %ax,%ax
    4d18:	8b 45 f0             	mov    -0x10(%ebp),%eax
    4d1b:	52                   	push   %edx
    4d1c:	6a 01                	push   $0x1
    4d1e:	68 41 26 9b 41       	push   $0x419b2641
    4d23:	8b 08                	mov    (%eax),%ecx
    4d25:	51                   	push   %ecx
    4d26:	e8 f5 45 00 00       	call   9320 <loc_service_connect@plt>
    4d2b:	83 c4 10             	add    $0x10,%esp
    4d2e:	eb cf                	jmp    4cff <audio_pcm_open_default+0x5f>
    4d30:	31 c0                	xor    %eax,%eax
    4d32:	c9                   	leave  
    4d33:	c3                   	ret    
    4d34:	8d b6 00 00 00 00    	lea    0x0(%esi),%esi
    4d3a:	8d bf 00 00 00 00    	lea    0x0(%edi),%edi

00004d40 <audio_pcm_open>:
    4d40:	55                   	push   %ebp
    4d41:	89 e5                	mov    %esp,%ebp
    4d43:	83 ec 1c             	sub    $0x1c,%esp
    4d46:	8d 45 f4             	lea    -0xc(%ebp),%eax
    4d49:	8b 4d 08             	mov    0x8(%ebp),%ecx
    4d4c:	6a 00                	push   $0x0
    4d4e:	c7 45 f4 00 00 00 00 	movl   $0x0,-0xc(%ebp)
    4d55:	50                   	push   %eax
    4d56:	51                   	push   %ecx
    4d57:	e8 64 49 00 00       	call   96c0 <devman_fun_get_handle@plt>
    4d5c:	83 c4 10             	add    $0x10,%esp
    4d5f:	85 c0                	test   %eax,%eax
    4d61:	75 15                	jne    4d78 <audio_pcm_open+0x38>
    4d63:	8b 55 f4             	mov    -0xc(%ebp),%edx
    4d66:	50                   	push   %eax
    4d67:	50                   	push   %eax
    4d68:	6a 01                	push   $0x1
    4d6a:	52                   	push   %edx
    4d6b:	e8 a0 45 00 00       	call   9310 <devman_device_connect@plt>
    4d70:	83 c4 10             	add    $0x10,%esp
    4d73:	c9                   	leave  
    4d74:	c3                   	ret    
    4d75:	8d 76 00             	lea    0x0(%esi),%esi
    4d78:	31 c0                	xor    %eax,%eax
    4d7a:	c9                   	leave  
    4d7b:	c3                   	ret    
    4d7c:	8d 74 26 00          	lea    0x0(%esi,%eiz,1),%esi

00004d80 <audio_pcm_open_service>:
    4d80:	55                   	push   %ebp
    4d81:	89 e5                	mov    %esp,%ebp
    4d83:	83 ec 0c             	sub    $0xc,%esp
    4d86:	8b 45 08             	mov    0x8(%ebp),%eax
    4d89:	6a 01                	push   $0x1
    4d8b:	68 41 26 9b 41       	push   $0x419b2641
    4d90:	50                   	push   %eax
    4d91:	e8 8a 45 00 00       	call   9320 <loc_service_connect@plt>
    4d96:	c9                   	leave  
    4d97:	c3                   	ret    
    4d98:	90                   	nop
    4d99:	8d b4 26 00 00 00 00 	lea    0x0(%esi,%eiz,1),%esi

00004da0 <audio_pcm_close>:
    4da0:	55                   	push   %ebp
    4da1:	89 e5                	mov    %esp,%ebp
    4da3:	8b 45 08             	mov    0x8(%ebp),%eax
    4da6:	85 c0                	test   %eax,%eax
    4da8:	74 06                	je     4db0 <audio_pcm_close+0x10>
    4daa:	5d                   	pop    %ebp
    4dab:	e9 90 45 00 00       	jmp    9340 <async_hangup@plt>
    4db0:	5d                   	pop    %ebp
    4db1:	c3                   	ret    
    4db2:	8d b4 26 00 00 00 00 	lea    0x0(%esi,%eiz,1),%esi
    4db9:	8d bc 27 00 00 00 00 	lea    0x0(%edi,%eiz,1),%edi

00004dc0 <audio_pcm_get_info_str>:
    4dc0:	55                   	push   %ebp
    4dc1:	89 e5                	mov    %esp,%ebp
    4dc3:	57                   	push   %edi
    4dc4:	56                   	push   %esi
    4dc5:	53                   	push   %ebx
    4dc6:	83 ec 2c             	sub    $0x2c,%esp
    4dc9:	8b 45 0c             	mov    0xc(%ebp),%eax
    4dcc:	85 c0                	test   %eax,%eax
    4dce:	0f 84 ac 00 00 00    	je     4e80 <audio_pcm_get_info_str+0xc0>
    4dd4:	83 ec 0c             	sub    $0xc,%esp
    4dd7:	8b 45 08             	mov    0x8(%ebp),%eax
    4dda:	50                   	push   %eax
    4ddb:	e8 b0 48 00 00       	call   9690 <async_exchange_begin@plt>
    4de0:	83 c4 0c             	add    $0xc,%esp
    4de3:	89 c6                	mov    %eax,%esi
    4de5:	8d 45 e4             	lea    -0x1c(%ebp),%eax
    4de8:	6a 00                	push   $0x0
    4dea:	6a 00                	push   $0x0
    4dec:	6a 00                	push   $0x0
    4dee:	6a 00                	push   $0x0
    4df0:	50                   	push   %eax
    4df1:	6a 00                	push   $0x0
    4df3:	6a 00                	push   $0x0
    4df5:	6a 00                	push   $0x0
    4df7:	6a 00                	push   $0x0
    4df9:	68 04 04 00 00       	push   $0x404
    4dfe:	56                   	push   %esi
    4dff:	e8 ec 45 00 00       	call   93f0 <async_req_fast@plt>
    4e04:	83 c4 30             	add    $0x30,%esp
    4e07:	89 c3                	mov    %eax,%ebx
    4e09:	85 c0                	test   %eax,%eax
    4e0b:	75 2e                	jne    4e3b <audio_pcm_get_info_str+0x7b>
    4e0d:	8b 45 e4             	mov    -0x1c(%ebp),%eax
    4e10:	57                   	push   %edi
    4e11:	57                   	push   %edi
    4e12:	50                   	push   %eax
    4e13:	6a 01                	push   $0x1
    4e15:	e8 96 46 00 00       	call   94b0 <calloc@plt>
    4e1a:	83 c4 10             	add    $0x10,%esp
    4e1d:	89 c7                	mov    %eax,%edi
    4e1f:	85 c0                	test   %eax,%eax
    4e21:	74 64                	je     4e87 <audio_pcm_get_info_str+0xc7>
    4e23:	8b 55 e4             	mov    -0x1c(%ebp),%edx
    4e26:	50                   	push   %eax
    4e27:	52                   	push   %edx
    4e28:	57                   	push   %edi
    4e29:	56                   	push   %esi
    4e2a:	e8 91 47 00 00       	call   95c0 <async_data_read_start@plt>
    4e2f:	83 c4 10             	add    $0x10,%esp
    4e32:	85 c0                	test   %eax,%eax
    4e34:	75 22                	jne    4e58 <audio_pcm_get_info_str+0x98>
    4e36:	8b 45 0c             	mov    0xc(%ebp),%eax
    4e39:	89 38                	mov    %edi,(%eax)
    4e3b:	83 ec 0c             	sub    $0xc,%esp
    4e3e:	56                   	push   %esi
    4e3f:	e8 3c 46 00 00       	call   9480 <async_exchange_end@plt>
    4e44:	83 c4 10             	add    $0x10,%esp
    4e47:	89 d8                	mov    %ebx,%eax
    4e49:	8d 65 f4             	lea    -0xc(%ebp),%esp
    4e4c:	5b                   	pop    %ebx
    4e4d:	5e                   	pop    %esi
    4e4e:	5f                   	pop    %edi
    4e4f:	5d                   	pop    %ebp
    4e50:	c3                   	ret    
    4e51:	8d b4 26 00 00 00 00 	lea    0x0(%esi,%eiz,1),%esi
    4e58:	83 ec 0c             	sub    $0xc,%esp
    4e5b:	89 45 d4             	mov    %eax,-0x2c(%ebp)
    4e5e:	57                   	push   %edi
    4e5f:	e8 ec 48 00 00       	call   9750 <free@plt>
    4e64:	89 34 24             	mov    %esi,(%esp)
    4e67:	e8 14 46 00 00       	call   9480 <async_exchange_end@plt>
    4e6c:	8b 45 d4             	mov    -0x2c(%ebp),%eax
    4e6f:	83 c4 10             	add    $0x10,%esp
    4e72:	8d 65 f4             	lea    -0xc(%ebp),%esp
    4e75:	5b                   	pop    %ebx
    4e76:	5e                   	pop    %esi
    4e77:	5f                   	pop    %edi
    4e78:	5d                   	pop    %ebp
    4e79:	c3                   	ret    
    4e7a:	8d b6 00 00 00 00    	lea    0x0(%esi),%esi
    4e80:	b8 f2 ff ff ff       	mov    $0xfffffff2,%eax
    4e85:	eb c2                	jmp    4e49 <audio_pcm_get_info_str+0x89>
    4e87:	51                   	push   %ecx
    4e88:	6a 00                	push   $0x0
    4e8a:	6a ff                	push   $0xffffffff
    4e8c:	56                   	push   %esi
    4e8d:	e8 2e 47 00 00       	call   95c0 <async_data_read_start@plt>
    4e92:	89 34 24             	mov    %esi,(%esp)
    4e95:	e8 e6 45 00 00       	call   9480 <async_exchange_end@plt>
    4e9a:	83 c4 10             	add    $0x10,%esp
    4e9d:	b8 fe ff ff ff       	mov    $0xfffffffe,%eax
    4ea2:	eb a5                	jmp    4e49 <audio_pcm_get_info_str+0x89>
    4ea4:	8d b6 00 00 00 00    	lea    0x0(%esi),%esi
    4eaa:	8d bf 00 00 00 00    	lea    0x0(%edi),%edi

00004eb0 <audio_pcm_query_cap>:
    4eb0:	55                   	push   %ebp
    4eb1:	89 e5                	mov    %esp,%ebp
    4eb3:	53                   	push   %ebx
    4eb4:	83 ec 30             	sub    $0x30,%esp
    4eb7:	8b 45 08             	mov    0x8(%ebp),%eax
    4eba:	50                   	push   %eax
    4ebb:	e8 d0 47 00 00       	call   9690 <async_exchange_begin@plt>
    4ec0:	83 c4 0c             	add    $0xc,%esp
    4ec3:	89 c3                	mov    %eax,%ebx
    4ec5:	8b 55 0c             	mov    0xc(%ebp),%edx
    4ec8:	8d 45 f4             	lea    -0xc(%ebp),%eax
    4ecb:	6a 00                	push   $0x0
    4ecd:	c7 45 f4 00 00 00 00 	movl   $0x0,-0xc(%ebp)
    4ed4:	6a 00                	push   $0x0
    4ed6:	6a 00                	push   $0x0
    4ed8:	6a 00                	push   $0x0
    4eda:	50                   	push   %eax
    4edb:	6a 00                	push   $0x0
    4edd:	6a 00                	push   $0x0
    4edf:	52                   	push   %edx
    4ee0:	6a 01                	push   $0x1
    4ee2:	68 04 04 00 00       	push   $0x404
    4ee7:	53                   	push   %ebx
    4ee8:	e8 03 45 00 00       	call   93f0 <async_req_fast@plt>
    4eed:	83 c4 24             	add    $0x24,%esp
    4ef0:	89 45 e4             	mov    %eax,-0x1c(%ebp)
    4ef3:	53                   	push   %ebx
    4ef4:	e8 87 45 00 00       	call   9480 <async_exchange_end@plt>
    4ef9:	8b 45 e4             	mov    -0x1c(%ebp),%eax
    4efc:	83 c4 10             	add    $0x10,%esp
    4eff:	85 c0                	test   %eax,%eax
    4f01:	75 03                	jne    4f06 <audio_pcm_query_cap+0x56>
    4f03:	8b 45 f4             	mov    -0xc(%ebp),%eax
    4f06:	8b 5d fc             	mov    -0x4(%ebp),%ebx
    4f09:	c9                   	leave  
    4f0a:	c3                   	ret    
    4f0b:	90                   	nop
    4f0c:	8d 74 26 00          	lea    0x0(%esi,%eiz,1),%esi

00004f10 <audio_pcm_get_buffer_pos>:
    4f10:	55                   	push   %ebp
    4f11:	89 e5                	mov    %esp,%ebp
    4f13:	56                   	push   %esi
    4f14:	53                   	push   %ebx
    4f15:	83 ec 20             	sub    $0x20,%esp
    4f18:	8b 75 0c             	mov    0xc(%ebp),%esi
    4f1b:	85 f6                	test   %esi,%esi
    4f1d:	74 61                	je     4f80 <audio_pcm_get_buffer_pos+0x70>
    4f1f:	83 ec 0c             	sub    $0xc,%esp
    4f22:	8b 45 08             	mov    0x8(%ebp),%eax
    4f25:	50                   	push   %eax
    4f26:	e8 65 47 00 00       	call   9690 <async_exchange_begin@plt>
    4f2b:	83 c4 0c             	add    $0xc,%esp
    4f2e:	89 c3                	mov    %eax,%ebx
    4f30:	8d 45 f4             	lea    -0xc(%ebp),%eax
    4f33:	c7 45 f4 00 00 00 00 	movl   $0x0,-0xc(%ebp)
    4f3a:	6a 00                	push   $0x0
    4f3c:	6a 00                	push   $0x0
    4f3e:	6a 00                	push   $0x0
    4f40:	6a 00                	push   $0x0
    4f42:	50                   	push   %eax
    4f43:	6a 00                	push   $0x0
    4f45:	6a 00                	push   $0x0
    4f47:	6a 00                	push   $0x0
    4f49:	6a 07                	push   $0x7
    4f4b:	68 04 04 00 00       	push   $0x404
    4f50:	53                   	push   %ebx
    4f51:	e8 9a 44 00 00       	call   93f0 <async_req_fast@plt>
    4f56:	83 c4 30             	add    $0x30,%esp
    4f59:	85 c0                	test   %eax,%eax
    4f5b:	74 1b                	je     4f78 <audio_pcm_get_buffer_pos+0x68>
    4f5d:	83 ec 0c             	sub    $0xc,%esp
    4f60:	89 45 e4             	mov    %eax,-0x1c(%ebp)
    4f63:	53                   	push   %ebx
    4f64:	e8 17 45 00 00       	call   9480 <async_exchange_end@plt>
    4f69:	83 c4 10             	add    $0x10,%esp
    4f6c:	8b 45 e4             	mov    -0x1c(%ebp),%eax
    4f6f:	8d 65 f8             	lea    -0x8(%ebp),%esp
    4f72:	5b                   	pop    %ebx
    4f73:	5e                   	pop    %esi
    4f74:	5d                   	pop    %ebp
    4f75:	c3                   	ret    
    4f76:	66 90                	xchg   %ax,%ax
    4f78:	8b 55 f4             	mov    -0xc(%ebp),%edx
    4f7b:	89 16                	mov    %edx,(%esi)
    4f7d:	eb de                	jmp    4f5d <audio_pcm_get_buffer_pos+0x4d>
    4f7f:	90                   	nop
    4f80:	b8 f2 ff ff ff       	mov    $0xfffffff2,%eax
    4f85:	eb e8                	jmp    4f6f <audio_pcm_get_buffer_pos+0x5f>
    4f87:	89 f6                	mov    %esi,%esi
    4f89:	8d bc 27 00 00 00 00 	lea    0x0(%edi,%eiz,1),%edi

00004f90 <audio_pcm_test_format>:
    4f90:	55                   	push   %ebp
    4f91:	89 e5                	mov    %esp,%ebp
    4f93:	57                   	push   %edi
    4f94:	56                   	push   %esi
    4f95:	53                   	push   %ebx
    4f96:	83 ec 38             	sub    $0x38,%esp
    4f99:	8b 45 08             	mov    0x8(%ebp),%eax
    4f9c:	8b 5d 0c             	mov    0xc(%ebp),%ebx
    4f9f:	50                   	push   %eax
    4fa0:	e8 eb 46 00 00       	call   9690 <async_exchange_begin@plt>
    4fa5:	83 c4 10             	add    $0x10,%esp
    4fa8:	89 c6                	mov    %eax,%esi
    4faa:	85 db                	test   %ebx,%ebx
    4fac:	0f 84 be 00 00 00    	je     5070 <audio_pcm_test_format+0xe0>
    4fb2:	8b 03                	mov    (%ebx),%eax
    4fb4:	8b 7d 10             	mov    0x10(%ebp),%edi
    4fb7:	89 45 dc             	mov    %eax,-0x24(%ebp)
    4fba:	85 ff                	test   %edi,%edi
    4fbc:	0f 84 be 00 00 00    	je     5080 <audio_pcm_test_format+0xf0>
    4fc2:	8b 4d 10             	mov    0x10(%ebp),%ecx
    4fc5:	8b 11                	mov    (%ecx),%edx
    4fc7:	8b 4d 14             	mov    0x14(%ebp),%ecx
    4fca:	89 55 e0             	mov    %edx,-0x20(%ebp)
    4fcd:	85 c9                	test   %ecx,%ecx
    4fcf:	0f 84 bb 00 00 00    	je     5090 <audio_pcm_test_format+0x100>
    4fd5:	8b 7d 14             	mov    0x14(%ebp),%edi
    4fd8:	8b 0f                	mov    (%edi),%ecx
    4fda:	57                   	push   %edi
    4fdb:	8d 7d e4             	lea    -0x1c(%ebp),%edi
    4fde:	6a 00                	push   $0x0
    4fe0:	6a 00                	push   $0x0
    4fe2:	57                   	push   %edi
    4fe3:	8d 7d e0             	lea    -0x20(%ebp),%edi
    4fe6:	57                   	push   %edi
    4fe7:	8d 7d dc             	lea    -0x24(%ebp),%edi
    4fea:	57                   	push   %edi
    4feb:	89 4d e4             	mov    %ecx,-0x1c(%ebp)
    4fee:	51                   	push   %ecx
    4fef:	52                   	push   %edx
    4ff0:	50                   	push   %eax
    4ff1:	6a 04                	push   $0x4
    4ff3:	68 04 04 00 00       	push   $0x404
    4ff8:	56                   	push   %esi
    4ff9:	e8 f2 43 00 00       	call   93f0 <async_req_fast@plt>
    4ffe:	83 c4 24             	add    $0x24,%esp
    5001:	89 45 d4             	mov    %eax,-0x2c(%ebp)
    5004:	56                   	push   %esi
    5005:	e8 76 44 00 00       	call   9480 <async_exchange_end@plt>
    500a:	8b 45 d4             	mov    -0x2c(%ebp),%eax
    500d:	83 c4 10             	add    $0x10,%esp
    5010:	85 c0                	test   %eax,%eax
    5012:	74 34                	je     5048 <audio_pcm_test_format+0xb8>
    5014:	83 f8 fd             	cmp    $0xfffffffd,%eax
    5017:	74 2f                	je     5048 <audio_pcm_test_format+0xb8>
    5019:	85 db                	test   %ebx,%ebx
    501b:	74 05                	je     5022 <audio_pcm_test_format+0x92>
    501d:	8b 55 dc             	mov    -0x24(%ebp),%edx
    5020:	89 13                	mov    %edx,(%ebx)
    5022:	8b 4d 10             	mov    0x10(%ebp),%ecx
    5025:	85 c9                	test   %ecx,%ecx
    5027:	74 08                	je     5031 <audio_pcm_test_format+0xa1>
    5029:	8b 55 e0             	mov    -0x20(%ebp),%edx
    502c:	8b 75 10             	mov    0x10(%ebp),%esi
    502f:	89 16                	mov    %edx,(%esi)
    5031:	8b 55 14             	mov    0x14(%ebp),%edx
    5034:	85 d2                	test   %edx,%edx
    5036:	74 08                	je     5040 <audio_pcm_test_format+0xb0>
    5038:	8b 4d 14             	mov    0x14(%ebp),%ecx
    503b:	8b 55 e4             	mov    -0x1c(%ebp),%edx
    503e:	89 11                	mov    %edx,(%ecx)
    5040:	8d 65 f4             	lea    -0xc(%ebp),%esp
    5043:	5b                   	pop    %ebx
    5044:	5e                   	pop    %esi
    5045:	5f                   	pop    %edi
    5046:	5d                   	pop    %ebp
    5047:	c3                   	ret    
    5048:	85 db                	test   %ebx,%ebx
    504a:	74 07                	je     5053 <audio_pcm_test_format+0xc3>
    504c:	8b 55 dc             	mov    -0x24(%ebp),%edx
    504f:	39 13                	cmp    %edx,(%ebx)
    5051:	75 cd                	jne    5020 <audio_pcm_test_format+0x90>
    5053:	8b 7d 10             	mov    0x10(%ebp),%edi
    5056:	85 ff                	test   %edi,%edi
    5058:	74 3e                	je     5098 <audio_pcm_test_format+0x108>
    505a:	8b 75 10             	mov    0x10(%ebp),%esi
    505d:	8b 55 e0             	mov    -0x20(%ebp),%edx
    5060:	39 16                	cmp    %edx,(%esi)
    5062:	74 34                	je     5098 <audio_pcm_test_format+0x108>
    5064:	85 db                	test   %ebx,%ebx
    5066:	75 b5                	jne    501d <audio_pcm_test_format+0x8d>
    5068:	eb c5                	jmp    502f <audio_pcm_test_format+0x9f>
    506a:	8d b6 00 00 00 00    	lea    0x0(%esi),%esi
    5070:	31 c0                	xor    %eax,%eax
    5072:	8b 7d 10             	mov    0x10(%ebp),%edi
    5075:	89 45 dc             	mov    %eax,-0x24(%ebp)
    5078:	85 ff                	test   %edi,%edi
    507a:	0f 85 42 ff ff ff    	jne    4fc2 <audio_pcm_test_format+0x32>
    5080:	31 d2                	xor    %edx,%edx
    5082:	8b 4d 14             	mov    0x14(%ebp),%ecx
    5085:	89 55 e0             	mov    %edx,-0x20(%ebp)
    5088:	85 c9                	test   %ecx,%ecx
    508a:	0f 85 45 ff ff ff    	jne    4fd5 <audio_pcm_test_format+0x45>
    5090:	31 c9                	xor    %ecx,%ecx
    5092:	e9 43 ff ff ff       	jmp    4fda <audio_pcm_test_format+0x4a>
    5097:	90                   	nop
    5098:	8b 75 14             	mov    0x14(%ebp),%esi
    509b:	85 f6                	test   %esi,%esi
    509d:	74 0e                	je     50ad <audio_pcm_test_format+0x11d>
    509f:	8b 75 14             	mov    0x14(%ebp),%esi
    50a2:	8b 4d e4             	mov    -0x1c(%ebp),%ecx
    50a5:	39 0e                	cmp    %ecx,(%esi)
    50a7:	0f 85 6c ff ff ff    	jne    5019 <audio_pcm_test_format+0x89>
    50ad:	31 c0                	xor    %eax,%eax
    50af:	eb 8f                	jmp    5040 <audio_pcm_test_format+0xb0>
    50b1:	eb 0d                	jmp    50c0 <audio_pcm_register_event_callback>
    50b3:	90                   	nop
    50b4:	90                   	nop
    50b5:	90                   	nop
    50b6:	90                   	nop
    50b7:	90                   	nop
    50b8:	90                   	nop
    50b9:	90                   	nop
    50ba:	90                   	nop
    50bb:	90                   	nop
    50bc:	90                   	nop
    50bd:	90                   	nop
    50be:	90                   	nop
    50bf:	90                   	nop

000050c0 <audio_pcm_register_event_callback>:
    50c0:	55                   	push   %ebp
    50c1:	89 e5                	mov    %esp,%ebp
    50c3:	56                   	push   %esi
    50c4:	53                   	push   %ebx
    50c5:	83 ec 20             	sub    $0x20,%esp
    50c8:	8b 75 0c             	mov    0xc(%ebp),%esi
    50cb:	85 f6                	test   %esi,%esi
    50cd:	74 71                	je     5140 <audio_pcm_register_event_callback+0x80>
    50cf:	83 ec 0c             	sub    $0xc,%esp
    50d2:	8b 4d 08             	mov    0x8(%ebp),%ecx
    50d5:	51                   	push   %ecx
    50d6:	e8 b5 45 00 00       	call   9690 <async_exchange_begin@plt>
    50db:	83 c4 0c             	add    $0xc,%esp
    50de:	89 c3                	mov    %eax,%ebx
    50e0:	6a 00                	push   $0x0
    50e2:	6a 00                	push   $0x0
    50e4:	6a 00                	push   $0x0
    50e6:	6a 00                	push   $0x0
    50e8:	6a 00                	push   $0x0
    50ea:	6a 00                	push   $0x0
    50ec:	6a 00                	push   $0x0
    50ee:	6a 00                	push   $0x0
    50f0:	6a 02                	push   $0x2
    50f2:	68 04 04 00 00       	push   $0x404
    50f7:	50                   	push   %eax
    50f8:	e8 f3 42 00 00       	call   93f0 <async_req_fast@plt>
    50fd:	83 c4 30             	add    $0x30,%esp
    5100:	85 c0                	test   %eax,%eax
    5102:	74 1c                	je     5120 <audio_pcm_register_event_callback+0x60>
    5104:	83 ec 0c             	sub    $0xc,%esp
    5107:	89 45 e4             	mov    %eax,-0x1c(%ebp)
    510a:	53                   	push   %ebx
    510b:	e8 70 43 00 00       	call   9480 <async_exchange_end@plt>
    5110:	83 c4 10             	add    $0x10,%esp
    5113:	8b 45 e4             	mov    -0x1c(%ebp),%eax
    5116:	8d 65 f8             	lea    -0x8(%ebp),%esp
    5119:	5b                   	pop    %ebx
    511a:	5e                   	pop    %esi
    511b:	5d                   	pop    %ebp
    511c:	c3                   	ret    
    511d:	8d 76 00             	lea    0x0(%esi),%esi
    5120:	8b 55 10             	mov    0x10(%ebp),%edx
    5123:	50                   	push   %eax
    5124:	8d 45 f4             	lea    -0xc(%ebp),%eax
    5127:	50                   	push   %eax
    5128:	52                   	push   %edx
    5129:	56                   	push   %esi
    512a:	6a 00                	push   $0x0
    512c:	6a 00                	push   $0x0
    512e:	68 16 86 8f db       	push   $0xdb8f8616
    5133:	53                   	push   %ebx
    5134:	e8 07 44 00 00       	call   9540 <async_create_callback_port@plt>
    5139:	83 c4 20             	add    $0x20,%esp
    513c:	eb c6                	jmp    5104 <audio_pcm_register_event_callback+0x44>
    513e:	66 90                	xchg   %ax,%ax
    5140:	b8 f2 ff ff ff       	mov    $0xfffffff2,%eax
    5145:	eb cf                	jmp    5116 <audio_pcm_register_event_callback+0x56>
    5147:	89 f6                	mov    %esi,%esi
    5149:	8d bc 27 00 00 00 00 	lea    0x0(%edi,%eiz,1),%edi

00005150 <audio_pcm_unregister_event_callback>:
    5150:	55                   	push   %ebp
    5151:	89 e5                	mov    %esp,%ebp
    5153:	53                   	push   %ebx
    5154:	83 ec 20             	sub    $0x20,%esp
    5157:	8b 45 08             	mov    0x8(%ebp),%eax
    515a:	50                   	push   %eax
    515b:	e8 30 45 00 00       	call   9690 <async_exchange_begin@plt>
    5160:	83 c4 0c             	add    $0xc,%esp
    5163:	89 c3                	mov    %eax,%ebx
    5165:	6a 00                	push   $0x0
    5167:	6a 00                	push   $0x0
    5169:	6a 00                	push   $0x0
    516b:	6a 00                	push   $0x0
    516d:	6a 00                	push   $0x0
    516f:	6a 00                	push   $0x0
    5171:	6a 00                	push   $0x0
    5173:	6a 00                	push   $0x0
    5175:	6a 03                	push   $0x3
    5177:	68 04 04 00 00       	push   $0x404
    517c:	50                   	push   %eax
    517d:	e8 6e 42 00 00       	call   93f0 <async_req_fast@plt>
    5182:	83 c4 24             	add    $0x24,%esp
    5185:	89 45 f4             	mov    %eax,-0xc(%ebp)
    5188:	53                   	push   %ebx
    5189:	e8 f2 42 00 00       	call   9480 <async_exchange_end@plt>
    518e:	8b 45 f4             	mov    -0xc(%ebp),%eax
    5191:	8b 5d fc             	mov    -0x4(%ebp),%ebx
    5194:	c9                   	leave  
    5195:	c3                   	ret    
    5196:	8d 76 00             	lea    0x0(%esi),%esi
    5199:	8d bc 27 00 00 00 00 	lea    0x0(%edi,%eiz,1),%edi

000051a0 <audio_pcm_get_buffer>:
    51a0:	55                   	push   %ebp
    51a1:	89 e5                	mov    %esp,%ebp
    51a3:	57                   	push   %edi
    51a4:	56                   	push   %esi
    51a5:	53                   	push   %ebx
    51a6:	83 ec 2c             	sub    $0x2c,%esp
    51a9:	8b 75 0c             	mov    0xc(%ebp),%esi
    51ac:	8b 5d 10             	mov    0x10(%ebp),%ebx
    51af:	85 f6                	test   %esi,%esi
    51b1:	0f 84 91 00 00 00    	je     5248 <audio_pcm_get_buffer+0xa8>
    51b7:	85 db                	test   %ebx,%ebx
    51b9:	0f 84 89 00 00 00    	je     5248 <audio_pcm_get_buffer+0xa8>
    51bf:	83 ec 0c             	sub    $0xc,%esp
    51c2:	8b 55 08             	mov    0x8(%ebp),%edx
    51c5:	52                   	push   %edx
    51c6:	e8 c5 44 00 00       	call   9690 <async_exchange_begin@plt>
    51cb:	83 c4 0c             	add    $0xc,%esp
    51ce:	89 c7                	mov    %eax,%edi
    51d0:	8d 55 e0             	lea    -0x20(%ebp),%edx
    51d3:	8b 03                	mov    (%ebx),%eax
    51d5:	89 45 e0             	mov    %eax,-0x20(%ebp)
    51d8:	6a 00                	push   $0x0
    51da:	6a 00                	push   $0x0
    51dc:	6a 00                	push   $0x0
    51de:	6a 00                	push   $0x0
    51e0:	52                   	push   %edx
    51e1:	6a 00                	push   $0x0
    51e3:	6a 00                	push   $0x0
    51e5:	50                   	push   %eax
    51e6:	6a 05                	push   $0x5
    51e8:	68 04 04 00 00       	push   $0x404
    51ed:	57                   	push   %edi
    51ee:	e8 fd 41 00 00       	call   93f0 <async_req_fast@plt>
    51f3:	83 c4 30             	add    $0x30,%esp
    51f6:	85 c0                	test   %eax,%eax
    51f8:	75 2d                	jne    5227 <audio_pcm_get_buffer+0x87>
    51fa:	83 ec 0c             	sub    $0xc,%esp
    51fd:	8d 45 e4             	lea    -0x1c(%ebp),%eax
    5200:	c7 45 e4 00 00 00 00 	movl   $0x0,-0x1c(%ebp)
    5207:	50                   	push   %eax
    5208:	8b 45 e0             	mov    -0x20(%ebp),%eax
    520b:	6a 00                	push   $0x0
    520d:	6a 00                	push   $0x0
    520f:	50                   	push   %eax
    5210:	57                   	push   %edi
    5211:	e8 9a 41 00 00       	call   93b0 <async_share_in_start@plt>
    5216:	83 c4 20             	add    $0x20,%esp
    5219:	85 c0                	test   %eax,%eax
    521b:	75 0a                	jne    5227 <audio_pcm_get_buffer+0x87>
    521d:	8b 55 e4             	mov    -0x1c(%ebp),%edx
    5220:	89 16                	mov    %edx,(%esi)
    5222:	8b 55 e0             	mov    -0x20(%ebp),%edx
    5225:	89 13                	mov    %edx,(%ebx)
    5227:	83 ec 0c             	sub    $0xc,%esp
    522a:	89 45 d4             	mov    %eax,-0x2c(%ebp)
    522d:	57                   	push   %edi
    522e:	e8 4d 42 00 00       	call   9480 <async_exchange_end@plt>
    5233:	83 c4 10             	add    $0x10,%esp
    5236:	8b 45 d4             	mov    -0x2c(%ebp),%eax
    5239:	8d 65 f4             	lea    -0xc(%ebp),%esp
    523c:	5b                   	pop    %ebx
    523d:	5e                   	pop    %esi
    523e:	5f                   	pop    %edi
    523f:	5d                   	pop    %ebp
    5240:	c3                   	ret    
    5241:	8d b4 26 00 00 00 00 	lea    0x0(%esi,%eiz,1),%esi
    5248:	b8 f2 ff ff ff       	mov    $0xfffffff2,%eax
    524d:	eb ea                	jmp    5239 <audio_pcm_get_buffer+0x99>
    524f:	90                   	nop

00005250 <audio_pcm_release_buffer>:
    5250:	55                   	push   %ebp
    5251:	89 e5                	mov    %esp,%ebp
    5253:	53                   	push   %ebx
    5254:	83 ec 20             	sub    $0x20,%esp
    5257:	8b 45 08             	mov    0x8(%ebp),%eax
    525a:	50                   	push   %eax
    525b:	e8 30 44 00 00       	call   9690 <async_exchange_begin@plt>
    5260:	83 c4 0c             	add    $0xc,%esp
    5263:	89 c3                	mov    %eax,%ebx
    5265:	6a 00                	push   $0x0
    5267:	6a 00                	push   $0x0
    5269:	6a 00                	push   $0x0
    526b:	6a 00                	push   $0x0
    526d:	6a 00                	push   $0x0
    526f:	6a 00                	push   $0x0
    5271:	6a 00                	push   $0x0
    5273:	6a 00                	push   $0x0
    5275:	6a 06                	push   $0x6
    5277:	68 04 04 00 00       	push   $0x404
    527c:	50                   	push   %eax
    527d:	e8 6e 41 00 00       	call   93f0 <async_req_fast@plt>
    5282:	83 c4 24             	add    $0x24,%esp
    5285:	89 45 f4             	mov    %eax,-0xc(%ebp)
    5288:	53                   	push   %ebx
    5289:	e8 f2 41 00 00       	call   9480 <async_exchange_end@plt>
    528e:	8b 45 f4             	mov    -0xc(%ebp),%eax
    5291:	8b 5d fc             	mov    -0x4(%ebp),%ebx
    5294:	c9                   	leave  
    5295:	c3                   	ret    
    5296:	8d 76 00             	lea    0x0(%esi),%esi
    5299:	8d bc 27 00 00 00 00 	lea    0x0(%edi,%eiz,1),%edi

000052a0 <audio_pcm_start_playback_fragment>:
    52a0:	55                   	push   %ebp
    52a1:	89 e5                	mov    %esp,%ebp
    52a3:	56                   	push   %esi
    52a4:	53                   	push   %ebx
    52a5:	83 ec 10             	sub    $0x10,%esp
    52a8:	81 7d 10 ff ff 00 00 	cmpl   $0xffff,0x10(%ebp)
    52af:	77 5f                	ja     5310 <audio_pcm_start_playback_fragment+0x70>
    52b1:	f7 45 18 00 00 ff ff 	testl  $0xffff0000,0x18(%ebp)
    52b8:	75 5d                	jne    5317 <audio_pcm_start_playback_fragment+0x77>
    52ba:	83 ec 0c             	sub    $0xc,%esp
    52bd:	8b 5d 10             	mov    0x10(%ebp),%ebx
    52c0:	8b 55 08             	mov    0x8(%ebp),%edx
    52c3:	8b 45 18             	mov    0x18(%ebp),%eax
    52c6:	c1 e3 10             	shl    $0x10,%ebx
    52c9:	52                   	push   %edx
    52ca:	09 c3                	or     %eax,%ebx
    52cc:	e8 bf 43 00 00       	call   9690 <async_exchange_begin@plt>
    52d1:	83 c4 0c             	add    $0xc,%esp
    52d4:	8b 4d 14             	mov    0x14(%ebp),%ecx
    52d7:	89 c6                	mov    %eax,%esi
    52d9:	6a 00                	push   $0x0
    52db:	6a 00                	push   $0x0
    52dd:	6a 00                	push   $0x0
    52df:	6a 00                	push   $0x0
    52e1:	6a 00                	push   $0x0
    52e3:	53                   	push   %ebx
    52e4:	8b 5d 0c             	mov    0xc(%ebp),%ebx
    52e7:	51                   	push   %ecx
    52e8:	53                   	push   %ebx
    52e9:	6a 08                	push   $0x8
    52eb:	68 04 04 00 00       	push   $0x404
    52f0:	50                   	push   %eax
    52f1:	e8 fa 40 00 00       	call   93f0 <async_req_fast@plt>
    52f6:	83 c4 24             	add    $0x24,%esp
    52f9:	56                   	push   %esi
    52fa:	89 45 f4             	mov    %eax,-0xc(%ebp)
    52fd:	e8 7e 41 00 00       	call   9480 <async_exchange_end@plt>
    5302:	83 c4 10             	add    $0x10,%esp
    5305:	8b 45 f4             	mov    -0xc(%ebp),%eax
    5308:	8d 65 f8             	lea    -0x8(%ebp),%esp
    530b:	5b                   	pop    %ebx
    530c:	5e                   	pop    %esi
    530d:	5d                   	pop    %ebp
    530e:	c3                   	ret    
    530f:	90                   	nop
    5310:	b8 f2 ff ff ff       	mov    $0xfffffff2,%eax
    5315:	eb f1                	jmp    5308 <audio_pcm_start_playback_fragment+0x68>
    5317:	56                   	push   %esi
    5318:	68 a6 01 00 00       	push   $0x1a6
    531d:	68 d6 7c 00 00       	push   $0x7cd6
    5322:	68 40 7e 00 00       	push   $0x7e40
    5327:	e8 74 41 00 00       	call   94a0 <assert_abort@plt>
    532c:	8d 74 26 00          	lea    0x0(%esi,%eiz,1),%esi

00005330 <audio_pcm_last_playback_fragment>:
    5330:	55                   	push   %ebp
    5331:	89 e5                	mov    %esp,%ebp
    5333:	53                   	push   %ebx
    5334:	83 ec 20             	sub    $0x20,%esp
    5337:	8b 45 08             	mov    0x8(%ebp),%eax
    533a:	50                   	push   %eax
    533b:	e8 50 43 00 00       	call   9690 <async_exchange_begin@plt>
    5340:	83 c4 0c             	add    $0xc,%esp
    5343:	89 c3                	mov    %eax,%ebx
    5345:	6a 00                	push   $0x0
    5347:	6a 00                	push   $0x0
    5349:	6a 00                	push   $0x0
    534b:	6a 00                	push   $0x0
    534d:	6a 00                	push   $0x0
    534f:	6a 00                	push   $0x0
    5351:	6a 00                	push   $0x0
    5353:	6a 00                	push   $0x0
    5355:	6a 09                	push   $0x9
    5357:	68 04 04 00 00       	push   $0x404
    535c:	50                   	push   %eax
    535d:	e8 8e 40 00 00       	call   93f0 <async_req_fast@plt>
    5362:	83 c4 24             	add    $0x24,%esp
    5365:	89 45 f4             	mov    %eax,-0xc(%ebp)
    5368:	53                   	push   %ebx
    5369:	e8 12 41 00 00       	call   9480 <async_exchange_end@plt>
    536e:	8b 45 f4             	mov    -0xc(%ebp),%eax
    5371:	8b 5d fc             	mov    -0x4(%ebp),%ebx
    5374:	c9                   	leave  
    5375:	c3                   	ret    
    5376:	8d 76 00             	lea    0x0(%esi),%esi
    5379:	8d bc 27 00 00 00 00 	lea    0x0(%edi,%eiz,1),%edi

00005380 <audio_pcm_start_playback>:
    5380:	55                   	push   %ebp
    5381:	89 e5                	mov    %esp,%ebp
    5383:	56                   	push   %esi
    5384:	53                   	push   %ebx
    5385:	83 ec 10             	sub    $0x10,%esp
    5388:	81 7d 0c ff ff 00 00 	cmpl   $0xffff,0xc(%ebp)
    538f:	77 5f                	ja     53f0 <audio_pcm_start_playback+0x70>
    5391:	f7 45 14 00 00 ff ff 	testl  $0xffff0000,0x14(%ebp)
    5398:	75 5d                	jne    53f7 <audio_pcm_start_playback+0x77>
    539a:	83 ec 0c             	sub    $0xc,%esp
    539d:	8b 5d 0c             	mov    0xc(%ebp),%ebx
    53a0:	8b 55 08             	mov    0x8(%ebp),%edx
    53a3:	8b 45 14             	mov    0x14(%ebp),%eax
    53a6:	c1 e3 10             	shl    $0x10,%ebx
    53a9:	52                   	push   %edx
    53aa:	09 c3                	or     %eax,%ebx
    53ac:	e8 df 42 00 00       	call   9690 <async_exchange_begin@plt>
    53b1:	83 c4 0c             	add    $0xc,%esp
    53b4:	8b 4d 10             	mov    0x10(%ebp),%ecx
    53b7:	89 c6                	mov    %eax,%esi
    53b9:	6a 00                	push   $0x0
    53bb:	6a 00                	push   $0x0
    53bd:	6a 00                	push   $0x0
    53bf:	6a 00                	push   $0x0
    53c1:	6a 00                	push   $0x0
    53c3:	53                   	push   %ebx
    53c4:	51                   	push   %ecx
    53c5:	6a 00                	push   $0x0
    53c7:	6a 08                	push   $0x8
    53c9:	68 04 04 00 00       	push   $0x404
    53ce:	50                   	push   %eax
    53cf:	e8 1c 40 00 00       	call   93f0 <async_req_fast@plt>
    53d4:	83 c4 24             	add    $0x24,%esp
    53d7:	89 45 f4             	mov    %eax,-0xc(%ebp)
    53da:	56                   	push   %esi
    53db:	e8 a0 40 00 00       	call   9480 <async_exchange_end@plt>
    53e0:	83 c4 10             	add    $0x10,%esp
    53e3:	8b 45 f4             	mov    -0xc(%ebp),%eax
    53e6:	8d 65 f8             	lea    -0x8(%ebp),%esp
    53e9:	5b                   	pop    %ebx
    53ea:	5e                   	pop    %esi
    53eb:	5d                   	pop    %ebp
    53ec:	c3                   	ret    
    53ed:	8d 76 00             	lea    0x0(%esi),%esi
    53f0:	b8 f2 ff ff ff       	mov    $0xfffffff2,%eax
    53f5:	eb ef                	jmp    53e6 <audio_pcm_start_playback+0x66>
    53f7:	53                   	push   %ebx
    53f8:	68 a6 01 00 00       	push   $0x1a6
    53fd:	68 d6 7c 00 00       	push   $0x7cd6
    5402:	68 40 7e 00 00       	push   $0x7e40
    5407:	e8 94 40 00 00       	call   94a0 <assert_abort@plt>
    540c:	8d 74 26 00          	lea    0x0(%esi,%eiz,1),%esi

00005410 <audio_pcm_stop_playback_immediate>:
    5410:	55                   	push   %ebp
    5411:	89 e5                	mov    %esp,%ebp
    5413:	53                   	push   %ebx
    5414:	83 ec 20             	sub    $0x20,%esp
    5417:	8b 45 08             	mov    0x8(%ebp),%eax
    541a:	50                   	push   %eax
    541b:	e8 70 42 00 00       	call   9690 <async_exchange_begin@plt>
    5420:	83 c4 0c             	add    $0xc,%esp
    5423:	89 c3                	mov    %eax,%ebx
    5425:	6a 00                	push   $0x0
    5427:	6a 00                	push   $0x0
    5429:	6a 00                	push   $0x0
    542b:	6a 00                	push   $0x0
    542d:	6a 00                	push   $0x0
    542f:	6a 00                	push   $0x0
    5431:	6a 00                	push   $0x0
    5433:	6a 01                	push   $0x1
    5435:	6a 09                	push   $0x9
    5437:	68 04 04 00 00       	push   $0x404
    543c:	50                   	push   %eax
    543d:	e8 ae 3f 00 00       	call   93f0 <async_req_fast@plt>
    5442:	83 c4 24             	add    $0x24,%esp
    5445:	89 45 f4             	mov    %eax,-0xc(%ebp)
    5448:	53                   	push   %ebx
    5449:	e8 32 40 00 00       	call   9480 <async_exchange_end@plt>
    544e:	8b 45 f4             	mov    -0xc(%ebp),%eax
    5451:	8b 5d fc             	mov    -0x4(%ebp),%ebx
    5454:	c9                   	leave  
    5455:	c3                   	ret    
    5456:	8d 76 00             	lea    0x0(%esi),%esi
    5459:	8d bc 27 00 00 00 00 	lea    0x0(%edi,%eiz,1),%edi

00005460 <audio_pcm_stop_playback>:
    5460:	55                   	push   %ebp
    5461:	89 e5                	mov    %esp,%ebp
    5463:	53                   	push   %ebx
    5464:	83 ec 20             	sub    $0x20,%esp
    5467:	8b 45 08             	mov    0x8(%ebp),%eax
    546a:	50                   	push   %eax
    546b:	e8 20 42 00 00       	call   9690 <async_exchange_begin@plt>
    5470:	83 c4 0c             	add    $0xc,%esp
    5473:	89 c3                	mov    %eax,%ebx
    5475:	6a 00                	push   $0x0
    5477:	6a 00                	push   $0x0
    5479:	6a 00                	push   $0x0
    547b:	6a 00                	push   $0x0
    547d:	6a 00                	push   $0x0
    547f:	6a 00                	push   $0x0
    5481:	6a 00                	push   $0x0
    5483:	6a 00                	push   $0x0
    5485:	6a 09                	push   $0x9
    5487:	68 04 04 00 00       	push   $0x404
    548c:	50                   	push   %eax
    548d:	e8 5e 3f 00 00       	call   93f0 <async_req_fast@plt>
    5492:	83 c4 24             	add    $0x24,%esp
    5495:	89 45 f4             	mov    %eax,-0xc(%ebp)
    5498:	53                   	push   %ebx
    5499:	e8 e2 3f 00 00       	call   9480 <async_exchange_end@plt>
    549e:	8b 45 f4             	mov    -0xc(%ebp),%eax
    54a1:	8b 5d fc             	mov    -0x4(%ebp),%ebx
    54a4:	c9                   	leave  
    54a5:	c3                   	ret    
    54a6:	8d 76 00             	lea    0x0(%esi),%esi
    54a9:	8d bc 27 00 00 00 00 	lea    0x0(%edi,%eiz,1),%edi

000054b0 <audio_pcm_start_capture_fragment>:
    54b0:	55                   	push   %ebp
    54b1:	89 e5                	mov    %esp,%ebp
    54b3:	56                   	push   %esi
    54b4:	53                   	push   %ebx
    54b5:	83 ec 10             	sub    $0x10,%esp
    54b8:	81 7d 10 ff ff 00 00 	cmpl   $0xffff,0x10(%ebp)
    54bf:	77 5f                	ja     5520 <audio_pcm_start_capture_fragment+0x70>
    54c1:	f7 45 18 00 00 ff ff 	testl  $0xffff0000,0x18(%ebp)
    54c8:	75 5d                	jne    5527 <audio_pcm_start_capture_fragment+0x77>
    54ca:	83 ec 0c             	sub    $0xc,%esp
    54cd:	8b 5d 10             	mov    0x10(%ebp),%ebx
    54d0:	8b 55 08             	mov    0x8(%ebp),%edx
    54d3:	8b 45 18             	mov    0x18(%ebp),%eax
    54d6:	c1 e3 10             	shl    $0x10,%ebx
    54d9:	52                   	push   %edx
    54da:	09 c3                	or     %eax,%ebx
    54dc:	e8 af 41 00 00       	call   9690 <async_exchange_begin@plt>
    54e1:	83 c4 0c             	add    $0xc,%esp
    54e4:	8b 4d 14             	mov    0x14(%ebp),%ecx
    54e7:	89 c6                	mov    %eax,%esi
    54e9:	6a 00                	push   $0x0
    54eb:	6a 00                	push   $0x0
    54ed:	6a 00                	push   $0x0
    54ef:	6a 00                	push   $0x0
    54f1:	6a 00                	push   $0x0
    54f3:	53                   	push   %ebx
    54f4:	8b 5d 0c             	mov    0xc(%ebp),%ebx
    54f7:	51                   	push   %ecx
    54f8:	53                   	push   %ebx
    54f9:	6a 0a                	push   $0xa
    54fb:	68 04 04 00 00       	push   $0x404
    5500:	50                   	push   %eax
    5501:	e8 ea 3e 00 00       	call   93f0 <async_req_fast@plt>
    5506:	83 c4 24             	add    $0x24,%esp
    5509:	56                   	push   %esi
    550a:	89 45 f4             	mov    %eax,-0xc(%ebp)
    550d:	e8 6e 3f 00 00       	call   9480 <async_exchange_end@plt>
    5512:	83 c4 10             	add    $0x10,%esp
    5515:	8b 45 f4             	mov    -0xc(%ebp),%eax
    5518:	8d 65 f8             	lea    -0x8(%ebp),%esp
    551b:	5b                   	pop    %ebx
    551c:	5e                   	pop    %esi
    551d:	5d                   	pop    %ebp
    551e:	c3                   	ret    
    551f:	90                   	nop
    5520:	b8 f2 ff ff ff       	mov    $0xfffffff2,%eax
    5525:	eb f1                	jmp    5518 <audio_pcm_start_capture_fragment+0x68>
    5527:	56                   	push   %esi
    5528:	68 07 02 00 00       	push   $0x207
    552d:	68 d6 7c 00 00       	push   $0x7cd6
    5532:	68 40 7e 00 00       	push   $0x7e40
    5537:	e8 64 3f 00 00       	call   94a0 <assert_abort@plt>
    553c:	8d 74 26 00          	lea    0x0(%esi,%eiz,1),%esi

00005540 <audio_pcm_start_capture>:
    5540:	55                   	push   %ebp
    5541:	89 e5                	mov    %esp,%ebp
    5543:	56                   	push   %esi
    5544:	53                   	push   %ebx
    5545:	83 ec 10             	sub    $0x10,%esp
    5548:	81 7d 0c ff ff 00 00 	cmpl   $0xffff,0xc(%ebp)
    554f:	77 5f                	ja     55b0 <audio_pcm_start_capture+0x70>
    5551:	f7 45 14 00 00 ff ff 	testl  $0xffff0000,0x14(%ebp)
    5558:	75 5d                	jne    55b7 <audio_pcm_start_capture+0x77>
    555a:	83 ec 0c             	sub    $0xc,%esp
    555d:	8b 5d 0c             	mov    0xc(%ebp),%ebx
    5560:	8b 55 08             	mov    0x8(%ebp),%edx
    5563:	8b 45 14             	mov    0x14(%ebp),%eax
    5566:	c1 e3 10             	shl    $0x10,%ebx
    5569:	52                   	push   %edx
    556a:	09 c3                	or     %eax,%ebx
    556c:	e8 1f 41 00 00       	call   9690 <async_exchange_begin@plt>
    5571:	83 c4 0c             	add    $0xc,%esp
    5574:	8b 4d 10             	mov    0x10(%ebp),%ecx
    5577:	89 c6                	mov    %eax,%esi
    5579:	6a 00                	push   $0x0
    557b:	6a 00                	push   $0x0
    557d:	6a 00                	push   $0x0
    557f:	6a 00                	push   $0x0
    5581:	6a 00                	push   $0x0
    5583:	53                   	push   %ebx
    5584:	51                   	push   %ecx
    5585:	6a 00                	push   $0x0
    5587:	6a 0a                	push   $0xa
    5589:	68 04 04 00 00       	push   $0x404
    558e:	50                   	push   %eax
    558f:	e8 5c 3e 00 00       	call   93f0 <async_req_fast@plt>
    5594:	83 c4 24             	add    $0x24,%esp
    5597:	89 45 f4             	mov    %eax,-0xc(%ebp)
    559a:	56                   	push   %esi
    559b:	e8 e0 3e 00 00       	call   9480 <async_exchange_end@plt>
    55a0:	83 c4 10             	add    $0x10,%esp
    55a3:	8b 45 f4             	mov    -0xc(%ebp),%eax
    55a6:	8d 65 f8             	lea    -0x8(%ebp),%esp
    55a9:	5b                   	pop    %ebx
    55aa:	5e                   	pop    %esi
    55ab:	5d                   	pop    %ebp
    55ac:	c3                   	ret    
    55ad:	8d 76 00             	lea    0x0(%esi),%esi
    55b0:	b8 f2 ff ff ff       	mov    $0xfffffff2,%eax
    55b5:	eb ef                	jmp    55a6 <audio_pcm_start_capture+0x66>
    55b7:	53                   	push   %ebx
    55b8:	68 07 02 00 00       	push   $0x207
    55bd:	68 d6 7c 00 00       	push   $0x7cd6
    55c2:	68 40 7e 00 00       	push   $0x7e40
    55c7:	e8 d4 3e 00 00       	call   94a0 <assert_abort@plt>
    55cc:	8d 74 26 00          	lea    0x0(%esi,%eiz,1),%esi

000055d0 <audio_pcm_last_capture_fragment>:
    55d0:	55                   	push   %ebp
    55d1:	89 e5                	mov    %esp,%ebp
    55d3:	53                   	push   %ebx
    55d4:	83 ec 20             	sub    $0x20,%esp
    55d7:	8b 45 08             	mov    0x8(%ebp),%eax
    55da:	50                   	push   %eax
    55db:	e8 b0 40 00 00       	call   9690 <async_exchange_begin@plt>
    55e0:	83 c4 0c             	add    $0xc,%esp
    55e3:	89 c3                	mov    %eax,%ebx
    55e5:	6a 00                	push   $0x0
    55e7:	6a 00                	push   $0x0
    55e9:	6a 00                	push   $0x0
    55eb:	6a 00                	push   $0x0
    55ed:	6a 00                	push   $0x0
    55ef:	6a 00                	push   $0x0
    55f1:	6a 00                	push   $0x0
    55f3:	6a 00                	push   $0x0
    55f5:	6a 0b                	push   $0xb
    55f7:	68 04 04 00 00       	push   $0x404
    55fc:	50                   	push   %eax
    55fd:	e8 ee 3d 00 00       	call   93f0 <async_req_fast@plt>
    5602:	83 c4 24             	add    $0x24,%esp
    5605:	89 45 f4             	mov    %eax,-0xc(%ebp)
    5608:	53                   	push   %ebx
    5609:	e8 72 3e 00 00       	call   9480 <async_exchange_end@plt>
    560e:	8b 45 f4             	mov    -0xc(%ebp),%eax
    5611:	8b 5d fc             	mov    -0x4(%ebp),%ebx
    5614:	c9                   	leave  
    5615:	c3                   	ret    
    5616:	8d 76 00             	lea    0x0(%esi),%esi
    5619:	8d bc 27 00 00 00 00 	lea    0x0(%edi,%eiz,1),%edi

00005620 <audio_pcm_stop_capture_immediate>:
    5620:	55                   	push   %ebp
    5621:	89 e5                	mov    %esp,%ebp
    5623:	53                   	push   %ebx
    5624:	83 ec 20             	sub    $0x20,%esp
    5627:	8b 45 08             	mov    0x8(%ebp),%eax
    562a:	50                   	push   %eax
    562b:	e8 60 40 00 00       	call   9690 <async_exchange_begin@plt>
    5630:	83 c4 0c             	add    $0xc,%esp
    5633:	89 c3                	mov    %eax,%ebx
    5635:	6a 00                	push   $0x0
    5637:	6a 00                	push   $0x0
    5639:	6a 00                	push   $0x0
    563b:	6a 00                	push   $0x0
    563d:	6a 00                	push   $0x0
    563f:	6a 00                	push   $0x0
    5641:	6a 00                	push   $0x0
    5643:	6a 01                	push   $0x1
    5645:	6a 0b                	push   $0xb
    5647:	68 04 04 00 00       	push   $0x404
    564c:	50                   	push   %eax
    564d:	e8 9e 3d 00 00       	call   93f0 <async_req_fast@plt>
    5652:	83 c4 24             	add    $0x24,%esp
    5655:	89 45 f4             	mov    %eax,-0xc(%ebp)
    5658:	53                   	push   %ebx
    5659:	e8 22 3e 00 00       	call   9480 <async_exchange_end@plt>
    565e:	8b 45 f4             	mov    -0xc(%ebp),%eax
    5661:	8b 5d fc             	mov    -0x4(%ebp),%ebx
    5664:	c9                   	leave  
    5665:	c3                   	ret    
    5666:	8d 76 00             	lea    0x0(%esi),%esi
    5669:	8d bc 27 00 00 00 00 	lea    0x0(%edi,%eiz,1),%edi

00005670 <audio_pcm_stop_capture>:
    5670:	55                   	push   %ebp
    5671:	89 e5                	mov    %esp,%ebp
    5673:	53                   	push   %ebx
    5674:	83 ec 20             	sub    $0x20,%esp
    5677:	8b 45 08             	mov    0x8(%ebp),%eax
    567a:	50                   	push   %eax
    567b:	e8 10 40 00 00       	call   9690 <async_exchange_begin@plt>
    5680:	83 c4 0c             	add    $0xc,%esp
    5683:	89 c3                	mov    %eax,%ebx
    5685:	6a 00                	push   $0x0
    5687:	6a 00                	push   $0x0
    5689:	6a 00                	push   $0x0
    568b:	6a 00                	push   $0x0
    568d:	6a 00                	push   $0x0
    568f:	6a 00                	push   $0x0
    5691:	6a 00                	push   $0x0
    5693:	6a 00                	push   $0x0
    5695:	6a 0b                	push   $0xb
    5697:	68 04 04 00 00       	push   $0x404
    569c:	50                   	push   %eax
    569d:	e8 4e 3d 00 00       	call   93f0 <async_req_fast@plt>
    56a2:	83 c4 24             	add    $0x24,%esp
    56a5:	89 45 f4             	mov    %eax,-0xc(%ebp)
    56a8:	53                   	push   %ebx
    56a9:	e8 d2 3d 00 00       	call   9480 <async_exchange_end@plt>
    56ae:	8b 45 f4             	mov    -0xc(%ebp),%eax
    56b1:	8b 5d fc             	mov    -0x4(%ebp),%ebx
    56b4:	c9                   	leave  
    56b5:	c3                   	ret    
    56b6:	66 90                	xchg   %ax,%ax
    56b8:	66 90                	xchg   %ax,%ax
    56ba:	66 90                	xchg   %ax,%ax
    56bc:	66 90                	xchg   %ax,%ax
    56be:	66 90                	xchg   %ax,%ax

000056c0 <ddf_log_init>:
    56c0:	55                   	push   %ebp
    56c1:	89 e5                	mov    %esp,%ebp
    56c3:	5d                   	pop    %ebp
    56c4:	e9 a7 3c 00 00       	jmp    9370 <log_init@plt>
    56c9:	8d b4 26 00 00 00 00 	lea    0x0(%esi,%eiz,1),%esi

000056d0 <ddf_msg>:
    56d0:	55                   	push   %ebp
    56d1:	89 e5                	mov    %esp,%ebp
    56d3:	83 ec 08             	sub    $0x8,%esp
    56d6:	8d 45 10             	lea    0x10(%ebp),%eax
    56d9:	8b 55 0c             	mov    0xc(%ebp),%edx
    56dc:	8b 4d 08             	mov    0x8(%ebp),%ecx
    56df:	50                   	push   %eax
    56e0:	52                   	push   %edx
    56e1:	51                   	push   %ecx
    56e2:	6a ff                	push   $0xffffffff
    56e4:	e8 87 3d 00 00       	call   9470 <log_msgv@plt>
    56e9:	83 c4 10             	add    $0x10,%esp
    56ec:	c9                   	leave  
    56ed:	c3                   	ret    
    56ee:	66 90                	xchg   %ax,%ax

000056f0 <get_normalized_sample>:
    56f0:	55                   	push   %ebp
    56f1:	89 e5                	mov    %esp,%ebp
    56f3:	56                   	push   %esi
    56f4:	53                   	push   %ebx
    56f5:	83 ec 10             	sub    $0x10,%esp
    56f8:	8b 75 0c             	mov    0xc(%ebp),%esi
    56fb:	85 f6                	test   %esi,%esi
    56fd:	0f 84 39 02 00 00    	je     593c <get_normalized_sample+0x24c>
    5703:	85 c0                	test   %eax,%eax
    5705:	0f 84 1c 02 00 00    	je     5927 <get_normalized_sample+0x237>
    570b:	8b 1e                	mov    (%esi),%ebx
    570d:	d9 ee                	fldz   
    570f:	3b 5d 08             	cmp    0x8(%ebp),%ebx
    5712:	76 44                	jbe    5758 <get_normalized_sample+0x68>
    5714:	dd d8                	fstp   %st(0)
    5716:	83 7e 08 11          	cmpl   $0x11,0x8(%esi)
    571a:	0f 87 00 02 00 00    	ja     5920 <get_normalized_sample+0x230>
    5720:	8b 76 08             	mov    0x8(%esi),%esi
    5723:	ff 24 b5 00 8f 00 00 	jmp    *0x8f00(,%esi,4)
    572a:	8d b6 00 00 00 00    	lea    0x0(%esi),%esi
    5730:	0f af cb             	imul   %ebx,%ecx
    5733:	c1 ea 02             	shr    $0x2,%edx
    5736:	8b 5d 08             	mov    0x8(%ebp),%ebx
    5739:	01 d9                	add    %ebx,%ecx
    573b:	d9 ee                	fldz   
    573d:	39 ca                	cmp    %ecx,%edx
    573f:	76 17                	jbe    5758 <get_normalized_sample+0x68>
    5741:	dd d8                	fstp   %st(0)
    5743:	db 04 88             	fildl  (%eax,%ecx,4)
    5746:	d8 05 60 90 00 00    	fadds  0x9060
    574c:	d8 0d 5c 90 00 00    	fmuls  0x905c
    5752:	d8 25 4c 90 00 00    	fsubs  0x904c
    5758:	8d 65 f8             	lea    -0x8(%ebp),%esp
    575b:	5b                   	pop    %ebx
    575c:	5e                   	pop    %esi
    575d:	5d                   	pop    %ebp
    575e:	c3                   	ret    
    575f:	90                   	nop
    5760:	0f af cb             	imul   %ebx,%ecx
    5763:	8b 5d 08             	mov    0x8(%ebp),%ebx
    5766:	01 d9                	add    %ebx,%ecx
    5768:	d9 ee                	fldz   
    576a:	39 ca                	cmp    %ecx,%edx
    576c:	76 ea                	jbe    5758 <get_normalized_sample+0x68>
    576e:	dd d8                	fstp   %st(0)
    5770:	8a 1c 08             	mov    (%eax,%ecx,1),%bl
    5773:	81 e3 ff 00 00 00    	and    $0xff,%ebx
    5779:	66 89 5d e8          	mov    %bx,-0x18(%ebp)
    577d:	df 45 e8             	fild   -0x18(%ebp)
    5780:	d8 35 48 90 00 00    	fdivs  0x9048
    5786:	d8 25 4c 90 00 00    	fsubs  0x904c
    578c:	eb ca                	jmp    5758 <get_normalized_sample+0x68>
    578e:	66 90                	xchg   %ax,%ax
    5790:	0f af cb             	imul   %ebx,%ecx
    5793:	8b 75 08             	mov    0x8(%ebp),%esi
    5796:	01 f1                	add    %esi,%ecx
    5798:	d9 ee                	fldz   
    579a:	39 ca                	cmp    %ecx,%edx
    579c:	76 ba                	jbe    5758 <get_normalized_sample+0x68>
    579e:	dd d8                	fstp   %st(0)
    57a0:	66 0f be 04 08       	movsbw (%eax,%ecx,1),%ax
    57a5:	66 89 45 e8          	mov    %ax,-0x18(%ebp)
    57a9:	df 45 e8             	fild   -0x18(%ebp)
    57ac:	d8 05 50 90 00 00    	fadds  0x9050
    57b2:	d8 35 48 90 00 00    	fdivs  0x9048
    57b8:	d8 25 4c 90 00 00    	fsubs  0x904c
    57be:	eb 98                	jmp    5758 <get_normalized_sample+0x68>
    57c0:	0f af cb             	imul   %ebx,%ecx
    57c3:	d1 ea                	shr    %edx
    57c5:	8b 5d 08             	mov    0x8(%ebp),%ebx
    57c8:	01 d9                	add    %ebx,%ecx
    57ca:	d9 ee                	fldz   
    57cc:	39 ca                	cmp    %ecx,%edx
    57ce:	76 88                	jbe    5758 <get_normalized_sample+0x68>
    57d0:	dd d8                	fstp   %st(0)
    57d2:	66 8b 1c 48          	mov    (%eax,%ecx,2),%bx
    57d6:	81 e3 ff ff 00 00    	and    $0xffff,%ebx
    57dc:	89 5d e8             	mov    %ebx,-0x18(%ebp)
    57df:	db 45 e8             	fildl  -0x18(%ebp)
    57e2:	d8 35 54 90 00 00    	fdivs  0x9054
    57e8:	d8 25 4c 90 00 00    	fsubs  0x904c
    57ee:	e9 65 ff ff ff       	jmp    5758 <get_normalized_sample+0x68>
    57f3:	90                   	nop
    57f4:	8d 74 26 00          	lea    0x0(%esi,%eiz,1),%esi
    57f8:	0f af cb             	imul   %ebx,%ecx
    57fb:	d1 ea                	shr    %edx
    57fd:	8b 5d 08             	mov    0x8(%ebp),%ebx
    5800:	01 d9                	add    %ebx,%ecx
    5802:	d9 ee                	fldz   
    5804:	39 ca                	cmp    %ecx,%edx
    5806:	0f 86 4c ff ff ff    	jbe    5758 <get_normalized_sample+0x68>
    580c:	dd d8                	fstp   %st(0)
    580e:	66 8b 04 48          	mov    (%eax,%ecx,2),%ax
    5812:	66 c1 c0 08          	rol    $0x8,%ax
    5816:	25 ff ff 00 00       	and    $0xffff,%eax
    581b:	89 45 e8             	mov    %eax,-0x18(%ebp)
    581e:	db 45 e8             	fildl  -0x18(%ebp)
    5821:	d8 35 54 90 00 00    	fdivs  0x9054
    5827:	d8 25 4c 90 00 00    	fsubs  0x904c
    582d:	e9 26 ff ff ff       	jmp    5758 <get_normalized_sample+0x68>
    5832:	8d b6 00 00 00 00    	lea    0x0(%esi),%esi
    5838:	0f af cb             	imul   %ebx,%ecx
    583b:	d1 ea                	shr    %edx
    583d:	8b 75 08             	mov    0x8(%ebp),%esi
    5840:	01 f1                	add    %esi,%ecx
    5842:	d9 ee                	fldz   
    5844:	39 ca                	cmp    %ecx,%edx
    5846:	0f 86 0c ff ff ff    	jbe    5758 <get_normalized_sample+0x68>
    584c:	dd d8                	fstp   %st(0)
    584e:	df 04 48             	fild   (%eax,%ecx,2)
    5851:	d8 05 58 90 00 00    	fadds  0x9058
    5857:	d8 35 54 90 00 00    	fdivs  0x9054
    585d:	d8 25 4c 90 00 00    	fsubs  0x904c
    5863:	e9 f0 fe ff ff       	jmp    5758 <get_normalized_sample+0x68>
    5868:	0f af cb             	imul   %ebx,%ecx
    586b:	d1 ea                	shr    %edx
    586d:	8b 75 08             	mov    0x8(%ebp),%esi
    5870:	01 f1                	add    %esi,%ecx
    5872:	d9 ee                	fldz   
    5874:	39 ca                	cmp    %ecx,%edx
    5876:	0f 86 dc fe ff ff    	jbe    5758 <get_normalized_sample+0x68>
    587c:	dd d8                	fstp   %st(0)
    587e:	66 8b 04 48          	mov    (%eax,%ecx,2),%ax
    5882:	66 c1 c0 08          	rol    $0x8,%ax
    5886:	25 ff ff 00 00       	and    $0xffff,%eax
    588b:	89 45 e8             	mov    %eax,-0x18(%ebp)
    588e:	db 45 e8             	fildl  -0x18(%ebp)
    5891:	d8 05 58 90 00 00    	fadds  0x9058
    5897:	d8 35 54 90 00 00    	fdivs  0x9054
    589d:	d8 25 4c 90 00 00    	fsubs  0x904c
    58a3:	e9 b0 fe ff ff       	jmp    5758 <get_normalized_sample+0x68>
    58a8:	0f af cb             	imul   %ebx,%ecx
    58ab:	c1 ea 02             	shr    $0x2,%edx
    58ae:	8b 5d 08             	mov    0x8(%ebp),%ebx
    58b1:	01 d9                	add    %ebx,%ecx
    58b3:	d9 ee                	fldz   
    58b5:	39 ca                	cmp    %ecx,%edx
    58b7:	0f 86 9b fe ff ff    	jbe    5758 <get_normalized_sample+0x68>
    58bd:	dd d8                	fstp   %st(0)
    58bf:	8b 04 88             	mov    (%eax,%ecx,4),%eax
    58c2:	31 d2                	xor    %edx,%edx
    58c4:	89 45 e8             	mov    %eax,-0x18(%ebp)
    58c7:	89 55 ec             	mov    %edx,-0x14(%ebp)
    58ca:	df 6d e8             	fildll -0x18(%ebp)
    58cd:	d8 0d 5c 90 00 00    	fmuls  0x905c
    58d3:	d8 25 4c 90 00 00    	fsubs  0x904c
    58d9:	e9 7a fe ff ff       	jmp    5758 <get_normalized_sample+0x68>
    58de:	66 90                	xchg   %ax,%ax
    58e0:	0f af cb             	imul   %ebx,%ecx
    58e3:	c1 ea 02             	shr    $0x2,%edx
    58e6:	8b 75 08             	mov    0x8(%ebp),%esi
    58e9:	01 f1                	add    %esi,%ecx
    58eb:	d9 ee                	fldz   
    58ed:	39 ca                	cmp    %ecx,%edx
    58ef:	0f 86 63 fe ff ff    	jbe    5758 <get_normalized_sample+0x68>
    58f5:	dd d8                	fstp   %st(0)
    58f7:	8b 04 88             	mov    (%eax,%ecx,4),%eax
    58fa:	c7 45 ec 00 00 00 00 	movl   $0x0,-0x14(%ebp)
    5901:	0f c8                	bswap  %eax
    5903:	89 45 e8             	mov    %eax,-0x18(%ebp)
    5906:	df 6d e8             	fildll -0x18(%ebp)
    5909:	d8 0d 5c 90 00 00    	fmuls  0x905c
    590f:	d8 25 4c 90 00 00    	fsubs  0x904c
    5915:	e9 3e fe ff ff       	jmp    5758 <get_normalized_sample+0x68>
    591a:	8d b6 00 00 00 00    	lea    0x0(%esi),%esi
    5920:	d9 ee                	fldz   
    5922:	e9 31 fe ff ff       	jmp    5758 <get_normalized_sample+0x68>
    5927:	56                   	push   %esi
    5928:	68 17 01 00 00       	push   $0x117
    592d:	68 d0 8e 00 00       	push   $0x8ed0
    5932:	68 df 8e 00 00       	push   $0x8edf
    5937:	e8 64 3b 00 00       	call   94a0 <assert_abort@plt>
    593c:	50                   	push   %eax
    593d:	68 16 01 00 00       	push   $0x116
    5942:	68 d0 8e 00 00       	push   $0x8ed0
    5947:	68 dd 8e 00 00       	push   $0x8edd
    594c:	e8 4f 3b 00 00       	call   94a0 <assert_abort@plt>
    5951:	eb 0d                	jmp    5960 <pcm_format_same>
    5953:	90                   	nop
    5954:	90                   	nop
    5955:	90                   	nop
    5956:	90                   	nop
    5957:	90                   	nop
    5958:	90                   	nop
    5959:	90                   	nop
    595a:	90                   	nop
    595b:	90                   	nop
    595c:	90                   	nop
    595d:	90                   	nop
    595e:	90                   	nop
    595f:	90                   	nop

00005960 <pcm_format_same>:
    5960:	55                   	push   %ebp
    5961:	89 e5                	mov    %esp,%ebp
    5963:	53                   	push   %ebx
    5964:	51                   	push   %ecx
    5965:	8b 55 08             	mov    0x8(%ebp),%edx
    5968:	8b 4d 0c             	mov    0xc(%ebp),%ecx
    596b:	85 d2                	test   %edx,%edx
    596d:	74 2a                	je     5999 <pcm_format_same+0x39>
    596f:	85 c9                	test   %ecx,%ecx
    5971:	74 38                	je     59ab <pcm_format_same+0x4b>
    5973:	8b 59 04             	mov    0x4(%ecx),%ebx
    5976:	31 c0                	xor    %eax,%eax
    5978:	39 5a 04             	cmp    %ebx,0x4(%edx)
    597b:	74 0b                	je     5988 <pcm_format_same+0x28>
    597d:	8b 5d fc             	mov    -0x4(%ebp),%ebx
    5980:	c9                   	leave  
    5981:	c3                   	ret    
    5982:	8d b6 00 00 00 00    	lea    0x0(%esi),%esi
    5988:	8b 19                	mov    (%ecx),%ebx
    598a:	39 1a                	cmp    %ebx,(%edx)
    598c:	75 ef                	jne    597d <pcm_format_same+0x1d>
    598e:	8b 41 08             	mov    0x8(%ecx),%eax
    5991:	39 42 08             	cmp    %eax,0x8(%edx)
    5994:	0f 94 c0             	sete   %al
    5997:	eb e4                	jmp    597d <pcm_format_same+0x1d>
    5999:	52                   	push   %edx
    599a:	6a 68                	push   $0x68
    599c:	68 d0 8e 00 00       	push   $0x8ed0
    59a1:	68 ee 7a 00 00       	push   $0x7aee
    59a6:	e8 f5 3a 00 00       	call   94a0 <assert_abort@plt>
    59ab:	50                   	push   %eax
    59ac:	6a 69                	push   $0x69
    59ae:	68 d0 8e 00 00       	push   $0x8ed0
    59b3:	68 d8 6e 00 00       	push   $0x6ed8
    59b8:	e8 e3 3a 00 00       	call   94a0 <assert_abort@plt>
    59bd:	8d 76 00             	lea    0x0(%esi),%esi

000059c0 <pcm_format_silence>:
    59c0:	55                   	push   %ebp
    59c1:	89 e5                	mov    %esp,%ebp
    59c3:	57                   	push   %edi
    59c4:	56                   	push   %esi
    59c5:	53                   	push   %ebx
    59c6:	53                   	push   %ebx
    59c7:	8b 55 10             	mov    0x10(%ebp),%edx
    59ca:	8b 45 08             	mov    0x8(%ebp),%eax
    59cd:	83 7a 08 11          	cmpl   $0x11,0x8(%edx)
    59d1:	0f 87 a7 00 00 00    	ja     5a7e <pcm_format_silence+0xbe>
    59d7:	8b 52 08             	mov    0x8(%edx),%edx
    59da:	ff 24 95 48 8f 00 00 	jmp    *0x8f48(,%edx,4)
    59e1:	8d b4 26 00 00 00 00 	lea    0x0(%esi,%eiz,1),%esi
    59e8:	8b 55 0c             	mov    0xc(%ebp),%edx
    59eb:	d1 ea                	shr    %edx
    59ed:	0f 84 8b 00 00 00    	je     5a7e <pcm_format_silence+0xbe>
    59f3:	89 c6                	mov    %eax,%esi
    59f5:	d1 ee                	shr    %esi
    59f7:	83 e6 01             	and    $0x1,%esi
    59fa:	83 fa 06             	cmp    $0x6,%edx
    59fd:	0f 87 75 06 00 00    	ja     6078 <pcm_format_silence+0x6b8>
    5a03:	66 c7 00 00 80       	movw   $0x8000,(%eax)
    5a08:	83 fa 01             	cmp    $0x1,%edx
    5a0b:	0f 84 90 05 00 00    	je     5fa1 <pcm_format_silence+0x5e1>
    5a11:	66 c7 40 02 00 80    	movw   $0x8000,0x2(%eax)
    5a17:	83 fa 02             	cmp    $0x2,%edx
    5a1a:	0f 84 9f 05 00 00    	je     5fbf <pcm_format_silence+0x5ff>
    5a20:	66 c7 40 04 00 80    	movw   $0x8000,0x4(%eax)
    5a26:	83 fa 03             	cmp    $0x3,%edx
    5a29:	0f 84 ba 05 00 00    	je     5fe9 <pcm_format_silence+0x629>
    5a2f:	66 c7 40 06 00 80    	movw   $0x8000,0x6(%eax)
    5a35:	83 fa 04             	cmp    $0x4,%edx
    5a38:	0f 84 9c 05 00 00    	je     5fda <pcm_format_silence+0x61a>
    5a3e:	66 c7 40 08 00 80    	movw   $0x8000,0x8(%eax)
    5a44:	83 fa 06             	cmp    $0x6,%edx
    5a47:	0f 85 81 05 00 00    	jne    5fce <pcm_format_silence+0x60e>
    5a4d:	66 c7 40 0a 00 80    	movw   $0x8000,0xa(%eax)
    5a53:	b9 06 00 00 00       	mov    $0x6,%ecx
    5a58:	be 06 00 00 00       	mov    $0x6,%esi
    5a5d:	39 ca                	cmp    %ecx,%edx
    5a5f:	74 1d                	je     5a7e <pcm_format_silence+0xbe>
    5a61:	29 ca                	sub    %ecx,%edx
    5a63:	8d 5a fe             	lea    -0x2(%edx),%ebx
    5a66:	d1 eb                	shr    %ebx
    5a68:	43                   	inc    %ebx
    5a69:	83 fa 01             	cmp    $0x1,%edx
    5a6c:	8d 3c 1b             	lea    (%ebx,%ebx,1),%edi
    5a6f:	89 7d f0             	mov    %edi,-0x10(%ebp)
    5a72:	0f 85 16 06 00 00    	jne    608e <pcm_format_silence+0x6ce>
    5a78:	66 c7 04 70 00 80    	movw   $0x8000,(%eax,%esi,2)
    5a7e:	58                   	pop    %eax
    5a7f:	5b                   	pop    %ebx
    5a80:	5e                   	pop    %esi
    5a81:	5f                   	pop    %edi
    5a82:	5d                   	pop    %ebp
    5a83:	c3                   	ret    
    5a84:	8d 74 26 00          	lea    0x0(%esi,%eiz,1),%esi
    5a88:	8b 55 0c             	mov    0xc(%ebp),%edx
    5a8b:	c1 ea 02             	shr    $0x2,%edx
    5a8e:	74 ee                	je     5a7e <pcm_format_silence+0xbe>
    5a90:	8d 14 90             	lea    (%eax,%edx,4),%edx
    5a93:	90                   	nop
    5a94:	8d 74 26 00          	lea    0x0(%esi,%eiz,1),%esi
    5a98:	c7 00 00 00 00 00    	movl   $0x0,(%eax)
    5a9e:	83 c0 04             	add    $0x4,%eax
    5aa1:	39 c2                	cmp    %eax,%edx
    5aa3:	75 f3                	jne    5a98 <pcm_format_silence+0xd8>
    5aa5:	eb d7                	jmp    5a7e <pcm_format_silence+0xbe>
    5aa7:	90                   	nop
    5aa8:	8b 55 0c             	mov    0xc(%ebp),%edx
    5aab:	85 d2                	test   %edx,%edx
    5aad:	74 cf                	je     5a7e <pcm_format_silence+0xbe>
    5aaf:	89 c2                	mov    %eax,%edx
    5ab1:	f7 da                	neg    %edx
    5ab3:	83 e2 03             	and    $0x3,%edx
    5ab6:	3b 55 0c             	cmp    0xc(%ebp),%edx
    5ab9:	0f 87 29 04 00 00    	ja     5ee8 <pcm_format_silence+0x528>
    5abf:	83 7d 0c 06          	cmpl   $0x6,0xc(%ebp)
    5ac3:	0f 87 7f 06 00 00    	ja     6148 <pcm_format_silence+0x788>
    5ac9:	8b 55 0c             	mov    0xc(%ebp),%edx
    5acc:	c6 00 80             	movb   $0x80,(%eax)
    5acf:	83 fa 01             	cmp    $0x1,%edx
    5ad2:	0f 84 59 05 00 00    	je     6031 <pcm_format_silence+0x671>
    5ad8:	c6 40 01 80          	movb   $0x80,0x1(%eax)
    5adc:	83 fa 02             	cmp    $0x2,%edx
    5adf:	0f 84 8f 04 00 00    	je     5f74 <pcm_format_silence+0x5b4>
    5ae5:	c6 40 02 80          	movb   $0x80,0x2(%eax)
    5ae9:	83 fa 03             	cmp    $0x3,%edx
    5aec:	0f 84 78 04 00 00    	je     5f6a <pcm_format_silence+0x5aa>
    5af2:	c6 40 03 80          	movb   $0x80,0x3(%eax)
    5af6:	83 fa 04             	cmp    $0x4,%edx
    5af9:	0f 84 61 04 00 00    	je     5f60 <pcm_format_silence+0x5a0>
    5aff:	c6 40 04 80          	movb   $0x80,0x4(%eax)
    5b03:	83 fa 06             	cmp    $0x6,%edx
    5b06:	0f 85 4a 04 00 00    	jne    5f56 <pcm_format_silence+0x596>
    5b0c:	c6 40 05 80          	movb   $0x80,0x5(%eax)
    5b10:	b9 06 00 00 00       	mov    $0x6,%ecx
    5b15:	39 55 0c             	cmp    %edx,0xc(%ebp)
    5b18:	0f 84 60 ff ff ff    	je     5a7e <pcm_format_silence+0xbe>
    5b1e:	8b 75 0c             	mov    0xc(%ebp),%esi
    5b21:	29 d6                	sub    %edx,%esi
    5b23:	8d 5e fc             	lea    -0x4(%esi),%ebx
    5b26:	c1 eb 02             	shr    $0x2,%ebx
    5b29:	43                   	inc    %ebx
    5b2a:	8d 3c 9d 00 00 00 00 	lea    0x0(,%ebx,4),%edi
    5b31:	89 7d f0             	mov    %edi,-0x10(%ebp)
    5b34:	8b 7d 0c             	mov    0xc(%ebp),%edi
    5b37:	4f                   	dec    %edi
    5b38:	29 d7                	sub    %edx,%edi
    5b3a:	83 ff 02             	cmp    $0x2,%edi
    5b3d:	76 1d                	jbe    5b5c <pcm_format_silence+0x19c>
    5b3f:	01 c2                	add    %eax,%edx
    5b41:	31 ff                	xor    %edi,%edi
    5b43:	c7 04 ba 80 80 80 80 	movl   $0x80808080,(%edx,%edi,4)
    5b4a:	47                   	inc    %edi
    5b4b:	39 fb                	cmp    %edi,%ebx
    5b4d:	77 f4                	ja     5b43 <pcm_format_silence+0x183>
    5b4f:	8b 7d f0             	mov    -0x10(%ebp),%edi
    5b52:	01 f9                	add    %edi,%ecx
    5b54:	39 f7                	cmp    %esi,%edi
    5b56:	0f 84 22 ff ff ff    	je     5a7e <pcm_format_silence+0xbe>
    5b5c:	8d 51 01             	lea    0x1(%ecx),%edx
    5b5f:	c6 04 08 80          	movb   $0x80,(%eax,%ecx,1)
    5b63:	39 55 0c             	cmp    %edx,0xc(%ebp)
    5b66:	0f 86 12 ff ff ff    	jbe    5a7e <pcm_format_silence+0xbe>
    5b6c:	c6 44 08 01 80       	movb   $0x80,0x1(%eax,%ecx,1)
    5b71:	83 c1 02             	add    $0x2,%ecx
    5b74:	39 4d 0c             	cmp    %ecx,0xc(%ebp)
    5b77:	0f 86 01 ff ff ff    	jbe    5a7e <pcm_format_silence+0xbe>
    5b7d:	c6 04 08 80          	movb   $0x80,(%eax,%ecx,1)
    5b81:	e9 f8 fe ff ff       	jmp    5a7e <pcm_format_silence+0xbe>
    5b86:	66 90                	xchg   %ax,%ax
    5b88:	8b 4d 0c             	mov    0xc(%ebp),%ecx
    5b8b:	85 c9                	test   %ecx,%ecx
    5b8d:	0f 84 eb fe ff ff    	je     5a7e <pcm_format_silence+0xbe>
    5b93:	89 c2                	mov    %eax,%edx
    5b95:	f7 da                	neg    %edx
    5b97:	83 e2 03             	and    $0x3,%edx
    5b9a:	3b 55 0c             	cmp    0xc(%ebp),%edx
    5b9d:	0f 87 3d 03 00 00    	ja     5ee0 <pcm_format_silence+0x520>
    5ba3:	83 7d 0c 06          	cmpl   $0x6,0xc(%ebp)
    5ba7:	0f 87 73 05 00 00    	ja     6120 <pcm_format_silence+0x760>
    5bad:	8b 55 0c             	mov    0xc(%ebp),%edx
    5bb0:	c6 00 00             	movb   $0x0,(%eax)
    5bb3:	83 fa 01             	cmp    $0x1,%edx
    5bb6:	0f 84 90 03 00 00    	je     5f4c <pcm_format_silence+0x58c>
    5bbc:	c6 40 01 00          	movb   $0x0,0x1(%eax)
    5bc0:	83 fa 02             	cmp    $0x2,%edx
    5bc3:	0f 84 79 03 00 00    	je     5f42 <pcm_format_silence+0x582>
    5bc9:	c6 40 02 00          	movb   $0x0,0x2(%eax)
    5bcd:	83 fa 03             	cmp    $0x3,%edx
    5bd0:	0f 84 62 03 00 00    	je     5f38 <pcm_format_silence+0x578>
    5bd6:	c6 40 03 00          	movb   $0x0,0x3(%eax)
    5bda:	83 fa 04             	cmp    $0x4,%edx
    5bdd:	0f 84 a5 03 00 00    	je     5f88 <pcm_format_silence+0x5c8>
    5be3:	c6 40 04 00          	movb   $0x0,0x4(%eax)
    5be7:	83 fa 06             	cmp    $0x6,%edx
    5bea:	0f 85 8e 03 00 00    	jne    5f7e <pcm_format_silence+0x5be>
    5bf0:	c6 40 05 00          	movb   $0x0,0x5(%eax)
    5bf4:	b9 06 00 00 00       	mov    $0x6,%ecx
    5bf9:	39 55 0c             	cmp    %edx,0xc(%ebp)
    5bfc:	0f 84 7c fe ff ff    	je     5a7e <pcm_format_silence+0xbe>
    5c02:	8b 75 0c             	mov    0xc(%ebp),%esi
    5c05:	29 d6                	sub    %edx,%esi
    5c07:	8d 5e fc             	lea    -0x4(%esi),%ebx
    5c0a:	c1 eb 02             	shr    $0x2,%ebx
    5c0d:	43                   	inc    %ebx
    5c0e:	8d 3c 9d 00 00 00 00 	lea    0x0(,%ebx,4),%edi
    5c15:	89 7d f0             	mov    %edi,-0x10(%ebp)
    5c18:	8b 7d 0c             	mov    0xc(%ebp),%edi
    5c1b:	4f                   	dec    %edi
    5c1c:	29 d7                	sub    %edx,%edi
    5c1e:	83 ff 02             	cmp    $0x2,%edi
    5c21:	76 1d                	jbe    5c40 <pcm_format_silence+0x280>
    5c23:	01 c2                	add    %eax,%edx
    5c25:	31 ff                	xor    %edi,%edi
    5c27:	c7 04 ba 00 00 00 00 	movl   $0x0,(%edx,%edi,4)
    5c2e:	47                   	inc    %edi
    5c2f:	39 fb                	cmp    %edi,%ebx
    5c31:	77 f4                	ja     5c27 <pcm_format_silence+0x267>
    5c33:	8b 7d f0             	mov    -0x10(%ebp),%edi
    5c36:	01 f9                	add    %edi,%ecx
    5c38:	39 fe                	cmp    %edi,%esi
    5c3a:	0f 84 3e fe ff ff    	je     5a7e <pcm_format_silence+0xbe>
    5c40:	8d 51 01             	lea    0x1(%ecx),%edx
    5c43:	c6 04 08 00          	movb   $0x0,(%eax,%ecx,1)
    5c47:	39 55 0c             	cmp    %edx,0xc(%ebp)
    5c4a:	0f 86 2e fe ff ff    	jbe    5a7e <pcm_format_silence+0xbe>
    5c50:	c6 44 08 01 00       	movb   $0x0,0x1(%eax,%ecx,1)
    5c55:	83 c1 02             	add    $0x2,%ecx
    5c58:	39 4d 0c             	cmp    %ecx,0xc(%ebp)
    5c5b:	0f 86 1d fe ff ff    	jbe    5a7e <pcm_format_silence+0xbe>
    5c61:	c6 04 08 00          	movb   $0x0,(%eax,%ecx,1)
    5c65:	e9 14 fe ff ff       	jmp    5a7e <pcm_format_silence+0xbe>
    5c6a:	8d b6 00 00 00 00    	lea    0x0(%esi),%esi
    5c70:	8b 55 0c             	mov    0xc(%ebp),%edx
    5c73:	d1 ea                	shr    %edx
    5c75:	0f 84 03 fe ff ff    	je     5a7e <pcm_format_silence+0xbe>
    5c7b:	89 c6                	mov    %eax,%esi
    5c7d:	d1 ee                	shr    %esi
    5c7f:	83 e6 01             	and    $0x1,%esi
    5c82:	83 fa 06             	cmp    $0x6,%edx
    5c85:	0f 87 6d 04 00 00    	ja     60f8 <pcm_format_silence+0x738>
    5c8b:	66 c7 00 00 00       	movw   $0x0,(%eax)
    5c90:	83 fa 01             	cmp    $0x1,%edx
    5c93:	0f 84 f9 02 00 00    	je     5f92 <pcm_format_silence+0x5d2>
    5c99:	66 c7 40 02 00 00    	movw   $0x0,0x2(%eax)
    5c9f:	83 fa 02             	cmp    $0x2,%edx
    5ca2:	0f 84 72 02 00 00    	je     5f1a <pcm_format_silence+0x55a>
    5ca8:	66 c7 40 04 00 00    	movw   $0x0,0x4(%eax)
    5cae:	83 fa 03             	cmp    $0x3,%edx
    5cb1:	0f 84 54 02 00 00    	je     5f0b <pcm_format_silence+0x54b>
    5cb7:	66 c7 40 06 00 00    	movw   $0x0,0x6(%eax)
    5cbd:	83 fa 04             	cmp    $0x4,%edx
    5cc0:	0f 84 36 02 00 00    	je     5efc <pcm_format_silence+0x53c>
    5cc6:	66 c7 40 08 00 00    	movw   $0x0,0x8(%eax)
    5ccc:	83 fa 06             	cmp    $0x6,%edx
    5ccf:	0f 85 1b 02 00 00    	jne    5ef0 <pcm_format_silence+0x530>
    5cd5:	66 c7 40 0a 00 00    	movw   $0x0,0xa(%eax)
    5cdb:	b9 06 00 00 00       	mov    $0x6,%ecx
    5ce0:	be 06 00 00 00       	mov    $0x6,%esi
    5ce5:	39 ca                	cmp    %ecx,%edx
    5ce7:	0f 84 91 fd ff ff    	je     5a7e <pcm_format_silence+0xbe>
    5ced:	29 ca                	sub    %ecx,%edx
    5cef:	8d 5a fe             	lea    -0x2(%edx),%ebx
    5cf2:	d1 eb                	shr    %ebx
    5cf4:	43                   	inc    %ebx
    5cf5:	83 fa 01             	cmp    $0x1,%edx
    5cf8:	8d 3c 1b             	lea    (%ebx,%ebx,1),%edi
    5cfb:	89 7d f0             	mov    %edi,-0x10(%ebp)
    5cfe:	0f 85 06 04 00 00    	jne    610a <pcm_format_silence+0x74a>
    5d04:	66 c7 04 70 00 00    	movw   $0x0,(%eax,%esi,2)
    5d0a:	58                   	pop    %eax
    5d0b:	5b                   	pop    %ebx
    5d0c:	5e                   	pop    %esi
    5d0d:	5f                   	pop    %edi
    5d0e:	5d                   	pop    %ebp
    5d0f:	c3                   	ret    
    5d10:	8b 55 0c             	mov    0xc(%ebp),%edx
    5d13:	d1 ea                	shr    %edx
    5d15:	0f 84 63 fd ff ff    	je     5a7e <pcm_format_silence+0xbe>
    5d1b:	89 c6                	mov    %eax,%esi
    5d1d:	d1 ee                	shr    %esi
    5d1f:	83 e6 01             	and    $0x1,%esi
    5d22:	83 fa 06             	cmp    $0x6,%edx
    5d25:	0f 87 8d 03 00 00    	ja     60b8 <pcm_format_silence+0x6f8>
    5d2b:	66 c7 00 80 00       	movw   $0x80,(%eax)
    5d30:	83 fa 01             	cmp    $0x1,%edx
    5d33:	0f 84 77 02 00 00    	je     5fb0 <pcm_format_silence+0x5f0>
    5d39:	66 c7 40 02 80 00    	movw   $0x80,0x2(%eax)
    5d3f:	83 fa 02             	cmp    $0x2,%edx
    5d42:	0f 84 da 02 00 00    	je     6022 <pcm_format_silence+0x662>
    5d48:	66 c7 40 04 80 00    	movw   $0x80,0x4(%eax)
    5d4e:	83 fa 03             	cmp    $0x3,%edx
    5d51:	0f 84 bc 02 00 00    	je     6013 <pcm_format_silence+0x653>
    5d57:	66 c7 40 06 80 00    	movw   $0x80,0x6(%eax)
    5d5d:	83 fa 04             	cmp    $0x4,%edx
    5d60:	0f 84 9e 02 00 00    	je     6004 <pcm_format_silence+0x644>
    5d66:	66 c7 40 08 80 00    	movw   $0x80,0x8(%eax)
    5d6c:	83 fa 06             	cmp    $0x6,%edx
    5d6f:	0f 85 83 02 00 00    	jne    5ff8 <pcm_format_silence+0x638>
    5d75:	66 c7 40 0a 80 00    	movw   $0x80,0xa(%eax)
    5d7b:	b9 06 00 00 00       	mov    $0x6,%ecx
    5d80:	be 06 00 00 00       	mov    $0x6,%esi
    5d85:	39 ca                	cmp    %ecx,%edx
    5d87:	0f 84 f1 fc ff ff    	je     5a7e <pcm_format_silence+0xbe>
    5d8d:	29 ca                	sub    %ecx,%edx
    5d8f:	8d 5a fe             	lea    -0x2(%edx),%ebx
    5d92:	d1 eb                	shr    %ebx
    5d94:	43                   	inc    %ebx
    5d95:	83 fa 01             	cmp    $0x1,%edx
    5d98:	8d 3c 1b             	lea    (%ebx,%ebx,1),%edi
    5d9b:	89 7d f0             	mov    %edi,-0x10(%ebp)
    5d9e:	0f 85 2a 03 00 00    	jne    60ce <pcm_format_silence+0x70e>
    5da4:	66 c7 04 70 80 00    	movw   $0x80,(%eax,%esi,2)
    5daa:	58                   	pop    %eax
    5dab:	5b                   	pop    %ebx
    5dac:	5e                   	pop    %esi
    5dad:	5f                   	pop    %edi
    5dae:	5d                   	pop    %ebp
    5daf:	c3                   	ret    
    5db0:	8b 55 0c             	mov    0xc(%ebp),%edx
    5db3:	c1 ea 02             	shr    $0x2,%edx
    5db6:	0f 84 c2 fc ff ff    	je     5a7e <pcm_format_silence+0xbe>
    5dbc:	8d 14 90             	lea    (%eax,%edx,4),%edx
    5dbf:	90                   	nop
    5dc0:	c7 00 80 00 00 00    	movl   $0x80,(%eax)
    5dc6:	83 c0 04             	add    $0x4,%eax
    5dc9:	39 d0                	cmp    %edx,%eax
    5dcb:	75 f3                	jne    5dc0 <pcm_format_silence+0x400>
    5dcd:	e9 ac fc ff ff       	jmp    5a7e <pcm_format_silence+0xbe>
    5dd2:	8d b6 00 00 00 00    	lea    0x0(%esi),%esi
    5dd8:	8b 55 0c             	mov    0xc(%ebp),%edx
    5ddb:	d1 ea                	shr    %edx
    5ddd:	0f 84 9b fc ff ff    	je     5a7e <pcm_format_silence+0xbe>
    5de3:	89 c6                	mov    %eax,%esi
    5de5:	d1 ee                	shr    %esi
    5de7:	83 e6 01             	and    $0x1,%esi
    5dea:	83 fa 06             	cmp    $0x6,%edx
    5ded:	0f 87 3d 03 00 00    	ja     6130 <pcm_format_silence+0x770>
    5df3:	66 c7 00 00 00       	movw   $0x0,(%eax)
    5df8:	83 fa 01             	cmp    $0x1,%edx
    5dfb:	0f 84 28 01 00 00    	je     5f29 <pcm_format_silence+0x569>
    5e01:	66 c7 40 02 00 00    	movw   $0x0,0x2(%eax)
    5e07:	83 fa 02             	cmp    $0x2,%edx
    5e0a:	0f 84 55 02 00 00    	je     6065 <pcm_format_silence+0x6a5>
    5e10:	66 c7 40 04 00 00    	movw   $0x0,0x4(%eax)
    5e16:	83 fa 03             	cmp    $0x3,%edx
    5e19:	0f 84 37 02 00 00    	je     6056 <pcm_format_silence+0x696>
    5e1f:	66 c7 40 06 00 00    	movw   $0x0,0x6(%eax)
    5e25:	83 fa 04             	cmp    $0x4,%edx
    5e28:	0f 84 19 02 00 00    	je     6047 <pcm_format_silence+0x687>
    5e2e:	66 c7 40 08 00 00    	movw   $0x0,0x8(%eax)
    5e34:	83 fa 06             	cmp    $0x6,%edx
    5e37:	0f 85 fe 01 00 00    	jne    603b <pcm_format_silence+0x67b>
    5e3d:	66 c7 40 0a 00 00    	movw   $0x0,0xa(%eax)
    5e43:	b9 06 00 00 00       	mov    $0x6,%ecx
    5e48:	be 06 00 00 00       	mov    $0x6,%esi
    5e4d:	39 ca                	cmp    %ecx,%edx
    5e4f:	0f 84 29 fc ff ff    	je     5a7e <pcm_format_silence+0xbe>
    5e55:	29 ca                	sub    %ecx,%edx
    5e57:	8d 5a fe             	lea    -0x2(%edx),%ebx
    5e5a:	d1 eb                	shr    %ebx
    5e5c:	43                   	inc    %ebx
    5e5d:	83 fa 01             	cmp    $0x1,%edx
    5e60:	8d 3c 1b             	lea    (%ebx,%ebx,1),%edi
    5e63:	89 7d f0             	mov    %edi,-0x10(%ebp)
    5e66:	0f 84 98 fe ff ff    	je     5d04 <pcm_format_silence+0x344>
    5e6c:	8d 3c 48             	lea    (%eax,%ecx,2),%edi
    5e6f:	31 c9                	xor    %ecx,%ecx
    5e71:	c7 04 8f 00 00 00 00 	movl   $0x0,(%edi,%ecx,4)
    5e78:	41                   	inc    %ecx
    5e79:	39 d9                	cmp    %ebx,%ecx
    5e7b:	72 f4                	jb     5e71 <pcm_format_silence+0x4b1>
    5e7d:	8b 5d f0             	mov    -0x10(%ebp),%ebx
    5e80:	01 de                	add    %ebx,%esi
    5e82:	39 da                	cmp    %ebx,%edx
    5e84:	0f 85 7a fe ff ff    	jne    5d04 <pcm_format_silence+0x344>
    5e8a:	e9 ef fb ff ff       	jmp    5a7e <pcm_format_silence+0xbe>
    5e8f:	90                   	nop
    5e90:	8b 55 0c             	mov    0xc(%ebp),%edx
    5e93:	c1 ea 02             	shr    $0x2,%edx
    5e96:	0f 84 e2 fb ff ff    	je     5a7e <pcm_format_silence+0xbe>
    5e9c:	8d 14 90             	lea    (%eax,%edx,4),%edx
    5e9f:	90                   	nop
    5ea0:	c7 00 00 00 00 80    	movl   $0x80000000,(%eax)
    5ea6:	83 c0 04             	add    $0x4,%eax
    5ea9:	39 c2                	cmp    %eax,%edx
    5eab:	75 f3                	jne    5ea0 <pcm_format_silence+0x4e0>
    5ead:	e9 cc fb ff ff       	jmp    5a7e <pcm_format_silence+0xbe>
    5eb2:	8d b6 00 00 00 00    	lea    0x0(%esi),%esi
    5eb8:	8b 55 0c             	mov    0xc(%ebp),%edx
    5ebb:	c1 ea 02             	shr    $0x2,%edx
    5ebe:	0f 84 ba fb ff ff    	je     5a7e <pcm_format_silence+0xbe>
    5ec4:	8d 14 90             	lea    (%eax,%edx,4),%edx
    5ec7:	90                   	nop
    5ec8:	c7 00 00 00 00 00    	movl   $0x0,(%eax)
    5ece:	83 c0 04             	add    $0x4,%eax
    5ed1:	39 c2                	cmp    %eax,%edx
    5ed3:	75 f3                	jne    5ec8 <pcm_format_silence+0x508>
    5ed5:	e9 a4 fb ff ff       	jmp    5a7e <pcm_format_silence+0xbe>
    5eda:	8d b6 00 00 00 00    	lea    0x0(%esi),%esi
    5ee0:	8b 55 0c             	mov    0xc(%ebp),%edx
    5ee3:	e9 bb fc ff ff       	jmp    5ba3 <pcm_format_silence+0x1e3>
    5ee8:	8b 55 0c             	mov    0xc(%ebp),%edx
    5eeb:	e9 cf fb ff ff       	jmp    5abf <pcm_format_silence+0xff>
    5ef0:	89 d1                	mov    %edx,%ecx
    5ef2:	be 05 00 00 00       	mov    $0x5,%esi
    5ef7:	e9 e9 fd ff ff       	jmp    5ce5 <pcm_format_silence+0x325>
    5efc:	b9 04 00 00 00       	mov    $0x4,%ecx
    5f01:	be 04 00 00 00       	mov    $0x4,%esi
    5f06:	e9 da fd ff ff       	jmp    5ce5 <pcm_format_silence+0x325>
    5f0b:	b9 03 00 00 00       	mov    $0x3,%ecx
    5f10:	be 03 00 00 00       	mov    $0x3,%esi
    5f15:	e9 cb fd ff ff       	jmp    5ce5 <pcm_format_silence+0x325>
    5f1a:	b9 02 00 00 00       	mov    $0x2,%ecx
    5f1f:	be 02 00 00 00       	mov    $0x2,%esi
    5f24:	e9 bc fd ff ff       	jmp    5ce5 <pcm_format_silence+0x325>
    5f29:	b9 01 00 00 00       	mov    $0x1,%ecx
    5f2e:	be 01 00 00 00       	mov    $0x1,%esi
    5f33:	e9 15 ff ff ff       	jmp    5e4d <pcm_format_silence+0x48d>
    5f38:	b9 03 00 00 00       	mov    $0x3,%ecx
    5f3d:	e9 b7 fc ff ff       	jmp    5bf9 <pcm_format_silence+0x239>
    5f42:	b9 02 00 00 00       	mov    $0x2,%ecx
    5f47:	e9 ad fc ff ff       	jmp    5bf9 <pcm_format_silence+0x239>
    5f4c:	b9 01 00 00 00       	mov    $0x1,%ecx
    5f51:	e9 a3 fc ff ff       	jmp    5bf9 <pcm_format_silence+0x239>
    5f56:	b9 05 00 00 00       	mov    $0x5,%ecx
    5f5b:	e9 b5 fb ff ff       	jmp    5b15 <pcm_format_silence+0x155>
    5f60:	b9 04 00 00 00       	mov    $0x4,%ecx
    5f65:	e9 ab fb ff ff       	jmp    5b15 <pcm_format_silence+0x155>
    5f6a:	b9 03 00 00 00       	mov    $0x3,%ecx
    5f6f:	e9 a1 fb ff ff       	jmp    5b15 <pcm_format_silence+0x155>
    5f74:	b9 02 00 00 00       	mov    $0x2,%ecx
    5f79:	e9 97 fb ff ff       	jmp    5b15 <pcm_format_silence+0x155>
    5f7e:	b9 05 00 00 00       	mov    $0x5,%ecx
    5f83:	e9 71 fc ff ff       	jmp    5bf9 <pcm_format_silence+0x239>
    5f88:	b9 04 00 00 00       	mov    $0x4,%ecx
    5f8d:	e9 67 fc ff ff       	jmp    5bf9 <pcm_format_silence+0x239>
    5f92:	b9 01 00 00 00       	mov    $0x1,%ecx
    5f97:	be 01 00 00 00       	mov    $0x1,%esi
    5f9c:	e9 44 fd ff ff       	jmp    5ce5 <pcm_format_silence+0x325>
    5fa1:	b9 01 00 00 00       	mov    $0x1,%ecx
    5fa6:	be 01 00 00 00       	mov    $0x1,%esi
    5fab:	e9 ad fa ff ff       	jmp    5a5d <pcm_format_silence+0x9d>
    5fb0:	b9 01 00 00 00       	mov    $0x1,%ecx
    5fb5:	be 01 00 00 00       	mov    $0x1,%esi
    5fba:	e9 c6 fd ff ff       	jmp    5d85 <pcm_format_silence+0x3c5>
    5fbf:	b9 02 00 00 00       	mov    $0x2,%ecx
    5fc4:	be 02 00 00 00       	mov    $0x2,%esi
    5fc9:	e9 8f fa ff ff       	jmp    5a5d <pcm_format_silence+0x9d>
    5fce:	89 d1                	mov    %edx,%ecx
    5fd0:	be 05 00 00 00       	mov    $0x5,%esi
    5fd5:	e9 83 fa ff ff       	jmp    5a5d <pcm_format_silence+0x9d>
    5fda:	b9 04 00 00 00       	mov    $0x4,%ecx
    5fdf:	be 04 00 00 00       	mov    $0x4,%esi
    5fe4:	e9 74 fa ff ff       	jmp    5a5d <pcm_format_silence+0x9d>
    5fe9:	b9 03 00 00 00       	mov    $0x3,%ecx
    5fee:	be 03 00 00 00       	mov    $0x3,%esi
    5ff3:	e9 65 fa ff ff       	jmp    5a5d <pcm_format_silence+0x9d>
    5ff8:	89 d1                	mov    %edx,%ecx
    5ffa:	be 05 00 00 00       	mov    $0x5,%esi
    5fff:	e9 81 fd ff ff       	jmp    5d85 <pcm_format_silence+0x3c5>
    6004:	b9 04 00 00 00       	mov    $0x4,%ecx
    6009:	be 04 00 00 00       	mov    $0x4,%esi
    600e:	e9 72 fd ff ff       	jmp    5d85 <pcm_format_silence+0x3c5>
    6013:	b9 03 00 00 00       	mov    $0x3,%ecx
    6018:	be 03 00 00 00       	mov    $0x3,%esi
    601d:	e9 63 fd ff ff       	jmp    5d85 <pcm_format_silence+0x3c5>
    6022:	b9 02 00 00 00       	mov    $0x2,%ecx
    6027:	be 02 00 00 00       	mov    $0x2,%esi
    602c:	e9 54 fd ff ff       	jmp    5d85 <pcm_format_silence+0x3c5>
    6031:	b9 01 00 00 00       	mov    $0x1,%ecx
    6036:	e9 da fa ff ff       	jmp    5b15 <pcm_format_silence+0x155>
    603b:	89 d1                	mov    %edx,%ecx
    603d:	be 05 00 00 00       	mov    $0x5,%esi
    6042:	e9 06 fe ff ff       	jmp    5e4d <pcm_format_silence+0x48d>
    6047:	b9 04 00 00 00       	mov    $0x4,%ecx
    604c:	be 04 00 00 00       	mov    $0x4,%esi
    6051:	e9 f7 fd ff ff       	jmp    5e4d <pcm_format_silence+0x48d>
    6056:	b9 03 00 00 00       	mov    $0x3,%ecx
    605b:	be 03 00 00 00       	mov    $0x3,%esi
    6060:	e9 e8 fd ff ff       	jmp    5e4d <pcm_format_silence+0x48d>
    6065:	b9 02 00 00 00       	mov    $0x2,%ecx
    606a:	be 02 00 00 00       	mov    $0x2,%esi
    606f:	e9 d9 fd ff ff       	jmp    5e4d <pcm_format_silence+0x48d>
    6074:	8d 74 26 00          	lea    0x0(%esi,%eiz,1),%esi
    6078:	85 f6                	test   %esi,%esi
    607a:	0f 85 04 01 00 00    	jne    6184 <pcm_format_silence+0x7c4>
    6080:	8d 5a fe             	lea    -0x2(%edx),%ebx
    6083:	31 c9                	xor    %ecx,%ecx
    6085:	d1 eb                	shr    %ebx
    6087:	43                   	inc    %ebx
    6088:	8d 3c 1b             	lea    (%ebx,%ebx,1),%edi
    608b:	89 7d f0             	mov    %edi,-0x10(%ebp)
    608e:	8d 3c 48             	lea    (%eax,%ecx,2),%edi
    6091:	31 c9                	xor    %ecx,%ecx
    6093:	c7 04 8f 00 80 00 80 	movl   $0x80008000,(%edi,%ecx,4)
    609a:	41                   	inc    %ecx
    609b:	39 d9                	cmp    %ebx,%ecx
    609d:	72 f4                	jb     6093 <pcm_format_silence+0x6d3>
    609f:	8b 7d f0             	mov    -0x10(%ebp),%edi
    60a2:	01 fe                	add    %edi,%esi
    60a4:	39 fa                	cmp    %edi,%edx
    60a6:	0f 85 cc f9 ff ff    	jne    5a78 <pcm_format_silence+0xb8>
    60ac:	e9 cd f9 ff ff       	jmp    5a7e <pcm_format_silence+0xbe>
    60b1:	8d b4 26 00 00 00 00 	lea    0x0(%esi,%eiz,1),%esi
    60b8:	85 f6                	test   %esi,%esi
    60ba:	0f 85 a6 00 00 00    	jne    6166 <pcm_format_silence+0x7a6>
    60c0:	8d 5a fe             	lea    -0x2(%edx),%ebx
    60c3:	31 c9                	xor    %ecx,%ecx
    60c5:	d1 eb                	shr    %ebx
    60c7:	43                   	inc    %ebx
    60c8:	8d 3c 1b             	lea    (%ebx,%ebx,1),%edi
    60cb:	89 7d f0             	mov    %edi,-0x10(%ebp)
    60ce:	8d 3c 48             	lea    (%eax,%ecx,2),%edi
    60d1:	31 c9                	xor    %ecx,%ecx
    60d3:	c7 04 8f 80 00 80 00 	movl   $0x800080,(%edi,%ecx,4)
    60da:	41                   	inc    %ecx
    60db:	39 d9                	cmp    %ebx,%ecx
    60dd:	72 f4                	jb     60d3 <pcm_format_silence+0x713>
    60df:	8b 7d f0             	mov    -0x10(%ebp),%edi
    60e2:	01 fe                	add    %edi,%esi
    60e4:	39 fa                	cmp    %edi,%edx
    60e6:	0f 85 b8 fc ff ff    	jne    5da4 <pcm_format_silence+0x3e4>
    60ec:	e9 8d f9 ff ff       	jmp    5a7e <pcm_format_silence+0xbe>
    60f1:	8d b4 26 00 00 00 00 	lea    0x0(%esi,%eiz,1),%esi
    60f8:	85 f6                	test   %esi,%esi
    60fa:	75 79                	jne    6175 <pcm_format_silence+0x7b5>
    60fc:	8d 5a fe             	lea    -0x2(%edx),%ebx
    60ff:	31 c9                	xor    %ecx,%ecx
    6101:	d1 eb                	shr    %ebx
    6103:	43                   	inc    %ebx
    6104:	8d 3c 1b             	lea    (%ebx,%ebx,1),%edi
    6107:	89 7d f0             	mov    %edi,-0x10(%ebp)
    610a:	8d 3c 48             	lea    (%eax,%ecx,2),%edi
    610d:	31 c9                	xor    %ecx,%ecx
    610f:	c7 04 8f 00 00 00 00 	movl   $0x0,(%edi,%ecx,4)
    6116:	41                   	inc    %ecx
    6117:	39 d9                	cmp    %ebx,%ecx
    6119:	72 f4                	jb     610f <pcm_format_silence+0x74f>
    611b:	e9 5d fd ff ff       	jmp    5e7d <pcm_format_silence+0x4bd>
    6120:	85 d2                	test   %edx,%edx
    6122:	0f 85 88 fa ff ff    	jne    5bb0 <pcm_format_silence+0x1f0>
    6128:	31 c9                	xor    %ecx,%ecx
    612a:	e9 d3 fa ff ff       	jmp    5c02 <pcm_format_silence+0x242>
    612f:	90                   	nop
    6130:	85 f6                	test   %esi,%esi
    6132:	75 23                	jne    6157 <pcm_format_silence+0x797>
    6134:	8d 5a fe             	lea    -0x2(%edx),%ebx
    6137:	31 c9                	xor    %ecx,%ecx
    6139:	d1 eb                	shr    %ebx
    613b:	43                   	inc    %ebx
    613c:	8d 3c 1b             	lea    (%ebx,%ebx,1),%edi
    613f:	89 7d f0             	mov    %edi,-0x10(%ebp)
    6142:	e9 25 fd ff ff       	jmp    5e6c <pcm_format_silence+0x4ac>
    6147:	90                   	nop
    6148:	85 d2                	test   %edx,%edx
    614a:	0f 85 7c f9 ff ff    	jne    5acc <pcm_format_silence+0x10c>
    6150:	31 c9                	xor    %ecx,%ecx
    6152:	e9 c7 f9 ff ff       	jmp    5b1e <pcm_format_silence+0x15e>
    6157:	66 c7 00 00 00       	movw   $0x0,(%eax)
    615c:	b9 01 00 00 00       	mov    $0x1,%ecx
    6161:	e9 e7 fc ff ff       	jmp    5e4d <pcm_format_silence+0x48d>
    6166:	66 c7 00 80 00       	movw   $0x80,(%eax)
    616b:	b9 01 00 00 00       	mov    $0x1,%ecx
    6170:	e9 10 fc ff ff       	jmp    5d85 <pcm_format_silence+0x3c5>
    6175:	66 c7 00 00 00       	movw   $0x0,(%eax)
    617a:	b9 01 00 00 00       	mov    $0x1,%ecx
    617f:	e9 61 fb ff ff       	jmp    5ce5 <pcm_format_silence+0x325>
    6184:	66 c7 00 00 80       	movw   $0x8000,(%eax)
    6189:	b9 01 00 00 00       	mov    $0x1,%ecx
    618e:	e9 ca f8 ff ff       	jmp    5a5d <pcm_format_silence+0x9d>
    6193:	8d b6 00 00 00 00    	lea    0x0(%esi),%esi
    6199:	8d bc 27 00 00 00 00 	lea    0x0(%edi,%eiz,1),%edi

000061a0 <pcm_format_convert_and_mix>:
    61a0:	55                   	push   %ebp
    61a1:	89 e5                	mov    %esp,%ebp
    61a3:	57                   	push   %edi
    61a4:	56                   	push   %esi
    61a5:	53                   	push   %ebx
    61a6:	83 ec 4c             	sub    $0x4c,%esp
    61a9:	8b 45 08             	mov    0x8(%ebp),%eax
    61ac:	8b 7d 1c             	mov    0x1c(%ebp),%edi
    61af:	85 c0                	test   %eax,%eax
    61b1:	0f 84 c1 0a 00 00    	je     6c78 <pcm_format_convert_and_mix+0xad8>
    61b7:	8b 45 10             	mov    0x10(%ebp),%eax
    61ba:	85 c0                	test   %eax,%eax
    61bc:	0f 84 b6 0a 00 00    	je     6c78 <pcm_format_convert_and_mix+0xad8>
    61c2:	8b 75 18             	mov    0x18(%ebp),%esi
    61c5:	85 f6                	test   %esi,%esi
    61c7:	0f 84 ab 0a 00 00    	je     6c78 <pcm_format_convert_and_mix+0xad8>
    61cd:	85 ff                	test   %edi,%edi
    61cf:	0f 84 a3 0a 00 00    	je     6c78 <pcm_format_convert_and_mix+0xad8>
    61d5:	8b 45 18             	mov    0x18(%ebp),%eax
    61d8:	31 c9                	xor    %ecx,%ecx
    61da:	8b 40 08             	mov    0x8(%eax),%eax
    61dd:	83 f8 12             	cmp    $0x12,%eax
    61e0:	76 3e                	jbe    6220 <pcm_format_convert_and_mix+0x80>
    61e2:	31 d2                	xor    %edx,%edx
    61e4:	8b 45 14             	mov    0x14(%ebp),%eax
    61e7:	f7 f1                	div    %ecx
    61e9:	85 d2                	test   %edx,%edx
    61eb:	0f 85 87 0a 00 00    	jne    6c78 <pcm_format_convert_and_mix+0xad8>
    61f1:	8b 4f 08             	mov    0x8(%edi),%ecx
    61f4:	31 db                	xor    %ebx,%ebx
    61f6:	8b 37                	mov    (%edi),%esi
    61f8:	83 f9 12             	cmp    $0x12,%ecx
    61fb:	76 3b                	jbe    6238 <pcm_format_convert_and_mix+0x98>
    61fd:	31 d2                	xor    %edx,%edx
    61ff:	8b 45 0c             	mov    0xc(%ebp),%eax
    6202:	f7 f3                	div    %ebx
    6204:	85 d2                	test   %edx,%edx
    6206:	0f 85 6c 0a 00 00    	jne    6c78 <pcm_format_convert_and_mix+0xad8>
    620c:	83 f9 11             	cmp    $0x11,%ecx
    620f:	0f 87 33 0b 00 00    	ja     6d48 <pcm_format_convert_and_mix+0xba8>
    6215:	ff 24 8d 90 8f 00 00 	jmp    *0x8f90(,%ecx,4)
    621c:	8d 74 26 00          	lea    0x0(%esi,%eiz,1),%esi
    6220:	8b 0c 85 e0 8f 00 00 	mov    0x8fe0(,%eax,4),%ecx
    6227:	8b 45 18             	mov    0x18(%ebp),%eax
    622a:	8b 18                	mov    (%eax),%ebx
    622c:	0f af cb             	imul   %ebx,%ecx
    622f:	eb b1                	jmp    61e2 <pcm_format_convert_and_mix+0x42>
    6231:	8d b4 26 00 00 00 00 	lea    0x0(%esi,%eiz,1),%esi
    6238:	8b 1c 8d e0 8f 00 00 	mov    0x8fe0(,%ecx,4),%ebx
    623f:	0f af de             	imul   %esi,%ebx
    6242:	eb b9                	jmp    61fd <pcm_format_convert_and_mix+0x5d>
    6244:	31 d2                	xor    %edx,%edx
    6246:	8b 45 0c             	mov    0xc(%ebp),%eax
    6249:	f7 f3                	div    %ebx
    624b:	8b 55 0c             	mov    0xc(%ebp),%edx
    624e:	89 45 bc             	mov    %eax,-0x44(%ebp)
    6251:	c1 ea 02             	shr    $0x2,%edx
    6254:	c7 45 cc 00 00 00 00 	movl   $0x0,-0x34(%ebp)
    625b:	89 55 c8             	mov    %edx,-0x38(%ebp)
    625e:	85 c0                	test   %eax,%eax
    6260:	0f 84 12 09 00 00    	je     6b78 <pcm_format_convert_and_mix+0x9d8>
    6266:	66 90                	xchg   %ax,%ax
    6268:	85 f6                	test   %esi,%esi
    626a:	0f 84 98 0a 00 00    	je     6d08 <pcm_format_convert_and_mix+0xb68>
    6270:	31 db                	xor    %ebx,%ebx
    6272:	eb 71                	jmp    62e5 <pcm_format_convert_and_mix+0x145>
    6274:	8d 74 26 00          	lea    0x0(%esi,%eiz,1),%esi
    6278:	d9 e8                	fld1   
    627a:	d9 c9                	fxch   %st(1)
    627c:	dd e1                	fucom  %st(1)
    627e:	df e0                	fnstsw %ax
    6280:	f6 c4 45             	test   $0x45,%ah
    6283:	0f 85 72 0b 00 00    	jne    6dfb <pcm_format_convert_and_mix+0xc5b>
    6289:	dd d8                	fstp   %st(0)
    628b:	dd d8                	fstp   %st(0)
    628d:	d9 05 60 90 00 00    	flds   0x9060
    6293:	8b 55 cc             	mov    -0x34(%ebp),%edx
    6296:	0f af f2             	imul   %edx,%esi
    6299:	01 de                	add    %ebx,%esi
    629b:	3b 75 c8             	cmp    -0x38(%ebp),%esi
    629e:	73 38                	jae    62d8 <pcm_format_convert_and_mix+0x138>
    62a0:	d9 7d e2             	fnstcw -0x1e(%ebp)
    62a3:	66 8b 45 e2          	mov    -0x1e(%ebp),%ax
    62a7:	c7 45 c4 00 00 00 00 	movl   $0x0,-0x3c(%ebp)
    62ae:	b4 0c                	mov    $0xc,%ah
    62b0:	66 89 45 e0          	mov    %ax,-0x20(%ebp)
    62b4:	d9 6d e0             	fldcw  -0x20(%ebp)
    62b7:	db 5d dc             	fistpl -0x24(%ebp)
    62ba:	d9 6d e2             	fldcw  -0x1e(%ebp)
    62bd:	8b 45 dc             	mov    -0x24(%ebp),%eax
    62c0:	0f c8                	bswap  %eax
    62c2:	89 45 c0             	mov    %eax,-0x40(%ebp)
    62c5:	8b 45 08             	mov    0x8(%ebp),%eax
    62c8:	df 6d c0             	fildll -0x40(%ebp)
    62cb:	d9 6d e0             	fldcw  -0x20(%ebp)
    62ce:	db 1c b0             	fistpl (%eax,%esi,4)
    62d1:	d9 6d e2             	fldcw  -0x1e(%ebp)
    62d4:	eb 04                	jmp    62da <pcm_format_convert_and_mix+0x13a>
    62d6:	66 90                	xchg   %ax,%ax
    62d8:	dd d8                	fstp   %st(0)
    62da:	43                   	inc    %ebx
    62db:	8b 37                	mov    (%edi),%esi
    62dd:	39 de                	cmp    %ebx,%esi
    62df:	0f 86 1b 09 00 00    	jbe    6c00 <pcm_format_convert_and_mix+0xa60>
    62e5:	8b 55 0c             	mov    0xc(%ebp),%edx
    62e8:	51                   	push   %ecx
    62e9:	8b 45 08             	mov    0x8(%ebp),%eax
    62ec:	51                   	push   %ecx
    62ed:	8b 4d cc             	mov    -0x34(%ebp),%ecx
    62f0:	57                   	push   %edi
    62f1:	53                   	push   %ebx
    62f2:	e8 f9 f3 ff ff       	call   56f0 <get_normalized_sample>
    62f7:	8b 4d 18             	mov    0x18(%ebp),%ecx
    62fa:	58                   	pop    %eax
    62fb:	d9 5d c0             	fstps  -0x40(%ebp)
    62fe:	5a                   	pop    %edx
    62ff:	8b 45 10             	mov    0x10(%ebp),%eax
    6302:	51                   	push   %ecx
    6303:	8b 55 14             	mov    0x14(%ebp),%edx
    6306:	8b 4d cc             	mov    -0x34(%ebp),%ecx
    6309:	53                   	push   %ebx
    630a:	e8 e1 f3 ff ff       	call   56f0 <get_normalized_sample>
    630f:	83 c4 10             	add    $0x10,%esp
    6312:	d8 45 c0             	fadds  -0x40(%ebp)
    6315:	d9 e8                	fld1   
    6317:	d9 e0                	fchs   
    6319:	dd e9                	fucomp %st(1)
    631b:	df e0                	fnstsw %ax
    631d:	f6 c4 45             	test   $0x45,%ah
    6320:	0f 85 52 ff ff ff    	jne    6278 <pcm_format_convert_and_mix+0xd8>
    6326:	dd d8                	fstp   %st(0)
    6328:	d9 05 7c 90 00 00    	flds   0x907c
    632e:	e9 60 ff ff ff       	jmp    6293 <pcm_format_convert_and_mix+0xf3>
    6333:	31 d2                	xor    %edx,%edx
    6335:	8b 45 0c             	mov    0xc(%ebp),%eax
    6338:	f7 f3                	div    %ebx
    633a:	89 45 b4             	mov    %eax,-0x4c(%ebp)
    633d:	85 c0                	test   %eax,%eax
    633f:	0f 84 33 08 00 00    	je     6b78 <pcm_format_convert_and_mix+0x9d8>
    6345:	8b 45 0c             	mov    0xc(%ebp),%eax
    6348:	d1 e8                	shr    %eax
    634a:	85 f6                	test   %esi,%esi
    634c:	89 45 c8             	mov    %eax,-0x38(%ebp)
    634f:	0f 84 23 08 00 00    	je     6b78 <pcm_format_convert_and_mix+0x9d8>
    6355:	8d 04 36             	lea    (%esi,%esi,1),%eax
    6358:	31 c9                	xor    %ecx,%ecx
    635a:	89 45 b8             	mov    %eax,-0x48(%ebp)
    635d:	8b 45 08             	mov    0x8(%ebp),%eax
    6360:	89 45 bc             	mov    %eax,-0x44(%ebp)
    6363:	31 c0                	xor    %eax,%eax
    6365:	89 75 c0             	mov    %esi,-0x40(%ebp)
    6368:	89 7d 1c             	mov    %edi,0x1c(%ebp)
    636b:	89 c6                	mov    %eax,%esi
    636d:	89 cf                	mov    %ecx,%edi
    636f:	90                   	nop
    6370:	31 db                	xor    %ebx,%ebx
    6372:	eb 58                	jmp    63cc <pcm_format_convert_and_mix+0x22c>
    6374:	8d 74 26 00          	lea    0x0(%esi,%eiz,1),%esi
    6378:	d9 e8                	fld1   
    637a:	d9 c9                	fxch   %st(1)
    637c:	dd e1                	fucom  %st(1)
    637e:	df e0                	fnstsw %ax
    6380:	f6 c4 45             	test   $0x45,%ah
    6383:	0f 85 5f 0a 00 00    	jne    6de8 <pcm_format_convert_and_mix+0xc48>
    6389:	dd d8                	fstp   %st(0)
    638b:	dd d8                	fstp   %st(0)
    638d:	d9 05 6c 90 00 00    	flds   0x906c
    6393:	8d 04 3b             	lea    (%ebx,%edi,1),%eax
    6396:	3b 45 c8             	cmp    -0x38(%ebp),%eax
    6399:	73 25                	jae    63c0 <pcm_format_convert_and_mix+0x220>
    639b:	d9 7d e2             	fnstcw -0x1e(%ebp)
    639e:	66 8b 45 e2          	mov    -0x1e(%ebp),%ax
    63a2:	8b 55 bc             	mov    -0x44(%ebp),%edx
    63a5:	b4 0c                	mov    $0xc,%ah
    63a7:	66 89 45 e0          	mov    %ax,-0x20(%ebp)
    63ab:	d9 6d e0             	fldcw  -0x20(%ebp)
    63ae:	db 5d dc             	fistpl -0x24(%ebp)
    63b1:	d9 6d e2             	fldcw  -0x1e(%ebp)
    63b4:	8b 45 dc             	mov    -0x24(%ebp),%eax
    63b7:	66 89 04 5a          	mov    %ax,(%edx,%ebx,2)
    63bb:	eb 05                	jmp    63c2 <pcm_format_convert_and_mix+0x222>
    63bd:	8d 76 00             	lea    0x0(%esi),%esi
    63c0:	dd d8                	fstp   %st(0)
    63c2:	43                   	inc    %ebx
    63c3:	3b 5d c0             	cmp    -0x40(%ebp),%ebx
    63c6:	0f 84 8c 07 00 00    	je     6b58 <pcm_format_convert_and_mix+0x9b8>
    63cc:	50                   	push   %eax
    63cd:	50                   	push   %eax
    63ce:	8b 45 1c             	mov    0x1c(%ebp),%eax
    63d1:	89 f1                	mov    %esi,%ecx
    63d3:	50                   	push   %eax
    63d4:	8b 55 0c             	mov    0xc(%ebp),%edx
    63d7:	8b 45 08             	mov    0x8(%ebp),%eax
    63da:	53                   	push   %ebx
    63db:	e8 10 f3 ff ff       	call   56f0 <get_normalized_sample>
    63e0:	8b 4d 18             	mov    0x18(%ebp),%ecx
    63e3:	58                   	pop    %eax
    63e4:	8b 45 10             	mov    0x10(%ebp),%eax
    63e7:	d9 5d cc             	fstps  -0x34(%ebp)
    63ea:	5a                   	pop    %edx
    63eb:	8b 55 14             	mov    0x14(%ebp),%edx
    63ee:	51                   	push   %ecx
    63ef:	89 f1                	mov    %esi,%ecx
    63f1:	53                   	push   %ebx
    63f2:	e8 f9 f2 ff ff       	call   56f0 <get_normalized_sample>
    63f7:	d8 45 cc             	fadds  -0x34(%ebp)
    63fa:	83 c4 10             	add    $0x10,%esp
    63fd:	d9 e8                	fld1   
    63ff:	d9 e0                	fchs   
    6401:	dd e9                	fucomp %st(1)
    6403:	df e0                	fnstsw %ax
    6405:	f6 c4 45             	test   $0x45,%ah
    6408:	0f 85 6a ff ff ff    	jne    6378 <pcm_format_convert_and_mix+0x1d8>
    640e:	dd d8                	fstp   %st(0)
    6410:	d9 ee                	fldz   
    6412:	e9 7c ff ff ff       	jmp    6393 <pcm_format_convert_and_mix+0x1f3>
    6417:	31 d2                	xor    %edx,%edx
    6419:	8b 45 0c             	mov    0xc(%ebp),%eax
    641c:	f7 f3                	div    %ebx
    641e:	89 45 b4             	mov    %eax,-0x4c(%ebp)
    6421:	85 c0                	test   %eax,%eax
    6423:	0f 84 4f 07 00 00    	je     6b78 <pcm_format_convert_and_mix+0x9d8>
    6429:	8b 45 0c             	mov    0xc(%ebp),%eax
    642c:	d1 e8                	shr    %eax
    642e:	85 f6                	test   %esi,%esi
    6430:	89 45 c8             	mov    %eax,-0x38(%ebp)
    6433:	0f 84 3f 07 00 00    	je     6b78 <pcm_format_convert_and_mix+0x9d8>
    6439:	8d 04 36             	lea    (%esi,%esi,1),%eax
    643c:	31 c9                	xor    %ecx,%ecx
    643e:	89 45 b8             	mov    %eax,-0x48(%ebp)
    6441:	8b 45 08             	mov    0x8(%ebp),%eax
    6444:	89 45 bc             	mov    %eax,-0x44(%ebp)
    6447:	31 c0                	xor    %eax,%eax
    6449:	89 75 c0             	mov    %esi,-0x40(%ebp)
    644c:	89 7d 1c             	mov    %edi,0x1c(%ebp)
    644f:	89 c6                	mov    %eax,%esi
    6451:	89 cf                	mov    %ecx,%edi
    6453:	90                   	nop
    6454:	8d 74 26 00          	lea    0x0(%esi,%eiz,1),%esi
    6458:	31 db                	xor    %ebx,%ebx
    645a:	eb 60                	jmp    64bc <pcm_format_convert_and_mix+0x31c>
    645c:	8d 74 26 00          	lea    0x0(%esi,%eiz,1),%esi
    6460:	d9 e8                	fld1   
    6462:	d9 c9                	fxch   %st(1)
    6464:	dd e1                	fucom  %st(1)
    6466:	df e0                	fnstsw %ax
    6468:	f6 c4 45             	test   $0x45,%ah
    646b:	0f 85 64 09 00 00    	jne    6dd5 <pcm_format_convert_and_mix+0xc35>
    6471:	dd d8                	fstp   %st(0)
    6473:	dd d8                	fstp   %st(0)
    6475:	d9 05 6c 90 00 00    	flds   0x906c
    647b:	8d 04 1f             	lea    (%edi,%ebx,1),%eax
    647e:	39 45 c8             	cmp    %eax,-0x38(%ebp)
    6481:	76 2d                	jbe    64b0 <pcm_format_convert_and_mix+0x310>
    6483:	d9 7d e2             	fnstcw -0x1e(%ebp)
    6486:	66 8b 45 e2          	mov    -0x1e(%ebp),%ax
    648a:	8b 4d bc             	mov    -0x44(%ebp),%ecx
    648d:	b4 0c                	mov    $0xc,%ah
    648f:	66 89 45 e0          	mov    %ax,-0x20(%ebp)
    6493:	d9 6d e0             	fldcw  -0x20(%ebp)
    6496:	db 5d dc             	fistpl -0x24(%ebp)
    6499:	d9 6d e2             	fldcw  -0x1e(%ebp)
    649c:	8b 45 dc             	mov    -0x24(%ebp),%eax
    649f:	66 c1 c0 08          	rol    $0x8,%ax
    64a3:	66 89 04 59          	mov    %ax,(%ecx,%ebx,2)
    64a7:	eb 09                	jmp    64b2 <pcm_format_convert_and_mix+0x312>
    64a9:	8d b4 26 00 00 00 00 	lea    0x0(%esi,%eiz,1),%esi
    64b0:	dd d8                	fstp   %st(0)
    64b2:	43                   	inc    %ebx
    64b3:	3b 5d c0             	cmp    -0x40(%ebp),%ebx
    64b6:	0f 84 cc 06 00 00    	je     6b88 <pcm_format_convert_and_mix+0x9e8>
    64bc:	50                   	push   %eax
    64bd:	50                   	push   %eax
    64be:	8b 45 1c             	mov    0x1c(%ebp),%eax
    64c1:	89 f1                	mov    %esi,%ecx
    64c3:	50                   	push   %eax
    64c4:	8b 55 0c             	mov    0xc(%ebp),%edx
    64c7:	8b 45 08             	mov    0x8(%ebp),%eax
    64ca:	53                   	push   %ebx
    64cb:	e8 20 f2 ff ff       	call   56f0 <get_normalized_sample>
    64d0:	8b 4d 18             	mov    0x18(%ebp),%ecx
    64d3:	58                   	pop    %eax
    64d4:	8b 45 10             	mov    0x10(%ebp),%eax
    64d7:	d9 5d cc             	fstps  -0x34(%ebp)
    64da:	5a                   	pop    %edx
    64db:	8b 55 14             	mov    0x14(%ebp),%edx
    64de:	51                   	push   %ecx
    64df:	89 f1                	mov    %esi,%ecx
    64e1:	53                   	push   %ebx
    64e2:	e8 09 f2 ff ff       	call   56f0 <get_normalized_sample>
    64e7:	d8 45 cc             	fadds  -0x34(%ebp)
    64ea:	83 c4 10             	add    $0x10,%esp
    64ed:	d9 e8                	fld1   
    64ef:	d9 e0                	fchs   
    64f1:	dd e9                	fucomp %st(1)
    64f3:	df e0                	fnstsw %ax
    64f5:	f6 c4 45             	test   $0x45,%ah
    64f8:	0f 85 62 ff ff ff    	jne    6460 <pcm_format_convert_and_mix+0x2c0>
    64fe:	dd d8                	fstp   %st(0)
    6500:	d9 ee                	fldz   
    6502:	e9 74 ff ff ff       	jmp    647b <pcm_format_convert_and_mix+0x2db>
    6507:	31 d2                	xor    %edx,%edx
    6509:	8b 45 0c             	mov    0xc(%ebp),%eax
    650c:	f7 f3                	div    %ebx
    650e:	89 45 b4             	mov    %eax,-0x4c(%ebp)
    6511:	85 c0                	test   %eax,%eax
    6513:	0f 84 5f 06 00 00    	je     6b78 <pcm_format_convert_and_mix+0x9d8>
    6519:	8b 45 0c             	mov    0xc(%ebp),%eax
    651c:	d1 e8                	shr    %eax
    651e:	85 f6                	test   %esi,%esi
    6520:	89 45 c8             	mov    %eax,-0x38(%ebp)
    6523:	0f 84 4f 06 00 00    	je     6b78 <pcm_format_convert_and_mix+0x9d8>
    6529:	8d 04 36             	lea    (%esi,%esi,1),%eax
    652c:	31 d2                	xor    %edx,%edx
    652e:	89 45 b8             	mov    %eax,-0x48(%ebp)
    6531:	8b 45 08             	mov    0x8(%ebp),%eax
    6534:	89 45 bc             	mov    %eax,-0x44(%ebp)
    6537:	31 c0                	xor    %eax,%eax
    6539:	89 75 c0             	mov    %esi,-0x40(%ebp)
    653c:	89 7d 1c             	mov    %edi,0x1c(%ebp)
    653f:	89 c6                	mov    %eax,%esi
    6541:	89 d7                	mov    %edx,%edi
    6543:	90                   	nop
    6544:	8d 74 26 00          	lea    0x0(%esi,%eiz,1),%esi
    6548:	31 db                	xor    %ebx,%ebx
    654a:	eb 50                	jmp    659c <pcm_format_convert_and_mix+0x3fc>
    654c:	8d 74 26 00          	lea    0x0(%esi,%eiz,1),%esi
    6550:	d9 e8                	fld1   
    6552:	d9 c9                	fxch   %st(1)
    6554:	dd e1                	fucom  %st(1)
    6556:	df e0                	fnstsw %ax
    6558:	f6 c4 45             	test   $0x45,%ah
    655b:	0f 85 61 08 00 00    	jne    6dc2 <pcm_format_convert_and_mix+0xc22>
    6561:	dd d8                	fstp   %st(0)
    6563:	dd d8                	fstp   %st(0)
    6565:	d9 05 70 90 00 00    	flds   0x9070
    656b:	8d 04 1f             	lea    (%edi,%ebx,1),%eax
    656e:	3b 45 c8             	cmp    -0x38(%ebp),%eax
    6571:	73 1d                	jae    6590 <pcm_format_convert_and_mix+0x3f0>
    6573:	d9 7d e2             	fnstcw -0x1e(%ebp)
    6576:	66 8b 45 e2          	mov    -0x1e(%ebp),%ax
    657a:	b4 0c                	mov    $0xc,%ah
    657c:	66 89 45 e0          	mov    %ax,-0x20(%ebp)
    6580:	8b 45 bc             	mov    -0x44(%ebp),%eax
    6583:	d9 6d e0             	fldcw  -0x20(%ebp)
    6586:	df 1c 58             	fistp  (%eax,%ebx,2)
    6589:	d9 6d e2             	fldcw  -0x1e(%ebp)
    658c:	eb 04                	jmp    6592 <pcm_format_convert_and_mix+0x3f2>
    658e:	66 90                	xchg   %ax,%ax
    6590:	dd d8                	fstp   %st(0)
    6592:	43                   	inc    %ebx
    6593:	3b 5d c0             	cmp    -0x40(%ebp),%ebx
    6596:	0f 84 0c 06 00 00    	je     6ba8 <pcm_format_convert_and_mix+0xa08>
    659c:	50                   	push   %eax
    659d:	50                   	push   %eax
    659e:	8b 45 1c             	mov    0x1c(%ebp),%eax
    65a1:	89 f1                	mov    %esi,%ecx
    65a3:	50                   	push   %eax
    65a4:	8b 55 0c             	mov    0xc(%ebp),%edx
    65a7:	8b 45 08             	mov    0x8(%ebp),%eax
    65aa:	53                   	push   %ebx
    65ab:	e8 40 f1 ff ff       	call   56f0 <get_normalized_sample>
    65b0:	8b 4d 18             	mov    0x18(%ebp),%ecx
    65b3:	58                   	pop    %eax
    65b4:	8b 45 10             	mov    0x10(%ebp),%eax
    65b7:	d9 5d cc             	fstps  -0x34(%ebp)
    65ba:	5a                   	pop    %edx
    65bb:	8b 55 14             	mov    0x14(%ebp),%edx
    65be:	51                   	push   %ecx
    65bf:	89 f1                	mov    %esi,%ecx
    65c1:	53                   	push   %ebx
    65c2:	e8 29 f1 ff ff       	call   56f0 <get_normalized_sample>
    65c7:	d8 45 cc             	fadds  -0x34(%ebp)
    65ca:	83 c4 10             	add    $0x10,%esp
    65cd:	d9 e8                	fld1   
    65cf:	d9 e0                	fchs   
    65d1:	dd e9                	fucomp %st(1)
    65d3:	df e0                	fnstsw %ax
    65d5:	f6 c4 45             	test   $0x45,%ah
    65d8:	0f 85 72 ff ff ff    	jne    6550 <pcm_format_convert_and_mix+0x3b0>
    65de:	dd d8                	fstp   %st(0)
    65e0:	d9 05 74 90 00 00    	flds   0x9074
    65e6:	eb 83                	jmp    656b <pcm_format_convert_and_mix+0x3cb>
    65e8:	31 d2                	xor    %edx,%edx
    65ea:	8b 45 0c             	mov    0xc(%ebp),%eax
    65ed:	f7 f3                	div    %ebx
    65ef:	89 45 b4             	mov    %eax,-0x4c(%ebp)
    65f2:	85 c0                	test   %eax,%eax
    65f4:	0f 84 7e 05 00 00    	je     6b78 <pcm_format_convert_and_mix+0x9d8>
    65fa:	8b 45 0c             	mov    0xc(%ebp),%eax
    65fd:	d1 e8                	shr    %eax
    65ff:	85 f6                	test   %esi,%esi
    6601:	89 45 c8             	mov    %eax,-0x38(%ebp)
    6604:	0f 84 6e 05 00 00    	je     6b78 <pcm_format_convert_and_mix+0x9d8>
    660a:	8d 04 36             	lea    (%esi,%esi,1),%eax
    660d:	31 d2                	xor    %edx,%edx
    660f:	89 45 b8             	mov    %eax,-0x48(%ebp)
    6612:	8b 45 08             	mov    0x8(%ebp),%eax
    6615:	89 45 bc             	mov    %eax,-0x44(%ebp)
    6618:	31 c0                	xor    %eax,%eax
    661a:	89 75 c0             	mov    %esi,-0x40(%ebp)
    661d:	89 7d 1c             	mov    %edi,0x1c(%ebp)
    6620:	89 c6                	mov    %eax,%esi
    6622:	89 d7                	mov    %edx,%edi
    6624:	8d 74 26 00          	lea    0x0(%esi,%eiz,1),%esi
    6628:	31 db                	xor    %ebx,%ebx
    662a:	eb 60                	jmp    668c <pcm_format_convert_and_mix+0x4ec>
    662c:	8d 74 26 00          	lea    0x0(%esi,%eiz,1),%esi
    6630:	d9 e8                	fld1   
    6632:	d9 c9                	fxch   %st(1)
    6634:	dd e1                	fucom  %st(1)
    6636:	df e0                	fnstsw %ax
    6638:	f6 c4 45             	test   $0x45,%ah
    663b:	0f 85 6e 07 00 00    	jne    6daf <pcm_format_convert_and_mix+0xc0f>
    6641:	dd d8                	fstp   %st(0)
    6643:	dd d8                	fstp   %st(0)
    6645:	d9 05 70 90 00 00    	flds   0x9070
    664b:	8d 04 1f             	lea    (%edi,%ebx,1),%eax
    664e:	3b 45 c8             	cmp    -0x38(%ebp),%eax
    6651:	73 2d                	jae    6680 <pcm_format_convert_and_mix+0x4e0>
    6653:	d9 7d e2             	fnstcw -0x1e(%ebp)
    6656:	66 8b 45 e2          	mov    -0x1e(%ebp),%ax
    665a:	8b 55 bc             	mov    -0x44(%ebp),%edx
    665d:	b4 0c                	mov    $0xc,%ah
    665f:	66 89 45 e0          	mov    %ax,-0x20(%ebp)
    6663:	d9 6d e0             	fldcw  -0x20(%ebp)
    6666:	df 5d da             	fistp  -0x26(%ebp)
    6669:	d9 6d e2             	fldcw  -0x1e(%ebp)
    666c:	66 8b 45 da          	mov    -0x26(%ebp),%ax
    6670:	66 c1 c0 08          	rol    $0x8,%ax
    6674:	66 89 04 5a          	mov    %ax,(%edx,%ebx,2)
    6678:	eb 08                	jmp    6682 <pcm_format_convert_and_mix+0x4e2>
    667a:	8d b6 00 00 00 00    	lea    0x0(%esi),%esi
    6680:	dd d8                	fstp   %st(0)
    6682:	43                   	inc    %ebx
    6683:	3b 5d c0             	cmp    -0x40(%ebp),%ebx
    6686:	0f 84 3c 05 00 00    	je     6bc8 <pcm_format_convert_and_mix+0xa28>
    668c:	50                   	push   %eax
    668d:	50                   	push   %eax
    668e:	8b 45 1c             	mov    0x1c(%ebp),%eax
    6691:	89 f1                	mov    %esi,%ecx
    6693:	50                   	push   %eax
    6694:	8b 55 0c             	mov    0xc(%ebp),%edx
    6697:	8b 45 08             	mov    0x8(%ebp),%eax
    669a:	53                   	push   %ebx
    669b:	e8 50 f0 ff ff       	call   56f0 <get_normalized_sample>
    66a0:	8b 4d 18             	mov    0x18(%ebp),%ecx
    66a3:	58                   	pop    %eax
    66a4:	8b 45 10             	mov    0x10(%ebp),%eax
    66a7:	d9 5d cc             	fstps  -0x34(%ebp)
    66aa:	5a                   	pop    %edx
    66ab:	8b 55 14             	mov    0x14(%ebp),%edx
    66ae:	51                   	push   %ecx
    66af:	89 f1                	mov    %esi,%ecx
    66b1:	53                   	push   %ebx
    66b2:	e8 39 f0 ff ff       	call   56f0 <get_normalized_sample>
    66b7:	d8 45 cc             	fadds  -0x34(%ebp)
    66ba:	83 c4 10             	add    $0x10,%esp
    66bd:	d9 e8                	fld1   
    66bf:	d9 e0                	fchs   
    66c1:	dd e9                	fucomp %st(1)
    66c3:	df e0                	fnstsw %ax
    66c5:	f6 c4 45             	test   $0x45,%ah
    66c8:	0f 85 62 ff ff ff    	jne    6630 <pcm_format_convert_and_mix+0x490>
    66ce:	dd d8                	fstp   %st(0)
    66d0:	d9 05 74 90 00 00    	flds   0x9074
    66d6:	e9 70 ff ff ff       	jmp    664b <pcm_format_convert_and_mix+0x4ab>
    66db:	31 d2                	xor    %edx,%edx
    66dd:	8b 45 0c             	mov    0xc(%ebp),%eax
    66e0:	f7 f3                	div    %ebx
    66e2:	89 45 c8             	mov    %eax,-0x38(%ebp)
    66e5:	c7 45 cc 00 00 00 00 	movl   $0x0,-0x34(%ebp)
    66ec:	85 c0                	test   %eax,%eax
    66ee:	0f 84 84 04 00 00    	je     6b78 <pcm_format_convert_and_mix+0x9d8>
    66f4:	8d 74 26 00          	lea    0x0(%esi,%eiz,1),%esi
    66f8:	85 f6                	test   %esi,%esi
    66fa:	0f 84 e8 05 00 00    	je     6ce8 <pcm_format_convert_and_mix+0xb48>
    6700:	31 db                	xor    %ebx,%ebx
    6702:	eb 61                	jmp    6765 <pcm_format_convert_and_mix+0x5c5>
    6704:	8d 74 26 00          	lea    0x0(%esi,%eiz,1),%esi
    6708:	d9 e8                	fld1   
    670a:	d9 c9                	fxch   %st(1)
    670c:	dd e1                	fucom  %st(1)
    670e:	df e0                	fnstsw %ax
    6710:	f6 c4 45             	test   $0x45,%ah
    6713:	0f 85 83 06 00 00    	jne    6d9c <pcm_format_convert_and_mix+0xbfc>
    6719:	dd d8                	fstp   %st(0)
    671b:	dd d8                	fstp   %st(0)
    671d:	d9 05 64 90 00 00    	flds   0x9064
    6723:	8b 45 cc             	mov    -0x34(%ebp),%eax
    6726:	0f af f0             	imul   %eax,%esi
    6729:	01 de                	add    %ebx,%esi
    672b:	39 75 0c             	cmp    %esi,0xc(%ebp)
    672e:	76 28                	jbe    6758 <pcm_format_convert_and_mix+0x5b8>
    6730:	d9 7d e2             	fnstcw -0x1e(%ebp)
    6733:	66 8b 45 e2          	mov    -0x1e(%ebp),%ax
    6737:	8b 55 08             	mov    0x8(%ebp),%edx
    673a:	b4 0c                	mov    $0xc,%ah
    673c:	66 89 45 e0          	mov    %ax,-0x20(%ebp)
    6740:	d9 6d e0             	fldcw  -0x20(%ebp)
    6743:	df 5d da             	fistp  -0x26(%ebp)
    6746:	d9 6d e2             	fldcw  -0x1e(%ebp)
    6749:	66 8b 45 da          	mov    -0x26(%ebp),%ax
    674d:	88 04 32             	mov    %al,(%edx,%esi,1)
    6750:	eb 08                	jmp    675a <pcm_format_convert_and_mix+0x5ba>
    6752:	8d b6 00 00 00 00    	lea    0x0(%esi),%esi
    6758:	dd d8                	fstp   %st(0)
    675a:	43                   	inc    %ebx
    675b:	8b 37                	mov    (%edi),%esi
    675d:	39 de                	cmp    %ebx,%esi
    675f:	0f 86 fb 04 00 00    	jbe    6c60 <pcm_format_convert_and_mix+0xac0>
    6765:	8b 4d cc             	mov    -0x34(%ebp),%ecx
    6768:	50                   	push   %eax
    6769:	8b 55 0c             	mov    0xc(%ebp),%edx
    676c:	50                   	push   %eax
    676d:	8b 45 08             	mov    0x8(%ebp),%eax
    6770:	57                   	push   %edi
    6771:	53                   	push   %ebx
    6772:	e8 79 ef ff ff       	call   56f0 <get_normalized_sample>
    6777:	8b 4d 18             	mov    0x18(%ebp),%ecx
    677a:	58                   	pop    %eax
    677b:	d9 5d c0             	fstps  -0x40(%ebp)
    677e:	5a                   	pop    %edx
    677f:	8b 45 10             	mov    0x10(%ebp),%eax
    6782:	51                   	push   %ecx
    6783:	8b 55 14             	mov    0x14(%ebp),%edx
    6786:	8b 4d cc             	mov    -0x34(%ebp),%ecx
    6789:	53                   	push   %ebx
    678a:	e8 61 ef ff ff       	call   56f0 <get_normalized_sample>
    678f:	83 c4 10             	add    $0x10,%esp
    6792:	d8 45 c0             	fadds  -0x40(%ebp)
    6795:	d9 e8                	fld1   
    6797:	d9 e0                	fchs   
    6799:	dd e9                	fucomp %st(1)
    679b:	df e0                	fnstsw %ax
    679d:	f6 c4 45             	test   $0x45,%ah
    67a0:	0f 85 62 ff ff ff    	jne    6708 <pcm_format_convert_and_mix+0x568>
    67a6:	dd d8                	fstp   %st(0)
    67a8:	d9 ee                	fldz   
    67aa:	e9 74 ff ff ff       	jmp    6723 <pcm_format_convert_and_mix+0x583>
    67af:	31 d2                	xor    %edx,%edx
    67b1:	8b 45 0c             	mov    0xc(%ebp),%eax
    67b4:	f7 f3                	div    %ebx
    67b6:	89 45 c8             	mov    %eax,-0x38(%ebp)
    67b9:	c7 45 cc 00 00 00 00 	movl   $0x0,-0x34(%ebp)
    67c0:	85 c0                	test   %eax,%eax
    67c2:	0f 84 b0 03 00 00    	je     6b78 <pcm_format_convert_and_mix+0x9d8>
    67c8:	85 f6                	test   %esi,%esi
    67ca:	0f 84 b5 04 00 00    	je     6c85 <pcm_format_convert_and_mix+0xae5>
    67d0:	31 db                	xor    %ebx,%ebx
    67d2:	eb 61                	jmp    6835 <pcm_format_convert_and_mix+0x695>
    67d4:	8d 74 26 00          	lea    0x0(%esi,%eiz,1),%esi
    67d8:	d9 e8                	fld1   
    67da:	d9 c9                	fxch   %st(1)
    67dc:	dd e1                	fucom  %st(1)
    67de:	df e0                	fnstsw %ax
    67e0:	f6 c4 45             	test   $0x45,%ah
    67e3:	0f 85 a0 05 00 00    	jne    6d89 <pcm_format_convert_and_mix+0xbe9>
    67e9:	dd d8                	fstp   %st(0)
    67eb:	dd d8                	fstp   %st(0)
    67ed:	d9 05 68 90 00 00    	flds   0x9068
    67f3:	8b 45 cc             	mov    -0x34(%ebp),%eax
    67f6:	0f af f0             	imul   %eax,%esi
    67f9:	01 de                	add    %ebx,%esi
    67fb:	39 75 0c             	cmp    %esi,0xc(%ebp)
    67fe:	76 28                	jbe    6828 <pcm_format_convert_and_mix+0x688>
    6800:	d9 7d e2             	fnstcw -0x1e(%ebp)
    6803:	66 8b 45 e2          	mov    -0x1e(%ebp),%ax
    6807:	8b 4d 08             	mov    0x8(%ebp),%ecx
    680a:	b4 0c                	mov    $0xc,%ah
    680c:	66 89 45 e0          	mov    %ax,-0x20(%ebp)
    6810:	d9 6d e0             	fldcw  -0x20(%ebp)
    6813:	df 5d da             	fistp  -0x26(%ebp)
    6816:	d9 6d e2             	fldcw  -0x1e(%ebp)
    6819:	66 8b 45 da          	mov    -0x26(%ebp),%ax
    681d:	88 04 31             	mov    %al,(%ecx,%esi,1)
    6820:	eb 08                	jmp    682a <pcm_format_convert_and_mix+0x68a>
    6822:	8d b6 00 00 00 00    	lea    0x0(%esi),%esi
    6828:	dd d8                	fstp   %st(0)
    682a:	43                   	inc    %ebx
    682b:	8b 37                	mov    (%edi),%esi
    682d:	39 de                	cmp    %ebx,%esi
    682f:	0f 86 fb 03 00 00    	jbe    6c30 <pcm_format_convert_and_mix+0xa90>
    6835:	8b 4d cc             	mov    -0x34(%ebp),%ecx
    6838:	50                   	push   %eax
    6839:	8b 55 0c             	mov    0xc(%ebp),%edx
    683c:	50                   	push   %eax
    683d:	8b 45 08             	mov    0x8(%ebp),%eax
    6840:	57                   	push   %edi
    6841:	53                   	push   %ebx
    6842:	e8 a9 ee ff ff       	call   56f0 <get_normalized_sample>
    6847:	8b 4d 18             	mov    0x18(%ebp),%ecx
    684a:	58                   	pop    %eax
    684b:	d9 5d c0             	fstps  -0x40(%ebp)
    684e:	5a                   	pop    %edx
    684f:	8b 45 10             	mov    0x10(%ebp),%eax
    6852:	51                   	push   %ecx
    6853:	8b 55 14             	mov    0x14(%ebp),%edx
    6856:	8b 4d cc             	mov    -0x34(%ebp),%ecx
    6859:	53                   	push   %ebx
    685a:	e8 91 ee ff ff       	call   56f0 <get_normalized_sample>
    685f:	83 c4 10             	add    $0x10,%esp
    6862:	d8 45 c0             	fadds  -0x40(%ebp)
    6865:	d9 e8                	fld1   
    6867:	d9 e0                	fchs   
    6869:	dd e9                	fucomp %st(1)
    686b:	df e0                	fnstsw %ax
    686d:	f6 c4 45             	test   $0x45,%ah
    6870:	0f 85 62 ff ff ff    	jne    67d8 <pcm_format_convert_and_mix+0x638>
    6876:	dd d8                	fstp   %st(0)
    6878:	d9 05 50 90 00 00    	flds   0x9050
    687e:	e9 70 ff ff ff       	jmp    67f3 <pcm_format_convert_and_mix+0x653>
    6883:	31 d2                	xor    %edx,%edx
    6885:	8b 45 0c             	mov    0xc(%ebp),%eax
    6888:	f7 f3                	div    %ebx
    688a:	8b 55 0c             	mov    0xc(%ebp),%edx
    688d:	89 45 bc             	mov    %eax,-0x44(%ebp)
    6890:	c1 ea 02             	shr    $0x2,%edx
    6893:	c7 45 cc 00 00 00 00 	movl   $0x0,-0x34(%ebp)
    689a:	89 55 c8             	mov    %edx,-0x38(%ebp)
    689d:	85 c0                	test   %eax,%eax
    689f:	0f 84 d3 02 00 00    	je     6b78 <pcm_format_convert_and_mix+0x9d8>
    68a5:	89 7d 1c             	mov    %edi,0x1c(%ebp)
    68a8:	85 f6                	test   %esi,%esi
    68aa:	0f 84 18 04 00 00    	je     6cc8 <pcm_format_convert_and_mix+0xb28>
    68b0:	31 db                	xor    %ebx,%ebx
    68b2:	8b 7d 1c             	mov    0x1c(%ebp),%edi
    68b5:	eb 76                	jmp    692d <pcm_format_convert_and_mix+0x78d>
    68b7:	90                   	nop
    68b8:	d9 e8                	fld1   
    68ba:	d9 c9                	fxch   %st(1)
    68bc:	dd e1                	fucom  %st(1)
    68be:	df e0                	fnstsw %ax
    68c0:	f6 c4 45             	test   $0x45,%ah
    68c3:	0f 85 ad 04 00 00    	jne    6d76 <pcm_format_convert_and_mix+0xbd6>
    68c9:	dd d8                	fstp   %st(0)
    68cb:	dd d8                	fstp   %st(0)
    68cd:	d9 05 78 90 00 00    	flds   0x9078
    68d3:	8b 45 cc             	mov    -0x34(%ebp),%eax
    68d6:	0f af f0             	imul   %eax,%esi
    68d9:	01 de                	add    %ebx,%esi
    68db:	3b 75 c8             	cmp    -0x38(%ebp),%esi
    68de:	73 40                	jae    6920 <pcm_format_convert_and_mix+0x780>
    68e0:	d9 7d e2             	fnstcw -0x1e(%ebp)
    68e3:	66 8b 45 e2          	mov    -0x1e(%ebp),%ax
    68e7:	c7 45 c4 00 00 00 00 	movl   $0x0,-0x3c(%ebp)
    68ee:	b4 0c                	mov    $0xc,%ah
    68f0:	8b 4d 08             	mov    0x8(%ebp),%ecx
    68f3:	66 89 45 e0          	mov    %ax,-0x20(%ebp)
    68f7:	d9 6d e0             	fldcw  -0x20(%ebp)
    68fa:	df 7d d0             	fistpll -0x30(%ebp)
    68fd:	d9 6d e2             	fldcw  -0x1e(%ebp)
    6900:	8b 45 d0             	mov    -0x30(%ebp),%eax
    6903:	89 45 c0             	mov    %eax,-0x40(%ebp)
    6906:	df 6d c0             	fildll -0x40(%ebp)
    6909:	d9 6d e0             	fldcw  -0x20(%ebp)
    690c:	df 7d d0             	fistpll -0x30(%ebp)
    690f:	d9 6d e2             	fldcw  -0x1e(%ebp)
    6912:	8b 45 d0             	mov    -0x30(%ebp),%eax
    6915:	89 04 b1             	mov    %eax,(%ecx,%esi,4)
    6918:	eb 08                	jmp    6922 <pcm_format_convert_and_mix+0x782>
    691a:	8d b6 00 00 00 00    	lea    0x0(%esi),%esi
    6920:	dd d8                	fstp   %st(0)
    6922:	43                   	inc    %ebx
    6923:	8b 37                	mov    (%edi),%esi
    6925:	39 de                	cmp    %ebx,%esi
    6927:	0f 86 eb 02 00 00    	jbe    6c18 <pcm_format_convert_and_mix+0xa78>
    692d:	8b 4d cc             	mov    -0x34(%ebp),%ecx
    6930:	50                   	push   %eax
    6931:	8b 55 0c             	mov    0xc(%ebp),%edx
    6934:	50                   	push   %eax
    6935:	8b 45 08             	mov    0x8(%ebp),%eax
    6938:	57                   	push   %edi
    6939:	53                   	push   %ebx
    693a:	e8 b1 ed ff ff       	call   56f0 <get_normalized_sample>
    693f:	8b 4d 18             	mov    0x18(%ebp),%ecx
    6942:	58                   	pop    %eax
    6943:	d9 5d c0             	fstps  -0x40(%ebp)
    6946:	5a                   	pop    %edx
    6947:	8b 45 10             	mov    0x10(%ebp),%eax
    694a:	51                   	push   %ecx
    694b:	8b 55 14             	mov    0x14(%ebp),%edx
    694e:	8b 4d cc             	mov    -0x34(%ebp),%ecx
    6951:	53                   	push   %ebx
    6952:	e8 99 ed ff ff       	call   56f0 <get_normalized_sample>
    6957:	83 c4 10             	add    $0x10,%esp
    695a:	d8 45 c0             	fadds  -0x40(%ebp)
    695d:	d9 e8                	fld1   
    695f:	d9 e0                	fchs   
    6961:	dd e9                	fucomp %st(1)
    6963:	df e0                	fnstsw %ax
    6965:	f6 c4 45             	test   $0x45,%ah
    6968:	0f 85 4a ff ff ff    	jne    68b8 <pcm_format_convert_and_mix+0x718>
    696e:	dd d8                	fstp   %st(0)
    6970:	d9 ee                	fldz   
    6972:	e9 5c ff ff ff       	jmp    68d3 <pcm_format_convert_and_mix+0x733>
    6977:	31 d2                	xor    %edx,%edx
    6979:	8b 45 0c             	mov    0xc(%ebp),%eax
    697c:	f7 f3                	div    %ebx
    697e:	8b 55 0c             	mov    0xc(%ebp),%edx
    6981:	89 45 bc             	mov    %eax,-0x44(%ebp)
    6984:	c1 ea 02             	shr    $0x2,%edx
    6987:	c7 45 cc 00 00 00 00 	movl   $0x0,-0x34(%ebp)
    698e:	89 55 c8             	mov    %edx,-0x38(%ebp)
    6991:	85 c0                	test   %eax,%eax
    6993:	0f 84 df 01 00 00    	je     6b78 <pcm_format_convert_and_mix+0x9d8>
    6999:	89 7d 1c             	mov    %edi,0x1c(%ebp)
    699c:	8d 74 26 00          	lea    0x0(%esi,%eiz,1),%esi
    69a0:	85 f6                	test   %esi,%esi
    69a2:	0f 84 00 03 00 00    	je     6ca8 <pcm_format_convert_and_mix+0xb08>
    69a8:	31 db                	xor    %ebx,%ebx
    69aa:	8b 7d 1c             	mov    0x1c(%ebp),%edi
    69ad:	eb 76                	jmp    6a25 <pcm_format_convert_and_mix+0x885>
    69af:	90                   	nop
    69b0:	d9 e8                	fld1   
    69b2:	d9 c9                	fxch   %st(1)
    69b4:	dd e1                	fucom  %st(1)
    69b6:	df e0                	fnstsw %ax
    69b8:	f6 c4 45             	test   $0x45,%ah
    69bb:	0f 85 a2 03 00 00    	jne    6d63 <pcm_format_convert_and_mix+0xbc3>
    69c1:	dd d8                	fstp   %st(0)
    69c3:	dd d8                	fstp   %st(0)
    69c5:	d9 05 78 90 00 00    	flds   0x9078
    69cb:	8b 45 cc             	mov    -0x34(%ebp),%eax
    69ce:	0f af f0             	imul   %eax,%esi
    69d1:	01 de                	add    %ebx,%esi
    69d3:	3b 75 c8             	cmp    -0x38(%ebp),%esi
    69d6:	73 40                	jae    6a18 <pcm_format_convert_and_mix+0x878>
    69d8:	d9 7d e2             	fnstcw -0x1e(%ebp)
    69db:	66 8b 45 e2          	mov    -0x1e(%ebp),%ax
    69df:	c7 45 c4 00 00 00 00 	movl   $0x0,-0x3c(%ebp)
    69e6:	b4 0c                	mov    $0xc,%ah
    69e8:	8b 4d 08             	mov    0x8(%ebp),%ecx
    69eb:	66 89 45 e0          	mov    %ax,-0x20(%ebp)
    69ef:	d9 6d e0             	fldcw  -0x20(%ebp)
    69f2:	df 7d d0             	fistpll -0x30(%ebp)
    69f5:	d9 6d e2             	fldcw  -0x1e(%ebp)
    69f8:	8b 45 d0             	mov    -0x30(%ebp),%eax
    69fb:	0f c8                	bswap  %eax
    69fd:	89 45 c0             	mov    %eax,-0x40(%ebp)
    6a00:	df 6d c0             	fildll -0x40(%ebp)
    6a03:	d9 6d e0             	fldcw  -0x20(%ebp)
    6a06:	df 7d d0             	fistpll -0x30(%ebp)
    6a09:	d9 6d e2             	fldcw  -0x1e(%ebp)
    6a0c:	8b 45 d0             	mov    -0x30(%ebp),%eax
    6a0f:	89 04 b1             	mov    %eax,(%ecx,%esi,4)
    6a12:	eb 06                	jmp    6a1a <pcm_format_convert_and_mix+0x87a>
    6a14:	8d 74 26 00          	lea    0x0(%esi,%eiz,1),%esi
    6a18:	dd d8                	fstp   %st(0)
    6a1a:	43                   	inc    %ebx
    6a1b:	8b 37                	mov    (%edi),%esi
    6a1d:	39 de                	cmp    %ebx,%esi
    6a1f:	0f 86 23 02 00 00    	jbe    6c48 <pcm_format_convert_and_mix+0xaa8>
    6a25:	8b 4d cc             	mov    -0x34(%ebp),%ecx
    6a28:	50                   	push   %eax
    6a29:	8b 55 0c             	mov    0xc(%ebp),%edx
    6a2c:	50                   	push   %eax
    6a2d:	8b 45 08             	mov    0x8(%ebp),%eax
    6a30:	57                   	push   %edi
    6a31:	53                   	push   %ebx
    6a32:	e8 b9 ec ff ff       	call   56f0 <get_normalized_sample>
    6a37:	8b 4d 18             	mov    0x18(%ebp),%ecx
    6a3a:	58                   	pop    %eax
    6a3b:	d9 5d c0             	fstps  -0x40(%ebp)
    6a3e:	5a                   	pop    %edx
    6a3f:	8b 45 10             	mov    0x10(%ebp),%eax
    6a42:	51                   	push   %ecx
    6a43:	8b 55 14             	mov    0x14(%ebp),%edx
    6a46:	8b 4d cc             	mov    -0x34(%ebp),%ecx
    6a49:	53                   	push   %ebx
    6a4a:	e8 a1 ec ff ff       	call   56f0 <get_normalized_sample>
    6a4f:	83 c4 10             	add    $0x10,%esp
    6a52:	d8 45 c0             	fadds  -0x40(%ebp)
    6a55:	d9 e8                	fld1   
    6a57:	d9 e0                	fchs   
    6a59:	dd e9                	fucomp %st(1)
    6a5b:	df e0                	fnstsw %ax
    6a5d:	f6 c4 45             	test   $0x45,%ah
    6a60:	0f 85 4a ff ff ff    	jne    69b0 <pcm_format_convert_and_mix+0x810>
    6a66:	dd d8                	fstp   %st(0)
    6a68:	d9 ee                	fldz   
    6a6a:	e9 5c ff ff ff       	jmp    69cb <pcm_format_convert_and_mix+0x82b>
    6a6f:	31 d2                	xor    %edx,%edx
    6a71:	8b 45 0c             	mov    0xc(%ebp),%eax
    6a74:	f7 f3                	div    %ebx
    6a76:	8b 55 0c             	mov    0xc(%ebp),%edx
    6a79:	89 45 bc             	mov    %eax,-0x44(%ebp)
    6a7c:	c1 ea 02             	shr    $0x2,%edx
    6a7f:	c7 45 cc 00 00 00 00 	movl   $0x0,-0x34(%ebp)
    6a86:	89 55 c8             	mov    %edx,-0x38(%ebp)
    6a89:	85 c0                	test   %eax,%eax
    6a8b:	0f 84 e7 00 00 00    	je     6b78 <pcm_format_convert_and_mix+0x9d8>
    6a91:	8d b4 26 00 00 00 00 	lea    0x0(%esi,%eiz,1),%esi
    6a98:	85 f6                	test   %esi,%esi
    6a9a:	0f 84 88 02 00 00    	je     6d28 <pcm_format_convert_and_mix+0xb88>
    6aa0:	31 db                	xor    %ebx,%ebx
    6aa2:	eb 61                	jmp    6b05 <pcm_format_convert_and_mix+0x965>
    6aa4:	8d 74 26 00          	lea    0x0(%esi,%eiz,1),%esi
    6aa8:	d9 e8                	fld1   
    6aaa:	d9 c9                	fxch   %st(1)
    6aac:	dd e1                	fucom  %st(1)
    6aae:	df e0                	fnstsw %ax
    6ab0:	f6 c4 45             	test   $0x45,%ah
    6ab3:	0f 85 99 02 00 00    	jne    6d52 <pcm_format_convert_and_mix+0xbb2>
    6ab9:	dd d8                	fstp   %st(0)
    6abb:	dd d8                	fstp   %st(0)
    6abd:	d9 05 60 90 00 00    	flds   0x9060
    6ac3:	8b 45 cc             	mov    -0x34(%ebp),%eax
    6ac6:	0f af f0             	imul   %eax,%esi
    6ac9:	01 de                	add    %ebx,%esi
    6acb:	3b 75 c8             	cmp    -0x38(%ebp),%esi
    6ace:	73 28                	jae    6af8 <pcm_format_convert_and_mix+0x958>
    6ad0:	d9 7d e2             	fnstcw -0x1e(%ebp)
    6ad3:	66 8b 45 e2          	mov    -0x1e(%ebp),%ax
    6ad7:	b4 0c                	mov    $0xc,%ah
    6ad9:	66 89 45 e0          	mov    %ax,-0x20(%ebp)
    6add:	8b 45 08             	mov    0x8(%ebp),%eax
    6ae0:	d9 6d e0             	fldcw  -0x20(%ebp)
    6ae3:	db 5d c0             	fistpl -0x40(%ebp)
    6ae6:	d9 6d e2             	fldcw  -0x1e(%ebp)
    6ae9:	db 45 c0             	fildl  -0x40(%ebp)
    6aec:	d9 6d e0             	fldcw  -0x20(%ebp)
    6aef:	db 1c b0             	fistpl (%eax,%esi,4)
    6af2:	d9 6d e2             	fldcw  -0x1e(%ebp)
    6af5:	eb 03                	jmp    6afa <pcm_format_convert_and_mix+0x95a>
    6af7:	90                   	nop
    6af8:	dd d8                	fstp   %st(0)
    6afa:	43                   	inc    %ebx
    6afb:	8b 37                	mov    (%edi),%esi
    6afd:	39 de                	cmp    %ebx,%esi
    6aff:	0f 86 e3 00 00 00    	jbe    6be8 <pcm_format_convert_and_mix+0xa48>
    6b05:	8b 4d cc             	mov    -0x34(%ebp),%ecx
    6b08:	50                   	push   %eax
    6b09:	8b 55 0c             	mov    0xc(%ebp),%edx
    6b0c:	50                   	push   %eax
    6b0d:	8b 45 08             	mov    0x8(%ebp),%eax
    6b10:	57                   	push   %edi
    6b11:	53                   	push   %ebx
    6b12:	e8 d9 eb ff ff       	call   56f0 <get_normalized_sample>
    6b17:	8b 4d 18             	mov    0x18(%ebp),%ecx
    6b1a:	58                   	pop    %eax
    6b1b:	d9 5d c0             	fstps  -0x40(%ebp)
    6b1e:	5a                   	pop    %edx
    6b1f:	8b 45 10             	mov    0x10(%ebp),%eax
    6b22:	51                   	push   %ecx
    6b23:	8b 55 14             	mov    0x14(%ebp),%edx
    6b26:	8b 4d cc             	mov    -0x34(%ebp),%ecx
    6b29:	53                   	push   %ebx
    6b2a:	e8 c1 eb ff ff       	call   56f0 <get_normalized_sample>
    6b2f:	83 c4 10             	add    $0x10,%esp
    6b32:	d8 45 c0             	fadds  -0x40(%ebp)
    6b35:	d9 e8                	fld1   
    6b37:	d9 e0                	fchs   
    6b39:	dd e9                	fucomp %st(1)
    6b3b:	df e0                	fnstsw %ax
    6b3d:	f6 c4 45             	test   $0x45,%ah
    6b40:	0f 85 62 ff ff ff    	jne    6aa8 <pcm_format_convert_and_mix+0x908>
    6b46:	dd d8                	fstp   %st(0)
    6b48:	d9 05 7c 90 00 00    	flds   0x907c
    6b4e:	e9 70 ff ff ff       	jmp    6ac3 <pcm_format_convert_and_mix+0x923>
    6b53:	90                   	nop
    6b54:	8d 74 26 00          	lea    0x0(%esi,%eiz,1),%esi
    6b58:	8b 45 bc             	mov    -0x44(%ebp),%eax
    6b5b:	8b 55 b8             	mov    -0x48(%ebp),%edx
    6b5e:	01 d0                	add    %edx,%eax
    6b60:	46                   	inc    %esi
    6b61:	8b 5d c0             	mov    -0x40(%ebp),%ebx
    6b64:	89 45 bc             	mov    %eax,-0x44(%ebp)
    6b67:	01 df                	add    %ebx,%edi
    6b69:	39 75 b4             	cmp    %esi,-0x4c(%ebp)
    6b6c:	0f 85 fe f7 ff ff    	jne    6370 <pcm_format_convert_and_mix+0x1d0>
    6b72:	8d b6 00 00 00 00    	lea    0x0(%esi),%esi
    6b78:	31 c0                	xor    %eax,%eax
    6b7a:	8d 65 f4             	lea    -0xc(%ebp),%esp
    6b7d:	5b                   	pop    %ebx
    6b7e:	5e                   	pop    %esi
    6b7f:	5f                   	pop    %edi
    6b80:	5d                   	pop    %ebp
    6b81:	c3                   	ret    
    6b82:	8d b6 00 00 00 00    	lea    0x0(%esi),%esi
    6b88:	8b 45 bc             	mov    -0x44(%ebp),%eax
    6b8b:	8b 55 b8             	mov    -0x48(%ebp),%edx
    6b8e:	01 d0                	add    %edx,%eax
    6b90:	46                   	inc    %esi
    6b91:	8b 5d c0             	mov    -0x40(%ebp),%ebx
    6b94:	89 45 bc             	mov    %eax,-0x44(%ebp)
    6b97:	01 df                	add    %ebx,%edi
    6b99:	39 75 b4             	cmp    %esi,-0x4c(%ebp)
    6b9c:	0f 85 b6 f8 ff ff    	jne    6458 <pcm_format_convert_and_mix+0x2b8>
    6ba2:	eb d4                	jmp    6b78 <pcm_format_convert_and_mix+0x9d8>
    6ba4:	8d 74 26 00          	lea    0x0(%esi,%eiz,1),%esi
    6ba8:	8b 45 bc             	mov    -0x44(%ebp),%eax
    6bab:	8b 55 b8             	mov    -0x48(%ebp),%edx
    6bae:	01 d0                	add    %edx,%eax
    6bb0:	46                   	inc    %esi
    6bb1:	8b 5d c0             	mov    -0x40(%ebp),%ebx
    6bb4:	89 45 bc             	mov    %eax,-0x44(%ebp)
    6bb7:	01 df                	add    %ebx,%edi
    6bb9:	39 75 b4             	cmp    %esi,-0x4c(%ebp)
    6bbc:	0f 85 86 f9 ff ff    	jne    6548 <pcm_format_convert_and_mix+0x3a8>
    6bc2:	eb b4                	jmp    6b78 <pcm_format_convert_and_mix+0x9d8>
    6bc4:	8d 74 26 00          	lea    0x0(%esi,%eiz,1),%esi
    6bc8:	8b 45 bc             	mov    -0x44(%ebp),%eax
    6bcb:	8b 55 b8             	mov    -0x48(%ebp),%edx
    6bce:	01 d0                	add    %edx,%eax
    6bd0:	46                   	inc    %esi
    6bd1:	8b 5d c0             	mov    -0x40(%ebp),%ebx
    6bd4:	89 45 bc             	mov    %eax,-0x44(%ebp)
    6bd7:	01 df                	add    %ebx,%edi
    6bd9:	39 75 b4             	cmp    %esi,-0x4c(%ebp)
    6bdc:	0f 85 46 fa ff ff    	jne    6628 <pcm_format_convert_and_mix+0x488>
    6be2:	eb 94                	jmp    6b78 <pcm_format_convert_and_mix+0x9d8>
    6be4:	8d 74 26 00          	lea    0x0(%esi,%eiz,1),%esi
    6be8:	8b 5d cc             	mov    -0x34(%ebp),%ebx
    6beb:	43                   	inc    %ebx
    6bec:	89 5d cc             	mov    %ebx,-0x34(%ebp)
    6bef:	8b 45 cc             	mov    -0x34(%ebp),%eax
    6bf2:	39 45 bc             	cmp    %eax,-0x44(%ebp)
    6bf5:	0f 85 9d fe ff ff    	jne    6a98 <pcm_format_convert_and_mix+0x8f8>
    6bfb:	e9 78 ff ff ff       	jmp    6b78 <pcm_format_convert_and_mix+0x9d8>
    6c00:	8b 45 cc             	mov    -0x34(%ebp),%eax
    6c03:	40                   	inc    %eax
    6c04:	89 45 cc             	mov    %eax,-0x34(%ebp)
    6c07:	8b 45 cc             	mov    -0x34(%ebp),%eax
    6c0a:	39 45 bc             	cmp    %eax,-0x44(%ebp)
    6c0d:	0f 85 55 f6 ff ff    	jne    6268 <pcm_format_convert_and_mix+0xc8>
    6c13:	e9 60 ff ff ff       	jmp    6b78 <pcm_format_convert_and_mix+0x9d8>
    6c18:	8b 5d cc             	mov    -0x34(%ebp),%ebx
    6c1b:	43                   	inc    %ebx
    6c1c:	89 5d cc             	mov    %ebx,-0x34(%ebp)
    6c1f:	8b 45 cc             	mov    -0x34(%ebp),%eax
    6c22:	39 45 bc             	cmp    %eax,-0x44(%ebp)
    6c25:	0f 85 7d fc ff ff    	jne    68a8 <pcm_format_convert_and_mix+0x708>
    6c2b:	e9 48 ff ff ff       	jmp    6b78 <pcm_format_convert_and_mix+0x9d8>
    6c30:	8b 5d cc             	mov    -0x34(%ebp),%ebx
    6c33:	43                   	inc    %ebx
    6c34:	89 5d cc             	mov    %ebx,-0x34(%ebp)
    6c37:	8b 45 cc             	mov    -0x34(%ebp),%eax
    6c3a:	39 45 c8             	cmp    %eax,-0x38(%ebp)
    6c3d:	0f 85 85 fb ff ff    	jne    67c8 <pcm_format_convert_and_mix+0x628>
    6c43:	e9 30 ff ff ff       	jmp    6b78 <pcm_format_convert_and_mix+0x9d8>
    6c48:	8b 5d cc             	mov    -0x34(%ebp),%ebx
    6c4b:	43                   	inc    %ebx
    6c4c:	89 5d cc             	mov    %ebx,-0x34(%ebp)
    6c4f:	8b 45 cc             	mov    -0x34(%ebp),%eax
    6c52:	39 45 bc             	cmp    %eax,-0x44(%ebp)
    6c55:	0f 85 45 fd ff ff    	jne    69a0 <pcm_format_convert_and_mix+0x800>
    6c5b:	e9 18 ff ff ff       	jmp    6b78 <pcm_format_convert_and_mix+0x9d8>
    6c60:	8b 5d cc             	mov    -0x34(%ebp),%ebx
    6c63:	43                   	inc    %ebx
    6c64:	89 5d cc             	mov    %ebx,-0x34(%ebp)
    6c67:	8b 45 cc             	mov    -0x34(%ebp),%eax
    6c6a:	39 45 c8             	cmp    %eax,-0x38(%ebp)
    6c6d:	0f 85 85 fa ff ff    	jne    66f8 <pcm_format_convert_and_mix+0x558>
    6c73:	e9 00 ff ff ff       	jmp    6b78 <pcm_format_convert_and_mix+0x9d8>
    6c78:	8d 65 f4             	lea    -0xc(%ebp),%esp
    6c7b:	b8 f2 ff ff ff       	mov    $0xfffffff2,%eax
    6c80:	5b                   	pop    %ebx
    6c81:	5e                   	pop    %esi
    6c82:	5f                   	pop    %edi
    6c83:	5d                   	pop    %ebp
    6c84:	c3                   	ret    
    6c85:	8b 55 cc             	mov    -0x34(%ebp),%edx
    6c88:	8b 7d c8             	mov    -0x38(%ebp),%edi
    6c8b:	8d 42 01             	lea    0x1(%edx),%eax
    6c8e:	39 c7                	cmp    %eax,%edi
    6c90:	0f 84 e2 fe ff ff    	je     6b78 <pcm_format_convert_and_mix+0x9d8>
    6c96:	83 c2 02             	add    $0x2,%edx
    6c99:	39 d7                	cmp    %edx,%edi
    6c9b:	75 ee                	jne    6c8b <pcm_format_convert_and_mix+0xaeb>
    6c9d:	e9 d6 fe ff ff       	jmp    6b78 <pcm_format_convert_and_mix+0x9d8>
    6ca2:	8d b6 00 00 00 00    	lea    0x0(%esi),%esi
    6ca8:	8b 55 cc             	mov    -0x34(%ebp),%edx
    6cab:	8b 7d bc             	mov    -0x44(%ebp),%edi
    6cae:	8d 42 01             	lea    0x1(%edx),%eax
    6cb1:	39 c7                	cmp    %eax,%edi
    6cb3:	0f 84 bf fe ff ff    	je     6b78 <pcm_format_convert_and_mix+0x9d8>
    6cb9:	83 c2 02             	add    $0x2,%edx
    6cbc:	39 fa                	cmp    %edi,%edx
    6cbe:	75 ee                	jne    6cae <pcm_format_convert_and_mix+0xb0e>
    6cc0:	e9 b3 fe ff ff       	jmp    6b78 <pcm_format_convert_and_mix+0x9d8>
    6cc5:	8d 76 00             	lea    0x0(%esi),%esi
    6cc8:	8b 55 cc             	mov    -0x34(%ebp),%edx
    6ccb:	8b 7d bc             	mov    -0x44(%ebp),%edi
    6cce:	8d 42 01             	lea    0x1(%edx),%eax
    6cd1:	39 c7                	cmp    %eax,%edi
    6cd3:	0f 84 9f fe ff ff    	je     6b78 <pcm_format_convert_and_mix+0x9d8>
    6cd9:	83 c2 02             	add    $0x2,%edx
    6cdc:	39 fa                	cmp    %edi,%edx
    6cde:	75 ee                	jne    6cce <pcm_format_convert_and_mix+0xb2e>
    6ce0:	e9 93 fe ff ff       	jmp    6b78 <pcm_format_convert_and_mix+0x9d8>
    6ce5:	8d 76 00             	lea    0x0(%esi),%esi
    6ce8:	8b 55 cc             	mov    -0x34(%ebp),%edx
    6ceb:	8b 7d c8             	mov    -0x38(%ebp),%edi
    6cee:	8d 42 01             	lea    0x1(%edx),%eax
    6cf1:	39 c7                	cmp    %eax,%edi
    6cf3:	0f 84 7f fe ff ff    	je     6b78 <pcm_format_convert_and_mix+0x9d8>
    6cf9:	83 c2 02             	add    $0x2,%edx
    6cfc:	39 d7                	cmp    %edx,%edi
    6cfe:	75 ee                	jne    6cee <pcm_format_convert_and_mix+0xb4e>
    6d00:	e9 73 fe ff ff       	jmp    6b78 <pcm_format_convert_and_mix+0x9d8>
    6d05:	8d 76 00             	lea    0x0(%esi),%esi
    6d08:	8b 55 cc             	mov    -0x34(%ebp),%edx
    6d0b:	8b 7d bc             	mov    -0x44(%ebp),%edi
    6d0e:	8d 42 01             	lea    0x1(%edx),%eax
    6d11:	39 c7                	cmp    %eax,%edi
    6d13:	0f 84 5f fe ff ff    	je     6b78 <pcm_format_convert_and_mix+0x9d8>
    6d19:	83 c2 02             	add    $0x2,%edx
    6d1c:	39 fa                	cmp    %edi,%edx
    6d1e:	75 ee                	jne    6d0e <pcm_format_convert_and_mix+0xb6e>
    6d20:	e9 53 fe ff ff       	jmp    6b78 <pcm_format_convert_and_mix+0x9d8>
    6d25:	8d 76 00             	lea    0x0(%esi),%esi
    6d28:	8b 55 cc             	mov    -0x34(%ebp),%edx
    6d2b:	8b 7d bc             	mov    -0x44(%ebp),%edi
    6d2e:	8d 42 01             	lea    0x1(%edx),%eax
    6d31:	39 c7                	cmp    %eax,%edi
    6d33:	0f 84 3f fe ff ff    	je     6b78 <pcm_format_convert_and_mix+0x9d8>
    6d39:	83 c2 02             	add    $0x2,%edx
    6d3c:	39 fa                	cmp    %edi,%edx
    6d3e:	75 ee                	jne    6d2e <pcm_format_convert_and_mix+0xb8e>
    6d40:	e9 33 fe ff ff       	jmp    6b78 <pcm_format_convert_and_mix+0x9d8>
    6d45:	8d 76 00             	lea    0x0(%esi),%esi
    6d48:	b8 f5 ff ff ff       	mov    $0xfffffff5,%eax
    6d4d:	e9 28 fe ff ff       	jmp    6b7a <pcm_format_convert_and_mix+0x9da>
    6d52:	de c1                	faddp  %st,%st(1)
    6d54:	d9 05 60 90 00 00    	flds   0x9060
    6d5a:	dc c9                	fmul   %st,%st(1)
    6d5c:	de e9                	fsubrp %st,%st(1)
    6d5e:	e9 60 fd ff ff       	jmp    6ac3 <pcm_format_convert_and_mix+0x923>
    6d63:	de c1                	faddp  %st,%st(1)
    6d65:	d8 0d 60 90 00 00    	fmuls  0x9060
    6d6b:	d8 05 44 90 00 00    	fadds  0x9044
    6d71:	e9 55 fc ff ff       	jmp    69cb <pcm_format_convert_and_mix+0x82b>
    6d76:	de c1                	faddp  %st,%st(1)
    6d78:	d8 0d 60 90 00 00    	fmuls  0x9060
    6d7e:	d8 05 44 90 00 00    	fadds  0x9044
    6d84:	e9 4a fb ff ff       	jmp    68d3 <pcm_format_convert_and_mix+0x733>
    6d89:	de c1                	faddp  %st,%st(1)
    6d8b:	d8 0d 80 90 00 00    	fmuls  0x9080
    6d91:	d8 05 50 90 00 00    	fadds  0x9050
    6d97:	e9 57 fa ff ff       	jmp    67f3 <pcm_format_convert_and_mix+0x653>
    6d9c:	de c1                	faddp  %st,%st(1)
    6d9e:	d8 0d 48 90 00 00    	fmuls  0x9048
    6da4:	d8 05 44 90 00 00    	fadds  0x9044
    6daa:	e9 74 f9 ff ff       	jmp    6723 <pcm_format_convert_and_mix+0x583>
    6daf:	de c1                	faddp  %st,%st(1)
    6db1:	d8 0d 54 90 00 00    	fmuls  0x9054
    6db7:	d8 25 58 90 00 00    	fsubs  0x9058
    6dbd:	e9 89 f8 ff ff       	jmp    664b <pcm_format_convert_and_mix+0x4ab>
    6dc2:	de c1                	faddp  %st,%st(1)
    6dc4:	d8 0d 54 90 00 00    	fmuls  0x9054
    6dca:	d8 25 58 90 00 00    	fsubs  0x9058
    6dd0:	e9 96 f7 ff ff       	jmp    656b <pcm_format_convert_and_mix+0x3cb>
    6dd5:	de c1                	faddp  %st,%st(1)
    6dd7:	d8 0d 54 90 00 00    	fmuls  0x9054
    6ddd:	d8 05 44 90 00 00    	fadds  0x9044
    6de3:	e9 93 f6 ff ff       	jmp    647b <pcm_format_convert_and_mix+0x2db>
    6de8:	de c1                	faddp  %st,%st(1)
    6dea:	d8 0d 54 90 00 00    	fmuls  0x9054
    6df0:	d8 05 44 90 00 00    	fadds  0x9044
    6df6:	e9 98 f5 ff ff       	jmp    6393 <pcm_format_convert_and_mix+0x1f3>
    6dfb:	de c1                	faddp  %st,%st(1)
    6dfd:	d9 05 60 90 00 00    	flds   0x9060
    6e03:	dc c9                	fmul   %st,%st(1)
    6e05:	de e9                	fsubrp %st,%st(1)
    6e07:	e9 87 f4 ff ff       	jmp    6293 <pcm_format_convert_and_mix+0xf3>
    6e0c:	8d 74 26 00          	lea    0x0(%esi,%eiz,1),%esi

00006e10 <pcm_format_mix>:
    6e10:	55                   	push   %ebp
    6e11:	89 e5                	mov    %esp,%ebp
    6e13:	83 ec 10             	sub    $0x10,%esp
    6e16:	8b 55 14             	mov    0x14(%ebp),%edx
    6e19:	8b 45 10             	mov    0x10(%ebp),%eax
    6e1c:	52                   	push   %edx
    6e1d:	8b 4d 08             	mov    0x8(%ebp),%ecx
    6e20:	52                   	push   %edx
    6e21:	8b 55 0c             	mov    0xc(%ebp),%edx
    6e24:	50                   	push   %eax
    6e25:	52                   	push   %edx
    6e26:	50                   	push   %eax
    6e27:	51                   	push   %ecx
    6e28:	e8 73 f3 ff ff       	call   61a0 <pcm_format_convert_and_mix>
    6e2d:	c9                   	leave  
    6e2e:	c3                   	ret    
    6e2f:	25 75 20 66 72       	and    $0x72662075,%eax
    6e34:	61                   	popa   
    6e35:	6d                   	insl   (%dx),%es:(%edi)
    6e36:	65 73 3a             	gs jae 6e73 <pcm_format_mix+0x63>
    6e39:	20 00                	and    %al,(%eax)
    6e3b:	50                   	push   %eax
    6e3c:	6c                   	insb   (%dx),%es:(%edi)
    6e3d:	61                   	popa   
    6e3e:	79 62                	jns    6ea2 <pcm_format_mix+0x92>
    6e40:	61                   	popa   
    6e41:	63 6b 20             	arpl   %bp,0x20(%ebx)
    6e44:	74 65                	je     6eab <pcm_format_mix+0x9b>
    6e46:	72 6d                	jb     6eb5 <pcm_format_mix+0xa5>
    6e48:	69 6e 61 74 65 64 0a 	imul   $0xa646574,0x61(%esi),%ebp
    6e4f:	00 55 6e             	add    %dl,0x6e(%ebp)
    6e52:	6b 6e 6f 77          	imul   $0x77,0x6f(%esi),%ebp
    6e56:	6e                   	outsb  %ds:(%esi),(%dx)
    6e57:	20 65 76             	and    %ah,0x76(%ebp)
    6e5a:	65 6e                	outsb  %gs:(%esi),(%dx)
    6e5c:	74 20                	je     6e7e <pcm_format_mix+0x6e>
    6e5e:	25 75 2e 0a 00       	and    $0xa2e75,%eax
    6e63:	55                   	push   %ebp
    6e64:	6e                   	outsb  %ds:(%esi),(%dx)
    6e65:	6b 6e 6f 77          	imul   $0x77,0x6f(%esi),%ebp
    6e69:	6e                   	outsb  %ds:(%esi),(%dx)
    6e6a:	20 73 61             	and    %dh,0x61(%ebx)
    6e6d:	6d                   	insl   (%dx),%es:(%edi)
    6e6e:	70 6c                	jo     6edc <pcm_format_mix+0xcc>
    6e70:	65 20 66 6f          	and    %ah,%gs:0x6f(%esi)
    6e74:	72 6d                	jb     6ee3 <pcm_format_mix+0xd3>
    6e76:	61                   	popa   
    6e77:	74 00                	je     6e79 <pcm_format_mix+0x69>
    6e79:	64 65 66 61          	fs gs popaw 
    6e7d:	75 6c                	jne    6eeb <pcm_format_mix+0xdb>
    6e7f:	74 00                	je     6e81 <pcm_format_mix+0x71>
    6e81:	50                   	push   %eax
    6e82:	6c                   	insb   (%dx),%es:(%edi)
    6e83:	61                   	popa   
    6e84:	79 69                	jns    6eef <pcm_format_mix+0xdf>
    6e86:	6e                   	outsb  %ds:(%esi),(%dx)
    6e87:	67 20 6f 6e          	and    %ch,0x6e(%bx)
    6e8b:	20 64 65 76          	and    %ah,0x76(%ebp,%eiz,2)
    6e8f:	69 63 65 3a 20 25 73 	imul   $0x7325203a,0x65(%ebx),%esp
    6e96:	2e 0a 00             	or     %cs:(%eax),%al
    6e99:	46                   	inc    %esi
    6e9a:	61                   	popa   
    6e9b:	69 6c 65 64 20 74 6f 	imul   $0x206f7420,0x64(%ebp,%eiz,2),%ebp
    6ea2:	20 
    6ea3:	67 65 74 20          	addr16 gs je 6ec7 <pcm_format_mix+0xb7>
    6ea7:	50                   	push   %eax
    6ea8:	43                   	inc    %ebx
    6ea9:	4d                   	dec    %ebp
    6eaa:	20 69 6e             	and    %ch,0x6e(%ecx)
    6ead:	66 6f                	outsw  %ds:(%esi),(%dx)
    6eaf:	3a 20                	cmp    (%eax),%ah
    6eb1:	25 73 2e 0a 00       	and    $0xa2e73,%eax
    6eb6:	50                   	push   %eax
    6eb7:	6c                   	insb   (%dx),%es:(%edi)
    6eb8:	61                   	popa   
    6eb9:	79 69                	jns    6f24 <pcm_format_mix+0x114>
    6ebb:	6e                   	outsb  %ds:(%esi),(%dx)
    6ebc:	67 20 6f 6e          	and    %ch,0x6e(%bx)
    6ec0:	20 25 73 2e 0a 00    	and    %ah,0xa2e73
    6ec6:	42                   	inc    %edx
    6ec7:	75 66                	jne    6f2f <pcm_format_mix+0x11f>
    6ec9:	66 65 72 3a          	data16 gs jb 6f07 <pcm_format_mix+0xf7>
    6ecd:	20 25 70 20 25 7a    	and    %ah,0x7a252070
    6ed3:	75 2e                	jne    6f03 <pcm_format_mix+0xf3>
    6ed5:	0a 00                	or     (%eax),%al
    6ed7:	72 62                	jb     6f3b <pcm_format_mix+0x12b>
    6ed9:	00 46 61             	add    %al,0x61(%esi)
    6edc:	69 6c 65 64 20 74 6f 	imul   $0x206f7420,0x64(%ebp,%eiz,2),%ebp
    6ee3:	20 
    6ee4:	6f                   	outsl  %ds:(%esi),(%dx)
    6ee5:	70 65                	jo     6f4c <pcm_format_mix+0x13c>
    6ee7:	6e                   	outsb  %ds:(%esi),(%dx)
    6ee8:	20 66 69             	and    %ah,0x69(%esi)
    6eeb:	6c                   	insb   (%dx),%es:(%edi)
    6eec:	65 3a 20             	cmp    %gs:(%eax),%ah
    6eef:	25 73 2e 0a 00       	and    $0xa2e73,%eax
    6ef4:	64 70 6c             	fs jo  6f63 <pcm_format_mix+0x153>
    6ef7:	61                   	popa   
    6ef8:	79 2e                	jns    6f28 <pcm_format_mix+0x118>
    6efa:	63 00                	arpl   %ax,(%eax)
    6efc:	70 62                	jo     6f60 <pcm_format_mix+0x150>
    6efe:	2d 3e 64 65 76       	sub    $0x7665643e,%eax
    6f03:	69 63 65 00 46 61 69 	imul   $0x69614600,0x65(%ebx),%esp
    6f0a:	6c                   	insb   (%dx),%es:(%edi)
    6f0b:	65 64 20 74 6f 20    	gs and %dh,%fs:0x20(%edi,%ebp,2)
    6f11:	73 74                	jae    6f87 <pcm_format_mix+0x177>
    6f13:	61                   	popa   
    6f14:	72 74                	jb     6f8a <pcm_format_mix+0x17a>
    6f16:	20 70 6c             	and    %dh,0x6c(%eax)
    6f19:	61                   	popa   
    6f1a:	79 62                	jns    6f7e <pcm_format_mix+0x16e>
    6f1c:	61                   	popa   
    6f1d:	63 6b 3a             	arpl   %bp,0x3a(%ebx)
    6f20:	20 25 73 0a 00 52    	and    %ah,0x52000a73
    6f26:	65 67 69 73 74 65 72 	imul   $0x6e697265,%gs:0x74(%bp,%di),%esi
    6f2d:	69 6e 
    6f2f:	67 20 65 76          	and    %ah,0x76(%di)
    6f33:	65 6e                	outsb  %gs:(%esi),(%dx)
    6f35:	74 20                	je     6f57 <pcm_format_mix+0x147>
    6f37:	63 61 6c             	arpl   %sp,0x6c(%ecx)
    6f3a:	6c                   	insb   (%dx),%es:(%edi)
    6f3b:	62 61 63             	bound  %esp,0x63(%ecx)
    6f3e:	6b 0a 00             	imul   $0x0,(%edx),%ecx
    6f41:	38 20                	cmp    %ah,(%eax)
    6f43:	62 69 74             	bound  %ebp,0x74(%ecx)
    6f46:	20 75 6e             	and    %dh,0x6e(%ebp)
    6f49:	73 69                	jae    6fb4 <pcm_format_mix+0x1a4>
    6f4b:	6e                   	outsb  %ds:(%esi),(%dx)
    6f4c:	67 65 64 00 38       	gs add %bh,%fs:(%bx,%si)
    6f51:	20 62 69             	and    %ah,0x69(%edx)
    6f54:	74 20                	je     6f76 <pcm_format_mix+0x166>
    6f56:	73 69                	jae    6fc1 <pcm_format_mix+0x1b1>
    6f58:	6e                   	outsb  %ds:(%esi),(%dx)
    6f59:	67 65 64 00 31       	gs add %dh,%fs:(%bx,%di)
    6f5e:	36 20 62 69          	and    %ah,%ss:0x69(%edx)
    6f62:	74 20                	je     6f84 <pcm_format_mix+0x174>
    6f64:	75 6e                	jne    6fd4 <pcm_format_mix+0x1c4>
    6f66:	73 69                	jae    6fd1 <pcm_format_mix+0x1c1>
    6f68:	67 6e                	outsb  %ds:(%si),(%dx)
    6f6a:	65 64 28 4c 45 29    	gs sub %cl,%fs:0x29(%ebp,%eax,2)
    6f70:	00 31                	add    %dh,(%ecx)
    6f72:	36 20 62 69          	and    %ah,%ss:0x69(%edx)
    6f76:	74 20                	je     6f98 <pcm_format_mix+0x188>
    6f78:	75 6e                	jne    6fe8 <pcm_format_mix+0x1d8>
    6f7a:	73 69                	jae    6fe5 <pcm_format_mix+0x1d5>
    6f7c:	67 6e                	outsb  %ds:(%si),(%dx)
    6f7e:	65 64 28 42 45       	gs sub %al,%fs:0x45(%edx)
    6f83:	29 00                	sub    %eax,(%eax)
    6f85:	31 36                	xor    %esi,(%esi)
    6f87:	20 62 69             	and    %ah,0x69(%edx)
    6f8a:	74 20                	je     6fac <pcm_format_mix+0x19c>
    6f8c:	73 69                	jae    6ff7 <pcm_format_mix+0x1e7>
    6f8e:	6e                   	outsb  %ds:(%esi),(%dx)
    6f8f:	67 65 64 28 4c 45    	gs sub %cl,%fs:0x45(%si)
    6f95:	29 00                	sub    %eax,(%eax)
    6f97:	31 36                	xor    %esi,(%esi)
    6f99:	20 62 69             	and    %ah,0x69(%edx)
    6f9c:	74 20                	je     6fbe <pcm_format_mix+0x1ae>
    6f9e:	73 69                	jae    7009 <pcm_format_mix+0x1f9>
    6fa0:	67 6e                	outsb  %ds:(%si),(%dx)
    6fa2:	65 64 28 42 45       	gs sub %al,%fs:0x45(%edx)
    6fa7:	29 00                	sub    %eax,(%eax)
    6fa9:	32 34 20             	xor    (%eax,%eiz,1),%dh
    6fac:	62 69 74             	bound  %ebp,0x74(%ecx)
    6faf:	20 75 6e             	and    %dh,0x6e(%ebp)
    6fb2:	73 69                	jae    701d <pcm_format_mix+0x20d>
    6fb4:	67 6e                	outsb  %ds:(%si),(%dx)
    6fb6:	65 64 28 4c 45 29    	gs sub %cl,%fs:0x29(%ebp,%eax,2)
    6fbc:	00 32                	add    %dh,(%edx)
    6fbe:	34 20                	xor    $0x20,%al
    6fc0:	62 69 74             	bound  %ebp,0x74(%ecx)
    6fc3:	20 75 6e             	and    %dh,0x6e(%ebp)
    6fc6:	73 69                	jae    7031 <pcm_format_mix+0x221>
    6fc8:	67 6e                	outsb  %ds:(%si),(%dx)
    6fca:	65 64 28 42 45       	gs sub %al,%fs:0x45(%edx)
    6fcf:	29 00                	sub    %eax,(%eax)
    6fd1:	32 34 20             	xor    (%eax,%eiz,1),%dh
    6fd4:	62 69 74             	bound  %ebp,0x74(%ecx)
    6fd7:	20 73 69             	and    %dh,0x69(%ebx)
    6fda:	67 6e                	outsb  %ds:(%si),(%dx)
    6fdc:	65 64 28 4c 45 29    	gs sub %cl,%fs:0x29(%ebp,%eax,2)
    6fe2:	00 32                	add    %dh,(%edx)
    6fe4:	34 20                	xor    $0x20,%al
    6fe6:	62 69 74             	bound  %ebp,0x74(%ecx)
    6fe9:	20 73 69             	and    %dh,0x69(%ebx)
    6fec:	67 6e                	outsb  %ds:(%si),(%dx)
    6fee:	65 64 28 42 45       	gs sub %al,%fs:0x45(%edx)
    6ff3:	29 00                	sub    %eax,(%eax)
    6ff5:	33 32                	xor    (%edx),%esi
    6ff7:	20 62 69             	and    %ah,0x69(%edx)
    6ffa:	74 20                	je     701c <pcm_format_mix+0x20c>
    6ffc:	75 6e                	jne    706c <pcm_format_mix+0x25c>
    6ffe:	73 69                	jae    7069 <pcm_format_mix+0x259>
    7000:	67 6e                	outsb  %ds:(%si),(%dx)
    7002:	65 64 28 4c 45 29    	gs sub %cl,%fs:0x29(%ebp,%eax,2)
    7008:	00 33                	add    %dh,(%ebx)
    700a:	32 20                	xor    (%eax),%ah
    700c:	62 69 74             	bound  %ebp,0x74(%ecx)
    700f:	20 75 6e             	and    %dh,0x6e(%ebp)
    7012:	73 69                	jae    707d <pcm_format_mix+0x26d>
    7014:	67 6e                	outsb  %ds:(%si),(%dx)
    7016:	65 64 28 42 45       	gs sub %al,%fs:0x45(%edx)
    701b:	29 00                	sub    %eax,(%eax)
    701d:	33 32                	xor    (%edx),%esi
    701f:	20 62 69             	and    %ah,0x69(%edx)
    7022:	74 20                	je     7044 <pcm_format_mix+0x234>
    7024:	73 69                	jae    708f <pcm_format_mix+0x27f>
    7026:	67 6e                	outsb  %ds:(%si),(%dx)
    7028:	65 64 28 4c 45 29    	gs sub %cl,%fs:0x29(%ebp,%eax,2)
    702e:	00 33                	add    %dh,(%ebx)
    7030:	32 20                	xor    (%eax),%ah
    7032:	62 69 74             	bound  %ebp,0x74(%ecx)
    7035:	20 73 69             	and    %dh,0x69(%ebx)
    7038:	67 6e                	outsb  %ds:(%si),(%dx)
    703a:	65 64 28 42 45       	gs sub %al,%fs:0x45(%edx)
    703f:	29 00                	sub    %eax,(%eax)
    7041:	33 32                	xor    (%edx),%esi
    7043:	20 62 69             	and    %ah,0x69(%edx)
    7046:	74 20                	je     7068 <pcm_format_mix+0x258>
    7048:	66 6c                	data16 insb (%dx),%es:(%edi)
    704a:	6f                   	outsl  %ds:(%esi),(%dx)
    704b:	61                   	popa   
    704c:	74 00                	je     704e <pcm_format_mix+0x23e>
    704e:	66 90                	xchg   %ax,%ax
    7050:	43                   	inc    %ebx
    7051:	6f                   	outsl  %ds:(%esi),(%dx)
    7052:	70 69                	jo     70bd <pcm_format_mix+0x2ad>
    7054:	65 64 20 66 72       	gs and %ah,%fs:0x72(%esi)
    7059:	6f                   	outsl  %ds:(%esi),(%dx)
    705a:	6d                   	insl   (%dx),%es:(%edi)
    705b:	20 70 6f             	and    %dh,0x6f(%eax)
    705e:	73 69                	jae    70c9 <pcm_format_mix+0x2b9>
    7060:	74 69                	je     70cb <pcm_format_mix+0x2bb>
    7062:	6f                   	outsl  %ds:(%esi),(%dx)
    7063:	6e                   	outsb  %ds:(%esi),(%dx)
    7064:	20 25 70 20 73 69    	and    %ah,0x69732070
    706a:	7a 65                	jp     70d1 <pcm_format_mix+0x2c1>
    706c:	20 25 7a 75 2f 25    	and    %ah,0x252f757a
    7072:	7a 75                	jp     70e9 <pcm_format_mix+0x2d9>
    7074:	0a 00                	or     (%eax),%al
    7076:	00 00                	add    %al,(%eax)
    7078:	46                   	inc    %esi
    7079:	61                   	popa   
    707a:	69 6c 65 64 20 74 6f 	imul   $0x206f7420,0x64(%ebp,%eiz,2),%ebp
    7081:	20 
    7082:	63 6f 6e             	arpl   %bp,0x6e(%edi)
    7085:	6e                   	outsb  %ds:(%esi),(%dx)
    7086:	65 63 74 20 74       	arpl   %si,%gs:0x74(%eax,%eiz,1)
    708b:	6f                   	outsl  %ds:(%esi),(%dx)
    708c:	20 64 65 76          	and    %ah,0x76(%ebp,%eiz,2)
    7090:	69 63 65 20 25 73 2e 	imul   $0x2e732520,0x65(%ebx),%esp
    7097:	0a 00                	or     (%eax),%al
    7099:	00 00                	add    %al,(%eax)
    709b:	00 44 65 76          	add    %al,0x76(%ebp,%eiz,2)
    709f:	69 63 65 20 25 73 20 	imul   $0x20732520,0x65(%ebx),%esp
    70a6:	64 6f                	outsl  %fs:(%esi),(%dx)
    70a8:	65 73 20             	gs jae 70cb <pcm_format_mix+0x2bb>
    70ab:	6e                   	outsb  %ds:(%esi),(%dx)
    70ac:	6f                   	outsl  %ds:(%esi),(%dx)
    70ad:	74 20                	je     70cf <pcm_format_mix+0x2bf>
    70af:	73 75                	jae    7126 <pcm_format_mix+0x316>
    70b1:	70 70                	jo     7123 <pcm_format_mix+0x313>
    70b3:	6f                   	outsl  %ds:(%esi),(%dx)
    70b4:	72 74                	jb     712a <pcm_format_mix+0x31a>
    70b6:	20 70 6c             	and    %dh,0x6c(%eax)
    70b9:	61                   	popa   
    70ba:	79 62                	jns    711e <pcm_format_mix+0x30e>
    70bc:	61                   	popa   
    70bd:	63 6b 0a             	arpl   %bp,0xa(%ebx)
    70c0:	00 00                	add    %al,(%eax)
    70c2:	00 00                	add    %al,(%eax)
    70c4:	46                   	inc    %esi
    70c5:	61                   	popa   
    70c6:	69 6c 65 64 20 74 6f 	imul   $0x206f7420,0x64(%ebp,%eiz,2),%ebp
    70cd:	20 
    70ce:	67 65 74 20          	addr16 gs je 70f2 <pcm_format_mix+0x2e2>
    70d2:	50                   	push   %eax
    70d3:	43                   	inc    %ebx
    70d4:	4d                   	dec    %ebp
    70d5:	20 62 75             	and    %ah,0x75(%edx)
    70d8:	66 66 65 72 3a       	data16 data16 gs jb 7117 <pcm_format_mix+0x307>
    70dd:	20 25 73 2e 0a 00    	and    %ah,0xa2e73
    70e3:	00 45 72             	add    %al,0x72(%ebp)
    70e6:	72 6f                	jb     7157 <pcm_format_mix+0x347>
    70e8:	72 20                	jb     710a <pcm_format_mix+0x2fa>
    70ea:	70 61                	jo     714d <pcm_format_mix+0x33d>
    70ec:	72 73                	jb     7161 <pcm_format_mix+0x351>
    70ee:	69 6e 67 20 77 61 76 	imul   $0x76617720,0x67(%esi),%ebp
    70f5:	20 68 65             	and    %ch,0x65(%eax)
    70f8:	61                   	popa   
    70f9:	64 65 72 3a          	fs gs jb 7137 <pcm_format_mix+0x327>
    70fd:	20 25 73 2e 0a 00    	and    %ah,0xa2e73
    7103:	00 50 6c             	add    %dl,0x6c(%eax)
    7106:	61                   	popa   
    7107:	79 69                	jns    7172 <pcm_format_mix+0x362>
    7109:	6e                   	outsb  %ds:(%esi),(%dx)
    710a:	67 3a 20             	cmp    (%bx,%si),%ah
    710d:	25 64 48 7a 2c       	and    $0x2c7a4864,%eax
    7112:	20 25 73 2c 20 25    	and    %ah,0x25202c73
    7118:	64 20 63 68          	and    %ah,%fs:0x68(%ebx)
    711c:	61                   	popa   
    711d:	6e                   	outsb  %ds:(%esi),(%dx)
    711e:	6e                   	outsb  %ds:(%esi),(%dx)
    711f:	65 6c                	gs insb (%dx),%es:(%edi)
    7121:	28 73 29             	sub    %dh,0x29(%ebx)
    7124:	2e 0a 00             	or     %cs:(%eax),%al
    7127:	00 25 2e 32 6c 75    	add    %ah,0x756c322e
    712d:	3a 25 2e 36 6c 75    	cmp    0x756c362e,%ah
    7133:	20 20                	and    %ah,(%eax)
    7135:	20 50 4f             	and    %dl,0x4f(%eax)
    7138:	53                   	push   %ebx
    7139:	20 25 7a 75 3a 20    	and    %ah,0x203a757a
    713f:	25 7a 75 20 62       	and    $0x6220757a,%eax
    7144:	79 74                	jns    71ba <pcm_format_mix+0x3aa>
    7146:	65 73 20             	gs jae 7169 <pcm_format_mix+0x359>
    7149:	66 72 65             	data16 jb 71b1 <pcm_format_mix+0x3a1>
    714c:	65 20 69 6e          	and    %ch,%gs:0x6e(%ecx)
    7150:	20 62 75             	and    %ah,0x75(%edx)
    7153:	66 66 65 72 2c       	data16 data16 gs jb 7184 <pcm_format_mix+0x374>
    7158:	20 72 65             	and    %dh,0x65(%edx)
    715b:	61                   	popa   
    715c:	64 20 25 7a 75 2c 20 	and    %ah,%fs:0x202c757a
    7163:	77 70                	ja     71d5 <pcm_format_mix+0x3c5>
    7165:	20 25 7a 75 0a 00    	and    %ah,0xa757a
    716b:	00 25 2e 32 6c 75    	add    %ah,0x756c322e
    7171:	3a 25 2e 36 6c 75    	cmp    0x756c362e,%ah
    7177:	20 20                	and    %ah,(%eax)
    7179:	20 50 4f             	and    %dl,0x4f(%eax)
    717c:	53                   	push   %ebx
    717d:	20 25 7a 75 3a 20    	and    %ah,0x203a757a
    7183:	25 7a 75 20 62       	and    $0x6220757a,%eax
    7188:	79 74                	jns    71fe <pcm_format_mix+0x3ee>
    718a:	65 73 20             	gs jae 71ad <pcm_format_mix+0x39d>
    718d:	73 74                	jae    7203 <pcm_format_mix+0x3f3>
    718f:	69 6c 6c 20 66 72 65 	imul   $0x65657266,0x20(%esp,%ebp,2),%ebp
    7196:	65 
    7197:	20 69 6e             	and    %ch,0x6e(%ecx)
    719a:	20 62 75             	and    %ah,0x75(%edx)
    719d:	66 66 65 72 2c       	data16 data16 gs jb 71ce <pcm_format_mix+0x3be>
    71a2:	20 72 65             	and    %dh,0x65(%edx)
    71a5:	61                   	popa   
    71a6:	64 20 25 7a 75 2c 20 	and    %ah,%fs:0x202c757a
    71ad:	77 70                	ja     721f <pcm_format_mix+0x40f>
    71af:	20 25 7a 75 0a 00    	and    %ah,0xa757a
    71b5:	00 00                	add    %al,(%eax)
    71b7:	00 46 61             	add    %al,0x61(%esi)
    71ba:	69 6c 65 64 20 74 6f 	imul   $0x206f7420,0x64(%ebp,%eiz,2),%ebp
    71c1:	20 
    71c2:	75 70                	jne    7234 <pcm_format_mix+0x424>
    71c4:	64 61                	fs popa 
    71c6:	74 65                	je     722d <pcm_format_mix+0x41d>
    71c8:	20 70 6f             	and    %dh,0x6f(%eax)
    71cb:	73 69                	jae    7236 <pcm_format_mix+0x426>
    71cd:	74 69                	je     7238 <pcm_format_mix+0x428>
    71cf:	6f                   	outsl  %ds:(%esi),(%dx)
    71d0:	6e                   	outsb  %ds:(%esi),(%dx)
    71d1:	20 69 6e             	and    %ch,0x6e(%ecx)
    71d4:	64 69 63 61 74 6f 72 	imul   $0x20726f74,%fs:0x61(%ebx),%esp
    71db:	20 
    71dc:	25 73 0a 00 25       	and    $0x25000a73,%eax
    71e1:	2e 32 6c 75 3a       	xor    %cs:0x3a(%ebp,%esi,2),%ch
    71e6:	25 2e 36 6c 75       	and    $0x756c362e,%eax
    71eb:	20 20                	and    %ah,(%eax)
    71ed:	20 50 4f             	and    %dl,0x4f(%eax)
    71f0:	53                   	push   %ebx
    71f1:	20 25 7a 75 3a 20    	and    %ah,0x203a757a
    71f7:	25 75 20 75 73       	and    $0x73752075,%eax
    71fc:	65 63 73 20          	arpl   %si,%gs:0x20(%ebx)
    7200:	28 25 75 29 20 74    	sub    %ah,0x74202975
    7206:	6f                   	outsl  %ds:(%esi),(%dx)
    7207:	20 70 6c             	and    %dh,0x6c(%eax)
    720a:	61                   	popa   
    720b:	79 20                	jns    722d <pcm_format_mix+0x41d>
    720d:	25 7a 75 20 62       	and    $0x6220757a,%eax
    7212:	79 74                	jns    7288 <pcm_format_mix+0x478>
    7214:	65 73 2e             	gs jae 7245 <pcm_format_mix+0x435>
    7217:	0a 00                	or     (%eax),%al
    7219:	00 00                	add    %al,(%eax)
    721b:	00 46 61             	add    %al,0x61(%esi)
    721e:	69 6c 65 64 20 74 6f 	imul   $0x206f7420,0x64(%ebp,%eiz,2),%ebp
    7225:	20 
    7226:	72 65                	jb     728d <pcm_format_mix+0x47d>
    7228:	67 69 73 74 65 72 20 	imul   $0x65207265,0x74(%bp,%di),%esi
    722f:	65 
    7230:	76 65                	jbe    7297 <pcm_format_mix+0x487>
    7232:	6e                   	outsb  %ds:(%esi),(%dx)
    7233:	74 20                	je     7255 <pcm_format_mix+0x445>
    7235:	63 61 6c             	arpl   %sp,0x6c(%ecx)
    7238:	6c                   	insb   (%dx),%es:(%edi)
    7239:	62 61 63             	bound  %esp,0x63(%ecx)
    723c:	6b 3a 20             	imul   $0x20,(%edx),%edi
    723f:	25 73 2e 0a 00       	and    $0xa2e73,%eax
    7244:	49                   	dec    %ecx
    7245:	6e                   	outsb  %ds:(%esi),(%dx)
    7246:	69 74 69 61 6c 3a 20 	imul   $0x43203a6c,0x61(%ecx,%ebp,2),%esi
    724d:	43 
    724e:	6f                   	outsl  %ds:(%esi),(%dx)
    724f:	70 69                	jo     72ba <pcm_format_mix+0x4aa>
    7251:	65 64 20 66 72       	gs and %ah,%fs:0x72(%esi)
    7256:	6f                   	outsl  %ds:(%esi),(%dx)
    7257:	6d                   	insl   (%dx),%es:(%edi)
    7258:	20 70 6f             	and    %dh,0x6f(%eax)
    725b:	73 69                	jae    72c6 <pcm_format_mix+0x4b6>
    725d:	74 69                	je     72c8 <pcm_format_mix+0x4b8>
    725f:	6f                   	outsl  %ds:(%esi),(%dx)
    7260:	6e                   	outsb  %ds:(%esi),(%dx)
    7261:	20 25 70 20 73 69    	and    %ah,0x69732070
    7267:	7a 65                	jp     72ce <pcm_format_mix+0x4be>
    7269:	20 25 7a 75 2f 25    	and    %ah,0x252f757a
    726f:	7a 75                	jp     72e6 <pcm_format_mix+0x4d6>
    7271:	0a 00                	or     (%eax),%al
    7273:	00 46 61             	add    %al,0x61(%esi)
    7276:	69 6c 65 64 20 74 6f 	imul   $0x206f7420,0x64(%ebp,%eiz,2),%ebp
    727d:	20 
    727e:	73 74                	jae    72f4 <pcm_format_mix+0x4e4>
    7280:	61                   	popa   
    7281:	72 74                	jb     72f7 <pcm_format_mix+0x4e7>
    7283:	20 70 6c             	and    %dh,0x6c(%eax)
    7286:	61                   	popa   
    7287:	79 62                	jns    72eb <pcm_format_mix+0x4db>
    7289:	61                   	popa   
    728a:	63 6b 3a             	arpl   %bp,0x3a(%ebx)
    728d:	20 25 73 2e 0a 00    	and    %ah,0xa2e73
    7293:	00 4e 65             	add    %cl,0x65(%esi)
    7296:	69 74 68 65 72 20 70 	imul   $0x6c702072,0x65(%eax,%ebp,2),%esi
    729d:	6c 
    729e:	61                   	popa   
    729f:	79 69                	jns    730a <pcm_format_mix+0x4fa>
    72a1:	6e                   	outsb  %ds:(%esi),(%dx)
    72a2:	67 20 6d 65          	and    %ch,0x65(%di)
    72a6:	74 68                	je     7310 <pcm_format_mix+0x500>
    72a8:	6f                   	outsl  %ds:(%esi),(%dx)
    72a9:	64 20 69 73          	and    %ch,%fs:0x73(%ecx)
    72ad:	20 73 75             	and    %dh,0x75(%ebx)
    72b0:	70 70                	jo     7322 <pcm_format_mix+0x512>
    72b2:	6f                   	outsl  %ds:(%esi),(%dx)
    72b3:	72 74                	jb     7329 <pcm_format_mix+0x519>
    72b5:	65 64 00 32          	gs add %dh,%fs:(%edx)
    72b9:	34 20                	xor    $0x20,%al
    72bb:	62 69 74             	bound  %ebp,0x74(%ecx)
    72be:	28 34 62             	sub    %dh,(%edx,%eiz,2)
    72c1:	79 74                	jns    7337 <pcm_format_mix+0x527>
    72c3:	65 20 61 6c          	and    %ah,%gs:0x6c(%ecx)
    72c7:	69 67 6e 65 64 29 20 	imul   $0x20296465,0x6e(%edi),%esp
    72ce:	75 6e                	jne    733e <pcm_format_mix+0x52e>
    72d0:	73 69                	jae    733b <pcm_format_mix+0x52b>
    72d2:	67 6e                	outsb  %ds:(%si),(%dx)
    72d4:	65 64 28 4c 45 29    	gs sub %cl,%fs:0x29(%ebp,%eax,2)
    72da:	00 00                	add    %al,(%eax)
    72dc:	32 34 20             	xor    (%eax,%eiz,1),%dh
    72df:	62 69 74             	bound  %ebp,0x74(%ecx)
    72e2:	28 34 62             	sub    %dh,(%edx,%eiz,2)
    72e5:	79 74                	jns    735b <pcm_format_mix+0x54b>
    72e7:	65 20 61 6c          	and    %ah,%gs:0x6c(%ecx)
    72eb:	69 67 6e 65 64 29 20 	imul   $0x20296465,0x6e(%edi),%esp
    72f2:	75 6e                	jne    7362 <CSWTCH.15+0x2>
    72f4:	73 69                	jae    735f <pcm_format_mix+0x54f>
    72f6:	67 6e                	outsb  %ds:(%si),(%dx)
    72f8:	65 64 28 42 45       	gs sub %al,%fs:0x45(%edx)
    72fd:	29 00                	sub    %eax,(%eax)
    72ff:	00 32                	add    %dh,(%edx)
    7301:	34 20                	xor    $0x20,%al
    7303:	62 69 74             	bound  %ebp,0x74(%ecx)
    7306:	28 34 62             	sub    %dh,(%edx,%eiz,2)
    7309:	79 74                	jns    737f <CSWTCH.15+0x1f>
    730b:	65 20 61 6c          	and    %ah,%gs:0x6c(%ecx)
    730f:	69 67 6e 65 64 29 20 	imul   $0x20296465,0x6e(%edi),%esp
    7316:	73 69                	jae    7381 <CSWTCH.15+0x21>
    7318:	67 6e                	outsb  %ds:(%si),(%dx)
    731a:	65 64 28 4c 45 29    	gs sub %cl,%fs:0x29(%ebp,%eax,2)
    7320:	00 00                	add    %al,(%eax)
    7322:	00 00                	add    %al,(%eax)
    7324:	32 34 20             	xor    (%eax,%eiz,1),%dh
    7327:	62 69 74             	bound  %ebp,0x74(%ecx)
    732a:	28 34 62             	sub    %dh,(%edx,%eiz,2)
    732d:	79 74                	jns    73a3 <CSWTCH.15+0x43>
    732f:	65 20 61 6c          	and    %ah,%gs:0x6c(%ecx)
    7333:	69 67 6e 65 64 29 20 	imul   $0x20296465,0x6e(%edi),%esp
    733a:	73 69                	jae    73a5 <CSWTCH.15+0x45>
    733c:	67 6e                	outsb  %ds:(%si),(%dx)
    733e:	65 64 28 42 45       	gs sub %al,%fs:0x45(%edx)
    7343:	29 00                	sub    %eax,(%eax)
    7345:	66 90                	xchg   %ax,%ax
    7347:	66 90                	xchg   %ax,%ax
    7349:	66 90                	xchg   %ax,%ax
    734b:	66 90                	xchg   %ax,%ax
    734d:	66 90                	xchg   %ax,%ax
    734f:	66 90                	xchg   %ax,%ax
    7351:	66 90                	xchg   %ax,%ax
    7353:	66 90                	xchg   %ax,%ax
    7355:	66 90                	xchg   %ax,%ax
    7357:	66 90                	xchg   %ax,%ax
    7359:	66 90                	xchg   %ax,%ax
    735b:	66 90                	xchg   %ax,%ax
    735d:	66 90                	xchg   %ax,%ax
    735f:	90                   	nop

00007360 <CSWTCH.15>:
    7360:	41 6f 00 00 50 6f 00 00 5d 6f 00 00 71 6f 00 00     Ao..Po..]o..qo..
    7370:	85 6f 00 00 97 6f 00 00 a9 6f 00 00 bd 6f 00 00     .o...o...o...o..
    7380:	d1 6f 00 00 e3 6f 00 00 b8 72 00 00 dc 72 00 00     .o...o...r...r..
    7390:	00 73 00 00 24 73 00 00 f5 6f 00 00 09 70 00 00     .s..$s...o...p..
    73a0:	1d 70 00 00 2f 70 00 00 41 70 00 00 00 00 00 00     .p../p..Ap......
	...

000073c0 <CSWTCH.10>:
    73c0:	01 00 00 00 01 00 00 00 02 00 00 00 02 00 00 00     ................
    73d0:	02 00 00 00 02 00 00 00 03 00 00 00 03 00 00 00     ................
    73e0:	03 00 00 00 03 00 00 00 04 00 00 00 04 00 00 00     ................
    73f0:	04 00 00 00 04 00 00 00 04 00 00 00 04 00 00 00     ................
    7400:	04 00 00 00 04 00 00 00 04 00 00 00 52 65 63 6f     ............Reco
    7410:	72 64 69 6e 67 20 74 65 72 6d 69 6e 61 74 65 64     rding terminated
    7420:	0a 00 25 75 20 66 72 61 6d 65 73 0a 00 25 7a 75     ..%u frames..%zu
    7430:	20 00 52 65 63 6f 72 64 69 6e 67 20 6f 6e 20 64      .Recording on d
    7440:	65 76 69 63 65 3a 20 25 73 2e 0a 00 46 61 69 6c     evice: %s...Fail
    7450:	65 64 20 74 6f 20 67 65 74 20 50 43 4d 20 69 6e     ed to get PCM in
    7460:	66 6f 2e 0a 00 43 61 70 74 75 72 69 6e 67 20 6f     fo...Capturing o
    7470:	6e 20 25 73 2e 0a 00 77 00 64 72 65 63 2e 63 00     n %s...w.drec.c.
    7480:	72 65 63 2d 3e 64 65 76 69 63 65 00 54 65 72 6d     rec->device.Term
    7490:	69 6e 61 74 65 20 70 6c 61 79 62 61 63 6b 0a 00     inate playback..
    74a0:	44 65 76 69 63 65 20 25 73 20 64 6f 65 73 20 6e     Device %s does n
    74b0:	6f 74 20 73 75 70 70 6f 72 74 20 72 65 63 6f 72     ot support recor
    74c0:	64 69 6e 67 0a 00 00 00 46 61 69 6c 65 64 20 74     ding....Failed t
    74d0:	6f 20 72 65 67 69 73 74 65 72 20 66 6f 72 20 65     o register for e
    74e0:	76 65 6e 74 73 3a 20 25 73 2e 0a 00 52 65 63 6f     vents: %s...Reco
    74f0:	72 64 69 6e 67 3a 20 25 64 48 7a 2c 20 25 73 2c     rding: %dHz, %s,
    7500:	20 25 64 20 63 68 61 6e 6e 65 6c 28 73 29 2e 0a      %d channel(s)..
    7510:	00 00 00 00 46 61 69 6c 65 64 20 74 6f 20 73 74     ....Failed to st
    7520:	61 72 74 20 72 65 63 6f 72 64 69 6e 67 3a 20 25     art recording: %
    7530:	73 2e 0a 00 44 65 6c 61 79 20 62 65 66 6f 72 65     s...Delay before
    7540:	20 70 6c 61 79 62 61 63 6b 20 74 65 72 6d 69 6e      playback termin
    7550:	61 74 69 6f 6e 0a 00 00 52 65 63 6f 72 64 69 6e     ation...Recordin
    7560:	67 20 6d 65 74 68 6f 64 20 69 73 20 6e 6f 74 20     g method is not 
    7570:	73 75 70 70 6f 72 74 65 64 00 66 90                 supported.f.

0000757c <format>:
    757c:	02 00 00 00 44 ac 00 00 04 00 00 00 55 73 61 67     ....D.......Usag
    758c:	65 3a 20 25 73 20 5b 6f 70 74 69 6f 6e 73 5d 20     e: %s [options] 
    759c:	66 69 6c 65 20 5b 66 69 6c 65 73 2e 2e 2e 5d 0a     file [files...].
    75ac:	00 00 00 00 09 20 2d 68 2c 20 2d 2d 68 65 6c 70     ..... -h, --help
    75bc:	09 20 50 72 69 6e 74 20 74 68 69 73 20 68 65 6c     . Print this hel
    75cc:	70 2e 0a 00 09 20 2d 72 2c 20 2d 2d 72 65 63 6f     p.... -r, --reco
    75dc:	72 64 09 20 53 74 61 72 74 20 72 65 63 6f 72 64     rd. Start record
    75ec:	69 6e 67 20 69 6e 73 74 65 61 64 20 6f 66 20 70     ing instead of p
    75fc:	6c 61 79 62 61 63 6b 2e 20 28 4e 6f 74 20 69 6d     layback. (Not im
    760c:	70 6c 65 6d 65 6e 74 65 64 29 0a 00 09 20 2d 64     plemented)... -d
    761c:	2c 20 2d 2d 64 65 76 69 63 65 09 20 55 73 65 20     , --device. Use 
    762c:	73 70 65 63 69 66 69 65 64 20 64 65 76 69 63 65     specified device
    763c:	20 69 6e 73 74 65 61 64 20 6f 66 20 74 68 65 20      instead of the 
    764c:	73 6f 75 6e 64 20 73 65 72 76 69 63 65 2e 20 55     sound service. U
    765c:	73 65 20 6c 6f 63 61 74 69 6f 6e 20 70 61 74 68     se location path
    766c:	20 6f 72 20 61 20 73 70 65 63 69 61 6c 20 64 65      or a special de
    767c:	76 69 63 65 20 60 64 65 66 61 75 6c 74 27 0a 00     vice `default'..
    768c:	09 20 2d 70 2c 20 2d 2d 70 61 72 61 6c 6c 65 6c     . -p, --parallel
    769c:	09 20 50 6c 61 79 20 67 69 76 65 6e 20 66 69 6c     . Play given fil
    76ac:	65 73 20 69 6e 20 70 61 72 61 6c 6c 65 6c 20 69     es in parallel i
    76bc:	6e 73 74 65 61 64 20 6f 66 20 73 65 71 75 65 6e     nstead of sequen
    76cc:	74 69 61 6c 6c 79 20 28 64 6f 65 73 20 6e 6f 74     tially (does not
    76dc:	20 77 6f 72 6b 20 77 69 74 68 20 2d 64 29 2e 0a      work with -d)..
    76ec:	00 00 00 00 46 61 69 6c 65 64 20 74 6f 20 72 65     ....Failed to re
    76fc:	61 64 20 57 41 56 20 68 65 61 64 65 72 3a 20 25     ad WAV header: %
    770c:	7a 75 0a 00 45 72 72 6f 72 20 70 61 72 73 69 6e     zu..Error parsin
    771c:	67 20 60 25 73 27 20 77 61 76 20 68 65 61 64 65     g `%s' wav heade
    772c:	72 3a 20 25 73 2e 0a 00 46 69 6c 65 20 60 25 73     r: %s...File `%s
    773c:	27 20 66 6f 72 6d 61 74 3a 20 25 75 20 63 68 61     ' format: %u cha
    774c:	6e 6e 65 6c 28 73 29 2c 20 25 75 48 7a 2c 20 25     nnel(s), %uHz, %
    775c:	73 2e 0a 00 46 61 69 6c 65 64 20 74 6f 20 77 72     s...Failed to wr
    776c:	69 74 65 20 74 6f 20 68 6f 75 6e 64 20 73 74 72     ite to hound str
    777c:	65 61 6d 3a 20 25 73 0a 00 00 00 00 50 61 72 61     eam: %s.....Para
    778c:	6c 6c 65 6c 20 70 6c 61 79 62 61 63 6b 20 69 73     llel playback is
    779c:	20 61 76 61 69 6c 61 62 6c 65 20 6f 6e 6c 79 20      available only 
    77ac:	69 66 20 75 73 69 6e 67 20 73 6f 75 6e 64 20 73     if using sound s
    77bc:	65 72 76 65 72 20 28 6e 6f 20 2d 64 29 0a 00 00     erver (no -d)...
    77cc:	46 61 69 6c 65 64 20 74 6f 20 63 72 65 61 74 65     Failed to create
    77dc:	20 67 6c 6f 62 61 6c 20 68 6f 75 6e 64 20 63 6f      global hound co
    77ec:	6e 74 65 78 74 0a 00 00 46 61 69 6c 65 64 20 74     ntext...Failed t
    77fc:	6f 20 63 6f 6e 6e 65 63 74 20 68 6f 75 6e 64 20     o connect hound 
    780c:	63 6f 6e 74 65 78 74 20 74 6f 20 64 65 66 61 75     context to defau
    781c:	6c 74 20 74 61 72 67 65 74 2e 0a 00 49 6e 64 69     lt target...Indi
    782c:	72 65 63 74 20 72 65 63 6f 72 64 69 6e 67 20 69     rect recording i
    783c:	73 20 6e 6f 74 20 73 75 70 70 6f 72 74 65 64 20     s not supported 
    784c:	79 65 74 2e 0a 00 00 00 46 61 69 6c 65 64 20 74     yet.....Failed t
    785c:	6f 20 63 72 65 61 74 65 20 48 4f 55 4e 44 20 63     o create HOUND c
    786c:	6f 6e 74 65 78 74 0a 00 46 61 69 6c 65 64 20 74     ontext..Failed t
    787c:	6f 20 63 6f 6e 6e 65 63 74 20 74 6f 20 64 65 66     o connect to def
    788c:	61 75 6c 74 20 74 61 72 67 65 74 3a 20 25 73 0a     ault target: %s.
    789c:	00 00 00 00 46 61 69 6c 65 64 20 74 6f 20 77 72     ....Failed to wr
    78ac:	69 74 65 20 74 6f 20 6d 61 69 6e 20 63 6f 6e 74     ite to main cont
    78bc:	65 78 74 20 73 74 72 65 61 6d 3a 20 25 73 0a 00     ext stream: %s..
    78cc:	73 75 70 70 6f 72 74 65 64 20 6f 70 74 69 6f 6e     supported option
    78dc:	73 3a 0a 00 6d 61 69 6e 2e 63 00 61 72 67 00 48     s:..main.c.arg.H
    78ec:	6f 75 6e 64 20 63 6f 6e 74 65 78 74 20 70 6c 61     ound context pla
    78fc:	79 62 61 63 6b 3a 20 25 73 0a 00 46 61 69 6c 65     yback: %s..Faile
    790c:	64 20 74 6f 20 6f 70 65 6e 20 66 69 6c 65 20 25     d to open file %
    791c:	73 0a 00 64 3a 70 72 68 00 4e 6f 74 20 65 6e 6f     s..d:prh.Not eno
    792c:	75 67 68 20 61 72 67 75 6d 65 6e 74 73 2e 0a 00     ugh arguments...
    793c:	77 61 76 70 6c 61 79 00 50 6c 61 79 62 61 63 6b     wavplay.Playback
    794c:	20 6f 66 20 25 73 20 66 61 69 6c 65 64 2e 0a 00      of %s failed...
    795c:	48 6f 75 6e 64 20 70 6c 61 79 62 61 63 6b 3a 20     Hound playback: 
    796c:	25 73 0a 00 52 65 63 6f 72 64 69 6e 67 00 25 73     %s..Recording.%s
    797c:	20 28 25 64 2f 25 64 29 20 25 73 0a 00 50 6c 61      (%d/%d) %s..Pla
    798c:	79 69 6e 67 00 70 61 72 61 6c 6c 65 6c 00 72 65     ying.parallel.re
    799c:	63 6f 72 64 00 68 65 6c 70 00 66 90 66 90 66 90     cord.help.f.f.f.
    79ac:	66 90 66 90 66 90 66 90 66 90 66 90 66 90 66 90     f.f.f.f.f.f.f.f.
    79bc:	66 90 66 90                                         f.f.

000079c0 <CSWTCH.10>:
    79c0:	41 6f 00 00 50 6f 00 00 5d 6f 00 00 71 6f 00 00     Ao..Po..]o..qo..
    79d0:	85 6f 00 00 97 6f 00 00 a9 6f 00 00 bd 6f 00 00     .o...o...o...o..
    79e0:	d1 6f 00 00 e3 6f 00 00 b8 72 00 00 dc 72 00 00     .o...o...r...r..
    79f0:	00 73 00 00 24 73 00 00 f5 6f 00 00 09 70 00 00     .s..$s...o...p..
    7a00:	1d 70 00 00 2f 70 00 00 41 70 00 00 00 00 00 00     .p../p..Ap......
	...

00007a20 <opts>:
    7a20:	00 6f 00 00 01 00 00 00 00 00 00 00 64 00 00 00     .o..........d...
    7a30:	91 79 00 00 00 00 00 00 00 00 00 00 70 00 00 00     .y..........p...
    7a40:	9a 79 00 00 00 00 00 00 00 00 00 00 72 00 00 00     .y..........r...
    7a50:	a1 79 00 00 00 00 00 00 00 00 00 00 68 00 00 00     .y..........h...
	...
    7a70:	6e 6f 20 68 65 61 64 65 72 00 52 49 46 46 00 69     no header.RIFF.i
    7a80:	6e 76 61 6c 69 64 20 63 68 75 6e 6b 20 69 64 00     nvalid chunk id.
    7a90:	57 41 56 45 00 69 6e 76 61 6c 69 64 20 66 6f 72     WAVE.invalid for
    7aa0:	6d 61 74 20 73 74 72 69 6e 67 00 66 6d 74 20 00     mat string.fmt .
    7ab0:	69 6e 76 61 6c 69 64 20 73 75 62 63 68 75 6e 6b     invalid subchunk
    7ac0:	31 20 69 64 00 69 6e 76 61 6c 69 64 20 73 75 62     1 id.invalid sub
    7ad0:	63 68 75 6e 6b 31 20 73 69 7a 65 00 75 6e 6b 6e     chunk1 size.unkn
    7ae0:	6f 77 6e 20 66 6f 72 6d 61 74 00 64 61 74 61 00     own format.data.
    7af0:	69 6e 76 61 6c 69 64 20 73 75 62 63 68 75 6e 6b     invalid subchunk
    7b00:	32 20 69 64 00 55 6e 6b 6e 6f 77 6e 20 66 6f 72     2 id.Unknown for
    7b10:	6d 61 74 00 6e 6f 20 65 72 72 6f 72 00 77 61 76     mat.no error.wav
    7b20:	65 2e 63 00 66 90 66 90 66 90 66 90 66 90 66 90     e.c.f.f.f.f.f.f.
    7b30:	66 90 66 90 66 90 66 90 66 90 66 90 66 90 66 90     f.f.f.f.f.f.f.f.

00007b40 <CSWTCH.1>:
    7b40:	01 00 00 00 01 00 00 00 02 00 00 00 02 00 00 00     ................
    7b50:	02 00 00 00 02 00 00 00 03 00 00 00 03 00 00 00     ................
    7b60:	03 00 00 00 03 00 00 00 04 00 00 00 04 00 00 00     ................
    7b70:	04 00 00 00 04 00 00 00 04 00 00 00 04 00 00 00     ................
    7b80:	04 00 00 00 04 00 00 00 04 00 00 00 25 6c 6c 75     ............%llu
    7b90:	3a 25 73 00 73 72 63 2f 63 6c 69 65 6e 74 2e 63     :%s.src/client.c
    7ba0:	00 6e 61 6d 65 73 00 63 6f 75 6e 74 00 74 61 72     .names.count.tar
    7bb0:	67 65 74 00 73 74 72 65 61 6d 00 73 72 63 2f 70     get.stream.src/p
    7bc0:	72 6f 74 6f 63 6f 6c 2e 63 00 73 65 73 73 00 6e     rotocol.c.sess.n
    7bd0:	61 6d 65 00 69 64 73 00 73 6f 75 72 63 65 00 73     ame.ids.source.s
    7be0:	69 6e 6b 00 61 75 64 69 6f 2d 70 63 6d 00 61 75     ink.audio-pcm.au
    7bf0:	64 69 6f 2f 68 6f 75 6e 64 00 66 90 c0 40 00 00     dio/hound.f..@..
    7c00:	70 40 00 00 28 3f 00 00 00 3f 00 00 90 3e 00 00     p@..(?...?...>..
    7c10:	08 3d 00 00 a8 40 00 00 a8 40 00 00 52 65 63 65     .=...@...@..Rece
    7c20:	69 76 69 6e 67 20 73 68 61 72 65 20 72 65 71 75     iving share requ
    7c30:	65 73 74 2e 00 46 61 69 6c 65 64 20 74 6f 20 73     est..Failed to s
    7c40:	68 61 72 65 20 70 63 6d 20 62 75 66 66 65 72 2e     hare pcm buffer.
    7c50:	00 43 61 6c 6c 69 6e 67 20 73 68 61 72 65 20 66     .Calling share f
    7c60:	69 6e 61 6c 69 7a 65 2e 00 46 61 69 6c 65 64 20     inalize..Failed 
    7c70:	74 6f 20 73 68 61 72 65 20 62 75 66 66 65 72 2e     to share buffer.
    7c80:	00 42 75 66 66 65 72 20 73 68 61 72 65 64 20 77     .Buffer shared w
    7c90:	69 74 68 20 73 69 7a 65 20 25 7a 75 2e 00 46 61     ith size %zu..Fa
    7ca0:	69 6c 65 64 20 74 6f 20 73 65 74 20 65 76 65 6e     iled to set even
    7cb0:	74 20 63 61 6c 6c 62 61 63 6b 2e 00 55 4e 4b 4e     t callback..UNKN
    7cc0:	4f 57 4e 20 43 41 50 00 55 4e 4b 4e 4f 57 4e 20     OWN CAP.UNKNOWN 
    7cd0:	45 56 45 4e 54 00 67 65 6e 65 72 69 63 2f 72 65     EVENT.generic/re
    7ce0:	6d 6f 74 65 5f 61 75 64 69 6f 5f 70 63 6d 2e 63     mote_audio_pcm.c
    7cf0:	00 50 4c 41 59 42 41 43 4b 20 53 54 41 52 54 45     .PLAYBACK STARTE
    7d00:	44 00 43 41 50 54 55 52 45 20 53 54 41 52 54 45     D.CAPTURE STARTE
    7d10:	44 00 46 52 41 47 4d 45 4e 54 20 50 4c 41 59 45     D.FRAGMENT PLAYE
    7d20:	44 00 46 52 41 47 4d 45 4e 54 20 43 41 50 54 55     D.FRAGMENT CAPTU
    7d30:	52 45 44 00 50 4c 41 59 42 41 43 4b 20 54 45 52     RED.PLAYBACK TER
    7d40:	4d 49 4e 41 54 45 44 00 43 41 50 54 55 52 45 20     MINATED.CAPTURE 
    7d50:	54 45 52 4d 49 4e 41 54 45 44 00 43 41 50 54 55     TERMINATED.CAPTU
    7d60:	52 45 00 50 4c 41 59 42 41 43 4b 00 4d 41 58 49     RE.PLAYBACK.MAXI
    7d70:	4d 55 4d 20 42 55 46 46 45 52 20 53 49 5a 45 00     MUM BUFFER SIZE.
    7d80:	4b 4e 4f 57 53 20 42 55 46 46 45 52 20 50 4f 53     KNOWS BUFFER POS
    7d90:	49 54 49 4f 4e 00 46 52 41 47 4d 45 4e 54 20 49     ITION.FRAGMENT I
    7da0:	4e 54 45 52 52 55 50 54 53 00 4d 49 4e 49 4d 55     NTERRUPTS.MINIMU
    7db0:	4d 20 46 52 41 47 4d 45 4e 54 20 53 49 5a 45 00     M FRAGMENT SIZE.
    7dc0:	4d 41 58 49 4d 55 4d 20 46 52 41 47 4d 45 4e 54     MAXIMUM FRAGMENT
    7dd0:	20 53 49 5a 45 00 66 90 43 68 65 63 6b 69 6e 67      SIZE.f.Checking
    7de0:	20 72 65 71 75 65 73 74 65 64 20 73 68 61 72 65      requested share
    7df0:	20 73 69 7a 65 2e 00 00 49 6e 63 6f 72 72 65 63      size...Incorrec
    7e00:	74 20 70 63 6d 20 62 75 66 66 65 72 20 73 69 7a     t pcm buffer siz
    7e10:	65 20 72 65 71 75 65 73 74 65 64 2e 00 00 00 00     e requested.....
    7e20:	46 61 69 6c 65 64 20 74 6f 20 63 72 65 61 74 65     Failed to create
    7e30:	20 65 76 65 6e 74 20 63 61 6c 6c 62 61 63 6b 00      event callback.
    7e40:	28 66 6f 72 6d 61 74 20 26 20 55 49 4e 54 31 36     (format & UINT16
    7e50:	5f 4d 41 58 29 20 3d 3d 20 66 6f 72 6d 61 74 00     _MAX) == format.

00007e60 <events.2836>:
	...
    8e60:	f1 7c 00 00 02 7d 00 00 12 7d 00 00 22 7d 00 00     .|...}...}.."}..
    8e70:	34 7d 00 00 48 7d 00 00                             4}..H}..

00008e78 <caps.2832>:
    8e78:	5b 7d 00 00 63 7d 00 00 6c 7d 00 00 80 7d 00 00     [}..c}..l}...}..
    8e88:	96 7d 00 00 aa 7d 00 00 c0 7d 00 00                 .}...}...}..

00008e94 <remote_audio_pcm_iface>:
    8e94:	0c 00 00 00 a0 8e 00 00 00 00 00 00                 ............

00008ea0 <remote_audio_pcm_iface_ops>:
    8ea0:	70 4b 00 00 30 48 00 00 90 4a 00 00 70 47 00 00     pK..0H...J..pG..
    8eb0:	20 4a 00 00 90 48 00 00 20 47 00 00 e0 47 00 00      J...H.. G...G..
    8ec0:	c0 46 00 00 60 46 00 00 00 46 00 00 a0 45 00 00     .F..`F...F...E..
    8ed0:	73 72 63 2f 66 6f 72 6d 61 74 2e 63 00 66 00 62     src/format.c.f.b
    8ee0:	75 66 66 65 72 00 66 90 66 90 66 90 66 90 66 90     uffer.f.f.f.f.f.
    8ef0:	66 90 66 90 66 90 66 90 66 90 66 90 66 90 66 90     f.f.f.f.f.f.f.f.
    8f00:	60 57 00 00 90 57 00 00 c0 57 00 00 f8 57 00 00     `W...W...W...W..
    8f10:	38 58 00 00 68 58 00 00 20 59 00 00 20 59 00 00     8X..hX.. Y.. Y..
    8f20:	20 59 00 00 20 59 00 00 a8 58 00 00 e0 58 00 00      Y.. Y...X...X..
    8f30:	30 57 00 00 30 57 00 00 a8 58 00 00 e0 58 00 00     0W..0W...X...X..
    8f40:	30 57 00 00 30 57 00 00 a8 5a 00 00 88 5b 00 00     0W..0W...Z...[..
    8f50:	e8 59 00 00 10 5d 00 00 d8 5d 00 00 70 5c 00 00     .Y...]...]..p\..
    8f60:	7e 5a 00 00 7e 5a 00 00 7e 5a 00 00 7e 5a 00 00     ~Z..~Z..~Z..~Z..
    8f70:	7e 5a 00 00 7e 5a 00 00 7e 5a 00 00 7e 5a 00 00     ~Z..~Z..~Z..~Z..
    8f80:	90 5e 00 00 b0 5d 00 00 b8 5e 00 00 88 5a 00 00     .^...]...^...Z..
    8f90:	db 66 00 00 af 67 00 00 33 63 00 00 17 64 00 00     .f...g..3c...d..
    8fa0:	07 65 00 00 e8 65 00 00 48 6d 00 00 48 6d 00 00     .e...e..Hm..Hm..
    8fb0:	48 6d 00 00 48 6d 00 00 83 68 00 00 77 69 00 00     Hm..Hm...h..wi..
    8fc0:	6f 6a 00 00 44 62 00 00 83 68 00 00 77 69 00 00     oj..Db...h..wi..
    8fd0:	6f 6a 00 00 44 62 00 00 00 00 00 00 00 00 00 00     oj..Db..........

00008fe0 <CSWTCH.4>:
    8fe0:	01 00 00 00 01 00 00 00 02 00 00 00 02 00 00 00     ................
    8ff0:	02 00 00 00 02 00 00 00 03 00 00 00 03 00 00 00     ................
    9000:	03 00 00 00 03 00 00 00 04 00 00 00 04 00 00 00     ................
    9010:	04 00 00 00 04 00 00 00 04 00 00 00 04 00 00 00     ................
    9020:	04 00 00 00 04 00 00 00 04 00 00 00                 ............

0000902c <AUDIO_FORMAT_ANY>:
	...

00009038 <AUDIO_FORMAT_DEFAULT>:
    9038:	02 00 00 00 44 ac 00 00 04 00 00 00 00 00 00 00     ....D...........
    9048:	00 00 ff 42 00 00 80 3f 00 00 00 43 00 ff ff 46     ...B...?...C...F
    9058:	00 00 00 47 00 00 00 30 00 00 00 4f 00 00 7f 43     ...G...0...O...C
    9068:	00 00 fe 42 00 ff 7f 47 00 fe ff 46 00 00 00 c7     ...B...G...F....
    9078:	00 00 80 4f 00 00 00 cf 00 00 00 bf                 ...O........

Disassembly of section .plt:

000092e0 <__main@plt-0x10>:
    92e0:	ff 35 30 b4 00 00    	pushl  0xb430
    92e6:	ff 25 34 b4 00 00    	jmp    *0xb434
    92ec:	00 00                	add    %al,(%eax)
	...

000092f0 <__main@plt>:
    92f0:	ff 25 38 b4 00 00    	jmp    *0xb438
    92f6:	68 00 00 00 00       	push   $0x0
    92fb:	e9 e0 ff ff ff       	jmp    92e0 <AUDIO_FORMAT_DEFAULT+0x2a8>

00009300 <loc_category_get_id@plt>:
    9300:	ff 25 3c b4 00 00    	jmp    *0xb43c
    9306:	68 08 00 00 00       	push   $0x8
    930b:	e9 d0 ff ff ff       	jmp    92e0 <AUDIO_FORMAT_DEFAULT+0x2a8>

00009310 <devman_device_connect@plt>:
    9310:	ff 25 40 b4 00 00    	jmp    *0xb440
    9316:	68 10 00 00 00       	push   $0x10
    931b:	e9 c0 ff ff ff       	jmp    92e0 <AUDIO_FORMAT_DEFAULT+0x2a8>

00009320 <loc_service_connect@plt>:
    9320:	ff 25 44 b4 00 00    	jmp    *0xb444
    9326:	68 18 00 00 00       	push   $0x18
    932b:	e9 b0 ff ff ff       	jmp    92e0 <AUDIO_FORMAT_DEFAULT+0x2a8>

00009330 <printf@plt>:
    9330:	ff 25 48 b4 00 00    	jmp    *0xb448
    9336:	68 20 00 00 00       	push   $0x20
    933b:	e9 a0 ff ff ff       	jmp    92e0 <AUDIO_FORMAT_DEFAULT+0x2a8>

00009340 <async_hangup@plt>:
    9340:	ff 25 4c b4 00 00    	jmp    *0xb44c
    9346:	68 28 00 00 00       	push   $0x28
    934b:	e9 90 ff ff ff       	jmp    92e0 <AUDIO_FORMAT_DEFAULT+0x2a8>

00009350 <async_wait_for@plt>:
    9350:	ff 25 50 b4 00 00    	jmp    *0xb450
    9356:	68 30 00 00 00       	push   $0x30
    935b:	e9 80 ff ff ff       	jmp    92e0 <AUDIO_FORMAT_DEFAULT+0x2a8>

00009360 <getopt_long@plt>:
    9360:	ff 25 54 b4 00 00    	jmp    *0xb454
    9366:	68 38 00 00 00       	push   $0x38
    936b:	e9 70 ff ff ff       	jmp    92e0 <AUDIO_FORMAT_DEFAULT+0x2a8>

00009370 <log_init@plt>:
    9370:	ff 25 58 b4 00 00    	jmp    *0xb458
    9376:	68 40 00 00 00       	push   $0x40
    937b:	e9 60 ff ff ff       	jmp    92e0 <AUDIO_FORMAT_DEFAULT+0x2a8>

00009380 <async_data_write_start@plt>:
    9380:	ff 25 5c b4 00 00    	jmp    *0xb45c
    9386:	68 48 00 00 00       	push   $0x48
    938b:	e9 50 ff ff ff       	jmp    92e0 <AUDIO_FORMAT_DEFAULT+0x2a8>

00009390 <loc_service_register@plt>:
    9390:	ff 25 60 b4 00 00    	jmp    *0xb460
    9396:	68 50 00 00 00       	push   $0x50
    939b:	e9 40 ff ff ff       	jmp    92e0 <AUDIO_FORMAT_DEFAULT+0x2a8>

000093a0 <async_data_read_finalize@plt>:
    93a0:	ff 25 64 b4 00 00    	jmp    *0xb464
    93a6:	68 58 00 00 00       	push   $0x58
    93ab:	e9 30 ff ff ff       	jmp    92e0 <AUDIO_FORMAT_DEFAULT+0x2a8>

000093b0 <async_share_in_start@plt>:
    93b0:	ff 25 68 b4 00 00    	jmp    *0xb468
    93b6:	68 60 00 00 00       	push   $0x60
    93bb:	e9 20 ff ff ff       	jmp    92e0 <AUDIO_FORMAT_DEFAULT+0x2a8>

000093c0 <memcpy@plt>:
    93c0:	ff 25 6c b4 00 00    	jmp    *0xb46c
    93c6:	68 68 00 00 00       	push   $0x68
    93cb:	e9 10 ff ff ff       	jmp    92e0 <AUDIO_FORMAT_DEFAULT+0x2a8>

000093d0 <malloc@plt>:
    93d0:	ff 25 70 b4 00 00    	jmp    *0xb470
    93d6:	68 70 00 00 00       	push   $0x70
    93db:	e9 00 ff ff ff       	jmp    92e0 <AUDIO_FORMAT_DEFAULT+0x2a8>

000093e0 <fibril_condvar_signal@plt>:
    93e0:	ff 25 74 b4 00 00    	jmp    *0xb474
    93e6:	68 78 00 00 00       	push   $0x78
    93eb:	e9 f0 fe ff ff       	jmp    92e0 <AUDIO_FORMAT_DEFAULT+0x2a8>

000093f0 <async_req_fast@plt>:
    93f0:	ff 25 78 b4 00 00    	jmp    *0xb478
    93f6:	68 80 00 00 00       	push   $0x80
    93fb:	e9 e0 fe ff ff       	jmp    92e0 <AUDIO_FORMAT_DEFAULT+0x2a8>

00009400 <loc_service_get_id@plt>:
    9400:	ff 25 7c b4 00 00    	jmp    *0xb47c
    9406:	68 88 00 00 00       	push   $0x88
    940b:	e9 d0 fe ff ff       	jmp    92e0 <AUDIO_FORMAT_DEFAULT+0x2a8>

00009410 <async_data_read_receive_call@plt>:
    9410:	ff 25 80 b4 00 00    	jmp    *0xb480
    9416:	68 90 00 00 00       	push   $0x90
    941b:	e9 c0 fe ff ff       	jmp    92e0 <AUDIO_FORMAT_DEFAULT+0x2a8>

00009420 <as_area_destroy@plt>:
    9420:	ff 25 84 b4 00 00    	jmp    *0xb484
    9426:	68 98 00 00 00       	push   $0x98
    942b:	e9 b0 fe ff ff       	jmp    92e0 <AUDIO_FORMAT_DEFAULT+0x2a8>

00009430 <async_answer_0@plt>:
    9430:	ff 25 88 b4 00 00    	jmp    *0xb488
    9436:	68 a0 00 00 00       	push   $0xa0
    943b:	e9 a0 fe ff ff       	jmp    92e0 <AUDIO_FORMAT_DEFAULT+0x2a8>

00009440 <fibril_condvar_wait@plt>:
    9440:	ff 25 8c b4 00 00    	jmp    *0xb48c
    9446:	68 a8 00 00 00       	push   $0xa8
    944b:	e9 90 fe ff ff       	jmp    92e0 <AUDIO_FORMAT_DEFAULT+0x2a8>

00009450 <async_send_fast@plt>:
    9450:	ff 25 90 b4 00 00    	jmp    *0xb490
    9456:	68 b0 00 00 00       	push   $0xb0
    945b:	e9 80 fe ff ff       	jmp    92e0 <AUDIO_FORMAT_DEFAULT+0x2a8>

00009460 <__udivdi3@plt>:
    9460:	ff 25 94 b4 00 00    	jmp    *0xb494
    9466:	68 b8 00 00 00       	push   $0xb8
    946b:	e9 70 fe ff ff       	jmp    92e0 <AUDIO_FORMAT_DEFAULT+0x2a8>

00009470 <log_msgv@plt>:
    9470:	ff 25 98 b4 00 00    	jmp    *0xb498
    9476:	68 c0 00 00 00       	push   $0xc0
    947b:	e9 60 fe ff ff       	jmp    92e0 <AUDIO_FORMAT_DEFAULT+0x2a8>

00009480 <async_exchange_end@plt>:
    9480:	ff 25 9c b4 00 00    	jmp    *0xb49c
    9486:	68 c8 00 00 00       	push   $0xc8
    948b:	e9 50 fe ff ff       	jmp    92e0 <AUDIO_FORMAT_DEFAULT+0x2a8>

00009490 <loc_service_get_name@plt>:
    9490:	ff 25 a0 b4 00 00    	jmp    *0xb4a0
    9496:	68 d0 00 00 00       	push   $0xd0
    949b:	e9 40 fe ff ff       	jmp    92e0 <AUDIO_FORMAT_DEFAULT+0x2a8>

000094a0 <assert_abort@plt>:
    94a0:	ff 25 a4 b4 00 00    	jmp    *0xb4a4
    94a6:	68 d8 00 00 00       	push   $0xd8
    94ab:	e9 30 fe ff ff       	jmp    92e0 <AUDIO_FORMAT_DEFAULT+0x2a8>

000094b0 <calloc@plt>:
    94b0:	ff 25 a8 b4 00 00    	jmp    *0xb4a8
    94b6:	68 e0 00 00 00       	push   $0xe0
    94bb:	e9 20 fe ff ff       	jmp    92e0 <AUDIO_FORMAT_DEFAULT+0x2a8>

000094c0 <fibril_condvar_initialize@plt>:
    94c0:	ff 25 ac b4 00 00    	jmp    *0xb4ac
    94c6:	68 e8 00 00 00       	push   $0xe8
    94cb:	e9 10 fe ff ff       	jmp    92e0 <AUDIO_FORMAT_DEFAULT+0x2a8>

000094d0 <loc_register_cat_change_cb@plt>:
    94d0:	ff 25 b0 b4 00 00    	jmp    *0xb4b0
    94d6:	68 f0 00 00 00       	push   $0xf0
    94db:	e9 00 fe ff ff       	jmp    92e0 <AUDIO_FORMAT_DEFAULT+0x2a8>

000094e0 <async_data_write_receive_call@plt>:
    94e0:	ff 25 b4 b4 00 00    	jmp    *0xb4b4
    94e6:	68 f8 00 00 00       	push   $0xf8
    94eb:	e9 f0 fd ff ff       	jmp    92e0 <AUDIO_FORMAT_DEFAULT+0x2a8>

000094f0 <fseek@plt>:
    94f0:	ff 25 b8 b4 00 00    	jmp    *0xb4b8
    94f6:	68 00 01 00 00       	push   $0x100
    94fb:	e9 e0 fd ff ff       	jmp    92e0 <AUDIO_FORMAT_DEFAULT+0x2a8>

00009500 <fibril_mutex_unlock@plt>:
    9500:	ff 25 bc b4 00 00    	jmp    *0xb4bc
    9506:	68 08 01 00 00       	push   $0x108
    950b:	e9 d0 fd ff ff       	jmp    92e0 <AUDIO_FORMAT_DEFAULT+0x2a8>

00009510 <async_callback_receive_start@plt>:
    9510:	ff 25 c0 b4 00 00    	jmp    *0xb4c0
    9516:	68 10 01 00 00       	push   $0x110
    951b:	e9 c0 fd ff ff       	jmp    92e0 <AUDIO_FORMAT_DEFAULT+0x2a8>

00009520 <loc_service_unregister@plt>:
    9520:	ff 25 c4 b4 00 00    	jmp    *0xb4c4
    9526:	68 18 01 00 00       	push   $0x118
    952b:	e9 b0 fd ff ff       	jmp    92e0 <AUDIO_FORMAT_DEFAULT+0x2a8>

00009530 <fibril_mutex_initialize@plt>:
    9530:	ff 25 c8 b4 00 00    	jmp    *0xb4c8
    9536:	68 20 01 00 00       	push   $0x120
    953b:	e9 a0 fd ff ff       	jmp    92e0 <AUDIO_FORMAT_DEFAULT+0x2a8>

00009540 <async_create_callback_port@plt>:
    9540:	ff 25 cc b4 00 00    	jmp    *0xb4cc
    9546:	68 28 01 00 00       	push   $0x128
    954b:	e9 90 fd ff ff       	jmp    92e0 <AUDIO_FORMAT_DEFAULT+0x2a8>

00009550 <str_cmp@plt>:
    9550:	ff 25 d0 b4 00 00    	jmp    *0xb4d0
    9556:	68 30 01 00 00       	push   $0x130
    955b:	e9 80 fd ff ff       	jmp    92e0 <AUDIO_FORMAT_DEFAULT+0x2a8>

00009560 <fread@plt>:
    9560:	ff 25 d4 b4 00 00    	jmp    *0xb4d4
    9566:	68 38 01 00 00       	push   $0x138
    956b:	e9 70 fd ff ff       	jmp    92e0 <AUDIO_FORMAT_DEFAULT+0x2a8>

00009570 <task_get_id@plt>:
    9570:	ff 25 d8 b4 00 00    	jmp    *0xb4d8
    9576:	68 40 01 00 00       	push   $0x140
    957b:	e9 60 fd ff ff       	jmp    92e0 <AUDIO_FORMAT_DEFAULT+0x2a8>

00009580 <fopen@plt>:
    9580:	ff 25 dc b4 00 00    	jmp    *0xb4dc
    9586:	68 48 01 00 00       	push   $0x148
    958b:	e9 50 fd ff ff       	jmp    92e0 <AUDIO_FORMAT_DEFAULT+0x2a8>

00009590 <memset@plt>:
    9590:	ff 25 e0 b4 00 00    	jmp    *0xb4e0
    9596:	68 50 01 00 00       	push   $0x150
    959b:	e9 40 fd ff ff       	jmp    92e0 <AUDIO_FORMAT_DEFAULT+0x2a8>

000095a0 <async_data_read_receive@plt>:
    95a0:	ff 25 e4 b4 00 00    	jmp    *0xb4e4
    95a6:	68 58 01 00 00       	push   $0x158
    95ab:	e9 30 fd ff ff       	jmp    92e0 <AUDIO_FORMAT_DEFAULT+0x2a8>

000095b0 <ftell@plt>:
    95b0:	ff 25 e8 b4 00 00    	jmp    *0xb4e8
    95b6:	68 60 01 00 00       	push   $0x160
    95bb:	e9 20 fd ff ff       	jmp    92e0 <AUDIO_FORMAT_DEFAULT+0x2a8>

000095c0 <async_data_read_start@plt>:
    95c0:	ff 25 ec b4 00 00    	jmp    *0xb4ec
    95c6:	68 68 01 00 00       	push   $0x168
    95cb:	e9 10 fd ff ff       	jmp    92e0 <AUDIO_FORMAT_DEFAULT+0x2a8>

000095d0 <fclose@plt>:
    95d0:	ff 25 f0 b4 00 00    	jmp    *0xb4f0
    95d6:	68 70 01 00 00       	push   $0x170
    95db:	e9 00 fd ff ff       	jmp    92e0 <AUDIO_FORMAT_DEFAULT+0x2a8>

000095e0 <getchar@plt>:
    95e0:	ff 25 f4 b4 00 00    	jmp    *0xb4f4
    95e6:	68 78 01 00 00       	push   $0x178
    95eb:	e9 f0 fc ff ff       	jmp    92e0 <AUDIO_FORMAT_DEFAULT+0x2a8>

000095f0 <async_share_in_receive@plt>:
    95f0:	ff 25 f8 b4 00 00    	jmp    *0xb4f8
    95f6:	68 80 01 00 00       	push   $0x180
    95fb:	e9 e0 fc ff ff       	jmp    92e0 <AUDIO_FORMAT_DEFAULT+0x2a8>

00009600 <async_usleep@plt>:
    9600:	ff 25 fc b4 00 00    	jmp    *0xb4fc
    9606:	68 88 01 00 00       	push   $0x188
    960b:	e9 d0 fc ff ff       	jmp    92e0 <AUDIO_FORMAT_DEFAULT+0x2a8>

00009610 <getuptime@plt>:
    9610:	ff 25 00 b5 00 00    	jmp    *0xb500
    9616:	68 90 01 00 00       	push   $0x190
    961b:	e9 c0 fc ff ff       	jmp    92e0 <AUDIO_FORMAT_DEFAULT+0x2a8>

00009620 <asprintf@plt>:
    9620:	ff 25 04 b5 00 00    	jmp    *0xb504
    9626:	68 98 01 00 00       	push   $0x198
    962b:	e9 b0 fc ff ff       	jmp    92e0 <AUDIO_FORMAT_DEFAULT+0x2a8>

00009630 <loc_server_register@plt>:
    9630:	ff 25 08 b5 00 00    	jmp    *0xb508
    9636:	68 a0 01 00 00       	push   $0x1a0
    963b:	e9 a0 fc ff ff       	jmp    92e0 <AUDIO_FORMAT_DEFAULT+0x2a8>

00009640 <loc_category_get_svcs@plt>:
    9640:	ff 25 0c b5 00 00    	jmp    *0xb50c
    9646:	68 a8 01 00 00       	push   $0x1a8
    964b:	e9 90 fc ff ff       	jmp    92e0 <AUDIO_FORMAT_DEFAULT+0x2a8>

00009650 <async_get_call_timeout@plt>:
    9650:	ff 25 10 b5 00 00    	jmp    *0xb510
    9656:	68 b0 01 00 00       	push   $0x1b0
    965b:	e9 80 fc ff ff       	jmp    92e0 <AUDIO_FORMAT_DEFAULT+0x2a8>

00009660 <str_size@plt>:
    9660:	ff 25 14 b5 00 00    	jmp    *0xb514
    9666:	68 b8 01 00 00       	push   $0x1b8
    966b:	e9 70 fc ff ff       	jmp    92e0 <AUDIO_FORMAT_DEFAULT+0x2a8>

00009670 <str_lcmp@plt>:
    9670:	ff 25 18 b5 00 00    	jmp    *0xb518
    9676:	68 c0 01 00 00       	push   $0x1c0
    967b:	e9 60 fc ff ff       	jmp    92e0 <AUDIO_FORMAT_DEFAULT+0x2a8>

00009680 <async_answer_1@plt>:
    9680:	ff 25 1c b5 00 00    	jmp    *0xb51c
    9686:	68 c8 01 00 00       	push   $0x1c8
    968b:	e9 50 fc ff ff       	jmp    92e0 <AUDIO_FORMAT_DEFAULT+0x2a8>

00009690 <async_exchange_begin@plt>:
    9690:	ff 25 20 b5 00 00    	jmp    *0xb520
    9696:	68 d0 01 00 00       	push   $0x1d0
    969b:	e9 40 fc ff ff       	jmp    92e0 <AUDIO_FORMAT_DEFAULT+0x2a8>

000096a0 <str_error@plt>:
    96a0:	ff 25 24 b5 00 00    	jmp    *0xb524
    96a6:	68 d8 01 00 00       	push   $0x1d8
    96ab:	e9 30 fc ff ff       	jmp    92e0 <AUDIO_FORMAT_DEFAULT+0x2a8>

000096b0 <fwrite@plt>:
    96b0:	ff 25 28 b5 00 00    	jmp    *0xb528
    96b6:	68 e0 01 00 00       	push   $0x1e0
    96bb:	e9 20 fc ff ff       	jmp    92e0 <AUDIO_FORMAT_DEFAULT+0x2a8>

000096c0 <devman_fun_get_handle@plt>:
    96c0:	ff 25 2c b5 00 00    	jmp    *0xb52c
    96c6:	68 e8 01 00 00       	push   $0x1e8
    96cb:	e9 10 fc ff ff       	jmp    92e0 <AUDIO_FORMAT_DEFAULT+0x2a8>

000096d0 <async_share_in_finalize@plt>:
    96d0:	ff 25 30 b5 00 00    	jmp    *0xb530
    96d6:	68 f0 01 00 00       	push   $0x1f0
    96db:	e9 00 fc ff ff       	jmp    92e0 <AUDIO_FORMAT_DEFAULT+0x2a8>

000096e0 <async_answer_3@plt>:
    96e0:	ff 25 34 b5 00 00    	jmp    *0xb534
    96e6:	68 f8 01 00 00       	push   $0x1f8
    96eb:	e9 f0 fb ff ff       	jmp    92e0 <AUDIO_FORMAT_DEFAULT+0x2a8>

000096f0 <async_data_write_finalize@plt>:
    96f0:	ff 25 38 b5 00 00    	jmp    *0xb538
    96f6:	68 00 02 00 00       	push   $0x200
    96fb:	e9 e0 fb ff ff       	jmp    92e0 <AUDIO_FORMAT_DEFAULT+0x2a8>

00009700 <async_data_write_accept@plt>:
    9700:	ff 25 3c b5 00 00    	jmp    *0xb53c
    9706:	68 08 02 00 00       	push   $0x208
    970b:	e9 d0 fb ff ff       	jmp    92e0 <AUDIO_FORMAT_DEFAULT+0x2a8>

00009710 <async_forget@plt>:
    9710:	ff 25 40 b5 00 00    	jmp    *0xb540
    9716:	68 10 02 00 00       	push   $0x210
    971b:	e9 c0 fb ff ff       	jmp    92e0 <AUDIO_FORMAT_DEFAULT+0x2a8>

00009720 <fibril_create_generic@plt>:
    9720:	ff 25 44 b5 00 00    	jmp    *0xb544
    9726:	68 18 02 00 00       	push   $0x218
    972b:	e9 b0 fb ff ff       	jmp    92e0 <AUDIO_FORMAT_DEFAULT+0x2a8>

00009730 <fibril_add_ready@plt>:
    9730:	ff 25 48 b5 00 00    	jmp    *0xb548
    9736:	68 20 02 00 00       	push   $0x220
    973b:	e9 a0 fb ff ff       	jmp    92e0 <AUDIO_FORMAT_DEFAULT+0x2a8>

00009740 <__syscall_fast@plt>:
    9740:	ff 25 4c b5 00 00    	jmp    *0xb54c
    9746:	68 28 02 00 00       	push   $0x228
    974b:	e9 90 fb ff ff       	jmp    92e0 <AUDIO_FORMAT_DEFAULT+0x2a8>

00009750 <free@plt>:
    9750:	ff 25 50 b5 00 00    	jmp    *0xb550
    9756:	68 30 02 00 00       	push   $0x230
    975b:	e9 80 fb ff ff       	jmp    92e0 <AUDIO_FORMAT_DEFAULT+0x2a8>

00009760 <fibril_mutex_lock@plt>:
    9760:	ff 25 54 b5 00 00    	jmp    *0xb554
    9766:	68 38 02 00 00       	push   $0x238
    976b:	e9 70 fb ff ff       	jmp    92e0 <AUDIO_FORMAT_DEFAULT+0x2a8>
