
wavplay:     file format elf32-i386


Disassembly of section .init:

000010f4 <__entry>:
    10f4:	66 8c d0             	mov    %ss,%ax
    10f7:	8e d8                	mov    %eax,%ds
    10f9:	8e c0                	mov    %eax,%es
    10fb:	8e e0                	mov    %eax,%fs
    10fd:	b8 01 00 00 00       	mov    $0x1,%eax
    1102:	0f a2                	cpuid  
    1104:	0f ba e2 0b          	bt     $0xb,%edx
    1108:	73 0c                	jae    1116 <__entry+0x22>
    110a:	8d 05 68 b5 00 00    	lea    0xb568,%eax
    1110:	c7 00 40 97 00 00    	movl   $0x9740,(%eax)
    1116:	6a 00                	push   $0x0
    1118:	6a 00                	push   $0x0
    111a:	89 e5                	mov    %esp,%ebp
    111c:	57                   	push   %edi
    111d:	e8 ce 81 00 00       	call   92f0 <__main@plt>

Disassembly of section .text:

00001140 <device_event_callback>:
    1140:	55                   	push   %ebp
    1141:	89 e5                	mov    %esp,%ebp
    1143:	57                   	push   %edi
    1144:	56                   	push   %esi
    1145:	53                   	push   %ebx
    1146:	83 ec 54             	sub    $0x54,%esp
    1149:	8d 75 c4             	lea    -0x3c(%ebp),%esi
    114c:	8b 5d 10             	mov    0x10(%ebp),%ebx
    114f:	8b 45 08             	mov    0x8(%ebp),%eax
    1152:	6a 00                	push   $0x0
    1154:	50                   	push   %eax
    1155:	e8 d6 82 00 00       	call   9430 <async_answer_0@plt>
    115a:	8b 43 04             	mov    0x4(%ebx),%eax
    115d:	d1 e8                	shr    %eax
    115f:	83 c4 10             	add    $0x10,%esp
    1162:	89 45 b4             	mov    %eax,-0x4c(%ebp)
    1165:	50                   	push   %eax
    1166:	50                   	push   %eax
    1167:	6a 00                	push   $0x0
    1169:	56                   	push   %esi
    116a:	e8 e1 84 00 00       	call   9650 <async_get_call_timeout@plt>
    116f:	83 c4 10             	add    $0x10,%esp
    1172:	89 c7                	mov    %eax,%edi
    1174:	8b 45 c4             	mov    -0x3c(%ebp),%eax
    1177:	3d 02 04 00 00       	cmp    $0x402,%eax
    117c:	74 32                	je     11b0 <device_event_callback+0x70>
    117e:	3d 04 04 00 00       	cmp    $0x404,%eax
    1183:	0f 84 b7 00 00 00    	je     1240 <device_event_callback+0x100>
    1189:	3d 00 04 00 00       	cmp    $0x400,%eax
    118e:	74 20                	je     11b0 <device_event_callback+0x70>
    1190:	52                   	push   %edx
    1191:	52                   	push   %edx
    1192:	50                   	push   %eax
    1193:	68 50 6e 00 00       	push   $0x6e50
    1198:	e8 93 81 00 00       	call   9330 <printf@plt>
    119d:	59                   	pop    %ecx
    119e:	58                   	pop    %eax
    119f:	6a f5                	push   $0xfffffff5
    11a1:	57                   	push   %edi
    11a2:	e8 89 82 00 00       	call   9430 <async_answer_0@plt>
    11a7:	83 c4 10             	add    $0x10,%esp
    11aa:	eb b9                	jmp    1165 <device_event_callback+0x25>
    11ac:	8d 74 26 00          	lea    0x0(%esi,%eiz,1),%esi
    11b0:	8b 45 c8             	mov    -0x38(%ebp),%eax
    11b3:	51                   	push   %ecx
    11b4:	51                   	push   %ecx
    11b5:	50                   	push   %eax
    11b6:	68 2f 6e 00 00       	push   $0x6e2f
    11bb:	e8 70 81 00 00       	call   9330 <printf@plt>
    11c0:	58                   	pop    %eax
    11c1:	5a                   	pop    %edx
    11c2:	6a 00                	push   $0x0
    11c4:	57                   	push   %edi
    11c5:	e8 66 82 00 00       	call   9430 <async_answer_0@plt>
    11ca:	8b 4b 18             	mov    0x18(%ebx),%ecx
    11cd:	51                   	push   %ecx
    11ce:	8b 7d b4             	mov    -0x4c(%ebp),%edi
    11d1:	8b 43 08             	mov    0x8(%ebx),%eax
    11d4:	57                   	push   %edi
    11d5:	6a 01                	push   $0x1
    11d7:	50                   	push   %eax
    11d8:	e8 83 83 00 00       	call   9560 <fread@plt>
    11dd:	83 c4 20             	add    $0x20,%esp
    11e0:	89 c7                	mov    %eax,%edi
    11e2:	8b 45 b4             	mov    -0x4c(%ebp),%eax
    11e5:	50                   	push   %eax
    11e6:	8b 43 08             	mov    0x8(%ebx),%eax
    11e9:	57                   	push   %edi
    11ea:	50                   	push   %eax
    11eb:	68 50 70 00 00       	push   $0x7050
    11f0:	e8 3b 81 00 00       	call   9330 <printf@plt>
    11f5:	83 c4 10             	add    $0x10,%esp
    11f8:	85 ff                	test   %edi,%edi
    11fa:	0f 84 88 00 00 00    	je     1288 <device_event_callback+0x148>
    1200:	50                   	push   %eax
    1201:	8b 45 b4             	mov    -0x4c(%ebp),%eax
    1204:	8b 53 08             	mov    0x8(%ebx),%edx
    1207:	29 f8                	sub    %edi,%eax
    1209:	01 fa                	add    %edi,%edx
    120b:	50                   	push   %eax
    120c:	6a 00                	push   $0x0
    120e:	52                   	push   %edx
    120f:	e8 7c 83 00 00       	call   9590 <memset@plt>
    1214:	8b 53 08             	mov    0x8(%ebx),%edx
    1217:	8b 45 b4             	mov    -0x4c(%ebp),%eax
    121a:	8b 0b                	mov    (%ebx),%ecx
    121c:	01 d0                	add    %edx,%eax
    121e:	8b 53 04             	mov    0x4(%ebx),%edx
    1221:	01 d1                	add    %edx,%ecx
    1223:	83 c4 10             	add    $0x10,%esp
    1226:	89 43 08             	mov    %eax,0x8(%ebx)
    1229:	39 c8                	cmp    %ecx,%eax
    122b:	0f 82 34 ff ff ff    	jb     1165 <device_event_callback+0x25>
    1231:	29 d0                	sub    %edx,%eax
    1233:	89 43 08             	mov    %eax,0x8(%ebx)
    1236:	e9 2a ff ff ff       	jmp    1165 <device_event_callback+0x25>
    123b:	90                   	nop
    123c:	8d 74 26 00          	lea    0x0(%esi,%eiz,1),%esi
    1240:	83 ec 0c             	sub    $0xc,%esp
    1243:	8d 73 20             	lea    0x20(%ebx),%esi
    1246:	83 c3 30             	add    $0x30,%ebx
    1249:	68 3b 6e 00 00       	push   $0x6e3b
    124e:	e8 dd 80 00 00       	call   9330 <printf@plt>
    1253:	89 34 24             	mov    %esi,(%esp)
    1256:	e8 05 85 00 00       	call   9760 <fibril_mutex_lock@plt>
    125b:	c6 43 ec 00          	movb   $0x0,-0x14(%ebx)
    125f:	89 1c 24             	mov    %ebx,(%esp)
    1262:	e8 79 81 00 00       	call   93e0 <fibril_condvar_signal@plt>
    1267:	58                   	pop    %eax
    1268:	5a                   	pop    %edx
    1269:	6a 00                	push   $0x0
    126b:	57                   	push   %edi
    126c:	e8 bf 81 00 00       	call   9430 <async_answer_0@plt>
    1271:	89 34 24             	mov    %esi,(%esp)
    1274:	e8 87 82 00 00       	call   9500 <fibril_mutex_unlock@plt>
    1279:	8d 65 f4             	lea    -0xc(%ebp),%esp
    127c:	5b                   	pop    %ebx
    127d:	5e                   	pop    %esi
    127e:	5f                   	pop    %edi
    127f:	5d                   	pop    %ebp
    1280:	c3                   	ret    
    1281:	8d b4 26 00 00 00 00 	lea    0x0(%esi,%eiz,1),%esi
    1288:	83 ec 0c             	sub    $0xc,%esp
    128b:	8b 4b 38             	mov    0x38(%ebx),%ecx
    128e:	51                   	push   %ecx
    128f:	e8 9c 40 00 00       	call   5330 <audio_pcm_last_playback_fragment>
    1294:	83 c4 10             	add    $0x10,%esp
    1297:	e9 64 ff ff ff       	jmp    1200 <device_event_callback+0xc0>
    129c:	8d 74 26 00          	lea    0x0(%esi,%eiz,1),%esi

000012a0 <dplay>:
    12a0:	55                   	push   %ebp
    12a1:	89 e5                	mov    %esp,%ebp
    12a3:	57                   	push   %edi
    12a4:	56                   	push   %esi
    12a5:	53                   	push   %ebx
    12a6:	81 ec a4 00 00 00    	sub    $0xa4,%esp
    12ac:	8b 5d 08             	mov    0x8(%ebp),%ebx
    12af:	68 79 6e 00 00       	push   $0x6e79
    12b4:	53                   	push   %ebx
    12b5:	e8 96 82 00 00       	call   9550 <str_cmp@plt>
    12ba:	83 c4 10             	add    $0x10,%esp
    12bd:	85 c0                	test   %eax,%eax
    12bf:	0f 85 b3 00 00 00    	jne    1378 <dplay+0xd8>
    12c5:	e8 d6 39 00 00       	call   4ca0 <audio_pcm_open_default>
    12ca:	89 85 64 ff ff ff    	mov    %eax,-0x9c(%ebp)
    12d0:	8b bd 64 ff ff ff    	mov    -0x9c(%ebp),%edi
    12d6:	85 ff                	test   %edi,%edi
    12d8:	0f 84 ba 00 00 00    	je     1398 <dplay+0xf8>
    12de:	50                   	push   %eax
    12df:	50                   	push   %eax
    12e0:	53                   	push   %ebx
    12e1:	68 81 6e 00 00       	push   $0x6e81
    12e6:	e8 45 80 00 00       	call   9330 <printf@plt>
    12eb:	8b 8d 64 ff ff ff    	mov    -0x9c(%ebp),%ecx
    12f1:	58                   	pop    %eax
    12f2:	5a                   	pop    %edx
    12f3:	6a 01                	push   $0x1
    12f5:	51                   	push   %ecx
    12f6:	e8 b5 3b 00 00       	call   4eb0 <audio_pcm_query_cap>
    12fb:	83 c4 10             	add    $0x10,%esp
    12fe:	85 c0                	test   %eax,%eax
    1300:	0f 8e 02 02 00 00    	jle    1508 <dplay+0x268>
    1306:	8d 85 6c ff ff ff    	lea    -0x94(%ebp),%eax
    130c:	8b b5 64 ff ff ff    	mov    -0x9c(%ebp),%esi
    1312:	c7 85 6c ff ff ff 00 	movl   $0x0,-0x94(%ebp)
    1319:	00 00 00 
    131c:	53                   	push   %ebx
    131d:	53                   	push   %ebx
    131e:	50                   	push   %eax
    131f:	56                   	push   %esi
    1320:	e8 9b 3a 00 00       	call   4dc0 <audio_pcm_get_info_str>
    1325:	83 c4 10             	add    $0x10,%esp
    1328:	85 c0                	test   %eax,%eax
    132a:	0f 84 90 00 00 00    	je     13c0 <dplay+0x120>
    1330:	83 ec 0c             	sub    $0xc,%esp
    1333:	50                   	push   %eax
    1334:	e8 67 83 00 00       	call   96a0 <str_error@plt>
    1339:	5a                   	pop    %edx
    133a:	59                   	pop    %ecx
    133b:	50                   	push   %eax
    133c:	68 99 6e 00 00       	push   $0x6e99
    1341:	e8 ea 7f 00 00       	call   9330 <printf@plt>
    1346:	83 c4 10             	add    $0x10,%esp
    1349:	c7 85 60 ff ff ff 01 	movl   $0x1,-0xa0(%ebp)
    1350:	00 00 00 
    1353:	83 ec 0c             	sub    $0xc,%esp
    1356:	8b b5 64 ff ff ff    	mov    -0x9c(%ebp),%esi
    135c:	56                   	push   %esi
    135d:	e8 3e 3a 00 00       	call   4da0 <audio_pcm_close>
    1362:	8b 85 60 ff ff ff    	mov    -0xa0(%ebp),%eax
    1368:	83 c4 10             	add    $0x10,%esp
    136b:	8d 65 f4             	lea    -0xc(%ebp),%esp
    136e:	5b                   	pop    %ebx
    136f:	5e                   	pop    %esi
    1370:	5f                   	pop    %edi
    1371:	5d                   	pop    %ebp
    1372:	c3                   	ret    
    1373:	90                   	nop
    1374:	8d 74 26 00          	lea    0x0(%esi,%eiz,1),%esi
    1378:	83 ec 0c             	sub    $0xc,%esp
    137b:	53                   	push   %ebx
    137c:	e8 bf 39 00 00       	call   4d40 <audio_pcm_open>
    1381:	89 85 64 ff ff ff    	mov    %eax,-0x9c(%ebp)
    1387:	83 c4 10             	add    $0x10,%esp
    138a:	8b bd 64 ff ff ff    	mov    -0x9c(%ebp),%edi
    1390:	85 ff                	test   %edi,%edi
    1392:	0f 85 46 ff ff ff    	jne    12de <dplay+0x3e>
    1398:	56                   	push   %esi
    1399:	56                   	push   %esi
    139a:	53                   	push   %ebx
    139b:	68 78 70 00 00       	push   $0x7078
    13a0:	e8 8b 7f 00 00       	call   9330 <printf@plt>
    13a5:	c7 85 60 ff ff ff 01 	movl   $0x1,-0xa0(%ebp)
    13ac:	00 00 00 
    13af:	8b 85 60 ff ff ff    	mov    -0xa0(%ebp),%eax
    13b5:	83 c4 10             	add    $0x10,%esp
    13b8:	8d 65 f4             	lea    -0xc(%ebp),%esp
    13bb:	5b                   	pop    %ebx
    13bc:	5e                   	pop    %esi
    13bd:	5f                   	pop    %edi
    13be:	5d                   	pop    %ebp
    13bf:	c3                   	ret    
    13c0:	8b 85 6c ff ff ff    	mov    -0x94(%ebp),%eax
    13c6:	57                   	push   %edi
    13c7:	57                   	push   %edi
    13c8:	50                   	push   %eax
    13c9:	68 b6 6e 00 00       	push   $0x6eb6
    13ce:	e8 5d 7f 00 00       	call   9330 <printf@plt>
    13d3:	58                   	pop    %eax
    13d4:	8b 85 6c ff ff ff    	mov    -0x94(%ebp),%eax
    13da:	50                   	push   %eax
    13db:	8d 5d cc             	lea    -0x34(%ebp),%ebx
    13de:	e8 6d 83 00 00       	call   9750 <free@plt>
    13e3:	8d 75 dc             	lea    -0x24(%ebp),%esi
    13e6:	8b 85 64 ff ff ff    	mov    -0x9c(%ebp),%eax
    13ec:	89 1c 24             	mov    %ebx,(%esp)
    13ef:	89 45 e4             	mov    %eax,-0x1c(%ebp)
    13f2:	c7 45 ac 00 00 00 00 	movl   $0x0,-0x54(%ebp)
    13f9:	c7 45 b0 00 00 00 00 	movl   $0x0,-0x50(%ebp)
    1400:	c7 45 b4 00 00 00 00 	movl   $0x0,-0x4c(%ebp)
    1407:	c6 45 c8 00          	movb   $0x0,-0x38(%ebp)
    140b:	c7 45 c4 00 00 00 00 	movl   $0x0,-0x3c(%ebp)
    1412:	e8 19 81 00 00       	call   9530 <fibril_mutex_initialize@plt>
    1417:	89 34 24             	mov    %esi,(%esp)
    141a:	e8 a1 80 00 00       	call   94c0 <fibril_condvar_initialize@plt>
    141f:	83 c4 0c             	add    $0xc,%esp
    1422:	8d 45 b0             	lea    -0x50(%ebp),%eax
    1425:	8d 7d ac             	lea    -0x54(%ebp),%edi
    1428:	50                   	push   %eax
    1429:	8b 45 e4             	mov    -0x1c(%ebp),%eax
    142c:	57                   	push   %edi
    142d:	50                   	push   %eax
    142e:	e8 6d 3d 00 00       	call   51a0 <audio_pcm_get_buffer>
    1433:	83 c4 10             	add    $0x10,%esp
    1436:	85 c0                	test   %eax,%eax
    1438:	0f 85 ea 00 00 00    	jne    1528 <dplay+0x288>
    143e:	50                   	push   %eax
    143f:	8b 45 b0             	mov    -0x50(%ebp),%eax
    1442:	50                   	push   %eax
    1443:	8b 45 ac             	mov    -0x54(%ebp),%eax
    1446:	50                   	push   %eax
    1447:	68 c6 6e 00 00       	push   $0x6ec6
    144c:	e8 df 7e 00 00       	call   9330 <printf@plt>
    1451:	8b 4d 0c             	mov    0xc(%ebp),%ecx
    1454:	58                   	pop    %eax
    1455:	5a                   	pop    %edx
    1456:	68 d7 6e 00 00       	push   $0x6ed7
    145b:	51                   	push   %ecx
    145c:	e8 1f 81 00 00       	call   9580 <fopen@plt>
    1461:	83 c4 10             	add    $0x10,%esp
    1464:	89 45 c4             	mov    %eax,-0x3c(%ebp)
    1467:	85 c0                	test   %eax,%eax
    1469:	0f 84 4b 04 00 00    	je     18ba <dplay+0x61a>
    146f:	8d 55 80             	lea    -0x80(%ebp),%edx
    1472:	50                   	push   %eax
    1473:	6a 01                	push   $0x1
    1475:	6a 2c                	push   $0x2c
    1477:	52                   	push   %edx
    1478:	89 95 60 ff ff ff    	mov    %edx,-0xa0(%ebp)
    147e:	e8 dd 80 00 00       	call   9560 <fread@plt>
    1483:	83 c4 0c             	add    $0xc,%esp
    1486:	8d 85 70 ff ff ff    	lea    -0x90(%ebp),%eax
    148c:	8b 95 60 ff ff ff    	mov    -0xa0(%ebp),%edx
    1492:	50                   	push   %eax
    1493:	8d 45 c0             	lea    -0x40(%ebp),%eax
    1496:	50                   	push   %eax
    1497:	8d 45 bc             	lea    -0x44(%ebp),%eax
    149a:	50                   	push   %eax
    149b:	8d 45 b8             	lea    -0x48(%ebp),%eax
    149e:	50                   	push   %eax
    149f:	6a 00                	push   $0x0
    14a1:	6a 00                	push   $0x0
    14a3:	52                   	push   %edx
    14a4:	e8 17 12 00 00       	call   26c0 <wav_parse_header>
    14a9:	83 c4 20             	add    $0x20,%esp
    14ac:	89 85 60 ff ff ff    	mov    %eax,-0xa0(%ebp)
    14b2:	85 c0                	test   %eax,%eax
    14b4:	0f 84 96 00 00 00    	je     1550 <dplay+0x2b0>
    14ba:	50                   	push   %eax
    14bb:	50                   	push   %eax
    14bc:	8b 85 70 ff ff ff    	mov    -0x90(%ebp),%eax
    14c2:	50                   	push   %eax
    14c3:	68 e4 70 00 00       	push   $0x70e4
    14c8:	e8 63 7e 00 00       	call   9330 <printf@plt>
    14cd:	83 c4 10             	add    $0x10,%esp
    14d0:	c7 85 60 ff ff ff 01 	movl   $0x1,-0xa0(%ebp)
    14d7:	00 00 00 
    14da:	83 ec 0c             	sub    $0xc,%esp
    14dd:	8b 7d c4             	mov    -0x3c(%ebp),%edi
    14e0:	57                   	push   %edi
    14e1:	e8 ea 80 00 00       	call   95d0 <fclose@plt>
    14e6:	58                   	pop    %eax
    14e7:	8b 45 ac             	mov    -0x54(%ebp),%eax
    14ea:	50                   	push   %eax
    14eb:	e8 30 7f 00 00       	call   9420 <as_area_destroy@plt>
    14f0:	58                   	pop    %eax
    14f1:	8b 45 e4             	mov    -0x1c(%ebp),%eax
    14f4:	50                   	push   %eax
    14f5:	e8 56 3d 00 00       	call   5250 <audio_pcm_release_buffer>
    14fa:	83 c4 10             	add    $0x10,%esp
    14fd:	e9 51 fe ff ff       	jmp    1353 <dplay+0xb3>
    1502:	8d b6 00 00 00 00    	lea    0x0(%esi),%esi
    1508:	57                   	push   %edi
    1509:	57                   	push   %edi
    150a:	53                   	push   %ebx
    150b:	68 9c 70 00 00       	push   $0x709c
    1510:	e8 1b 7e 00 00       	call   9330 <printf@plt>
    1515:	83 c4 10             	add    $0x10,%esp
    1518:	c7 85 60 ff ff ff 01 	movl   $0x1,-0xa0(%ebp)
    151f:	00 00 00 
    1522:	e9 2c fe ff ff       	jmp    1353 <dplay+0xb3>
    1527:	90                   	nop
    1528:	83 ec 0c             	sub    $0xc,%esp
    152b:	50                   	push   %eax
    152c:	e8 6f 81 00 00       	call   96a0 <str_error@plt>
    1531:	5b                   	pop    %ebx
    1532:	5e                   	pop    %esi
    1533:	50                   	push   %eax
    1534:	68 c4 70 00 00       	push   $0x70c4
    1539:	e8 f2 7d 00 00       	call   9330 <printf@plt>
    153e:	83 c4 10             	add    $0x10,%esp
    1541:	c7 85 60 ff ff ff 01 	movl   $0x1,-0xa0(%ebp)
    1548:	00 00 00 
    154b:	e9 03 fe ff ff       	jmp    1353 <dplay+0xb3>
    1550:	50                   	push   %eax
    1551:	50                   	push   %eax
    1552:	8b 45 e4             	mov    -0x1c(%ebp),%eax
    1555:	6a 03                	push   $0x3
    1557:	50                   	push   %eax
    1558:	e8 53 39 00 00       	call   4eb0 <audio_pcm_query_cap>
    155d:	83 c4 10             	add    $0x10,%esp
    1560:	85 c0                	test   %eax,%eax
    1562:	0f 8e 74 03 00 00    	jle    18dc <dplay+0x63c>
    1568:	8b 45 e4             	mov    -0x1c(%ebp),%eax
    156b:	85 c0                	test   %eax,%eax
    156d:	0f 84 6f 05 00 00    	je     1ae2 <dplay+0x842>
    1573:	8b 45 ac             	mov    -0x54(%ebp),%eax
    1576:	8b 55 c0             	mov    -0x40(%ebp),%edx
    1579:	89 45 b4             	mov    %eax,-0x4c(%ebp)
    157c:	8b 4d b8             	mov    -0x48(%ebp),%ecx
    157f:	b8 63 6e 00 00       	mov    $0x6e63,%eax
    1584:	83 fa 12             	cmp    $0x12,%edx
    1587:	0f 86 21 03 00 00    	jbe    18ae <dplay+0x60e>
    158d:	8b 7d bc             	mov    -0x44(%ebp),%edi
    1590:	51                   	push   %ecx
    1591:	50                   	push   %eax
    1592:	57                   	push   %edi
    1593:	68 04 71 00 00       	push   $0x7104
    1598:	e8 93 7d 00 00       	call   9330 <printf@plt>
    159d:	8d 85 78 ff ff ff    	lea    -0x88(%ebp),%eax
    15a3:	c7 85 74 ff ff ff 00 	movl   $0x0,-0x8c(%ebp)
    15aa:	00 00 00 
    15ad:	89 04 24             	mov    %eax,(%esp)
    15b0:	c7 85 78 ff ff ff 00 	movl   $0x0,-0x88(%ebp)
    15b7:	00 00 00 
    15ba:	c7 85 7c ff ff ff 00 	movl   $0x0,-0x84(%ebp)
    15c1:	00 00 00 
    15c4:	e8 47 80 00 00       	call   9610 <getuptime@plt>
    15c9:	83 c4 10             	add    $0x10,%esp
    15cc:	c6 85 5c ff ff ff 00 	movb   $0x0,-0xa4(%ebp)
    15d3:	90                   	nop
    15d4:	8d 74 26 00          	lea    0x0(%esi,%eiz,1),%esi
    15d8:	8b 45 ac             	mov    -0x54(%ebp),%eax
    15db:	8b 9d 74 ff ff ff    	mov    -0x8c(%ebp),%ebx
    15e1:	01 c3                	add    %eax,%ebx
    15e3:	8b 55 b4             	mov    -0x4c(%ebp),%edx
    15e6:	39 d3                	cmp    %edx,%ebx
    15e8:	0f 86 72 02 00 00    	jbe    1860 <dplay+0x5c0>
    15ee:	29 d3                	sub    %edx,%ebx
    15f0:	8b 4d b0             	mov    -0x50(%ebp),%ecx
    15f3:	4b                   	dec    %ebx
    15f4:	01 c8                	add    %ecx,%eax
    15f6:	8b 75 c4             	mov    -0x3c(%ebp),%esi
    15f9:	29 d0                	sub    %edx,%eax
    15fb:	56                   	push   %esi
    15fc:	39 d8                	cmp    %ebx,%eax
    15fe:	76 02                	jbe    1602 <dplay+0x362>
    1600:	89 d8                	mov    %ebx,%eax
    1602:	50                   	push   %eax
    1603:	6a 01                	push   $0x1
    1605:	52                   	push   %edx
    1606:	e8 55 7f 00 00       	call   9560 <fread@plt>
    160b:	8b 7d ac             	mov    -0x54(%ebp),%edi
    160e:	8b 55 b0             	mov    -0x50(%ebp),%edx
    1611:	89 c6                	mov    %eax,%esi
    1613:	8b 45 b4             	mov    -0x4c(%ebp),%eax
    1616:	01 f0                	add    %esi,%eax
    1618:	8d 0c 17             	lea    (%edi,%edx,1),%ecx
    161b:	83 c4 10             	add    $0x10,%esp
    161e:	89 45 b4             	mov    %eax,-0x4c(%ebp)
    1621:	39 c1                	cmp    %eax,%ecx
    1623:	77 0c                	ja     1631 <dplay+0x391>
    1625:	f7 da                	neg    %edx
    1627:	90                   	nop
    1628:	01 d0                	add    %edx,%eax
    162a:	39 c1                	cmp    %eax,%ecx
    162c:	76 fa                	jbe    1628 <dplay+0x388>
    162e:	89 45 b4             	mov    %eax,-0x4c(%ebp)
    1631:	29 f8                	sub    %edi,%eax
    1633:	52                   	push   %edx
    1634:	50                   	push   %eax
    1635:	8b 85 78 ff ff ff    	mov    -0x88(%ebp),%eax
    163b:	8b bd 7c ff ff ff    	mov    -0x84(%ebp),%edi
    1641:	8b 8d 74 ff ff ff    	mov    -0x8c(%ebp),%ecx
    1647:	89 c2                	mov    %eax,%edx
    1649:	56                   	push   %esi
    164a:	c1 fa 1f             	sar    $0x1f,%edx
    164d:	53                   	push   %ebx
    164e:	51                   	push   %ecx
    164f:	57                   	push   %edi
    1650:	bf 64 00 00 00       	mov    $0x64,%edi
    1655:	f7 ff                	idiv   %edi
    1657:	52                   	push   %edx
    1658:	89 df                	mov    %ebx,%edi
    165a:	68 28 71 00 00       	push   $0x7128
    165f:	e8 cc 7c 00 00       	call   9330 <printf@plt>
    1664:	83 c4 20             	add    $0x20,%esp
    1667:	29 f7                	sub    %esi,%edi
    1669:	74 7c                	je     16e7 <dplay+0x447>
    166b:	8b 45 c4             	mov    -0x3c(%ebp),%eax
    166e:	8b 4d ac             	mov    -0x54(%ebp),%ecx
    1671:	50                   	push   %eax
    1672:	8b 45 b0             	mov    -0x50(%ebp),%eax
    1675:	01 c8                	add    %ecx,%eax
    1677:	8b 55 b4             	mov    -0x4c(%ebp),%edx
    167a:	29 d0                	sub    %edx,%eax
    167c:	39 f8                	cmp    %edi,%eax
    167e:	76 02                	jbe    1682 <dplay+0x3e2>
    1680:	89 f8                	mov    %edi,%eax
    1682:	50                   	push   %eax
    1683:	6a 01                	push   $0x1
    1685:	52                   	push   %edx
    1686:	e8 d5 7e 00 00       	call   9560 <fread@plt>
    168b:	8b 75 ac             	mov    -0x54(%ebp),%esi
    168e:	8b 55 b0             	mov    -0x50(%ebp),%edx
    1691:	89 c3                	mov    %eax,%ebx
    1693:	8b 45 b4             	mov    -0x4c(%ebp),%eax
    1696:	01 d8                	add    %ebx,%eax
    1698:	8d 0c 16             	lea    (%esi,%edx,1),%ecx
    169b:	83 c4 10             	add    $0x10,%esp
    169e:	89 45 b4             	mov    %eax,-0x4c(%ebp)
    16a1:	39 c8                	cmp    %ecx,%eax
    16a3:	72 0c                	jb     16b1 <dplay+0x411>
    16a5:	f7 da                	neg    %edx
    16a7:	90                   	nop
    16a8:	01 d0                	add    %edx,%eax
    16aa:	39 c8                	cmp    %ecx,%eax
    16ac:	73 fa                	jae    16a8 <dplay+0x408>
    16ae:	89 45 b4             	mov    %eax,-0x4c(%ebp)
    16b1:	29 f0                	sub    %esi,%eax
    16b3:	52                   	push   %edx
    16b4:	50                   	push   %eax
    16b5:	8b 85 78 ff ff ff    	mov    -0x88(%ebp),%eax
    16bb:	8b b5 7c ff ff ff    	mov    -0x84(%ebp),%esi
    16c1:	8b 8d 74 ff ff ff    	mov    -0x8c(%ebp),%ecx
    16c7:	89 c2                	mov    %eax,%edx
    16c9:	53                   	push   %ebx
    16ca:	c1 fa 1f             	sar    $0x1f,%edx
    16cd:	57                   	push   %edi
    16ce:	51                   	push   %ecx
    16cf:	56                   	push   %esi
    16d0:	be 64 00 00 00       	mov    $0x64,%esi
    16d5:	29 df                	sub    %ebx,%edi
    16d7:	f7 fe                	idiv   %esi
    16d9:	52                   	push   %edx
    16da:	68 6c 71 00 00       	push   $0x716c
    16df:	e8 4c 7c 00 00       	call   9330 <printf@plt>
    16e4:	83 c4 20             	add    $0x20,%esp
    16e7:	80 bd 5c ff ff ff 00 	cmpb   $0x0,-0xa4(%ebp)
    16ee:	75 3d                	jne    172d <dplay+0x48d>
    16f0:	8b 45 b8             	mov    -0x48(%ebp),%eax
    16f3:	8b 5d c0             	mov    -0x40(%ebp),%ebx
    16f6:	8b 75 bc             	mov    -0x44(%ebp),%esi
    16f9:	53                   	push   %ebx
    16fa:	56                   	push   %esi
    16fb:	50                   	push   %eax
    16fc:	8b 45 e4             	mov    -0x1c(%ebp),%eax
    16ff:	50                   	push   %eax
    1700:	e8 7b 3c 00 00       	call   5380 <audio_pcm_start_playback>
    1705:	83 c4 10             	add    $0x10,%esp
    1708:	85 c0                	test   %eax,%eax
    170a:	0f 85 42 03 00 00    	jne    1a52 <dplay+0x7b2>
    1710:	50                   	push   %eax
    1711:	50                   	push   %eax
    1712:	8d 85 74 ff ff ff    	lea    -0x8c(%ebp),%eax
    1718:	50                   	push   %eax
    1719:	8b 45 e4             	mov    -0x1c(%ebp),%eax
    171c:	50                   	push   %eax
    171d:	e8 ee 37 00 00       	call   4f10 <audio_pcm_get_buffer_pos>
    1722:	83 c4 10             	add    $0x10,%esp
    1725:	85 c0                	test   %eax,%eax
    1727:	0f 85 63 01 00 00    	jne    1890 <dplay+0x5f0>
    172d:	8b 85 74 ff ff ff    	mov    -0x8c(%ebp),%eax
    1733:	8b 55 ac             	mov    -0x54(%ebp),%edx
    1736:	01 c2                	add    %eax,%edx
    1738:	89 85 5c ff ff ff    	mov    %eax,-0xa4(%ebp)
    173e:	8b 45 b4             	mov    -0x4c(%ebp),%eax
    1741:	89 c6                	mov    %eax,%esi
    1743:	29 d6                	sub    %edx,%esi
    1745:	39 c2                	cmp    %eax,%edx
    1747:	76 09                	jbe    1752 <dplay+0x4b2>
    1749:	8b 4d b0             	mov    -0x50(%ebp),%ecx
    174c:	01 c8                	add    %ecx,%eax
    174e:	89 c6                	mov    %eax,%esi
    1750:	29 d6                	sub    %edx,%esi
    1752:	8b 45 c0             	mov    -0x40(%ebp),%eax
    1755:	31 db                	xor    %ebx,%ebx
    1757:	8b 4d bc             	mov    -0x44(%ebp),%ecx
    175a:	83 f8 12             	cmp    $0x12,%eax
    175d:	77 0d                	ja     176c <dplay+0x4cc>
    175f:	8b 5d b8             	mov    -0x48(%ebp),%ebx
    1762:	8b 14 85 c0 73 00 00 	mov    0x73c0(,%eax,4),%edx
    1769:	0f af da             	imul   %edx,%ebx
    176c:	8d 44 1e ff          	lea    -0x1(%esi,%ebx,1),%eax
    1770:	31 d2                	xor    %edx,%edx
    1772:	f7 f3                	div    %ebx
    1774:	ba 40 42 0f 00       	mov    $0xf4240,%edx
    1779:	31 db                	xor    %ebx,%ebx
    177b:	f7 e2                	mul    %edx
    177d:	53                   	push   %ebx
    177e:	51                   	push   %ecx
    177f:	52                   	push   %edx
    1780:	50                   	push   %eax
    1781:	e8 da 7c 00 00       	call   9460 <__udivdi3@plt>
    1786:	83 c4 10             	add    $0x10,%esp
    1789:	3d 50 c3 00 00       	cmp    $0xc350,%eax
    178e:	0f 86 94 00 00 00    	jbe    1828 <dplay+0x588>
    1794:	8d 98 b0 3c ff ff    	lea    -0xc350(%eax),%ebx
    179a:	52                   	push   %edx
    179b:	56                   	push   %esi
    179c:	53                   	push   %ebx
    179d:	50                   	push   %eax
    179e:	8b 85 78 ff ff ff    	mov    -0x88(%ebp),%eax
    17a4:	8b 8d 5c ff ff ff    	mov    -0xa4(%ebp),%ecx
    17aa:	8b b5 7c ff ff ff    	mov    -0x84(%ebp),%esi
    17b0:	89 c2                	mov    %eax,%edx
    17b2:	51                   	push   %ecx
    17b3:	c1 fa 1f             	sar    $0x1f,%edx
    17b6:	56                   	push   %esi
    17b7:	be 64 00 00 00       	mov    $0x64,%esi
    17bc:	f7 fe                	idiv   %esi
    17be:	52                   	push   %edx
    17bf:	68 e0 71 00 00       	push   $0x71e0
    17c4:	e8 67 7b 00 00       	call   9330 <printf@plt>
    17c9:	83 c4 14             	add    $0x14,%esp
    17cc:	53                   	push   %ebx
    17cd:	e8 2e 7e 00 00       	call   9600 <async_usleep@plt>
    17d2:	83 c4 10             	add    $0x10,%esp
    17d5:	8d 85 74 ff ff ff    	lea    -0x8c(%ebp),%eax
    17db:	8b 75 e4             	mov    -0x1c(%ebp),%esi
    17de:	53                   	push   %ebx
    17df:	53                   	push   %ebx
    17e0:	50                   	push   %eax
    17e1:	56                   	push   %esi
    17e2:	e8 29 37 00 00       	call   4f10 <audio_pcm_get_buffer_pos>
    17e7:	83 c4 10             	add    $0x10,%esp
    17ea:	85 c0                	test   %eax,%eax
    17ec:	0f 85 7e 00 00 00    	jne    1870 <dplay+0x5d0>
    17f2:	83 ec 0c             	sub    $0xc,%esp
    17f5:	8d 85 78 ff ff ff    	lea    -0x88(%ebp),%eax
    17fb:	50                   	push   %eax
    17fc:	e8 0f 7e 00 00       	call   9610 <getuptime@plt>
    1801:	83 c4 10             	add    $0x10,%esp
    1804:	c6 85 5c ff ff ff 01 	movb   $0x1,-0xa4(%ebp)
    180b:	85 ff                	test   %edi,%edi
    180d:	0f 84 c5 fd ff ff    	je     15d8 <dplay+0x338>
    1813:	83 ec 0c             	sub    $0xc,%esp
    1816:	8b 45 e4             	mov    -0x1c(%ebp),%eax
    1819:	50                   	push   %eax
    181a:	e8 f1 3b 00 00       	call   5410 <audio_pcm_stop_playback_immediate>
    181f:	83 c4 10             	add    $0x10,%esp
    1822:	e9 b3 fc ff ff       	jmp    14da <dplay+0x23a>
    1827:	90                   	nop
    1828:	52                   	push   %edx
    1829:	56                   	push   %esi
    182a:	6a 00                	push   $0x0
    182c:	50                   	push   %eax
    182d:	8b 85 78 ff ff ff    	mov    -0x88(%ebp),%eax
    1833:	be 64 00 00 00       	mov    $0x64,%esi
    1838:	89 c2                	mov    %eax,%edx
    183a:	8b 8d 5c ff ff ff    	mov    -0xa4(%ebp),%ecx
    1840:	c1 fa 1f             	sar    $0x1f,%edx
    1843:	8b 9d 7c ff ff ff    	mov    -0x84(%ebp),%ebx
    1849:	f7 fe                	idiv   %esi
    184b:	51                   	push   %ecx
    184c:	53                   	push   %ebx
    184d:	52                   	push   %edx
    184e:	68 e0 71 00 00       	push   $0x71e0
    1853:	e8 d8 7a 00 00       	call   9330 <printf@plt>
    1858:	83 c4 20             	add    $0x20,%esp
    185b:	e9 75 ff ff ff       	jmp    17d5 <dplay+0x535>
    1860:	8b 4d b0             	mov    -0x50(%ebp),%ecx
    1863:	01 cb                	add    %ecx,%ebx
    1865:	29 d3                	sub    %edx,%ebx
    1867:	4b                   	dec    %ebx
    1868:	e9 87 fd ff ff       	jmp    15f4 <dplay+0x354>
    186d:	8d 76 00             	lea    0x0(%esi),%esi
    1870:	83 ec 0c             	sub    $0xc,%esp
    1873:	50                   	push   %eax
    1874:	e8 27 7e 00 00       	call   96a0 <str_error@plt>
    1879:	5a                   	pop    %edx
    187a:	59                   	pop    %ecx
    187b:	50                   	push   %eax
    187c:	68 b8 71 00 00       	push   $0x71b8
    1881:	e8 aa 7a 00 00       	call   9330 <printf@plt>
    1886:	83 c4 10             	add    $0x10,%esp
    1889:	e9 64 ff ff ff       	jmp    17f2 <dplay+0x552>
    188e:	66 90                	xchg   %ax,%ax
    1890:	83 ec 0c             	sub    $0xc,%esp
    1893:	50                   	push   %eax
    1894:	e8 07 7e 00 00       	call   96a0 <str_error@plt>
    1899:	5b                   	pop    %ebx
    189a:	5e                   	pop    %esi
    189b:	50                   	push   %eax
    189c:	68 b8 71 00 00       	push   $0x71b8
    18a1:	e8 8a 7a 00 00       	call   9330 <printf@plt>
    18a6:	83 c4 10             	add    $0x10,%esp
    18a9:	e9 7f fe ff ff       	jmp    172d <dplay+0x48d>
    18ae:	8b 04 95 60 73 00 00 	mov    0x7360(,%edx,4),%eax
    18b5:	e9 d3 fc ff ff       	jmp    158d <dplay+0x2ed>
    18ba:	8b 4d 0c             	mov    0xc(%ebp),%ecx
    18bd:	52                   	push   %edx
    18be:	52                   	push   %edx
    18bf:	51                   	push   %ecx
    18c0:	68 da 6e 00 00       	push   $0x6eda
    18c5:	e8 66 7a 00 00       	call   9330 <printf@plt>
    18ca:	83 c4 10             	add    $0x10,%esp
    18cd:	c7 85 60 ff ff ff 01 	movl   $0x1,-0xa0(%ebp)
    18d4:	00 00 00 
    18d7:	e9 fe fb ff ff       	jmp    14da <dplay+0x23a>
    18dc:	50                   	push   %eax
    18dd:	50                   	push   %eax
    18de:	8b 45 e4             	mov    -0x1c(%ebp),%eax
    18e1:	6a 04                	push   $0x4
    18e3:	50                   	push   %eax
    18e4:	e8 c7 35 00 00       	call   4eb0 <audio_pcm_query_cap>
    18e9:	83 c4 10             	add    $0x10,%esp
    18ec:	85 c0                	test   %eax,%eax
    18ee:	0f 8e 7c 01 00 00    	jle    1a70 <dplay+0x7d0>
    18f4:	8b 45 e4             	mov    -0x1c(%ebp),%eax
    18f7:	85 c0                	test   %eax,%eax
    18f9:	0f 84 f8 01 00 00    	je     1af7 <dplay+0x857>
    18ff:	83 ec 0c             	sub    $0xc,%esp
    1902:	8b 45 b0             	mov    -0x50(%ebp),%eax
    1905:	d1 e8                	shr    %eax
    1907:	68 25 6f 00 00       	push   $0x6f25
    190c:	89 85 5c ff ff ff    	mov    %eax,-0xa4(%ebp)
    1912:	e8 19 7a 00 00       	call   9330 <printf@plt>
    1917:	83 c4 0c             	add    $0xc,%esp
    191a:	57                   	push   %edi
    191b:	8b 7d e4             	mov    -0x1c(%ebp),%edi
    191e:	68 40 11 00 00       	push   $0x1140
    1923:	57                   	push   %edi
    1924:	e8 97 37 00 00       	call   50c0 <audio_pcm_register_event_callback>
    1929:	83 c4 10             	add    $0x10,%esp
    192c:	85 c0                	test   %eax,%eax
    192e:	0f 85 90 01 00 00    	jne    1ac4 <dplay+0x824>
    1934:	8b 55 c0             	mov    -0x40(%ebp),%edx
    1937:	8b 4d b8             	mov    -0x48(%ebp),%ecx
    193a:	b8 63 6e 00 00       	mov    $0x6e63,%eax
    193f:	83 fa 12             	cmp    $0x12,%edx
    1942:	77 07                	ja     194b <dplay+0x6ab>
    1944:	8b 04 95 60 73 00 00 	mov    0x7360(,%edx,4),%eax
    194b:	8b 7d bc             	mov    -0x44(%ebp),%edi
    194e:	51                   	push   %ecx
    194f:	50                   	push   %eax
    1950:	57                   	push   %edi
    1951:	68 04 71 00 00       	push   $0x7104
    1956:	e8 d5 79 00 00       	call   9330 <printf@plt>
    195b:	8b 45 c4             	mov    -0x3c(%ebp),%eax
    195e:	50                   	push   %eax
    195f:	8b 85 5c ff ff ff    	mov    -0xa4(%ebp),%eax
    1965:	50                   	push   %eax
    1966:	8b 45 ac             	mov    -0x54(%ebp),%eax
    1969:	6a 01                	push   $0x1
    196b:	50                   	push   %eax
    196c:	e8 ef 7b 00 00       	call   9560 <fread@plt>
    1971:	83 c4 20             	add    $0x20,%esp
    1974:	89 c7                	mov    %eax,%edi
    1976:	8b 85 5c ff ff ff    	mov    -0xa4(%ebp),%eax
    197c:	39 f8                	cmp    %edi,%eax
    197e:	74 14                	je     1994 <dplay+0x6f4>
    1980:	29 f8                	sub    %edi,%eax
    1982:	51                   	push   %ecx
    1983:	50                   	push   %eax
    1984:	8b 45 ac             	mov    -0x54(%ebp),%eax
    1987:	01 f8                	add    %edi,%eax
    1989:	6a 00                	push   $0x0
    198b:	50                   	push   %eax
    198c:	e8 ff 7b 00 00       	call   9590 <memset@plt>
    1991:	83 c4 10             	add    $0x10,%esp
    1994:	8b 85 5c ff ff ff    	mov    -0xa4(%ebp),%eax
    199a:	50                   	push   %eax
    199b:	8b 45 ac             	mov    -0x54(%ebp),%eax
    199e:	57                   	push   %edi
    199f:	50                   	push   %eax
    19a0:	68 44 72 00 00       	push   $0x7244
    19a5:	e8 86 79 00 00       	call   9330 <printf@plt>
    19aa:	8b 55 ac             	mov    -0x54(%ebp),%edx
    19ad:	8b 85 5c ff ff ff    	mov    -0xa4(%ebp),%eax
    19b3:	01 d0                	add    %edx,%eax
    19b5:	89 1c 24             	mov    %ebx,(%esp)
    19b8:	89 45 b4             	mov    %eax,-0x4c(%ebp)
    19bb:	e8 a0 7d 00 00       	call   9760 <fibril_mutex_lock@plt>
    19c0:	8b 45 c0             	mov    -0x40(%ebp),%eax
    19c3:	83 c4 10             	add    $0x10,%esp
    19c6:	31 c9                	xor    %ecx,%ecx
    19c8:	8b 55 b8             	mov    -0x48(%ebp),%edx
    19cb:	83 f8 12             	cmp    $0x12,%eax
    19ce:	77 0a                	ja     19da <dplay+0x73a>
    19d0:	8b 0c 85 c0 73 00 00 	mov    0x73c0(,%eax,4),%ecx
    19d7:	0f af ca             	imul   %edx,%ecx
    19da:	83 ec 0c             	sub    $0xc,%esp
    19dd:	50                   	push   %eax
    19de:	8b 45 bc             	mov    -0x44(%ebp),%eax
    19e1:	50                   	push   %eax
    19e2:	8b 85 5c ff ff ff    	mov    -0xa4(%ebp),%eax
    19e8:	52                   	push   %edx
    19e9:	31 d2                	xor    %edx,%edx
    19eb:	8d 44 08 ff          	lea    -0x1(%eax,%ecx,1),%eax
    19ef:	f7 f1                	div    %ecx
    19f1:	50                   	push   %eax
    19f2:	8b 45 e4             	mov    -0x1c(%ebp),%eax
    19f5:	50                   	push   %eax
    19f6:	e8 a5 38 00 00       	call   52a0 <audio_pcm_start_playback_fragment>
    19fb:	83 c4 20             	add    $0x20,%esp
    19fe:	89 85 60 ff ff ff    	mov    %eax,-0xa0(%ebp)
    1a04:	85 c0                	test   %eax,%eax
    1a06:	75 7d                	jne    1a85 <dplay+0x7e5>
    1a08:	c6 45 c8 01          	movb   $0x1,-0x38(%ebp)
    1a0c:	8a 45 c8             	mov    -0x38(%ebp),%al
    1a0f:	84 c0                	test   %al,%al
    1a11:	74 18                	je     1a2b <dplay+0x78b>
    1a13:	90                   	nop
    1a14:	8d 74 26 00          	lea    0x0(%esi,%eiz,1),%esi
    1a18:	50                   	push   %eax
    1a19:	50                   	push   %eax
    1a1a:	53                   	push   %ebx
    1a1b:	56                   	push   %esi
    1a1c:	e8 1f 7a 00 00       	call   9440 <fibril_condvar_wait@plt>
    1a21:	8a 45 c8             	mov    -0x38(%ebp),%al
    1a24:	83 c4 10             	add    $0x10,%esp
    1a27:	84 c0                	test   %al,%al
    1a29:	75 ed                	jne    1a18 <dplay+0x778>
    1a2b:	83 ec 0c             	sub    $0xc,%esp
    1a2e:	53                   	push   %ebx
    1a2f:	e8 cc 7a 00 00       	call   9500 <fibril_mutex_unlock@plt>
    1a34:	c7 04 24 5a 79 00 00 	movl   $0x795a,(%esp)
    1a3b:	e8 f0 78 00 00       	call   9330 <printf@plt>
    1a40:	8b 55 e4             	mov    -0x1c(%ebp),%edx
    1a43:	58                   	pop    %eax
    1a44:	52                   	push   %edx
    1a45:	e8 06 37 00 00       	call   5150 <audio_pcm_unregister_event_callback>
    1a4a:	83 c4 10             	add    $0x10,%esp
    1a4d:	e9 88 fa ff ff       	jmp    14da <dplay+0x23a>
    1a52:	83 ec 0c             	sub    $0xc,%esp
    1a55:	50                   	push   %eax
    1a56:	e8 45 7c 00 00       	call   96a0 <str_error@plt>
    1a5b:	5a                   	pop    %edx
    1a5c:	59                   	pop    %ecx
    1a5d:	50                   	push   %eax
    1a5e:	68 07 6f 00 00       	push   $0x6f07
    1a63:	e8 c8 78 00 00       	call   9330 <printf@plt>
    1a68:	83 c4 10             	add    $0x10,%esp
    1a6b:	e9 6a fa ff ff       	jmp    14da <dplay+0x23a>
    1a70:	83 ec 0c             	sub    $0xc,%esp
    1a73:	68 94 72 00 00       	push   $0x7294
    1a78:	e8 b3 78 00 00       	call   9330 <printf@plt>
    1a7d:	83 c4 10             	add    $0x10,%esp
    1a80:	e9 55 fa ff ff       	jmp    14da <dplay+0x23a>
    1a85:	83 ec 0c             	sub    $0xc,%esp
    1a88:	53                   	push   %ebx
    1a89:	e8 72 7a 00 00       	call   9500 <fibril_mutex_unlock@plt>
    1a8e:	8b 9d 60 ff ff ff    	mov    -0xa0(%ebp),%ebx
    1a94:	59                   	pop    %ecx
    1a95:	53                   	push   %ebx
    1a96:	e8 05 7c 00 00       	call   96a0 <str_error@plt>
    1a9b:	5e                   	pop    %esi
    1a9c:	5f                   	pop    %edi
    1a9d:	50                   	push   %eax
    1a9e:	68 74 72 00 00       	push   $0x7274
    1aa3:	e8 88 78 00 00       	call   9330 <printf@plt>
    1aa8:	58                   	pop    %eax
    1aa9:	8b 45 e4             	mov    -0x1c(%ebp),%eax
    1aac:	50                   	push   %eax
    1aad:	e8 9e 36 00 00       	call   5150 <audio_pcm_unregister_event_callback>
    1ab2:	83 c4 10             	add    $0x10,%esp
    1ab5:	c7 85 60 ff ff ff 00 	movl   $0x0,-0xa0(%ebp)
    1abc:	00 00 00 
    1abf:	e9 16 fa ff ff       	jmp    14da <dplay+0x23a>
    1ac4:	83 ec 0c             	sub    $0xc,%esp
    1ac7:	50                   	push   %eax
    1ac8:	e8 d3 7b 00 00       	call   96a0 <str_error@plt>
    1acd:	5a                   	pop    %edx
    1ace:	59                   	pop    %ecx
    1acf:	50                   	push   %eax
    1ad0:	68 1c 72 00 00       	push   $0x721c
    1ad5:	e8 56 78 00 00       	call   9330 <printf@plt>
    1ada:	83 c4 10             	add    $0x10,%esp
    1add:	e9 f8 f9 ff ff       	jmp    14da <dplay+0x23a>
    1ae2:	50                   	push   %eax
    1ae3:	68 fa 00 00 00       	push   $0xfa
    1ae8:	68 f4 6e 00 00       	push   $0x6ef4
    1aed:	68 fc 6e 00 00       	push   $0x6efc
    1af2:	e8 a9 79 00 00       	call   94a0 <assert_abort@plt>
    1af7:	50                   	push   %eax
    1af8:	68 93 00 00 00       	push   $0x93
    1afd:	68 f4 6e 00 00       	push   $0x6ef4
    1b02:	68 fc 6e 00 00       	push   $0x6efc
    1b07:	e8 94 79 00 00       	call   94a0 <assert_abort@plt>
    1b0c:	66 90                	xchg   %ax,%ax
    1b0e:	66 90                	xchg   %ax,%ax

00001b10 <device_event_callback>:
    1b10:	55                   	push   %ebp
    1b11:	89 e5                	mov    %esp,%ebp
    1b13:	57                   	push   %edi
    1b14:	56                   	push   %esi
    1b15:	53                   	push   %ebx
    1b16:	83 ec 54             	sub    $0x54,%esp
    1b19:	8d 7d c4             	lea    -0x3c(%ebp),%edi
    1b1c:	8b 5d 10             	mov    0x10(%ebp),%ebx
    1b1f:	8b 75 08             	mov    0x8(%ebp),%esi
    1b22:	6a 00                	push   $0x0
    1b24:	56                   	push   %esi
    1b25:	e8 06 79 00 00       	call   9430 <async_answer_0@plt>
    1b2a:	8b 43 04             	mov    0x4(%ebx),%eax
    1b2d:	c1 e8 04             	shr    $0x4,%eax
    1b30:	83 c4 10             	add    $0x10,%esp
    1b33:	89 45 b4             	mov    %eax,-0x4c(%ebp)
    1b36:	66 90                	xchg   %ax,%ax
    1b38:	50                   	push   %eax
    1b39:	50                   	push   %eax
    1b3a:	6a 00                	push   $0x0
    1b3c:	57                   	push   %edi
    1b3d:	e8 0e 7b 00 00       	call   9650 <async_get_call_timeout@plt>
    1b42:	83 c4 10             	add    $0x10,%esp
    1b45:	89 c6                	mov    %eax,%esi
    1b47:	8b 45 c4             	mov    -0x3c(%ebp),%eax
    1b4a:	3d 03 04 00 00       	cmp    $0x403,%eax
    1b4f:	74 2f                	je     1b80 <device_event_callback+0x70>
    1b51:	3d 05 04 00 00       	cmp    $0x405,%eax
    1b56:	0f 85 84 00 00 00    	jne    1be0 <device_event_callback+0xd0>
    1b5c:	83 ec 0c             	sub    $0xc,%esp
    1b5f:	68 0c 74 00 00       	push   $0x740c
    1b64:	e8 c7 77 00 00       	call   9330 <printf@plt>
    1b69:	59                   	pop    %ecx
    1b6a:	5b                   	pop    %ebx
    1b6b:	6a 00                	push   $0x0
    1b6d:	56                   	push   %esi
    1b6e:	e8 bd 78 00 00       	call   9430 <async_answer_0@plt>
    1b73:	8d 65 f4             	lea    -0xc(%ebp),%esp
    1b76:	5b                   	pop    %ebx
    1b77:	5e                   	pop    %esi
    1b78:	5f                   	pop    %edi
    1b79:	5d                   	pop    %ebp
    1b7a:	c3                   	ret    
    1b7b:	90                   	nop
    1b7c:	8d 74 26 00          	lea    0x0(%esi,%eiz,1),%esi
    1b80:	8b 45 c8             	mov    -0x38(%ebp),%eax
    1b83:	51                   	push   %ecx
    1b84:	51                   	push   %ecx
    1b85:	50                   	push   %eax
    1b86:	68 22 74 00 00       	push   $0x7422
    1b8b:	e8 a0 77 00 00       	call   9330 <printf@plt>
    1b90:	8b 43 10             	mov    0x10(%ebx),%eax
    1b93:	50                   	push   %eax
    1b94:	8b 45 b4             	mov    -0x4c(%ebp),%eax
    1b97:	50                   	push   %eax
    1b98:	8b 43 0c             	mov    0xc(%ebx),%eax
    1b9b:	6a 01                	push   $0x1
    1b9d:	50                   	push   %eax
    1b9e:	e8 0d 7b 00 00       	call   96b0 <fwrite@plt>
    1ba3:	83 c4 18             	add    $0x18,%esp
    1ba6:	50                   	push   %eax
    1ba7:	68 2d 74 00 00       	push   $0x742d
    1bac:	e8 7f 77 00 00       	call   9330 <printf@plt>
    1bb1:	8b 53 0c             	mov    0xc(%ebx),%edx
    1bb4:	8b 45 b4             	mov    -0x4c(%ebp),%eax
    1bb7:	8b 4b 04             	mov    0x4(%ebx),%ecx
    1bba:	01 d0                	add    %edx,%eax
    1bbc:	8b 13                	mov    (%ebx),%edx
    1bbe:	01 d1                	add    %edx,%ecx
    1bc0:	83 c4 10             	add    $0x10,%esp
    1bc3:	89 43 0c             	mov    %eax,0xc(%ebx)
    1bc6:	39 c8                	cmp    %ecx,%eax
    1bc8:	72 03                	jb     1bcd <device_event_callback+0xbd>
    1bca:	89 53 0c             	mov    %edx,0xc(%ebx)
    1bcd:	52                   	push   %edx
    1bce:	52                   	push   %edx
    1bcf:	6a 00                	push   $0x0
    1bd1:	56                   	push   %esi
    1bd2:	e8 59 78 00 00       	call   9430 <async_answer_0@plt>
    1bd7:	83 c4 10             	add    $0x10,%esp
    1bda:	e9 59 ff ff ff       	jmp    1b38 <device_event_callback+0x28>
    1bdf:	90                   	nop
    1be0:	51                   	push   %ecx
    1be1:	51                   	push   %ecx
    1be2:	50                   	push   %eax
    1be3:	68 50 6e 00 00       	push   $0x6e50
    1be8:	e8 43 77 00 00       	call   9330 <printf@plt>
    1bed:	58                   	pop    %eax
    1bee:	5a                   	pop    %edx
    1bef:	6a f5                	push   $0xfffffff5
    1bf1:	56                   	push   %esi
    1bf2:	e8 39 78 00 00       	call   9430 <async_answer_0@plt>
    1bf7:	83 c4 10             	add    $0x10,%esp
    1bfa:	e9 39 ff ff ff       	jmp    1b38 <device_event_callback+0x28>
    1bff:	90                   	nop

00001c00 <drecord>:
    1c00:	55                   	push   %ebp
    1c01:	89 e5                	mov    %esp,%ebp
    1c03:	57                   	push   %edi
    1c04:	56                   	push   %esi
    1c05:	53                   	push   %ebx
    1c06:	83 ec 64             	sub    $0x64,%esp
    1c09:	8b 75 08             	mov    0x8(%ebp),%esi
    1c0c:	68 79 6e 00 00       	push   $0x6e79
    1c11:	56                   	push   %esi
    1c12:	e8 39 79 00 00       	call   9550 <str_cmp@plt>
    1c17:	83 c4 10             	add    $0x10,%esp
    1c1a:	85 c0                	test   %eax,%eax
    1c1c:	75 72                	jne    1c90 <drecord+0x90>
    1c1e:	e8 7d 30 00 00       	call   4ca0 <audio_pcm_open_default>
    1c23:	89 c3                	mov    %eax,%ebx
    1c25:	85 db                	test   %ebx,%ebx
    1c27:	74 79                	je     1ca2 <drecord+0xa2>
    1c29:	52                   	push   %edx
    1c2a:	52                   	push   %edx
    1c2b:	56                   	push   %esi
    1c2c:	68 32 74 00 00       	push   $0x7432
    1c31:	e8 fa 76 00 00       	call   9330 <printf@plt>
    1c36:	59                   	pop    %ecx
    1c37:	5f                   	pop    %edi
    1c38:	6a 00                	push   $0x0
    1c3a:	53                   	push   %ebx
    1c3b:	e8 70 32 00 00       	call   4eb0 <audio_pcm_query_cap>
    1c40:	83 c4 10             	add    $0x10,%esp
    1c43:	85 c0                	test   %eax,%eax
    1c45:	0f 8e 55 02 00 00    	jle    1ea0 <drecord+0x2a0>
    1c4b:	50                   	push   %eax
    1c4c:	50                   	push   %eax
    1c4d:	8d 45 a0             	lea    -0x60(%ebp),%eax
    1c50:	c7 45 a0 00 00 00 00 	movl   $0x0,-0x60(%ebp)
    1c57:	50                   	push   %eax
    1c58:	53                   	push   %ebx
    1c59:	e8 62 31 00 00       	call   4dc0 <audio_pcm_get_info_str>
    1c5e:	83 c4 10             	add    $0x10,%esp
    1c61:	85 c0                	test   %eax,%eax
    1c63:	74 63                	je     1cc8 <drecord+0xc8>
    1c65:	83 ec 0c             	sub    $0xc,%esp
    1c68:	be 01 00 00 00       	mov    $0x1,%esi
    1c6d:	68 4c 74 00 00       	push   $0x744c
    1c72:	e8 b9 76 00 00       	call   9330 <printf@plt>
    1c77:	83 c4 10             	add    $0x10,%esp
    1c7a:	83 ec 0c             	sub    $0xc,%esp
    1c7d:	53                   	push   %ebx
    1c7e:	e8 1d 31 00 00       	call   4da0 <audio_pcm_close>
    1c83:	83 c4 10             	add    $0x10,%esp
    1c86:	8d 65 f4             	lea    -0xc(%ebp),%esp
    1c89:	89 f0                	mov    %esi,%eax
    1c8b:	5b                   	pop    %ebx
    1c8c:	5e                   	pop    %esi
    1c8d:	5f                   	pop    %edi
    1c8e:	5d                   	pop    %ebp
    1c8f:	c3                   	ret    
    1c90:	83 ec 0c             	sub    $0xc,%esp
    1c93:	56                   	push   %esi
    1c94:	e8 a7 30 00 00       	call   4d40 <audio_pcm_open>
    1c99:	89 c3                	mov    %eax,%ebx
    1c9b:	83 c4 10             	add    $0x10,%esp
    1c9e:	85 db                	test   %ebx,%ebx
    1ca0:	75 87                	jne    1c29 <drecord+0x29>
    1ca2:	50                   	push   %eax
    1ca3:	50                   	push   %eax
    1ca4:	56                   	push   %esi
    1ca5:	68 78 70 00 00       	push   $0x7078
    1caa:	e8 81 76 00 00       	call   9330 <printf@plt>
    1caf:	83 c4 10             	add    $0x10,%esp
    1cb2:	8d 65 f4             	lea    -0xc(%ebp),%esp
    1cb5:	be 01 00 00 00       	mov    $0x1,%esi
    1cba:	89 f0                	mov    %esi,%eax
    1cbc:	5b                   	pop    %ebx
    1cbd:	5e                   	pop    %esi
    1cbe:	5f                   	pop    %edi
    1cbf:	5d                   	pop    %ebp
    1cc0:	c3                   	ret    
    1cc1:	8d b4 26 00 00 00 00 	lea    0x0(%esi,%eiz,1),%esi
    1cc8:	50                   	push   %eax
    1cc9:	50                   	push   %eax
    1cca:	8b 45 a0             	mov    -0x60(%ebp),%eax
    1ccd:	8d 7d a4             	lea    -0x5c(%ebp),%edi
    1cd0:	50                   	push   %eax
    1cd1:	68 65 74 00 00       	push   $0x7465
    1cd6:	e8 55 76 00 00       	call   9330 <printf@plt>
    1cdb:	58                   	pop    %eax
    1cdc:	8b 45 a0             	mov    -0x60(%ebp),%eax
    1cdf:	50                   	push   %eax
    1ce0:	e8 6b 7a 00 00       	call   9750 <free@plt>
    1ce5:	83 c4 0c             	add    $0xc,%esp
    1ce8:	8d 45 a8             	lea    -0x58(%ebp),%eax
    1ceb:	c7 45 a4 00 00 00 00 	movl   $0x0,-0x5c(%ebp)
    1cf2:	c7 45 a8 00 00 00 00 	movl   $0x0,-0x58(%ebp)
    1cf9:	50                   	push   %eax
    1cfa:	c7 45 b0 00 00 00 00 	movl   $0x0,-0x50(%ebp)
    1d01:	57                   	push   %edi
    1d02:	c7 45 b4 00 00 00 00 	movl   $0x0,-0x4c(%ebp)
    1d09:	53                   	push   %ebx
    1d0a:	89 5d b8             	mov    %ebx,-0x48(%ebp)
    1d0d:	e8 8e 34 00 00       	call   51a0 <audio_pcm_get_buffer>
    1d12:	83 c4 10             	add    $0x10,%esp
    1d15:	89 c6                	mov    %eax,%esi
    1d17:	85 c0                	test   %eax,%eax
    1d19:	0f 85 a1 01 00 00    	jne    1ec0 <drecord+0x2c0>
    1d1f:	50                   	push   %eax
    1d20:	8b 45 a8             	mov    -0x58(%ebp),%eax
    1d23:	50                   	push   %eax
    1d24:	8b 45 a4             	mov    -0x5c(%ebp),%eax
    1d27:	50                   	push   %eax
    1d28:	68 c6 6e 00 00       	push   $0x6ec6
    1d2d:	e8 fe 75 00 00       	call   9330 <printf@plt>
    1d32:	8b 4d 0c             	mov    0xc(%ebp),%ecx
    1d35:	58                   	pop    %eax
    1d36:	5a                   	pop    %edx
    1d37:	68 77 74 00 00       	push   $0x7477
    1d3c:	51                   	push   %ecx
    1d3d:	e8 3e 78 00 00       	call   9580 <fopen@plt>
    1d42:	83 c4 10             	add    $0x10,%esp
    1d45:	89 45 b4             	mov    %eax,-0x4c(%ebp)
    1d48:	85 c0                	test   %eax,%eax
    1d4a:	0f 84 d0 01 00 00    	je     1f20 <drecord+0x320>
    1d50:	6a 00                	push   $0x0
    1d52:	6a 00                	push   $0x0
    1d54:	6a 2c                	push   $0x2c
    1d56:	50                   	push   %eax
    1d57:	e8 94 77 00 00       	call   94f0 <fseek@plt>
    1d5c:	8b 4d b8             	mov    -0x48(%ebp),%ecx
    1d5f:	58                   	pop    %eax
    1d60:	5a                   	pop    %edx
    1d61:	6a 04                	push   $0x4
    1d63:	51                   	push   %ecx
    1d64:	e8 47 31 00 00       	call   4eb0 <audio_pcm_query_cap>
    1d69:	83 c4 10             	add    $0x10,%esp
    1d6c:	85 c0                	test   %eax,%eax
    1d6e:	0f 8e 94 01 00 00    	jle    1f08 <drecord+0x308>
    1d74:	8b 45 b8             	mov    -0x48(%ebp),%eax
    1d77:	85 c0                	test   %eax,%eax
    1d79:	0f 84 df 01 00 00    	je     1f5e <drecord+0x35e>
    1d7f:	52                   	push   %edx
    1d80:	57                   	push   %edi
    1d81:	68 10 1b 00 00       	push   $0x1b10
    1d86:	50                   	push   %eax
    1d87:	e8 34 33 00 00       	call   50c0 <audio_pcm_register_event_callback>
    1d8c:	83 c4 10             	add    $0x10,%esp
    1d8f:	85 c0                	test   %eax,%eax
    1d91:	0f 85 a9 01 00 00    	jne    1f40 <drecord+0x340>
    1d97:	8b 45 a4             	mov    -0x5c(%ebp),%eax
    1d9a:	6a 02                	push   $0x2
    1d9c:	89 45 b0             	mov    %eax,-0x50(%ebp)
    1d9f:	68 85 6f 00 00       	push   $0x6f85
    1da4:	68 44 ac 00 00       	push   $0xac44
    1da9:	68 ec 74 00 00       	push   $0x74ec
    1dae:	e8 7d 75 00 00       	call   9330 <printf@plt>
    1db3:	8b 45 a8             	mov    -0x58(%ebp),%eax
    1db6:	c1 e8 04             	shr    $0x4,%eax
    1db9:	8b 7d b8             	mov    -0x48(%ebp),%edi
    1dbc:	83 c0 03             	add    $0x3,%eax
    1dbf:	c7 04 24 04 00 00 00 	movl   $0x4,(%esp)
    1dc6:	c1 e8 02             	shr    $0x2,%eax
    1dc9:	68 44 ac 00 00       	push   $0xac44
    1dce:	6a 02                	push   $0x2
    1dd0:	50                   	push   %eax
    1dd1:	57                   	push   %edi
    1dd2:	e8 d9 36 00 00       	call   54b0 <audio_pcm_start_capture_fragment>
    1dd7:	83 c4 20             	add    $0x20,%esp
    1dda:	85 c0                	test   %eax,%eax
    1ddc:	0f 85 06 01 00 00    	jne    1ee8 <drecord+0x2e8>
    1de2:	e8 f9 77 00 00       	call   95e0 <getchar@plt>
    1de7:	83 ec 0c             	sub    $0xc,%esp
    1dea:	68 5a 79 00 00       	push   $0x795a
    1def:	e8 3c 75 00 00       	call   9330 <printf@plt>
    1df4:	8b 7d b8             	mov    -0x48(%ebp),%edi
    1df7:	59                   	pop    %ecx
    1df8:	57                   	push   %edi
    1df9:	e8 72 38 00 00       	call   5670 <audio_pcm_stop_capture>
    1dfe:	c7 04 24 34 75 00 00 	movl   $0x7534,(%esp)
    1e05:	e8 26 75 00 00       	call   9330 <printf@plt>
    1e0a:	c7 04 24 40 42 0f 00 	movl   $0xf4240,(%esp)
    1e11:	e8 ea 77 00 00       	call   9600 <async_usleep@plt>
    1e16:	c7 04 24 8c 74 00 00 	movl   $0x748c,(%esp)
    1e1d:	e8 0e 75 00 00       	call   9330 <printf@plt>
    1e22:	83 c4 10             	add    $0x10,%esp
    1e25:	83 ec 0c             	sub    $0xc,%esp
    1e28:	8b 45 b4             	mov    -0x4c(%ebp),%eax
    1e2b:	8d 7d bc             	lea    -0x44(%ebp),%edi
    1e2e:	50                   	push   %eax
    1e2f:	e8 7c 77 00 00       	call   95b0 <ftell@plt>
    1e34:	83 e8 2c             	sub    $0x2c,%eax
    1e37:	89 04 24             	mov    %eax,(%esp)
    1e3a:	a1 84 75 00 00       	mov    0x7584,%eax
    1e3f:	50                   	push   %eax
    1e40:	a1 80 75 00 00       	mov    0x7580,%eax
    1e45:	50                   	push   %eax
    1e46:	a1 7c 75 00 00       	mov    0x757c,%eax
    1e4b:	50                   	push   %eax
    1e4c:	57                   	push   %edi
    1e4d:	e8 5e 0a 00 00       	call   28b0 <wav_init_header>
    1e52:	83 c4 20             	add    $0x20,%esp
    1e55:	8b 45 b4             	mov    -0x4c(%ebp),%eax
    1e58:	6a 00                	push   $0x0
    1e5a:	6a 00                	push   $0x0
    1e5c:	6a 00                	push   $0x0
    1e5e:	50                   	push   %eax
    1e5f:	e8 8c 76 00 00       	call   94f0 <fseek@plt>
    1e64:	8b 55 b4             	mov    -0x4c(%ebp),%edx
    1e67:	52                   	push   %edx
    1e68:	6a 01                	push   $0x1
    1e6a:	6a 2c                	push   $0x2c
    1e6c:	57                   	push   %edi
    1e6d:	e8 3e 78 00 00       	call   96b0 <fwrite@plt>
    1e72:	83 c4 20             	add    $0x20,%esp
    1e75:	83 ec 0c             	sub    $0xc,%esp
    1e78:	8b 45 b4             	mov    -0x4c(%ebp),%eax
    1e7b:	50                   	push   %eax
    1e7c:	e8 4f 77 00 00       	call   95d0 <fclose@plt>
    1e81:	8b 4d a4             	mov    -0x5c(%ebp),%ecx
    1e84:	5a                   	pop    %edx
    1e85:	51                   	push   %ecx
    1e86:	e8 95 75 00 00       	call   9420 <as_area_destroy@plt>
    1e8b:	8b 45 b8             	mov    -0x48(%ebp),%eax
    1e8e:	5f                   	pop    %edi
    1e8f:	50                   	push   %eax
    1e90:	e8 bb 33 00 00       	call   5250 <audio_pcm_release_buffer>
    1e95:	83 c4 10             	add    $0x10,%esp
    1e98:	e9 dd fd ff ff       	jmp    1c7a <drecord+0x7a>
    1e9d:	8d 76 00             	lea    0x0(%esi),%esi
    1ea0:	50                   	push   %eax
    1ea1:	50                   	push   %eax
    1ea2:	56                   	push   %esi
    1ea3:	68 a0 74 00 00       	push   $0x74a0
    1ea8:	be 01 00 00 00       	mov    $0x1,%esi
    1ead:	e8 7e 74 00 00       	call   9330 <printf@plt>
    1eb2:	83 c4 10             	add    $0x10,%esp
    1eb5:	e9 c0 fd ff ff       	jmp    1c7a <drecord+0x7a>
    1eba:	8d b6 00 00 00 00    	lea    0x0(%esi),%esi
    1ec0:	83 ec 0c             	sub    $0xc,%esp
    1ec3:	50                   	push   %eax
    1ec4:	e8 d7 77 00 00       	call   96a0 <str_error@plt>
    1ec9:	5e                   	pop    %esi
    1eca:	5f                   	pop    %edi
    1ecb:	50                   	push   %eax
    1ecc:	68 c4 70 00 00       	push   $0x70c4
    1ed1:	be 01 00 00 00       	mov    $0x1,%esi
    1ed6:	e8 55 74 00 00       	call   9330 <printf@plt>
    1edb:	83 c4 10             	add    $0x10,%esp
    1ede:	e9 97 fd ff ff       	jmp    1c7a <drecord+0x7a>
    1ee3:	90                   	nop
    1ee4:	8d 74 26 00          	lea    0x0(%esi,%eiz,1),%esi
    1ee8:	83 ec 0c             	sub    $0xc,%esp
    1eeb:	50                   	push   %eax
    1eec:	e8 af 77 00 00       	call   96a0 <str_error@plt>
    1ef1:	5a                   	pop    %edx
    1ef2:	59                   	pop    %ecx
    1ef3:	50                   	push   %eax
    1ef4:	68 14 75 00 00       	push   $0x7514
    1ef9:	e8 32 74 00 00       	call   9330 <printf@plt>
    1efe:	83 c4 10             	add    $0x10,%esp
    1f01:	e9 1f ff ff ff       	jmp    1e25 <drecord+0x225>
    1f06:	66 90                	xchg   %ax,%ax
    1f08:	83 ec 0c             	sub    $0xc,%esp
    1f0b:	68 58 75 00 00       	push   $0x7558
    1f10:	e8 1b 74 00 00       	call   9330 <printf@plt>
    1f15:	83 c4 10             	add    $0x10,%esp
    1f18:	e9 08 ff ff ff       	jmp    1e25 <drecord+0x225>
    1f1d:	8d 76 00             	lea    0x0(%esi),%esi
    1f20:	8b 7d 0c             	mov    0xc(%ebp),%edi
    1f23:	56                   	push   %esi
    1f24:	56                   	push   %esi
    1f25:	57                   	push   %edi
    1f26:	68 da 6e 00 00       	push   $0x6eda
    1f2b:	be 01 00 00 00       	mov    $0x1,%esi
    1f30:	e8 fb 73 00 00       	call   9330 <printf@plt>
    1f35:	83 c4 10             	add    $0x10,%esp
    1f38:	e9 38 ff ff ff       	jmp    1e75 <drecord+0x275>
    1f3d:	8d 76 00             	lea    0x0(%esi),%esi
    1f40:	83 ec 0c             	sub    $0xc,%esp
    1f43:	50                   	push   %eax
    1f44:	e8 57 77 00 00       	call   96a0 <str_error@plt>
    1f49:	5a                   	pop    %edx
    1f4a:	59                   	pop    %ecx
    1f4b:	50                   	push   %eax
    1f4c:	68 c8 74 00 00       	push   $0x74c8
    1f51:	e8 da 73 00 00       	call   9330 <printf@plt>
    1f56:	83 c4 10             	add    $0x10,%esp
    1f59:	e9 c7 fe ff ff       	jmp    1e25 <drecord+0x225>
    1f5e:	51                   	push   %ecx
    1f5f:	68 8c 00 00 00       	push   $0x8c
    1f64:	68 79 74 00 00       	push   $0x7479
    1f69:	68 80 74 00 00       	push   $0x7480
    1f6e:	e8 2d 75 00 00       	call   94a0 <assert_abort@plt>
    1f73:	66 90                	xchg   %ax,%ax
    1f75:	66 90                	xchg   %ax,%ax
    1f77:	66 90                	xchg   %ax,%ax
    1f79:	66 90                	xchg   %ax,%ax
    1f7b:	66 90                	xchg   %ax,%ax
    1f7d:	66 90                	xchg   %ax,%ax
    1f7f:	90                   	nop

00001f80 <print_help>:
    1f80:	55                   	push   %ebp
    1f81:	89 e5                	mov    %esp,%ebp
    1f83:	83 ec 10             	sub    $0x10,%esp
    1f86:	50                   	push   %eax
    1f87:	68 88 75 00 00       	push   $0x7588
    1f8c:	e8 9f 73 00 00       	call   9330 <printf@plt>
    1f91:	c7 04 24 cc 78 00 00 	movl   $0x78cc,(%esp)
    1f98:	e8 93 73 00 00       	call   9330 <printf@plt>
    1f9d:	c7 04 24 b0 75 00 00 	movl   $0x75b0,(%esp)
    1fa4:	e8 87 73 00 00       	call   9330 <printf@plt>
    1fa9:	c7 04 24 d0 75 00 00 	movl   $0x75d0,(%esp)
    1fb0:	e8 7b 73 00 00       	call   9330 <printf@plt>
    1fb5:	c7 04 24 18 76 00 00 	movl   $0x7618,(%esp)
    1fbc:	e8 6f 73 00 00       	call   9330 <printf@plt>
    1fc1:	c7 04 24 8c 76 00 00 	movl   $0x768c,(%esp)
    1fc8:	e8 63 73 00 00       	call   9330 <printf@plt>
    1fcd:	83 c4 10             	add    $0x10,%esp
    1fd0:	c9                   	leave  
    1fd1:	c3                   	ret    
    1fd2:	8d b4 26 00 00 00 00 	lea    0x0(%esi,%eiz,1),%esi
    1fd9:	8d bc 27 00 00 00 00 	lea    0x0(%edi,%eiz,1),%edi

00001fe0 <play_wrapper>:
    1fe0:	55                   	push   %ebp
    1fe1:	89 e5                	mov    %esp,%ebp
    1fe3:	57                   	push   %edi
    1fe4:	56                   	push   %esi
    1fe5:	53                   	push   %ebx
    1fe6:	83 ec 5c             	sub    $0x5c,%esp
    1fe9:	8b 5d 08             	mov    0x8(%ebp),%ebx
    1fec:	85 db                	test   %ebx,%ebx
    1fee:	0f 84 e6 01 00 00    	je     21da <play_wrapper+0x1fa>
    1ff4:	8b 45 08             	mov    0x8(%ebp),%eax
    1ff7:	8b 58 08             	mov    0x8(%eax),%ebx
    1ffa:	8b 00                	mov    (%eax),%eax
    1ffc:	89 45 a0             	mov    %eax,-0x60(%ebp)
    1fff:	57                   	push   %edi
    2000:	57                   	push   %edi
    2001:	53                   	push   %ebx
    2002:	68 eb 78 00 00       	push   $0x78eb
    2007:	e8 24 73 00 00       	call   9330 <printf@plt>
    200c:	58                   	pop    %eax
    200d:	5a                   	pop    %edx
    200e:	68 d7 6e 00 00       	push   $0x6ed7
    2013:	53                   	push   %ebx
    2014:	e8 67 75 00 00       	call   9580 <fopen@plt>
    2019:	83 c4 10             	add    $0x10,%esp
    201c:	89 c6                	mov    %eax,%esi
    201e:	85 c0                	test   %eax,%eax
    2020:	0f 84 80 01 00 00    	je     21a6 <play_wrapper+0x1c6>
    2026:	8d 7d bc             	lea    -0x44(%ebp),%edi
    2029:	50                   	push   %eax
    202a:	6a 01                	push   $0x1
    202c:	6a 2c                	push   $0x2c
    202e:	57                   	push   %edi
    202f:	e8 2c 75 00 00       	call   9560 <fread@plt>
    2034:	83 c4 10             	add    $0x10,%esp
    2037:	83 f8 01             	cmp    $0x1,%eax
    203a:	0f 85 1e 01 00 00    	jne    215e <play_wrapper+0x17e>
    2040:	8d 45 ac             	lea    -0x54(%ebp),%eax
    2043:	51                   	push   %ecx
    2044:	8d 4d b8             	lea    -0x48(%ebp),%ecx
    2047:	50                   	push   %eax
    2048:	8d 45 b0             	lea    -0x50(%ebp),%eax
    204b:	51                   	push   %ecx
    204c:	8d 4d b4             	lea    -0x4c(%ebp),%ecx
    204f:	51                   	push   %ecx
    2050:	50                   	push   %eax
    2051:	6a 00                	push   $0x0
    2053:	6a 00                	push   $0x0
    2055:	57                   	push   %edi
    2056:	e8 65 06 00 00       	call   26c0 <wav_parse_header>
    205b:	83 c4 20             	add    $0x20,%esp
    205e:	89 45 a4             	mov    %eax,-0x5c(%ebp)
    2061:	85 c0                	test   %eax,%eax
    2063:	0f 85 16 01 00 00    	jne    217f <play_wrapper+0x19f>
    2069:	8b 55 b8             	mov    -0x48(%ebp),%edx
    206c:	b8 63 6e 00 00       	mov    $0x6e63,%eax
    2071:	83 fa 12             	cmp    $0x12,%edx
    2074:	0f 86 b6 00 00 00    	jbe    2130 <play_wrapper+0x150>
    207a:	83 ec 0c             	sub    $0xc,%esp
    207d:	50                   	push   %eax
    207e:	8b 45 b4             	mov    -0x4c(%ebp),%eax
    2081:	50                   	push   %eax
    2082:	8b 45 b0             	mov    -0x50(%ebp),%eax
    2085:	50                   	push   %eax
    2086:	53                   	push   %ebx
    2087:	68 34 77 00 00       	push   $0x7734
    208c:	e8 9f 72 00 00       	call   9330 <printf@plt>
    2091:	83 c4 14             	add    $0x14,%esp
    2094:	68 00 80 00 00       	push   $0x8000
    2099:	e8 32 73 00 00       	call   93d0 <malloc@plt>
    209e:	83 c4 10             	add    $0x10,%esp
    20a1:	89 c3                	mov    %eax,%ebx
    20a3:	85 c0                	test   %eax,%eax
    20a5:	0f 84 17 01 00 00    	je     21c2 <play_wrapper+0x1e2>
    20ab:	8b 7d b8             	mov    -0x48(%ebp),%edi
    20ae:	8b 45 b4             	mov    -0x4c(%ebp),%eax
    20b1:	51                   	push   %ecx
    20b2:	51                   	push   %ecx
    20b3:	68 00 00 01 00       	push   $0x10000
    20b8:	57                   	push   %edi
    20b9:	50                   	push   %eax
    20ba:	8b 45 b0             	mov    -0x50(%ebp),%eax
    20bd:	50                   	push   %eax
    20be:	8b 45 a0             	mov    -0x60(%ebp),%eax
    20c1:	6a 01                	push   $0x1
    20c3:	50                   	push   %eax
    20c4:	e8 37 0e 00 00       	call   2f00 <hound_stream_create>
    20c9:	83 c4 20             	add    $0x20,%esp
    20cc:	89 c7                	mov    %eax,%edi
    20ce:	eb 10                	jmp    20e0 <play_wrapper+0x100>
    20d0:	52                   	push   %edx
    20d1:	50                   	push   %eax
    20d2:	53                   	push   %ebx
    20d3:	57                   	push   %edi
    20d4:	e8 87 0f 00 00       	call   3060 <hound_stream_write>
    20d9:	83 c4 10             	add    $0x10,%esp
    20dc:	85 c0                	test   %eax,%eax
    20de:	75 60                	jne    2140 <play_wrapper+0x160>
    20e0:	56                   	push   %esi
    20e1:	68 00 80 00 00       	push   $0x8000
    20e6:	6a 01                	push   $0x1
    20e8:	53                   	push   %ebx
    20e9:	e8 72 74 00 00       	call   9560 <fread@plt>
    20ee:	83 c4 10             	add    $0x10,%esp
    20f1:	85 c0                	test   %eax,%eax
    20f3:	75 db                	jne    20d0 <play_wrapper+0xf0>
    20f5:	83 ec 0c             	sub    $0xc,%esp
    20f8:	53                   	push   %ebx
    20f9:	e8 52 76 00 00       	call   9750 <free@plt>
    20fe:	89 34 24             	mov    %esi,(%esp)
    2101:	e8 ca 74 00 00       	call   95d0 <fclose@plt>
    2106:	83 c4 10             	add    $0x10,%esp
    2109:	8b 45 08             	mov    0x8(%ebp),%eax
    210c:	8b 40 04             	mov    0x4(%eax),%eax
    210f:	f0 ff 08             	lock decl (%eax)
    2112:	83 ec 0c             	sub    $0xc,%esp
    2115:	8b 45 08             	mov    0x8(%ebp),%eax
    2118:	50                   	push   %eax
    2119:	e8 32 76 00 00       	call   9750 <free@plt>
    211e:	8b 45 a4             	mov    -0x5c(%ebp),%eax
    2121:	8d 65 f4             	lea    -0xc(%ebp),%esp
    2124:	5b                   	pop    %ebx
    2125:	5e                   	pop    %esi
    2126:	5f                   	pop    %edi
    2127:	5d                   	pop    %ebp
    2128:	c3                   	ret    
    2129:	8d b4 26 00 00 00 00 	lea    0x0(%esi,%eiz,1),%esi
    2130:	8b 04 95 c0 79 00 00 	mov    0x79c0(,%edx,4),%eax
    2137:	e9 3e ff ff ff       	jmp    207a <play_wrapper+0x9a>
    213c:	8d 74 26 00          	lea    0x0(%esi,%eiz,1),%esi
    2140:	83 ec 0c             	sub    $0xc,%esp
    2143:	89 45 a4             	mov    %eax,-0x5c(%ebp)
    2146:	50                   	push   %eax
    2147:	e8 54 75 00 00       	call   96a0 <str_error@plt>
    214c:	5a                   	pop    %edx
    214d:	59                   	pop    %ecx
    214e:	50                   	push   %eax
    214f:	68 60 77 00 00       	push   $0x7760
    2154:	e8 d7 71 00 00       	call   9330 <printf@plt>
    2159:	83 c4 10             	add    $0x10,%esp
    215c:	eb 97                	jmp    20f5 <play_wrapper+0x115>
    215e:	53                   	push   %ebx
    215f:	53                   	push   %ebx
    2160:	50                   	push   %eax
    2161:	68 f0 76 00 00       	push   $0x76f0
    2166:	e8 c5 71 00 00       	call   9330 <printf@plt>
    216b:	89 34 24             	mov    %esi,(%esp)
    216e:	e8 5d 74 00 00       	call   95d0 <fclose@plt>
    2173:	83 c4 10             	add    $0x10,%esp
    2176:	c7 45 a4 f6 fe ff ff 	movl   $0xfffffef6,-0x5c(%ebp)
    217d:	eb 8a                	jmp    2109 <play_wrapper+0x129>
    217f:	8b 55 ac             	mov    -0x54(%ebp),%edx
    2182:	50                   	push   %eax
    2183:	52                   	push   %edx
    2184:	53                   	push   %ebx
    2185:	68 10 77 00 00       	push   $0x7710
    218a:	e8 a1 71 00 00       	call   9330 <printf@plt>
    218f:	89 34 24             	mov    %esi,(%esp)
    2192:	e8 39 74 00 00       	call   95d0 <fclose@plt>
    2197:	83 c4 10             	add    $0x10,%esp
    219a:	c7 45 a4 f2 ff ff ff 	movl   $0xfffffff2,-0x5c(%ebp)
    21a1:	e9 63 ff ff ff       	jmp    2109 <play_wrapper+0x129>
    21a6:	56                   	push   %esi
    21a7:	56                   	push   %esi
    21a8:	53                   	push   %ebx
    21a9:	68 07 79 00 00       	push   $0x7907
    21ae:	e8 7d 71 00 00       	call   9330 <printf@plt>
    21b3:	83 c4 10             	add    $0x10,%esp
    21b6:	c7 45 a4 f2 ff ff ff 	movl   $0xfffffff2,-0x5c(%ebp)
    21bd:	e9 47 ff ff ff       	jmp    2109 <play_wrapper+0x129>
    21c2:	83 ec 0c             	sub    $0xc,%esp
    21c5:	56                   	push   %esi
    21c6:	e8 05 74 00 00       	call   95d0 <fclose@plt>
    21cb:	83 c4 10             	add    $0x10,%esp
    21ce:	c7 45 a4 fe ff ff ff 	movl   $0xfffffffe,-0x5c(%ebp)
    21d5:	e9 2f ff ff ff       	jmp    2109 <play_wrapper+0x129>
    21da:	51                   	push   %ecx
    21db:	68 c9 00 00 00       	push   $0xc9
    21e0:	68 e0 78 00 00       	push   $0x78e0
    21e5:	68 e7 78 00 00       	push   $0x78e7
    21ea:	e8 b1 72 00 00       	call   94a0 <assert_abort@plt>
    21ef:	90                   	nop

000021f0 <main>:
    21f0:	8d 4c 24 04          	lea    0x4(%esp),%ecx
    21f4:	83 e4 f0             	and    $0xfffffff0,%esp
    21f7:	ff 71 fc             	pushl  -0x4(%ecx)
    21fa:	55                   	push   %ebp
    21fb:	89 e5                	mov    %esp,%ebp
    21fd:	57                   	push   %edi
    21fe:	56                   	push   %esi
    21ff:	53                   	push   %ebx
    2200:	51                   	push   %ecx
    2201:	8d 5d a4             	lea    -0x5c(%ebp),%ebx
    2204:	83 ec 78             	sub    $0x78,%esp
    2207:	c7 45 a4 00 00 00 00 	movl   $0x0,-0x5c(%ebp)
    220e:	8b 01                	mov    (%ecx),%eax
    2210:	c7 05 64 b5 00 00 00 	movl   $0x0,0xb564
    2217:	00 00 00 
    221a:	89 45 90             	mov    %eax,-0x70(%ebp)
    221d:	8b 41 04             	mov    0x4(%ecx),%eax
    2220:	89 45 94             	mov    %eax,-0x6c(%ebp)
    2223:	c6 45 8d 00          	movb   $0x0,-0x73(%ebp)
    2227:	c6 45 8e 00          	movb   $0x0,-0x72(%ebp)
    222b:	c6 45 8f 00          	movb   $0x0,-0x71(%ebp)
    222f:	c7 45 88 79 6e 00 00 	movl   $0x6e79,-0x78(%ebp)
    2236:	83 ec 0c             	sub    $0xc,%esp
    2239:	8b 45 94             	mov    -0x6c(%ebp),%eax
    223c:	53                   	push   %ebx
    223d:	68 20 7a 00 00       	push   $0x7a20
    2242:	68 1f 79 00 00       	push   $0x791f
    2247:	50                   	push   %eax
    2248:	8b 45 90             	mov    -0x70(%ebp),%eax
    224b:	50                   	push   %eax
    224c:	e8 0f 71 00 00       	call   9360 <getopt_long@plt>
    2251:	83 c4 20             	add    $0x20,%esp
    2254:	83 f8 68             	cmp    $0x68,%eax
    2257:	0f 84 db 00 00 00    	je     2338 <main+0x148>
    225d:	7e 19                	jle    2278 <main+0x88>
    225f:	83 f8 70             	cmp    $0x70,%eax
    2262:	0f 84 e8 00 00 00    	je     2350 <main+0x160>
    2268:	83 f8 72             	cmp    $0x72,%eax
    226b:	75 23                	jne    2290 <main+0xa0>
    226d:	c6 45 8e 01          	movb   $0x1,-0x72(%ebp)
    2271:	eb c3                	jmp    2236 <main+0x46>
    2273:	90                   	nop
    2274:	8d 74 26 00          	lea    0x0(%esi,%eiz,1),%esi
    2278:	83 f8 64             	cmp    $0x64,%eax
    227b:	75 13                	jne    2290 <main+0xa0>
    227d:	a1 60 b5 00 00       	mov    0xb560,%eax
    2282:	c6 45 8f 01          	movb   $0x1,-0x71(%ebp)
    2286:	89 45 88             	mov    %eax,-0x78(%ebp)
    2289:	eb ab                	jmp    2236 <main+0x46>
    228b:	90                   	nop
    228c:	8d 74 26 00          	lea    0x0(%esi,%eiz,1),%esi
    2290:	40                   	inc    %eax
    2291:	75 a3                	jne    2236 <main+0x46>
    2293:	80 7d 8f 00          	cmpb   $0x0,-0x71(%ebp)
    2297:	74 0a                	je     22a3 <main+0xb3>
    2299:	80 7d 8d 00          	cmpb   $0x0,-0x73(%ebp)
    229d:	0f 85 32 03 00 00    	jne    25d5 <main+0x3e5>
    22a3:	8b 45 90             	mov    -0x70(%ebp),%eax
    22a6:	3b 05 64 b5 00 00    	cmp    0xb564,%eax
    22ac:	0f 84 65 03 00 00    	je     2617 <main+0x427>
    22b2:	c7 45 a8 00 00 00 00 	movl   $0x0,-0x58(%ebp)
    22b9:	c7 45 80 00 00 00 00 	movl   $0x0,-0x80(%ebp)
    22c0:	80 7d 8d 00          	cmpb   $0x0,-0x73(%ebp)
    22c4:	0f 85 9d 02 00 00    	jne    2567 <main+0x377>
    22ca:	a1 64 b5 00 00       	mov    0xb564,%eax
    22cf:	89 45 84             	mov    %eax,-0x7c(%ebp)
    22d2:	8b 75 90             	mov    -0x70(%ebp),%esi
    22d5:	39 75 84             	cmp    %esi,-0x7c(%ebp)
    22d8:	0f 8d fc 00 00 00    	jge    23da <main+0x1ea>
    22de:	8b 7d 84             	mov    -0x7c(%ebp),%edi
    22e1:	8b 75 94             	mov    -0x6c(%ebp),%esi
    22e4:	a1 64 b5 00 00       	mov    0xb564,%eax
    22e9:	8b 55 90             	mov    -0x70(%ebp),%edx
    22ec:	8b 1c be             	mov    (%esi,%edi,4),%ebx
    22ef:	29 c7                	sub    %eax,%edi
    22f1:	29 c2                	sub    %eax,%edx
    22f3:	89 f8                	mov    %edi,%eax
    22f5:	40                   	inc    %eax
    22f6:	80 7d 8e 00          	cmpb   $0x0,-0x72(%ebp)
    22fa:	74 5d                	je     2359 <main+0x169>
    22fc:	83 ec 0c             	sub    $0xc,%esp
    22ff:	53                   	push   %ebx
    2300:	52                   	push   %edx
    2301:	50                   	push   %eax
    2302:	68 70 79 00 00       	push   $0x7970
    2307:	68 7a 79 00 00       	push   $0x797a
    230c:	e8 1f 70 00 00       	call   9330 <printf@plt>
    2311:	83 c4 20             	add    $0x20,%esp
    2314:	80 7d 8f 00          	cmpb   $0x0,-0x71(%ebp)
    2318:	0f 84 ac 00 00 00    	je     23ca <main+0x1da>
    231e:	57                   	push   %edi
    231f:	57                   	push   %edi
    2320:	53                   	push   %ebx
    2321:	ff 75 88             	pushl  -0x78(%ebp)
    2324:	e8 d7 f8 ff ff       	call   1c00 <drecord>
    2329:	83 c4 10             	add    $0x10,%esp
    232c:	ff 45 84             	incl   -0x7c(%ebp)
    232f:	eb a1                	jmp    22d2 <main+0xe2>
    2331:	8d b4 26 00 00 00 00 	lea    0x0(%esi,%eiz,1),%esi
    2338:	8b 45 94             	mov    -0x6c(%ebp),%eax
    233b:	8b 00                	mov    (%eax),%eax
    233d:	e8 3e fc ff ff       	call   1f80 <print_help>
    2342:	31 c0                	xor    %eax,%eax
    2344:	8d 65 f0             	lea    -0x10(%ebp),%esp
    2347:	59                   	pop    %ecx
    2348:	5b                   	pop    %ebx
    2349:	5e                   	pop    %esi
    234a:	5f                   	pop    %edi
    234b:	5d                   	pop    %ebp
    234c:	8d 61 fc             	lea    -0x4(%ecx),%esp
    234f:	c3                   	ret    
    2350:	c6 45 8d 01          	movb   $0x1,-0x73(%ebp)
    2354:	e9 dd fe ff ff       	jmp    2236 <main+0x46>
    2359:	83 ec 0c             	sub    $0xc,%esp
    235c:	53                   	push   %ebx
    235d:	52                   	push   %edx
    235e:	50                   	push   %eax
    235f:	68 89 79 00 00       	push   $0x7989
    2364:	68 7a 79 00 00       	push   $0x797a
    2369:	e8 c2 6f 00 00       	call   9330 <printf@plt>
    236e:	83 c4 20             	add    $0x20,%esp
    2371:	80 7d 8f 00          	cmpb   $0x0,-0x71(%ebp)
    2375:	0f 85 cd 01 00 00    	jne    2548 <main+0x358>
    237b:	80 7d 8d 00          	cmpb   $0x0,-0x73(%ebp)
    237f:	0f 84 95 00 00 00    	je     241a <main+0x22a>
    2385:	83 ec 0c             	sub    $0xc,%esp
    2388:	6a 0c                	push   $0xc
    238a:	e8 41 70 00 00       	call   93d0 <malloc@plt>
    238f:	83 c4 10             	add    $0x10,%esp
    2392:	85 c0                	test   %eax,%eax
    2394:	0f 84 a5 02 00 00    	je     263f <main+0x44f>
    239a:	8d 55 a8             	lea    -0x58(%ebp),%edx
    239d:	89 58 08             	mov    %ebx,0x8(%eax)
    23a0:	89 50 04             	mov    %edx,0x4(%eax)
    23a3:	8b 55 80             	mov    -0x80(%ebp),%edx
    23a6:	89 10                	mov    %edx,(%eax)
    23a8:	52                   	push   %edx
    23a9:	6a 00                	push   $0x0
    23ab:	50                   	push   %eax
    23ac:	68 e0 1f 00 00       	push   $0x1fe0
    23b1:	e8 6a 73 00 00       	call   9720 <fibril_create_generic@plt>
    23b6:	f0 ff 45 a8          	lock incl -0x58(%ebp)
    23ba:	89 04 24             	mov    %eax,(%esp)
    23bd:	e8 6e 73 00 00       	call   9730 <fibril_add_ready@plt>
    23c2:	83 c4 10             	add    $0x10,%esp
    23c5:	e9 62 ff ff ff       	jmp    232c <main+0x13c>
    23ca:	83 ec 0c             	sub    $0xc,%esp
    23cd:	68 28 78 00 00       	push   $0x7828
    23d2:	e8 59 6f 00 00       	call   9330 <printf@plt>
    23d7:	83 c4 10             	add    $0x10,%esp
    23da:	8b 45 a8             	mov    -0x58(%ebp),%eax
    23dd:	85 c0                	test   %eax,%eax
    23df:	74 1e                	je     23ff <main+0x20f>
    23e1:	8d b4 26 00 00 00 00 	lea    0x0(%esi,%eiz,1),%esi
    23e8:	83 ec 0c             	sub    $0xc,%esp
    23eb:	68 40 42 0f 00       	push   $0xf4240
    23f0:	e8 0b 72 00 00       	call   9600 <async_usleep@plt>
    23f5:	8b 45 a8             	mov    -0x58(%ebp),%eax
    23f8:	83 c4 10             	add    $0x10,%esp
    23fb:	85 c0                	test   %eax,%eax
    23fd:	75 e9                	jne    23e8 <main+0x1f8>
    23ff:	83 7d 80 00          	cmpl   $0x0,-0x80(%ebp)
    2403:	74 0e                	je     2413 <main+0x223>
    2405:	83 ec 0c             	sub    $0xc,%esp
    2408:	ff 75 80             	pushl  -0x80(%ebp)
    240b:	e8 80 07 00 00       	call   2b90 <hound_context_destroy>
    2410:	83 c4 10             	add    $0x10,%esp
    2413:	31 c0                	xor    %eax,%eax
    2415:	e9 2a ff ff ff       	jmp    2344 <main+0x154>
    241a:	56                   	push   %esi
    241b:	56                   	push   %esi
    241c:	53                   	push   %ebx
    241d:	68 5c 79 00 00       	push   $0x795c
    2422:	e8 09 6f 00 00       	call   9330 <printf@plt>
    2427:	5f                   	pop    %edi
    2428:	58                   	pop    %eax
    2429:	68 d7 6e 00 00       	push   $0x6ed7
    242e:	53                   	push   %ebx
    242f:	e8 4c 71 00 00       	call   9580 <fopen@plt>
    2434:	83 c4 10             	add    $0x10,%esp
    2437:	89 85 7c ff ff ff    	mov    %eax,-0x84(%ebp)
    243d:	85 c0                	test   %eax,%eax
    243f:	0f 84 60 02 00 00    	je     26a5 <main+0x4b5>
    2445:	ff b5 7c ff ff ff    	pushl  -0x84(%ebp)
    244b:	8d 45 bc             	lea    -0x44(%ebp),%eax
    244e:	6a 01                	push   $0x1
    2450:	6a 2c                	push   $0x2c
    2452:	50                   	push   %eax
    2453:	e8 08 71 00 00       	call   9560 <fread@plt>
    2458:	83 c4 10             	add    $0x10,%esp
    245b:	83 f8 01             	cmp    $0x1,%eax
    245e:	0f 85 f0 01 00 00    	jne    2654 <main+0x464>
    2464:	50                   	push   %eax
    2465:	8d 45 ac             	lea    -0x54(%ebp),%eax
    2468:	50                   	push   %eax
    2469:	8d 45 b8             	lea    -0x48(%ebp),%eax
    246c:	50                   	push   %eax
    246d:	8d 45 b4             	lea    -0x4c(%ebp),%eax
    2470:	50                   	push   %eax
    2471:	8d 75 b0             	lea    -0x50(%ebp),%esi
    2474:	8d 45 bc             	lea    -0x44(%ebp),%eax
    2477:	56                   	push   %esi
    2478:	6a 00                	push   $0x0
    247a:	6a 00                	push   $0x0
    247c:	50                   	push   %eax
    247d:	e8 3e 02 00 00       	call   26c0 <wav_parse_header>
    2482:	83 c4 20             	add    $0x20,%esp
    2485:	85 c0                	test   %eax,%eax
    2487:	0f 85 02 02 00 00    	jne    268f <main+0x49f>
    248d:	8b 55 b8             	mov    -0x48(%ebp),%edx
    2490:	b8 63 6e 00 00       	mov    $0x6e63,%eax
    2495:	83 fa 12             	cmp    $0x12,%edx
    2498:	0f 86 bd 00 00 00    	jbe    255b <main+0x36b>
    249e:	83 ec 0c             	sub    $0xc,%esp
    24a1:	50                   	push   %eax
    24a2:	ff 75 b4             	pushl  -0x4c(%ebp)
    24a5:	ff 75 b0             	pushl  -0x50(%ebp)
    24a8:	53                   	push   %ebx
    24a9:	68 34 77 00 00       	push   $0x7734
    24ae:	e8 7d 6e 00 00       	call   9330 <printf@plt>
    24b3:	83 c4 14             	add    $0x14,%esp
    24b6:	68 00 00 01 00       	push   $0x10000
    24bb:	b9 03 00 00 00       	mov    $0x3,%ecx
    24c0:	83 ec 0c             	sub    $0xc,%esp
    24c3:	89 e7                	mov    %esp,%edi
    24c5:	f3 a5                	rep movsl %ds:(%esi),%es:(%edi)
    24c7:	53                   	push   %ebx
    24c8:	e8 c3 04 00 00       	call   2990 <hound_context_create_playback>
    24cd:	83 c4 20             	add    $0x20,%esp
    24d0:	89 c3                	mov    %eax,%ebx
    24d2:	85 c0                	test   %eax,%eax
    24d4:	0f 84 c1 01 00 00    	je     269b <main+0x4ab>
    24da:	56                   	push   %esi
    24db:	56                   	push   %esi
    24dc:	68 79 6e 00 00       	push   $0x6e79
    24e1:	50                   	push   %eax
    24e2:	e8 89 08 00 00       	call   2d70 <hound_context_connect_target>
    24e7:	83 c4 10             	add    $0x10,%esp
    24ea:	85 c0                	test   %eax,%eax
    24ec:	0f 85 2f 01 00 00    	jne    2621 <main+0x431>
    24f2:	8b b5 7c ff ff ff    	mov    -0x84(%ebp),%esi
    24f8:	eb 18                	jmp    2512 <main+0x322>
    24fa:	57                   	push   %edi
    24fb:	50                   	push   %eax
    24fc:	68 80 b5 00 00       	push   $0xb580
    2501:	53                   	push   %ebx
    2502:	e8 29 0c 00 00       	call   3130 <hound_write_main_stream>
    2507:	83 c4 10             	add    $0x10,%esp
    250a:	85 c0                	test   %eax,%eax
    250c:	0f 85 e7 00 00 00    	jne    25f9 <main+0x409>
    2512:	56                   	push   %esi
    2513:	68 00 80 00 00       	push   $0x8000
    2518:	6a 01                	push   $0x1
    251a:	68 80 b5 00 00       	push   $0xb580
    251f:	e8 3c 70 00 00       	call   9560 <fread@plt>
    2524:	83 c4 10             	add    $0x10,%esp
    2527:	85 c0                	test   %eax,%eax
    2529:	75 cf                	jne    24fa <main+0x30a>
    252b:	83 ec 0c             	sub    $0xc,%esp
    252e:	53                   	push   %ebx
    252f:	e8 5c 06 00 00       	call   2b90 <hound_context_destroy>
    2534:	58                   	pop    %eax
    2535:	ff b5 7c ff ff ff    	pushl  -0x84(%ebp)
    253b:	e8 90 70 00 00       	call   95d0 <fclose@plt>
    2540:	83 c4 10             	add    $0x10,%esp
    2543:	e9 e4 fd ff ff       	jmp    232c <main+0x13c>
    2548:	56                   	push   %esi
    2549:	56                   	push   %esi
    254a:	53                   	push   %ebx
    254b:	ff 75 88             	pushl  -0x78(%ebp)
    254e:	e8 4d ed ff ff       	call   12a0 <dplay>
    2553:	83 c4 10             	add    $0x10,%esp
    2556:	e9 d1 fd ff ff       	jmp    232c <main+0x13c>
    255b:	8b 04 95 c0 79 00 00 	mov    0x79c0(,%edx,4),%eax
    2562:	e9 37 ff ff ff       	jmp    249e <main+0x2ae>
    2567:	83 ec 0c             	sub    $0xc,%esp
    256a:	be 38 90 00 00       	mov    $0x9038,%esi
    256f:	b9 03 00 00 00       	mov    $0x3,%ecx
    2574:	68 00 00 01 00       	push   $0x10000
    2579:	83 ec 0c             	sub    $0xc,%esp
    257c:	89 e7                	mov    %esp,%edi
    257e:	f3 a5                	rep movsl %ds:(%esi),%es:(%edi)
    2580:	68 3c 79 00 00       	push   $0x793c
    2585:	e8 06 04 00 00       	call   2990 <hound_context_create_playback>
    258a:	83 c4 20             	add    $0x20,%esp
    258d:	89 45 80             	mov    %eax,-0x80(%ebp)
    2590:	85 c0                	test   %eax,%eax
    2592:	0f 84 dd 00 00 00    	je     2675 <main+0x485>
    2598:	50                   	push   %eax
    2599:	50                   	push   %eax
    259a:	68 79 6e 00 00       	push   $0x6e79
    259f:	ff 75 80             	pushl  -0x80(%ebp)
    25a2:	e8 c9 07 00 00       	call   2d70 <hound_context_connect_target>
    25a7:	83 c4 10             	add    $0x10,%esp
    25aa:	85 c0                	test   %eax,%eax
    25ac:	0f 84 18 fd ff ff    	je     22ca <main+0xda>
    25b2:	83 ec 0c             	sub    $0xc,%esp
    25b5:	68 f4 77 00 00       	push   $0x77f4
    25ba:	e8 71 6d 00 00       	call   9330 <printf@plt>
    25bf:	58                   	pop    %eax
    25c0:	ff 75 80             	pushl  -0x80(%ebp)
    25c3:	e8 c8 05 00 00       	call   2b90 <hound_context_destroy>
    25c8:	83 c4 10             	add    $0x10,%esp
    25cb:	b8 01 00 00 00       	mov    $0x1,%eax
    25d0:	e9 6f fd ff ff       	jmp    2344 <main+0x154>
    25d5:	83 ec 0c             	sub    $0xc,%esp
    25d8:	68 88 77 00 00       	push   $0x7788
    25dd:	e8 4e 6d 00 00       	call   9330 <printf@plt>
    25e2:	8b 45 94             	mov    -0x6c(%ebp),%eax
    25e5:	8b 00                	mov    (%eax),%eax
    25e7:	e8 94 f9 ff ff       	call   1f80 <print_help>
    25ec:	83 c4 10             	add    $0x10,%esp
    25ef:	b8 01 00 00 00       	mov    $0x1,%eax
    25f4:	e9 4b fd ff ff       	jmp    2344 <main+0x154>
    25f9:	83 ec 0c             	sub    $0xc,%esp
    25fc:	50                   	push   %eax
    25fd:	e8 9e 70 00 00       	call   96a0 <str_error@plt>
    2602:	5a                   	pop    %edx
    2603:	59                   	pop    %ecx
    2604:	50                   	push   %eax
    2605:	68 a0 78 00 00       	push   $0x78a0
    260a:	e8 21 6d 00 00       	call   9330 <printf@plt>
    260f:	83 c4 10             	add    $0x10,%esp
    2612:	e9 14 ff ff ff       	jmp    252b <main+0x33b>
    2617:	83 ec 0c             	sub    $0xc,%esp
    261a:	68 25 79 00 00       	push   $0x7925
    261f:	eb bc                	jmp    25dd <main+0x3ed>
    2621:	83 ec 0c             	sub    $0xc,%esp
    2624:	50                   	push   %eax
    2625:	e8 76 70 00 00       	call   96a0 <str_error@plt>
    262a:	5a                   	pop    %edx
    262b:	59                   	pop    %ecx
    262c:	50                   	push   %eax
    262d:	68 74 78 00 00       	push   $0x7874
    2632:	e8 f9 6c 00 00       	call   9330 <printf@plt>
    2637:	89 1c 24             	mov    %ebx,(%esp)
    263a:	e9 f0 fe ff ff       	jmp    252f <main+0x33f>
    263f:	51                   	push   %ecx
    2640:	51                   	push   %ecx
    2641:	53                   	push   %ebx
    2642:	68 44 79 00 00       	push   $0x7944
    2647:	e8 e4 6c 00 00       	call   9330 <printf@plt>
    264c:	83 c4 10             	add    $0x10,%esp
    264f:	e9 d8 fc ff ff       	jmp    232c <main+0x13c>
    2654:	52                   	push   %edx
    2655:	52                   	push   %edx
    2656:	50                   	push   %eax
    2657:	68 f0 76 00 00       	push   $0x76f0
    265c:	e8 cf 6c 00 00       	call   9330 <printf@plt>
    2661:	5f                   	pop    %edi
    2662:	ff b5 7c ff ff ff    	pushl  -0x84(%ebp)
    2668:	e8 63 6f 00 00       	call   95d0 <fclose@plt>
    266d:	83 c4 10             	add    $0x10,%esp
    2670:	e9 b7 fc ff ff       	jmp    232c <main+0x13c>
    2675:	83 ec 0c             	sub    $0xc,%esp
    2678:	68 cc 77 00 00       	push   $0x77cc
    267d:	e8 ae 6c 00 00       	call   9330 <printf@plt>
    2682:	83 c4 10             	add    $0x10,%esp
    2685:	b8 01 00 00 00       	mov    $0x1,%eax
    268a:	e9 b5 fc ff ff       	jmp    2344 <main+0x154>
    268f:	50                   	push   %eax
    2690:	ff 75 ac             	pushl  -0x54(%ebp)
    2693:	53                   	push   %ebx
    2694:	68 10 77 00 00       	push   $0x7710
    2699:	eb c1                	jmp    265c <main+0x46c>
    269b:	83 ec 0c             	sub    $0xc,%esp
    269e:	68 54 78 00 00       	push   $0x7854
    26a3:	eb b7                	jmp    265c <main+0x46c>
    26a5:	51                   	push   %ecx
    26a6:	51                   	push   %ecx
    26a7:	53                   	push   %ebx
    26a8:	68 07 79 00 00       	push   $0x7907
    26ad:	e8 7e 6c 00 00       	call   9330 <printf@plt>
    26b2:	83 c4 10             	add    $0x10,%esp
    26b5:	e9 72 fc ff ff       	jmp    232c <main+0x13c>
    26ba:	66 90                	xchg   %ax,%ax
    26bc:	66 90                	xchg   %ax,%ax
    26be:	66 90                	xchg   %ax,%ax

000026c0 <wav_parse_header>:
    26c0:	55                   	push   %ebp
    26c1:	89 e5                	mov    %esp,%ebp
    26c3:	57                   	push   %edi
    26c4:	56                   	push   %esi
    26c5:	53                   	push   %ebx
    26c6:	83 ec 1c             	sub    $0x1c,%esp
    26c9:	8b 5d 08             	mov    0x8(%ebp),%ebx
    26cc:	8b 75 20             	mov    0x20(%ebp),%esi
    26cf:	85 db                	test   %ebx,%ebx
    26d1:	74 6d                	je     2740 <wav_parse_header+0x80>
    26d3:	50                   	push   %eax
    26d4:	6a 04                	push   $0x4
    26d6:	68 7a 7a 00 00       	push   $0x7a7a
    26db:	53                   	push   %ebx
    26dc:	e8 8f 6f 00 00       	call   9670 <str_lcmp@plt>
    26e1:	83 c4 10             	add    $0x10,%esp
    26e4:	85 c0                	test   %eax,%eax
    26e6:	74 20                	je     2708 <wav_parse_header+0x48>
    26e8:	85 f6                	test   %esi,%esi
    26ea:	74 5e                	je     274a <wav_parse_header+0x8a>
    26ec:	c7 06 7f 7a 00 00    	movl   $0x7a7f,(%esi)
    26f2:	bf f2 ff ff ff       	mov    $0xfffffff2,%edi
    26f7:	8d 65 f4             	lea    -0xc(%ebp),%esp
    26fa:	89 f8                	mov    %edi,%eax
    26fc:	5b                   	pop    %ebx
    26fd:	5e                   	pop    %esi
    26fe:	5f                   	pop    %edi
    26ff:	5d                   	pop    %ebp
    2700:	c3                   	ret    
    2701:	8d b4 26 00 00 00 00 	lea    0x0(%esi,%eiz,1),%esi
    2708:	50                   	push   %eax
    2709:	8d 43 08             	lea    0x8(%ebx),%eax
    270c:	6a 04                	push   $0x4
    270e:	68 90 7a 00 00       	push   $0x7a90
    2713:	50                   	push   %eax
    2714:	e8 57 6f 00 00       	call   9670 <str_lcmp@plt>
    2719:	83 c4 10             	add    $0x10,%esp
    271c:	85 c0                	test   %eax,%eax
    271e:	74 40                	je     2760 <wav_parse_header+0xa0>
    2720:	85 f6                	test   %esi,%esi
    2722:	74 26                	je     274a <wav_parse_header+0x8a>
    2724:	c7 06 95 7a 00 00    	movl   $0x7a95,(%esi)
    272a:	8d 65 f4             	lea    -0xc(%ebp),%esp
    272d:	bf f2 ff ff ff       	mov    $0xfffffff2,%edi
    2732:	5b                   	pop    %ebx
    2733:	89 f8                	mov    %edi,%eax
    2735:	5e                   	pop    %esi
    2736:	5f                   	pop    %edi
    2737:	5d                   	pop    %ebp
    2738:	c3                   	ret    
    2739:	8d b4 26 00 00 00 00 	lea    0x0(%esi,%eiz,1),%esi
    2740:	85 f6                	test   %esi,%esi
    2742:	74 06                	je     274a <wav_parse_header+0x8a>
    2744:	c7 06 70 7a 00 00    	movl   $0x7a70,(%esi)
    274a:	8d 65 f4             	lea    -0xc(%ebp),%esp
    274d:	bf f2 ff ff ff       	mov    $0xfffffff2,%edi
    2752:	89 f8                	mov    %edi,%eax
    2754:	5b                   	pop    %ebx
    2755:	5e                   	pop    %esi
    2756:	5f                   	pop    %edi
    2757:	5d                   	pop    %ebp
    2758:	c3                   	ret    
    2759:	8d b4 26 00 00 00 00 	lea    0x0(%esi,%eiz,1),%esi
    2760:	50                   	push   %eax
    2761:	8d 43 0c             	lea    0xc(%ebx),%eax
    2764:	6a 04                	push   $0x4
    2766:	68 ab 7a 00 00       	push   $0x7aab
    276b:	50                   	push   %eax
    276c:	e8 ff 6e 00 00       	call   9670 <str_lcmp@plt>
    2771:	83 c4 10             	add    $0x10,%esp
    2774:	89 c7                	mov    %eax,%edi
    2776:	85 c0                	test   %eax,%eax
    2778:	75 36                	jne    27b0 <wav_parse_header+0xf0>
    277a:	85 f6                	test   %esi,%esi
    277c:	0f 95 c2             	setne  %dl
    277f:	83 7b 10 10          	cmpl   $0x10,0x10(%ebx)
    2783:	74 0a                	je     278f <wav_parse_header+0xcf>
    2785:	84 d2                	test   %dl,%dl
    2787:	74 06                	je     278f <wav_parse_header+0xcf>
    2789:	c7 06 c5 7a 00 00    	movl   $0x7ac5,(%esi)
    278f:	66 83 7b 14 01       	cmpw   $0x1,0x14(%ebx)
    2794:	74 2e                	je     27c4 <wav_parse_header+0x104>
    2796:	85 f6                	test   %esi,%esi
    2798:	0f 84 c8 00 00 00    	je     2866 <wav_parse_header+0x1a6>
    279e:	c7 06 dc 7a 00 00    	movl   $0x7adc,(%esi)
    27a4:	bf f5 ff ff ff       	mov    $0xfffffff5,%edi
    27a9:	e9 49 ff ff ff       	jmp    26f7 <wav_parse_header+0x37>
    27ae:	66 90                	xchg   %ax,%ax
    27b0:	85 f6                	test   %esi,%esi
    27b2:	74 96                	je     274a <wav_parse_header+0x8a>
    27b4:	c7 06 b0 7a 00 00    	movl   $0x7ab0,(%esi)
    27ba:	bf f2 ff ff ff       	mov    $0xfffffff2,%edi
    27bf:	e9 33 ff ff ff       	jmp    26f7 <wav_parse_header+0x37>
    27c4:	50                   	push   %eax
    27c5:	8d 43 24             	lea    0x24(%ebx),%eax
    27c8:	6a 04                	push   $0x4
    27ca:	88 55 e7             	mov    %dl,-0x19(%ebp)
    27cd:	68 eb 7a 00 00       	push   $0x7aeb
    27d2:	50                   	push   %eax
    27d3:	e8 98 6e 00 00       	call   9670 <str_lcmp@plt>
    27d8:	83 c4 10             	add    $0x10,%esp
    27db:	85 c0                	test   %eax,%eax
    27dd:	74 0d                	je     27ec <wav_parse_header+0x12c>
    27df:	8a 55 e7             	mov    -0x19(%ebp),%dl
    27e2:	84 d2                	test   %dl,%dl
    27e4:	74 06                	je     27ec <wav_parse_header+0x12c>
    27e6:	c7 06 f0 7a 00 00    	movl   $0x7af0,(%esi)
    27ec:	8b 45 0c             	mov    0xc(%ebp),%eax
    27ef:	85 c0                	test   %eax,%eax
    27f1:	74 08                	je     27fb <wav_parse_header+0x13b>
    27f3:	8b 4d 0c             	mov    0xc(%ebp),%ecx
    27f6:	8d 43 2c             	lea    0x2c(%ebx),%eax
    27f9:	89 01                	mov    %eax,(%ecx)
    27fb:	8b 45 10             	mov    0x10(%ebp),%eax
    27fe:	85 c0                	test   %eax,%eax
    2800:	74 08                	je     280a <wav_parse_header+0x14a>
    2802:	8b 4d 10             	mov    0x10(%ebp),%ecx
    2805:	8b 43 28             	mov    0x28(%ebx),%eax
    2808:	89 01                	mov    %eax,(%ecx)
    280a:	8b 4d 18             	mov    0x18(%ebp),%ecx
    280d:	85 c9                	test   %ecx,%ecx
    280f:	74 08                	je     2819 <wav_parse_header+0x159>
    2811:	8b 4d 18             	mov    0x18(%ebp),%ecx
    2814:	8b 43 18             	mov    0x18(%ebx),%eax
    2817:	89 01                	mov    %eax,(%ecx)
    2819:	8b 55 14             	mov    0x14(%ebp),%edx
    281c:	85 d2                	test   %edx,%edx
    281e:	74 0b                	je     282b <wav_parse_header+0x16b>
    2820:	31 c0                	xor    %eax,%eax
    2822:	8b 4d 14             	mov    0x14(%ebp),%ecx
    2825:	66 8b 43 16          	mov    0x16(%ebx),%ax
    2829:	89 01                	mov    %eax,(%ecx)
    282b:	8b 45 1c             	mov    0x1c(%ebp),%eax
    282e:	85 c0                	test   %eax,%eax
    2830:	74 21                	je     2853 <wav_parse_header+0x193>
    2832:	66 8b 43 22          	mov    0x22(%ebx),%ax
    2836:	66 83 f8 10          	cmp    $0x10,%ax
    283a:	74 45                	je     2881 <wav_parse_header+0x1c1>
    283c:	76 32                	jbe    2870 <wav_parse_header+0x1b0>
    283e:	66 83 f8 18          	cmp    $0x18,%ax
    2842:	74 58                	je     289c <wav_parse_header+0x1dc>
    2844:	66 83 f8 20          	cmp    $0x20,%ax
    2848:	75 42                	jne    288c <wav_parse_header+0x1cc>
    284a:	8b 45 1c             	mov    0x1c(%ebp),%eax
    284d:	c7 00 10 00 00 00    	movl   $0x10,(%eax)
    2853:	85 f6                	test   %esi,%esi
    2855:	0f 84 9c fe ff ff    	je     26f7 <wav_parse_header+0x37>
    285b:	c7 06 14 7b 00 00    	movl   $0x7b14,(%esi)
    2861:	e9 91 fe ff ff       	jmp    26f7 <wav_parse_header+0x37>
    2866:	bf f5 ff ff ff       	mov    $0xfffffff5,%edi
    286b:	e9 87 fe ff ff       	jmp    26f7 <wav_parse_header+0x37>
    2870:	66 83 f8 08          	cmp    $0x8,%ax
    2874:	75 16                	jne    288c <wav_parse_header+0x1cc>
    2876:	8b 45 1c             	mov    0x1c(%ebp),%eax
    2879:	c7 00 00 00 00 00    	movl   $0x0,(%eax)
    287f:	eb d2                	jmp    2853 <wav_parse_header+0x193>
    2881:	8b 45 1c             	mov    0x1c(%ebp),%eax
    2884:	c7 00 04 00 00 00    	movl   $0x4,(%eax)
    288a:	eb c7                	jmp    2853 <wav_parse_header+0x193>
    288c:	c7 06 05 7b 00 00    	movl   $0x7b05,(%esi)
    2892:	bf f5 ff ff ff       	mov    $0xfffffff5,%edi
    2897:	e9 5b fe ff ff       	jmp    26f7 <wav_parse_header+0x37>
    289c:	8b 45 1c             	mov    0x1c(%ebp),%eax
    289f:	c7 00 08 00 00 00    	movl   $0x8,(%eax)
    28a5:	eb ac                	jmp    2853 <wav_parse_header+0x193>
    28a7:	89 f6                	mov    %esi,%esi
    28a9:	8d bc 27 00 00 00 00 	lea    0x0(%edi,%eiz,1),%edi

000028b0 <wav_init_header>:
    28b0:	55                   	push   %ebp
    28b1:	89 e5                	mov    %esp,%ebp
    28b3:	53                   	push   %ebx
    28b4:	52                   	push   %edx
    28b5:	8b 5d 08             	mov    0x8(%ebp),%ebx
    28b8:	85 db                	test   %ebx,%ebx
    28ba:	0f 84 b6 00 00 00    	je     2976 <wav_init_header+0xc6>
    28c0:	83 ec 0c             	sub    $0xc,%esp
    28c3:	68 7a 7a 00 00       	push   $0x7a7a
    28c8:	e8 93 6d 00 00       	call   9660 <str_size@plt>
    28cd:	83 c4 0c             	add    $0xc,%esp
    28d0:	50                   	push   %eax
    28d1:	68 7a 7a 00 00       	push   $0x7a7a
    28d6:	53                   	push   %ebx
    28d7:	e8 e4 6a 00 00       	call   93c0 <memcpy@plt>
    28dc:	c7 04 24 90 7a 00 00 	movl   $0x7a90,(%esp)
    28e3:	e8 78 6d 00 00       	call   9660 <str_size@plt>
    28e8:	83 c4 0c             	add    $0xc,%esp
    28eb:	50                   	push   %eax
    28ec:	8d 43 08             	lea    0x8(%ebx),%eax
    28ef:	68 90 7a 00 00       	push   $0x7a90
    28f4:	50                   	push   %eax
    28f5:	e8 c6 6a 00 00       	call   93c0 <memcpy@plt>
    28fa:	c7 04 24 ab 7a 00 00 	movl   $0x7aab,(%esp)
    2901:	e8 5a 6d 00 00       	call   9660 <str_size@plt>
    2906:	83 c4 0c             	add    $0xc,%esp
    2909:	50                   	push   %eax
    290a:	8d 43 0c             	lea    0xc(%ebx),%eax
    290d:	68 ab 7a 00 00       	push   $0x7aab
    2912:	50                   	push   %eax
    2913:	e8 a8 6a 00 00       	call   93c0 <memcpy@plt>
    2918:	c7 43 10 10 00 00 00 	movl   $0x10,0x10(%ebx)
    291f:	66 c7 43 14 01 00    	movw   $0x1,0x14(%ebx)
    2925:	c7 04 24 eb 7a 00 00 	movl   $0x7aeb,(%esp)
    292c:	e8 2f 6d 00 00       	call   9660 <str_size@plt>
    2931:	83 c4 0c             	add    $0xc,%esp
    2934:	50                   	push   %eax
    2935:	8d 43 24             	lea    0x24(%ebx),%eax
    2938:	68 eb 7a 00 00       	push   $0x7aeb
    293d:	50                   	push   %eax
    293e:	e8 7d 6a 00 00       	call   93c0 <memcpy@plt>
    2943:	8b 45 18             	mov    0x18(%ebp),%eax
    2946:	89 43 28             	mov    %eax,0x28(%ebx)
    2949:	8b 45 10             	mov    0x10(%ebp),%eax
    294c:	89 43 18             	mov    %eax,0x18(%ebx)
    294f:	8b 55 14             	mov    0x14(%ebp),%edx
    2952:	8b 45 0c             	mov    0xc(%ebp),%eax
    2955:	83 c4 10             	add    $0x10,%esp
    2958:	66 89 43 16          	mov    %ax,0x16(%ebx)
    295c:	31 c0                	xor    %eax,%eax
    295e:	83 fa 12             	cmp    $0x12,%edx
    2961:	77 0a                	ja     296d <wav_init_header+0xbd>
    2963:	8b 04 95 40 7b 00 00 	mov    0x7b40(,%edx,4),%eax
    296a:	c1 e0 03             	shl    $0x3,%eax
    296d:	66 89 43 22          	mov    %ax,0x22(%ebx)
    2971:	8b 5d fc             	mov    -0x4(%ebp),%ebx
    2974:	c9                   	leave  
    2975:	c3                   	ret    
    2976:	50                   	push   %eax
    2977:	68 91 00 00 00       	push   $0x91
    297c:	68 1d 7b 00 00       	push   $0x7b1d
    2981:	68 73 7a 00 00       	push   $0x7a73
    2986:	e8 15 6b 00 00       	call   94a0 <assert_abort@plt>
    298b:	66 90                	xchg   %ax,%ax
    298d:	66 90                	xchg   %ax,%ax
    298f:	90                   	nop

00002990 <hound_context_create_playback>:
    2990:	55                   	push   %ebp
    2991:	89 e5                	mov    %esp,%ebp
    2993:	57                   	push   %edi
    2994:	56                   	push   %esi
    2995:	53                   	push   %ebx
    2996:	83 ec 38             	sub    $0x38,%esp
    2999:	8b 45 14             	mov    0x14(%ebp),%eax
    299c:	8b 7d 0c             	mov    0xc(%ebp),%edi
    299f:	6a 2c                	push   $0x2c
    29a1:	8b 75 10             	mov    0x10(%ebp),%esi
    29a4:	89 45 d0             	mov    %eax,-0x30(%ebp)
    29a7:	e8 24 6a 00 00       	call   93d0 <malloc@plt>
    29ac:	83 c4 10             	add    $0x10,%esp
    29af:	89 45 d4             	mov    %eax,-0x2c(%ebp)
    29b2:	85 c0                	test   %eax,%eax
    29b4:	0f 84 83 00 00 00    	je     2a3d <hound_context_create_playback+0xad>
    29ba:	89 c3                	mov    %eax,%ebx
    29bc:	e8 af 6b 00 00       	call   9570 <task_get_id@plt>
    29c1:	83 ec 0c             	sub    $0xc,%esp
    29c4:	8b 4d 08             	mov    0x8(%ebp),%ecx
    29c7:	51                   	push   %ecx
    29c8:	52                   	push   %edx
    29c9:	50                   	push   %eax
    29ca:	8d 45 e4             	lea    -0x1c(%ebp),%eax
    29cd:	68 8c 7b 00 00       	push   $0x7b8c
    29d2:	50                   	push   %eax
    29d3:	e8 48 6c 00 00       	call   9620 <asprintf@plt>
    29d8:	83 c4 20             	add    $0x20,%esp
    29db:	85 c0                	test   %eax,%eax
    29dd:	0f 88 95 00 00 00    	js     2a78 <hound_context_create_playback+0xe8>
    29e3:	8d 43 0c             	lea    0xc(%ebx),%eax
    29e6:	83 ec 0c             	sub    $0xc,%esp
    29e9:	89 43 0c             	mov    %eax,0xc(%ebx)
    29ec:	89 43 10             	mov    %eax,0x10(%ebx)
    29ef:	8b 45 e4             	mov    -0x1c(%ebp),%eax
    29f2:	c6 43 08 00          	movb   $0x0,0x8(%ebx)
    29f6:	89 43 04             	mov    %eax,0x4(%ebx)
    29f9:	a1 28 b4 00 00       	mov    0xb428,%eax
    29fe:	50                   	push   %eax
    29ff:	e8 dc 0a 00 00       	call   34e0 <hound_service_connect>
    2a04:	8b 4d d0             	mov    -0x30(%ebp),%ecx
    2a07:	8b 55 18             	mov    0x18(%ebp),%edx
    2a0a:	83 c4 10             	add    $0x10,%esp
    2a0d:	89 03                	mov    %eax,(%ebx)
    2a0f:	c7 43 14 00 00 00 00 	movl   $0x0,0x14(%ebx)
    2a16:	89 7b 18             	mov    %edi,0x18(%ebx)
    2a19:	89 73 1c             	mov    %esi,0x1c(%ebx)
    2a1c:	89 4b 20             	mov    %ecx,0x20(%ebx)
    2a1f:	89 53 24             	mov    %edx,0x24(%ebx)
    2a22:	85 c0                	test   %eax,%eax
    2a24:	74 62                	je     2a88 <hound_context_create_playback+0xf8>
    2a26:	56                   	push   %esi
    2a27:	6a 00                	push   $0x0
    2a29:	8b 7b 04             	mov    0x4(%ebx),%edi
    2a2c:	57                   	push   %edi
    2a2d:	50                   	push   %eax
    2a2e:	e8 1d 0b 00 00       	call   3550 <hound_service_register_context>
    2a33:	83 c4 10             	add    $0x10,%esp
    2a36:	89 43 28             	mov    %eax,0x28(%ebx)
    2a39:	85 c0                	test   %eax,%eax
    2a3b:	7e 0b                	jle    2a48 <hound_context_create_playback+0xb8>
    2a3d:	8b 45 d4             	mov    -0x2c(%ebp),%eax
    2a40:	8d 65 f4             	lea    -0xc(%ebp),%esp
    2a43:	5b                   	pop    %ebx
    2a44:	5e                   	pop    %esi
    2a45:	5f                   	pop    %edi
    2a46:	5d                   	pop    %ebp
    2a47:	c3                   	ret    
    2a48:	83 ec 0c             	sub    $0xc,%esp
    2a4b:	8b 13                	mov    (%ebx),%edx
    2a4d:	52                   	push   %edx
    2a4e:	e8 dd 0a 00 00       	call   3530 <hound_service_disconnect>
    2a53:	59                   	pop    %ecx
    2a54:	8b 43 04             	mov    0x4(%ebx),%eax
    2a57:	50                   	push   %eax
    2a58:	e8 f3 6c 00 00       	call   9750 <free@plt>
    2a5d:	89 1c 24             	mov    %ebx,(%esp)
    2a60:	e8 eb 6c 00 00       	call   9750 <free@plt>
    2a65:	83 c4 10             	add    $0x10,%esp
    2a68:	c7 45 d4 00 00 00 00 	movl   $0x0,-0x2c(%ebp)
    2a6f:	eb cc                	jmp    2a3d <hound_context_create_playback+0xad>
    2a71:	8d b4 26 00 00 00 00 	lea    0x0(%esi,%eiz,1),%esi
    2a78:	83 ec 0c             	sub    $0xc,%esp
    2a7b:	53                   	push   %ebx
    2a7c:	e8 cf 6c 00 00       	call   9750 <free@plt>
    2a81:	83 c4 10             	add    $0x10,%esp
    2a84:	eb e2                	jmp    2a68 <hound_context_create_playback+0xd8>
    2a86:	66 90                	xchg   %ax,%ax
    2a88:	83 ec 0c             	sub    $0xc,%esp
    2a8b:	eb c7                	jmp    2a54 <hound_context_create_playback+0xc4>
    2a8d:	8d 76 00             	lea    0x0(%esi),%esi

00002a90 <hound_context_create_capture>:
    2a90:	55                   	push   %ebp
    2a91:	89 e5                	mov    %esp,%ebp
    2a93:	57                   	push   %edi
    2a94:	56                   	push   %esi
    2a95:	53                   	push   %ebx
    2a96:	83 ec 38             	sub    $0x38,%esp
    2a99:	8b 45 14             	mov    0x14(%ebp),%eax
    2a9c:	8b 7d 0c             	mov    0xc(%ebp),%edi
    2a9f:	6a 2c                	push   $0x2c
    2aa1:	8b 75 10             	mov    0x10(%ebp),%esi
    2aa4:	89 45 d0             	mov    %eax,-0x30(%ebp)
    2aa7:	e8 24 69 00 00       	call   93d0 <malloc@plt>
    2aac:	83 c4 10             	add    $0x10,%esp
    2aaf:	89 45 d4             	mov    %eax,-0x2c(%ebp)
    2ab2:	85 c0                	test   %eax,%eax
    2ab4:	0f 84 83 00 00 00    	je     2b3d <hound_context_create_capture+0xad>
    2aba:	89 c3                	mov    %eax,%ebx
    2abc:	e8 af 6a 00 00       	call   9570 <task_get_id@plt>
    2ac1:	83 ec 0c             	sub    $0xc,%esp
    2ac4:	8b 4d 08             	mov    0x8(%ebp),%ecx
    2ac7:	51                   	push   %ecx
    2ac8:	52                   	push   %edx
    2ac9:	50                   	push   %eax
    2aca:	8d 45 e4             	lea    -0x1c(%ebp),%eax
    2acd:	68 8c 7b 00 00       	push   $0x7b8c
    2ad2:	50                   	push   %eax
    2ad3:	e8 48 6b 00 00       	call   9620 <asprintf@plt>
    2ad8:	83 c4 20             	add    $0x20,%esp
    2adb:	85 c0                	test   %eax,%eax
    2add:	0f 88 95 00 00 00    	js     2b78 <hound_context_create_capture+0xe8>
    2ae3:	8d 43 0c             	lea    0xc(%ebx),%eax
    2ae6:	83 ec 0c             	sub    $0xc,%esp
    2ae9:	89 43 0c             	mov    %eax,0xc(%ebx)
    2aec:	89 43 10             	mov    %eax,0x10(%ebx)
    2aef:	8b 45 e4             	mov    -0x1c(%ebp),%eax
    2af2:	c6 43 08 01          	movb   $0x1,0x8(%ebx)
    2af6:	89 43 04             	mov    %eax,0x4(%ebx)
    2af9:	a1 28 b4 00 00       	mov    0xb428,%eax
    2afe:	50                   	push   %eax
    2aff:	e8 dc 09 00 00       	call   34e0 <hound_service_connect>
    2b04:	8b 4d d0             	mov    -0x30(%ebp),%ecx
    2b07:	8b 55 18             	mov    0x18(%ebp),%edx
    2b0a:	83 c4 10             	add    $0x10,%esp
    2b0d:	89 03                	mov    %eax,(%ebx)
    2b0f:	c7 43 14 00 00 00 00 	movl   $0x0,0x14(%ebx)
    2b16:	89 7b 18             	mov    %edi,0x18(%ebx)
    2b19:	89 73 1c             	mov    %esi,0x1c(%ebx)
    2b1c:	89 4b 20             	mov    %ecx,0x20(%ebx)
    2b1f:	89 53 24             	mov    %edx,0x24(%ebx)
    2b22:	85 c0                	test   %eax,%eax
    2b24:	74 62                	je     2b88 <hound_context_create_capture+0xf8>
    2b26:	56                   	push   %esi
    2b27:	6a 01                	push   $0x1
    2b29:	8b 7b 04             	mov    0x4(%ebx),%edi
    2b2c:	57                   	push   %edi
    2b2d:	50                   	push   %eax
    2b2e:	e8 1d 0a 00 00       	call   3550 <hound_service_register_context>
    2b33:	83 c4 10             	add    $0x10,%esp
    2b36:	89 43 28             	mov    %eax,0x28(%ebx)
    2b39:	85 c0                	test   %eax,%eax
    2b3b:	7e 0b                	jle    2b48 <hound_context_create_capture+0xb8>
    2b3d:	8b 45 d4             	mov    -0x2c(%ebp),%eax
    2b40:	8d 65 f4             	lea    -0xc(%ebp),%esp
    2b43:	5b                   	pop    %ebx
    2b44:	5e                   	pop    %esi
    2b45:	5f                   	pop    %edi
    2b46:	5d                   	pop    %ebp
    2b47:	c3                   	ret    
    2b48:	83 ec 0c             	sub    $0xc,%esp
    2b4b:	8b 13                	mov    (%ebx),%edx
    2b4d:	52                   	push   %edx
    2b4e:	e8 dd 09 00 00       	call   3530 <hound_service_disconnect>
    2b53:	59                   	pop    %ecx
    2b54:	8b 43 04             	mov    0x4(%ebx),%eax
    2b57:	50                   	push   %eax
    2b58:	e8 f3 6b 00 00       	call   9750 <free@plt>
    2b5d:	89 1c 24             	mov    %ebx,(%esp)
    2b60:	e8 eb 6b 00 00       	call   9750 <free@plt>
    2b65:	83 c4 10             	add    $0x10,%esp
    2b68:	c7 45 d4 00 00 00 00 	movl   $0x0,-0x2c(%ebp)
    2b6f:	eb cc                	jmp    2b3d <hound_context_create_capture+0xad>
    2b71:	8d b4 26 00 00 00 00 	lea    0x0(%esi,%eiz,1),%esi
    2b78:	83 ec 0c             	sub    $0xc,%esp
    2b7b:	53                   	push   %ebx
    2b7c:	e8 cf 6b 00 00       	call   9750 <free@plt>
    2b81:	83 c4 10             	add    $0x10,%esp
    2b84:	eb e2                	jmp    2b68 <hound_context_create_capture+0xd8>
    2b86:	66 90                	xchg   %ax,%ax
    2b88:	83 ec 0c             	sub    $0xc,%esp
    2b8b:	eb c7                	jmp    2b54 <hound_context_create_capture+0xc4>
    2b8d:	8d 76 00             	lea    0x0(%esi),%esi

00002b90 <hound_context_destroy>:
    2b90:	55                   	push   %ebp
    2b91:	89 e5                	mov    %esp,%ebp
    2b93:	57                   	push   %edi
    2b94:	56                   	push   %esi
    2b95:	53                   	push   %ebx
    2b96:	83 ec 0c             	sub    $0xc,%esp
    2b99:	8b 75 08             	mov    0x8(%ebp),%esi
    2b9c:	85 f6                	test   %esi,%esi
    2b9e:	0f 84 af 00 00 00    	je     2c53 <hound_context_destroy+0xc3>
    2ba4:	8d 7e 0c             	lea    0xc(%esi),%edi
    2ba7:	eb 4d                	jmp    2bf6 <hound_context_destroy+0x66>
    2ba9:	8d b4 26 00 00 00 00 	lea    0x0(%esi,%eiz,1),%esi
    2bb0:	83 ec 0c             	sub    $0xc,%esp
    2bb3:	8b 43 14             	mov    0x14(%ebx),%eax
    2bb6:	50                   	push   %eax
    2bb7:	e8 64 10 00 00       	call   3c20 <hound_service_stream_exit>
    2bbc:	58                   	pop    %eax
    2bbd:	8b 43 14             	mov    0x14(%ebx),%eax
    2bc0:	50                   	push   %eax
    2bc1:	e8 ba 68 00 00       	call   9480 <async_exchange_end@plt>
    2bc6:	8b 13                	mov    (%ebx),%edx
    2bc8:	83 c4 10             	add    $0x10,%esp
    2bcb:	85 d2                	test   %edx,%edx
    2bcd:	74 0e                	je     2bdd <hound_context_destroy+0x4d>
    2bcf:	8b 43 04             	mov    0x4(%ebx),%eax
    2bd2:	85 c0                	test   %eax,%eax
    2bd4:	74 07                	je     2bdd <hound_context_destroy+0x4d>
    2bd6:	89 10                	mov    %edx,(%eax)
    2bd8:	8b 13                	mov    (%ebx),%edx
    2bda:	89 42 04             	mov    %eax,0x4(%edx)
    2bdd:	83 ec 0c             	sub    $0xc,%esp
    2be0:	c7 03 00 00 00 00    	movl   $0x0,(%ebx)
    2be6:	c7 43 04 00 00 00 00 	movl   $0x0,0x4(%ebx)
    2bed:	53                   	push   %ebx
    2bee:	e8 5d 6b 00 00       	call   9750 <free@plt>
    2bf3:	83 c4 10             	add    $0x10,%esp
    2bf6:	8b 5e 10             	mov    0x10(%esi),%ebx
    2bf9:	39 df                	cmp    %ebx,%edi
    2bfb:	74 23                	je     2c20 <hound_context_destroy+0x90>
    2bfd:	85 db                	test   %ebx,%ebx
    2bff:	74 17                	je     2c18 <hound_context_destroy+0x88>
    2c01:	f6 43 1c 01          	testb  $0x1,0x1c(%ebx)
    2c05:	74 a9                	je     2bb0 <hound_context_destroy+0x20>
    2c07:	83 ec 0c             	sub    $0xc,%esp
    2c0a:	8b 43 14             	mov    0x14(%ebx),%eax
    2c0d:	50                   	push   %eax
    2c0e:	e8 3d 10 00 00       	call   3c50 <hound_service_stream_drain>
    2c13:	83 c4 10             	add    $0x10,%esp
    2c16:	eb 98                	jmp    2bb0 <hound_context_destroy+0x20>
    2c18:	eb fe                	jmp    2c18 <hound_context_destroy+0x88>
    2c1a:	8d b6 00 00 00 00    	lea    0x0(%esi),%esi
    2c20:	50                   	push   %eax
    2c21:	50                   	push   %eax
    2c22:	8b 56 28             	mov    0x28(%esi),%edx
    2c25:	52                   	push   %edx
    2c26:	8b 0e                	mov    (%esi),%ecx
    2c28:	51                   	push   %ecx
    2c29:	e8 12 0a 00 00       	call   3640 <hound_service_unregister_context>
    2c2e:	8b 3e                	mov    (%esi),%edi
    2c30:	5b                   	pop    %ebx
    2c31:	57                   	push   %edi
    2c32:	e8 f9 08 00 00       	call   3530 <hound_service_disconnect>
    2c37:	58                   	pop    %eax
    2c38:	8b 46 04             	mov    0x4(%esi),%eax
    2c3b:	50                   	push   %eax
    2c3c:	e8 0f 6b 00 00       	call   9750 <free@plt>
    2c41:	89 75 08             	mov    %esi,0x8(%ebp)
    2c44:	83 c4 10             	add    $0x10,%esp
    2c47:	8d 65 f4             	lea    -0xc(%ebp),%esp
    2c4a:	5b                   	pop    %ebx
    2c4b:	5e                   	pop    %esi
    2c4c:	5f                   	pop    %edi
    2c4d:	5d                   	pop    %ebp
    2c4e:	e9 fd 6a 00 00       	jmp    9750 <free@plt>
    2c53:	52                   	push   %edx
    2c54:	68 ad 00 00 00       	push   $0xad
    2c59:	68 94 7b 00 00       	push   $0x7b94
    2c5e:	68 f4 7b 00 00       	push   $0x7bf4
    2c63:	e8 38 68 00 00       	call   94a0 <assert_abort@plt>
    2c68:	90                   	nop
    2c69:	8d b4 26 00 00 00 00 	lea    0x0(%esi,%eiz,1),%esi

00002c70 <hound_context_get_available_targets>:
    2c70:	55                   	push   %ebp
    2c71:	89 e5                	mov    %esp,%ebp
    2c73:	53                   	push   %ebx
    2c74:	50                   	push   %eax
    2c75:	8b 55 08             	mov    0x8(%ebp),%edx
    2c78:	8b 4d 0c             	mov    0xc(%ebp),%ecx
    2c7b:	8b 5d 10             	mov    0x10(%ebp),%ebx
    2c7e:	85 d2                	test   %edx,%edx
    2c80:	74 29                	je     2cab <hound_context_get_available_targets+0x3b>
    2c82:	85 c9                	test   %ecx,%ecx
    2c84:	74 4f                	je     2cd5 <hound_context_get_available_targets+0x65>
    2c86:	85 db                	test   %ebx,%ebx
    2c88:	74 36                	je     2cc0 <hound_context_get_available_targets+0x50>
    2c8a:	80 7a 08 01          	cmpb   $0x1,0x8(%edx)
    2c8e:	19 c0                	sbb    %eax,%eax
    2c90:	83 ec 0c             	sub    $0xc,%esp
    2c93:	83 e0 fa             	and    $0xfffffffa,%eax
    2c96:	83 c0 08             	add    $0x8,%eax
    2c99:	6a 00                	push   $0x0
    2c9b:	50                   	push   %eax
    2c9c:	53                   	push   %ebx
    2c9d:	51                   	push   %ecx
    2c9e:	8b 02                	mov    (%edx),%eax
    2ca0:	50                   	push   %eax
    2ca1:	e8 0a 0a 00 00       	call   36b0 <hound_service_get_list>
    2ca6:	8b 5d fc             	mov    -0x4(%ebp),%ebx
    2ca9:	c9                   	leave  
    2caa:	c3                   	ret    
    2cab:	53                   	push   %ebx
    2cac:	68 c7 00 00 00       	push   $0xc7
    2cb1:	68 94 7b 00 00       	push   $0x7b94
    2cb6:	68 f4 7b 00 00       	push   $0x7bf4
    2cbb:	e8 e0 67 00 00       	call   94a0 <assert_abort@plt>
    2cc0:	52                   	push   %edx
    2cc1:	68 c9 00 00 00       	push   $0xc9
    2cc6:	68 94 7b 00 00       	push   $0x7b94
    2ccb:	68 a7 7b 00 00       	push   $0x7ba7
    2cd0:	e8 cb 67 00 00       	call   94a0 <assert_abort@plt>
    2cd5:	51                   	push   %ecx
    2cd6:	68 c8 00 00 00       	push   $0xc8
    2cdb:	68 94 7b 00 00       	push   $0x7b94
    2ce0:	68 a1 7b 00 00       	push   $0x7ba1
    2ce5:	e8 b6 67 00 00       	call   94a0 <assert_abort@plt>
    2cea:	8d b6 00 00 00 00    	lea    0x0(%esi),%esi

00002cf0 <hound_context_get_connected_targets>:
    2cf0:	55                   	push   %ebp
    2cf1:	89 e5                	mov    %esp,%ebp
    2cf3:	53                   	push   %ebx
    2cf4:	50                   	push   %eax
    2cf5:	8b 55 08             	mov    0x8(%ebp),%edx
    2cf8:	8b 4d 0c             	mov    0xc(%ebp),%ecx
    2cfb:	8b 5d 10             	mov    0x10(%ebp),%ebx
    2cfe:	85 d2                	test   %edx,%edx
    2d00:	74 2a                	je     2d2c <hound_context_get_connected_targets+0x3c>
    2d02:	85 c9                	test   %ecx,%ecx
    2d04:	74 50                	je     2d56 <hound_context_get_connected_targets+0x66>
    2d06:	85 db                	test   %ebx,%ebx
    2d08:	74 37                	je     2d41 <hound_context_get_connected_targets+0x51>
    2d0a:	80 7a 08 01          	cmpb   $0x1,0x8(%edx)
    2d0e:	19 c0                	sbb    %eax,%eax
    2d10:	83 ec 0c             	sub    $0xc,%esp
    2d13:	ff 72 04             	pushl  0x4(%edx)
    2d16:	83 e0 fa             	and    $0xfffffffa,%eax
    2d19:	83 c0 18             	add    $0x18,%eax
    2d1c:	50                   	push   %eax
    2d1d:	53                   	push   %ebx
    2d1e:	51                   	push   %ecx
    2d1f:	8b 02                	mov    (%edx),%eax
    2d21:	50                   	push   %eax
    2d22:	e8 89 09 00 00       	call   36b0 <hound_service_get_list>
    2d27:	8b 5d fc             	mov    -0x4(%ebp),%ebx
    2d2a:	c9                   	leave  
    2d2b:	c3                   	ret    
    2d2c:	53                   	push   %ebx
    2d2d:	68 d8 00 00 00       	push   $0xd8
    2d32:	68 94 7b 00 00       	push   $0x7b94
    2d37:	68 f4 7b 00 00       	push   $0x7bf4
    2d3c:	e8 5f 67 00 00       	call   94a0 <assert_abort@plt>
    2d41:	52                   	push   %edx
    2d42:	68 da 00 00 00       	push   $0xda
    2d47:	68 94 7b 00 00       	push   $0x7b94
    2d4c:	68 a7 7b 00 00       	push   $0x7ba7
    2d51:	e8 4a 67 00 00       	call   94a0 <assert_abort@plt>
    2d56:	51                   	push   %ecx
    2d57:	68 d9 00 00 00       	push   $0xd9
    2d5c:	68 94 7b 00 00       	push   $0x7b94
    2d61:	68 a1 7b 00 00       	push   $0x7ba1
    2d66:	e8 35 67 00 00       	call   94a0 <assert_abort@plt>
    2d6b:	90                   	nop
    2d6c:	8d 74 26 00          	lea    0x0(%esi,%eiz,1),%esi

00002d70 <hound_context_connect_target>:
    2d70:	55                   	push   %ebp
    2d71:	89 e5                	mov    %esp,%ebp
    2d73:	56                   	push   %esi
    2d74:	53                   	push   %ebx
    2d75:	83 ec 20             	sub    $0x20,%esp
    2d78:	8b 5d 08             	mov    0x8(%ebp),%ebx
    2d7b:	8b 75 0c             	mov    0xc(%ebp),%esi
    2d7e:	85 db                	test   %ebx,%ebx
    2d80:	0f 84 e6 00 00 00    	je     2e6c <hound_context_connect_target+0xfc>
    2d86:	85 f6                	test   %esi,%esi
    2d88:	0f 84 c9 00 00 00    	je     2e57 <hound_context_connect_target+0xe7>
    2d8e:	c7 45 f0 00 00 00 00 	movl   $0x0,-0x10(%ebp)
    2d95:	50                   	push   %eax
    2d96:	c7 45 f4 01 00 00 00 	movl   $0x1,-0xc(%ebp)
    2d9d:	50                   	push   %eax
    2d9e:	68 79 6e 00 00       	push   $0x6e79
    2da3:	56                   	push   %esi
    2da4:	e8 a7 67 00 00       	call   9550 <str_cmp@plt>
    2da9:	83 c4 10             	add    $0x10,%esp
    2dac:	85 c0                	test   %eax,%eax
    2dae:	74 68                	je     2e18 <hound_context_connect_target+0xa8>
    2db0:	80 7b 08 00          	cmpb   $0x0,0x8(%ebx)
    2db4:	75 4a                	jne    2e00 <hound_context_connect_target+0x90>
    2db6:	52                   	push   %edx
    2db7:	56                   	push   %esi
    2db8:	8b 4b 04             	mov    0x4(%ebx),%ecx
    2dbb:	8b 1b                	mov    (%ebx),%ebx
    2dbd:	51                   	push   %ecx
    2dbe:	53                   	push   %ebx
    2dbf:	e8 ec 0b 00 00       	call   39b0 <hound_service_connect_source_sink>
    2dc4:	83 c4 10             	add    $0x10,%esp
    2dc7:	8b 55 f0             	mov    -0x10(%ebp),%edx
    2dca:	85 d2                	test   %edx,%edx
    2dcc:	74 17                	je     2de5 <hound_context_connect_target+0x75>
    2dce:	83 ec 0c             	sub    $0xc,%esp
    2dd1:	89 45 e4             	mov    %eax,-0x1c(%ebp)
    2dd4:	8b 02                	mov    (%edx),%eax
    2dd6:	50                   	push   %eax
    2dd7:	e8 74 69 00 00       	call   9750 <free@plt>
    2ddc:	8b 55 f0             	mov    -0x10(%ebp),%edx
    2ddf:	83 c4 10             	add    $0x10,%esp
    2de2:	8b 45 e4             	mov    -0x1c(%ebp),%eax
    2de5:	83 ec 0c             	sub    $0xc,%esp
    2de8:	89 45 e4             	mov    %eax,-0x1c(%ebp)
    2deb:	52                   	push   %edx
    2dec:	e8 5f 69 00 00       	call   9750 <free@plt>
    2df1:	83 c4 10             	add    $0x10,%esp
    2df4:	8b 45 e4             	mov    -0x1c(%ebp),%eax
    2df7:	8d 65 f8             	lea    -0x8(%ebp),%esp
    2dfa:	5b                   	pop    %ebx
    2dfb:	5e                   	pop    %esi
    2dfc:	5d                   	pop    %ebp
    2dfd:	c3                   	ret    
    2dfe:	66 90                	xchg   %ax,%ax
    2e00:	50                   	push   %eax
    2e01:	8b 43 04             	mov    0x4(%ebx),%eax
    2e04:	50                   	push   %eax
    2e05:	8b 03                	mov    (%ebx),%eax
    2e07:	56                   	push   %esi
    2e08:	50                   	push   %eax
    2e09:	e8 a2 0b 00 00       	call   39b0 <hound_service_connect_source_sink>
    2e0e:	83 c4 10             	add    $0x10,%esp
    2e11:	eb b4                	jmp    2dc7 <hound_context_connect_target+0x57>
    2e13:	90                   	nop
    2e14:	8d 74 26 00          	lea    0x0(%esi,%eiz,1),%esi
    2e18:	80 7b 08 01          	cmpb   $0x1,0x8(%ebx)
    2e1c:	19 c0                	sbb    %eax,%eax
    2e1e:	83 ec 0c             	sub    $0xc,%esp
    2e21:	83 e0 fa             	and    $0xfffffffa,%eax
    2e24:	83 c0 08             	add    $0x8,%eax
    2e27:	6a 00                	push   $0x0
    2e29:	50                   	push   %eax
    2e2a:	8d 45 f4             	lea    -0xc(%ebp),%eax
    2e2d:	50                   	push   %eax
    2e2e:	8d 45 f0             	lea    -0x10(%ebp),%eax
    2e31:	50                   	push   %eax
    2e32:	8b 03                	mov    (%ebx),%eax
    2e34:	50                   	push   %eax
    2e35:	e8 76 08 00 00       	call   36b0 <hound_service_get_list>
    2e3a:	83 c4 20             	add    $0x20,%esp
    2e3d:	85 c0                	test   %eax,%eax
    2e3f:	75 b6                	jne    2df7 <hound_context_connect_target+0x87>
    2e41:	8b 45 f4             	mov    -0xc(%ebp),%eax
    2e44:	85 c0                	test   %eax,%eax
    2e46:	74 0a                	je     2e52 <hound_context_connect_target+0xe2>
    2e48:	8b 45 f0             	mov    -0x10(%ebp),%eax
    2e4b:	8b 30                	mov    (%eax),%esi
    2e4d:	e9 5e ff ff ff       	jmp    2db0 <hound_context_connect_target+0x40>
    2e52:	83 c8 ff             	or     $0xffffffff,%eax
    2e55:	eb a0                	jmp    2df7 <hound_context_connect_target+0x87>
    2e57:	52                   	push   %edx
    2e58:	68 ec 00 00 00       	push   $0xec
    2e5d:	68 94 7b 00 00       	push   $0x7b94
    2e62:	68 ad 7b 00 00       	push   $0x7bad
    2e67:	e8 34 66 00 00       	call   94a0 <assert_abort@plt>
    2e6c:	51                   	push   %ecx
    2e6d:	68 eb 00 00 00       	push   $0xeb
    2e72:	68 94 7b 00 00       	push   $0x7b94
    2e77:	68 f4 7b 00 00       	push   $0x7bf4
    2e7c:	e8 1f 66 00 00       	call   94a0 <assert_abort@plt>
    2e81:	eb 0d                	jmp    2e90 <hound_context_disconnect_target>
    2e83:	90                   	nop
    2e84:	90                   	nop
    2e85:	90                   	nop
    2e86:	90                   	nop
    2e87:	90                   	nop
    2e88:	90                   	nop
    2e89:	90                   	nop
    2e8a:	90                   	nop
    2e8b:	90                   	nop
    2e8c:	90                   	nop
    2e8d:	90                   	nop
    2e8e:	90                   	nop
    2e8f:	90                   	nop

00002e90 <hound_context_disconnect_target>:
    2e90:	55                   	push   %ebp
    2e91:	89 e5                	mov    %esp,%ebp
    2e93:	83 ec 08             	sub    $0x8,%esp
    2e96:	8b 45 08             	mov    0x8(%ebp),%eax
    2e99:	8b 55 0c             	mov    0xc(%ebp),%edx
    2e9c:	85 c0                	test   %eax,%eax
    2e9e:	74 48                	je     2ee8 <hound_context_disconnect_target+0x58>
    2ea0:	85 d2                	test   %edx,%edx
    2ea2:	74 2f                	je     2ed3 <hound_context_disconnect_target+0x43>
    2ea4:	80 78 08 00          	cmpb   $0x0,0x8(%eax)
    2ea8:	75 16                	jne    2ec0 <hound_context_disconnect_target+0x30>
    2eaa:	51                   	push   %ecx
    2eab:	52                   	push   %edx
    2eac:	8b 50 04             	mov    0x4(%eax),%edx
    2eaf:	52                   	push   %edx
    2eb0:	8b 08                	mov    (%eax),%ecx
    2eb2:	51                   	push   %ecx
    2eb3:	e8 18 0c 00 00       	call   3ad0 <hound_service_disconnect_source_sink>
    2eb8:	83 c4 10             	add    $0x10,%esp
    2ebb:	c9                   	leave  
    2ebc:	c3                   	ret    
    2ebd:	8d 76 00             	lea    0x0(%esi),%esi
    2ec0:	51                   	push   %ecx
    2ec1:	8b 48 04             	mov    0x4(%eax),%ecx
    2ec4:	51                   	push   %ecx
    2ec5:	52                   	push   %edx
    2ec6:	8b 00                	mov    (%eax),%eax
    2ec8:	50                   	push   %eax
    2ec9:	e8 02 0c 00 00       	call   3ad0 <hound_service_disconnect_source_sink>
    2ece:	83 c4 10             	add    $0x10,%esp
    2ed1:	c9                   	leave  
    2ed2:	c3                   	ret    
    2ed3:	50                   	push   %eax
    2ed4:	68 11 01 00 00       	push   $0x111
    2ed9:	68 94 7b 00 00       	push   $0x7b94
    2ede:	68 ad 7b 00 00       	push   $0x7bad
    2ee3:	e8 b8 65 00 00       	call   94a0 <assert_abort@plt>
    2ee8:	50                   	push   %eax
    2ee9:	68 10 01 00 00       	push   $0x110
    2eee:	68 94 7b 00 00       	push   $0x7b94
    2ef3:	68 f4 7b 00 00       	push   $0x7bf4
    2ef8:	e8 a3 65 00 00       	call   94a0 <assert_abort@plt>
    2efd:	8d 76 00             	lea    0x0(%esi),%esi

00002f00 <hound_stream_create>:
    2f00:	55                   	push   %ebp
    2f01:	89 e5                	mov    %esp,%ebp
    2f03:	57                   	push   %edi
    2f04:	56                   	push   %esi
    2f05:	53                   	push   %ebx
    2f06:	83 ec 0c             	sub    $0xc,%esp
    2f09:	8b 75 08             	mov    0x8(%ebp),%esi
    2f0c:	85 f6                	test   %esi,%esi
    2f0e:	0f 84 b7 00 00 00    	je     2fcb <hound_stream_create+0xcb>
    2f14:	83 ec 0c             	sub    $0xc,%esp
    2f17:	8b 1e                	mov    (%esi),%ebx
    2f19:	53                   	push   %ebx
    2f1a:	e8 71 67 00 00       	call   9690 <async_exchange_begin@plt>
    2f1f:	83 c4 10             	add    $0x10,%esp
    2f22:	89 c7                	mov    %eax,%edi
    2f24:	85 c0                	test   %eax,%eax
    2f26:	0f 84 93 00 00 00    	je     2fbf <hound_stream_create+0xbf>
    2f2c:	83 ec 0c             	sub    $0xc,%esp
    2f2f:	6a 20                	push   $0x20
    2f31:	e8 9a 64 00 00       	call   93d0 <malloc@plt>
    2f36:	83 c4 10             	add    $0x10,%esp
    2f39:	89 c3                	mov    %eax,%ebx
    2f3b:	85 c0                	test   %eax,%eax
    2f3d:	0f 84 7c 00 00 00    	je     2fbf <hound_stream_create+0xbf>
    2f43:	c7 00 00 00 00 00    	movl   $0x0,(%eax)
    2f49:	c7 40 04 00 00 00 00 	movl   $0x0,0x4(%eax)
    2f50:	89 78 14             	mov    %edi,0x14(%eax)
    2f53:	8b 45 10             	mov    0x10(%ebp),%eax
    2f56:	83 ec 04             	sub    $0x4,%esp
    2f59:	89 43 08             	mov    %eax,0x8(%ebx)
    2f5c:	8b 55 14             	mov    0x14(%ebp),%edx
    2f5f:	8b 4d 18             	mov    0x18(%ebp),%ecx
    2f62:	8b 45 0c             	mov    0xc(%ebp),%eax
    2f65:	89 53 0c             	mov    %edx,0xc(%ebx)
    2f68:	89 4b 10             	mov    %ecx,0x10(%ebx)
    2f6b:	89 73 18             	mov    %esi,0x18(%ebx)
    2f6e:	89 43 1c             	mov    %eax,0x1c(%ebx)
    2f71:	ff 75 1c             	pushl  0x1c(%ebp)
    2f74:	51                   	push   %ecx
    2f75:	52                   	push   %edx
    2f76:	8b 55 10             	mov    0x10(%ebp),%edx
    2f79:	52                   	push   %edx
    2f7a:	50                   	push   %eax
    2f7b:	8b 4e 28             	mov    0x28(%esi),%ecx
    2f7e:	51                   	push   %ecx
    2f7f:	57                   	push   %edi
    2f80:	e8 3b 0c 00 00       	call   3bc0 <hound_service_stream_enter>
    2f85:	83 c4 20             	add    $0x20,%esp
    2f88:	85 c0                	test   %eax,%eax
    2f8a:	75 1c                	jne    2fa8 <hound_stream_create+0xa8>
    2f8c:	8d 46 0c             	lea    0xc(%esi),%eax
    2f8f:	89 43 04             	mov    %eax,0x4(%ebx)
    2f92:	8b 46 0c             	mov    0xc(%esi),%eax
    2f95:	89 03                	mov    %eax,(%ebx)
    2f97:	89 58 04             	mov    %ebx,0x4(%eax)
    2f9a:	89 5e 0c             	mov    %ebx,0xc(%esi)
    2f9d:	8d 65 f4             	lea    -0xc(%ebp),%esp
    2fa0:	89 d8                	mov    %ebx,%eax
    2fa2:	5b                   	pop    %ebx
    2fa3:	5e                   	pop    %esi
    2fa4:	5f                   	pop    %edi
    2fa5:	5d                   	pop    %ebp
    2fa6:	c3                   	ret    
    2fa7:	90                   	nop
    2fa8:	83 ec 0c             	sub    $0xc,%esp
    2fab:	8b 43 14             	mov    0x14(%ebx),%eax
    2fae:	50                   	push   %eax
    2faf:	e8 cc 64 00 00       	call   9480 <async_exchange_end@plt>
    2fb4:	89 1c 24             	mov    %ebx,(%esp)
    2fb7:	e8 94 67 00 00       	call   9750 <free@plt>
    2fbc:	83 c4 10             	add    $0x10,%esp
    2fbf:	8d 65 f4             	lea    -0xc(%ebp),%esp
    2fc2:	31 db                	xor    %ebx,%ebx
    2fc4:	89 d8                	mov    %ebx,%eax
    2fc6:	5b                   	pop    %ebx
    2fc7:	5e                   	pop    %esi
    2fc8:	5f                   	pop    %edi
    2fc9:	5d                   	pop    %ebp
    2fca:	c3                   	ret    
    2fcb:	56                   	push   %esi
    2fcc:	68 27 01 00 00       	push   $0x127
    2fd1:	68 94 7b 00 00       	push   $0x7b94
    2fd6:	68 f4 7b 00 00       	push   $0x7bf4
    2fdb:	e8 c0 64 00 00       	call   94a0 <assert_abort@plt>

00002fe0 <hound_stream_destroy>:
    2fe0:	55                   	push   %ebp
    2fe1:	89 e5                	mov    %esp,%ebp
    2fe3:	53                   	push   %ebx
    2fe4:	50                   	push   %eax
    2fe5:	8b 5d 08             	mov    0x8(%ebp),%ebx
    2fe8:	85 db                	test   %ebx,%ebx
    2fea:	74 64                	je     3050 <hound_stream_destroy+0x70>
    2fec:	f6 43 1c 01          	testb  $0x1,0x1c(%ebx)
    2ff0:	75 46                	jne    3038 <hound_stream_destroy+0x58>
    2ff2:	83 ec 0c             	sub    $0xc,%esp
    2ff5:	8b 43 14             	mov    0x14(%ebx),%eax
    2ff8:	50                   	push   %eax
    2ff9:	e8 22 0c 00 00       	call   3c20 <hound_service_stream_exit>
    2ffe:	8b 4b 14             	mov    0x14(%ebx),%ecx
    3001:	5a                   	pop    %edx
    3002:	51                   	push   %ecx
    3003:	e8 78 64 00 00       	call   9480 <async_exchange_end@plt>
    3008:	8b 13                	mov    (%ebx),%edx
    300a:	83 c4 10             	add    $0x10,%esp
    300d:	85 d2                	test   %edx,%edx
    300f:	74 0e                	je     301f <hound_stream_destroy+0x3f>
    3011:	8b 43 04             	mov    0x4(%ebx),%eax
    3014:	85 c0                	test   %eax,%eax
    3016:	74 07                	je     301f <hound_stream_destroy+0x3f>
    3018:	89 10                	mov    %edx,(%eax)
    301a:	8b 13                	mov    (%ebx),%edx
    301c:	89 42 04             	mov    %eax,0x4(%edx)
    301f:	c7 03 00 00 00 00    	movl   $0x0,(%ebx)
    3025:	c7 43 04 00 00 00 00 	movl   $0x0,0x4(%ebx)
    302c:	89 5d 08             	mov    %ebx,0x8(%ebp)
    302f:	8b 5d fc             	mov    -0x4(%ebp),%ebx
    3032:	c9                   	leave  
    3033:	e9 18 67 00 00       	jmp    9750 <free@plt>
    3038:	83 ec 0c             	sub    $0xc,%esp
    303b:	8b 43 14             	mov    0x14(%ebx),%eax
    303e:	50                   	push   %eax
    303f:	e8 0c 0c 00 00       	call   3c50 <hound_service_stream_drain>
    3044:	83 c4 10             	add    $0x10,%esp
    3047:	eb a9                	jmp    2ff2 <hound_stream_destroy+0x12>
    3049:	8d b4 26 00 00 00 00 	lea    0x0(%esi,%eiz,1),%esi
    3050:	8b 5d fc             	mov    -0x4(%ebp),%ebx
    3053:	c9                   	leave  
    3054:	c3                   	ret    
    3055:	8d 74 26 00          	lea    0x0(%esi,%eiz,1),%esi
    3059:	8d bc 27 00 00 00 00 	lea    0x0(%edi,%eiz,1),%edi

00003060 <hound_stream_write>:
    3060:	55                   	push   %ebp
    3061:	89 e5                	mov    %esp,%ebp
    3063:	83 ec 08             	sub    $0x8,%esp
    3066:	8b 45 08             	mov    0x8(%ebp),%eax
    3069:	8b 55 0c             	mov    0xc(%ebp),%edx
    306c:	8b 4d 10             	mov    0x10(%ebp),%ecx
    306f:	85 c0                	test   %eax,%eax
    3071:	74 24                	je     3097 <hound_stream_write+0x37>
    3073:	85 d2                	test   %edx,%edx
    3075:	74 19                	je     3090 <hound_stream_write+0x30>
    3077:	85 c9                	test   %ecx,%ecx
    3079:	74 15                	je     3090 <hound_stream_write+0x30>
    307b:	89 4d 10             	mov    %ecx,0x10(%ebp)
    307e:	89 55 0c             	mov    %edx,0xc(%ebp)
    3081:	8b 40 14             	mov    0x14(%eax),%eax
    3084:	89 45 08             	mov    %eax,0x8(%ebp)
    3087:	c9                   	leave  
    3088:	e9 f3 0b 00 00       	jmp    3c80 <hound_service_stream_write>
    308d:	8d 76 00             	lea    0x0(%esi),%esi
    3090:	b8 f6 ff ff ff       	mov    $0xfffffff6,%eax
    3095:	c9                   	leave  
    3096:	c3                   	ret    
    3097:	50                   	push   %eax
    3098:	68 5a 01 00 00       	push   $0x15a
    309d:	68 94 7b 00 00       	push   $0x7b94
    30a2:	68 b4 7b 00 00       	push   $0x7bb4
    30a7:	e8 f4 63 00 00       	call   94a0 <assert_abort@plt>
    30ac:	8d 74 26 00          	lea    0x0(%esi,%eiz,1),%esi

000030b0 <hound_stream_read>:
    30b0:	55                   	push   %ebp
    30b1:	89 e5                	mov    %esp,%ebp
    30b3:	83 ec 08             	sub    $0x8,%esp
    30b6:	8b 45 08             	mov    0x8(%ebp),%eax
    30b9:	8b 55 0c             	mov    0xc(%ebp),%edx
    30bc:	8b 4d 10             	mov    0x10(%ebp),%ecx
    30bf:	85 c0                	test   %eax,%eax
    30c1:	74 24                	je     30e7 <hound_stream_read+0x37>
    30c3:	85 d2                	test   %edx,%edx
    30c5:	74 19                	je     30e0 <hound_stream_read+0x30>
    30c7:	85 c9                	test   %ecx,%ecx
    30c9:	74 15                	je     30e0 <hound_stream_read+0x30>
    30cb:	89 4d 10             	mov    %ecx,0x10(%ebp)
    30ce:	89 55 0c             	mov    %edx,0xc(%ebp)
    30d1:	8b 40 14             	mov    0x14(%eax),%eax
    30d4:	89 45 08             	mov    %eax,0x8(%ebp)
    30d7:	c9                   	leave  
    30d8:	e9 b3 0b 00 00       	jmp    3c90 <hound_service_stream_read>
    30dd:	8d 76 00             	lea    0x0(%esi),%esi
    30e0:	b8 f6 ff ff ff       	mov    $0xfffffff6,%eax
    30e5:	c9                   	leave  
    30e6:	c3                   	ret    
    30e7:	50                   	push   %eax
    30e8:	68 69 01 00 00       	push   $0x169
    30ed:	68 94 7b 00 00       	push   $0x7b94
    30f2:	68 b4 7b 00 00       	push   $0x7bb4
    30f7:	e8 a4 63 00 00       	call   94a0 <assert_abort@plt>
    30fc:	8d 74 26 00          	lea    0x0(%esi,%eiz,1),%esi

00003100 <hound_stream_drain>:
    3100:	55                   	push   %ebp
    3101:	89 e5                	mov    %esp,%ebp
    3103:	83 ec 08             	sub    $0x8,%esp
    3106:	8b 45 08             	mov    0x8(%ebp),%eax
    3109:	85 c0                	test   %eax,%eax
    310b:	74 0c                	je     3119 <hound_stream_drain+0x19>
    310d:	8b 40 14             	mov    0x14(%eax),%eax
    3110:	89 45 08             	mov    %eax,0x8(%ebp)
    3113:	c9                   	leave  
    3114:	e9 37 0b 00 00       	jmp    3c50 <hound_service_stream_drain>
    3119:	50                   	push   %eax
    311a:	68 76 01 00 00       	push   $0x176
    311f:	68 94 7b 00 00       	push   $0x7b94
    3124:	68 b4 7b 00 00       	push   $0x7bb4
    3129:	e8 72 63 00 00       	call   94a0 <assert_abort@plt>
    312e:	66 90                	xchg   %ax,%ax

00003130 <hound_write_main_stream>:
    3130:	55                   	push   %ebp
    3131:	89 e5                	mov    %esp,%ebp
    3133:	57                   	push   %edi
    3134:	56                   	push   %esi
    3135:	53                   	push   %ebx
    3136:	83 ec 0c             	sub    $0xc,%esp
    3139:	8b 5d 08             	mov    0x8(%ebp),%ebx
    313c:	8b 75 0c             	mov    0xc(%ebp),%esi
    313f:	8b 7d 10             	mov    0x10(%ebp),%edi
    3142:	85 db                	test   %ebx,%ebx
    3144:	74 79                	je     31bf <hound_write_main_stream+0x8f>
    3146:	80 7b 08 00          	cmpb   $0x0,0x8(%ebx)
    314a:	75 2c                	jne    3178 <hound_write_main_stream+0x48>
    314c:	8b 43 14             	mov    0x14(%ebx),%eax
    314f:	85 c0                	test   %eax,%eax
    3151:	74 35                	je     3188 <hound_write_main_stream+0x58>
    3153:	85 f6                	test   %esi,%esi
    3155:	74 61                	je     31b8 <hound_write_main_stream+0x88>
    3157:	85 ff                	test   %edi,%edi
    3159:	74 5d                	je     31b8 <hound_write_main_stream+0x88>
    315b:	89 7d 10             	mov    %edi,0x10(%ebp)
    315e:	89 75 0c             	mov    %esi,0xc(%ebp)
    3161:	8b 40 14             	mov    0x14(%eax),%eax
    3164:	89 45 08             	mov    %eax,0x8(%ebp)
    3167:	8d 65 f4             	lea    -0xc(%ebp),%esp
    316a:	5b                   	pop    %ebx
    316b:	5e                   	pop    %esi
    316c:	5f                   	pop    %edi
    316d:	5d                   	pop    %ebp
    316e:	e9 0d 0b 00 00       	jmp    3c80 <hound_service_stream_write>
    3173:	90                   	nop
    3174:	8d 74 26 00          	lea    0x0(%esi,%eiz,1),%esi
    3178:	b8 f2 ff ff ff       	mov    $0xfffffff2,%eax
    317d:	8d 65 f4             	lea    -0xc(%ebp),%esp
    3180:	5b                   	pop    %ebx
    3181:	5e                   	pop    %esi
    3182:	5f                   	pop    %edi
    3183:	5d                   	pop    %ebp
    3184:	c3                   	ret    
    3185:	8d 76 00             	lea    0x0(%esi),%esi
    3188:	50                   	push   %eax
    3189:	50                   	push   %eax
    318a:	8b 53 24             	mov    0x24(%ebx),%edx
    318d:	52                   	push   %edx
    318e:	8b 4b 20             	mov    0x20(%ebx),%ecx
    3191:	51                   	push   %ecx
    3192:	8b 43 1c             	mov    0x1c(%ebx),%eax
    3195:	50                   	push   %eax
    3196:	8b 43 18             	mov    0x18(%ebx),%eax
    3199:	50                   	push   %eax
    319a:	6a 01                	push   $0x1
    319c:	53                   	push   %ebx
    319d:	e8 5e fd ff ff       	call   2f00 <hound_stream_create>
    31a2:	83 c4 20             	add    $0x20,%esp
    31a5:	89 43 14             	mov    %eax,0x14(%ebx)
    31a8:	85 c0                	test   %eax,%eax
    31aa:	75 a7                	jne    3153 <hound_write_main_stream+0x23>
    31ac:	b8 fe ff ff ff       	mov    $0xfffffffe,%eax
    31b1:	eb ca                	jmp    317d <hound_write_main_stream+0x4d>
    31b3:	90                   	nop
    31b4:	8d 74 26 00          	lea    0x0(%esi,%eiz,1),%esi
    31b8:	b8 f6 ff ff ff       	mov    $0xfffffff6,%eax
    31bd:	eb be                	jmp    317d <hound_write_main_stream+0x4d>
    31bf:	50                   	push   %eax
    31c0:	68 96 01 00 00       	push   $0x196
    31c5:	68 94 7b 00 00       	push   $0x7b94
    31ca:	68 f4 7b 00 00       	push   $0x7bf4
    31cf:	e8 cc 62 00 00       	call   94a0 <assert_abort@plt>
    31d4:	8d b6 00 00 00 00    	lea    0x0(%esi),%esi
    31da:	8d bf 00 00 00 00    	lea    0x0(%edi),%edi

000031e0 <hound_read_main_stream>:
    31e0:	55                   	push   %ebp
    31e1:	89 e5                	mov    %esp,%ebp
    31e3:	57                   	push   %edi
    31e4:	56                   	push   %esi
    31e5:	53                   	push   %ebx
    31e6:	83 ec 0c             	sub    $0xc,%esp
    31e9:	8b 5d 08             	mov    0x8(%ebp),%ebx
    31ec:	8b 75 0c             	mov    0xc(%ebp),%esi
    31ef:	8b 7d 10             	mov    0x10(%ebp),%edi
    31f2:	85 db                	test   %ebx,%ebx
    31f4:	74 79                	je     326f <hound_read_main_stream+0x8f>
    31f6:	80 7b 08 00          	cmpb   $0x0,0x8(%ebx)
    31fa:	74 2c                	je     3228 <hound_read_main_stream+0x48>
    31fc:	8b 43 14             	mov    0x14(%ebx),%eax
    31ff:	85 c0                	test   %eax,%eax
    3201:	74 35                	je     3238 <hound_read_main_stream+0x58>
    3203:	85 f6                	test   %esi,%esi
    3205:	74 61                	je     3268 <hound_read_main_stream+0x88>
    3207:	85 ff                	test   %edi,%edi
    3209:	74 5d                	je     3268 <hound_read_main_stream+0x88>
    320b:	89 7d 10             	mov    %edi,0x10(%ebp)
    320e:	89 75 0c             	mov    %esi,0xc(%ebp)
    3211:	8b 40 14             	mov    0x14(%eax),%eax
    3214:	89 45 08             	mov    %eax,0x8(%ebp)
    3217:	8d 65 f4             	lea    -0xc(%ebp),%esp
    321a:	5b                   	pop    %ebx
    321b:	5e                   	pop    %esi
    321c:	5f                   	pop    %edi
    321d:	5d                   	pop    %ebp
    321e:	e9 6d 0a 00 00       	jmp    3c90 <hound_service_stream_read>
    3223:	90                   	nop
    3224:	8d 74 26 00          	lea    0x0(%esi,%eiz,1),%esi
    3228:	b8 f2 ff ff ff       	mov    $0xfffffff2,%eax
    322d:	8d 65 f4             	lea    -0xc(%ebp),%esp
    3230:	5b                   	pop    %ebx
    3231:	5e                   	pop    %esi
    3232:	5f                   	pop    %edi
    3233:	5d                   	pop    %ebp
    3234:	c3                   	ret    
    3235:	8d 76 00             	lea    0x0(%esi),%esi
    3238:	50                   	push   %eax
    3239:	50                   	push   %eax
    323a:	8b 53 24             	mov    0x24(%ebx),%edx
    323d:	52                   	push   %edx
    323e:	8b 4b 20             	mov    0x20(%ebx),%ecx
    3241:	51                   	push   %ecx
    3242:	8b 43 1c             	mov    0x1c(%ebx),%eax
    3245:	50                   	push   %eax
    3246:	8b 43 18             	mov    0x18(%ebx),%eax
    3249:	50                   	push   %eax
    324a:	6a 01                	push   $0x1
    324c:	53                   	push   %ebx
    324d:	e8 ae fc ff ff       	call   2f00 <hound_stream_create>
    3252:	83 c4 20             	add    $0x20,%esp
    3255:	89 43 14             	mov    %eax,0x14(%ebx)
    3258:	85 c0                	test   %eax,%eax
    325a:	75 a7                	jne    3203 <hound_read_main_stream+0x23>
    325c:	b8 fe ff ff ff       	mov    $0xfffffffe,%eax
    3261:	eb ca                	jmp    322d <hound_read_main_stream+0x4d>
    3263:	90                   	nop
    3264:	8d 74 26 00          	lea    0x0(%esi,%eiz,1),%esi
    3268:	b8 f6 ff ff ff       	mov    $0xfffffff6,%eax
    326d:	eb be                	jmp    322d <hound_read_main_stream+0x4d>
    326f:	50                   	push   %eax
    3270:	68 a9 01 00 00       	push   $0x1a9
    3275:	68 94 7b 00 00       	push   $0x7b94
    327a:	68 f4 7b 00 00       	push   $0x7bf4
    327f:	e8 1c 62 00 00       	call   94a0 <assert_abort@plt>
    3284:	8d b6 00 00 00 00    	lea    0x0(%esi),%esi
    328a:	8d bf 00 00 00 00    	lea    0x0(%edi),%edi

00003290 <hound_write_replace_main_stream>:
    3290:	55                   	push   %ebp
    3291:	89 e5                	mov    %esp,%ebp
    3293:	83 ec 08             	sub    $0x8,%esp
    3296:	8b 45 08             	mov    0x8(%ebp),%eax
    3299:	85 c0                	test   %eax,%eax
    329b:	74 22                	je     32bf <hound_write_replace_main_stream+0x2f>
    329d:	8b 55 0c             	mov    0xc(%ebp),%edx
    32a0:	85 d2                	test   %edx,%edx
    32a2:	74 14                	je     32b8 <hound_write_replace_main_stream+0x28>
    32a4:	8b 45 10             	mov    0x10(%ebp),%eax
    32a7:	85 c0                	test   %eax,%eax
    32a9:	74 0d                	je     32b8 <hound_write_replace_main_stream+0x28>
    32ab:	b8 f5 ff ff ff       	mov    $0xfffffff5,%eax
    32b0:	c9                   	leave  
    32b1:	c3                   	ret    
    32b2:	8d b6 00 00 00 00    	lea    0x0(%esi),%esi
    32b8:	b8 f6 ff ff ff       	mov    $0xfffffff6,%eax
    32bd:	c9                   	leave  
    32be:	c3                   	ret    
    32bf:	51                   	push   %ecx
    32c0:	68 be 01 00 00       	push   $0x1be
    32c5:	68 94 7b 00 00       	push   $0x7b94
    32ca:	68 f4 7b 00 00       	push   $0x7bf4
    32cf:	e8 cc 61 00 00       	call   94a0 <assert_abort@plt>
    32d4:	8d b6 00 00 00 00    	lea    0x0(%esi),%esi
    32da:	8d bf 00 00 00 00    	lea    0x0(%edi),%edi

000032e0 <hound_context_set_main_stream_params>:
    32e0:	55                   	push   %ebp
    32e1:	89 e5                	mov    %esp,%ebp
    32e3:	83 ec 08             	sub    $0x8,%esp
    32e6:	8b 4d 08             	mov    0x8(%ebp),%ecx
    32e9:	85 c9                	test   %ecx,%ecx
    32eb:	74 07                	je     32f4 <hound_context_set_main_stream_params+0x14>
    32ed:	b8 f5 ff ff ff       	mov    $0xfffffff5,%eax
    32f2:	c9                   	leave  
    32f3:	c3                   	ret    
    32f4:	50                   	push   %eax
    32f5:	68 d0 01 00 00       	push   $0x1d0
    32fa:	68 94 7b 00 00       	push   $0x7b94
    32ff:	68 f4 7b 00 00       	push   $0x7bf4
    3304:	e8 97 61 00 00       	call   94a0 <assert_abort@plt>
    3309:	8d b4 26 00 00 00 00 	lea    0x0(%esi,%eiz,1),%esi

00003310 <hound_write_immediate>:
    3310:	55                   	push   %ebp
    3311:	89 e5                	mov    %esp,%ebp
    3313:	57                   	push   %edi
    3314:	56                   	push   %esi
    3315:	53                   	push   %ebx
    3316:	83 ec 1c             	sub    $0x1c,%esp
    3319:	8b 75 08             	mov    0x8(%ebp),%esi
    331c:	85 f6                	test   %esi,%esi
    331e:	0f 84 a6 01 00 00    	je     34ca <hound_write_immediate+0x1ba>
    3324:	80 7e 08 00          	cmpb   $0x0,0x8(%esi)
    3328:	0f 85 8a 01 00 00    	jne    34b8 <hound_write_immediate+0x1a8>
    332e:	8b 45 0c             	mov    0xc(%ebp),%eax
    3331:	83 ec 0c             	sub    $0xc,%esp
    3334:	89 45 dc             	mov    %eax,-0x24(%ebp)
    3337:	8b 45 10             	mov    0x10(%ebp),%eax
    333a:	89 45 e0             	mov    %eax,-0x20(%ebp)
    333d:	8b 16                	mov    (%esi),%edx
    333f:	8b 45 14             	mov    0x14(%ebp),%eax
    3342:	52                   	push   %edx
    3343:	89 45 e4             	mov    %eax,-0x1c(%ebp)
    3346:	e8 45 63 00 00       	call   9690 <async_exchange_begin@plt>
    334b:	83 c4 10             	add    $0x10,%esp
    334e:	89 c7                	mov    %eax,%edi
    3350:	85 c0                	test   %eax,%eax
    3352:	0f 84 1f 01 00 00    	je     3477 <hound_write_immediate+0x167>
    3358:	83 ec 0c             	sub    $0xc,%esp
    335b:	6a 20                	push   $0x20
    335d:	e8 6e 60 00 00       	call   93d0 <malloc@plt>
    3362:	83 c4 10             	add    $0x10,%esp
    3365:	89 c3                	mov    %eax,%ebx
    3367:	85 c0                	test   %eax,%eax
    3369:	0f 84 08 01 00 00    	je     3477 <hound_write_immediate+0x167>
    336f:	83 ec 04             	sub    $0x4,%esp
    3372:	c7 00 00 00 00 00    	movl   $0x0,(%eax)
    3378:	c7 40 04 00 00 00 00 	movl   $0x0,0x4(%eax)
    337f:	89 78 14             	mov    %edi,0x14(%eax)
    3382:	ff 75 1c             	pushl  0x1c(%ebp)
    3385:	8b 45 dc             	mov    -0x24(%ebp),%eax
    3388:	8b 55 e0             	mov    -0x20(%ebp),%edx
    338b:	8b 4d e4             	mov    -0x1c(%ebp),%ecx
    338e:	89 43 08             	mov    %eax,0x8(%ebx)
    3391:	51                   	push   %ecx
    3392:	52                   	push   %edx
    3393:	50                   	push   %eax
    3394:	6a 00                	push   $0x0
    3396:	8b 46 28             	mov    0x28(%esi),%eax
    3399:	89 53 0c             	mov    %edx,0xc(%ebx)
    339c:	50                   	push   %eax
    339d:	89 4b 10             	mov    %ecx,0x10(%ebx)
    33a0:	57                   	push   %edi
    33a1:	89 73 18             	mov    %esi,0x18(%ebx)
    33a4:	c7 43 1c 00 00 00 00 	movl   $0x0,0x1c(%ebx)
    33ab:	e8 10 08 00 00       	call   3bc0 <hound_service_stream_enter>
    33b0:	83 c4 20             	add    $0x20,%esp
    33b3:	85 c0                	test   %eax,%eax
    33b5:	0f 85 a5 00 00 00    	jne    3460 <hound_write_immediate+0x150>
    33bb:	8d 46 0c             	lea    0xc(%esi),%eax
    33be:	8b 55 18             	mov    0x18(%ebp),%edx
    33c1:	89 43 04             	mov    %eax,0x4(%ebx)
    33c4:	8b 46 0c             	mov    0xc(%esi),%eax
    33c7:	89 03                	mov    %eax,(%ebx)
    33c9:	85 d2                	test   %edx,%edx
    33cb:	89 58 04             	mov    %ebx,0x4(%eax)
    33ce:	89 5e 0c             	mov    %ebx,0xc(%esi)
    33d1:	0f 84 e9 00 00 00    	je     34c0 <hound_write_immediate+0x1b0>
    33d7:	8b 45 1c             	mov    0x1c(%ebp),%eax
    33da:	85 c0                	test   %eax,%eax
    33dc:	0f 84 de 00 00 00    	je     34c0 <hound_write_immediate+0x1b0>
    33e2:	50                   	push   %eax
    33e3:	8b 45 1c             	mov    0x1c(%ebp),%eax
    33e6:	50                   	push   %eax
    33e7:	8b 45 18             	mov    0x18(%ebp),%eax
    33ea:	50                   	push   %eax
    33eb:	8b 43 14             	mov    0x14(%ebx),%eax
    33ee:	50                   	push   %eax
    33ef:	e8 8c 08 00 00       	call   3c80 <hound_service_stream_write>
    33f4:	83 c4 10             	add    $0x10,%esp
    33f7:	89 c6                	mov    %eax,%esi
    33f9:	85 c0                	test   %eax,%eax
    33fb:	0f 84 87 00 00 00    	je     3488 <hound_write_immediate+0x178>
    3401:	f6 43 1c 01          	testb  $0x1,0x1c(%ebx)
    3405:	0f 85 96 00 00 00    	jne    34a1 <hound_write_immediate+0x191>
    340b:	83 ec 0c             	sub    $0xc,%esp
    340e:	8b 43 14             	mov    0x14(%ebx),%eax
    3411:	50                   	push   %eax
    3412:	e8 09 08 00 00       	call   3c20 <hound_service_stream_exit>
    3417:	8b 4b 14             	mov    0x14(%ebx),%ecx
    341a:	5a                   	pop    %edx
    341b:	51                   	push   %ecx
    341c:	e8 5f 60 00 00       	call   9480 <async_exchange_end@plt>
    3421:	8b 13                	mov    (%ebx),%edx
    3423:	83 c4 10             	add    $0x10,%esp
    3426:	85 d2                	test   %edx,%edx
    3428:	74 0e                	je     3438 <hound_write_immediate+0x128>
    342a:	8b 43 04             	mov    0x4(%ebx),%eax
    342d:	85 c0                	test   %eax,%eax
    342f:	74 07                	je     3438 <hound_write_immediate+0x128>
    3431:	89 10                	mov    %edx,(%eax)
    3433:	8b 13                	mov    (%ebx),%edx
    3435:	89 42 04             	mov    %eax,0x4(%edx)
    3438:	83 ec 0c             	sub    $0xc,%esp
    343b:	c7 03 00 00 00 00    	movl   $0x0,(%ebx)
    3441:	c7 43 04 00 00 00 00 	movl   $0x0,0x4(%ebx)
    3448:	53                   	push   %ebx
    3449:	e8 02 63 00 00       	call   9750 <free@plt>
    344e:	83 c4 10             	add    $0x10,%esp
    3451:	8d 65 f4             	lea    -0xc(%ebp),%esp
    3454:	89 f0                	mov    %esi,%eax
    3456:	5b                   	pop    %ebx
    3457:	5e                   	pop    %esi
    3458:	5f                   	pop    %edi
    3459:	5d                   	pop    %ebp
    345a:	c3                   	ret    
    345b:	90                   	nop
    345c:	8d 74 26 00          	lea    0x0(%esi,%eiz,1),%esi
    3460:	83 ec 0c             	sub    $0xc,%esp
    3463:	8b 4b 14             	mov    0x14(%ebx),%ecx
    3466:	51                   	push   %ecx
    3467:	e8 14 60 00 00       	call   9480 <async_exchange_end@plt>
    346c:	89 1c 24             	mov    %ebx,(%esp)
    346f:	e8 dc 62 00 00       	call   9750 <free@plt>
    3474:	83 c4 10             	add    $0x10,%esp
    3477:	8d 65 f4             	lea    -0xc(%ebp),%esp
    347a:	be fe ff ff ff       	mov    $0xfffffffe,%esi
    347f:	89 f0                	mov    %esi,%eax
    3481:	5b                   	pop    %ebx
    3482:	5e                   	pop    %esi
    3483:	5f                   	pop    %edi
    3484:	5d                   	pop    %ebp
    3485:	c3                   	ret    
    3486:	66 90                	xchg   %ax,%ax
    3488:	83 ec 0c             	sub    $0xc,%esp
    348b:	8b 43 14             	mov    0x14(%ebx),%eax
    348e:	50                   	push   %eax
    348f:	e8 bc 07 00 00       	call   3c50 <hound_service_stream_drain>
    3494:	83 c4 10             	add    $0x10,%esp
    3497:	f6 43 1c 01          	testb  $0x1,0x1c(%ebx)
    349b:	0f 84 6a ff ff ff    	je     340b <hound_write_immediate+0xfb>
    34a1:	83 ec 0c             	sub    $0xc,%esp
    34a4:	8b 7b 14             	mov    0x14(%ebx),%edi
    34a7:	57                   	push   %edi
    34a8:	e8 a3 07 00 00       	call   3c50 <hound_service_stream_drain>
    34ad:	83 c4 10             	add    $0x10,%esp
    34b0:	e9 56 ff ff ff       	jmp    340b <hound_write_immediate+0xfb>
    34b5:	8d 76 00             	lea    0x0(%esi),%esi
    34b8:	be f2 ff ff ff       	mov    $0xfffffff2,%esi
    34bd:	eb 92                	jmp    3451 <hound_write_immediate+0x141>
    34bf:	90                   	nop
    34c0:	be f6 ff ff ff       	mov    $0xfffffff6,%esi
    34c5:	e9 37 ff ff ff       	jmp    3401 <hound_write_immediate+0xf1>
    34ca:	51                   	push   %ecx
    34cb:	68 e3 01 00 00       	push   $0x1e3
    34d0:	68 94 7b 00 00       	push   $0x7b94
    34d5:	68 f4 7b 00 00       	push   $0x7bf4
    34da:	e8 c1 5f 00 00       	call   94a0 <assert_abort@plt>
    34df:	90                   	nop

000034e0 <hound_service_connect>:
    34e0:	55                   	push   %ebp
    34e1:	89 e5                	mov    %esp,%ebp
    34e3:	83 ec 1c             	sub    $0x1c,%esp
    34e6:	8d 45 f4             	lea    -0xc(%ebp),%eax
    34e9:	8b 4d 08             	mov    0x8(%ebp),%ecx
    34ec:	6a 01                	push   $0x1
    34ee:	c7 45 f4 00 00 00 00 	movl   $0x0,-0xc(%ebp)
    34f5:	50                   	push   %eax
    34f6:	51                   	push   %ecx
    34f7:	e8 04 5f 00 00       	call   9400 <loc_service_get_id@plt>
    34fc:	83 c4 10             	add    $0x10,%esp
    34ff:	85 c0                	test   %eax,%eax
    3501:	75 1d                	jne    3520 <hound_service_connect+0x40>
    3503:	8b 55 f4             	mov    -0xc(%ebp),%edx
    3506:	50                   	push   %eax
    3507:	6a 01                	push   $0x1
    3509:	68 82 7e d7 dd       	push   $0xddd77e82
    350e:	52                   	push   %edx
    350f:	e8 0c 5e 00 00       	call   9320 <loc_service_connect@plt>
    3514:	83 c4 10             	add    $0x10,%esp
    3517:	c9                   	leave  
    3518:	c3                   	ret    
    3519:	8d b4 26 00 00 00 00 	lea    0x0(%esi,%eiz,1),%esi
    3520:	31 c0                	xor    %eax,%eax
    3522:	c9                   	leave  
    3523:	c3                   	ret    
    3524:	8d b6 00 00 00 00    	lea    0x0(%esi),%esi
    352a:	8d bf 00 00 00 00    	lea    0x0(%edi),%edi

00003530 <hound_service_disconnect>:
    3530:	55                   	push   %ebp
    3531:	89 e5                	mov    %esp,%ebp
    3533:	8b 45 08             	mov    0x8(%ebp),%eax
    3536:	85 c0                	test   %eax,%eax
    3538:	74 06                	je     3540 <hound_service_disconnect+0x10>
    353a:	5d                   	pop    %ebp
    353b:	e9 00 5e 00 00       	jmp    9340 <async_hangup@plt>
    3540:	5d                   	pop    %ebp
    3541:	c3                   	ret    
    3542:	8d b4 26 00 00 00 00 	lea    0x0(%esi,%eiz,1),%esi
    3549:	8d bc 27 00 00 00 00 	lea    0x0(%edi,%eiz,1),%edi

00003550 <hound_service_register_context>:
    3550:	55                   	push   %ebp
    3551:	89 e5                	mov    %esp,%ebp
    3553:	57                   	push   %edi
    3554:	56                   	push   %esi
    3555:	53                   	push   %ebx
    3556:	83 ec 3c             	sub    $0x3c,%esp
    3559:	8b 45 08             	mov    0x8(%ebp),%eax
    355c:	8b 7d 0c             	mov    0xc(%ebp),%edi
    355f:	8b 5d 10             	mov    0x10(%ebp),%ebx
    3562:	85 c0                	test   %eax,%eax
    3564:	0f 84 be 00 00 00    	je     3628 <hound_service_register_context+0xd8>
    356a:	85 ff                	test   %edi,%edi
    356c:	0f 84 a4 00 00 00    	je     3616 <hound_service_register_context+0xc6>
    3572:	83 ec 0c             	sub    $0xc,%esp
    3575:	81 e3 ff 00 00 00    	and    $0xff,%ebx
    357b:	50                   	push   %eax
    357c:	e8 0f 61 00 00       	call   9690 <async_exchange_begin@plt>
    3581:	83 c4 0c             	add    $0xc,%esp
    3584:	89 c6                	mov    %eax,%esi
    3586:	8d 45 c4             	lea    -0x3c(%ebp),%eax
    3589:	50                   	push   %eax
    358a:	6a 00                	push   $0x0
    358c:	6a 00                	push   $0x0
    358e:	6a 00                	push   $0x0
    3590:	53                   	push   %ebx
    3591:	68 00 04 00 00       	push   $0x400
    3596:	56                   	push   %esi
    3597:	e8 b4 5e 00 00       	call   9450 <async_send_fast@plt>
    359c:	83 c4 20             	add    $0x20,%esp
    359f:	89 c3                	mov    %eax,%ebx
    35a1:	85 c0                	test   %eax,%eax
    35a3:	75 3b                	jne    35e0 <hound_service_register_context+0x90>
    35a5:	83 ec 0c             	sub    $0xc,%esp
    35a8:	c7 45 c0 f8 ff ff ff 	movl   $0xfffffff8,-0x40(%ebp)
    35af:	6a 00                	push   $0x0
    35b1:	e8 5a 61 00 00       	call   9710 <async_forget@plt>
    35b6:	8b 45 c0             	mov    -0x40(%ebp),%eax
    35b9:	83 c4 10             	add    $0x10,%esp
    35bc:	85 c0                	test   %eax,%eax
    35be:	74 45                	je     3605 <hound_service_register_context+0xb5>
    35c0:	83 ec 0c             	sub    $0xc,%esp
    35c3:	56                   	push   %esi
    35c4:	e8 b7 5e 00 00       	call   9480 <async_exchange_end@plt>
    35c9:	8b 45 c0             	mov    -0x40(%ebp),%eax
    35cc:	83 c4 10             	add    $0x10,%esp
    35cf:	85 c0                	test   %eax,%eax
    35d1:	75 03                	jne    35d6 <hound_service_register_context+0x86>
    35d3:	8b 45 c8             	mov    -0x38(%ebp),%eax
    35d6:	8d 65 f4             	lea    -0xc(%ebp),%esp
    35d9:	5b                   	pop    %ebx
    35da:	5e                   	pop    %esi
    35db:	5f                   	pop    %edi
    35dc:	5d                   	pop    %ebp
    35dd:	c3                   	ret    
    35de:	66 90                	xchg   %ax,%ax
    35e0:	83 ec 0c             	sub    $0xc,%esp
    35e3:	c7 45 c0 00 00 00 00 	movl   $0x0,-0x40(%ebp)
    35ea:	57                   	push   %edi
    35eb:	e8 70 60 00 00       	call   9660 <str_size@plt>
    35f0:	83 c4 0c             	add    $0xc,%esp
    35f3:	50                   	push   %eax
    35f4:	57                   	push   %edi
    35f5:	56                   	push   %esi
    35f6:	e8 85 5d 00 00       	call   9380 <async_data_write_start@plt>
    35fb:	83 c4 10             	add    $0x10,%esp
    35fe:	89 45 c0             	mov    %eax,-0x40(%ebp)
    3601:	85 c0                	test   %eax,%eax
    3603:	75 bb                	jne    35c0 <hound_service_register_context+0x70>
    3605:	50                   	push   %eax
    3606:	50                   	push   %eax
    3607:	8d 45 c0             	lea    -0x40(%ebp),%eax
    360a:	50                   	push   %eax
    360b:	53                   	push   %ebx
    360c:	e8 3f 5d 00 00       	call   9350 <async_wait_for@plt>
    3611:	83 c4 10             	add    $0x10,%esp
    3614:	eb aa                	jmp    35c0 <hound_service_register_context+0x70>
    3616:	52                   	push   %edx
    3617:	6a 7b                	push   $0x7b
    3619:	68 bb 7b 00 00       	push   $0x7bbb
    361e:	68 cf 7b 00 00       	push   $0x7bcf
    3623:	e8 78 5e 00 00       	call   94a0 <assert_abort@plt>
    3628:	51                   	push   %ecx
    3629:	6a 7a                	push   $0x7a
    362b:	68 bb 7b 00 00       	push   $0x7bbb
    3630:	68 ca 7b 00 00       	push   $0x7bca
    3635:	e8 66 5e 00 00       	call   94a0 <assert_abort@plt>
    363a:	8d b6 00 00 00 00    	lea    0x0(%esi),%esi

00003640 <hound_service_unregister_context>:
    3640:	55                   	push   %ebp
    3641:	89 e5                	mov    %esp,%ebp
    3643:	53                   	push   %ebx
    3644:	83 ec 14             	sub    $0x14,%esp
    3647:	8b 45 08             	mov    0x8(%ebp),%eax
    364a:	85 c0                	test   %eax,%eax
    364c:	74 41                	je     368f <hound_service_unregister_context+0x4f>
    364e:	83 ec 0c             	sub    $0xc,%esp
    3651:	50                   	push   %eax
    3652:	e8 39 60 00 00       	call   9690 <async_exchange_begin@plt>
    3657:	83 c4 0c             	add    $0xc,%esp
    365a:	89 c3                	mov    %eax,%ebx
    365c:	8b 45 0c             	mov    0xc(%ebp),%eax
    365f:	6a 00                	push   $0x0
    3661:	6a 00                	push   $0x0
    3663:	6a 00                	push   $0x0
    3665:	6a 00                	push   $0x0
    3667:	6a 00                	push   $0x0
    3669:	6a 00                	push   $0x0
    366b:	6a 00                	push   $0x0
    366d:	6a 00                	push   $0x0
    366f:	50                   	push   %eax
    3670:	68 01 04 00 00       	push   $0x401
    3675:	53                   	push   %ebx
    3676:	e8 75 5d 00 00       	call   93f0 <async_req_fast@plt>
    367b:	83 c4 24             	add    $0x24,%esp
    367e:	89 45 f4             	mov    %eax,-0xc(%ebp)
    3681:	53                   	push   %ebx
    3682:	e8 f9 5d 00 00       	call   9480 <async_exchange_end@plt>
    3687:	8b 45 f4             	mov    -0xc(%ebp),%eax
    368a:	8b 5d fc             	mov    -0x4(%ebp),%ebx
    368d:	c9                   	leave  
    368e:	c3                   	ret    
    368f:	52                   	push   %edx
    3690:	68 96 00 00 00       	push   $0x96
    3695:	68 bb 7b 00 00       	push   $0x7bbb
    369a:	68 ca 7b 00 00       	push   $0x7bca
    369f:	e8 fc 5d 00 00       	call   94a0 <assert_abort@plt>
    36a4:	8d b6 00 00 00 00    	lea    0x0(%esi),%esi
    36aa:	8d bf 00 00 00 00    	lea    0x0(%edi),%edi

000036b0 <hound_service_get_list>:
    36b0:	55                   	push   %ebp
    36b1:	89 e5                	mov    %esp,%ebp
    36b3:	57                   	push   %edi
    36b4:	56                   	push   %esi
    36b5:	53                   	push   %ebx
    36b6:	83 ec 4c             	sub    $0x4c,%esp
    36b9:	8b 45 08             	mov    0x8(%ebp),%eax
    36bc:	8b 5d 14             	mov    0x14(%ebp),%ebx
    36bf:	8b 75 18             	mov    0x18(%ebp),%esi
    36c2:	85 c0                	test   %eax,%eax
    36c4:	0f 84 b8 02 00 00    	je     3982 <hound_service_get_list+0x2d2>
    36ca:	8b 7d 0c             	mov    0xc(%ebp),%edi
    36cd:	85 ff                	test   %edi,%edi
    36cf:	0f 84 98 02 00 00    	je     396d <hound_service_get_list+0x2bd>
    36d5:	8b 55 10             	mov    0x10(%ebp),%edx
    36d8:	85 d2                	test   %edx,%edx
    36da:	0f 84 78 02 00 00    	je     3958 <hound_service_get_list+0x2a8>
    36e0:	85 f6                	test   %esi,%esi
    36e2:	0f 84 10 02 00 00    	je     38f8 <hound_service_get_list+0x248>
    36e8:	f6 c3 10             	test   $0x10,%bl
    36eb:	0f 84 49 02 00 00    	je     393a <hound_service_get_list+0x28a>
    36f1:	83 ec 0c             	sub    $0xc,%esp
    36f4:	50                   	push   %eax
    36f5:	e8 96 5f 00 00       	call   9690 <async_exchange_begin@plt>
    36fa:	83 c4 10             	add    $0x10,%esp
    36fd:	89 c2                	mov    %eax,%edx
    36ff:	89 45 b4             	mov    %eax,-0x4c(%ebp)
    3702:	85 c0                	test   %eax,%eax
    3704:	0f 84 3f 02 00 00    	je     3949 <hound_service_get_list+0x299>
    370a:	50                   	push   %eax
    370b:	8d 45 c4             	lea    -0x3c(%ebp),%eax
    370e:	50                   	push   %eax
    370f:	8b 45 10             	mov    0x10(%ebp),%eax
    3712:	6a 00                	push   $0x0
    3714:	6a 01                	push   $0x1
    3716:	8b 00                	mov    (%eax),%eax
    3718:	50                   	push   %eax
    3719:	53                   	push   %ebx
    371a:	68 02 04 00 00       	push   $0x402
    371f:	52                   	push   %edx
    3720:	e8 2b 5d 00 00       	call   9450 <async_send_fast@plt>
    3725:	83 c4 20             	add    $0x20,%esp
    3728:	89 c3                	mov    %eax,%ebx
    372a:	c7 45 c0 00 00 00 00 	movl   $0x0,-0x40(%ebp)
    3731:	85 c0                	test   %eax,%eax
    3733:	0f 85 77 01 00 00    	jne    38b0 <hound_service_get_list+0x200>
    3739:	50                   	push   %eax
    373a:	50                   	push   %eax
    373b:	8d 45 c0             	lea    -0x40(%ebp),%eax
    373e:	50                   	push   %eax
    373f:	53                   	push   %ebx
    3740:	e8 0b 5c 00 00       	call   9350 <async_wait_for@plt>
    3745:	8b 45 c0             	mov    -0x40(%ebp),%eax
    3748:	83 c4 10             	add    $0x10,%esp
    374b:	89 45 ac             	mov    %eax,-0x54(%ebp)
    374e:	85 c0                	test   %eax,%eax
    3750:	0f 85 7f 01 00 00    	jne    38d5 <hound_service_get_list+0x225>
    3756:	8b 45 c8             	mov    -0x38(%ebp),%eax
    3759:	89 45 b0             	mov    %eax,-0x50(%ebp)
    375c:	85 c0                	test   %eax,%eax
    375e:	75 38                	jne    3798 <hound_service_get_list+0xe8>
    3760:	83 ec 0c             	sub    $0xc,%esp
    3763:	8b 5d b4             	mov    -0x4c(%ebp),%ebx
    3766:	53                   	push   %ebx
    3767:	e8 14 5d 00 00       	call   9480 <async_exchange_end@plt>
    376c:	8b 75 c0             	mov    -0x40(%ebp),%esi
    376f:	83 c4 10             	add    $0x10,%esp
    3772:	31 db                	xor    %ebx,%ebx
    3774:	85 f6                	test   %esi,%esi
    3776:	0f 85 18 01 00 00    	jne    3894 <hound_service_get_list+0x1e4>
    377c:	8b 45 0c             	mov    0xc(%ebp),%eax
    377f:	8b 4d b0             	mov    -0x50(%ebp),%ecx
    3782:	89 18                	mov    %ebx,(%eax)
    3784:	8b 45 10             	mov    0x10(%ebp),%eax
    3787:	89 08                	mov    %ecx,(%eax)
    3789:	8b 45 ac             	mov    -0x54(%ebp),%eax
    378c:	8d 65 f4             	lea    -0xc(%ebp),%esp
    378f:	5b                   	pop    %ebx
    3790:	5e                   	pop    %esi
    3791:	5f                   	pop    %edi
    3792:	5d                   	pop    %ebp
    3793:	c3                   	ret    
    3794:	8d 74 26 00          	lea    0x0(%esi,%eiz,1),%esi
    3798:	89 c7                	mov    %eax,%edi
    379a:	52                   	push   %edx
    379b:	52                   	push   %edx
    379c:	6a 04                	push   $0x4
    379e:	50                   	push   %eax
    379f:	e8 0c 5d 00 00       	call   94b0 <calloc@plt>
    37a4:	59                   	pop    %ecx
    37a5:	89 c6                	mov    %eax,%esi
    37a7:	5b                   	pop    %ebx
    37a8:	6a 04                	push   $0x4
    37aa:	57                   	push   %edi
    37ab:	e8 00 5d 00 00       	call   94b0 <calloc@plt>
    37b0:	83 c4 10             	add    $0x10,%esp
    37b3:	89 c3                	mov    %eax,%ebx
    37b5:	85 c0                	test   %eax,%eax
    37b7:	0f 84 91 00 00 00    	je     384e <hound_service_get_list+0x19e>
    37bd:	85 f6                	test   %esi,%esi
    37bf:	0f 84 89 00 00 00    	je     384e <hound_service_get_list+0x19e>
    37c5:	8b 45 c0             	mov    -0x40(%ebp),%eax
    37c8:	85 c0                	test   %eax,%eax
    37ca:	0f 85 85 00 00 00    	jne    3855 <hound_service_get_list+0x1a5>
    37d0:	8b 45 b0             	mov    -0x50(%ebp),%eax
    37d3:	8b 7d b4             	mov    -0x4c(%ebp),%edi
    37d6:	c1 e0 02             	shl    $0x2,%eax
    37d9:	51                   	push   %ecx
    37da:	50                   	push   %eax
    37db:	56                   	push   %esi
    37dc:	57                   	push   %edi
    37dd:	e8 de 5d 00 00       	call   95c0 <async_data_read_start@plt>
    37e2:	83 c4 10             	add    $0x10,%esp
    37e5:	89 45 c0             	mov    %eax,-0x40(%ebp)
    37e8:	85 c0                	test   %eax,%eax
    37ea:	75 69                	jne    3855 <hound_service_get_list+0x1a5>
    37ec:	31 ff                	xor    %edi,%edi
    37ee:	89 5d a8             	mov    %ebx,-0x58(%ebp)
    37f1:	eb 42                	jmp    3835 <hound_service_get_list+0x185>
    37f3:	90                   	nop
    37f4:	8d 74 26 00          	lea    0x0(%esi,%eiz,1),%esi
    37f8:	50                   	push   %eax
    37f9:	8b 04 be             	mov    (%esi,%edi,4),%eax
    37fc:	40                   	inc    %eax
    37fd:	50                   	push   %eax
    37fe:	6a 00                	push   $0x0
    3800:	53                   	push   %ebx
    3801:	e8 8a 5d 00 00       	call   9590 <memset@plt>
    3806:	83 c4 0c             	add    $0xc,%esp
    3809:	8b 04 be             	mov    (%esi,%edi,4),%eax
    380c:	8b 55 b4             	mov    -0x4c(%ebp),%edx
    380f:	50                   	push   %eax
    3810:	53                   	push   %ebx
    3811:	52                   	push   %edx
    3812:	e8 a9 5d 00 00       	call   95c0 <async_data_read_start@plt>
    3817:	8b 4d a8             	mov    -0x58(%ebp),%ecx
    381a:	83 c4 10             	add    $0x10,%esp
    381d:	89 45 c0             	mov    %eax,-0x40(%ebp)
    3820:	89 1c b9             	mov    %ebx,(%ecx,%edi,4)
    3823:	47                   	inc    %edi
    3824:	39 7d b0             	cmp    %edi,-0x50(%ebp)
    3827:	0f 84 72 01 00 00    	je     399f <hound_service_get_list+0x2ef>
    382d:	85 c0                	test   %eax,%eax
    382f:	0f 85 62 01 00 00    	jne    3997 <hound_service_get_list+0x2e7>
    3835:	83 ec 0c             	sub    $0xc,%esp
    3838:	8b 04 be             	mov    (%esi,%edi,4),%eax
    383b:	40                   	inc    %eax
    383c:	50                   	push   %eax
    383d:	e8 8e 5b 00 00       	call   93d0 <malloc@plt>
    3842:	83 c4 10             	add    $0x10,%esp
    3845:	89 c3                	mov    %eax,%ebx
    3847:	85 c0                	test   %eax,%eax
    3849:	75 ad                	jne    37f8 <hound_service_get_list+0x148>
    384b:	8b 5d a8             	mov    -0x58(%ebp),%ebx
    384e:	c7 45 c0 fe ff ff ff 	movl   $0xfffffffe,-0x40(%ebp)
    3855:	83 ec 0c             	sub    $0xc,%esp
    3858:	56                   	push   %esi
    3859:	e8 f2 5e 00 00       	call   9750 <free@plt>
    385e:	58                   	pop    %eax
    385f:	8b 45 b4             	mov    -0x4c(%ebp),%eax
    3862:	50                   	push   %eax
    3863:	e8 18 5c 00 00       	call   9480 <async_exchange_end@plt>
    3868:	8b 45 c0             	mov    -0x40(%ebp),%eax
    386b:	83 c4 10             	add    $0x10,%esp
    386e:	85 c0                	test   %eax,%eax
    3870:	0f 84 06 ff ff ff    	je     377c <hound_service_get_list+0xcc>
    3876:	31 f6                	xor    %esi,%esi
    3878:	8b 7d b0             	mov    -0x50(%ebp),%edi
    387b:	90                   	nop
    387c:	8d 74 26 00          	lea    0x0(%esi,%eiz,1),%esi
    3880:	83 ec 0c             	sub    $0xc,%esp
    3883:	8b 04 b3             	mov    (%ebx,%esi,4),%eax
    3886:	46                   	inc    %esi
    3887:	50                   	push   %eax
    3888:	e8 c3 5e 00 00       	call   9750 <free@plt>
    388d:	83 c4 10             	add    $0x10,%esp
    3890:	39 f7                	cmp    %esi,%edi
    3892:	75 ec                	jne    3880 <hound_service_get_list+0x1d0>
    3894:	83 ec 0c             	sub    $0xc,%esp
    3897:	53                   	push   %ebx
    3898:	e8 b3 5e 00 00       	call   9750 <free@plt>
    389d:	8b 45 c0             	mov    -0x40(%ebp),%eax
    38a0:	83 c4 10             	add    $0x10,%esp
    38a3:	89 45 ac             	mov    %eax,-0x54(%ebp)
    38a6:	8d 65 f4             	lea    -0xc(%ebp),%esp
    38a9:	5b                   	pop    %ebx
    38aa:	5e                   	pop    %esi
    38ab:	5f                   	pop    %edi
    38ac:	5d                   	pop    %ebp
    38ad:	c3                   	ret    
    38ae:	66 90                	xchg   %ax,%ax
    38b0:	83 ec 0c             	sub    $0xc,%esp
    38b3:	56                   	push   %esi
    38b4:	e8 a7 5d 00 00       	call   9660 <str_size@plt>
    38b9:	83 c4 0c             	add    $0xc,%esp
    38bc:	8b 7d b4             	mov    -0x4c(%ebp),%edi
    38bf:	50                   	push   %eax
    38c0:	56                   	push   %esi
    38c1:	57                   	push   %edi
    38c2:	e8 b9 5a 00 00       	call   9380 <async_data_write_start@plt>
    38c7:	83 c4 10             	add    $0x10,%esp
    38ca:	89 45 c0             	mov    %eax,-0x40(%ebp)
    38cd:	85 c0                	test   %eax,%eax
    38cf:	0f 84 64 fe ff ff    	je     3739 <hound_service_get_list+0x89>
    38d5:	83 ec 0c             	sub    $0xc,%esp
    38d8:	8b 75 b4             	mov    -0x4c(%ebp),%esi
    38db:	56                   	push   %esi
    38dc:	e8 9f 5b 00 00       	call   9480 <async_exchange_end@plt>
    38e1:	8b 45 c0             	mov    -0x40(%ebp),%eax
    38e4:	83 c4 10             	add    $0x10,%esp
    38e7:	89 45 ac             	mov    %eax,-0x54(%ebp)
    38ea:	8d 65 f4             	lea    -0xc(%ebp),%esp
    38ed:	5b                   	pop    %ebx
    38ee:	5e                   	pop    %esi
    38ef:	5f                   	pop    %edi
    38f0:	5d                   	pop    %ebp
    38f1:	c3                   	ret    
    38f2:	8d b6 00 00 00 00    	lea    0x0(%esi),%esi
    38f8:	83 ec 0c             	sub    $0xc,%esp
    38fb:	50                   	push   %eax
    38fc:	e8 8f 5d 00 00       	call   9690 <async_exchange_begin@plt>
    3901:	83 c4 10             	add    $0x10,%esp
    3904:	89 45 b4             	mov    %eax,-0x4c(%ebp)
    3907:	85 c0                	test   %eax,%eax
    3909:	74 3e                	je     3949 <hound_service_get_list+0x299>
    390b:	50                   	push   %eax
    390c:	8d 45 c4             	lea    -0x3c(%ebp),%eax
    390f:	50                   	push   %eax
    3910:	8b 45 10             	mov    0x10(%ebp),%eax
    3913:	6a 00                	push   $0x0
    3915:	6a 00                	push   $0x0
    3917:	8b 10                	mov    (%eax),%edx
    3919:	8b 4d b4             	mov    -0x4c(%ebp),%ecx
    391c:	52                   	push   %edx
    391d:	53                   	push   %ebx
    391e:	68 02 04 00 00       	push   $0x402
    3923:	51                   	push   %ecx
    3924:	e8 27 5b 00 00       	call   9450 <async_send_fast@plt>
    3929:	c7 45 c0 00 00 00 00 	movl   $0x0,-0x40(%ebp)
    3930:	89 c3                	mov    %eax,%ebx
    3932:	83 c4 20             	add    $0x20,%esp
    3935:	e9 ff fd ff ff       	jmp    3739 <hound_service_get_list+0x89>
    393a:	c7 45 ac f2 ff ff ff 	movl   $0xfffffff2,-0x54(%ebp)
    3941:	8b 45 ac             	mov    -0x54(%ebp),%eax
    3944:	e9 43 fe ff ff       	jmp    378c <hound_service_get_list+0xdc>
    3949:	c7 45 ac fe ff ff ff 	movl   $0xfffffffe,-0x54(%ebp)
    3950:	8b 45 ac             	mov    -0x54(%ebp),%eax
    3953:	e9 34 fe ff ff       	jmp    378c <hound_service_get_list+0xdc>
    3958:	50                   	push   %eax
    3959:	68 ad 00 00 00       	push   $0xad
    395e:	68 bb 7b 00 00       	push   $0x7bbb
    3963:	68 a7 7b 00 00       	push   $0x7ba7
    3968:	e8 33 5b 00 00       	call   94a0 <assert_abort@plt>
    396d:	51                   	push   %ecx
    396e:	68 ac 00 00 00       	push   $0xac
    3973:	68 bb 7b 00 00       	push   $0x7bbb
    3978:	68 d4 7b 00 00       	push   $0x7bd4
    397d:	e8 1e 5b 00 00       	call   94a0 <assert_abort@plt>
    3982:	50                   	push   %eax
    3983:	68 ab 00 00 00       	push   $0xab
    3988:	68 bb 7b 00 00       	push   $0x7bbb
    398d:	68 ca 7b 00 00       	push   $0x7bca
    3992:	e8 09 5b 00 00       	call   94a0 <assert_abort@plt>
    3997:	8b 5d a8             	mov    -0x58(%ebp),%ebx
    399a:	e9 b6 fe ff ff       	jmp    3855 <hound_service_get_list+0x1a5>
    399f:	89 cb                	mov    %ecx,%ebx
    39a1:	e9 af fe ff ff       	jmp    3855 <hound_service_get_list+0x1a5>
    39a6:	8d 76 00             	lea    0x0(%esi),%esi
    39a9:	8d bc 27 00 00 00 00 	lea    0x0(%edi,%eiz,1),%edi

000039b0 <hound_service_connect_source_sink>:
    39b0:	55                   	push   %ebp
    39b1:	89 e5                	mov    %esp,%ebp
    39b3:	57                   	push   %edi
    39b4:	56                   	push   %esi
    39b5:	53                   	push   %ebx
    39b6:	83 ec 3c             	sub    $0x3c,%esp
    39b9:	8b 45 08             	mov    0x8(%ebp),%eax
    39bc:	8b 75 0c             	mov    0xc(%ebp),%esi
    39bf:	85 c0                	test   %eax,%eax
    39c1:	0f 84 f2 00 00 00    	je     3ab9 <hound_service_connect_source_sink+0x109>
    39c7:	85 f6                	test   %esi,%esi
    39c9:	0f 84 d5 00 00 00    	je     3aa4 <hound_service_connect_source_sink+0xf4>
    39cf:	8b 55 10             	mov    0x10(%ebp),%edx
    39d2:	85 d2                	test   %edx,%edx
    39d4:	0f 84 b5 00 00 00    	je     3a8f <hound_service_connect_source_sink+0xdf>
    39da:	83 ec 0c             	sub    $0xc,%esp
    39dd:	50                   	push   %eax
    39de:	e8 ad 5c 00 00       	call   9690 <async_exchange_begin@plt>
    39e3:	83 c4 10             	add    $0x10,%esp
    39e6:	89 c3                	mov    %eax,%ebx
    39e8:	85 c0                	test   %eax,%eax
    39ea:	0f 84 98 00 00 00    	je     3a88 <hound_service_connect_source_sink+0xd8>
    39f0:	8d 45 c4             	lea    -0x3c(%ebp),%eax
    39f3:	57                   	push   %edi
    39f4:	50                   	push   %eax
    39f5:	6a 00                	push   $0x0
    39f7:	6a 00                	push   $0x0
    39f9:	6a 00                	push   $0x0
    39fb:	6a 00                	push   $0x0
    39fd:	68 03 04 00 00       	push   $0x403
    3a02:	53                   	push   %ebx
    3a03:	e8 48 5a 00 00       	call   9450 <async_send_fast@plt>
    3a08:	83 c4 20             	add    $0x20,%esp
    3a0b:	89 c7                	mov    %eax,%edi
    3a0d:	85 c0                	test   %eax,%eax
    3a0f:	75 2f                	jne    3a40 <hound_service_connect_source_sink+0x90>
    3a11:	c7 45 c0 f8 ff ff ff 	movl   $0xfffffff8,-0x40(%ebp)
    3a18:	50                   	push   %eax
    3a19:	50                   	push   %eax
    3a1a:	8d 45 c0             	lea    -0x40(%ebp),%eax
    3a1d:	50                   	push   %eax
    3a1e:	57                   	push   %edi
    3a1f:	e8 2c 59 00 00       	call   9350 <async_wait_for@plt>
    3a24:	89 1c 24             	mov    %ebx,(%esp)
    3a27:	e8 54 5a 00 00       	call   9480 <async_exchange_end@plt>
    3a2c:	8b 45 c0             	mov    -0x40(%ebp),%eax
    3a2f:	83 c4 10             	add    $0x10,%esp
    3a32:	8d 65 f4             	lea    -0xc(%ebp),%esp
    3a35:	5b                   	pop    %ebx
    3a36:	5e                   	pop    %esi
    3a37:	5f                   	pop    %edi
    3a38:	5d                   	pop    %ebp
    3a39:	c3                   	ret    
    3a3a:	8d b6 00 00 00 00    	lea    0x0(%esi),%esi
    3a40:	83 ec 0c             	sub    $0xc,%esp
    3a43:	c7 45 c0 00 00 00 00 	movl   $0x0,-0x40(%ebp)
    3a4a:	56                   	push   %esi
    3a4b:	e8 10 5c 00 00       	call   9660 <str_size@plt>
    3a50:	83 c4 0c             	add    $0xc,%esp
    3a53:	50                   	push   %eax
    3a54:	56                   	push   %esi
    3a55:	53                   	push   %ebx
    3a56:	e8 25 59 00 00       	call   9380 <async_data_write_start@plt>
    3a5b:	83 c4 10             	add    $0x10,%esp
    3a5e:	89 45 c0             	mov    %eax,-0x40(%ebp)
    3a61:	85 c0                	test   %eax,%eax
    3a63:	75 b3                	jne    3a18 <hound_service_connect_source_sink+0x68>
    3a65:	83 ec 0c             	sub    $0xc,%esp
    3a68:	8b 55 10             	mov    0x10(%ebp),%edx
    3a6b:	52                   	push   %edx
    3a6c:	e8 ef 5b 00 00       	call   9660 <str_size@plt>
    3a71:	83 c4 0c             	add    $0xc,%esp
    3a74:	8b 4d 10             	mov    0x10(%ebp),%ecx
    3a77:	50                   	push   %eax
    3a78:	51                   	push   %ecx
    3a79:	53                   	push   %ebx
    3a7a:	e8 01 59 00 00       	call   9380 <async_data_write_start@plt>
    3a7f:	83 c4 10             	add    $0x10,%esp
    3a82:	89 45 c0             	mov    %eax,-0x40(%ebp)
    3a85:	eb 91                	jmp    3a18 <hound_service_connect_source_sink+0x68>
    3a87:	90                   	nop
    3a88:	b8 fe ff ff ff       	mov    $0xfffffffe,%eax
    3a8d:	eb a3                	jmp    3a32 <hound_service_connect_source_sink+0x82>
    3a8f:	50                   	push   %eax
    3a90:	68 f7 00 00 00       	push   $0xf7
    3a95:	68 bb 7b 00 00       	push   $0x7bbb
    3a9a:	68 df 7b 00 00       	push   $0x7bdf
    3a9f:	e8 fc 59 00 00       	call   94a0 <assert_abort@plt>
    3aa4:	51                   	push   %ecx
    3aa5:	68 f6 00 00 00       	push   $0xf6
    3aaa:	68 bb 7b 00 00       	push   $0x7bbb
    3aaf:	68 d8 7b 00 00       	push   $0x7bd8
    3ab4:	e8 e7 59 00 00       	call   94a0 <assert_abort@plt>
    3ab9:	53                   	push   %ebx
    3aba:	68 f5 00 00 00       	push   $0xf5
    3abf:	68 bb 7b 00 00       	push   $0x7bbb
    3ac4:	68 ca 7b 00 00       	push   $0x7bca
    3ac9:	e8 d2 59 00 00       	call   94a0 <assert_abort@plt>
    3ace:	66 90                	xchg   %ax,%ax

00003ad0 <hound_service_disconnect_source_sink>:
    3ad0:	55                   	push   %ebp
    3ad1:	89 e5                	mov    %esp,%ebp
    3ad3:	56                   	push   %esi
    3ad4:	53                   	push   %ebx
    3ad5:	83 ec 30             	sub    $0x30,%esp
    3ad8:	8b 45 08             	mov    0x8(%ebp),%eax
    3adb:	85 c0                	test   %eax,%eax
    3add:	0f 84 c1 00 00 00    	je     3ba4 <hound_service_disconnect_source_sink+0xd4>
    3ae3:	83 ec 0c             	sub    $0xc,%esp
    3ae6:	50                   	push   %eax
    3ae7:	e8 a4 5b 00 00       	call   9690 <async_exchange_begin@plt>
    3aec:	83 c4 10             	add    $0x10,%esp
    3aef:	89 c3                	mov    %eax,%ebx
    3af1:	85 c0                	test   %eax,%eax
    3af3:	0f 84 9f 00 00 00    	je     3b98 <hound_service_disconnect_source_sink+0xc8>
    3af9:	50                   	push   %eax
    3afa:	8d 45 d4             	lea    -0x2c(%ebp),%eax
    3afd:	50                   	push   %eax
    3afe:	6a 00                	push   $0x0
    3b00:	6a 00                	push   $0x0
    3b02:	6a 00                	push   $0x0
    3b04:	6a 00                	push   $0x0
    3b06:	68 04 04 00 00       	push   $0x404
    3b0b:	53                   	push   %ebx
    3b0c:	e8 3f 59 00 00       	call   9450 <async_send_fast@plt>
    3b11:	83 c4 20             	add    $0x20,%esp
    3b14:	89 c6                	mov    %eax,%esi
    3b16:	85 c0                	test   %eax,%eax
    3b18:	74 6e                	je     3b88 <hound_service_disconnect_source_sink+0xb8>
    3b1a:	83 ec 0c             	sub    $0xc,%esp
    3b1d:	8b 45 0c             	mov    0xc(%ebp),%eax
    3b20:	c7 45 d0 00 00 00 00 	movl   $0x0,-0x30(%ebp)
    3b27:	50                   	push   %eax
    3b28:	e8 33 5b 00 00       	call   9660 <str_size@plt>
    3b2d:	83 c4 0c             	add    $0xc,%esp
    3b30:	8b 55 0c             	mov    0xc(%ebp),%edx
    3b33:	50                   	push   %eax
    3b34:	52                   	push   %edx
    3b35:	53                   	push   %ebx
    3b36:	e8 45 58 00 00       	call   9380 <async_data_write_start@plt>
    3b3b:	83 c4 10             	add    $0x10,%esp
    3b3e:	89 45 d0             	mov    %eax,-0x30(%ebp)
    3b41:	85 c0                	test   %eax,%eax
    3b43:	75 20                	jne    3b65 <hound_service_disconnect_source_sink+0x95>
    3b45:	83 ec 0c             	sub    $0xc,%esp
    3b48:	8b 45 10             	mov    0x10(%ebp),%eax
    3b4b:	50                   	push   %eax
    3b4c:	e8 0f 5b 00 00       	call   9660 <str_size@plt>
    3b51:	83 c4 0c             	add    $0xc,%esp
    3b54:	50                   	push   %eax
    3b55:	8b 45 10             	mov    0x10(%ebp),%eax
    3b58:	50                   	push   %eax
    3b59:	53                   	push   %ebx
    3b5a:	e8 21 58 00 00       	call   9380 <async_data_write_start@plt>
    3b5f:	83 c4 10             	add    $0x10,%esp
    3b62:	89 45 d0             	mov    %eax,-0x30(%ebp)
    3b65:	8d 45 d0             	lea    -0x30(%ebp),%eax
    3b68:	51                   	push   %ecx
    3b69:	51                   	push   %ecx
    3b6a:	50                   	push   %eax
    3b6b:	56                   	push   %esi
    3b6c:	e8 df 57 00 00       	call   9350 <async_wait_for@plt>
    3b71:	89 1c 24             	mov    %ebx,(%esp)
    3b74:	e8 07 59 00 00       	call   9480 <async_exchange_end@plt>
    3b79:	83 c4 10             	add    $0x10,%esp
    3b7c:	8d 65 f8             	lea    -0x8(%ebp),%esp
    3b7f:	b8 f5 ff ff ff       	mov    $0xfffffff5,%eax
    3b84:	5b                   	pop    %ebx
    3b85:	5e                   	pop    %esi
    3b86:	5d                   	pop    %ebp
    3b87:	c3                   	ret    
    3b88:	c7 45 d0 f8 ff ff ff 	movl   $0xfffffff8,-0x30(%ebp)
    3b8f:	eb d4                	jmp    3b65 <hound_service_disconnect_source_sink+0x95>
    3b91:	8d b4 26 00 00 00 00 	lea    0x0(%esi,%eiz,1),%esi
    3b98:	8d 65 f8             	lea    -0x8(%ebp),%esp
    3b9b:	b8 fe ff ff ff       	mov    $0xfffffffe,%eax
    3ba0:	5b                   	pop    %ebx
    3ba1:	5e                   	pop    %esi
    3ba2:	5d                   	pop    %ebp
    3ba3:	c3                   	ret    
    3ba4:	50                   	push   %eax
    3ba5:	68 12 01 00 00       	push   $0x112
    3baa:	68 bb 7b 00 00       	push   $0x7bbb
    3baf:	68 ca 7b 00 00       	push   $0x7bca
    3bb4:	e8 e7 58 00 00       	call   94a0 <assert_abort@plt>
    3bb9:	8d b4 26 00 00 00 00 	lea    0x0(%esi,%eiz,1),%esi

00003bc0 <hound_service_stream_enter>:
    3bc0:	55                   	push   %ebp
    3bc1:	ba 1f 85 eb 51       	mov    $0x51eb851f,%edx
    3bc6:	89 e5                	mov    %esp,%ebp
    3bc8:	89 d0                	mov    %edx,%eax
    3bca:	83 ec 0c             	sub    $0xc,%esp
    3bcd:	31 c9                	xor    %ecx,%ecx
    3bcf:	f7 65 18             	mull   0x18(%ebp)
    3bd2:	8a 4d 14             	mov    0x14(%ebp),%cl
    3bd5:	31 c0                	xor    %eax,%eax
    3bd7:	c1 ea 05             	shr    $0x5,%edx
    3bda:	8a 45 1c             	mov    0x1c(%ebp),%al
    3bdd:	c1 e1 10             	shl    $0x10,%ecx
    3be0:	81 e2 ff ff 00 00    	and    $0xffff,%edx
    3be6:	c1 e0 18             	shl    $0x18,%eax
    3be9:	09 ca                	or     %ecx,%edx
    3beb:	09 c2                	or     %eax,%edx
    3bed:	8b 45 20             	mov    0x20(%ebp),%eax
    3bf0:	6a 00                	push   $0x0
    3bf2:	8b 4d 0c             	mov    0xc(%ebp),%ecx
    3bf5:	6a 00                	push   $0x0
    3bf7:	6a 00                	push   $0x0
    3bf9:	6a 00                	push   $0x0
    3bfb:	6a 00                	push   $0x0
    3bfd:	50                   	push   %eax
    3bfe:	8b 45 08             	mov    0x8(%ebp),%eax
    3c01:	52                   	push   %edx
    3c02:	8b 55 10             	mov    0x10(%ebp),%edx
    3c05:	52                   	push   %edx
    3c06:	51                   	push   %ecx
    3c07:	68 05 04 00 00       	push   $0x405
    3c0c:	50                   	push   %eax
    3c0d:	e8 de 57 00 00       	call   93f0 <async_req_fast@plt>
    3c12:	c9                   	leave  
    3c13:	c3                   	ret    
    3c14:	8d b6 00 00 00 00    	lea    0x0(%esi),%esi
    3c1a:	8d bf 00 00 00 00    	lea    0x0(%edi),%edi

00003c20 <hound_service_stream_exit>:
    3c20:	55                   	push   %ebp
    3c21:	89 e5                	mov    %esp,%ebp
    3c23:	83 ec 0c             	sub    $0xc,%esp
    3c26:	8b 45 08             	mov    0x8(%ebp),%eax
    3c29:	6a 00                	push   $0x0
    3c2b:	6a 00                	push   $0x0
    3c2d:	6a 00                	push   $0x0
    3c2f:	6a 00                	push   $0x0
    3c31:	6a 00                	push   $0x0
    3c33:	6a 00                	push   $0x0
    3c35:	6a 00                	push   $0x0
    3c37:	6a 00                	push   $0x0
    3c39:	6a 00                	push   $0x0
    3c3b:	68 06 04 00 00       	push   $0x406
    3c40:	50                   	push   %eax
    3c41:	e8 aa 57 00 00       	call   93f0 <async_req_fast@plt>
    3c46:	c9                   	leave  
    3c47:	c3                   	ret    
    3c48:	90                   	nop
    3c49:	8d b4 26 00 00 00 00 	lea    0x0(%esi,%eiz,1),%esi

00003c50 <hound_service_stream_drain>:
    3c50:	55                   	push   %ebp
    3c51:	89 e5                	mov    %esp,%ebp
    3c53:	83 ec 0c             	sub    $0xc,%esp
    3c56:	8b 45 08             	mov    0x8(%ebp),%eax
    3c59:	6a 00                	push   $0x0
    3c5b:	6a 00                	push   $0x0
    3c5d:	6a 00                	push   $0x0
    3c5f:	6a 00                	push   $0x0
    3c61:	6a 00                	push   $0x0
    3c63:	6a 00                	push   $0x0
    3c65:	6a 00                	push   $0x0
    3c67:	6a 00                	push   $0x0
    3c69:	6a 00                	push   $0x0
    3c6b:	68 07 04 00 00       	push   $0x407
    3c70:	50                   	push   %eax
    3c71:	e8 7a 57 00 00       	call   93f0 <async_req_fast@plt>
    3c76:	c9                   	leave  
    3c77:	c3                   	ret    
    3c78:	90                   	nop
    3c79:	8d b4 26 00 00 00 00 	lea    0x0(%esi,%eiz,1),%esi

00003c80 <hound_service_stream_write>:
    3c80:	55                   	push   %ebp
    3c81:	89 e5                	mov    %esp,%ebp
    3c83:	5d                   	pop    %ebp
    3c84:	e9 f7 56 00 00       	jmp    9380 <async_data_write_start@plt>
    3c89:	8d b4 26 00 00 00 00 	lea    0x0(%esi,%eiz,1),%esi

00003c90 <hound_service_stream_read>:
    3c90:	55                   	push   %ebp
    3c91:	89 e5                	mov    %esp,%ebp
    3c93:	5d                   	pop    %ebp
    3c94:	e9 27 59 00 00       	jmp    95c0 <async_data_read_start@plt>
    3c99:	8d b4 26 00 00 00 00 	lea    0x0(%esi,%eiz,1),%esi

00003ca0 <hound_service_set_server_iface>:
    3ca0:	55                   	push   %ebp
    3ca1:	89 e5                	mov    %esp,%ebp
    3ca3:	8b 45 08             	mov    0x8(%ebp),%eax
    3ca6:	5d                   	pop    %ebp
    3ca7:	a3 88 35 01 00       	mov    %eax,0x13588
    3cac:	c3                   	ret    
    3cad:	8d 76 00             	lea    0x0(%esi),%esi

00003cb0 <hound_connection_handler>:
    3cb0:	55                   	push   %ebp
    3cb1:	89 e5                	mov    %esp,%ebp
    3cb3:	57                   	push   %edi
    3cb4:	56                   	push   %esi
    3cb5:	53                   	push   %ebx
    3cb6:	83 ec 7c             	sub    $0x7c,%esp
    3cb9:	8b 1d 88 35 01 00    	mov    0x13588,%ebx
    3cbf:	8b 45 08             	mov    0x8(%ebp),%eax
    3cc2:	85 db                	test   %ebx,%ebx
    3cc4:	0f 84 4e 07 00 00    	je     4418 <hound_connection_handler+0x768>
    3cca:	51                   	push   %ecx
    3ccb:	51                   	push   %ecx
    3ccc:	6a 00                	push   $0x0
    3cce:	50                   	push   %eax
    3ccf:	e8 5c 57 00 00       	call   9430 <async_answer_0@plt>
    3cd4:	83 c4 10             	add    $0x10,%esp
    3cd7:	90                   	nop
    3cd8:	50                   	push   %eax
    3cd9:	50                   	push   %eax
    3cda:	8d 45 a0             	lea    -0x60(%ebp),%eax
    3cdd:	6a 00                	push   $0x0
    3cdf:	50                   	push   %eax
    3ce0:	e8 6b 59 00 00       	call   9650 <async_get_call_timeout@plt>
    3ce5:	89 c7                	mov    %eax,%edi
    3ce7:	8b 45 a0             	mov    -0x60(%ebp),%eax
    3cea:	2d 00 04 00 00       	sub    $0x400,%eax
    3cef:	83 c4 10             	add    $0x10,%esp
    3cf2:	83 f8 07             	cmp    $0x7,%eax
    3cf5:	0f 87 0d 04 00 00    	ja     4108 <hound_connection_handler+0x458>
    3cfb:	ff 24 85 fc 7b 00 00 	jmp    *0x7bfc(,%eax,4)
    3d02:	8d b6 00 00 00 00    	lea    0x0(%esi),%esi
    3d08:	a1 88 35 01 00       	mov    0x13588,%eax
    3d0d:	85 c0                	test   %eax,%eax
    3d0f:	0f 84 fb 01 00 00    	je     3f10 <hound_connection_handler+0x260>
    3d15:	8b 48 08             	mov    0x8(%eax),%ecx
    3d18:	85 c9                	test   %ecx,%ecx
    3d1a:	0f 84 f0 01 00 00    	je     3f10 <hound_connection_handler+0x260>
    3d20:	8b 58 18             	mov    0x18(%eax),%ebx
    3d23:	85 db                	test   %ebx,%ebx
    3d25:	0f 84 e5 01 00 00    	je     3f10 <hound_connection_handler+0x260>
    3d2b:	8b 50 1c             	mov    0x1c(%eax),%edx
    3d2e:	85 d2                	test   %edx,%edx
    3d30:	0f 84 da 01 00 00    	je     3f10 <hound_connection_handler+0x260>
    3d36:	8b 55 ac             	mov    -0x54(%ebp),%edx
    3d39:	8b 4d a4             	mov    -0x5c(%ebp),%ecx
    3d3c:	89 4d 80             	mov    %ecx,-0x80(%ebp)
    3d3f:	89 d1                	mov    %edx,%ecx
    3d41:	c1 e9 10             	shr    $0x10,%ecx
    3d44:	89 ce                	mov    %ecx,%esi
    3d46:	31 c9                	xor    %ecx,%ecx
    3d48:	66 89 d1             	mov    %dx,%cx
    3d4b:	81 e6 ff 00 00 00    	and    $0xff,%esi
    3d51:	c1 ea 18             	shr    $0x18,%edx
    3d54:	89 75 94             	mov    %esi,-0x6c(%ebp)
    3d57:	8d 0c 89             	lea    (%ecx,%ecx,4),%ecx
    3d5a:	89 55 84             	mov    %edx,-0x7c(%ebp)
    3d5d:	89 55 9c             	mov    %edx,-0x64(%ebp)
    3d60:	8d 55 88             	lea    -0x78(%ebp),%edx
    3d63:	52                   	push   %edx
    3d64:	8d 0c 89             	lea    (%ecx,%ecx,4),%ecx
    3d67:	c1 e1 02             	shl    $0x2,%ecx
    3d6a:	8b 55 b0             	mov    -0x50(%ebp),%edx
    3d6d:	52                   	push   %edx
    3d6e:	8b 55 84             	mov    -0x7c(%ebp),%edx
    3d71:	52                   	push   %edx
    3d72:	51                   	push   %ecx
    3d73:	56                   	push   %esi
    3d74:	89 4d 98             	mov    %ecx,-0x68(%ebp)
    3d77:	8b 75 80             	mov    -0x80(%ebp),%esi
    3d7a:	8b 4d a8             	mov    -0x58(%ebp),%ecx
    3d7d:	8b 40 2c             	mov    0x2c(%eax),%eax
    3d80:	51                   	push   %ecx
    3d81:	56                   	push   %esi
    3d82:	50                   	push   %eax
    3d83:	ff d3                	call   *%ebx
    3d85:	83 c4 20             	add    $0x20,%esp
    3d88:	89 45 84             	mov    %eax,-0x7c(%ebp)
    3d8b:	85 c0                	test   %eax,%eax
    3d8d:	0f 85 63 03 00 00    	jne    40f6 <hound_connection_handler+0x446>
    3d93:	a1 88 35 01 00       	mov    0x13588,%eax
    3d98:	52                   	push   %edx
    3d99:	52                   	push   %edx
    3d9a:	8b 4d 80             	mov    -0x80(%ebp),%ecx
    3d9d:	8b 58 2c             	mov    0x2c(%eax),%ebx
    3da0:	51                   	push   %ecx
    3da1:	53                   	push   %ebx
    3da2:	ff 50 08             	call   *0x8(%eax)
    3da5:	83 c4 10             	add    $0x10,%esp
    3da8:	84 c0                	test   %al,%al
    3daa:	a1 88 35 01 00       	mov    0x13588,%eax
    3daf:	0f 84 83 04 00 00    	je     4238 <hound_connection_handler+0x588>
    3db5:	8b 40 28             	mov    0x28(%eax),%eax
    3db8:	85 c0                	test   %eax,%eax
    3dba:	0f 84 50 01 00 00    	je     3f10 <hound_connection_handler+0x260>
    3dc0:	50                   	push   %eax
    3dc1:	50                   	push   %eax
    3dc2:	6a 00                	push   $0x0
    3dc4:	57                   	push   %edi
    3dc5:	e8 66 56 00 00       	call   9430 <async_answer_0@plt>
    3dca:	8b 45 88             	mov    -0x78(%ebp),%eax
    3dcd:	89 45 80             	mov    %eax,-0x80(%ebp)
    3dd0:	c7 45 90 00 00 00 00 	movl   $0x0,-0x70(%ebp)
    3dd7:	83 c4 10             	add    $0x10,%esp
    3dda:	8d 75 90             	lea    -0x70(%ebp),%esi
    3ddd:	8d 5d 8c             	lea    -0x74(%ebp),%ebx
    3de0:	50                   	push   %eax
    3de1:	8d 45 c4             	lea    -0x3c(%ebp),%eax
    3de4:	56                   	push   %esi
    3de5:	50                   	push   %eax
    3de6:	53                   	push   %ebx
    3de7:	e8 24 56 00 00       	call   9410 <async_data_read_receive_call@plt>
    3dec:	83 c4 10             	add    $0x10,%esp
    3def:	84 c0                	test   %al,%al
    3df1:	0f 84 61 05 00 00    	je     4358 <hound_connection_handler+0x6a8>
    3df7:	81 7d c4 07 04 00 00 	cmpl   $0x407,-0x3c(%ebp)
    3dfe:	74 5d                	je     3e5d <hound_connection_handler+0x1ad>
    3e00:	8b 45 84             	mov    -0x7c(%ebp),%eax
    3e03:	85 c0                	test   %eax,%eax
    3e05:	75 75                	jne    3e7c <hound_connection_handler+0x1cc>
    3e07:	83 ec 0c             	sub    $0xc,%esp
    3e0a:	8b 45 90             	mov    -0x70(%ebp),%eax
    3e0d:	50                   	push   %eax
    3e0e:	e8 bd 55 00 00       	call   93d0 <malloc@plt>
    3e13:	83 c4 10             	add    $0x10,%esp
    3e16:	89 c7                	mov    %eax,%edi
    3e18:	85 c0                	test   %eax,%eax
    3e1a:	0f 84 e0 05 00 00    	je     4400 <hound_connection_handler+0x750>
    3e20:	8b 45 90             	mov    -0x70(%ebp),%eax
    3e23:	51                   	push   %ecx
    3e24:	50                   	push   %eax
    3e25:	8b 45 80             	mov    -0x80(%ebp),%eax
    3e28:	57                   	push   %edi
    3e29:	50                   	push   %eax
    3e2a:	a1 88 35 01 00       	mov    0x13588,%eax
    3e2f:	ff 50 28             	call   *0x28(%eax)
    3e32:	83 c4 10             	add    $0x10,%esp
    3e35:	85 c0                	test   %eax,%eax
    3e37:	0f 84 5b 05 00 00    	je     4398 <hound_connection_handler+0x6e8>
    3e3d:	52                   	push   %edx
    3e3e:	8d 45 c4             	lea    -0x3c(%ebp),%eax
    3e41:	56                   	push   %esi
    3e42:	50                   	push   %eax
    3e43:	53                   	push   %ebx
    3e44:	e8 c7 55 00 00       	call   9410 <async_data_read_receive_call@plt>
    3e49:	83 c4 10             	add    $0x10,%esp
    3e4c:	84 c0                	test   %al,%al
    3e4e:	0f 84 04 05 00 00    	je     4358 <hound_connection_handler+0x6a8>
    3e54:	81 7d c4 07 04 00 00 	cmpl   $0x407,-0x3c(%ebp)
    3e5b:	75 aa                	jne    3e07 <hound_connection_handler+0x157>
    3e5d:	a1 88 35 01 00       	mov    0x13588,%eax
    3e62:	8b 40 20             	mov    0x20(%eax),%eax
    3e65:	85 c0                	test   %eax,%eax
    3e67:	0f 84 05 05 00 00    	je     4372 <hound_connection_handler+0x6c2>
    3e6d:	8d 76 00             	lea    0x0(%esi),%esi
    3e70:	83 ec 0c             	sub    $0xc,%esp
    3e73:	8b 7d 80             	mov    -0x80(%ebp),%edi
    3e76:	57                   	push   %edi
    3e77:	ff d0                	call   *%eax
    3e79:	83 c4 10             	add    $0x10,%esp
    3e7c:	8b 4d 8c             	mov    -0x74(%ebp),%ecx
    3e7f:	52                   	push   %edx
    3e80:	52                   	push   %edx
    3e81:	50                   	push   %eax
    3e82:	51                   	push   %ecx
    3e83:	e8 a8 55 00 00       	call   9430 <async_answer_0@plt>
    3e88:	83 c4 10             	add    $0x10,%esp
    3e8b:	e9 50 ff ff ff       	jmp    3de0 <hound_connection_handler+0x130>
    3e90:	a1 88 35 01 00       	mov    0x13588,%eax
    3e95:	85 c0                	test   %eax,%eax
    3e97:	74 77                	je     3f10 <hound_connection_handler+0x260>
    3e99:	8b 70 14             	mov    0x14(%eax),%esi
    3e9c:	85 f6                	test   %esi,%esi
    3e9e:	74 70                	je     3f10 <hound_connection_handler+0x260>
    3ea0:	8d 45 94             	lea    -0x6c(%ebp),%eax
    3ea3:	c7 45 94 00 00 00 00 	movl   $0x0,-0x6c(%ebp)
    3eaa:	53                   	push   %ebx
    3eab:	c7 45 c4 00 00 00 00 	movl   $0x0,-0x3c(%ebp)
    3eb2:	53                   	push   %ebx
    3eb3:	6a 00                	push   $0x0
    3eb5:	6a 00                	push   $0x0
    3eb7:	6a 00                	push   $0x0
    3eb9:	6a 00                	push   $0x0
    3ebb:	6a 01                	push   $0x1
    3ebd:	50                   	push   %eax
    3ebe:	e8 3d 58 00 00       	call   9700 <async_data_write_accept@plt>
    3ec3:	83 c4 20             	add    $0x20,%esp
    3ec6:	85 c0                	test   %eax,%eax
    3ec8:	0f 84 a2 02 00 00    	je     4170 <hound_connection_handler+0x4c0>
    3ece:	83 ec 0c             	sub    $0xc,%esp
    3ed1:	8b 5d 94             	mov    -0x6c(%ebp),%ebx
    3ed4:	89 45 84             	mov    %eax,-0x7c(%ebp)
    3ed7:	53                   	push   %ebx
    3ed8:	e8 73 58 00 00       	call   9750 <free@plt>
    3edd:	8b 45 c4             	mov    -0x3c(%ebp),%eax
    3ee0:	5e                   	pop    %esi
    3ee1:	50                   	push   %eax
    3ee2:	e8 69 58 00 00       	call   9750 <free@plt>
    3ee7:	58                   	pop    %eax
    3ee8:	8b 45 84             	mov    -0x7c(%ebp),%eax
    3eeb:	5a                   	pop    %edx
    3eec:	50                   	push   %eax
    3eed:	57                   	push   %edi
    3eee:	e8 3d 55 00 00       	call   9430 <async_answer_0@plt>
    3ef3:	83 c4 10             	add    $0x10,%esp
    3ef6:	e9 dd fd ff ff       	jmp    3cd8 <hound_connection_handler+0x28>
    3efb:	90                   	nop
    3efc:	8d 74 26 00          	lea    0x0(%esi,%eiz,1),%esi
    3f00:	a1 88 35 01 00       	mov    0x13588,%eax
    3f05:	85 c0                	test   %eax,%eax
    3f07:	74 07                	je     3f10 <hound_connection_handler+0x260>
    3f09:	8b 40 10             	mov    0x10(%eax),%eax
    3f0c:	85 c0                	test   %eax,%eax
    3f0e:	75 90                	jne    3ea0 <hound_connection_handler+0x1f0>
    3f10:	56                   	push   %esi
    3f11:	56                   	push   %esi
    3f12:	6a f5                	push   $0xfffffff5
    3f14:	57                   	push   %edi
    3f15:	e8 16 55 00 00       	call   9430 <async_answer_0@plt>
    3f1a:	83 c4 10             	add    $0x10,%esp
    3f1d:	e9 b6 fd ff ff       	jmp    3cd8 <hound_connection_handler+0x28>
    3f22:	8d b6 00 00 00 00    	lea    0x0(%esi),%esi
    3f28:	a1 88 35 01 00       	mov    0x13588,%eax
    3f2d:	85 c0                	test   %eax,%eax
    3f2f:	74 df                	je     3f10 <hound_connection_handler+0x260>
    3f31:	8b 48 0c             	mov    0xc(%eax),%ecx
    3f34:	85 c9                	test   %ecx,%ecx
    3f36:	74 d8                	je     3f10 <hound_connection_handler+0x260>
    3f38:	8b 5d a8             	mov    -0x58(%ebp),%ebx
    3f3b:	8b 75 ac             	mov    -0x54(%ebp),%esi
    3f3e:	89 5d 8c             	mov    %ebx,-0x74(%ebp)
    3f41:	c7 45 88 00 00 00 00 	movl   $0x0,-0x78(%ebp)
    3f48:	31 db                	xor    %ebx,%ebx
    3f4a:	8b 55 a4             	mov    -0x5c(%ebp),%edx
    3f4d:	c7 45 90 00 00 00 00 	movl   $0x0,-0x70(%ebp)
    3f54:	85 f6                	test   %esi,%esi
    3f56:	0f 85 54 02 00 00    	jne    41b0 <hound_connection_handler+0x500>
    3f5c:	83 ec 0c             	sub    $0xc,%esp
    3f5f:	52                   	push   %edx
    3f60:	8d 55 88             	lea    -0x78(%ebp),%edx
    3f63:	53                   	push   %ebx
    3f64:	8d 5d 8c             	lea    -0x74(%ebp),%ebx
    3f67:	53                   	push   %ebx
    3f68:	52                   	push   %edx
    3f69:	8b 50 2c             	mov    0x2c(%eax),%edx
    3f6c:	52                   	push   %edx
    3f6d:	ff d1                	call   *%ecx
    3f6f:	83 c4 20             	add    $0x20,%esp
    3f72:	89 c3                	mov    %eax,%ebx
    3f74:	83 ec 0c             	sub    $0xc,%esp
    3f77:	8b 45 90             	mov    -0x70(%ebp),%eax
    3f7a:	31 f6                	xor    %esi,%esi
    3f7c:	50                   	push   %eax
    3f7d:	e8 ce 57 00 00       	call   9750 <free@plt>
    3f82:	8b 55 8c             	mov    -0x74(%ebp),%edx
    3f85:	83 c4 10             	add    $0x10,%esp
    3f88:	85 d2                	test   %edx,%edx
    3f8a:	0f 85 58 02 00 00    	jne    41e8 <hound_connection_handler+0x538>
    3f90:	50                   	push   %eax
    3f91:	52                   	push   %edx
    3f92:	53                   	push   %ebx
    3f93:	57                   	push   %edi
    3f94:	e8 e7 56 00 00       	call   9680 <async_answer_1@plt>
    3f99:	8b 55 8c             	mov    -0x74(%ebp),%edx
    3f9c:	83 c4 10             	add    $0x10,%esp
    3f9f:	85 d2                	test   %edx,%edx
    3fa1:	0f 84 31 fd ff ff    	je     3cd8 <hound_connection_handler+0x28>
    3fa7:	85 db                	test   %ebx,%ebx
    3fa9:	0f 85 29 fd ff ff    	jne    3cd8 <hound_connection_handler+0x28>
    3faf:	90                   	nop
    3fb0:	8b 45 88             	mov    -0x78(%ebp),%eax
    3fb3:	83 ec 0c             	sub    $0xc,%esp
    3fb6:	8b 04 98             	mov    (%eax,%ebx,4),%eax
    3fb9:	50                   	push   %eax
    3fba:	e8 a1 56 00 00       	call   9660 <str_size@plt>
    3fbf:	89 04 9e             	mov    %eax,(%esi,%ebx,4)
    3fc2:	43                   	inc    %ebx
    3fc3:	83 c4 10             	add    $0x10,%esp
    3fc6:	39 5d 8c             	cmp    %ebx,-0x74(%ebp)
    3fc9:	77 e5                	ja     3fb0 <hound_connection_handler+0x300>
    3fcb:	50                   	push   %eax
    3fcc:	50                   	push   %eax
    3fcd:	8d 45 94             	lea    -0x6c(%ebp),%eax
    3fd0:	6a 00                	push   $0x0
    3fd2:	50                   	push   %eax
    3fd3:	e8 c8 55 00 00       	call   95a0 <async_data_read_receive@plt>
    3fd8:	83 c4 10             	add    $0x10,%esp
    3fdb:	84 c0                	test   %al,%al
    3fdd:	0f 85 4a 04 00 00    	jne    442d <hound_connection_handler+0x77d>
    3fe3:	31 ff                	xor    %edi,%edi
    3fe5:	83 ec 0c             	sub    $0xc,%esp
    3fe8:	31 db                	xor    %ebx,%ebx
    3fea:	56                   	push   %esi
    3feb:	e8 60 57 00 00       	call   9750 <free@plt>
    3ff0:	8b 75 8c             	mov    -0x74(%ebp),%esi
    3ff3:	83 c4 10             	add    $0x10,%esp
    3ff6:	85 f6                	test   %esi,%esi
    3ff8:	75 22                	jne    401c <hound_connection_handler+0x36c>
    3ffa:	e9 81 03 00 00       	jmp    4380 <hound_connection_handler+0x6d0>
    3fff:	90                   	nop
    4000:	8b 45 88             	mov    -0x78(%ebp),%eax
    4003:	83 ec 0c             	sub    $0xc,%esp
    4006:	43                   	inc    %ebx
    4007:	8b 04 30             	mov    (%eax,%esi,1),%eax
    400a:	50                   	push   %eax
    400b:	e8 40 57 00 00       	call   9750 <free@plt>
    4010:	83 c4 10             	add    $0x10,%esp
    4013:	39 5d 8c             	cmp    %ebx,-0x74(%ebp)
    4016:	0f 86 64 03 00 00    	jbe    4380 <hound_connection_handler+0x6d0>
    401c:	8b 45 88             	mov    -0x78(%ebp),%eax
    401f:	8d 34 9d 00 00 00 00 	lea    0x0(,%ebx,4),%esi
    4026:	83 ec 0c             	sub    $0xc,%esp
    4029:	8b 14 30             	mov    (%eax,%esi,1),%edx
    402c:	52                   	push   %edx
    402d:	e8 2e 56 00 00       	call   9660 <str_size@plt>
    4032:	83 c4 10             	add    $0x10,%esp
    4035:	85 ff                	test   %edi,%edi
    4037:	75 c7                	jne    4000 <hound_connection_handler+0x350>
    4039:	89 45 84             	mov    %eax,-0x7c(%ebp)
    403c:	50                   	push   %eax
    403d:	50                   	push   %eax
    403e:	8d 45 c4             	lea    -0x3c(%ebp),%eax
    4041:	6a 00                	push   $0x0
    4043:	50                   	push   %eax
    4044:	e8 57 55 00 00       	call   95a0 <async_data_read_receive@plt>
    4049:	83 c4 10             	add    $0x10,%esp
    404c:	8b 55 84             	mov    -0x7c(%ebp),%edx
    404f:	84 c0                	test   %al,%al
    4051:	74 ad                	je     4000 <hound_connection_handler+0x350>
    4053:	50                   	push   %eax
    4054:	8b 45 88             	mov    -0x78(%ebp),%eax
    4057:	52                   	push   %edx
    4058:	8b 04 30             	mov    (%eax,%esi,1),%eax
    405b:	50                   	push   %eax
    405c:	8b 45 c4             	mov    -0x3c(%ebp),%eax
    405f:	50                   	push   %eax
    4060:	e8 3b 53 00 00       	call   93a0 <async_data_read_finalize@plt>
    4065:	83 c4 10             	add    $0x10,%esp
    4068:	89 c7                	mov    %eax,%edi
    406a:	eb 94                	jmp    4000 <hound_connection_handler+0x350>
    406c:	8d 74 26 00          	lea    0x0(%esi,%eiz,1),%esi
    4070:	a1 88 35 01 00       	mov    0x13588,%eax
    4075:	85 c0                	test   %eax,%eax
    4077:	0f 84 93 fe ff ff    	je     3f10 <hound_connection_handler+0x260>
    407d:	8b 50 04             	mov    0x4(%eax),%edx
    4080:	85 d2                	test   %edx,%edx
    4082:	0f 84 88 fe ff ff    	je     3f10 <hound_connection_handler+0x260>
    4088:	51                   	push   %ecx
    4089:	51                   	push   %ecx
    408a:	8b 5d a4             	mov    -0x5c(%ebp),%ebx
    408d:	8b 70 2c             	mov    0x2c(%eax),%esi
    4090:	53                   	push   %ebx
    4091:	56                   	push   %esi
    4092:	ff d2                	call   *%edx
    4094:	5a                   	pop    %edx
    4095:	59                   	pop    %ecx
    4096:	50                   	push   %eax
    4097:	57                   	push   %edi
    4098:	e8 93 53 00 00       	call   9430 <async_answer_0@plt>
    409d:	83 c4 10             	add    $0x10,%esp
    40a0:	e9 33 fc ff ff       	jmp    3cd8 <hound_connection_handler+0x28>
    40a5:	8d 76 00             	lea    0x0(%esi),%esi
    40a8:	53                   	push   %ebx
    40a9:	53                   	push   %ebx
    40aa:	6a f2                	push   $0xfffffff2
    40ac:	57                   	push   %edi
    40ad:	e8 7e 53 00 00       	call   9430 <async_answer_0@plt>
    40b2:	83 c4 10             	add    $0x10,%esp
    40b5:	e9 1e fc ff ff       	jmp    3cd8 <hound_connection_handler+0x28>
    40ba:	8d b6 00 00 00 00    	lea    0x0(%esi),%esi
    40c0:	a1 88 35 01 00       	mov    0x13588,%eax
    40c5:	85 c0                	test   %eax,%eax
    40c7:	0f 84 43 fe ff ff    	je     3f10 <hound_connection_handler+0x260>
    40cd:	8b 00                	mov    (%eax),%eax
    40cf:	85 c0                	test   %eax,%eax
    40d1:	0f 84 39 fe ff ff    	je     3f10 <hound_connection_handler+0x260>
    40d7:	50                   	push   %eax
    40d8:	50                   	push   %eax
    40d9:	8d 45 94             	lea    -0x6c(%ebp),%eax
    40dc:	6a 00                	push   $0x0
    40de:	8b 5d a4             	mov    -0x5c(%ebp),%ebx
    40e1:	6a 00                	push   $0x0
    40e3:	6a 00                	push   $0x0
    40e5:	6a 00                	push   $0x0
    40e7:	6a 01                	push   $0x1
    40e9:	50                   	push   %eax
    40ea:	e8 11 56 00 00       	call   9700 <async_data_write_accept@plt>
    40ef:	83 c4 20             	add    $0x20,%esp
    40f2:	85 c0                	test   %eax,%eax
    40f4:	74 2a                	je     4120 <hound_connection_handler+0x470>
    40f6:	56                   	push   %esi
    40f7:	56                   	push   %esi
    40f8:	50                   	push   %eax
    40f9:	57                   	push   %edi
    40fa:	e8 31 53 00 00       	call   9430 <async_answer_0@plt>
    40ff:	83 c4 10             	add    $0x10,%esp
    4102:	e9 d1 fb ff ff       	jmp    3cd8 <hound_connection_handler+0x28>
    4107:	90                   	nop
    4108:	51                   	push   %ecx
    4109:	51                   	push   %ecx
    410a:	6a f5                	push   $0xfffffff5
    410c:	57                   	push   %edi
    410d:	e8 1e 53 00 00       	call   9430 <async_answer_0@plt>
    4112:	83 c4 10             	add    $0x10,%esp
    4115:	8d 65 f4             	lea    -0xc(%ebp),%esp
    4118:	5b                   	pop    %ebx
    4119:	5e                   	pop    %esi
    411a:	5f                   	pop    %edi
    411b:	5d                   	pop    %ebp
    411c:	c3                   	ret    
    411d:	8d 76 00             	lea    0x0(%esi),%esi
    4120:	31 d2                	xor    %edx,%edx
    4122:	85 db                	test   %ebx,%ebx
    4124:	0f 95 c2             	setne  %dl
    4127:	52                   	push   %edx
    4128:	a1 88 35 01 00       	mov    0x13588,%eax
    412d:	8b 55 94             	mov    -0x6c(%ebp),%edx
    4130:	8d 4d c4             	lea    -0x3c(%ebp),%ecx
    4133:	52                   	push   %edx
    4134:	51                   	push   %ecx
    4135:	8b 48 2c             	mov    0x2c(%eax),%ecx
    4138:	c7 45 c4 00 00 00 00 	movl   $0x0,-0x3c(%ebp)
    413f:	51                   	push   %ecx
    4140:	ff 10                	call   *(%eax)
    4142:	89 c3                	mov    %eax,%ebx
    4144:	8b 45 94             	mov    -0x6c(%ebp),%eax
    4147:	5e                   	pop    %esi
    4148:	50                   	push   %eax
    4149:	e8 02 56 00 00       	call   9750 <free@plt>
    414e:	83 c4 10             	add    $0x10,%esp
    4151:	85 db                	test   %ebx,%ebx
    4153:	0f 84 c7 00 00 00    	je     4220 <hound_connection_handler+0x570>
    4159:	50                   	push   %eax
    415a:	50                   	push   %eax
    415b:	53                   	push   %ebx
    415c:	57                   	push   %edi
    415d:	e8 ce 52 00 00       	call   9430 <async_answer_0@plt>
    4162:	83 c4 10             	add    $0x10,%esp
    4165:	e9 6e fb ff ff       	jmp    3cd8 <hound_connection_handler+0x28>
    416a:	8d b6 00 00 00 00    	lea    0x0(%esi),%esi
    4170:	8d 45 c4             	lea    -0x3c(%ebp),%eax
    4173:	51                   	push   %ecx
    4174:	51                   	push   %ecx
    4175:	6a 00                	push   $0x0
    4177:	6a 00                	push   $0x0
    4179:	6a 00                	push   $0x0
    417b:	6a 00                	push   $0x0
    417d:	6a 01                	push   $0x1
    417f:	50                   	push   %eax
    4180:	e8 7b 55 00 00       	call   9700 <async_data_write_accept@plt>
    4185:	83 c4 20             	add    $0x20,%esp
    4188:	85 c0                	test   %eax,%eax
    418a:	0f 85 3e fd ff ff    	jne    3ece <hound_connection_handler+0x21e>
    4190:	a1 88 35 01 00       	mov    0x13588,%eax
    4195:	8b 5d c4             	mov    -0x3c(%ebp),%ebx
    4198:	8b 75 94             	mov    -0x6c(%ebp),%esi
    419b:	51                   	push   %ecx
    419c:	53                   	push   %ebx
    419d:	56                   	push   %esi
    419e:	8b 50 2c             	mov    0x2c(%eax),%edx
    41a1:	52                   	push   %edx
    41a2:	ff 50 10             	call   *0x10(%eax)
    41a5:	83 c4 10             	add    $0x10,%esp
    41a8:	e9 21 fd ff ff       	jmp    3ece <hound_connection_handler+0x21e>
    41ad:	8d 76 00             	lea    0x0(%esi),%esi
    41b0:	8d 75 90             	lea    -0x70(%ebp),%esi
    41b3:	89 55 84             	mov    %edx,-0x7c(%ebp)
    41b6:	51                   	push   %ecx
    41b7:	51                   	push   %ecx
    41b8:	6a 00                	push   $0x0
    41ba:	6a 00                	push   $0x0
    41bc:	6a 00                	push   $0x0
    41be:	6a 00                	push   $0x0
    41c0:	6a 01                	push   $0x1
    41c2:	56                   	push   %esi
    41c3:	e8 38 55 00 00       	call   9700 <async_data_write_accept@plt>
    41c8:	83 c4 20             	add    $0x20,%esp
    41cb:	89 c3                	mov    %eax,%ebx
    41cd:	85 c0                	test   %eax,%eax
    41cf:	8b 55 84             	mov    -0x7c(%ebp),%edx
    41d2:	0f 85 9c fd ff ff    	jne    3f74 <hound_connection_handler+0x2c4>
    41d8:	a1 88 35 01 00       	mov    0x13588,%eax
    41dd:	8b 5d 90             	mov    -0x70(%ebp),%ebx
    41e0:	8b 48 0c             	mov    0xc(%eax),%ecx
    41e3:	e9 74 fd ff ff       	jmp    3f5c <hound_connection_handler+0x2ac>
    41e8:	50                   	push   %eax
    41e9:	50                   	push   %eax
    41ea:	6a 04                	push   $0x4
    41ec:	52                   	push   %edx
    41ed:	e8 be 52 00 00       	call   94b0 <calloc@plt>
    41f2:	8b 55 8c             	mov    -0x74(%ebp),%edx
    41f5:	83 c4 10             	add    $0x10,%esp
    41f8:	89 c6                	mov    %eax,%esi
    41fa:	85 d2                	test   %edx,%edx
    41fc:	0f 84 8e fd ff ff    	je     3f90 <hound_connection_handler+0x2e0>
    4202:	85 c0                	test   %eax,%eax
    4204:	0f 85 86 fd ff ff    	jne    3f90 <hound_connection_handler+0x2e0>
    420a:	50                   	push   %eax
    420b:	52                   	push   %edx
    420c:	6a fe                	push   $0xfffffffe
    420e:	57                   	push   %edi
    420f:	e8 6c 54 00 00       	call   9680 <async_answer_1@plt>
    4214:	83 c4 10             	add    $0x10,%esp
    4217:	e9 bc fa ff ff       	jmp    3cd8 <hound_connection_handler+0x28>
    421c:	8d 74 26 00          	lea    0x0(%esi,%eiz,1),%esi
    4220:	8b 75 c4             	mov    -0x3c(%ebp),%esi
    4223:	53                   	push   %ebx
    4224:	56                   	push   %esi
    4225:	6a 00                	push   $0x0
    4227:	57                   	push   %edi
    4228:	e8 53 54 00 00       	call   9680 <async_answer_1@plt>
    422d:	83 c4 10             	add    $0x10,%esp
    4230:	e9 a3 fa ff ff       	jmp    3cd8 <hound_connection_handler+0x28>
    4235:	8d 76 00             	lea    0x0(%esi),%esi
    4238:	8b 40 24             	mov    0x24(%eax),%eax
    423b:	85 c0                	test   %eax,%eax
    423d:	0f 84 cd fc ff ff    	je     3f10 <hound_connection_handler+0x260>
    4243:	50                   	push   %eax
    4244:	50                   	push   %eax
    4245:	6a 00                	push   $0x0
    4247:	57                   	push   %edi
    4248:	e8 e3 51 00 00       	call   9430 <async_answer_0@plt>
    424d:	8b 45 88             	mov    -0x78(%ebp),%eax
    4250:	89 45 80             	mov    %eax,-0x80(%ebp)
    4253:	c7 45 90 00 00 00 00 	movl   $0x0,-0x70(%ebp)
    425a:	83 c4 10             	add    $0x10,%esp
    425d:	8d 75 90             	lea    -0x70(%ebp),%esi
    4260:	8d 5d 8c             	lea    -0x74(%ebp),%ebx
    4263:	90                   	nop
    4264:	8d 74 26 00          	lea    0x0(%esi,%eiz,1),%esi
    4268:	8d 45 c4             	lea    -0x3c(%ebp),%eax
    426b:	57                   	push   %edi
    426c:	56                   	push   %esi
    426d:	50                   	push   %eax
    426e:	53                   	push   %ebx
    426f:	e8 6c 52 00 00       	call   94e0 <async_data_write_receive_call@plt>
    4274:	83 c4 10             	add    $0x10,%esp
    4277:	84 c0                	test   %al,%al
    4279:	0f 84 91 00 00 00    	je     4310 <hound_connection_handler+0x660>
    427f:	81 7d c4 07 04 00 00 	cmpl   $0x407,-0x3c(%ebp)
    4286:	74 58                	je     42e0 <hound_connection_handler+0x630>
    4288:	8b 45 84             	mov    -0x7c(%ebp),%eax
    428b:	85 c0                	test   %eax,%eax
    428d:	75 6d                	jne    42fc <hound_connection_handler+0x64c>
    428f:	83 ec 0c             	sub    $0xc,%esp
    4292:	8b 45 90             	mov    -0x70(%ebp),%eax
    4295:	50                   	push   %eax
    4296:	e8 35 51 00 00       	call   93d0 <malloc@plt>
    429b:	83 c4 10             	add    $0x10,%esp
    429e:	89 c7                	mov    %eax,%edi
    42a0:	85 c0                	test   %eax,%eax
    42a2:	0f 84 40 01 00 00    	je     43e8 <hound_connection_handler+0x738>
    42a8:	8b 55 8c             	mov    -0x74(%ebp),%edx
    42ab:	50                   	push   %eax
    42ac:	8b 45 90             	mov    -0x70(%ebp),%eax
    42af:	50                   	push   %eax
    42b0:	57                   	push   %edi
    42b1:	52                   	push   %edx
    42b2:	e8 39 54 00 00       	call   96f0 <async_data_write_finalize@plt>
    42b7:	83 c4 10             	add    $0x10,%esp
    42ba:	85 c0                	test   %eax,%eax
    42bc:	0f 84 f6 00 00 00    	je     43b8 <hound_connection_handler+0x708>
    42c2:	50                   	push   %eax
    42c3:	8d 45 c4             	lea    -0x3c(%ebp),%eax
    42c6:	56                   	push   %esi
    42c7:	50                   	push   %eax
    42c8:	53                   	push   %ebx
    42c9:	e8 12 52 00 00       	call   94e0 <async_data_write_receive_call@plt>
    42ce:	83 c4 10             	add    $0x10,%esp
    42d1:	84 c0                	test   %al,%al
    42d3:	74 3b                	je     4310 <hound_connection_handler+0x660>
    42d5:	81 7d c4 07 04 00 00 	cmpl   $0x407,-0x3c(%ebp)
    42dc:	75 b1                	jne    428f <hound_connection_handler+0x5df>
    42de:	66 90                	xchg   %ax,%ax
    42e0:	a1 88 35 01 00       	mov    0x13588,%eax
    42e5:	8b 40 20             	mov    0x20(%eax),%eax
    42e8:	85 c0                	test   %eax,%eax
    42ea:	0f 84 e8 00 00 00    	je     43d8 <hound_connection_handler+0x728>
    42f0:	83 ec 0c             	sub    $0xc,%esp
    42f3:	8b 7d 80             	mov    -0x80(%ebp),%edi
    42f6:	57                   	push   %edi
    42f7:	ff d0                	call   *%eax
    42f9:	83 c4 10             	add    $0x10,%esp
    42fc:	8b 4d 8c             	mov    -0x74(%ebp),%ecx
    42ff:	52                   	push   %edx
    4300:	52                   	push   %edx
    4301:	50                   	push   %eax
    4302:	51                   	push   %ecx
    4303:	e8 28 51 00 00       	call   9430 <async_answer_0@plt>
    4308:	83 c4 10             	add    $0x10,%esp
    430b:	e9 58 ff ff ff       	jmp    4268 <hound_connection_handler+0x5b8>
    4310:	8b 45 c4             	mov    -0x3c(%ebp),%eax
    4313:	3d 07 04 00 00       	cmp    $0x407,%eax
    4318:	74 c6                	je     42e0 <hound_connection_handler+0x630>
    431a:	3d 06 04 00 00       	cmp    $0x406,%eax
    431f:	57                   	push   %edi
    4320:	0f 94 c0             	sete   %al
    4323:	25 ff 00 00 00       	and    $0xff,%eax
    4328:	57                   	push   %edi
    4329:	48                   	dec    %eax
    432a:	83 e0 f2             	and    $0xfffffff2,%eax
    432d:	50                   	push   %eax
    432e:	8b 45 8c             	mov    -0x74(%ebp),%eax
    4331:	50                   	push   %eax
    4332:	e8 f9 50 00 00       	call   9430 <async_answer_0@plt>
    4337:	a1 88 35 01 00       	mov    0x13588,%eax
    433c:	8b 5d 88             	mov    -0x78(%ebp),%ebx
    433f:	5a                   	pop    %edx
    4340:	59                   	pop    %ecx
    4341:	53                   	push   %ebx
    4342:	8b 70 2c             	mov    0x2c(%eax),%esi
    4345:	56                   	push   %esi
    4346:	ff 50 1c             	call   *0x1c(%eax)
    4349:	83 c4 10             	add    $0x10,%esp
    434c:	e9 87 f9 ff ff       	jmp    3cd8 <hound_connection_handler+0x28>
    4351:	8d b4 26 00 00 00 00 	lea    0x0(%esi,%eiz,1),%esi
    4358:	8b 45 c4             	mov    -0x3c(%ebp),%eax
    435b:	3d 07 04 00 00       	cmp    $0x407,%eax
    4360:	75 b8                	jne    431a <hound_connection_handler+0x66a>
    4362:	a1 88 35 01 00       	mov    0x13588,%eax
    4367:	8b 40 20             	mov    0x20(%eax),%eax
    436a:	85 c0                	test   %eax,%eax
    436c:	0f 85 fe fa ff ff    	jne    3e70 <hound_connection_handler+0x1c0>
    4372:	b8 f5 ff ff ff       	mov    $0xfffffff5,%eax
    4377:	e9 00 fb ff ff       	jmp    3e7c <hound_connection_handler+0x1cc>
    437c:	8d 74 26 00          	lea    0x0(%esi,%eiz,1),%esi
    4380:	83 ec 0c             	sub    $0xc,%esp
    4383:	8b 4d 88             	mov    -0x78(%ebp),%ecx
    4386:	51                   	push   %ecx
    4387:	e8 c4 53 00 00       	call   9750 <free@plt>
    438c:	83 c4 10             	add    $0x10,%esp
    438f:	e9 44 f9 ff ff       	jmp    3cd8 <hound_connection_handler+0x28>
    4394:	8d 74 26 00          	lea    0x0(%esi,%eiz,1),%esi
    4398:	50                   	push   %eax
    4399:	8b 45 90             	mov    -0x70(%ebp),%eax
    439c:	50                   	push   %eax
    439d:	8b 45 8c             	mov    -0x74(%ebp),%eax
    43a0:	57                   	push   %edi
    43a1:	50                   	push   %eax
    43a2:	e8 f9 4f 00 00       	call   93a0 <async_data_read_finalize@plt>
    43a7:	83 c4 10             	add    $0x10,%esp
    43aa:	89 45 84             	mov    %eax,-0x7c(%ebp)
    43ad:	e9 2e fa ff ff       	jmp    3de0 <hound_connection_handler+0x130>
    43b2:	8d b6 00 00 00 00    	lea    0x0(%esi),%esi
    43b8:	50                   	push   %eax
    43b9:	8b 45 90             	mov    -0x70(%ebp),%eax
    43bc:	50                   	push   %eax
    43bd:	8b 45 80             	mov    -0x80(%ebp),%eax
    43c0:	57                   	push   %edi
    43c1:	50                   	push   %eax
    43c2:	a1 88 35 01 00       	mov    0x13588,%eax
    43c7:	ff 50 24             	call   *0x24(%eax)
    43ca:	83 c4 10             	add    $0x10,%esp
    43cd:	89 45 84             	mov    %eax,-0x7c(%ebp)
    43d0:	e9 93 fe ff ff       	jmp    4268 <hound_connection_handler+0x5b8>
    43d5:	8d 76 00             	lea    0x0(%esi),%esi
    43d8:	b8 f5 ff ff ff       	mov    $0xfffffff5,%eax
    43dd:	e9 1a ff ff ff       	jmp    42fc <hound_connection_handler+0x64c>
    43e2:	8d b6 00 00 00 00    	lea    0x0(%esi),%esi
    43e8:	8b 7d 8c             	mov    -0x74(%ebp),%edi
    43eb:	51                   	push   %ecx
    43ec:	51                   	push   %ecx
    43ed:	6a fe                	push   $0xfffffffe
    43ef:	57                   	push   %edi
    43f0:	e8 3b 50 00 00       	call   9430 <async_answer_0@plt>
    43f5:	83 c4 0c             	add    $0xc,%esp
    43f8:	e9 c6 fe ff ff       	jmp    42c3 <hound_connection_handler+0x613>
    43fd:	8d 76 00             	lea    0x0(%esi),%esi
    4400:	50                   	push   %eax
    4401:	50                   	push   %eax
    4402:	8b 45 8c             	mov    -0x74(%ebp),%eax
    4405:	6a fe                	push   $0xfffffffe
    4407:	50                   	push   %eax
    4408:	e8 23 50 00 00       	call   9430 <async_answer_0@plt>
    440d:	83 c4 0c             	add    $0xc,%esp
    4410:	e9 29 fa ff ff       	jmp    3e3e <hound_connection_handler+0x18e>
    4415:	8d 76 00             	lea    0x0(%esi),%esi
    4418:	52                   	push   %edx
    4419:	52                   	push   %edx
    441a:	6a f5                	push   $0xfffffff5
    441c:	50                   	push   %eax
    441d:	e8 0e 50 00 00       	call   9430 <async_answer_0@plt>
    4422:	83 c4 10             	add    $0x10,%esp
    4425:	8d 65 f4             	lea    -0xc(%ebp),%esp
    4428:	5b                   	pop    %ebx
    4429:	5e                   	pop    %esi
    442a:	5f                   	pop    %edi
    442b:	5d                   	pop    %ebp
    442c:	c3                   	ret    
    442d:	8b 45 8c             	mov    -0x74(%ebp),%eax
    4430:	57                   	push   %edi
    4431:	c1 e0 02             	shl    $0x2,%eax
    4434:	50                   	push   %eax
    4435:	8b 45 94             	mov    -0x6c(%ebp),%eax
    4438:	56                   	push   %esi
    4439:	50                   	push   %eax
    443a:	e8 61 4f 00 00       	call   93a0 <async_data_read_finalize@plt>
    443f:	83 c4 10             	add    $0x10,%esp
    4442:	89 c7                	mov    %eax,%edi
    4444:	e9 9c fb ff ff       	jmp    3fe5 <hound_connection_handler+0x335>
    4449:	8d b4 26 00 00 00 00 	lea    0x0(%esi,%eiz,1),%esi

00004450 <hound_server_register>:
    4450:	55                   	push   %ebp
    4451:	89 e5                	mov    %esp,%ebp
    4453:	53                   	push   %ebx
    4454:	50                   	push   %eax
    4455:	8b 45 08             	mov    0x8(%ebp),%eax
    4458:	8b 5d 0c             	mov    0xc(%ebp),%ebx
    445b:	85 c0                	test   %eax,%eax
    445d:	74 31                	je     4490 <hound_server_register+0x40>
    445f:	85 db                	test   %ebx,%ebx
    4461:	74 2d                	je     4490 <hound_server_register+0x40>
    4463:	83 ec 0c             	sub    $0xc,%esp
    4466:	50                   	push   %eax
    4467:	e8 c4 51 00 00       	call   9630 <loc_server_register@plt>
    446c:	83 c4 10             	add    $0x10,%esp
    446f:	85 c0                	test   %eax,%eax
    4471:	74 05                	je     4478 <hound_server_register+0x28>
    4473:	8b 5d fc             	mov    -0x4(%ebp),%ebx
    4476:	c9                   	leave  
    4477:	c3                   	ret    
    4478:	89 5d 0c             	mov    %ebx,0xc(%ebp)
    447b:	a1 28 b4 00 00       	mov    0xb428,%eax
    4480:	8b 5d fc             	mov    -0x4(%ebp),%ebx
    4483:	89 45 08             	mov    %eax,0x8(%ebp)
    4486:	c9                   	leave  
    4487:	e9 04 4f 00 00       	jmp    9390 <loc_service_register@plt>
    448c:	8d 74 26 00          	lea    0x0(%esi,%eiz,1),%esi
    4490:	b8 f2 ff ff ff       	mov    $0xfffffff2,%eax
    4495:	eb dc                	jmp    4473 <hound_server_register+0x23>
    4497:	89 f6                	mov    %esi,%esi
    4499:	8d bc 27 00 00 00 00 	lea    0x0(%edi,%eiz,1),%edi

000044a0 <hound_server_unregister>:
    44a0:	55                   	push   %ebp
    44a1:	89 e5                	mov    %esp,%ebp
    44a3:	5d                   	pop    %ebp
    44a4:	e9 77 50 00 00       	jmp    9520 <loc_service_unregister@plt>
    44a9:	8d b4 26 00 00 00 00 	lea    0x0(%esi,%eiz,1),%esi

000044b0 <hound_server_set_device_change_callback>:
    44b0:	55                   	push   %ebp
    44b1:	89 e5                	mov    %esp,%ebp
    44b3:	5d                   	pop    %ebp
    44b4:	e9 17 50 00 00       	jmp    94d0 <loc_register_cat_change_cb@plt>
    44b9:	8d b4 26 00 00 00 00 	lea    0x0(%esi,%eiz,1),%esi

000044c0 <hound_server_devices_iterate>:
    44c0:	55                   	push   %ebp
    44c1:	89 e5                	mov    %esp,%ebp
    44c3:	57                   	push   %edi
    44c4:	56                   	push   %esi
    44c5:	53                   	push   %ebx
    44c6:	83 ec 1c             	sub    $0x1c,%esp
    44c9:	8b 7d 08             	mov    0x8(%ebp),%edi
    44cc:	85 ff                	test   %edi,%edi
    44ce:	0f 84 bd 00 00 00    	je     4591 <hound_server_devices_iterate+0xd1>
    44d4:	80 3d 84 35 01 00 00 	cmpb   $0x0,0x13584
    44db:	75 24                	jne    4501 <hound_server_devices_iterate+0x41>
    44dd:	56                   	push   %esi
    44de:	6a 01                	push   $0x1
    44e0:	68 80 35 01 00       	push   $0x13580
    44e5:	68 e4 7b 00 00       	push   $0x7be4
    44ea:	e8 11 4e 00 00       	call   9300 <loc_category_get_id@plt>
    44ef:	83 c4 10             	add    $0x10,%esp
    44f2:	85 c0                	test   %eax,%eax
    44f4:	0f 85 8f 00 00 00    	jne    4589 <hound_server_devices_iterate+0xc9>
    44fa:	c6 05 84 35 01 00 01 	movb   $0x1,0x13584
    4501:	8d 45 e0             	lea    -0x20(%ebp),%eax
    4504:	8b 1d 80 35 01 00    	mov    0x13580,%ebx
    450a:	51                   	push   %ecx
    450b:	50                   	push   %eax
    450c:	8d 45 dc             	lea    -0x24(%ebp),%eax
    450f:	c7 45 dc 00 00 00 00 	movl   $0x0,-0x24(%ebp)
    4516:	50                   	push   %eax
    4517:	c7 45 e0 00 00 00 00 	movl   $0x0,-0x20(%ebp)
    451e:	53                   	push   %ebx
    451f:	e8 1c 51 00 00       	call   9640 <loc_category_get_svcs@plt>
    4524:	83 c4 10             	add    $0x10,%esp
    4527:	85 c0                	test   %eax,%eax
    4529:	75 5e                	jne    4589 <hound_server_devices_iterate+0xc9>
    452b:	8b 55 e0             	mov    -0x20(%ebp),%edx
    452e:	31 db                	xor    %ebx,%ebx
    4530:	8d 7d e4             	lea    -0x1c(%ebp),%edi
    4533:	85 d2                	test   %edx,%edx
    4535:	74 41                	je     4578 <hound_server_devices_iterate+0xb8>
    4537:	90                   	nop
    4538:	8d 34 9d 00 00 00 00 	lea    0x0(,%ebx,4),%esi
    453f:	50                   	push   %eax
    4540:	50                   	push   %eax
    4541:	8b 45 dc             	mov    -0x24(%ebp),%eax
    4544:	57                   	push   %edi
    4545:	c7 45 e4 00 00 00 00 	movl   $0x0,-0x1c(%ebp)
    454c:	8b 14 30             	mov    (%eax,%esi,1),%edx
    454f:	43                   	inc    %ebx
    4550:	52                   	push   %edx
    4551:	e8 3a 4f 00 00       	call   9490 <loc_service_get_name@plt>
    4556:	59                   	pop    %ecx
    4557:	58                   	pop    %eax
    4558:	8b 45 e4             	mov    -0x1c(%ebp),%eax
    455b:	50                   	push   %eax
    455c:	8b 45 dc             	mov    -0x24(%ebp),%eax
    455f:	8b 04 30             	mov    (%eax,%esi,1),%eax
    4562:	50                   	push   %eax
    4563:	ff 55 08             	call   *0x8(%ebp)
    4566:	58                   	pop    %eax
    4567:	8b 45 e4             	mov    -0x1c(%ebp),%eax
    456a:	50                   	push   %eax
    456b:	e8 e0 51 00 00       	call   9750 <free@plt>
    4570:	83 c4 10             	add    $0x10,%esp
    4573:	39 5d e0             	cmp    %ebx,-0x20(%ebp)
    4576:	77 c0                	ja     4538 <hound_server_devices_iterate+0x78>
    4578:	83 ec 0c             	sub    $0xc,%esp
    457b:	8b 45 dc             	mov    -0x24(%ebp),%eax
    457e:	50                   	push   %eax
    457f:	e8 cc 51 00 00       	call   9750 <free@plt>
    4584:	83 c4 10             	add    $0x10,%esp
    4587:	31 c0                	xor    %eax,%eax
    4589:	8d 65 f4             	lea    -0xc(%ebp),%esp
    458c:	5b                   	pop    %ebx
    458d:	5e                   	pop    %esi
    458e:	5f                   	pop    %edi
    458f:	5d                   	pop    %ebp
    4590:	c3                   	ret    
    4591:	b8 f2 ff ff ff       	mov    $0xfffffff2,%eax
    4596:	eb f1                	jmp    4589 <hound_server_devices_iterate+0xc9>
    4598:	66 90                	xchg   %ax,%ax
    459a:	66 90                	xchg   %ax,%ax
    459c:	66 90                	xchg   %ax,%ax
    459e:	66 90                	xchg   %ax,%ax

000045a0 <remote_audio_pcm_stop_capture>:
    45a0:	55                   	push   %ebp
    45a1:	89 e5                	mov    %esp,%ebp
    45a3:	53                   	push   %ebx
    45a4:	50                   	push   %eax
    45a5:	8b 45 14             	mov    0x14(%ebp),%eax
    45a8:	8b 4d 08             	mov    0x8(%ebp),%ecx
    45ab:	8b 5d 10             	mov    0x10(%ebp),%ebx
    45ae:	8b 50 08             	mov    0x8(%eax),%edx
    45b1:	85 d2                	test   %edx,%edx
    45b3:	8b 55 0c             	mov    0xc(%ebp),%edx
    45b6:	0f 95 c0             	setne  %al
    45b9:	8b 52 2c             	mov    0x2c(%edx),%edx
    45bc:	85 d2                	test   %edx,%edx
    45be:	74 20                	je     45e0 <remote_audio_pcm_stop_capture+0x40>
    45c0:	83 ec 08             	sub    $0x8,%esp
    45c3:	25 ff 00 00 00       	and    $0xff,%eax
    45c8:	50                   	push   %eax
    45c9:	51                   	push   %ecx
    45ca:	ff d2                	call   *%edx
    45cc:	89 5d 08             	mov    %ebx,0x8(%ebp)
    45cf:	83 c4 10             	add    $0x10,%esp
    45d2:	8b 5d fc             	mov    -0x4(%ebp),%ebx
    45d5:	89 45 0c             	mov    %eax,0xc(%ebp)
    45d8:	c9                   	leave  
    45d9:	e9 52 4e 00 00       	jmp    9430 <async_answer_0@plt>
    45de:	66 90                	xchg   %ax,%ax
    45e0:	89 5d 08             	mov    %ebx,0x8(%ebp)
    45e3:	b8 f5 ff ff ff       	mov    $0xfffffff5,%eax
    45e8:	8b 5d fc             	mov    -0x4(%ebp),%ebx
    45eb:	89 45 0c             	mov    %eax,0xc(%ebp)
    45ee:	c9                   	leave  
    45ef:	e9 3c 4e 00 00       	jmp    9430 <async_answer_0@plt>
    45f4:	8d b6 00 00 00 00    	lea    0x0(%esi),%esi
    45fa:	8d bf 00 00 00 00    	lea    0x0(%edi),%edi

00004600 <remote_audio_pcm_start_capture>:
    4600:	55                   	push   %ebp
    4601:	89 e5                	mov    %esp,%ebp
    4603:	57                   	push   %edi
    4604:	56                   	push   %esi
    4605:	53                   	push   %ebx
    4606:	83 ec 0c             	sub    $0xc,%esp
    4609:	8b 55 14             	mov    0x14(%ebp),%edx
    460c:	8b 7d 0c             	mov    0xc(%ebp),%edi
    460f:	8b 4d 08             	mov    0x8(%ebp),%ecx
    4612:	8b 5d 10             	mov    0x10(%ebp),%ebx
    4615:	8b 42 10             	mov    0x10(%edx),%eax
    4618:	8b 7f 28             	mov    0x28(%edi),%edi
    461b:	89 c6                	mov    %eax,%esi
    461d:	25 ff ff 00 00       	and    $0xffff,%eax
    4622:	c1 ee 10             	shr    $0x10,%esi
    4625:	85 ff                	test   %edi,%edi
    4627:	74 27                	je     4650 <remote_audio_pcm_start_capture+0x50>
    4629:	83 ec 0c             	sub    $0xc,%esp
    462c:	50                   	push   %eax
    462d:	8b 42 0c             	mov    0xc(%edx),%eax
    4630:	50                   	push   %eax
    4631:	56                   	push   %esi
    4632:	8b 52 08             	mov    0x8(%edx),%edx
    4635:	52                   	push   %edx
    4636:	51                   	push   %ecx
    4637:	ff d7                	call   *%edi
    4639:	83 c4 20             	add    $0x20,%esp
    463c:	89 5d 08             	mov    %ebx,0x8(%ebp)
    463f:	89 45 0c             	mov    %eax,0xc(%ebp)
    4642:	8d 65 f4             	lea    -0xc(%ebp),%esp
    4645:	5b                   	pop    %ebx
    4646:	5e                   	pop    %esi
    4647:	5f                   	pop    %edi
    4648:	5d                   	pop    %ebp
    4649:	e9 e2 4d 00 00       	jmp    9430 <async_answer_0@plt>
    464e:	66 90                	xchg   %ax,%ax
    4650:	b8 f5 ff ff ff       	mov    $0xfffffff5,%eax
    4655:	eb e5                	jmp    463c <remote_audio_pcm_start_capture+0x3c>
    4657:	89 f6                	mov    %esi,%esi
    4659:	8d bc 27 00 00 00 00 	lea    0x0(%edi,%eiz,1),%edi

00004660 <remote_audio_pcm_stop_playback>:
    4660:	55                   	push   %ebp
    4661:	89 e5                	mov    %esp,%ebp
    4663:	53                   	push   %ebx
    4664:	50                   	push   %eax
    4665:	8b 45 14             	mov    0x14(%ebp),%eax
    4668:	8b 4d 08             	mov    0x8(%ebp),%ecx
    466b:	8b 5d 10             	mov    0x10(%ebp),%ebx
    466e:	8b 50 08             	mov    0x8(%eax),%edx
    4671:	85 d2                	test   %edx,%edx
    4673:	8b 55 0c             	mov    0xc(%ebp),%edx
    4676:	0f 95 c0             	setne  %al
    4679:	8b 52 24             	mov    0x24(%edx),%edx
    467c:	85 d2                	test   %edx,%edx
    467e:	74 20                	je     46a0 <remote_audio_pcm_stop_playback+0x40>
    4680:	83 ec 08             	sub    $0x8,%esp
    4683:	25 ff 00 00 00       	and    $0xff,%eax
    4688:	50                   	push   %eax
    4689:	51                   	push   %ecx
    468a:	ff d2                	call   *%edx
    468c:	89 5d 08             	mov    %ebx,0x8(%ebp)
    468f:	83 c4 10             	add    $0x10,%esp
    4692:	8b 5d fc             	mov    -0x4(%ebp),%ebx
    4695:	89 45 0c             	mov    %eax,0xc(%ebp)
    4698:	c9                   	leave  
    4699:	e9 92 4d 00 00       	jmp    9430 <async_answer_0@plt>
    469e:	66 90                	xchg   %ax,%ax
    46a0:	89 5d 08             	mov    %ebx,0x8(%ebp)
    46a3:	b8 f5 ff ff ff       	mov    $0xfffffff5,%eax
    46a8:	8b 5d fc             	mov    -0x4(%ebp),%ebx
    46ab:	89 45 0c             	mov    %eax,0xc(%ebp)
    46ae:	c9                   	leave  
    46af:	e9 7c 4d 00 00       	jmp    9430 <async_answer_0@plt>
    46b4:	8d b6 00 00 00 00    	lea    0x0(%esi),%esi
    46ba:	8d bf 00 00 00 00    	lea    0x0(%edi),%edi

000046c0 <remote_audio_pcm_start_playback>:
    46c0:	55                   	push   %ebp
    46c1:	89 e5                	mov    %esp,%ebp
    46c3:	57                   	push   %edi
    46c4:	56                   	push   %esi
    46c5:	53                   	push   %ebx
    46c6:	83 ec 0c             	sub    $0xc,%esp
    46c9:	8b 4d 14             	mov    0x14(%ebp),%ecx
    46cc:	8b 7d 0c             	mov    0xc(%ebp),%edi
    46cf:	8b 75 08             	mov    0x8(%ebp),%esi
    46d2:	8b 5d 10             	mov    0x10(%ebp),%ebx
    46d5:	8b 41 10             	mov    0x10(%ecx),%eax
    46d8:	8b 7f 20             	mov    0x20(%edi),%edi
    46db:	89 c2                	mov    %eax,%edx
    46dd:	25 ff ff 00 00       	and    $0xffff,%eax
    46e2:	c1 ea 10             	shr    $0x10,%edx
    46e5:	81 e2 ff 00 00 00    	and    $0xff,%edx
    46eb:	85 ff                	test   %edi,%edi
    46ed:	74 29                	je     4718 <remote_audio_pcm_start_playback+0x58>
    46ef:	83 ec 0c             	sub    $0xc,%esp
    46f2:	50                   	push   %eax
    46f3:	8b 41 0c             	mov    0xc(%ecx),%eax
    46f6:	50                   	push   %eax
    46f7:	52                   	push   %edx
    46f8:	8b 51 08             	mov    0x8(%ecx),%edx
    46fb:	52                   	push   %edx
    46fc:	56                   	push   %esi
    46fd:	ff d7                	call   *%edi
    46ff:	83 c4 20             	add    $0x20,%esp
    4702:	89 5d 08             	mov    %ebx,0x8(%ebp)
    4705:	89 45 0c             	mov    %eax,0xc(%ebp)
    4708:	8d 65 f4             	lea    -0xc(%ebp),%esp
    470b:	5b                   	pop    %ebx
    470c:	5e                   	pop    %esi
