
vfs:     file format elf32-i386


Disassembly of section .init:

000010b4 <__entry>:
    10b4:	66 8c d0             	mov    %ss,%ax
    10b7:	8e d8                	mov    %eax,%ds
    10b9:	8e c0                	mov    %eax,%es
    10bb:	8e e0                	mov    %eax,%fs
    10bd:	b8 01 00 00 00       	mov    $0x1,%eax
    10c2:	0f a2                	cpuid  
    10c4:	0f ba e2 0b          	bt     $0xb,%edx
    10c8:	73 0c                	jae    10d6 <__entry+0x22>
    10ca:	8d 05 98 b1 02 00    	lea    0x2b198,%eax
    10d0:	c7 00 5d 24 02 00    	movl   $0x2245d,(%eax)
    10d6:	6a 00                	push   $0x0
    10d8:	6a 00                	push   $0x0
    10da:	89 e5                	mov    %esp,%ebp
    10dc:	57                   	push   %edi
    10dd:	e8 8e 47 00 00       	call   5870 <__main>

Disassembly of section .text:

00001100 <vfs_connection>:
    1100:	55                   	push   %ebp
    1101:	89 e5                	mov    %esp,%ebp
    1103:	53                   	push   %ebx
    1104:	83 ec 3c             	sub    $0x3c,%esp
    1107:	8b 45 08             	mov    0x8(%ebp),%eax
    110a:	8d 5d d4             	lea    -0x2c(%ebp),%ebx
    110d:	6a 00                	push   $0x0
    110f:	50                   	push   %eax
    1110:	e8 cb 85 01 00       	call   196e0 <async_answer_0>
    1115:	83 c4 10             	add    $0x10,%esp
    1118:	50                   	push   %eax
    1119:	50                   	push   %eax
    111a:	6a 00                	push   $0x0
    111c:	53                   	push   %ebx
    111d:	e8 3e 6d 01 00       	call   17e60 <async_get_call_timeout>
    1122:	8b 55 d4             	mov    -0x2c(%ebp),%edx
    1125:	83 c4 10             	add    $0x10,%esp
    1128:	85 d2                	test   %edx,%edx
    112a:	0f 84 1c 01 00 00    	je     124c <vfs_connection+0x14c>
    1130:	81 ea 00 04 00 00    	sub    $0x400,%edx
    1136:	83 fa 13             	cmp    $0x13,%edx
    1139:	0f 87 a9 01 00 00    	ja     12e8 <vfs_connection+0x1e8>
    113f:	ff 24 95 d8 75 02 00 	jmp    *0x275d8(,%edx,4)
    1146:	66 90                	xchg   %ax,%ax
    1148:	51                   	push   %ecx
    1149:	51                   	push   %ecx
    114a:	53                   	push   %ebx
    114b:	50                   	push   %eax
    114c:	e8 0f 3c 00 00       	call   4d60 <vfs_statfs>
    1151:	83 c4 10             	add    $0x10,%esp
    1154:	eb c2                	jmp    1118 <vfs_connection+0x18>
    1156:	66 90                	xchg   %ax,%ax
    1158:	51                   	push   %ecx
    1159:	51                   	push   %ecx
    115a:	53                   	push   %ebx
    115b:	50                   	push   %eax
    115c:	e8 3f 3a 00 00       	call   4ba0 <vfs_wait_handle>
    1161:	83 c4 10             	add    $0x10,%esp
    1164:	eb b2                	jmp    1118 <vfs_connection+0x18>
    1166:	66 90                	xchg   %ax,%ax
    1168:	51                   	push   %ecx
    1169:	51                   	push   %ecx
    116a:	53                   	push   %ebx
    116b:	50                   	push   %eax
    116c:	e8 0f 25 00 00       	call   3680 <vfs_sync>
    1171:	83 c4 10             	add    $0x10,%esp
    1174:	eb a2                	jmp    1118 <vfs_connection+0x18>
    1176:	66 90                	xchg   %ax,%ax
    1178:	52                   	push   %edx
    1179:	52                   	push   %edx
    117a:	53                   	push   %ebx
    117b:	50                   	push   %eax
    117c:	e8 5f 39 00 00       	call   4ae0 <vfs_dup>
    1181:	83 c4 10             	add    $0x10,%esp
    1184:	eb 92                	jmp    1118 <vfs_connection+0x18>
    1186:	66 90                	xchg   %ax,%ax
    1188:	51                   	push   %ecx
    1189:	51                   	push   %ecx
    118a:	53                   	push   %ebx
    118b:	50                   	push   %eax
    118c:	e8 ff 32 00 00       	call   4490 <vfs_unlink>
    1191:	83 c4 10             	add    $0x10,%esp
    1194:	eb 82                	jmp    1118 <vfs_connection+0x18>
    1196:	66 90                	xchg   %ax,%ax
    1198:	52                   	push   %edx
    1199:	52                   	push   %edx
    119a:	53                   	push   %ebx
    119b:	50                   	push   %eax
    119c:	e8 1f 3a 00 00       	call   4bc0 <vfs_get_mtab>
    11a1:	83 c4 10             	add    $0x10,%esp
    11a4:	e9 6f ff ff ff       	jmp    1118 <vfs_connection+0x18>
    11a9:	8d b4 26 00 00 00 00 	lea    0x0(%esi,%eiz,1),%esi
    11b0:	52                   	push   %edx
    11b1:	52                   	push   %edx
    11b2:	53                   	push   %ebx
    11b3:	50                   	push   %eax
    11b4:	e8 97 28 00 00       	call   3a50 <vfs_read>
    11b9:	83 c4 10             	add    $0x10,%esp
    11bc:	e9 57 ff ff ff       	jmp    1118 <vfs_connection+0x18>
    11c1:	8d b4 26 00 00 00 00 	lea    0x0(%esi,%eiz,1),%esi
    11c8:	52                   	push   %edx
    11c9:	52                   	push   %edx
    11ca:	53                   	push   %ebx
    11cb:	50                   	push   %eax
    11cc:	e8 7f 21 00 00       	call   3350 <vfs_open>
    11d1:	83 c4 10             	add    $0x10,%esp
    11d4:	e9 3f ff ff ff       	jmp    1118 <vfs_connection+0x18>
    11d9:	8d b4 26 00 00 00 00 	lea    0x0(%esi,%eiz,1),%esi
    11e0:	51                   	push   %ecx
    11e1:	51                   	push   %ecx
    11e2:	53                   	push   %ebx
    11e3:	50                   	push   %eax
    11e4:	e8 e7 1d 00 00       	call   2fd0 <vfs_unmount_srv>
    11e9:	83 c4 10             	add    $0x10,%esp
    11ec:	e9 27 ff ff ff       	jmp    1118 <vfs_connection+0x18>
    11f1:	8d b4 26 00 00 00 00 	lea    0x0(%esi,%eiz,1),%esi
    11f8:	51                   	push   %ecx
    11f9:	51                   	push   %ecx
    11fa:	53                   	push   %ebx
    11fb:	50                   	push   %eax
    11fc:	e8 3f 30 00 00       	call   4240 <vfs_stat>
    1201:	83 c4 10             	add    $0x10,%esp
    1204:	e9 0f ff ff ff       	jmp    1118 <vfs_connection+0x18>
    1209:	8d b4 26 00 00 00 00 	lea    0x0(%esi,%eiz,1),%esi
    1210:	52                   	push   %edx
    1211:	52                   	push   %edx
    1212:	53                   	push   %ebx
    1213:	50                   	push   %eax
    1214:	e8 77 33 00 00       	call   4590 <vfs_rename>
    1219:	83 c4 10             	add    $0x10,%esp
    121c:	e9 f7 fe ff ff       	jmp    1118 <vfs_connection+0x18>
    1221:	8d b4 26 00 00 00 00 	lea    0x0(%esi,%eiz,1),%esi
    1228:	52                   	push   %edx
    1229:	52                   	push   %edx
    122a:	53                   	push   %ebx
    122b:	50                   	push   %eax
    122c:	e8 cf 31 00 00       	call   4400 <vfs_mkdir>
    1231:	83 c4 10             	add    $0x10,%esp
    1234:	e9 df fe ff ff       	jmp    1118 <vfs_connection+0x18>
    1239:	8d b4 26 00 00 00 00 	lea    0x0(%esi,%eiz,1),%esi
    1240:	51                   	push   %ecx
    1241:	51                   	push   %ecx
    1242:	53                   	push   %ebx
    1243:	50                   	push   %eax
    1244:	e8 c7 3f 00 00       	call   5210 <vfs_register>
    1249:	83 c4 10             	add    $0x10,%esp
    124c:	8b 5d fc             	mov    -0x4(%ebp),%ebx
    124f:	c9                   	leave  
    1250:	c3                   	ret    
    1251:	8d b4 26 00 00 00 00 	lea    0x0(%esi,%eiz,1),%esi
    1258:	52                   	push   %edx
    1259:	52                   	push   %edx
    125a:	53                   	push   %ebx
    125b:	50                   	push   %eax
    125c:	e8 5f 15 00 00       	call   27c0 <vfs_mount_srv>
    1261:	83 c4 10             	add    $0x10,%esp
    1264:	e9 af fe ff ff       	jmp    1118 <vfs_connection+0x18>
    1269:	8d b4 26 00 00 00 00 	lea    0x0(%esi,%eiz,1),%esi
    1270:	51                   	push   %ecx
    1271:	51                   	push   %ecx
    1272:	53                   	push   %ebx
    1273:	50                   	push   %eax
    1274:	e8 c7 24 00 00       	call   3740 <vfs_close>
    1279:	83 c4 10             	add    $0x10,%esp
    127c:	e9 97 fe ff ff       	jmp    1118 <vfs_connection+0x18>
    1281:	8d b4 26 00 00 00 00 	lea    0x0(%esi,%eiz,1),%esi
    1288:	52                   	push   %edx
    1289:	52                   	push   %edx
    128a:	53                   	push   %ebx
    128b:	50                   	push   %eax
    128c:	e8 9f 2e 00 00       	call   4130 <vfs_fstat>
    1291:	83 c4 10             	add    $0x10,%esp
    1294:	e9 7f fe ff ff       	jmp    1118 <vfs_connection+0x18>
    1299:	8d b4 26 00 00 00 00 	lea    0x0(%esi,%eiz,1),%esi
    12a0:	51                   	push   %ecx
    12a1:	51                   	push   %ecx
    12a2:	53                   	push   %ebx
    12a3:	50                   	push   %eax
    12a4:	e8 87 2d 00 00       	call   4030 <vfs_truncate>
    12a9:	83 c4 10             	add    $0x10,%esp
    12ac:	e9 67 fe ff ff       	jmp    1118 <vfs_connection+0x18>
    12b1:	8d b4 26 00 00 00 00 	lea    0x0(%esi,%eiz,1),%esi
    12b8:	52                   	push   %edx
    12b9:	52                   	push   %edx
    12ba:	53                   	push   %ebx
    12bb:	50                   	push   %eax
    12bc:	e8 df 2a 00 00       	call   3da0 <vfs_seek>
    12c1:	83 c4 10             	add    $0x10,%esp
    12c4:	e9 4f fe ff ff       	jmp    1118 <vfs_connection+0x18>
    12c9:	8d b4 26 00 00 00 00 	lea    0x0(%esi,%eiz,1),%esi
    12d0:	51                   	push   %ecx
    12d1:	51                   	push   %ecx
    12d2:	53                   	push   %ebx
    12d3:	50                   	push   %eax
    12d4:	e8 d7 28 00 00       	call   3bb0 <vfs_write>
    12d9:	83 c4 10             	add    $0x10,%esp
    12dc:	e9 37 fe ff ff       	jmp    1118 <vfs_connection+0x18>
    12e1:	8d b4 26 00 00 00 00 	lea    0x0(%esi,%eiz,1),%esi
    12e8:	52                   	push   %edx
    12e9:	52                   	push   %edx
    12ea:	6a f5                	push   $0xfffffff5
    12ec:	50                   	push   %eax
    12ed:	e8 ee 83 01 00       	call   196e0 <async_answer_0>
    12f2:	83 c4 10             	add    $0x10,%esp
    12f5:	e9 1e fe ff ff       	jmp    1118 <vfs_connection+0x18>
    12fa:	8d b6 00 00 00 00    	lea    0x0(%esi),%esi

00001300 <vfs_pager>:
    1300:	55                   	push   %ebp
    1301:	89 e5                	mov    %esp,%ebp
    1303:	53                   	push   %ebx
    1304:	83 ec 3c             	sub    $0x3c,%esp
    1307:	8b 45 08             	mov    0x8(%ebp),%eax
    130a:	8d 5d d4             	lea    -0x2c(%ebp),%ebx
    130d:	6a 00                	push   $0x0
    130f:	50                   	push   %eax
    1310:	e8 cb 83 01 00       	call   196e0 <async_answer_0>
    1315:	83 c4 10             	add    $0x10,%esp
    1318:	50                   	push   %eax
    1319:	50                   	push   %eax
    131a:	6a 00                	push   $0x0
    131c:	53                   	push   %ebx
    131d:	e8 3e 6b 01 00       	call   17e60 <async_get_call_timeout>
    1322:	8b 55 d4             	mov    -0x2c(%ebp),%edx
    1325:	83 c4 10             	add    $0x10,%esp
    1328:	85 d2                	test   %edx,%edx
    132a:	74 24                	je     1350 <vfs_pager+0x50>
    132c:	83 fa 05             	cmp    $0x5,%edx
    132f:	75 0f                	jne    1340 <vfs_pager+0x40>
    1331:	51                   	push   %ecx
    1332:	51                   	push   %ecx
    1333:	53                   	push   %ebx
    1334:	50                   	push   %eax
    1335:	e8 86 43 00 00       	call   56c0 <vfs_page_in>
    133a:	83 c4 10             	add    $0x10,%esp
    133d:	eb d9                	jmp    1318 <vfs_pager+0x18>
    133f:	90                   	nop
    1340:	52                   	push   %edx
    1341:	52                   	push   %edx
    1342:	6a f5                	push   $0xfffffff5
    1344:	50                   	push   %eax
    1345:	e8 96 83 01 00       	call   196e0 <async_answer_0>
    134a:	83 c4 10             	add    $0x10,%esp
    134d:	eb c9                	jmp    1318 <vfs_pager+0x18>
    134f:	90                   	nop
    1350:	8b 5d fc             	mov    -0x4(%ebp),%ebx
    1353:	c9                   	leave  
    1354:	c3                   	ret    
    1355:	8d 74 26 00          	lea    0x0(%esi,%eiz,1),%esi
    1359:	8d bc 27 00 00 00 00 	lea    0x0(%edi,%eiz,1),%edi

00001360 <notification_handler>:
    1360:	55                   	push   %ebp
    1361:	89 e5                	mov    %esp,%ebp
    1363:	83 ec 08             	sub    $0x8,%esp
    1366:	8b 45 0c             	mov    0xc(%ebp),%eax
    1369:	8b 50 04             	mov    0x4(%eax),%edx
    136c:	85 d2                	test   %edx,%edx
    136e:	74 08                	je     1378 <notification_handler+0x18>
    1370:	c9                   	leave  
    1371:	c3                   	ret    
    1372:	8d b6 00 00 00 00    	lea    0x0(%esi),%esi
    1378:	83 ec 0c             	sub    $0xc,%esp
    137b:	8b 50 08             	mov    0x8(%eax),%edx
    137e:	52                   	push   %edx
    137f:	8b 48 1c             	mov    0x1c(%eax),%ecx
    1382:	51                   	push   %ecx
    1383:	8b 50 18             	mov    0x18(%eax),%edx
    1386:	52                   	push   %edx
    1387:	8b 48 14             	mov    0x14(%eax),%ecx
    138a:	51                   	push   %ecx
    138b:	8b 40 10             	mov    0x10(%eax),%eax
    138e:	50                   	push   %eax
    138f:	e8 cc 0f 00 00       	call   2360 <vfs_pass_handle>
    1394:	83 c4 20             	add    $0x20,%esp
    1397:	c9                   	leave  
    1398:	c3                   	ret    
    1399:	66 90                	xchg   %ax,%ax
    139b:	66 90                	xchg   %ax,%ax
    139d:	66 90                	xchg   %ax,%ax
    139f:	90                   	nop

000013a0 <main>:
    13a0:	8d 4c 24 04          	lea    0x4(%esp),%ecx
    13a4:	83 e4 f0             	and    $0xfffffff0,%esp
    13a7:	ff 71 fc             	pushl  -0x4(%ecx)
    13aa:	55                   	push   %ebp
    13ab:	89 e5                	mov    %esp,%ebp
    13ad:	53                   	push   %ebx
    13ae:	51                   	push   %ecx
    13af:	83 ec 18             	sub    $0x18,%esp
    13b2:	68 28 76 02 00       	push   $0x27628
    13b7:	68 2c 76 02 00       	push   $0x2762c
    13bc:	e8 af f2 00 00       	call   10670 <printf>
    13c1:	e8 4a 02 00 00       	call   1610 <vfs_nodes_init>
    13c6:	83 c4 10             	add    $0x10,%esp
    13c9:	84 c0                	test   %al,%al
    13cb:	0f 84 0c 01 00 00    	je     14dd <main+0x13d>
    13d1:	6a 00                	push   $0x0
    13d3:	6a 0b                	push   $0xb
    13d5:	68 00 00 02 00       	push   $0x20000
    13da:	6a ff                	push   $0xffffffff
    13dc:	e8 2f 45 00 00       	call   5910 <as_area_create>
    13e1:	83 c4 10             	add    $0x10,%esp
    13e4:	a3 74 b2 02 00       	mov    %eax,0x2b274
    13e9:	83 f8 ff             	cmp    $0xffffffff,%eax
    13ec:	0f 84 09 01 00 00    	je     14fb <main+0x15b>
    13f2:	52                   	push   %edx
    13f3:	68 00 00 02 00       	push   $0x20000
    13f8:	6a 00                	push   $0x0
    13fa:	50                   	push   %eax
    13fb:	e8 d0 45 00 00       	call   59d0 <memset>
    1400:	c7 04 24 d0 1c 00 00 	movl   $0x1cd0,(%esp)
    1407:	e8 f4 63 01 00       	call   17800 <async_set_client_data_constructor>
    140c:	c7 04 24 20 1d 00 00 	movl   $0x1d20,(%esp)
    1413:	e8 28 64 01 00       	call   17840 <async_set_client_data_destructor>
    1418:	8d 45 f4             	lea    -0xc(%ebp),%eax
    141b:	50                   	push   %eax
    141c:	6a 00                	push   $0x0
    141e:	68 00 13 00 00       	push   $0x1300
    1423:	68 00 0f 9f cb       	push   $0xcb9f0f00
    1428:	e8 53 64 01 00       	call   17880 <async_create_port>
    142d:	83 c4 20             	add    $0x20,%esp
    1430:	89 c3                	mov    %eax,%ebx
    1432:	85 c0                	test   %eax,%eax
    1434:	74 0c                	je     1442 <main+0xa2>
    1436:	8d 65 f8             	lea    -0x8(%ebp),%esp
    1439:	89 d8                	mov    %ebx,%eax
    143b:	59                   	pop    %ecx
    143c:	5b                   	pop    %ebx
    143d:	5d                   	pop    %ebp
    143e:	8d 61 fc             	lea    -0x4(%ecx),%esp
    1441:	c3                   	ret    
    1442:	53                   	push   %ebx
    1443:	53                   	push   %ebx
    1444:	6a 00                	push   $0x0
    1446:	68 00 11 00 00       	push   $0x1100
    144b:	e8 50 66 01 00       	call   17aa0 <async_set_fallback_port_handler>
    1450:	83 c4 0c             	add    $0xc,%esp
    1453:	6a 00                	push   $0x0
    1455:	68 60 13 00 00       	push   $0x1360
    145a:	6a 04                	push   $0x4
    145c:	e8 ff 68 01 00       	call   17d60 <async_event_task_subscribe>
    1461:	c7 04 24 76 66 73 20 	movl   $0x20736676,(%esp)
    1468:	e8 c3 51 01 00       	call   16630 <service_register>
    146d:	83 c4 10             	add    $0x10,%esp
    1470:	89 c3                	mov    %eax,%ebx
    1472:	85 c0                	test   %eax,%eax
    1474:	75 31                	jne    14a7 <main+0x107>
    1476:	52                   	push   %edx
    1477:	52                   	push   %edx
    1478:	68 28 76 02 00       	push   $0x27628
    147d:	68 44 76 02 00       	push   $0x27644
    1482:	e8 e9 f1 00 00       	call   10670 <printf>
    1487:	83 c8 ff             	or     $0xffffffff,%eax
    148a:	f0 0f c1 05 6c b1 02 	lock xadd %eax,0x2b16c
    1491:	00 
    1492:	83 c4 10             	add    $0x10,%esp
    1495:	48                   	dec    %eax
    1496:	78 28                	js     14c0 <main+0x120>
    1498:	83 ec 0c             	sub    $0xc,%esp
    149b:	6a 03                	push   $0x3
    149d:	e8 1e 8f 00 00       	call   a3c0 <fibril_switch>
    14a2:	83 c4 10             	add    $0x10,%esp
    14a5:	eb 8f                	jmp    1436 <main+0x96>
    14a7:	51                   	push   %ecx
    14a8:	51                   	push   %ecx
    14a9:	68 28 76 02 00       	push   $0x27628
    14ae:	68 b8 76 02 00       	push   $0x276b8
    14b3:	e8 b8 f1 00 00       	call   10670 <printf>
    14b8:	83 c4 10             	add    $0x10,%esp
    14bb:	e9 76 ff ff ff       	jmp    1436 <main+0x96>
    14c0:	50                   	push   %eax
    14c1:	6a 0b                	push   $0xb
    14c3:	6a 00                	push   $0x0
    14c5:	6a 00                	push   $0x0
    14c7:	6a 00                	push   $0x0
    14c9:	6a 00                	push   $0x0
    14cb:	6a 00                	push   $0x0
    14cd:	68 6c b1 02 00       	push   $0x2b16c
    14d2:	ff 15 98 b1 02 00    	call   *0x2b198
    14d8:	83 c4 20             	add    $0x20,%esp
    14db:	eb bb                	jmp    1498 <main+0xf8>
    14dd:	53                   	push   %ebx
    14de:	53                   	push   %ebx
    14df:	68 28 76 02 00       	push   $0x27628
    14e4:	68 60 76 02 00       	push   $0x27660
    14e9:	bb fe ff ff ff       	mov    $0xfffffffe,%ebx
    14ee:	e8 7d f1 00 00       	call   10670 <printf>
    14f3:	83 c4 10             	add    $0x10,%esp
    14f6:	e9 3b ff ff ff       	jmp    1436 <main+0x96>
    14fb:	51                   	push   %ecx
    14fc:	51                   	push   %ecx
    14fd:	68 28 76 02 00       	push   $0x27628
    1502:	68 90 76 02 00       	push   $0x27690
    1507:	bb fe ff ff ff       	mov    $0xfffffffe,%ebx
    150c:	e8 5f f1 00 00       	call   10670 <printf>
    1511:	83 c4 10             	add    $0x10,%esp
    1514:	e9 1d ff ff ff       	jmp    1436 <main+0x96>
    1519:	66 90                	xchg   %ax,%ax
    151b:	66 90                	xchg   %ax,%ax
    151d:	66 90                	xchg   %ax,%ax
    151f:	90                   	nop

00001520 <refcnt_visitor>:
    1520:	55                   	push   %ebp
    1521:	89 e5                	mov    %esp,%ebp
    1523:	53                   	push   %ebx
    1524:	8b 55 0c             	mov    0xc(%ebp),%edx
    1527:	8b 45 08             	mov    0x8(%ebp),%eax
    152a:	8b 5a 04             	mov    0x4(%edx),%ebx
    152d:	66 39 58 ec          	cmp    %bx,-0x14(%eax)
    1531:	74 05                	je     1538 <refcnt_visitor+0x18>
    1533:	b0 01                	mov    $0x1,%al
    1535:	5b                   	pop    %ebx
    1536:	5d                   	pop    %ebp
    1537:	c3                   	ret    
    1538:	8d 48 ec             	lea    -0x14(%eax),%ecx
    153b:	8b 42 08             	mov    0x8(%edx),%eax
    153e:	39 41 04             	cmp    %eax,0x4(%ecx)
    1541:	75 f0                	jne    1533 <refcnt_visitor+0x13>
    1543:	8b 41 0c             	mov    0xc(%ecx),%eax
    1546:	8b 0a                	mov    (%edx),%ecx
    1548:	01 c1                	add    %eax,%ecx
    154a:	b0 01                	mov    $0x1,%al
    154c:	89 0a                	mov    %ecx,(%edx)
    154e:	5b                   	pop    %ebx
    154f:	5d                   	pop    %ebp
    1550:	c3                   	ret    
    1551:	eb 0d                	jmp    1560 <nodes_key_hash>
    1553:	90                   	nop
    1554:	90                   	nop
    1555:	90                   	nop
    1556:	90                   	nop
    1557:	90                   	nop
    1558:	90                   	nop
    1559:	90                   	nop
    155a:	90                   	nop
    155b:	90                   	nop
    155c:	90                   	nop
    155d:	90                   	nop
    155e:	90                   	nop
    155f:	90                   	nop

00001560 <nodes_key_hash>:
    1560:	55                   	push   %ebp
    1561:	89 e5                	mov    %esp,%ebp
    1563:	53                   	push   %ebx
    1564:	8b 55 08             	mov    0x8(%ebp),%edx
    1567:	0f bf 0a             	movswl (%edx),%ecx
    156a:	89 c8                	mov    %ecx,%eax
    156c:	8b 5a 08             	mov    0x8(%edx),%ebx
    156f:	c1 c0 05             	rol    $0x5,%eax
    1572:	8d 84 03 b9 79 37 9e 	lea    -0x61c88647(%ebx,%eax,1),%eax
    1579:	5b                   	pop    %ebx
    157a:	31 c8                	xor    %ecx,%eax
    157c:	8b 4a 04             	mov    0x4(%edx),%ecx
    157f:	89 c2                	mov    %eax,%edx
    1581:	5d                   	pop    %ebp
    1582:	c1 c2 05             	rol    $0x5,%edx
    1585:	8d 94 11 b9 79 37 9e 	lea    -0x61c88647(%ecx,%edx,1),%edx
    158c:	31 d0                	xor    %edx,%eax
    158e:	c3                   	ret    
    158f:	90                   	nop

00001590 <nodes_hash>:
    1590:	55                   	push   %ebp
    1591:	89 e5                	mov    %esp,%ebp
    1593:	53                   	push   %ebx
    1594:	8b 45 08             	mov    0x8(%ebp),%eax
    1597:	0f bf 48 ec          	movswl -0x14(%eax),%ecx
    159b:	8d 50 ec             	lea    -0x14(%eax),%edx
    159e:	89 c8                	mov    %ecx,%eax
    15a0:	8b 5a 08             	mov    0x8(%edx),%ebx
    15a3:	c1 c0 05             	rol    $0x5,%eax
    15a6:	8d 84 03 b9 79 37 9e 	lea    -0x61c88647(%ebx,%eax,1),%eax
    15ad:	5b                   	pop    %ebx
    15ae:	31 c8                	xor    %ecx,%eax
    15b0:	8b 4a 04             	mov    0x4(%edx),%ecx
    15b3:	89 c2                	mov    %eax,%edx
    15b5:	5d                   	pop    %ebp
    15b6:	c1 c2 05             	rol    $0x5,%edx
    15b9:	8d 94 11 b9 79 37 9e 	lea    -0x61c88647(%ecx,%edx,1),%edx
    15c0:	31 d0                	xor    %edx,%eax
    15c2:	c3                   	ret    
    15c3:	8d b6 00 00 00 00    	lea    0x0(%esi),%esi
    15c9:	8d bc 27 00 00 00 00 	lea    0x0(%edi,%eiz,1),%edi

000015d0 <nodes_key_equal>:
    15d0:	55                   	push   %ebp
    15d1:	31 c0                	xor    %eax,%eax
    15d3:	89 e5                	mov    %esp,%ebp
    15d5:	56                   	push   %esi
    15d6:	53                   	push   %ebx
    15d7:	8b 4d 08             	mov    0x8(%ebp),%ecx
    15da:	8b 55 0c             	mov    0xc(%ebp),%edx
    15dd:	8b 31                	mov    (%ecx),%esi
    15df:	66 39 72 ec          	cmp    %si,-0x14(%edx)
    15e3:	74 0b                	je     15f0 <nodes_key_equal+0x20>
    15e5:	5b                   	pop    %ebx
    15e6:	5e                   	pop    %esi
    15e7:	5d                   	pop    %ebp
    15e8:	c3                   	ret    
    15e9:	8d b4 26 00 00 00 00 	lea    0x0(%esi,%eiz,1),%esi
    15f0:	8b 71 04             	mov    0x4(%ecx),%esi
    15f3:	39 72 f0             	cmp    %esi,-0x10(%edx)
    15f6:	75 ed                	jne    15e5 <nodes_key_equal+0x15>
    15f8:	8b 41 08             	mov    0x8(%ecx),%eax
    15fb:	39 42 f4             	cmp    %eax,-0xc(%edx)
    15fe:	0f 94 c0             	sete   %al
    1601:	eb e2                	jmp    15e5 <nodes_key_equal+0x15>
    1603:	8d b6 00 00 00 00    	lea    0x0(%esi),%esi
    1609:	8d bc 27 00 00 00 00 	lea    0x0(%edi,%eiz,1),%edi

00001610 <vfs_nodes_init>:
    1610:	55                   	push   %ebp
    1611:	89 e5                	mov    %esp,%ebp
    1613:	83 ec 08             	sub    $0x8,%esp
    1616:	68 20 af 02 00       	push   $0x2af20
    161b:	6a 00                	push   $0x0
    161d:	6a 00                	push   $0x0
    161f:	68 40 b2 02 00       	push   $0x2b240
    1624:	e8 e7 af 01 00       	call   1c610 <hash_table_create>
    1629:	c9                   	leave  
    162a:	c3                   	ret    
    162b:	90                   	nop
    162c:	8d 74 26 00          	lea    0x0(%esi,%eiz,1),%esi

00001630 <vfs_node_addref>:
    1630:	55                   	push   %ebp
    1631:	89 e5                	mov    %esp,%ebp
    1633:	53                   	push   %ebx
    1634:	83 ec 10             	sub    $0x10,%esp
    1637:	8b 5d 08             	mov    0x8(%ebp),%ebx
    163a:	68 34 af 02 00       	push   $0x2af34
    163f:	e8 6c 98 00 00       	call   aeb0 <fibril_mutex_lock>
    1644:	8b 43 0c             	mov    0xc(%ebx),%eax
    1647:	83 c4 10             	add    $0x10,%esp
    164a:	40                   	inc    %eax
    164b:	89 43 0c             	mov    %eax,0xc(%ebx)
    164e:	8b 5d fc             	mov    -0x4(%ebp),%ebx
    1651:	c7 45 08 34 af 02 00 	movl   $0x2af34,0x8(%ebp)
    1658:	c9                   	leave  
    1659:	e9 d2 99 00 00       	jmp    b030 <fibril_mutex_unlock>
    165e:	66 90                	xchg   %ax,%ax

00001660 <vfs_node_delref>:
    1660:	55                   	push   %ebp
    1661:	89 e5                	mov    %esp,%ebp
    1663:	56                   	push   %esi
    1664:	53                   	push   %ebx
    1665:	83 ec 0c             	sub    $0xc,%esp
    1668:	8b 5d 08             	mov    0x8(%ebp),%ebx
    166b:	68 34 af 02 00       	push   $0x2af34
    1670:	e8 3b 98 00 00       	call   aeb0 <fibril_mutex_lock>
    1675:	8b 43 0c             	mov    0xc(%ebx),%eax
    1678:	83 c4 10             	add    $0x10,%esp
    167b:	8d 50 ff             	lea    -0x1(%eax),%edx
    167e:	48                   	dec    %eax
    167f:	89 53 0c             	mov    %edx,0xc(%ebx)
    1682:	74 14                	je     1698 <vfs_node_delref+0x38>
    1684:	c7 45 08 34 af 02 00 	movl   $0x2af34,0x8(%ebp)
    168b:	8d 65 f8             	lea    -0x8(%ebp),%esp
    168e:	5b                   	pop    %ebx
    168f:	5e                   	pop    %esi
    1690:	5d                   	pop    %ebp
    1691:	e9 9a 99 00 00       	jmp    b030 <fibril_mutex_unlock>
    1696:	66 90                	xchg   %ax,%ax
    1698:	8d 43 14             	lea    0x14(%ebx),%eax
    169b:	56                   	push   %esi
    169c:	56                   	push   %esi
    169d:	50                   	push   %eax
    169e:	68 40 b2 02 00       	push   $0x2b240
    16a3:	e8 78 b7 01 00       	call   1ce20 <hash_table_remove_item>
    16a8:	8b 43 10             	mov    0x10(%ebx),%eax
    16ab:	83 c4 10             	add    $0x10,%esp
    16ae:	85 c0                	test   %eax,%eax
    16b0:	74 1e                	je     16d0 <vfs_node_delref+0x70>
    16b2:	83 ec 0c             	sub    $0xc,%esp
    16b5:	68 34 af 02 00       	push   $0x2af34
    16ba:	e8 71 99 00 00       	call   b030 <fibril_mutex_unlock>
    16bf:	89 5d 08             	mov    %ebx,0x8(%ebp)
    16c2:	83 c4 10             	add    $0x10,%esp
    16c5:	8d 65 f8             	lea    -0x8(%ebp),%esp
    16c8:	5b                   	pop    %ebx
    16c9:	5e                   	pop    %esi
    16ca:	5d                   	pop    %ebp
    16cb:	e9 70 3f 01 00       	jmp    15640 <free>
    16d0:	83 ec 0c             	sub    $0xc,%esp
    16d3:	68 34 af 02 00       	push   $0x2af34
    16d8:	e8 53 99 00 00       	call   b030 <fibril_mutex_unlock>
    16dd:	0f bf 03             	movswl (%ebx),%eax
    16e0:	89 04 24             	mov    %eax,(%esp)
    16e3:	e8 18 3e 00 00       	call   5500 <vfs_exchange_grab>
    16e8:	83 c4 0c             	add    $0xc,%esp
    16eb:	89 c6                	mov    %eax,%esi
    16ed:	6a 00                	push   $0x0
    16ef:	6a 00                	push   $0x0
    16f1:	6a 00                	push   $0x0
    16f3:	6a 00                	push   $0x0
    16f5:	6a 00                	push   $0x0
    16f7:	6a 00                	push   $0x0
    16f9:	6a 00                	push   $0x0
    16fb:	8b 43 08             	mov    0x8(%ebx),%eax
    16fe:	50                   	push   %eax
    16ff:	8b 53 04             	mov    0x4(%ebx),%edx
    1702:	52                   	push   %edx
    1703:	68 0c 04 00 00       	push   $0x40c
    1708:	56                   	push   %esi
    1709:	e8 22 7a 01 00       	call   19130 <async_req_fast>
    170e:	83 c4 30             	add    $0x30,%esp
    1711:	85 c0                	test   %eax,%eax
    1713:	75 1a                	jne    172f <vfs_node_delref+0xcf>
    1715:	83 ec 0c             	sub    $0xc,%esp
    1718:	56                   	push   %esi
    1719:	e8 a2 3e 00 00       	call   55c0 <vfs_exchange_release>
    171e:	89 5d 08             	mov    %ebx,0x8(%ebp)
    1721:	83 c4 10             	add    $0x10,%esp
    1724:	8d 65 f8             	lea    -0x8(%ebp),%esp
    1727:	5b                   	pop    %ebx
    1728:	5e                   	pop    %esi
    1729:	5d                   	pop    %ebp
    172a:	e9 11 3f 01 00       	jmp    15640 <free>
    172f:	51                   	push   %ecx
    1730:	68 8c 00 00 00       	push   $0x8c
    1735:	68 d9 76 02 00       	push   $0x276d9
    173a:	68 e4 76 02 00       	push   $0x276e4
    173f:	e8 8c fe 01 00       	call   215d0 <assert_abort>
    1744:	8d b6 00 00 00 00    	lea    0x0(%esi),%esi
    174a:	8d bf 00 00 00 00    	lea    0x0(%edi),%edi

00001750 <vfs_node_forget>:
    1750:	55                   	push   %ebp
    1751:	89 e5                	mov    %esp,%ebp
    1753:	53                   	push   %ebx
    1754:	83 ec 10             	sub    $0x10,%esp
    1757:	8b 5d 08             	mov    0x8(%ebp),%ebx
    175a:	68 34 af 02 00       	push   $0x2af34
    175f:	e8 4c 97 00 00       	call   aeb0 <fibril_mutex_lock>
    1764:	58                   	pop    %eax
    1765:	8d 43 14             	lea    0x14(%ebx),%eax
    1768:	5a                   	pop    %edx
    1769:	50                   	push   %eax
    176a:	68 40 b2 02 00       	push   $0x2b240
    176f:	e8 ac b6 01 00       	call   1ce20 <hash_table_remove_item>
    1774:	c7 04 24 34 af 02 00 	movl   $0x2af34,(%esp)
    177b:	e8 b0 98 00 00       	call   b030 <fibril_mutex_unlock>
    1780:	89 5d 08             	mov    %ebx,0x8(%ebp)
    1783:	83 c4 10             	add    $0x10,%esp
    1786:	8b 5d fc             	mov    -0x4(%ebp),%ebx
    1789:	c9                   	leave  
    178a:	e9 b1 3e 01 00       	jmp    15640 <free>
    178f:	90                   	nop

00001790 <vfs_node_get>:
    1790:	55                   	push   %ebp
    1791:	89 e5                	mov    %esp,%ebp
    1793:	56                   	push   %esi
    1794:	53                   	push   %ebx
    1795:	83 ec 0c             	sub    $0xc,%esp
    1798:	8b 75 08             	mov    0x8(%ebp),%esi
    179b:	68 34 af 02 00       	push   $0x2af34
    17a0:	e8 0b 97 00 00       	call   aeb0 <fibril_mutex_lock>
    17a5:	59                   	pop    %ecx
    17a6:	5b                   	pop    %ebx
    17a7:	56                   	push   %esi
    17a8:	68 40 b2 02 00       	push   $0x2b240
    17ad:	e8 fe b3 01 00       	call   1cbb0 <hash_table_find>
    17b2:	83 c4 10             	add    $0x10,%esp
    17b5:	85 c0                	test   %eax,%eax
    17b7:	0f 84 93 00 00 00    	je     1850 <vfs_node_get+0xc0>
    17bd:	8d 58 ec             	lea    -0x14(%eax),%ebx
    17c0:	8b 43 1c             	mov    0x1c(%ebx),%eax
    17c3:	85 c0                	test   %eax,%eax
    17c5:	74 59                	je     1820 <vfs_node_get+0x90>
    17c7:	8b 4e 10             	mov    0x10(%esi),%ecx
    17ca:	8b 43 20             	mov    0x20(%ebx),%eax
    17cd:	31 c8                	xor    %ecx,%eax
    17cf:	8b 53 24             	mov    0x24(%ebx),%edx
    17d2:	8b 4e 14             	mov    0x14(%esi),%ecx
    17d5:	31 ca                	xor    %ecx,%edx
    17d7:	09 c2                	or     %eax,%edx
    17d9:	74 0a                	je     17e5 <vfs_node_get+0x55>
    17db:	83 7b 1c 01          	cmpl   $0x1,0x1c(%ebx)
    17df:	0f 84 ea 00 00 00    	je     18cf <vfs_node_get+0x13f>
    17e5:	8b 46 18             	mov    0x18(%esi),%eax
    17e8:	39 43 10             	cmp    %eax,0x10(%ebx)
    17eb:	75 4b                	jne    1838 <vfs_node_get+0xa8>
    17ed:	8b 46 0c             	mov    0xc(%esi),%eax
    17f0:	39 43 1c             	cmp    %eax,0x1c(%ebx)
    17f3:	74 08                	je     17fd <vfs_node_get+0x6d>
    17f5:	85 c0                	test   %eax,%eax
    17f7:	0f 85 bd 00 00 00    	jne    18ba <vfs_node_get+0x12a>
    17fd:	8b 43 0c             	mov    0xc(%ebx),%eax
    1800:	40                   	inc    %eax
    1801:	89 43 0c             	mov    %eax,0xc(%ebx)
    1804:	83 ec 0c             	sub    $0xc,%esp
    1807:	68 34 af 02 00       	push   $0x2af34
    180c:	e8 1f 98 00 00       	call   b030 <fibril_mutex_unlock>
    1811:	83 c4 10             	add    $0x10,%esp
    1814:	8d 65 f8             	lea    -0x8(%ebp),%esp
    1817:	89 d8                	mov    %ebx,%eax
    1819:	5b                   	pop    %ebx
    181a:	5e                   	pop    %esi
    181b:	5d                   	pop    %ebp
    181c:	c3                   	ret    
    181d:	8d 76 00             	lea    0x0(%esi),%esi
    1820:	8b 46 0c             	mov    0xc(%esi),%eax
    1823:	85 c0                	test   %eax,%eax
    1825:	74 09                	je     1830 <vfs_node_get+0xa0>
    1827:	89 43 1c             	mov    %eax,0x1c(%ebx)
    182a:	eb 9b                	jmp    17c7 <vfs_node_get+0x37>
    182c:	8d 74 26 00          	lea    0x0(%esi,%eiz,1),%esi
    1830:	8b 46 18             	mov    0x18(%esi),%eax
    1833:	39 43 10             	cmp    %eax,0x10(%ebx)
    1836:	74 c5                	je     17fd <vfs_node_get+0x6d>
    1838:	51                   	push   %ecx
    1839:	68 ce 00 00 00       	push   $0xce
    183e:	68 d9 76 02 00       	push   $0x276d9
    1843:	68 2c 77 02 00       	push   $0x2772c
    1848:	e8 83 fd 01 00       	call   215d0 <assert_abort>
    184d:	8d 76 00             	lea    0x0(%esi),%esi
    1850:	83 ec 0c             	sub    $0xc,%esp
    1853:	6a 3c                	push   $0x3c
    1855:	e8 36 3c 01 00       	call   15490 <malloc>
    185a:	83 c4 10             	add    $0x10,%esp
    185d:	89 c3                	mov    %eax,%ebx
    185f:	85 c0                	test   %eax,%eax
    1861:	74 a1                	je     1804 <vfs_node_get+0x74>
    1863:	50                   	push   %eax
    1864:	6a 3c                	push   $0x3c
    1866:	6a 00                	push   $0x0
    1868:	53                   	push   %ebx
    1869:	e8 62 41 00 00       	call   59d0 <memset>
    186e:	8b 06                	mov    (%esi),%eax
    1870:	66 89 03             	mov    %ax,(%ebx)
    1873:	8b 46 04             	mov    0x4(%esi),%eax
    1876:	89 43 04             	mov    %eax,0x4(%ebx)
    1879:	8b 46 08             	mov    0x8(%esi),%eax
    187c:	89 43 08             	mov    %eax,0x8(%ebx)
    187f:	8b 46 10             	mov    0x10(%esi),%eax
    1882:	89 43 20             	mov    %eax,0x20(%ebx)
    1885:	8b 46 18             	mov    0x18(%esi),%eax
    1888:	8b 56 14             	mov    0x14(%esi),%edx
    188b:	89 43 10             	mov    %eax,0x10(%ebx)
    188e:	8b 46 0c             	mov    0xc(%esi),%eax
    1891:	89 53 24             	mov    %edx,0x24(%ebx)
    1894:	89 43 1c             	mov    %eax,0x1c(%ebx)
    1897:	8d 43 28             	lea    0x28(%ebx),%eax
    189a:	89 04 24             	mov    %eax,(%esp)
    189d:	e8 be 99 00 00       	call   b260 <fibril_rwlock_initialize>
    18a2:	58                   	pop    %eax
    18a3:	8d 43 14             	lea    0x14(%ebx),%eax
    18a6:	5a                   	pop    %edx
    18a7:	50                   	push   %eax
    18a8:	68 40 b2 02 00       	push   $0x2b240
    18ad:	e8 0e b1 01 00       	call   1c9c0 <hash_table_insert>
    18b2:	83 c4 10             	add    $0x10,%esp
    18b5:	e9 0d ff ff ff       	jmp    17c7 <vfs_node_get+0x37>
    18ba:	52                   	push   %edx
    18bb:	68 cf 00 00 00       	push   $0xcf
    18c0:	68 d9 76 02 00       	push   $0x276d9
    18c5:	68 4c 77 02 00       	push   $0x2774c
    18ca:	e8 01 fd 01 00       	call   215d0 <assert_abort>
    18cf:	53                   	push   %ebx
    18d0:	68 cd 00 00 00       	push   $0xcd
    18d5:	68 d9 76 02 00       	push   $0x276d9
    18da:	68 f0 76 02 00       	push   $0x276f0
    18df:	e8 ec fc 01 00       	call   215d0 <assert_abort>
    18e4:	8d b6 00 00 00 00    	lea    0x0(%esi),%esi
    18ea:	8d bf 00 00 00 00    	lea    0x0(%edi),%edi

000018f0 <vfs_node_put>:
    18f0:	55                   	push   %ebp
    18f1:	89 e5                	mov    %esp,%ebp
    18f3:	56                   	push   %esi
    18f4:	53                   	push   %ebx
    18f5:	83 ec 0c             	sub    $0xc,%esp
    18f8:	8b 5d 08             	mov    0x8(%ebp),%ebx
    18fb:	68 34 af 02 00       	push   $0x2af34
    1900:	e8 ab 95 00 00       	call   aeb0 <fibril_mutex_lock>
    1905:	8b 43 0c             	mov    0xc(%ebx),%eax
    1908:	83 c4 10             	add    $0x10,%esp
    190b:	8d 50 ff             	lea    -0x1(%eax),%edx
    190e:	48                   	dec    %eax
    190f:	89 53 0c             	mov    %edx,0xc(%ebx)
    1912:	74 14                	je     1928 <vfs_node_put+0x38>
    1914:	c7 45 08 34 af 02 00 	movl   $0x2af34,0x8(%ebp)
    191b:	8d 65 f8             	lea    -0x8(%ebp),%esp
    191e:	5b                   	pop    %ebx
    191f:	5e                   	pop    %esi
    1920:	5d                   	pop    %ebp
    1921:	e9 0a 97 00 00       	jmp    b030 <fibril_mutex_unlock>
    1926:	66 90                	xchg   %ax,%ax
    1928:	8d 43 14             	lea    0x14(%ebx),%eax
    192b:	56                   	push   %esi
    192c:	56                   	push   %esi
    192d:	50                   	push   %eax
    192e:	68 40 b2 02 00       	push   $0x2b240
    1933:	e8 e8 b4 01 00       	call   1ce20 <hash_table_remove_item>
    1938:	8b 43 10             	mov    0x10(%ebx),%eax
    193b:	83 c4 10             	add    $0x10,%esp
    193e:	85 c0                	test   %eax,%eax
    1940:	74 1e                	je     1960 <vfs_node_put+0x70>
    1942:	83 ec 0c             	sub    $0xc,%esp
    1945:	68 34 af 02 00       	push   $0x2af34
    194a:	e8 e1 96 00 00       	call   b030 <fibril_mutex_unlock>
    194f:	89 5d 08             	mov    %ebx,0x8(%ebp)
    1952:	83 c4 10             	add    $0x10,%esp
    1955:	8d 65 f8             	lea    -0x8(%ebp),%esp
    1958:	5b                   	pop    %ebx
    1959:	5e                   	pop    %esi
    195a:	5d                   	pop    %ebp
    195b:	e9 e0 3c 01 00       	jmp    15640 <free>
    1960:	83 ec 0c             	sub    $0xc,%esp
    1963:	68 34 af 02 00       	push   $0x2af34
    1968:	e8 c3 96 00 00       	call   b030 <fibril_mutex_unlock>
    196d:	0f bf 03             	movswl (%ebx),%eax
    1970:	89 04 24             	mov    %eax,(%esp)
    1973:	e8 88 3b 00 00       	call   5500 <vfs_exchange_grab>
    1978:	83 c4 0c             	add    $0xc,%esp
    197b:	89 c6                	mov    %eax,%esi
    197d:	6a 00                	push   $0x0
    197f:	6a 00                	push   $0x0
    1981:	6a 00                	push   $0x0
    1983:	6a 00                	push   $0x0
    1985:	6a 00                	push   $0x0
    1987:	6a 00                	push   $0x0
    1989:	6a 00                	push   $0x0
    198b:	8b 43 08             	mov    0x8(%ebx),%eax
    198e:	50                   	push   %eax
    198f:	8b 53 04             	mov    0x4(%ebx),%edx
    1992:	52                   	push   %edx
    1993:	68 0c 04 00 00       	push   $0x40c
    1998:	56                   	push   %esi
    1999:	e8 92 77 01 00       	call   19130 <async_req_fast>
    199e:	83 c4 30             	add    $0x30,%esp
    19a1:	85 c0                	test   %eax,%eax
    19a3:	75 1a                	jne    19bf <vfs_node_put+0xcf>
    19a5:	83 ec 0c             	sub    $0xc,%esp
    19a8:	56                   	push   %esi
    19a9:	e8 12 3c 00 00       	call   55c0 <vfs_exchange_release>
    19ae:	89 5d 08             	mov    %ebx,0x8(%ebp)
    19b1:	83 c4 10             	add    $0x10,%esp
    19b4:	8d 65 f8             	lea    -0x8(%ebp),%esp
    19b7:	5b                   	pop    %ebx
    19b8:	5e                   	pop    %esi
    19b9:	5d                   	pop    %ebp
    19ba:	e9 81 3c 01 00       	jmp    15640 <free>
    19bf:	51                   	push   %ecx
    19c0:	68 8c 00 00 00       	push   $0x8c
    19c5:	68 d9 76 02 00       	push   $0x276d9
    19ca:	68 e4 76 02 00       	push   $0x276e4
    19cf:	e8 fc fb 01 00       	call   215d0 <assert_abort>
    19d4:	8d b6 00 00 00 00    	lea    0x0(%esi),%esi
    19da:	8d bf 00 00 00 00    	lea    0x0(%edi),%edi

000019e0 <vfs_nodes_refcount_sum_get>:
    19e0:	55                   	push   %ebp
    19e1:	89 e5                	mov    %esp,%ebp
    19e3:	83 ec 24             	sub    $0x24,%esp
    19e6:	8b 45 08             	mov    0x8(%ebp),%eax
    19e9:	68 34 af 02 00       	push   $0x2af34
    19ee:	66 89 45 f0          	mov    %ax,-0x10(%ebp)
    19f2:	8b 45 0c             	mov    0xc(%ebp),%eax
    19f5:	89 45 f4             	mov    %eax,-0xc(%ebp)
    19f8:	c7 45 ec 00 00 00 00 	movl   $0x0,-0x14(%ebp)
    19ff:	e8 ac 94 00 00       	call   aeb0 <fibril_mutex_lock>
    1a04:	83 c4 0c             	add    $0xc,%esp
    1a07:	8d 45 ec             	lea    -0x14(%ebp),%eax
    1a0a:	50                   	push   %eax
    1a0b:	68 20 15 00 00       	push   $0x1520
    1a10:	68 40 b2 02 00       	push   $0x2b240
    1a15:	e8 c6 b4 01 00       	call   1cee0 <hash_table_apply>
    1a1a:	c7 04 24 34 af 02 00 	movl   $0x2af34,(%esp)
    1a21:	e8 0a 96 00 00       	call   b030 <fibril_mutex_unlock>
    1a26:	8b 45 ec             	mov    -0x14(%ebp),%eax
    1a29:	c9                   	leave  
    1a2a:	c3                   	ret    
    1a2b:	90                   	nop
    1a2c:	8d 74 26 00          	lea    0x0(%esi,%eiz,1),%esi

00001a30 <vfs_open_node_remote>:
    1a30:	55                   	push   %ebp
    1a31:	89 e5                	mov    %esp,%ebp
    1a33:	56                   	push   %esi
    1a34:	53                   	push   %ebx
    1a35:	83 ec 3c             	sub    $0x3c,%esp
    1a38:	8b 5d 08             	mov    0x8(%ebp),%ebx
    1a3b:	0f bf 03             	movswl (%ebx),%eax
    1a3e:	50                   	push   %eax
    1a3f:	e8 bc 3a 00 00       	call   5500 <vfs_exchange_grab>
    1a44:	83 c4 0c             	add    $0xc,%esp
    1a47:	89 c6                	mov    %eax,%esi
    1a49:	8d 45 d4             	lea    -0x2c(%ebp),%eax
    1a4c:	50                   	push   %eax
    1a4d:	6a 00                	push   $0x0
    1a4f:	6a 00                	push   $0x0
    1a51:	8b 43 08             	mov    0x8(%ebx),%eax
    1a54:	50                   	push   %eax
    1a55:	8b 53 04             	mov    0x4(%ebx),%edx
    1a58:	52                   	push   %edx
    1a59:	68 00 04 00 00       	push   $0x400
    1a5e:	56                   	push   %esi
    1a5f:	e8 0c 6c 01 00       	call   18670 <async_send_fast>
    1a64:	83 c4 14             	add    $0x14,%esp
    1a67:	89 c3                	mov    %eax,%ebx
    1a69:	56                   	push   %esi
    1a6a:	e8 51 3b 00 00       	call   55c0 <vfs_exchange_release>
    1a6f:	8d 45 d0             	lea    -0x30(%ebp),%eax
    1a72:	59                   	pop    %ecx
    1a73:	5e                   	pop    %esi
    1a74:	50                   	push   %eax
    1a75:	53                   	push   %ebx
    1a76:	e8 75 6d 01 00       	call   187f0 <async_wait_for>
    1a7b:	8b 45 d0             	mov    -0x30(%ebp),%eax
    1a7e:	8d 65 f8             	lea    -0x8(%ebp),%esp
    1a81:	5b                   	pop    %ebx
    1a82:	5e                   	pop    %esi
    1a83:	5d                   	pop    %ebp
    1a84:	c3                   	ret    
    1a85:	66 90                	xchg   %ax,%ax
    1a87:	66 90                	xchg   %ax,%ax
    1a89:	66 90                	xchg   %ax,%ax
    1a8b:	66 90                	xchg   %ax,%ax
    1a8d:	66 90                	xchg   %ax,%ax
    1a8f:	90                   	nop

00001a90 <_vfs_fd_alloc>:
    1a90:	55                   	push   %ebp
    1a91:	89 e5                	mov    %esp,%ebp
    1a93:	57                   	push   %edi
    1a94:	56                   	push   %esi
    1a95:	53                   	push   %ebx
    1a96:	83 ec 28             	sub    $0x28,%esp
    1a99:	89 c7                	mov    %eax,%edi
    1a9b:	89 d3                	mov    %edx,%ebx
    1a9d:	50                   	push   %eax
    1a9e:	e8 0d 94 00 00       	call   aeb0 <fibril_mutex_lock>
    1aa3:	8b 4f 20             	mov    0x20(%edi),%ecx
    1aa6:	83 c4 10             	add    $0x10,%esp
    1aa9:	85 c9                	test   %ecx,%ecx
    1aab:	0f 84 17 01 00 00    	je     1bc8 <_vfs_fd_alloc+0x138>
    1ab1:	83 ec 0c             	sub    $0xc,%esp
    1ab4:	57                   	push   %edi
    1ab5:	e8 76 95 00 00       	call   b030 <fibril_mutex_unlock>
    1aba:	83 c4 10             	add    $0x10,%esp
    1abd:	84 db                	test   %bl,%bl
    1abf:	0f 84 ab 00 00 00    	je     1b70 <_vfs_fd_alloc+0xe0>
    1ac5:	83 ec 0c             	sub    $0xc,%esp
    1ac8:	bb 7f 00 00 00       	mov    $0x7f,%ebx
    1acd:	57                   	push   %edi
    1ace:	e8 dd 93 00 00       	call   aeb0 <fibril_mutex_lock>
    1ad3:	8b 4f 20             	mov    0x20(%edi),%ecx
    1ad6:	83 c4 10             	add    $0x10,%esp
    1ad9:	8d 81 fc 01 00 00    	lea    0x1fc(%ecx),%eax
    1adf:	eb 13                	jmp    1af4 <_vfs_fd_alloc+0x64>
    1ae1:	8d b4 26 00 00 00 00 	lea    0x0(%esi,%eiz,1),%esi
    1ae8:	83 e8 04             	sub    $0x4,%eax
    1aeb:	85 db                	test   %ebx,%ebx
    1aed:	0f 84 b5 00 00 00    	je     1ba8 <_vfs_fd_alloc+0x118>
    1af3:	4b                   	dec    %ebx
    1af4:	89 c6                	mov    %eax,%esi
    1af6:	89 c2                	mov    %eax,%edx
    1af8:	29 ce                	sub    %ecx,%esi
    1afa:	83 38 00             	cmpl   $0x0,(%eax)
    1afd:	75 e9                	jne    1ae8 <_vfs_fd_alloc+0x58>
    1aff:	83 ec 0c             	sub    $0xc,%esp
    1b02:	89 55 e4             	mov    %edx,-0x1c(%ebp)
    1b05:	6a 24                	push   $0x24
    1b07:	e8 84 39 01 00       	call   15490 <malloc>
    1b0c:	8b 55 e4             	mov    -0x1c(%ebp),%edx
    1b0f:	83 c4 10             	add    $0x10,%esp
    1b12:	89 02                	mov    %eax,(%edx)
    1b14:	8b 47 20             	mov    0x20(%edi),%eax
    1b17:	8b 04 30             	mov    (%eax,%esi,1),%eax
    1b1a:	85 c0                	test   %eax,%eax
    1b1c:	0f 84 d3 00 00 00    	je     1bf5 <_vfs_fd_alloc+0x165>
    1b22:	52                   	push   %edx
    1b23:	6a 24                	push   $0x24
    1b25:	6a 00                	push   $0x0
    1b27:	50                   	push   %eax
    1b28:	e8 a3 3e 00 00       	call   59d0 <memset>
    1b2d:	8b 47 20             	mov    0x20(%edi),%eax
    1b30:	8b 04 30             	mov    (%eax,%esi,1),%eax
    1b33:	59                   	pop    %ecx
    1b34:	50                   	push   %eax
    1b35:	e8 56 93 00 00       	call   ae90 <fibril_mutex_initialize>
    1b3a:	8b 47 20             	mov    0x20(%edi),%eax
    1b3d:	8b 34 30             	mov    (%eax,%esi,1),%esi
    1b40:	89 3c 24             	mov    %edi,(%esp)
    1b43:	e8 98 96 00 00       	call   b1e0 <fibril_mutex_is_locked>
    1b48:	83 c4 10             	add    $0x10,%esp
    1b4b:	84 c0                	test   %al,%al
    1b4d:	0f 84 b8 00 00 00    	je     1c0b <_vfs_fd_alloc+0x17b>
    1b53:	8b 46 14             	mov    0x14(%esi),%eax
    1b56:	83 ec 0c             	sub    $0xc,%esp
    1b59:	40                   	inc    %eax
    1b5a:	89 46 14             	mov    %eax,0x14(%esi)
    1b5d:	57                   	push   %edi
    1b5e:	e8 cd 94 00 00       	call   b030 <fibril_mutex_unlock>
    1b63:	89 d8                	mov    %ebx,%eax
    1b65:	83 c4 10             	add    $0x10,%esp
    1b68:	8d 65 f4             	lea    -0xc(%ebp),%esp
    1b6b:	5b                   	pop    %ebx
    1b6c:	5e                   	pop    %esi
    1b6d:	5f                   	pop    %edi
    1b6e:	5d                   	pop    %ebp
    1b6f:	c3                   	ret    
    1b70:	83 ec 0c             	sub    $0xc,%esp
    1b73:	31 db                	xor    %ebx,%ebx
    1b75:	57                   	push   %edi
    1b76:	e8 35 93 00 00       	call   aeb0 <fibril_mutex_lock>
    1b7b:	8b 4f 20             	mov    0x20(%edi),%ecx
    1b7e:	83 c4 10             	add    $0x10,%esp
    1b81:	89 c8                	mov    %ecx,%eax
    1b83:	eb 0c                	jmp    1b91 <_vfs_fd_alloc+0x101>
    1b85:	8d 76 00             	lea    0x0(%esi),%esi
    1b88:	83 c0 04             	add    $0x4,%eax
    1b8b:	83 fb 7f             	cmp    $0x7f,%ebx
    1b8e:	74 18                	je     1ba8 <_vfs_fd_alloc+0x118>
    1b90:	43                   	inc    %ebx
    1b91:	89 c6                	mov    %eax,%esi
    1b93:	89 c2                	mov    %eax,%edx
    1b95:	29 ce                	sub    %ecx,%esi
    1b97:	83 38 00             	cmpl   $0x0,(%eax)
    1b9a:	75 ec                	jne    1b88 <_vfs_fd_alloc+0xf8>
    1b9c:	e9 5e ff ff ff       	jmp    1aff <_vfs_fd_alloc+0x6f>
    1ba1:	8d b4 26 00 00 00 00 	lea    0x0(%esi,%eiz,1),%esi
    1ba8:	83 ec 0c             	sub    $0xc,%esp
    1bab:	57                   	push   %edi
    1bac:	e8 7f 94 00 00       	call   b030 <fibril_mutex_unlock>
    1bb1:	83 c4 10             	add    $0x10,%esp
    1bb4:	8d 65 f4             	lea    -0xc(%ebp),%esp
    1bb7:	b8 ee ff ff ff       	mov    $0xffffffee,%eax
    1bbc:	5b                   	pop    %ebx
    1bbd:	5e                   	pop    %esi
    1bbe:	5f                   	pop    %edi
    1bbf:	5d                   	pop    %ebp
    1bc0:	c3                   	ret    
    1bc1:	8d b4 26 00 00 00 00 	lea    0x0(%esi,%eiz,1),%esi
    1bc8:	83 ec 0c             	sub    $0xc,%esp
    1bcb:	68 00 02 00 00       	push   $0x200
    1bd0:	e8 bb 38 01 00       	call   15490 <malloc>
    1bd5:	83 c4 10             	add    $0x10,%esp
    1bd8:	89 47 20             	mov    %eax,0x20(%edi)
    1bdb:	85 c0                	test   %eax,%eax
    1bdd:	74 16                	je     1bf5 <_vfs_fd_alloc+0x165>
    1bdf:	52                   	push   %edx
    1be0:	68 00 02 00 00       	push   $0x200
    1be5:	6a 00                	push   $0x0
    1be7:	50                   	push   %eax
    1be8:	e8 e3 3d 00 00       	call   59d0 <memset>
    1bed:	83 c4 10             	add    $0x10,%esp
    1bf0:	e9 bc fe ff ff       	jmp    1ab1 <_vfs_fd_alloc+0x21>
    1bf5:	83 ec 0c             	sub    $0xc,%esp
    1bf8:	57                   	push   %edi
    1bf9:	e8 32 94 00 00       	call   b030 <fibril_mutex_unlock>
    1bfe:	83 c4 10             	add    $0x10,%esp
    1c01:	b8 fe ff ff ff       	mov    $0xfffffffe,%eax
    1c06:	e9 5d ff ff ff       	jmp    1b68 <_vfs_fd_alloc+0xd8>
    1c0b:	e8 87 0b 00 00       	call   2797 <vfs_file_addref.isra.0.part.1>

00001c10 <vfs_file_delref>:
    1c10:	55                   	push   %ebp
    1c11:	89 e5                	mov    %esp,%ebp
    1c13:	57                   	push   %edi
    1c14:	56                   	push   %esi
    1c15:	53                   	push   %ebx
    1c16:	83 ec 58             	sub    $0x58,%esp
    1c19:	89 d3                	mov    %edx,%ebx
    1c1b:	50                   	push   %eax
    1c1c:	e8 bf 95 00 00       	call   b1e0 <fibril_mutex_is_locked>
    1c21:	83 c4 10             	add    $0x10,%esp
    1c24:	84 c0                	test   %al,%al
    1c26:	0f 84 8b 00 00 00    	je     1cb7 <vfs_file_delref+0xa7>
    1c2c:	8b 53 14             	mov    0x14(%ebx),%edx
    1c2f:	8d 42 ff             	lea    -0x1(%edx),%eax
    1c32:	89 43 14             	mov    %eax,0x14(%ebx)
    1c35:	31 c0                	xor    %eax,%eax
    1c37:	4a                   	dec    %edx
    1c38:	74 0e                	je     1c48 <vfs_file_delref+0x38>
    1c3a:	8d 65 f4             	lea    -0xc(%ebp),%esp
    1c3d:	5b                   	pop    %ebx
    1c3e:	5e                   	pop    %esi
    1c3f:	5f                   	pop    %edi
    1c40:	5d                   	pop    %ebp
    1c41:	c3                   	ret    
    1c42:	8d b6 00 00 00 00    	lea    0x0(%esi),%esi
    1c48:	8b 43 10             	mov    0x10(%ebx),%eax
    1c4b:	83 ec 0c             	sub    $0xc,%esp
    1c4e:	0f bf 00             	movswl (%eax),%eax
    1c51:	50                   	push   %eax
    1c52:	e8 a9 38 00 00       	call   5500 <vfs_exchange_grab>
    1c57:	83 c4 0c             	add    $0xc,%esp
    1c5a:	89 c6                	mov    %eax,%esi
    1c5c:	8d 55 c4             	lea    -0x3c(%ebp),%edx
    1c5f:	8b 43 10             	mov    0x10(%ebx),%eax
    1c62:	52                   	push   %edx
    1c63:	6a 00                	push   $0x0
    1c65:	6a 00                	push   $0x0
    1c67:	8b 50 08             	mov    0x8(%eax),%edx
    1c6a:	52                   	push   %edx
    1c6b:	8b 48 04             	mov    0x4(%eax),%ecx
    1c6e:	51                   	push   %ecx
    1c6f:	68 04 04 00 00       	push   $0x404
    1c74:	56                   	push   %esi
    1c75:	e8 f6 69 01 00       	call   18670 <async_send_fast>
    1c7a:	83 c4 14             	add    $0x14,%esp
    1c7d:	89 c7                	mov    %eax,%edi
    1c7f:	56                   	push   %esi
    1c80:	e8 3b 39 00 00       	call   55c0 <vfs_exchange_release>
    1c85:	5e                   	pop    %esi
    1c86:	58                   	pop    %eax
    1c87:	8d 45 c0             	lea    -0x40(%ebp),%eax
    1c8a:	50                   	push   %eax
    1c8b:	57                   	push   %edi
    1c8c:	e8 5f 6b 01 00       	call   187f0 <async_wait_for>
    1c91:	8b 45 c8             	mov    -0x38(%ebp),%eax
    1c94:	89 45 b4             	mov    %eax,-0x4c(%ebp)
    1c97:	58                   	pop    %eax
    1c98:	8b 43 10             	mov    0x10(%ebx),%eax
    1c9b:	50                   	push   %eax
    1c9c:	e8 bf f9 ff ff       	call   1660 <vfs_node_delref>
    1ca1:	89 1c 24             	mov    %ebx,(%esp)
    1ca4:	e8 97 39 01 00       	call   15640 <free>
    1ca9:	8b 45 b4             	mov    -0x4c(%ebp),%eax
    1cac:	83 c4 10             	add    $0x10,%esp
    1caf:	8d 65 f4             	lea    -0xc(%ebp),%esp
    1cb2:	5b                   	pop    %ebx
    1cb3:	5e                   	pop    %esi
    1cb4:	5f                   	pop    %edi
    1cb5:	5d                   	pop    %ebp
    1cb6:	c3                   	ret    
    1cb7:	50                   	push   %eax
    1cb8:	68 ac 00 00 00       	push   $0xac
    1cbd:	68 8b 77 02 00       	push   $0x2778b
    1cc2:	68 a8 77 02 00       	push   $0x277a8
    1cc7:	e8 04 f9 01 00       	call   215d0 <assert_abort>
    1ccc:	8d 74 26 00          	lea    0x0(%esi,%eiz,1),%esi

00001cd0 <vfs_client_data_create>:
    1cd0:	55                   	push   %ebp
    1cd1:	89 e5                	mov    %esp,%ebp
    1cd3:	53                   	push   %ebx
    1cd4:	83 ec 10             	sub    $0x10,%esp
    1cd7:	6a 24                	push   $0x24
    1cd9:	e8 b2 37 01 00       	call   15490 <malloc>
    1cde:	83 c4 10             	add    $0x10,%esp
    1ce1:	89 c3                	mov    %eax,%ebx
    1ce3:	85 c0                	test   %eax,%eax
    1ce5:	74 27                	je     1d0e <vfs_client_data_create+0x3e>
    1ce7:	83 ec 0c             	sub    $0xc,%esp
    1cea:	50                   	push   %eax
    1ceb:	e8 a0 91 00 00       	call   ae90 <fibril_mutex_initialize>
    1cf0:	8d 43 10             	lea    0x10(%ebx),%eax
    1cf3:	89 04 24             	mov    %eax,(%esp)
    1cf6:	e8 25 9b 00 00       	call   b820 <fibril_condvar_initialize>
    1cfb:	8d 43 18             	lea    0x18(%ebx),%eax
    1cfe:	c7 43 20 00 00 00 00 	movl   $0x0,0x20(%ebx)
    1d05:	89 43 18             	mov    %eax,0x18(%ebx)
    1d08:	89 43 1c             	mov    %eax,0x1c(%ebx)
    1d0b:	83 c4 10             	add    $0x10,%esp
    1d0e:	89 d8                	mov    %ebx,%eax
    1d10:	8b 5d fc             	mov    -0x4(%ebp),%ebx
    1d13:	c9                   	leave  
    1d14:	c3                   	ret    
    1d15:	8d 74 26 00          	lea    0x0(%esi,%eiz,1),%esi
    1d19:	8d bc 27 00 00 00 00 	lea    0x0(%edi,%eiz,1),%edi

00001d20 <vfs_client_data_destroy>:
    1d20:	55                   	push   %ebp
    1d21:	89 e5                	mov    %esp,%ebp
    1d23:	57                   	push   %edi
    1d24:	56                   	push   %esi
    1d25:	53                   	push   %ebx
    1d26:	83 ec 4c             	sub    $0x4c,%esp
    1d29:	31 f6                	xor    %esi,%esi
    1d2b:	8b 5d 08             	mov    0x8(%ebp),%ebx
    1d2e:	8b 43 20             	mov    0x20(%ebx),%eax
    1d31:	85 c0                	test   %eax,%eax
    1d33:	75 33                	jne    1d68 <vfs_client_data_destroy+0x48>
    1d35:	e9 82 01 00 00       	jmp    1ebc <vfs_client_data_destroy+0x19c>
    1d3a:	8d b6 00 00 00 00    	lea    0x0(%esi),%esi
    1d40:	8b 43 20             	mov    0x20(%ebx),%eax
    1d43:	c7 04 30 00 00 00 00 	movl   $0x0,(%eax,%esi,1)
    1d4a:	83 ec 0c             	sub    $0xc,%esp
    1d4d:	53                   	push   %ebx
    1d4e:	e8 dd 92 00 00       	call   b030 <fibril_mutex_unlock>
    1d53:	8b 43 20             	mov    0x20(%ebx),%eax
    1d56:	83 c4 10             	add    $0x10,%esp
    1d59:	83 c6 04             	add    $0x4,%esi
    1d5c:	81 fe 00 02 00 00    	cmp    $0x200,%esi
    1d62:	0f 84 08 01 00 00    	je     1e70 <vfs_client_data_destroy+0x150>
    1d68:	8b 3c 30             	mov    (%eax,%esi,1),%edi
    1d6b:	85 ff                	test   %edi,%edi
    1d6d:	74 ea                	je     1d59 <vfs_client_data_destroy+0x39>
    1d6f:	83 ec 0c             	sub    $0xc,%esp
    1d72:	53                   	push   %ebx
    1d73:	e8 38 91 00 00       	call   aeb0 <fibril_mutex_lock>
    1d78:	8b 4b 20             	mov    0x20(%ebx),%ecx
    1d7b:	83 c4 10             	add    $0x10,%esp
    1d7e:	85 c9                	test   %ecx,%ecx
    1d80:	0f 84 b2 00 00 00    	je     1e38 <vfs_client_data_destroy+0x118>
    1d86:	83 ec 0c             	sub    $0xc,%esp
    1d89:	53                   	push   %ebx
    1d8a:	e8 a1 92 00 00       	call   b030 <fibril_mutex_unlock>
    1d8f:	89 1c 24             	mov    %ebx,(%esp)
    1d92:	e8 19 91 00 00       	call   aeb0 <fibril_mutex_lock>
    1d97:	8b 43 20             	mov    0x20(%ebx),%eax
    1d9a:	83 c4 10             	add    $0x10,%esp
    1d9d:	8b 3c 30             	mov    (%eax,%esi,1),%edi
    1da0:	85 ff                	test   %edi,%edi
    1da2:	74 a6                	je     1d4a <vfs_client_data_destroy+0x2a>
    1da4:	83 ec 0c             	sub    $0xc,%esp
    1da7:	53                   	push   %ebx
    1da8:	e8 33 94 00 00       	call   b1e0 <fibril_mutex_is_locked>
    1dad:	83 c4 10             	add    $0x10,%esp
    1db0:	84 c0                	test   %al,%al
    1db2:	0f 84 15 01 00 00    	je     1ecd <vfs_client_data_destroy+0x1ad>
    1db8:	8b 47 14             	mov    0x14(%edi),%eax
    1dbb:	8d 50 ff             	lea    -0x1(%eax),%edx
    1dbe:	48                   	dec    %eax
    1dbf:	89 57 14             	mov    %edx,0x14(%edi)
    1dc2:	0f 85 78 ff ff ff    	jne    1d40 <vfs_client_data_destroy+0x20>
    1dc8:	8b 47 10             	mov    0x10(%edi),%eax
    1dcb:	83 ec 0c             	sub    $0xc,%esp
    1dce:	0f bf 00             	movswl (%eax),%eax
    1dd1:	50                   	push   %eax
    1dd2:	e8 29 37 00 00       	call   5500 <vfs_exchange_grab>
    1dd7:	83 c4 0c             	add    $0xc,%esp
    1dda:	89 c2                	mov    %eax,%edx
    1ddc:	8d 4d c4             	lea    -0x3c(%ebp),%ecx
    1ddf:	8b 47 10             	mov    0x10(%edi),%eax
    1de2:	51                   	push   %ecx
    1de3:	6a 00                	push   $0x0
    1de5:	6a 00                	push   $0x0
    1de7:	89 55 b0             	mov    %edx,-0x50(%ebp)
    1dea:	8b 48 08             	mov    0x8(%eax),%ecx
    1ded:	51                   	push   %ecx
    1dee:	8b 40 04             	mov    0x4(%eax),%eax
    1df1:	50                   	push   %eax
    1df2:	68 04 04 00 00       	push   $0x404
    1df7:	52                   	push   %edx
    1df8:	e8 73 68 01 00       	call   18670 <async_send_fast>
    1dfd:	83 c4 14             	add    $0x14,%esp
    1e00:	8b 55 b0             	mov    -0x50(%ebp),%edx
    1e03:	89 45 b4             	mov    %eax,-0x4c(%ebp)
    1e06:	52                   	push   %edx
    1e07:	e8 b4 37 00 00       	call   55c0 <vfs_exchange_release>
    1e0c:	58                   	pop    %eax
    1e0d:	8d 45 c0             	lea    -0x40(%ebp),%eax
    1e10:	5a                   	pop    %edx
    1e11:	50                   	push   %eax
    1e12:	8b 45 b4             	mov    -0x4c(%ebp),%eax
    1e15:	50                   	push   %eax
    1e16:	e8 d5 69 01 00       	call   187f0 <async_wait_for>
    1e1b:	8b 47 10             	mov    0x10(%edi),%eax
    1e1e:	59                   	pop    %ecx
    1e1f:	50                   	push   %eax
    1e20:	e8 3b f8 ff ff       	call   1660 <vfs_node_delref>
    1e25:	89 3c 24             	mov    %edi,(%esp)
    1e28:	e8 13 38 01 00       	call   15640 <free>
    1e2d:	83 c4 10             	add    $0x10,%esp
    1e30:	e9 0b ff ff ff       	jmp    1d40 <vfs_client_data_destroy+0x20>
    1e35:	8d 76 00             	lea    0x0(%esi),%esi
    1e38:	83 ec 0c             	sub    $0xc,%esp
    1e3b:	68 00 02 00 00       	push   $0x200
    1e40:	e8 4b 36 01 00       	call   15490 <malloc>
    1e45:	83 c4 10             	add    $0x10,%esp
    1e48:	89 43 20             	mov    %eax,0x20(%ebx)
    1e4b:	85 c0                	test   %eax,%eax
    1e4d:	0f 84 f7 fe ff ff    	je     1d4a <vfs_client_data_destroy+0x2a>
    1e53:	52                   	push   %edx
    1e54:	68 00 02 00 00       	push   $0x200
    1e59:	6a 00                	push   $0x0
    1e5b:	50                   	push   %eax
    1e5c:	e8 6f 3b 00 00       	call   59d0 <memset>
    1e61:	83 c4 10             	add    $0x10,%esp
    1e64:	e9 1d ff ff ff       	jmp    1d86 <vfs_client_data_destroy+0x66>
    1e69:	8d b4 26 00 00 00 00 	lea    0x0(%esi,%eiz,1),%esi
    1e70:	83 ec 0c             	sub    $0xc,%esp
    1e73:	8d 73 18             	lea    0x18(%ebx),%esi
    1e76:	50                   	push   %eax
    1e77:	e8 c4 37 01 00       	call   15640 <free>
    1e7c:	8b 43 1c             	mov    0x1c(%ebx),%eax
    1e7f:	83 c4 10             	add    $0x10,%esp
    1e82:	39 c6                	cmp    %eax,%esi
    1e84:	74 36                	je     1ebc <vfs_client_data_destroy+0x19c>
    1e86:	66 90                	xchg   %ax,%ax
    1e88:	8b 08                	mov    (%eax),%ecx
    1e8a:	85 c9                	test   %ecx,%ecx
    1e8c:	74 0e                	je     1e9c <vfs_client_data_destroy+0x17c>
    1e8e:	8b 50 04             	mov    0x4(%eax),%edx
    1e91:	85 d2                	test   %edx,%edx
    1e93:	74 07                	je     1e9c <vfs_client_data_destroy+0x17c>
    1e95:	89 0a                	mov    %ecx,(%edx)
    1e97:	8b 08                	mov    (%eax),%ecx
    1e99:	89 51 04             	mov    %edx,0x4(%ecx)
    1e9c:	83 ec 0c             	sub    $0xc,%esp
    1e9f:	c7 00 00 00 00 00    	movl   $0x0,(%eax)
    1ea5:	c7 40 04 00 00 00 00 	movl   $0x0,0x4(%eax)
    1eac:	50                   	push   %eax
    1ead:	e8 8e 37 01 00       	call   15640 <free>
    1eb2:	8b 43 1c             	mov    0x1c(%ebx),%eax
    1eb5:	83 c4 10             	add    $0x10,%esp
    1eb8:	39 f0                	cmp    %esi,%eax
    1eba:	75 cc                	jne    1e88 <vfs_client_data_destroy+0x168>
    1ebc:	83 ec 0c             	sub    $0xc,%esp
    1ebf:	53                   	push   %ebx
    1ec0:	e8 7b 37 01 00       	call   15640 <free>
    1ec5:	8d 65 f4             	lea    -0xc(%ebp),%esp
    1ec8:	5b                   	pop    %ebx
    1ec9:	5e                   	pop    %esi
    1eca:	5f                   	pop    %edi
    1ecb:	5d                   	pop    %ebp
    1ecc:	c3                   	ret    
    1ecd:	50                   	push   %eax
    1ece:	68 ac 00 00 00       	push   $0xac
    1ed3:	68 8b 77 02 00       	push   $0x2778b
    1ed8:	68 a8 77 02 00       	push   $0x277a8
    1edd:	e8 ee f6 01 00       	call   215d0 <assert_abort>
    1ee2:	8d b4 26 00 00 00 00 	lea    0x0(%esi,%eiz,1),%esi
    1ee9:	8d bc 27 00 00 00 00 	lea    0x0(%edi,%eiz,1),%edi

00001ef0 <vfs_fd_alloc>:
    1ef0:	55                   	push   %ebp
    1ef1:	89 e5                	mov    %esp,%ebp
    1ef3:	53                   	push   %ebx
    1ef4:	50                   	push   %eax
    1ef5:	8b 5d 08             	mov    0x8(%ebp),%ebx
    1ef8:	e8 33 62 01 00       	call   18130 <async_get_client_data>
    1efd:	31 d2                	xor    %edx,%edx
    1eff:	59                   	pop    %ecx
    1f00:	88 da                	mov    %bl,%dl
    1f02:	5b                   	pop    %ebx
    1f03:	5d                   	pop    %ebp
    1f04:	e9 87 fb ff ff       	jmp    1a90 <_vfs_fd_alloc>
    1f09:	8d b4 26 00 00 00 00 	lea    0x0(%esi,%eiz,1),%esi

00001f10 <vfs_fd_free>:
    1f10:	55                   	push   %ebp
    1f11:	89 e5                	mov    %esp,%ebp
    1f13:	57                   	push   %edi
    1f14:	56                   	push   %esi
    1f15:	53                   	push   %ebx
    1f16:	83 ec 4c             	sub    $0x4c,%esp
    1f19:	e8 12 62 01 00       	call   18130 <async_get_client_data>
    1f1e:	83 ec 0c             	sub    $0xc,%esp
    1f21:	89 c3                	mov    %eax,%ebx
    1f23:	50                   	push   %eax
    1f24:	e8 87 8f 00 00       	call   aeb0 <fibril_mutex_lock>
    1f29:	83 c4 10             	add    $0x10,%esp
    1f2c:	8b 4b 20             	mov    0x20(%ebx),%ecx
    1f2f:	85 c9                	test   %ecx,%ecx
    1f31:	0f 84 f9 00 00 00    	je     2030 <vfs_fd_free+0x120>
    1f37:	83 ec 0c             	sub    $0xc,%esp
    1f3a:	53                   	push   %ebx
    1f3b:	e8 f0 90 00 00       	call   b030 <fibril_mutex_unlock>
    1f40:	89 1c 24             	mov    %ebx,(%esp)
    1f43:	e8 68 8f 00 00       	call   aeb0 <fibril_mutex_lock>
    1f48:	83 c4 10             	add    $0x10,%esp
    1f4b:	83 7d 08 7f          	cmpl   $0x7f,0x8(%ebp)
    1f4f:	0f 87 0b 01 00 00    	ja     2060 <vfs_fd_free+0x150>
    1f55:	8b 45 08             	mov    0x8(%ebp),%eax
    1f58:	8d 34 85 00 00 00 00 	lea    0x0(,%eax,4),%esi
    1f5f:	8b 43 20             	mov    0x20(%ebx),%eax
    1f62:	8b 3c 30             	mov    (%eax,%esi,1),%edi
    1f65:	85 ff                	test   %edi,%edi
    1f67:	0f 84 f3 00 00 00    	je     2060 <vfs_fd_free+0x150>
    1f6d:	83 ec 0c             	sub    $0xc,%esp
    1f70:	53                   	push   %ebx
    1f71:	e8 6a 92 00 00       	call   b1e0 <fibril_mutex_is_locked>
    1f76:	83 c4 10             	add    $0x10,%esp
    1f79:	84 c0                	test   %al,%al
    1f7b:	0f 84 0d 01 00 00    	je     208e <vfs_fd_free+0x17e>
    1f81:	8b 57 14             	mov    0x14(%edi),%edx
    1f84:	8d 42 ff             	lea    -0x1(%edx),%eax
    1f87:	89 47 14             	mov    %eax,0x14(%edi)
    1f8a:	31 c0                	xor    %eax,%eax
    1f8c:	4a                   	dec    %edx
    1f8d:	74 29                	je     1fb8 <vfs_fd_free+0xa8>
    1f8f:	8b 53 20             	mov    0x20(%ebx),%edx
    1f92:	83 ec 0c             	sub    $0xc,%esp
    1f95:	89 45 b4             	mov    %eax,-0x4c(%ebp)
    1f98:	c7 04 32 00 00 00 00 	movl   $0x0,(%edx,%esi,1)
    1f9f:	53                   	push   %ebx
    1fa0:	e8 8b 90 00 00       	call   b030 <fibril_mutex_unlock>
    1fa5:	83 c4 10             	add    $0x10,%esp
    1fa8:	8b 45 b4             	mov    -0x4c(%ebp),%eax
    1fab:	8d 65 f4             	lea    -0xc(%ebp),%esp
    1fae:	5b                   	pop    %ebx
    1faf:	5e                   	pop    %esi
    1fb0:	5f                   	pop    %edi
    1fb1:	5d                   	pop    %ebp
    1fb2:	c3                   	ret    
    1fb3:	90                   	nop
    1fb4:	8d 74 26 00          	lea    0x0(%esi,%eiz,1),%esi
    1fb8:	8b 47 10             	mov    0x10(%edi),%eax
    1fbb:	83 ec 0c             	sub    $0xc,%esp
    1fbe:	0f bf 00             	movswl (%eax),%eax
    1fc1:	50                   	push   %eax
    1fc2:	e8 39 35 00 00       	call   5500 <vfs_exchange_grab>
    1fc7:	83 c4 0c             	add    $0xc,%esp
    1fca:	89 c2                	mov    %eax,%edx
    1fcc:	8d 4d c4             	lea    -0x3c(%ebp),%ecx
    1fcf:	8b 47 10             	mov    0x10(%edi),%eax
    1fd2:	51                   	push   %ecx
    1fd3:	6a 00                	push   $0x0
    1fd5:	6a 00                	push   $0x0
    1fd7:	89 55 b0             	mov    %edx,-0x50(%ebp)
    1fda:	8b 48 08             	mov    0x8(%eax),%ecx
    1fdd:	51                   	push   %ecx
    1fde:	8b 40 04             	mov    0x4(%eax),%eax
    1fe1:	50                   	push   %eax
    1fe2:	68 04 04 00 00       	push   $0x404
    1fe7:	52                   	push   %edx
    1fe8:	e8 83 66 01 00       	call   18670 <async_send_fast>
    1fed:	83 c4 14             	add    $0x14,%esp
    1ff0:	8b 55 b0             	mov    -0x50(%ebp),%edx
    1ff3:	89 45 b4             	mov    %eax,-0x4c(%ebp)
    1ff6:	52                   	push   %edx
    1ff7:	e8 c4 35 00 00       	call   55c0 <vfs_exchange_release>
    1ffc:	58                   	pop    %eax
    1ffd:	8b 45 b4             	mov    -0x4c(%ebp),%eax
    2000:	5a                   	pop    %edx
    2001:	8d 55 c0             	lea    -0x40(%ebp),%edx
    2004:	52                   	push   %edx
    2005:	50                   	push   %eax
    2006:	e8 e5 67 01 00       	call   187f0 <async_wait_for>
    200b:	8b 45 c8             	mov    -0x38(%ebp),%eax
    200e:	89 45 b4             	mov    %eax,-0x4c(%ebp)
    2011:	8b 47 10             	mov    0x10(%edi),%eax
    2014:	59                   	pop    %ecx
    2015:	50                   	push   %eax
    2016:	e8 45 f6 ff ff       	call   1660 <vfs_node_delref>
    201b:	89 3c 24             	mov    %edi,(%esp)
    201e:	e8 1d 36 01 00       	call   15640 <free>
    2023:	83 c4 10             	add    $0x10,%esp
    2026:	8b 45 b4             	mov    -0x4c(%ebp),%eax
    2029:	e9 61 ff ff ff       	jmp    1f8f <vfs_fd_free+0x7f>
    202e:	66 90                	xchg   %ax,%ax
    2030:	83 ec 0c             	sub    $0xc,%esp
    2033:	68 00 02 00 00       	push   $0x200
    2038:	e8 53 34 01 00       	call   15490 <malloc>
    203d:	83 c4 10             	add    $0x10,%esp
    2040:	89 43 20             	mov    %eax,0x20(%ebx)
    2043:	85 c0                	test   %eax,%eax
    2045:	74 31                	je     2078 <vfs_fd_free+0x168>
    2047:	52                   	push   %edx
    2048:	68 00 02 00 00       	push   $0x200
    204d:	6a 00                	push   $0x0
    204f:	50                   	push   %eax
    2050:	e8 7b 39 00 00       	call   59d0 <memset>
    2055:	83 c4 10             	add    $0x10,%esp
    2058:	e9 da fe ff ff       	jmp    1f37 <vfs_fd_free+0x27>
    205d:	8d 76 00             	lea    0x0(%esi),%esi
    2060:	83 ec 0c             	sub    $0xc,%esp
    2063:	53                   	push   %ebx
    2064:	e8 c7 8f 00 00       	call   b030 <fibril_mutex_unlock>
    2069:	83 c4 10             	add    $0x10,%esp
    206c:	b8 fa fe ff ff       	mov    $0xfffffefa,%eax
    2071:	e9 35 ff ff ff       	jmp    1fab <vfs_fd_free+0x9b>
    2076:	66 90                	xchg   %ax,%ax
    2078:	83 ec 0c             	sub    $0xc,%esp
    207b:	53                   	push   %ebx
    207c:	e8 af 8f 00 00       	call   b030 <fibril_mutex_unlock>
    2081:	83 c4 10             	add    $0x10,%esp
    2084:	b8 fe ff ff ff       	mov    $0xfffffffe,%eax
    2089:	e9 1d ff ff ff       	jmp    1fab <vfs_fd_free+0x9b>
    208e:	50                   	push   %eax
    208f:	68 ac 00 00 00       	push   $0xac
    2094:	68 8b 77 02 00       	push   $0x2778b
    2099:	68 a8 77 02 00       	push   $0x277a8
    209e:	e8 2d f5 01 00       	call   215d0 <assert_abort>
    20a3:	8d b6 00 00 00 00    	lea    0x0(%esi),%esi
    20a9:	8d bc 27 00 00 00 00 	lea    0x0(%edi,%eiz,1),%edi

000020b0 <vfs_fd_assign>:
    20b0:	55                   	push   %ebp
    20b1:	89 e5                	mov    %esp,%ebp
    20b3:	53                   	push   %ebx
    20b4:	53                   	push   %ebx
    20b5:	e8 76 60 01 00       	call   18130 <async_get_client_data>
    20ba:	83 ec 0c             	sub    $0xc,%esp
    20bd:	89 c3                	mov    %eax,%ebx
    20bf:	50                   	push   %eax
    20c0:	e8 eb 8d 00 00       	call   aeb0 <fibril_mutex_lock>
    20c5:	8b 43 20             	mov    0x20(%ebx),%eax
    20c8:	83 c4 10             	add    $0x10,%esp
    20cb:	85 c0                	test   %eax,%eax
    20cd:	0f 84 ad 00 00 00    	je     2180 <vfs_fd_assign+0xd0>
    20d3:	83 ec 0c             	sub    $0xc,%esp
    20d6:	53                   	push   %ebx
    20d7:	e8 54 8f 00 00       	call   b030 <fibril_mutex_unlock>
    20dc:	e8 4f 60 01 00       	call   18130 <async_get_client_data>
    20e1:	89 04 24             	mov    %eax,(%esp)
    20e4:	e8 c7 8d 00 00       	call   aeb0 <fibril_mutex_lock>
    20e9:	83 c4 10             	add    $0x10,%esp
    20ec:	83 7d 0c 7f          	cmpl   $0x7f,0xc(%ebp)
    20f0:	77 6e                	ja     2160 <vfs_fd_assign+0xb0>
    20f2:	e8 39 60 01 00       	call   18130 <async_get_client_data>
    20f7:	8b 4d 0c             	mov    0xc(%ebp),%ecx
    20fa:	8d 1c 8d 00 00 00 00 	lea    0x0(,%ecx,4),%ebx
    2101:	8b 40 20             	mov    0x20(%eax),%eax
    2104:	8b 14 18             	mov    (%eax,%ebx,1),%edx
    2107:	85 d2                	test   %edx,%edx
    2109:	75 55                	jne    2160 <vfs_fd_assign+0xb0>
    210b:	e8 20 60 01 00       	call   18130 <async_get_client_data>
    2110:	8b 55 08             	mov    0x8(%ebp),%edx
    2113:	8b 40 20             	mov    0x20(%eax),%eax
    2116:	89 14 18             	mov    %edx,(%eax,%ebx,1)
    2119:	e8 12 60 01 00       	call   18130 <async_get_client_data>
    211e:	8b 40 20             	mov    0x20(%eax),%eax
    2121:	8b 1c 18             	mov    (%eax,%ebx,1),%ebx
    2124:	e8 07 60 01 00       	call   18130 <async_get_client_data>
    2129:	83 ec 0c             	sub    $0xc,%esp
    212c:	50                   	push   %eax
    212d:	e8 ae 90 00 00       	call   b1e0 <fibril_mutex_is_locked>
    2132:	83 c4 10             	add    $0x10,%esp
    2135:	84 c0                	test   %al,%al
    2137:	0f 84 86 00 00 00    	je     21c3 <vfs_fd_assign+0x113>
    213d:	8b 43 14             	mov    0x14(%ebx),%eax
    2140:	40                   	inc    %eax
    2141:	89 43 14             	mov    %eax,0x14(%ebx)
    2144:	e8 e7 5f 01 00       	call   18130 <async_get_client_data>
    2149:	83 ec 0c             	sub    $0xc,%esp
    214c:	50                   	push   %eax
    214d:	e8 de 8e 00 00       	call   b030 <fibril_mutex_unlock>
    2152:	83 c4 10             	add    $0x10,%esp
    2155:	31 c0                	xor    %eax,%eax
    2157:	8b 5d fc             	mov    -0x4(%ebp),%ebx
    215a:	c9                   	leave  
    215b:	c3                   	ret    
    215c:	8d 74 26 00          	lea    0x0(%esi,%eiz,1),%esi
    2160:	e8 cb 5f 01 00       	call   18130 <async_get_client_data>
    2165:	83 ec 0c             	sub    $0xc,%esp
    2168:	50                   	push   %eax
    2169:	e8 c2 8e 00 00       	call   b030 <fibril_mutex_unlock>
    216e:	83 c4 10             	add    $0x10,%esp
    2171:	b8 f2 ff ff ff       	mov    $0xfffffff2,%eax
    2176:	8b 5d fc             	mov    -0x4(%ebp),%ebx
    2179:	c9                   	leave  
    217a:	c3                   	ret    
    217b:	90                   	nop
    217c:	8d 74 26 00          	lea    0x0(%esi,%eiz,1),%esi
    2180:	83 ec 0c             	sub    $0xc,%esp
    2183:	68 00 02 00 00       	push   $0x200
    2188:	e8 03 33 01 00       	call   15490 <malloc>
    218d:	83 c4 10             	add    $0x10,%esp
    2190:	89 43 20             	mov    %eax,0x20(%ebx)
    2193:	85 c0                	test   %eax,%eax
    2195:	74 19                	je     21b0 <vfs_fd_assign+0x100>
    2197:	51                   	push   %ecx
    2198:	68 00 02 00 00       	push   $0x200
    219d:	6a 00                	push   $0x0
    219f:	50                   	push   %eax
    21a0:	e8 2b 38 00 00       	call   59d0 <memset>
    21a5:	83 c4 10             	add    $0x10,%esp
    21a8:	e9 26 ff ff ff       	jmp    20d3 <vfs_fd_assign+0x23>
    21ad:	8d 76 00             	lea    0x0(%esi),%esi
    21b0:	83 ec 0c             	sub    $0xc,%esp
    21b3:	53                   	push   %ebx
    21b4:	e8 77 8e 00 00       	call   b030 <fibril_mutex_unlock>
    21b9:	83 c4 10             	add    $0x10,%esp
    21bc:	b8 fe ff ff ff       	mov    $0xfffffffe,%eax
    21c1:	eb 94                	jmp    2157 <vfs_fd_assign+0xa7>
    21c3:	e8 cf 05 00 00       	call   2797 <vfs_file_addref.isra.0.part.1>
    21c8:	90                   	nop
    21c9:	8d b4 26 00 00 00 00 	lea    0x0(%esi,%eiz,1),%esi

000021d0 <vfs_file_get>:
    21d0:	55                   	push   %ebp
    21d1:	89 e5                	mov    %esp,%ebp
    21d3:	56                   	push   %esi
    21d4:	53                   	push   %ebx
    21d5:	8b 75 08             	mov    0x8(%ebp),%esi
    21d8:	e8 53 5f 01 00       	call   18130 <async_get_client_data>
    21dd:	83 ec 0c             	sub    $0xc,%esp
    21e0:	89 c3                	mov    %eax,%ebx
    21e2:	50                   	push   %eax
    21e3:	e8 c8 8c 00 00       	call   aeb0 <fibril_mutex_lock>
    21e8:	8b 4b 20             	mov    0x20(%ebx),%ecx
    21eb:	83 c4 10             	add    $0x10,%esp
    21ee:	85 c9                	test   %ecx,%ecx
    21f0:	74 56                	je     2248 <vfs_file_get+0x78>
    21f2:	83 ec 0c             	sub    $0xc,%esp
    21f5:	53                   	push   %ebx
    21f6:	e8 35 8e 00 00       	call   b030 <fibril_mutex_unlock>
    21fb:	89 1c 24             	mov    %ebx,(%esp)
    21fe:	e8 ad 8c 00 00       	call   aeb0 <fibril_mutex_lock>
    2203:	83 c4 10             	add    $0x10,%esp
    2206:	83 fe 7f             	cmp    $0x7f,%esi
    2209:	77 6d                	ja     2278 <vfs_file_get+0xa8>
    220b:	8b 43 20             	mov    0x20(%ebx),%eax
    220e:	8b 34 b0             	mov    (%eax,%esi,4),%esi
    2211:	85 f6                	test   %esi,%esi
    2213:	74 63                	je     2278 <vfs_file_get+0xa8>
    2215:	83 ec 0c             	sub    $0xc,%esp
    2218:	53                   	push   %ebx
    2219:	e8 c2 8f 00 00       	call   b1e0 <fibril_mutex_is_locked>
    221e:	83 c4 10             	add    $0x10,%esp
    2221:	84 c0                	test   %al,%al
    2223:	74 63                	je     2288 <vfs_file_get+0xb8>
    2225:	8b 46 14             	mov    0x14(%esi),%eax
    2228:	83 ec 0c             	sub    $0xc,%esp
    222b:	40                   	inc    %eax
    222c:	89 46 14             	mov    %eax,0x14(%esi)
    222f:	53                   	push   %ebx
    2230:	e8 fb 8d 00 00       	call   b030 <fibril_mutex_unlock>
    2235:	83 c4 10             	add    $0x10,%esp
    2238:	8d 65 f8             	lea    -0x8(%ebp),%esp
    223b:	89 f0                	mov    %esi,%eax
    223d:	5b                   	pop    %ebx
    223e:	5e                   	pop    %esi
    223f:	5d                   	pop    %ebp
    2240:	c3                   	ret    
    2241:	8d b4 26 00 00 00 00 	lea    0x0(%esi,%eiz,1),%esi
    2248:	83 ec 0c             	sub    $0xc,%esp
    224b:	68 00 02 00 00       	push   $0x200
    2250:	e8 3b 32 01 00       	call   15490 <malloc>
    2255:	83 c4 10             	add    $0x10,%esp
    2258:	89 43 20             	mov    %eax,0x20(%ebx)
    225b:	85 c0                	test   %eax,%eax
    225d:	74 19                	je     2278 <vfs_file_get+0xa8>
    225f:	52                   	push   %edx
    2260:	68 00 02 00 00       	push   $0x200
    2265:	6a 00                	push   $0x0
    2267:	50                   	push   %eax
    2268:	e8 63 37 00 00       	call   59d0 <memset>
    226d:	83 c4 10             	add    $0x10,%esp
    2270:	eb 80                	jmp    21f2 <vfs_file_get+0x22>
    2272:	8d b6 00 00 00 00    	lea    0x0(%esi),%esi
    2278:	83 ec 0c             	sub    $0xc,%esp
    227b:	31 f6                	xor    %esi,%esi
    227d:	53                   	push   %ebx
    227e:	e8 ad 8d 00 00       	call   b030 <fibril_mutex_unlock>
    2283:	83 c4 10             	add    $0x10,%esp
    2286:	eb b0                	jmp    2238 <vfs_file_get+0x68>
    2288:	e8 0a 05 00 00       	call   2797 <vfs_file_addref.isra.0.part.1>
    228d:	8d 76 00             	lea    0x0(%esi),%esi

00002290 <vfs_file_put>:
    2290:	55                   	push   %ebp
    2291:	89 e5                	mov    %esp,%ebp
    2293:	57                   	push   %edi
    2294:	56                   	push   %esi
    2295:	53                   	push   %ebx
    2296:	83 ec 4c             	sub    $0x4c,%esp
    2299:	8b 75 08             	mov    0x8(%ebp),%esi
    229c:	e8 8f 5e 01 00       	call   18130 <async_get_client_data>
    22a1:	83 ec 0c             	sub    $0xc,%esp
    22a4:	89 c3                	mov    %eax,%ebx
    22a6:	50                   	push   %eax
    22a7:	e8 04 8c 00 00       	call   aeb0 <fibril_mutex_lock>
    22ac:	89 1c 24             	mov    %ebx,(%esp)
    22af:	e8 2c 8f 00 00       	call   b1e0 <fibril_mutex_is_locked>
    22b4:	83 c4 10             	add    $0x10,%esp
    22b7:	84 c0                	test   %al,%al
    22b9:	0f 84 85 00 00 00    	je     2344 <vfs_file_put+0xb4>
    22bf:	8b 46 14             	mov    0x14(%esi),%eax
    22c2:	8d 50 ff             	lea    -0x1(%eax),%edx
    22c5:	48                   	dec    %eax
    22c6:	89 56 14             	mov    %edx,0x14(%esi)
    22c9:	74 15                	je     22e0 <vfs_file_put+0x50>
    22cb:	83 ec 0c             	sub    $0xc,%esp
    22ce:	53                   	push   %ebx
    22cf:	e8 5c 8d 00 00       	call   b030 <fibril_mutex_unlock>
    22d4:	83 c4 10             	add    $0x10,%esp
    22d7:	8d 65 f4             	lea    -0xc(%ebp),%esp
    22da:	5b                   	pop    %ebx
    22db:	5e                   	pop    %esi
    22dc:	5f                   	pop    %edi
    22dd:	5d                   	pop    %ebp
    22de:	c3                   	ret    
    22df:	90                   	nop
    22e0:	8b 46 10             	mov    0x10(%esi),%eax
    22e3:	83 ec 0c             	sub    $0xc,%esp
    22e6:	0f bf 00             	movswl (%eax),%eax
    22e9:	50                   	push   %eax
    22ea:	e8 11 32 00 00       	call   5500 <vfs_exchange_grab>
    22ef:	83 c4 0c             	add    $0xc,%esp
    22f2:	89 c7                	mov    %eax,%edi
    22f4:	8d 55 c4             	lea    -0x3c(%ebp),%edx
    22f7:	8b 46 10             	mov    0x10(%esi),%eax
    22fa:	52                   	push   %edx
    22fb:	6a 00                	push   $0x0
    22fd:	6a 00                	push   $0x0
    22ff:	8b 50 08             	mov    0x8(%eax),%edx
    2302:	52                   	push   %edx
    2303:	8b 48 04             	mov    0x4(%eax),%ecx
    2306:	51                   	push   %ecx
    2307:	68 04 04 00 00       	push   $0x404
    230c:	57                   	push   %edi
    230d:	e8 5e 63 01 00       	call   18670 <async_send_fast>
    2312:	83 c4 14             	add    $0x14,%esp
    2315:	89 45 b4             	mov    %eax,-0x4c(%ebp)
    2318:	57                   	push   %edi
    2319:	e8 a2 32 00 00       	call   55c0 <vfs_exchange_release>
    231e:	5f                   	pop    %edi
    231f:	8d 55 c0             	lea    -0x40(%ebp),%edx
    2322:	58                   	pop    %eax
    2323:	8b 45 b4             	mov    -0x4c(%ebp),%eax
    2326:	52                   	push   %edx
    2327:	50                   	push   %eax
    2328:	e8 c3 64 01 00       	call   187f0 <async_wait_for>
    232d:	58                   	pop    %eax
    232e:	8b 46 10             	mov    0x10(%esi),%eax
    2331:	50                   	push   %eax
    2332:	e8 29 f3 ff ff       	call   1660 <vfs_node_delref>
    2337:	89 34 24             	mov    %esi,(%esp)
    233a:	e8 01 33 01 00       	call   15640 <free>
    233f:	83 c4 10             	add    $0x10,%esp
    2342:	eb 87                	jmp    22cb <vfs_file_put+0x3b>
    2344:	50                   	push   %eax
    2345:	68 ac 00 00 00       	push   $0xac
    234a:	68 8b 77 02 00       	push   $0x2778b
    234f:	68 a8 77 02 00       	push   $0x277a8
    2354:	e8 77 f2 01 00       	call   215d0 <assert_abort>
    2359:	8d b4 26 00 00 00 00 	lea    0x0(%esi,%eiz,1),%esi

00002360 <vfs_pass_handle>:
    2360:	55                   	push   %ebp
    2361:	89 e5                	mov    %esp,%ebp
    2363:	57                   	push   %edi
    2364:	56                   	push   %esi
    2365:	53                   	push   %ebx
    2366:	83 ec 34             	sub    $0x34,%esp
    2369:	8b 45 08             	mov    0x8(%ebp),%eax
    236c:	8b 55 0c             	mov    0xc(%ebp),%edx
    236f:	89 45 d8             	mov    %eax,-0x28(%ebp)
    2372:	89 55 dc             	mov    %edx,-0x24(%ebp)
    2375:	8b 45 10             	mov    0x10(%ebp),%eax
    2378:	8b 55 14             	mov    0x14(%ebp),%edx
    237b:	8b 4d 18             	mov    0x18(%ebp),%ecx
    237e:	52                   	push   %edx
    237f:	89 45 d0             	mov    %eax,-0x30(%ebp)
    2382:	50                   	push   %eax
    2383:	89 55 d4             	mov    %edx,-0x2c(%ebp)
    2386:	89 4d e4             	mov    %ecx,-0x1c(%ebp)
    2389:	e8 e2 5d 01 00       	call   18170 <async_get_client_data_by_id>
    238e:	83 c4 10             	add    $0x10,%esp
    2391:	85 c0                	test   %eax,%eax
    2393:	0f 84 8f 01 00 00    	je     2528 <vfs_pass_handle+0x1c8>
    2399:	83 ec 0c             	sub    $0xc,%esp
    239c:	89 c3                	mov    %eax,%ebx
    239e:	6a 0c                	push   $0xc
    23a0:	e8 eb 30 01 00       	call   15490 <malloc>
    23a5:	83 c4 10             	add    $0x10,%esp
    23a8:	89 c7                	mov    %eax,%edi
    23aa:	85 c0                	test   %eax,%eax
    23ac:	0f 84 3d 03 00 00    	je     26ef <vfs_pass_handle+0x38f>
    23b2:	c7 00 00 00 00 00    	movl   $0x0,(%eax)
    23b8:	c7 40 04 00 00 00 00 	movl   $0x0,0x4(%eax)
    23bf:	c7 40 08 ff ff ff ff 	movl   $0xffffffff,0x8(%eax)
    23c6:	50                   	push   %eax
    23c7:	50                   	push   %eax
    23c8:	8b 45 dc             	mov    -0x24(%ebp),%eax
    23cb:	50                   	push   %eax
    23cc:	8b 45 d8             	mov    -0x28(%ebp),%eax
    23cf:	50                   	push   %eax
    23d0:	e8 9b 5d 01 00       	call   18170 <async_get_client_data_by_id>
    23d5:	83 c4 10             	add    $0x10,%esp
    23d8:	89 c6                	mov    %eax,%esi
    23da:	85 c0                	test   %eax,%eax
    23dc:	0f 84 46 02 00 00    	je     2628 <vfs_pass_handle+0x2c8>
    23e2:	83 ec 0c             	sub    $0xc,%esp
    23e5:	50                   	push   %eax
    23e6:	e8 c5 8a 00 00       	call   aeb0 <fibril_mutex_lock>
    23eb:	8b 46 20             	mov    0x20(%esi),%eax
    23ee:	83 c4 10             	add    $0x10,%esp
    23f1:	85 c0                	test   %eax,%eax
    23f3:	0f 84 7f 02 00 00    	je     2678 <vfs_pass_handle+0x318>
    23f9:	83 ec 0c             	sub    $0xc,%esp
    23fc:	56                   	push   %esi
    23fd:	e8 2e 8c 00 00       	call   b030 <fibril_mutex_unlock>
    2402:	89 34 24             	mov    %esi,(%esp)
    2405:	e8 a6 8a 00 00       	call   aeb0 <fibril_mutex_lock>
    240a:	8b 4d e4             	mov    -0x1c(%ebp),%ecx
    240d:	83 c4 10             	add    $0x10,%esp
    2410:	83 f9 7f             	cmp    $0x7f,%ecx
    2413:	0f 87 c7 01 00 00    	ja     25e0 <vfs_pass_handle+0x280>
    2419:	8b 46 20             	mov    0x20(%esi),%eax
    241c:	8b 04 88             	mov    (%eax,%ecx,4),%eax
    241f:	89 45 e4             	mov    %eax,-0x1c(%ebp)
    2422:	85 c0                	test   %eax,%eax
    2424:	0f 84 b6 01 00 00    	je     25e0 <vfs_pass_handle+0x280>
    242a:	83 ec 0c             	sub    $0xc,%esp
    242d:	56                   	push   %esi
    242e:	e8 ad 8d 00 00       	call   b1e0 <fibril_mutex_is_locked>
    2433:	83 c4 10             	add    $0x10,%esp
    2436:	84 c0                	test   %al,%al
    2438:	0f 84 ac 02 00 00    	je     26ea <vfs_pass_handle+0x38a>
    243e:	8b 45 e4             	mov    -0x1c(%ebp),%eax
    2441:	83 ec 0c             	sub    $0xc,%esp
    2444:	8b 50 14             	mov    0x14(%eax),%edx
    2447:	42                   	inc    %edx
    2448:	89 50 14             	mov    %edx,0x14(%eax)
    244b:	56                   	push   %esi
    244c:	e8 df 8b 00 00       	call   b030 <fibril_mutex_unlock>
    2451:	31 d2                	xor    %edx,%edx
    2453:	89 d8                	mov    %ebx,%eax
    2455:	e8 36 f6 ff ff       	call   1a90 <_vfs_fd_alloc>
    245a:	83 c4 10             	add    $0x10,%esp
    245d:	85 c0                	test   %eax,%eax
    245f:	0f 88 cb 00 00 00    	js     2530 <vfs_pass_handle+0x1d0>
    2465:	89 47 08             	mov    %eax,0x8(%edi)
    2468:	89 45 e0             	mov    %eax,-0x20(%ebp)
    246b:	8b 45 e4             	mov    -0x1c(%ebp),%eax
    246e:	83 ec 0c             	sub    $0xc,%esp
    2471:	8b 40 10             	mov    0x10(%eax),%eax
    2474:	50                   	push   %eax
    2475:	e8 b6 f1 ff ff       	call   1630 <vfs_node_addref>
    247a:	58                   	pop    %eax
    247b:	8b 45 e4             	mov    -0x1c(%ebp),%eax
    247e:	8b 40 10             	mov    0x10(%eax),%eax
    2481:	50                   	push   %eax
    2482:	e8 a9 f5 ff ff       	call   1a30 <vfs_open_node_remote>
    2487:	89 1c 24             	mov    %ebx,(%esp)
    248a:	e8 21 8a 00 00       	call   aeb0 <fibril_mutex_lock>
    248f:	8b 43 20             	mov    0x20(%ebx),%eax
    2492:	83 c4 10             	add    $0x10,%esp
    2495:	8b 55 e0             	mov    -0x20(%ebp),%edx
    2498:	85 c0                	test   %eax,%eax
    249a:	0f 84 10 02 00 00    	je     26b0 <vfs_pass_handle+0x350>
    24a0:	83 ec 0c             	sub    $0xc,%esp
    24a3:	89 55 e0             	mov    %edx,-0x20(%ebp)
    24a6:	53                   	push   %ebx
    24a7:	e8 84 8b 00 00       	call   b030 <fibril_mutex_unlock>
    24ac:	89 1c 24             	mov    %ebx,(%esp)
    24af:	e8 fc 89 00 00       	call   aeb0 <fibril_mutex_lock>
    24b4:	8b 55 e0             	mov    -0x20(%ebp),%edx
    24b7:	83 c4 10             	add    $0x10,%esp
    24ba:	83 fa 7f             	cmp    $0x7f,%edx
    24bd:	0f 8f 3d 01 00 00    	jg     2600 <vfs_pass_handle+0x2a0>
    24c3:	8b 43 20             	mov    0x20(%ebx),%eax
    24c6:	8b 04 90             	mov    (%eax,%edx,4),%eax
    24c9:	89 45 e0             	mov    %eax,-0x20(%ebp)
    24cc:	85 c0                	test   %eax,%eax
    24ce:	0f 84 2c 01 00 00    	je     2600 <vfs_pass_handle+0x2a0>
    24d4:	83 ec 0c             	sub    $0xc,%esp
    24d7:	53                   	push   %ebx
    24d8:	e8 03 8d 00 00       	call   b1e0 <fibril_mutex_is_locked>
    24dd:	83 c4 10             	add    $0x10,%esp
    24e0:	84 c0                	test   %al,%al
    24e2:	0f 84 02 02 00 00    	je     26ea <vfs_pass_handle+0x38a>
    24e8:	8b 45 e0             	mov    -0x20(%ebp),%eax
    24eb:	83 ec 0c             	sub    $0xc,%esp
    24ee:	8b 50 14             	mov    0x14(%eax),%edx
    24f1:	42                   	inc    %edx
    24f2:	89 50 14             	mov    %edx,0x14(%eax)
    24f5:	53                   	push   %ebx
    24f6:	e8 35 8b 00 00       	call   b030 <fibril_mutex_unlock>
    24fb:	8b 55 e4             	mov    -0x1c(%ebp),%edx
    24fe:	8b 4d e0             	mov    -0x20(%ebp),%ecx
    2501:	8b 42 10             	mov    0x10(%edx),%eax
    2504:	83 c4 10             	add    $0x10,%esp
    2507:	89 41 10             	mov    %eax,0x10(%ecx)
    250a:	8a 42 18             	mov    0x18(%edx),%al
    250d:	88 45 cf             	mov    %al,-0x31(%ebp)
    2510:	88 41 18             	mov    %al,0x18(%ecx)
    2513:	8b 42 1c             	mov    0x1c(%edx),%eax
    2516:	8b 52 20             	mov    0x20(%edx),%edx
    2519:	89 51 20             	mov    %edx,0x20(%ecx)
    251c:	89 41 1c             	mov    %eax,0x1c(%ecx)
    251f:	eb 16                	jmp    2537 <vfs_pass_handle+0x1d7>
    2521:	8d b4 26 00 00 00 00 	lea    0x0(%esi,%eiz,1),%esi
    2528:	8d 65 f4             	lea    -0xc(%ebp),%esp
    252b:	5b                   	pop    %ebx
    252c:	5e                   	pop    %esi
    252d:	5f                   	pop    %edi
    252e:	5d                   	pop    %ebp
    252f:	c3                   	ret    
    2530:	c7 45 e0 00 00 00 00 	movl   $0x0,-0x20(%ebp)
    2537:	83 ec 0c             	sub    $0xc,%esp
    253a:	53                   	push   %ebx
    253b:	e8 70 89 00 00       	call   aeb0 <fibril_mutex_lock>
    2540:	8d 43 18             	lea    0x18(%ebx),%eax
    2543:	89 47 04             	mov    %eax,0x4(%edi)
    2546:	8b 43 18             	mov    0x18(%ebx),%eax
    2549:	89 07                	mov    %eax,(%edi)
    254b:	8b 43 18             	mov    0x18(%ebx),%eax
    254e:	89 78 04             	mov    %edi,0x4(%eax)
    2551:	8d 43 10             	lea    0x10(%ebx),%eax
    2554:	89 7b 18             	mov    %edi,0x18(%ebx)
    2557:	89 04 24             	mov    %eax,(%esp)
    255a:	e8 91 9c 00 00       	call   c1f0 <fibril_condvar_broadcast>
    255f:	89 1c 24             	mov    %ebx,(%esp)
    2562:	e8 c9 8a 00 00       	call   b030 <fibril_mutex_unlock>
    2567:	8b 4d dc             	mov    -0x24(%ebp),%ecx
    256a:	8b 7d d8             	mov    -0x28(%ebp),%edi
    256d:	58                   	pop    %eax
    256e:	5a                   	pop    %edx
    256f:	51                   	push   %ecx
    2570:	57                   	push   %edi
    2571:	e8 5a 5d 01 00       	call   182d0 <async_put_client_data_by_id>
    2576:	8b 4d d4             	mov    -0x2c(%ebp),%ecx
    2579:	8b 7d d0             	mov    -0x30(%ebp),%edi
    257c:	58                   	pop    %eax
    257d:	5a                   	pop    %edx
    257e:	51                   	push   %ecx
    257f:	57                   	push   %edi
    2580:	e8 4b 5d 01 00       	call   182d0 <async_put_client_data_by_id>
    2585:	8b 45 e4             	mov    -0x1c(%ebp),%eax
    2588:	83 c4 10             	add    $0x10,%esp
    258b:	85 c0                	test   %eax,%eax
    258d:	74 1e                	je     25ad <vfs_pass_handle+0x24d>
    258f:	83 ec 0c             	sub    $0xc,%esp
    2592:	56                   	push   %esi
    2593:	e8 18 89 00 00       	call   aeb0 <fibril_mutex_lock>
    2598:	8b 55 e4             	mov    -0x1c(%ebp),%edx
    259b:	89 f0                	mov    %esi,%eax
    259d:	e8 6e f6 ff ff       	call   1c10 <vfs_file_delref>
    25a2:	89 34 24             	mov    %esi,(%esp)
    25a5:	e8 86 8a 00 00       	call   b030 <fibril_mutex_unlock>
    25aa:	83 c4 10             	add    $0x10,%esp
    25ad:	8b 7d e0             	mov    -0x20(%ebp),%edi
    25b0:	85 ff                	test   %edi,%edi
    25b2:	0f 84 70 ff ff ff    	je     2528 <vfs_pass_handle+0x1c8>
    25b8:	83 ec 0c             	sub    $0xc,%esp
    25bb:	53                   	push   %ebx
    25bc:	e8 ef 88 00 00       	call   aeb0 <fibril_mutex_lock>
    25c1:	89 fa                	mov    %edi,%edx
    25c3:	89 d8                	mov    %ebx,%eax
    25c5:	e8 46 f6 ff ff       	call   1c10 <vfs_file_delref>
    25ca:	89 5d 08             	mov    %ebx,0x8(%ebp)
    25cd:	83 c4 10             	add    $0x10,%esp
    25d0:	8d 65 f4             	lea    -0xc(%ebp),%esp
    25d3:	5b                   	pop    %ebx
    25d4:	5e                   	pop    %esi
    25d5:	5f                   	pop    %edi
    25d6:	5d                   	pop    %ebp
    25d7:	e9 54 8a 00 00       	jmp    b030 <fibril_mutex_unlock>
    25dc:	8d 74 26 00          	lea    0x0(%esi,%eiz,1),%esi
    25e0:	83 ec 0c             	sub    $0xc,%esp
    25e3:	56                   	push   %esi
    25e4:	e8 47 8a 00 00       	call   b030 <fibril_mutex_unlock>
    25e9:	83 c4 10             	add    $0x10,%esp
    25ec:	c7 45 e0 00 00 00 00 	movl   $0x0,-0x20(%ebp)
    25f3:	c7 45 e4 00 00 00 00 	movl   $0x0,-0x1c(%ebp)
    25fa:	e9 38 ff ff ff       	jmp    2537 <vfs_pass_handle+0x1d7>
    25ff:	90                   	nop
    2600:	83 ec 0c             	sub    $0xc,%esp
    2603:	53                   	push   %ebx
    2604:	e8 27 8a 00 00       	call   b030 <fibril_mutex_unlock>
    2609:	83 c4 10             	add    $0x10,%esp
    260c:	50                   	push   %eax
    260d:	68 85 01 00 00       	push   $0x185
    2612:	68 8b 77 02 00       	push   $0x2778b
    2617:	68 99 77 02 00       	push   $0x27799
    261c:	e8 af ef 01 00       	call   215d0 <assert_abort>
    2621:	8d b4 26 00 00 00 00 	lea    0x0(%esi,%eiz,1),%esi
    2628:	83 ec 0c             	sub    $0xc,%esp
    262b:	53                   	push   %ebx
    262c:	e8 7f 88 00 00       	call   aeb0 <fibril_mutex_lock>
    2631:	8d 43 18             	lea    0x18(%ebx),%eax
    2634:	89 47 04             	mov    %eax,0x4(%edi)
    2637:	8b 43 18             	mov    0x18(%ebx),%eax
    263a:	89 07                	mov    %eax,(%edi)
    263c:	8b 43 18             	mov    0x18(%ebx),%eax
    263f:	89 78 04             	mov    %edi,0x4(%eax)
    2642:	8d 43 10             	lea    0x10(%ebx),%eax
    2645:	89 7b 18             	mov    %edi,0x18(%ebx)
    2648:	89 04 24             	mov    %eax,(%esp)
    264b:	e8 a0 9b 00 00       	call   c1f0 <fibril_condvar_broadcast>
    2650:	89 1c 24             	mov    %ebx,(%esp)
    2653:	e8 d8 89 00 00       	call   b030 <fibril_mutex_unlock>
    2658:	8b 45 d0             	mov    -0x30(%ebp),%eax
    265b:	8b 55 d4             	mov    -0x2c(%ebp),%edx
    265e:	89 45 08             	mov    %eax,0x8(%ebp)
    2661:	89 55 0c             	mov    %edx,0xc(%ebp)
    2664:	83 c4 10             	add    $0x10,%esp
    2667:	8d 65 f4             	lea    -0xc(%ebp),%esp
    266a:	5b                   	pop    %ebx
    266b:	5e                   	pop    %esi
    266c:	5f                   	pop    %edi
    266d:	5d                   	pop    %ebp
    266e:	e9 5d 5c 01 00       	jmp    182d0 <async_put_client_data_by_id>
    2673:	90                   	nop
    2674:	8d 74 26 00          	lea    0x0(%esi,%eiz,1),%esi
    2678:	83 ec 0c             	sub    $0xc,%esp
    267b:	68 00 02 00 00       	push   $0x200
    2680:	e8 0b 2e 01 00       	call   15490 <malloc>
    2685:	83 c4 10             	add    $0x10,%esp
    2688:	89 46 20             	mov    %eax,0x20(%esi)
    268b:	85 c0                	test   %eax,%eax
    268d:	0f 84 4d ff ff ff    	je     25e0 <vfs_pass_handle+0x280>
    2693:	51                   	push   %ecx
    2694:	68 00 02 00 00       	push   $0x200
    2699:	6a 00                	push   $0x0
    269b:	50                   	push   %eax
    269c:	e8 2f 33 00 00       	call   59d0 <memset>
    26a1:	83 c4 10             	add    $0x10,%esp
    26a4:	e9 50 fd ff ff       	jmp    23f9 <vfs_pass_handle+0x99>
    26a9:	8d b4 26 00 00 00 00 	lea    0x0(%esi,%eiz,1),%esi
    26b0:	83 ec 0c             	sub    $0xc,%esp
    26b3:	68 00 02 00 00       	push   $0x200
    26b8:	e8 d3 2d 01 00       	call   15490 <malloc>
    26bd:	83 c4 10             	add    $0x10,%esp
    26c0:	89 43 20             	mov    %eax,0x20(%ebx)
    26c3:	85 c0                	test   %eax,%eax
    26c5:	8b 55 e0             	mov    -0x20(%ebp),%edx
    26c8:	0f 84 32 ff ff ff    	je     2600 <vfs_pass_handle+0x2a0>
    26ce:	51                   	push   %ecx
    26cf:	68 00 02 00 00       	push   $0x200
    26d4:	6a 00                	push   $0x0
    26d6:	50                   	push   %eax
    26d7:	89 55 e0             	mov    %edx,-0x20(%ebp)
    26da:	e8 f1 32 00 00       	call   59d0 <memset>
    26df:	83 c4 10             	add    $0x10,%esp
    26e2:	8b 55 e0             	mov    -0x20(%ebp),%edx
    26e5:	e9 b6 fd ff ff       	jmp    24a0 <vfs_pass_handle+0x140>
    26ea:	e8 a8 00 00 00       	call   2797 <vfs_file_addref.isra.0.part.1>
    26ef:	50                   	push   %eax
    26f0:	68 6b 01 00 00       	push   $0x16b
    26f5:	68 8b 77 02 00       	push   $0x2778b
    26fa:	68 96 77 02 00       	push   $0x27796
    26ff:	e8 cc ee 01 00       	call   215d0 <assert_abort>
    2704:	8d b6 00 00 00 00    	lea    0x0(%esi),%esi
    270a:	8d bf 00 00 00 00    	lea    0x0(%edi),%edi

00002710 <vfs_wait_handle_internal>:
    2710:	55                   	push   %ebp
    2711:	89 e5                	mov    %esp,%ebp
    2713:	57                   	push   %edi
    2714:	56                   	push   %esi
    2715:	53                   	push   %ebx
    2716:	83 ec 1c             	sub    $0x1c,%esp
    2719:	e8 12 5a 01 00       	call   18130 <async_get_client_data>
    271e:	83 ec 0c             	sub    $0xc,%esp
    2721:	89 c6                	mov    %eax,%esi
    2723:	50                   	push   %eax
    2724:	e8 87 87 00 00       	call   aeb0 <fibril_mutex_lock>
    2729:	83 c4 10             	add    $0x10,%esp
    272c:	8b 46 1c             	mov    0x1c(%esi),%eax
    272f:	8d 56 18             	lea    0x18(%esi),%edx
    2732:	89 45 e4             	mov    %eax,-0x1c(%ebp)
    2735:	39 d0                	cmp    %edx,%eax
    2737:	75 5a                	jne    2793 <vfs_wait_handle_internal+0x83>
    2739:	8d 7e 10             	lea    0x10(%esi),%edi
    273c:	8d 74 26 00          	lea    0x0(%esi,%eiz,1),%esi
    2740:	50                   	push   %eax
    2741:	50                   	push   %eax
    2742:	56                   	push   %esi
    2743:	57                   	push   %edi
    2744:	e8 f7 97 00 00       	call   bf40 <fibril_condvar_wait>
    2749:	8b 5e 1c             	mov    0x1c(%esi),%ebx
    274c:	83 c4 10             	add    $0x10,%esp
    274f:	3b 5d e4             	cmp    -0x1c(%ebp),%ebx
    2752:	74 ec                	je     2740 <vfs_wait_handle_internal+0x30>
    2754:	8b 0b                	mov    (%ebx),%ecx
    2756:	85 c9                	test   %ecx,%ecx
    2758:	74 0e                	je     2768 <vfs_wait_handle_internal+0x58>
    275a:	8b 53 04             	mov    0x4(%ebx),%edx
    275d:	85 d2                	test   %edx,%edx
    275f:	74 07                	je     2768 <vfs_wait_handle_internal+0x58>
    2761:	89 0a                	mov    %ecx,(%edx)
    2763:	8b 0b                	mov    (%ebx),%ecx
    2765:	89 51 04             	mov    %edx,0x4(%ecx)
    2768:	83 ec 0c             	sub    $0xc,%esp
    276b:	c7 03 00 00 00 00    	movl   $0x0,(%ebx)
    2771:	c7 43 04 00 00 00 00 	movl   $0x0,0x4(%ebx)
    2778:	56                   	push   %esi
    2779:	e8 b2 88 00 00       	call   b030 <fibril_mutex_unlock>
    277e:	8b 73 08             	mov    0x8(%ebx),%esi
    2781:	89 1c 24             	mov    %ebx,(%esp)
    2784:	e8 b7 2e 01 00       	call   15640 <free>
    2789:	8d 65 f4             	lea    -0xc(%ebp),%esp
    278c:	89 f0                	mov    %esi,%eax
    278e:	5b                   	pop    %ebx
    278f:	5e                   	pop    %esi
    2790:	5f                   	pop    %edi
    2791:	5d                   	pop    %ebp
    2792:	c3                   	ret    
    2793:	89 c3                	mov    %eax,%ebx
    2795:	eb bd                	jmp    2754 <vfs_wait_handle_internal+0x44>

00002797 <vfs_file_addref.isra.0.part.1>:
    2797:	55                   	push   %ebp
    2798:	89 e5                	mov    %esp,%ebp
    279a:	83 ec 0c             	sub    $0xc,%esp
    279d:	68 9e 00 00 00       	push   $0x9e
    27a2:	68 8b 77 02 00       	push   $0x2778b
    27a7:	68 a8 77 02 00       	push   $0x277a8
    27ac:	e8 1f ee 01 00       	call   215d0 <assert_abort>
    27b1:	66 90                	xchg   %ax,%ax
    27b3:	66 90                	xchg   %ax,%ax
    27b5:	66 90                	xchg   %ax,%ax
    27b7:	66 90                	xchg   %ax,%ax
    27b9:	66 90                	xchg   %ax,%ax
    27bb:	66 90                	xchg   %ax,%ax
    27bd:	66 90                	xchg   %ax,%ax
    27bf:	90                   	nop

000027c0 <vfs_mount_srv>:
    27c0:	55                   	push   %ebp
    27c1:	89 e5                	mov    %esp,%ebp
    27c3:	57                   	push   %edi
    27c4:	56                   	push   %esi
    27c5:	53                   	push   %ebx
    27c6:	81 ec c4 00 00 00    	sub    $0xc4,%esp
    27cc:	8b 45 0c             	mov    0xc(%ebp),%eax
    27cf:	8b 78 04             	mov    0x4(%eax),%edi
    27d2:	8b 70 08             	mov    0x8(%eax),%esi
    27d5:	8b 58 0c             	mov    0xc(%eax),%ebx
    27d8:	8d 85 58 ff ff ff    	lea    -0xa8(%ebp),%eax
    27de:	6a 00                	push   $0x0
    27e0:	6a 00                	push   $0x0
    27e2:	68 00 00 01 00       	push   $0x10000
    27e7:	6a 00                	push   $0x0
    27e9:	6a 01                	push   $0x1
    27eb:	50                   	push   %eax
    27ec:	e8 5f 8b 01 00       	call   1b350 <async_data_write_accept>
    27f1:	83 c4 20             	add    $0x20,%esp
    27f4:	85 c0                	test   %eax,%eax
    27f6:	74 18                	je     2810 <vfs_mount_srv+0x50>
    27f8:	8b 4d 08             	mov    0x8(%ebp),%ecx
    27fb:	52                   	push   %edx
    27fc:	52                   	push   %edx
    27fd:	50                   	push   %eax
    27fe:	51                   	push   %ecx
    27ff:	e8 dc 6e 01 00       	call   196e0 <async_answer_0>
    2804:	83 c4 10             	add    $0x10,%esp
    2807:	8d 65 f4             	lea    -0xc(%ebp),%esp
    280a:	5b                   	pop    %ebx
    280b:	5e                   	pop    %esi
    280c:	5f                   	pop    %edi
    280d:	5d                   	pop    %ebp
    280e:	c3                   	ret    
    280f:	90                   	nop
    2810:	50                   	push   %eax
    2811:	50                   	push   %eax
    2812:	8d 85 5c ff ff ff    	lea    -0xa4(%ebp),%eax
    2818:	6a 00                	push   $0x0
    281a:	6a 00                	push   $0x0
    281c:	68 00 01 00 00       	push   $0x100
    2821:	6a 00                	push   $0x0
    2823:	6a 01                	push   $0x1
    2825:	50                   	push   %eax
    2826:	e8 25 8b 01 00       	call   1b350 <async_data_write_accept>
    282b:	83 c4 20             	add    $0x20,%esp
    282e:	89 85 54 ff ff ff    	mov    %eax,-0xac(%ebp)
    2834:	85 c0                	test   %eax,%eax
    2836:	74 30                	je     2868 <vfs_mount_srv+0xa8>
    2838:	83 ec 0c             	sub    $0xc,%esp
    283b:	8b 85 58 ff ff ff    	mov    -0xa8(%ebp),%eax
    2841:	50                   	push   %eax
    2842:	e8 f9 2d 01 00       	call   15640 <free>
    2847:	58                   	pop    %eax
    2848:	8b 4d 08             	mov    0x8(%ebp),%ecx
    284b:	8b 85 54 ff ff ff    	mov    -0xac(%ebp),%eax
    2851:	5a                   	pop    %edx
    2852:	50                   	push   %eax
    2853:	51                   	push   %ecx
    2854:	e8 87 6e 01 00       	call   196e0 <async_answer_0>
    2859:	83 c4 10             	add    $0x10,%esp
    285c:	8d 65 f4             	lea    -0xc(%ebp),%esp
    285f:	5b                   	pop    %ebx
    2860:	5e                   	pop    %esi
    2861:	5f                   	pop    %edi
    2862:	5d                   	pop    %ebp
    2863:	c3                   	ret    
    2864:	8d 74 26 00          	lea    0x0(%esi,%eiz,1),%esi
    2868:	50                   	push   %eax
    2869:	50                   	push   %eax
    286a:	8d 85 60 ff ff ff    	lea    -0xa0(%ebp),%eax
    2870:	6a 00                	push   $0x0
    2872:	6a 00                	push   $0x0
    2874:	6a 14                	push   $0x14
    2876:	6a 00                	push   $0x0
    2878:	6a 01                	push   $0x1
    287a:	50                   	push   %eax
    287b:	e8 d0 8a 01 00       	call   1b350 <async_data_write_accept>
    2880:	83 c4 20             	add    $0x20,%esp
    2883:	89 85 54 ff ff ff    	mov    %eax,-0xac(%ebp)
    2889:	85 c0                	test   %eax,%eax
    288b:	75 6b                	jne    28f8 <vfs_mount_srv+0x138>
    288d:	50                   	push   %eax
    288e:	50                   	push   %eax
    288f:	8d 45 a0             	lea    -0x60(%ebp),%eax
    2892:	6a 00                	push   $0x0
    2894:	50                   	push   %eax
    2895:	e8 c6 55 01 00       	call   17e60 <async_get_call_timeout>
    289a:	83 c4 10             	add    $0x10,%esp
    289d:	89 85 54 ff ff ff    	mov    %eax,-0xac(%ebp)
    28a3:	81 7d a0 07 04 00 00 	cmpl   $0x407,-0x60(%ebp)
    28aa:	74 6c                	je     2918 <vfs_mount_srv+0x158>
    28ac:	52                   	push   %edx
    28ad:	52                   	push   %edx
    28ae:	6a f5                	push   $0xfffffff5
    28b0:	50                   	push   %eax
    28b1:	e8 2a 6e 01 00       	call   196e0 <async_answer_0>
    28b6:	8b 75 08             	mov    0x8(%ebp),%esi
    28b9:	59                   	pop    %ecx
    28ba:	5b                   	pop    %ebx
    28bb:	6a f5                	push   $0xfffffff5
    28bd:	56                   	push   %esi
    28be:	e8 1d 6e 01 00       	call   196e0 <async_answer_0>
    28c3:	58                   	pop    %eax
    28c4:	8b 85 58 ff ff ff    	mov    -0xa8(%ebp),%eax
    28ca:	50                   	push   %eax
    28cb:	e8 70 2d 01 00       	call   15640 <free>
    28d0:	58                   	pop    %eax
    28d1:	8b 85 5c ff ff ff    	mov    -0xa4(%ebp),%eax
    28d7:	50                   	push   %eax
    28d8:	e8 63 2d 01 00       	call   15640 <free>
    28dd:	58                   	pop    %eax
    28de:	8b 85 60 ff ff ff    	mov    -0xa0(%ebp),%eax
    28e4:	50                   	push   %eax
    28e5:	e8 56 2d 01 00       	call   15640 <free>
    28ea:	83 c4 10             	add    $0x10,%esp
    28ed:	e9 15 ff ff ff       	jmp    2807 <vfs_mount_srv+0x47>
    28f2:	8d b6 00 00 00 00    	lea    0x0(%esi),%esi
    28f8:	83 ec 0c             	sub    $0xc,%esp
    28fb:	8b 9d 58 ff ff ff    	mov    -0xa8(%ebp),%ebx
    2901:	53                   	push   %ebx
    2902:	e8 39 2d 01 00       	call   15640 <free>
    2907:	8b bd 5c ff ff ff    	mov    -0xa4(%ebp),%edi
    290d:	5e                   	pop    %esi
    290e:	57                   	push   %edi
    290f:	e9 2e ff ff ff       	jmp    2842 <vfs_mount_srv+0x82>
    2914:	8d 74 26 00          	lea    0x0(%esi,%eiz,1),%esi
    2918:	83 ec 0c             	sub    $0xc,%esp
    291b:	68 94 af 02 00       	push   $0x2af94
    2920:	e8 8b 85 00 00       	call   aeb0 <fibril_mutex_lock>
    2925:	83 c4 10             	add    $0x10,%esp
    2928:	83 e6 01             	and    $0x1,%esi
    292b:	75 1f                	jne    294c <vfs_mount_srv+0x18c>
    292d:	e9 b5 02 00 00       	jmp    2be7 <vfs_mount_srv+0x427>
    2932:	8d b6 00 00 00 00    	lea    0x0(%esi),%esi
    2938:	50                   	push   %eax
    2939:	50                   	push   %eax
    293a:	68 94 af 02 00       	push   $0x2af94
    293f:	68 a4 af 02 00       	push   $0x2afa4
    2944:	e8 f7 95 00 00       	call   bf40 <fibril_condvar_wait>
    2949:	83 c4 10             	add    $0x10,%esp
    294c:	50                   	push   %eax
    294d:	8b 85 60 ff ff ff    	mov    -0xa0(%ebp),%eax
    2953:	6a 00                	push   $0x0
    2955:	50                   	push   %eax
    2956:	53                   	push   %ebx
    2957:	e8 74 2c 00 00       	call   55d0 <fs_name_to_handle>
    295c:	83 c4 10             	add    $0x10,%esp
    295f:	66 85 c0             	test   %ax,%ax
    2962:	74 d4                	je     2938 <vfs_mount_srv+0x178>
    2964:	89 c6                	mov    %eax,%esi
    2966:	83 ec 0c             	sub    $0xc,%esp
    2969:	68 94 af 02 00       	push   $0x2af94
    296e:	e8 bd 86 00 00       	call   b030 <fibril_mutex_unlock>
    2973:	c7 04 24 24 01 01 00 	movl   $0x10124,(%esp)
    297a:	e8 11 2b 01 00       	call   15490 <malloc>
    297f:	83 c4 10             	add    $0x10,%esp
    2982:	89 85 48 ff ff ff    	mov    %eax,-0xb8(%ebp)
    2988:	85 c0                	test   %eax,%eax
    298a:	0f 84 06 05 00 00    	je     2e96 <vfs_mount_srv+0x6d6>
    2990:	83 ec 0c             	sub    $0xc,%esp
    2993:	8b 85 5c ff ff ff    	mov    -0xa4(%ebp),%eax
    2999:	89 85 4c ff ff ff    	mov    %eax,-0xb4(%ebp)
    299f:	8b 85 58 ff ff ff    	mov    -0xa8(%ebp),%eax
    29a5:	0f bf d6             	movswl %si,%edx
    29a8:	68 44 af 02 00       	push   $0x2af44
    29ad:	89 85 50 ff ff ff    	mov    %eax,-0xb0(%ebp)
    29b3:	89 95 44 ff ff ff    	mov    %edx,-0xbc(%ebp)
    29b9:	e8 d2 89 00 00       	call   b390 <fibril_rwlock_write_lock>
    29be:	83 c4 10             	add    $0x10,%esp
    29c1:	66 83 3d 68 b2 02 00 	cmpw   $0x0,0x2b268
    29c8:	00 
    29c9:	0f 84 8f 02 00 00    	je     2c5e <vfs_mount_srv+0x49e>
    29cf:	50                   	push   %eax
    29d0:	50                   	push   %eax
    29d1:	8b 85 50 ff ff ff    	mov    -0xb0(%ebp),%eax
    29d7:	68 1b 97 02 00       	push   $0x2971b
    29dc:	50                   	push   %eax
    29dd:	e8 ee 3d 00 00       	call   67d0 <str_cmp>
    29e2:	83 c4 10             	add    $0x10,%esp
    29e5:	85 c0                	test   %eax,%eax
    29e7:	0f 84 54 05 00 00    	je     2f41 <vfs_mount_srv+0x781>
    29ed:	8d 8d 68 ff ff ff    	lea    -0x98(%ebp),%ecx
    29f3:	6a 00                	push   $0x0
    29f5:	89 8d 40 ff ff ff    	mov    %ecx,-0xc0(%ebp)
    29fb:	51                   	push   %ecx
    29fc:	8b 8d 50 ff ff ff    	mov    -0xb0(%ebp),%ecx
    2a02:	6a 08                	push   $0x8
    2a04:	51                   	push   %ecx
    2a05:	e8 16 25 00 00       	call   4f20 <vfs_lookup_internal>
    2a0a:	83 c4 10             	add    $0x10,%esp
    2a0d:	89 85 64 ff ff ff    	mov    %eax,-0x9c(%ebp)
    2a13:	85 c0                	test   %eax,%eax
    2a15:	8b 8d 40 ff ff ff    	mov    -0xc0(%ebp),%ecx
    2a1b:	0f 85 48 03 00 00    	jne    2d69 <vfs_mount_srv+0x5a9>
    2a21:	83 ec 0c             	sub    $0xc,%esp
    2a24:	51                   	push   %ecx
    2a25:	e8 66 ed ff ff       	call   1790 <vfs_node_get>
    2a2a:	83 c4 10             	add    $0x10,%esp
    2a2d:	89 85 3c ff ff ff    	mov    %eax,-0xc4(%ebp)
    2a33:	85 c0                	test   %eax,%eax
    2a35:	0f 84 51 05 00 00    	je     2f8c <vfs_mount_srv+0x7cc>
    2a3b:	83 ec 0c             	sub    $0xc,%esp
    2a3e:	8b 85 44 ff ff ff    	mov    -0xbc(%ebp),%eax
    2a44:	50                   	push   %eax
    2a45:	e8 b6 2a 00 00       	call   5500 <vfs_exchange_grab>
    2a4a:	83 c4 10             	add    $0x10,%esp
    2a4d:	85 c0                	test   %eax,%eax
    2a4f:	0f 84 0d 05 00 00    	je     2f62 <vfs_mount_srv+0x7a2>
    2a55:	83 ec 0c             	sub    $0xc,%esp
    2a58:	89 85 40 ff ff ff    	mov    %eax,-0xc0(%ebp)
    2a5e:	0f bf 85 68 ff ff ff 	movswl -0x98(%ebp),%eax
    2a65:	50                   	push   %eax
    2a66:	e8 95 2a 00 00       	call   5500 <vfs_exchange_grab>
    2a6b:	83 c4 0c             	add    $0xc,%esp
    2a6e:	89 c2                	mov    %eax,%edx
    2a70:	8d 45 c4             	lea    -0x3c(%ebp),%eax
    2a73:	8b 8d 44 ff ff ff    	mov    -0xbc(%ebp),%ecx
    2a79:	50                   	push   %eax
    2a7a:	8b 85 70 ff ff ff    	mov    -0x90(%ebp),%eax
    2a80:	57                   	push   %edi
    2a81:	51                   	push   %ecx
    2a82:	50                   	push   %eax
    2a83:	8b 85 6c ff ff ff    	mov    -0x94(%ebp),%eax
    2a89:	50                   	push   %eax
    2a8a:	89 95 50 ff ff ff    	mov    %edx,-0xb0(%ebp)
    2a90:	68 05 04 00 00       	push   $0x405
    2a95:	52                   	push   %edx
    2a96:	e8 d5 5b 01 00       	call   18670 <async_send_fast>
    2a9b:	83 c4 18             	add    $0x18,%esp
    2a9e:	8b 8d 40 ff ff ff    	mov    -0xc0(%ebp),%ecx
    2aa4:	89 85 38 ff ff ff    	mov    %eax,-0xc8(%ebp)
    2aaa:	8b 85 50 ff ff ff    	mov    -0xb0(%ebp),%eax
    2ab0:	51                   	push   %ecx
    2ab1:	89 8d 44 ff ff ff    	mov    %ecx,-0xbc(%ebp)
    2ab7:	50                   	push   %eax
    2ab8:	e8 43 8b 01 00       	call   1b600 <async_exchange_clone>
    2abd:	8b 8d 44 ff ff ff    	mov    -0xbc(%ebp),%ecx
    2ac3:	89 85 64 ff ff ff    	mov    %eax,-0x9c(%ebp)
    2ac9:	89 0c 24             	mov    %ecx,(%esp)
    2acc:	e8 ef 2a 00 00       	call   55c0 <vfs_exchange_release>
    2ad1:	8b 85 64 ff ff ff    	mov    -0x9c(%ebp),%eax
    2ad7:	83 c4 10             	add    $0x10,%esp
    2ada:	85 c0                	test   %eax,%eax
    2adc:	0f 85 cd 03 00 00    	jne    2eaf <vfs_mount_srv+0x6ef>
    2ae2:	83 ec 0c             	sub    $0xc,%esp
    2ae5:	8b 85 4c ff ff ff    	mov    -0xb4(%ebp),%eax
    2aeb:	50                   	push   %eax
    2aec:	e8 ff 37 00 00       	call   62f0 <str_size>
    2af1:	83 c4 0c             	add    $0xc,%esp
    2af4:	8b 95 4c ff ff ff    	mov    -0xb4(%ebp),%edx
    2afa:	8b 8d 50 ff ff ff    	mov    -0xb0(%ebp),%ecx
    2b00:	50                   	push   %eax
    2b01:	52                   	push   %edx
    2b02:	51                   	push   %ecx
    2b03:	e8 88 85 01 00       	call   1b090 <async_data_write_start>
    2b08:	83 c4 10             	add    $0x10,%esp
    2b0b:	89 85 64 ff ff ff    	mov    %eax,-0x9c(%ebp)
    2b11:	85 c0                	test   %eax,%eax
    2b13:	0f 85 c6 03 00 00    	jne    2edf <vfs_mount_srv+0x71f>
    2b19:	8d 85 64 ff ff ff    	lea    -0x9c(%ebp),%eax
    2b1f:	8b 8d 38 ff ff ff    	mov    -0xc8(%ebp),%ecx
    2b25:	52                   	push   %edx
    2b26:	52                   	push   %edx
    2b27:	50                   	push   %eax
    2b28:	51                   	push   %ecx
    2b29:	e8 c2 5c 01 00       	call   187f0 <async_wait_for>
    2b2e:	58                   	pop    %eax
    2b2f:	8b 85 50 ff ff ff    	mov    -0xb0(%ebp),%eax
    2b35:	50                   	push   %eax
    2b36:	e8 85 2a 00 00       	call   55c0 <vfs_exchange_release>
    2b3b:	8b 85 64 ff ff ff    	mov    -0x9c(%ebp),%eax
    2b41:	83 c4 10             	add    $0x10,%esp
    2b44:	85 c0                	test   %eax,%eax
    2b46:	0f 85 be 03 00 00    	jne    2f0a <vfs_mount_srv+0x74a>
    2b4c:	8b 45 c8             	mov    -0x38(%ebp),%eax
    2b4f:	83 ec 0c             	sub    $0xc,%esp
    2b52:	89 45 8c             	mov    %eax,-0x74(%ebp)
    2b55:	8b 45 cc             	mov    -0x34(%ebp),%eax
    2b58:	89 45 94             	mov    %eax,-0x6c(%ebp)
    2b5b:	8b 45 d4             	mov    -0x2c(%ebp),%eax
    2b5e:	8b 55 d0             	mov    -0x30(%ebp),%edx
    2b61:	89 45 9c             	mov    %eax,-0x64(%ebp)
    2b64:	8d 45 84             	lea    -0x7c(%ebp),%eax
    2b67:	66 89 75 84          	mov    %si,-0x7c(%ebp)
    2b6b:	50                   	push   %eax
    2b6c:	89 7d 88             	mov    %edi,-0x78(%ebp)
    2b6f:	89 55 98             	mov    %edx,-0x68(%ebp)
    2b72:	c7 45 90 02 00 00 00 	movl   $0x2,-0x70(%ebp)
    2b79:	e8 12 ec ff ff       	call   1790 <vfs_node_get>
    2b7e:	83 c4 10             	add    $0x10,%esp
    2b81:	85 c0                	test   %eax,%eax
    2b83:	0f 84 ee 03 00 00    	je     2f77 <vfs_mount_srv+0x7b7>
    2b89:	50                   	push   %eax
    2b8a:	50                   	push   %eax
    2b8b:	8b 85 64 ff ff ff    	mov    -0x9c(%ebp),%eax
    2b91:	50                   	push   %eax
    2b92:	8b 45 08             	mov    0x8(%ebp),%eax
    2b95:	50                   	push   %eax
    2b96:	e8 45 6b 01 00       	call   196e0 <async_answer_0>
    2b9b:	c7 04 24 44 af 02 00 	movl   $0x2af44,(%esp)
    2ba2:	e8 69 89 00 00       	call   b510 <fibril_rwlock_write_unlock>
    2ba7:	8b 85 64 ff ff ff    	mov    -0x9c(%ebp),%eax
    2bad:	83 c4 10             	add    $0x10,%esp
    2bb0:	85 c0                	test   %eax,%eax
    2bb2:	0f 84 de 01 00 00    	je     2d96 <vfs_mount_srv+0x5d6>
    2bb8:	8b 8d 54 ff ff ff    	mov    -0xac(%ebp),%ecx
    2bbe:	52                   	push   %edx
    2bbf:	52                   	push   %edx
    2bc0:	6a f5                	push   $0xfffffff5
    2bc2:	51                   	push   %ecx
    2bc3:	e8 18 6b 01 00       	call   196e0 <async_answer_0>
    2bc8:	8b 7d 08             	mov    0x8(%ebp),%edi
    2bcb:	5b                   	pop    %ebx
    2bcc:	5e                   	pop    %esi
    2bcd:	6a f5                	push   $0xfffffff5
    2bcf:	57                   	push   %edi
    2bd0:	e8 0b 6b 01 00       	call   196e0 <async_answer_0>
    2bd5:	58                   	pop    %eax
    2bd6:	8b 85 48 ff ff ff    	mov    -0xb8(%ebp),%eax
    2bdc:	50                   	push   %eax
    2bdd:	e8 5e 2a 01 00       	call   15640 <free>
    2be2:	e9 dc fc ff ff       	jmp    28c3 <vfs_mount_srv+0x103>
    2be7:	50                   	push   %eax
    2be8:	8b 85 60 ff ff ff    	mov    -0xa0(%ebp),%eax
    2bee:	6a 00                	push   $0x0
    2bf0:	50                   	push   %eax
    2bf1:	53                   	push   %ebx
    2bf2:	e8 d9 29 00 00       	call   55d0 <fs_name_to_handle>
    2bf7:	83 c4 10             	add    $0x10,%esp
    2bfa:	89 c6                	mov    %eax,%esi
    2bfc:	66 85 c0             	test   %ax,%ax
    2bff:	0f 85 61 fd ff ff    	jne    2966 <vfs_mount_srv+0x1a6>
    2c05:	83 ec 0c             	sub    $0xc,%esp
    2c08:	68 94 af 02 00       	push   $0x2af94
    2c0d:	e8 1e 84 00 00       	call   b030 <fibril_mutex_unlock>
    2c12:	8b b5 54 ff ff ff    	mov    -0xac(%ebp),%esi
    2c18:	59                   	pop    %ecx
    2c19:	5b                   	pop    %ebx
    2c1a:	6a ff                	push   $0xffffffff
    2c1c:	56                   	push   %esi
    2c1d:	e8 be 6a 01 00       	call   196e0 <async_answer_0>
    2c22:	5f                   	pop    %edi
    2c23:	58                   	pop    %eax
    2c24:	6a ff                	push   $0xffffffff
    2c26:	8b 45 08             	mov    0x8(%ebp),%eax
    2c29:	50                   	push   %eax
    2c2a:	e8 b1 6a 01 00       	call   196e0 <async_answer_0>
    2c2f:	58                   	pop    %eax
    2c30:	8b 85 58 ff ff ff    	mov    -0xa8(%ebp),%eax
    2c36:	50                   	push   %eax
    2c37:	e8 04 2a 01 00       	call   15640 <free>
    2c3c:	8b 95 60 ff ff ff    	mov    -0xa0(%ebp),%edx
    2c42:	58                   	pop    %eax
    2c43:	52                   	push   %edx
    2c44:	e8 f7 29 01 00       	call   15640 <free>
    2c49:	8b 9d 5c ff ff ff    	mov    -0xa4(%ebp),%ebx
    2c4f:	59                   	pop    %ecx
    2c50:	53                   	push   %ebx
    2c51:	e8 ea 29 01 00       	call   15640 <free>
    2c56:	83 c4 10             	add    $0x10,%esp
    2c59:	e9 a9 fb ff ff       	jmp    2807 <vfs_mount_srv+0x47>
    2c5e:	50                   	push   %eax
    2c5f:	50                   	push   %eax
    2c60:	8b 85 50 ff ff ff    	mov    -0xb0(%ebp),%eax
    2c66:	68 1b 97 02 00       	push   $0x2971b
    2c6b:	50                   	push   %eax
    2c6c:	e8 5f 3b 00 00       	call   67d0 <str_cmp>
    2c71:	83 c4 10             	add    $0x10,%esp
    2c74:	85 c0                	test   %eax,%eax
    2c76:	0f 85 a4 02 00 00    	jne    2f20 <vfs_mount_srv+0x760>
    2c7c:	83 ec 0c             	sub    $0xc,%esp
    2c7f:	8b 85 44 ff ff ff    	mov    -0xbc(%ebp),%eax
    2c85:	50                   	push   %eax
    2c86:	e8 75 28 00 00       	call   5500 <vfs_exchange_grab>
    2c8b:	83 c4 0c             	add    $0xc,%esp
    2c8e:	89 c1                	mov    %eax,%ecx
    2c90:	8d 45 c4             	lea    -0x3c(%ebp),%eax
    2c93:	89 8d 50 ff ff ff    	mov    %ecx,-0xb0(%ebp)
    2c99:	50                   	push   %eax
    2c9a:	6a 00                	push   $0x0
    2c9c:	6a 00                	push   $0x0
    2c9e:	6a 00                	push   $0x0
    2ca0:	57                   	push   %edi
    2ca1:	68 06 04 00 00       	push   $0x406
    2ca6:	51                   	push   %ecx
    2ca7:	e8 c4 59 01 00       	call   18670 <async_send_fast>
    2cac:	83 c4 14             	add    $0x14,%esp
    2caf:	89 85 44 ff ff ff    	mov    %eax,-0xbc(%ebp)
    2cb5:	8b 85 4c ff ff ff    	mov    -0xb4(%ebp),%eax
    2cbb:	50                   	push   %eax
    2cbc:	e8 2f 36 00 00       	call   62f0 <str_size>
    2cc1:	83 c4 0c             	add    $0xc,%esp
    2cc4:	8b 95 4c ff ff ff    	mov    -0xb4(%ebp),%edx
    2cca:	8b 8d 50 ff ff ff    	mov    -0xb0(%ebp),%ecx
    2cd0:	50                   	push   %eax
    2cd1:	52                   	push   %edx
    2cd2:	51                   	push   %ecx
    2cd3:	e8 b8 83 01 00       	call   1b090 <async_data_write_start>
    2cd8:	8b 8d 50 ff ff ff    	mov    -0xb0(%ebp),%ecx
    2cde:	89 85 64 ff ff ff    	mov    %eax,-0x9c(%ebp)
    2ce4:	89 0c 24             	mov    %ecx,(%esp)
    2ce7:	e8 d4 28 00 00       	call   55c0 <vfs_exchange_release>
    2cec:	8b 8d 64 ff ff ff    	mov    -0x9c(%ebp),%ecx
    2cf2:	83 c4 10             	add    $0x10,%esp
    2cf5:	85 c9                	test   %ecx,%ecx
    2cf7:	0f 85 7e 01 00 00    	jne    2e7b <vfs_mount_srv+0x6bb>
    2cfd:	50                   	push   %eax
    2cfe:	50                   	push   %eax
    2cff:	8d 85 64 ff ff ff    	lea    -0x9c(%ebp),%eax
    2d05:	50                   	push   %eax
    2d06:	8b 85 44 ff ff ff    	mov    -0xbc(%ebp),%eax
    2d0c:	50                   	push   %eax
    2d0d:	e8 de 5a 01 00       	call   187f0 <async_wait_for>
    2d12:	8b 85 64 ff ff ff    	mov    -0x9c(%ebp),%eax
    2d18:	83 c4 10             	add    $0x10,%esp
    2d1b:	85 c0                	test   %eax,%eax
    2d1d:	75 4a                	jne    2d69 <vfs_mount_srv+0x5a9>
    2d1f:	8b 45 c8             	mov    -0x38(%ebp),%eax
    2d22:	83 ec 0c             	sub    $0xc,%esp
    2d25:	89 45 8c             	mov    %eax,-0x74(%ebp)
    2d28:	8b 45 cc             	mov    -0x34(%ebp),%eax
    2d2b:	89 45 94             	mov    %eax,-0x6c(%ebp)
    2d2e:	8b 45 d4             	mov    -0x2c(%ebp),%eax
    2d31:	8b 55 d0             	mov    -0x30(%ebp),%edx
    2d34:	89 45 9c             	mov    %eax,-0x64(%ebp)
    2d37:	8d 45 84             	lea    -0x7c(%ebp),%eax
    2d3a:	66 89 75 84          	mov    %si,-0x7c(%ebp)
    2d3e:	50                   	push   %eax
    2d3f:	89 7d 88             	mov    %edi,-0x78(%ebp)
    2d42:	89 55 98             	mov    %edx,-0x68(%ebp)
    2d45:	c7 45 90 02 00 00 00 	movl   $0x2,-0x70(%ebp)
    2d4c:	66 89 35 68 b2 02 00 	mov    %si,0x2b268
    2d53:	89 3d 6c b2 02 00    	mov    %edi,0x2b26c
    2d59:	e8 32 ea ff ff       	call   1790 <vfs_node_get>
    2d5e:	83 c4 10             	add    $0x10,%esp
    2d61:	85 c0                	test   %eax,%eax
    2d63:	0f 84 44 02 00 00    	je     2fad <vfs_mount_srv+0x7ed>
    2d69:	83 ec 0c             	sub    $0xc,%esp
    2d6c:	68 44 af 02 00       	push   $0x2af44
    2d71:	e8 9a 87 00 00       	call   b510 <fibril_rwlock_write_unlock>
    2d76:	8b 8d 64 ff ff ff    	mov    -0x9c(%ebp),%ecx
    2d7c:	8b 75 08             	mov    0x8(%ebp),%esi
    2d7f:	58                   	pop    %eax
    2d80:	5a                   	pop    %edx
    2d81:	51                   	push   %ecx
    2d82:	56                   	push   %esi
    2d83:	e8 58 69 01 00       	call   196e0 <async_answer_0>
    2d88:	8b 85 64 ff ff ff    	mov    -0x9c(%ebp),%eax
    2d8e:	83 c4 10             	add    $0x10,%esp
    2d91:	e9 1a fe ff ff       	jmp    2bb0 <vfs_mount_srv+0x3f0>
    2d96:	8b b5 48 ff ff ff    	mov    -0xb8(%ebp),%esi
    2d9c:	50                   	push   %eax
    2d9d:	89 f0                	mov    %esi,%eax
    2d9f:	8b 95 58 ff ff ff    	mov    -0xa8(%ebp),%edx
    2da5:	83 c0 08             	add    $0x8,%eax
    2da8:	52                   	push   %edx
    2da9:	68 00 00 01 00       	push   $0x10000
    2dae:	50                   	push   %eax
    2daf:	e8 fc 44 00 00       	call   72b0 <str_cpy>
    2db4:	83 c4 0c             	add    $0xc,%esp
    2db7:	89 f0                	mov    %esi,%eax
    2db9:	8b 8d 60 ff ff ff    	mov    -0xa0(%ebp),%ecx
    2dbf:	05 08 01 01 00       	add    $0x10108,%eax
    2dc4:	51                   	push   %ecx
    2dc5:	6a 14                	push   $0x14
    2dc7:	50                   	push   %eax
    2dc8:	e8 e3 44 00 00       	call   72b0 <str_cpy>
    2dcd:	83 c4 0c             	add    $0xc,%esp
    2dd0:	8b 85 5c ff ff ff    	mov    -0xa4(%ebp),%eax
    2dd6:	50                   	push   %eax
    2dd7:	89 f0                	mov    %esi,%eax
    2dd9:	05 08 00 01 00       	add    $0x10008,%eax
    2dde:	68 00 01 00 00       	push   $0x100
    2de3:	50                   	push   %eax
    2de4:	e8 c7 44 00 00       	call   72b0 <str_cpy>
    2de9:	89 9e 1c 01 01 00    	mov    %ebx,0x1011c(%esi)
    2def:	89 be 20 01 01 00    	mov    %edi,0x10120(%esi)
    2df5:	c7 06 00 00 00 00    	movl   $0x0,(%esi)
    2dfb:	c7 46 04 00 00 00 00 	movl   $0x0,0x4(%esi)
    2e02:	c7 04 24 60 af 02 00 	movl   $0x2af60,(%esp)
    2e09:	e8 a2 80 00 00       	call   aeb0 <fibril_mutex_lock>
    2e0e:	a1 58 af 02 00       	mov    0x2af58,%eax
    2e13:	c7 46 04 58 af 02 00 	movl   $0x2af58,0x4(%esi)
    2e1a:	89 06                	mov    %eax,(%esi)
    2e1c:	89 35 58 af 02 00    	mov    %esi,0x2af58
    2e22:	89 70 04             	mov    %esi,0x4(%eax)
    2e25:	a1 70 b2 02 00       	mov    0x2b270,%eax
    2e2a:	40                   	inc    %eax
    2e2b:	c7 04 24 60 af 02 00 	movl   $0x2af60,(%esp)
    2e32:	a3 70 b2 02 00       	mov    %eax,0x2b270
    2e37:	e8 f4 81 00 00       	call   b030 <fibril_mutex_unlock>
    2e3c:	58                   	pop    %eax
    2e3d:	8b 85 58 ff ff ff    	mov    -0xa8(%ebp),%eax
    2e43:	50                   	push   %eax
    2e44:	e8 f7 27 01 00       	call   15640 <free>
    2e49:	58                   	pop    %eax
    2e4a:	8b 85 60 ff ff ff    	mov    -0xa0(%ebp),%eax
    2e50:	50                   	push   %eax
    2e51:	e8 ea 27 01 00       	call   15640 <free>
    2e56:	8b 8d 5c ff ff ff    	mov    -0xa4(%ebp),%ecx
    2e5c:	5a                   	pop    %edx
    2e5d:	51                   	push   %ecx
    2e5e:	e8 dd 27 01 00       	call   15640 <free>
    2e63:	8b bd 54 ff ff ff    	mov    -0xac(%ebp),%edi
    2e69:	5b                   	pop    %ebx
    2e6a:	5e                   	pop    %esi
    2e6b:	6a 00                	push   $0x0
    2e6d:	57                   	push   %edi
    2e6e:	e8 6d 68 01 00       	call   196e0 <async_answer_0>
    2e73:	83 c4 10             	add    $0x10,%esp
    2e76:	e9 8c f9 ff ff       	jmp    2807 <vfs_mount_srv+0x47>
    2e7b:	83 ec 0c             	sub    $0xc,%esp
    2e7e:	8b 85 44 ff ff ff    	mov    -0xbc(%ebp),%eax
    2e84:	50                   	push   %eax
    2e85:	e8 36 60 01 00       	call   18ec0 <async_forget>
    2e8a:	c7 04 24 44 af 02 00 	movl   $0x2af44,(%esp)
    2e91:	e9 db fe ff ff       	jmp    2d71 <vfs_mount_srv+0x5b1>
    2e96:	8b bd 54 ff ff ff    	mov    -0xac(%ebp),%edi
    2e9c:	56                   	push   %esi
    2e9d:	56                   	push   %esi
    2e9e:	6a fe                	push   $0xfffffffe
    2ea0:	57                   	push   %edi
    2ea1:	e8 3a 68 01 00       	call   196e0 <async_answer_0>
    2ea6:	58                   	pop    %eax
    2ea7:	5a                   	pop    %edx
    2ea8:	6a fe                	push   $0xfffffffe
    2eaa:	e9 77 fd ff ff       	jmp    2c26 <vfs_mount_srv+0x466>
    2eaf:	83 ec 0c             	sub    $0xc,%esp
    2eb2:	8b b5 50 ff ff ff    	mov    -0xb0(%ebp),%esi
    2eb8:	56                   	push   %esi
    2eb9:	e8 02 27 00 00       	call   55c0 <vfs_exchange_release>
    2ebe:	58                   	pop    %eax
    2ebf:	8b 85 38 ff ff ff    	mov    -0xc8(%ebp),%eax
    2ec5:	50                   	push   %eax
    2ec6:	e8 f5 5f 01 00       	call   18ec0 <async_forget>
    2ecb:	58                   	pop    %eax
    2ecc:	8b 85 3c ff ff ff    	mov    -0xc4(%ebp),%eax
    2ed2:	50                   	push   %eax
    2ed3:	e8 18 ea ff ff       	call   18f0 <vfs_node_put>
    2ed8:	58                   	pop    %eax
    2ed9:	5a                   	pop    %edx
    2eda:	e9 ac fc ff ff       	jmp    2b8b <vfs_mount_srv+0x3cb>
    2edf:	83 ec 0c             	sub    $0xc,%esp
    2ee2:	8b 85 50 ff ff ff    	mov    -0xb0(%ebp),%eax
    2ee8:	50                   	push   %eax
    2ee9:	e8 d2 26 00 00       	call   55c0 <vfs_exchange_release>
    2eee:	58                   	pop    %eax
    2eef:	8b 85 38 ff ff ff    	mov    -0xc8(%ebp),%eax
    2ef5:	50                   	push   %eax
    2ef6:	e8 c5 5f 01 00       	call   18ec0 <async_forget>
    2efb:	58                   	pop    %eax
    2efc:	8b 85 3c ff ff ff    	mov    -0xc4(%ebp),%eax
    2f02:	50                   	push   %eax
    2f03:	e8 e8 e9 ff ff       	call   18f0 <vfs_node_put>
    2f08:	eb 80                	jmp    2e8a <vfs_mount_srv+0x6ca>
    2f0a:	83 ec 0c             	sub    $0xc,%esp
    2f0d:	ff b5 3c ff ff ff    	pushl  -0xc4(%ebp)
    2f13:	e8 d8 e9 ff ff       	call   18f0 <vfs_node_put>
    2f18:	83 c4 10             	add    $0x10,%esp
    2f1b:	e9 69 fc ff ff       	jmp    2b89 <vfs_mount_srv+0x3c9>
    2f20:	83 ec 0c             	sub    $0xc,%esp
    2f23:	68 44 af 02 00       	push   $0x2af44
    2f28:	e8 e3 85 00 00       	call   b510 <fibril_rwlock_write_unlock>
    2f2d:	5a                   	pop    %edx
    2f2e:	59                   	pop    %ecx
    2f2f:	6a ff                	push   $0xffffffff
    2f31:	ff 75 08             	pushl  0x8(%ebp)
    2f34:	e8 a7 67 01 00       	call   196e0 <async_answer_0>
    2f39:	83 c4 10             	add    $0x10,%esp
    2f3c:	e9 77 fc ff ff       	jmp    2bb8 <vfs_mount_srv+0x3f8>
    2f41:	83 ec 0c             	sub    $0xc,%esp
    2f44:	68 44 af 02 00       	push   $0x2af44
    2f49:	e8 c2 85 00 00       	call   b510 <fibril_rwlock_write_unlock>
    2f4e:	5b                   	pop    %ebx
    2f4f:	5e                   	pop    %esi
    2f50:	6a f1                	push   $0xfffffff1
    2f52:	ff 75 08             	pushl  0x8(%ebp)
    2f55:	e8 86 67 01 00       	call   196e0 <async_answer_0>
    2f5a:	83 c4 10             	add    $0x10,%esp
    2f5d:	e9 56 fc ff ff       	jmp    2bb8 <vfs_mount_srv+0x3f8>
    2f62:	50                   	push   %eax
    2f63:	68 bf 00 00 00       	push   $0xbf
    2f68:	68 d0 77 02 00       	push   $0x277d0
    2f6d:	68 e2 77 02 00       	push   $0x277e2
    2f72:	e8 59 e6 01 00       	call   215d0 <assert_abort>
    2f77:	50                   	push   %eax
    2f78:	68 00 01 00 00       	push   $0x100
    2f7d:	68 d0 77 02 00       	push   $0x277d0
    2f82:	68 da 77 02 00       	push   $0x277da
    2f87:	e8 44 e6 01 00       	call   215d0 <assert_abort>
    2f8c:	83 ec 0c             	sub    $0xc,%esp
    2f8f:	68 44 af 02 00       	push   $0x2af44
    2f94:	e8 77 85 00 00       	call   b510 <fibril_rwlock_write_unlock>
    2f99:	58                   	pop    %eax
    2f9a:	5a                   	pop    %edx
    2f9b:	6a fe                	push   $0xfffffffe
    2f9d:	ff 75 08             	pushl  0x8(%ebp)
    2fa0:	e8 3b 67 01 00       	call   196e0 <async_answer_0>
    2fa5:	83 c4 10             	add    $0x10,%esp
    2fa8:	e9 0b fc ff ff       	jmp    2bb8 <vfs_mount_srv+0x3f8>
    2fad:	53                   	push   %ebx
    2fae:	68 a9 00 00 00       	push   $0xa9
    2fb3:	68 d0 77 02 00       	push   $0x277d0
    2fb8:	68 da 77 02 00       	push   $0x277da
    2fbd:	e8 0e e6 01 00       	call   215d0 <assert_abort>
    2fc2:	8d b4 26 00 00 00 00 	lea    0x0(%esi,%eiz,1),%esi
    2fc9:	8d bc 27 00 00 00 00 	lea    0x0(%edi,%eiz,1),%edi

00002fd0 <vfs_unmount_srv>:
    2fd0:	55                   	push   %ebp
    2fd1:	89 e5                	mov    %esp,%ebp
    2fd3:	57                   	push   %edi
    2fd4:	56                   	push   %esi
    2fd5:	53                   	push   %ebx
    2fd6:	83 ec 64             	sub    $0x64,%esp
    2fd9:	8d 45 ac             	lea    -0x54(%ebp),%eax
    2fdc:	8b 75 08             	mov    0x8(%ebp),%esi
    2fdf:	6a 00                	push   $0x0
    2fe1:	6a 00                	push   $0x0
    2fe3:	68 00 00 01 00       	push   $0x10000
    2fe8:	6a 00                	push   $0x0
    2fea:	6a 01                	push   $0x1
    2fec:	50                   	push   %eax
    2fed:	e8 5e 83 01 00       	call   1b350 <async_data_write_accept>
    2ff2:	83 c4 20             	add    $0x20,%esp
    2ff5:	85 c0                	test   %eax,%eax
    2ff7:	0f 85 bb 00 00 00    	jne    30b8 <vfs_unmount_srv+0xe8>
    2ffd:	83 ec 0c             	sub    $0xc,%esp
    3000:	8d 5d cc             	lea    -0x34(%ebp),%ebx
    3003:	68 44 af 02 00       	push   $0x2af44
    3008:	e8 83 83 00 00       	call   b390 <fibril_rwlock_write_lock>
    300d:	8b 55 ac             	mov    -0x54(%ebp),%edx
    3010:	6a 00                	push   $0x0
    3012:	53                   	push   %ebx
    3013:	6a 04                	push   $0x4
    3015:	52                   	push   %edx
    3016:	e8 05 1f 00 00       	call   4f20 <vfs_lookup_internal>
    301b:	83 c4 20             	add    $0x20,%esp
    301e:	89 45 a4             	mov    %eax,-0x5c(%ebp)
    3021:	85 c0                	test   %eax,%eax
    3023:	74 33                	je     3058 <vfs_unmount_srv+0x88>
    3025:	83 ec 0c             	sub    $0xc,%esp
    3028:	68 44 af 02 00       	push   $0x2af44
    302d:	e8 de 84 00 00       	call   b510 <fibril_rwlock_write_unlock>
    3032:	58                   	pop    %eax
    3033:	8b 45 ac             	mov    -0x54(%ebp),%eax
    3036:	50                   	push   %eax
    3037:	e8 04 26 01 00       	call   15640 <free>
    303c:	58                   	pop    %eax
    303d:	8b 45 a4             	mov    -0x5c(%ebp),%eax
    3040:	5a                   	pop    %edx
    3041:	50                   	push   %eax
    3042:	56                   	push   %esi
    3043:	e8 98 66 01 00       	call   196e0 <async_answer_0>
    3048:	83 c4 10             	add    $0x10,%esp
    304b:	8d 65 f4             	lea    -0xc(%ebp),%esp
    304e:	5b                   	pop    %ebx
    304f:	5e                   	pop    %esi
    3050:	5f                   	pop    %edi
    3051:	5d                   	pop    %ebp
    3052:	c3                   	ret    
    3053:	90                   	nop
    3054:	8d 74 26 00          	lea    0x0(%esi,%eiz,1),%esi
    3058:	83 ec 0c             	sub    $0xc,%esp
    305b:	53                   	push   %ebx
    305c:	e8 2f e7 ff ff       	call   1790 <vfs_node_get>
    3061:	83 c4 10             	add    $0x10,%esp
    3064:	89 c3                	mov    %eax,%ebx
    3066:	85 c0                	test   %eax,%eax
    3068:	74 5f                	je     30c9 <vfs_unmount_srv+0xf9>
    306a:	50                   	push   %eax
    306b:	50                   	push   %eax
    306c:	8b 43 04             	mov    0x4(%ebx),%eax
    306f:	50                   	push   %eax
    3070:	0f bf 03             	movswl (%ebx),%eax
    3073:	50                   	push   %eax
    3074:	e8 67 e9 ff ff       	call   19e0 <vfs_nodes_refcount_sum_get>
    3079:	83 c4 10             	add    $0x10,%esp
    307c:	83 f8 02             	cmp    $0x2,%eax
    307f:	74 71                	je     30f2 <vfs_unmount_srv+0x122>
    3081:	83 ec 0c             	sub    $0xc,%esp
    3084:	68 44 af 02 00       	push   $0x2af44
    3089:	e8 82 84 00 00       	call   b510 <fibril_rwlock_write_unlock>
    308e:	89 1c 24             	mov    %ebx,(%esp)
    3091:	e8 5a e8 ff ff       	call   18f0 <vfs_node_put>
    3096:	8b 4d ac             	mov    -0x54(%ebp),%ecx
    3099:	5a                   	pop    %edx
    309a:	51                   	push   %ecx
    309b:	e8 a0 25 01 00       	call   15640 <free>
    30a0:	5b                   	pop    %ebx
    30a1:	5f                   	pop    %edi
    30a2:	6a f1                	push   $0xfffffff1
    30a4:	56                   	push   %esi
    30a5:	e8 36 66 01 00       	call   196e0 <async_answer_0>
    30aa:	83 c4 10             	add    $0x10,%esp
    30ad:	8d 65 f4             	lea    -0xc(%ebp),%esp
    30b0:	5b                   	pop    %ebx
    30b1:	5e                   	pop    %esi
    30b2:	5f                   	pop    %edi
    30b3:	5d                   	pop    %ebp
    30b4:	c3                   	ret    
    30b5:	8d 76 00             	lea    0x0(%esi),%esi
    30b8:	51                   	push   %ecx
    30b9:	51                   	push   %ecx
    30ba:	50                   	push   %eax
    30bb:	56                   	push   %esi
    30bc:	e8 1f 66 01 00       	call   196e0 <async_answer_0>
    30c1:	83 c4 10             	add    $0x10,%esp
    30c4:	e9 34 ff ff ff       	jmp    2ffd <vfs_unmount_srv+0x2d>
    30c9:	83 ec 0c             	sub    $0xc,%esp
    30cc:	68 44 af 02 00       	push   $0x2af44
    30d1:	e8 3a 84 00 00       	call   b510 <fibril_rwlock_write_unlock>
    30d6:	58                   	pop    %eax
    30d7:	8b 45 ac             	mov    -0x54(%ebp),%eax
    30da:	50                   	push   %eax
    30db:	e8 60 25 01 00       	call   15640 <free>
    30e0:	58                   	pop    %eax
    30e1:	5a                   	pop    %edx
    30e2:	6a fe                	push   $0xfffffffe
    30e4:	56                   	push   %esi
    30e5:	e8 f6 65 01 00       	call   196e0 <async_answer_0>
    30ea:	83 c4 10             	add    $0x10,%esp
    30ed:	e9 59 ff ff ff       	jmp    304b <vfs_unmount_srv+0x7b>
    30f2:	50                   	push   %eax
    30f3:	50                   	push   %eax
    30f4:	8b 45 ac             	mov    -0x54(%ebp),%eax
    30f7:	68 1b 97 02 00       	push   $0x2971b
    30fc:	50                   	push   %eax
    30fd:	e8 ce 36 00 00       	call   67d0 <str_cmp>
    3102:	83 c4 10             	add    $0x10,%esp
    3105:	85 c0                	test   %eax,%eax
    3107:	0f 85 22 01 00 00    	jne    322f <vfs_unmount_srv+0x25f>
    310d:	83 ec 0c             	sub    $0xc,%esp
    3110:	0f bf 03             	movswl (%ebx),%eax
    3113:	50                   	push   %eax
    3114:	e8 e7 23 00 00       	call   5500 <vfs_exchange_grab>
    3119:	83 c4 0c             	add    $0xc,%esp
    311c:	89 c7                	mov    %eax,%edi
    311e:	6a 00                	push   $0x0
    3120:	6a 00                	push   $0x0
    3122:	6a 00                	push   $0x0
    3124:	6a 00                	push   $0x0
    3126:	6a 00                	push   $0x0
    3128:	6a 00                	push   $0x0
    312a:	6a 00                	push   $0x0
    312c:	6a 00                	push   $0x0
    312e:	8b 43 04             	mov    0x4(%ebx),%eax
    3131:	50                   	push   %eax
    3132:	68 08 04 00 00       	push   $0x408
    3137:	57                   	push   %edi
    3138:	e8 f3 5f 01 00       	call   19130 <async_req_fast>
    313d:	83 c4 24             	add    $0x24,%esp
    3140:	89 45 a4             	mov    %eax,-0x5c(%ebp)
    3143:	57                   	push   %edi
    3144:	e8 77 24 00 00       	call   55c0 <vfs_exchange_release>
    3149:	8b 45 a4             	mov    -0x5c(%ebp),%eax
    314c:	83 c4 10             	add    $0x10,%esp
    314f:	85 c0                	test   %eax,%eax
    3151:	0f 85 7c 01 00 00    	jne    32d3 <vfs_unmount_srv+0x303>
    3157:	66 c7 05 68 b2 02 00 	movw   $0x0,0x2b268
    315e:	00 00 
    3160:	c7 05 6c b2 02 00 00 	movl   $0x0,0x2b26c
    3167:	00 00 00 
    316a:	83 ec 0c             	sub    $0xc,%esp
    316d:	53                   	push   %ebx
    316e:	e8 dd e5 ff ff       	call   1750 <vfs_node_forget>
    3173:	c7 04 24 44 af 02 00 	movl   $0x2af44,(%esp)
    317a:	e8 91 83 00 00       	call   b510 <fibril_rwlock_write_unlock>
    317f:	c7 04 24 60 af 02 00 	movl   $0x2af60,(%esp)
    3186:	e8 25 7d 00 00       	call   aeb0 <fibril_mutex_lock>
    318b:	8b 1d 5c af 02 00    	mov    0x2af5c,%ebx
    3191:	83 c4 10             	add    $0x10,%esp
    3194:	81 fb 58 af 02 00    	cmp    $0x2af58,%ebx
    319a:	75 1b                	jne    31b7 <vfs_unmount_srv+0x1e7>
    319c:	e9 57 01 00 00       	jmp    32f8 <vfs_unmount_srv+0x328>
    31a1:	8d b4 26 00 00 00 00 	lea    0x0(%esi,%eiz,1),%esi
    31a8:	8b 5b 04             	mov    0x4(%ebx),%ebx
    31ab:	81 fb 58 af 02 00    	cmp    $0x2af58,%ebx
    31b1:	0f 84 41 01 00 00    	je     32f8 <vfs_unmount_srv+0x328>
    31b7:	50                   	push   %eax
    31b8:	50                   	push   %eax
    31b9:	8b 45 ac             	mov    -0x54(%ebp),%eax
    31bc:	50                   	push   %eax
    31bd:	8d 43 08             	lea    0x8(%ebx),%eax
    31c0:	50                   	push   %eax
    31c1:	e8 0a 36 00 00       	call   67d0 <str_cmp>
    31c6:	83 c4 10             	add    $0x10,%esp
    31c9:	85 c0                	test   %eax,%eax
    31cb:	75 db                	jne    31a8 <vfs_unmount_srv+0x1d8>
    31cd:	8b 13                	mov    (%ebx),%edx
    31cf:	85 d2                	test   %edx,%edx
    31d1:	74 0e                	je     31e1 <vfs_unmount_srv+0x211>
    31d3:	8b 43 04             	mov    0x4(%ebx),%eax
    31d6:	85 c0                	test   %eax,%eax
    31d8:	74 07                	je     31e1 <vfs_unmount_srv+0x211>
    31da:	89 10                	mov    %edx,(%eax)
    31dc:	8b 13                	mov    (%ebx),%edx
    31de:	89 42 04             	mov    %eax,0x4(%edx)
    31e1:	83 ec 0c             	sub    $0xc,%esp
    31e4:	8b 15 70 b2 02 00    	mov    0x2b270,%edx
    31ea:	4a                   	dec    %edx
    31eb:	c7 03 00 00 00 00    	movl   $0x0,(%ebx)
    31f1:	c7 43 04 00 00 00 00 	movl   $0x0,0x4(%ebx)
    31f8:	53                   	push   %ebx
    31f9:	89 15 70 b2 02 00    	mov    %edx,0x2b270
    31ff:	e8 3c 24 01 00       	call   15640 <free>
    3204:	c7 04 24 60 af 02 00 	movl   $0x2af60,(%esp)
    320b:	e8 20 7e 00 00       	call   b030 <fibril_mutex_unlock>
    3210:	8b 5d ac             	mov    -0x54(%ebp),%ebx
    3213:	59                   	pop    %ecx
    3214:	53                   	push   %ebx
    3215:	e8 26 24 01 00       	call   15640 <free>
    321a:	5f                   	pop    %edi
    321b:	58                   	pop    %eax
    321c:	6a 00                	push   $0x0
    321e:	56                   	push   %esi
    321f:	e8 bc 64 01 00       	call   196e0 <async_answer_0>
    3224:	83 c4 10             	add    $0x10,%esp
    3227:	8d 65 f4             	lea    -0xc(%ebp),%esp
    322a:	5b                   	pop    %ebx
    322b:	5e                   	pop    %esi
    322c:	5f                   	pop    %edi
    322d:	5d                   	pop    %ebp
    322e:	c3                   	ret    
    322f:	8b 45 ac             	mov    -0x54(%ebp),%eax
    3232:	8d 7d b0             	lea    -0x50(%ebp),%edi
    3235:	6a 00                	push   $0x0
    3237:	57                   	push   %edi
    3238:	6a 08                	push   $0x8
    323a:	50                   	push   %eax
    323b:	e8 e0 1c 00 00       	call   4f20 <vfs_lookup_internal>
    3240:	83 c4 10             	add    $0x10,%esp
    3243:	89 45 a4             	mov    %eax,-0x5c(%ebp)
    3246:	85 c0                	test   %eax,%eax
    3248:	0f 85 85 00 00 00    	jne    32d3 <vfs_unmount_srv+0x303>
    324e:	83 ec 0c             	sub    $0xc,%esp
    3251:	57                   	push   %edi
    3252:	e8 39 e5 ff ff       	call   1790 <vfs_node_get>
    3257:	83 c4 10             	add    $0x10,%esp
    325a:	89 c7                	mov    %eax,%edi
    325c:	85 c0                	test   %eax,%eax
    325e:	0f 84 c2 00 00 00    	je     3326 <vfs_unmount_srv+0x356>
    3264:	83 ec 0c             	sub    $0xc,%esp
    3267:	0f bf 00             	movswl (%eax),%eax
    326a:	50                   	push   %eax
    326b:	e8 90 22 00 00       	call   5500 <vfs_exchange_grab>
    3270:	83 c4 0c             	add    $0xc,%esp
    3273:	89 c2                	mov    %eax,%edx
    3275:	89 55 a0             	mov    %edx,-0x60(%ebp)
    3278:	6a 00                	push   $0x0
    327a:	6a 00                	push   $0x0
    327c:	6a 00                	push   $0x0
    327e:	6a 00                	push   $0x0
    3280:	6a 00                	push   $0x0
    3282:	6a 00                	push   $0x0
    3284:	6a 00                	push   $0x0
    3286:	8b 47 08             	mov    0x8(%edi),%eax
    3289:	50                   	push   %eax
    328a:	8b 47 04             	mov    0x4(%edi),%eax
    328d:	50                   	push   %eax
    328e:	68 07 04 00 00       	push   $0x407
    3293:	52                   	push   %edx
    3294:	e8 97 5e 01 00       	call   19130 <async_req_fast>
    3299:	83 c4 24             	add    $0x24,%esp
    329c:	8b 55 a0             	mov    -0x60(%ebp),%edx
    329f:	89 45 a4             	mov    %eax,-0x5c(%ebp)
    32a2:	52                   	push   %edx
    32a3:	e8 18 23 00 00       	call   55c0 <vfs_exchange_release>
    32a8:	8b 45 a4             	mov    -0x5c(%ebp),%eax
    32ab:	83 c4 10             	add    $0x10,%esp
    32ae:	85 c0                	test   %eax,%eax
    32b0:	74 5b                	je     330d <vfs_unmount_srv+0x33d>
    32b2:	83 ec 0c             	sub    $0xc,%esp
    32b5:	68 44 af 02 00       	push   $0x2af44
    32ba:	e8 51 82 00 00       	call   b510 <fibril_rwlock_write_unlock>
    32bf:	8b 45 ac             	mov    -0x54(%ebp),%eax
    32c2:	59                   	pop    %ecx
    32c3:	50                   	push   %eax
    32c4:	e8 77 23 01 00       	call   15640 <free>
    32c9:	89 3c 24             	mov    %edi,(%esp)
    32cc:	e8 1f e6 ff ff       	call   18f0 <vfs_node_put>
    32d1:	eb 17                	jmp    32ea <vfs_unmount_srv+0x31a>
    32d3:	83 ec 0c             	sub    $0xc,%esp
    32d6:	68 44 af 02 00       	push   $0x2af44
    32db:	e8 30 82 00 00       	call   b510 <fibril_rwlock_write_unlock>
    32e0:	58                   	pop    %eax
    32e1:	8b 45 ac             	mov    -0x54(%ebp),%eax
    32e4:	50                   	push   %eax
    32e5:	e8 56 23 01 00       	call   15640 <free>
    32ea:	89 1c 24             	mov    %ebx,(%esp)
    32ed:	e8 fe e5 ff ff       	call   18f0 <vfs_node_put>
    32f2:	e9 45 fd ff ff       	jmp    303c <vfs_unmount_srv+0x6c>
    32f7:	90                   	nop
    32f8:	50                   	push   %eax
    32f9:	68 2f 02 00 00       	push   $0x22f
    32fe:	68 d0 77 02 00       	push   $0x277d0
    3303:	68 ef 77 02 00       	push   $0x277ef
    3308:	e8 c3 e2 01 00       	call   215d0 <assert_abort>
    330d:	83 ec 0c             	sub    $0xc,%esp
    3310:	57                   	push   %edi
    3311:	e8 da e5 ff ff       	call   18f0 <vfs_node_put>
    3316:	89 3c 24             	mov    %edi,(%esp)
    3319:	e8 d2 e5 ff ff       	call   18f0 <vfs_node_put>
    331e:	83 c4 10             	add    $0x10,%esp
    3321:	e9 44 fe ff ff       	jmp    316a <vfs_unmount_srv+0x19a>
    3326:	83 ec 0c             	sub    $0xc,%esp
    3329:	68 44 af 02 00       	push   $0x2af44
    332e:	e8 dd 81 00 00       	call   b510 <fibril_rwlock_write_unlock>
    3333:	8b 7d ac             	mov    -0x54(%ebp),%edi
    3336:	59                   	pop    %ecx
    3337:	57                   	push   %edi
    3338:	e8 03 23 01 00       	call   15640 <free>
    333d:	89 1c 24             	mov    %ebx,(%esp)
    3340:	e8 ab e5 ff ff       	call   18f0 <vfs_node_put>
    3345:	e9 96 fd ff ff       	jmp    30e0 <vfs_unmount_srv+0x110>
    334a:	8d b6 00 00 00 00    	lea    0x0(%esi),%esi

00003350 <vfs_open>:
    3350:	55                   	push   %ebp
    3351:	89 e5                	mov    %esp,%ebp
    3353:	57                   	push   %edi
    3354:	56                   	push   %esi
    3355:	53                   	push   %ebx
    3356:	83 ec 3c             	sub    $0x3c,%esp
    3359:	8b 45 0c             	mov    0xc(%ebp),%eax
    335c:	8b 70 04             	mov    0x4(%eax),%esi
    335f:	89 f2                	mov    %esi,%edx
    3361:	83 e2 03             	and    $0x3,%edx
    3364:	74 0d                	je     3373 <vfs_open+0x23>
    3366:	83 fa 03             	cmp    $0x3,%edx
    3369:	74 08                	je     3373 <vfs_open+0x23>
    336b:	f7 c6 0c 01 00 00    	test   $0x10c,%esi
    3371:	74 1d                	je     3390 <vfs_open+0x40>
    3373:	50                   	push   %eax
    3374:	50                   	push   %eax
    3375:	8b 45 08             	mov    0x8(%ebp),%eax
    3378:	6a f2                	push   $0xfffffff2
    337a:	50                   	push   %eax
    337b:	e8 60 63 01 00       	call   196e0 <async_answer_0>
    3380:	83 c4 10             	add    $0x10,%esp
    3383:	8d 65 f4             	lea    -0xc(%ebp),%esp
    3386:	5b                   	pop    %ebx
    3387:	5e                   	pop    %esi
    3388:	5f                   	pop    %edi
    3389:	5d                   	pop    %ebp
    338a:	c3                   	ret    
    338b:	90                   	nop
    338c:	8d 74 26 00          	lea    0x0(%esi,%eiz,1),%esi
    3390:	8b 58 08             	mov    0x8(%eax),%ebx
    3393:	f6 c3 01             	test   $0x1,%bl
    3396:	74 03                	je     339b <vfs_open+0x4b>
    3398:	83 ce 20             	or     $0x20,%esi
    339b:	f6 c3 02             	test   $0x2,%bl
    339e:	0f 85 94 00 00 00    	jne    3438 <vfs_open+0xe8>
    33a4:	8d 45 c8             	lea    -0x38(%ebp),%eax
    33a7:	57                   	push   %edi
    33a8:	57                   	push   %edi
    33a9:	6a 00                	push   $0x0
    33ab:	6a 00                	push   $0x0
    33ad:	6a 00                	push   $0x0
    33af:	6a 00                	push   $0x0
    33b1:	6a 01                	push   $0x1
    33b3:	50                   	push   %eax
    33b4:	e8 97 7f 01 00       	call   1b350 <async_data_write_accept>
    33b9:	83 c4 20             	add    $0x20,%esp
    33bc:	85 c0                	test   %eax,%eax
    33be:	0f 85 c4 00 00 00    	jne    3488 <vfs_open+0x138>
    33c4:	f7 c6 20 00 00 00    	test   $0x20,%esi
    33ca:	75 74                	jne    3440 <vfs_open+0xf0>
    33cc:	83 ec 0c             	sub    $0xc,%esp
    33cf:	81 ce 00 01 00 00    	or     $0x100,%esi
    33d5:	8d 7d cc             	lea    -0x34(%ebp),%edi
    33d8:	68 44 af 02 00       	push   $0x2af44
    33dd:	e8 ae 7e 00 00       	call   b290 <fibril_rwlock_read_lock>
    33e2:	8b 45 c8             	mov    -0x38(%ebp),%eax
    33e5:	6a 00                	push   $0x0
    33e7:	57                   	push   %edi
    33e8:	56                   	push   %esi
    33e9:	50                   	push   %eax
    33ea:	e8 31 1b 00 00       	call   4f20 <vfs_lookup_internal>
    33ef:	83 c4 20             	add    $0x20,%esp
    33f2:	85 c0                	test   %eax,%eax
    33f4:	0f 84 a6 00 00 00    	je     34a0 <vfs_open+0x150>
    33fa:	83 ec 0c             	sub    $0xc,%esp
    33fd:	89 45 c4             	mov    %eax,-0x3c(%ebp)
    3400:	68 44 af 02 00       	push   $0x2af44
    3405:	e8 66 80 00 00       	call   b470 <fibril_rwlock_read_unlock>
    340a:	83 c4 10             	add    $0x10,%esp
    340d:	8b 45 c4             	mov    -0x3c(%ebp),%eax
    3410:	8b 4d 08             	mov    0x8(%ebp),%ecx
    3413:	52                   	push   %edx
    3414:	52                   	push   %edx
    3415:	50                   	push   %eax
    3416:	51                   	push   %ecx
    3417:	e8 c4 62 01 00       	call   196e0 <async_answer_0>
    341c:	8b 75 c8             	mov    -0x38(%ebp),%esi
    341f:	5b                   	pop    %ebx
    3420:	56                   	push   %esi
    3421:	e8 1a 22 01 00       	call   15640 <free>
    3426:	83 c4 10             	add    $0x10,%esp
    3429:	8d 65 f4             	lea    -0xc(%ebp),%esp
    342c:	5b                   	pop    %ebx
    342d:	5e                   	pop    %esi
    342e:	5f                   	pop    %edi
    342f:	5d                   	pop    %ebp
    3430:	c3                   	ret    
    3431:	8d b4 26 00 00 00 00 	lea    0x0(%esi,%eiz,1),%esi
    3438:	83 ce 10             	or     $0x10,%esi
    343b:	e9 64 ff ff ff       	jmp    33a4 <vfs_open+0x54>
    3440:	83 ec 0c             	sub    $0xc,%esp
    3443:	81 ce 00 01 00 00    	or     $0x100,%esi
    3449:	8d 7d cc             	lea    -0x34(%ebp),%edi
    344c:	68 44 af 02 00       	push   $0x2af44
    3451:	e8 3a 7f 00 00       	call   b390 <fibril_rwlock_write_lock>
    3456:	8b 45 c8             	mov    -0x38(%ebp),%eax
    3459:	6a 00                	push   $0x0
    345b:	57                   	push   %edi
    345c:	56                   	push   %esi
    345d:	50                   	push   %eax
    345e:	e8 bd 1a 00 00       	call   4f20 <vfs_lookup_internal>
    3463:	83 c4 20             	add    $0x20,%esp
    3466:	85 c0                	test   %eax,%eax
    3468:	0f 84 72 01 00 00    	je     35e0 <vfs_open+0x290>
    346e:	83 ec 0c             	sub    $0xc,%esp
    3471:	89 45 c4             	mov    %eax,-0x3c(%ebp)
    3474:	68 44 af 02 00       	push   $0x2af44
    3479:	e8 92 80 00 00       	call   b510 <fibril_rwlock_write_unlock>
    347e:	83 c4 10             	add    $0x10,%esp
    3481:	8b 45 c4             	mov    -0x3c(%ebp),%eax
    3484:	eb 8a                	jmp    3410 <vfs_open+0xc0>
    3486:	66 90                	xchg   %ax,%ax
    3488:	8b 4d 08             	mov    0x8(%ebp),%ecx
    348b:	52                   	push   %edx
    348c:	52                   	push   %edx
    348d:	50                   	push   %eax
    348e:	51                   	push   %ecx
    348f:	e8 4c 62 01 00       	call   196e0 <async_answer_0>
    3494:	83 c4 10             	add    $0x10,%esp
    3497:	8d 65 f4             	lea    -0xc(%ebp),%esp
    349a:	5b                   	pop    %ebx
    349b:	5e                   	pop    %esi
    349c:	5f                   	pop    %edi
    349d:	5d                   	pop    %ebp
    349e:	c3                   	ret    
    349f:	90                   	nop
    34a0:	83 ec 0c             	sub    $0xc,%esp
    34a3:	8b 45 c8             	mov    -0x38(%ebp),%eax
    34a6:	50                   	push   %eax
    34a7:	e8 94 21 01 00       	call   15640 <free>
    34ac:	89 3c 24             	mov    %edi,(%esp)
    34af:	e8 dc e2 ff ff       	call   1790 <vfs_node_get>
    34b4:	c7 04 24 44 af 02 00 	movl   $0x2af44,(%esp)
    34bb:	89 c6                	mov    %eax,%esi
    34bd:	e8 ae 7f 00 00       	call   b470 <fibril_rwlock_read_unlock>
    34c2:	83 c4 10             	add    $0x10,%esp
    34c5:	85 f6                	test   %esi,%esi
    34c7:	0f 84 60 01 00 00    	je     362d <vfs_open+0x2dd>
    34cd:	f6 c3 04             	test   $0x4,%bl
    34d0:	0f 84 8f 00 00 00    	je     3565 <vfs_open+0x215>
    34d6:	83 ec 0c             	sub    $0xc,%esp
    34d9:	8d 7e 28             	lea    0x28(%esi),%edi
    34dc:	57                   	push   %edi
    34dd:	e8 ae 7e 00 00       	call   b390 <fibril_rwlock_write_lock>
    34e2:	8b 46 24             	mov    0x24(%esi),%eax
    34e5:	83 c4 10             	add    $0x10,%esp
    34e8:	0b 46 20             	or     0x20(%esi),%eax
    34eb:	74 6c                	je     3559 <vfs_open+0x209>
    34ed:	8b 46 04             	mov    0x4(%esi),%eax
    34f0:	83 ec 0c             	sub    $0xc,%esp
    34f3:	89 45 c4             	mov    %eax,-0x3c(%ebp)
    34f6:	8b 4e 08             	mov    0x8(%esi),%ecx
    34f9:	0f bf 06             	movswl (%esi),%eax
    34fc:	89 4d c0             	mov    %ecx,-0x40(%ebp)
    34ff:	50                   	push   %eax
    3500:	e8 fb 1f 00 00       	call   5500 <vfs_exchange_grab>
    3505:	83 c4 0c             	add    $0xc,%esp
    3508:	89 c2                	mov    %eax,%edx
    350a:	8b 4d c0             	mov    -0x40(%ebp),%ecx
    350d:	8b 45 c4             	mov    -0x3c(%ebp),%eax
    3510:	6a 00                	push   $0x0
    3512:	89 55 c0             	mov    %edx,-0x40(%ebp)
    3515:	6a 00                	push   $0x0
    3517:	6a 00                	push   $0x0
    3519:	6a 00                	push   $0x0
    351b:	6a 00                	push   $0x0
    351d:	6a 00                	push   $0x0
    351f:	6a 00                	push   $0x0
    3521:	51                   	push   %ecx
    3522:	50                   	push   %eax
    3523:	68 03 04 00 00       	push   $0x403
    3528:	52                   	push   %edx
    3529:	e8 02 5c 01 00       	call   19130 <async_req_fast>
    352e:	83 c4 24             	add    $0x24,%esp
    3531:	8b 55 c0             	mov    -0x40(%ebp),%edx
    3534:	89 45 c4             	mov    %eax,-0x3c(%ebp)
    3537:	52                   	push   %edx
    3538:	e8 83 20 00 00       	call   55c0 <vfs_exchange_release>
    353d:	8b 45 c4             	mov    -0x3c(%ebp),%eax
    3540:	83 c4 10             	add    $0x10,%esp
    3543:	85 c0                	test   %eax,%eax
    3545:	0f 85 f7 00 00 00    	jne    3642 <vfs_open+0x2f2>
    354b:	c7 46 20 00 00 00 00 	movl   $0x0,0x20(%esi)
    3552:	c7 46 24 00 00 00 00 	movl   $0x0,0x24(%esi)
    3559:	83 ec 0c             	sub    $0xc,%esp
    355c:	57                   	push   %edi
    355d:	e8 ae 7f 00 00       	call   b510 <fibril_rwlock_write_unlock>
    3562:	83 c4 10             	add    $0x10,%esp
    3565:	89 d8                	mov    %ebx,%eax
    3567:	83 ec 0c             	sub    $0xc,%esp
    356a:	c1 e8 07             	shr    $0x7,%eax
    356d:	83 e0 01             	and    $0x1,%eax
    3570:	50                   	push   %eax
    3571:	e8 7a e9 ff ff       	call   1ef0 <vfs_fd_alloc>
    3576:	83 c4 10             	add    $0x10,%esp
    3579:	89 c7                	mov    %eax,%edi
    357b:	85 c0                	test   %eax,%eax
    357d:	0f 88 8d 00 00 00    	js     3610 <vfs_open+0x2c0>
    3583:	83 ec 0c             	sub    $0xc,%esp
    3586:	50                   	push   %eax
    3587:	e8 44 ec ff ff       	call   21d0 <vfs_file_get>
    358c:	83 c4 10             	add    $0x10,%esp
    358f:	85 c0                	test   %eax,%eax
    3591:	0f 84 d3 00 00 00    	je     366a <vfs_open+0x31a>
    3597:	89 70 10             	mov    %esi,0x10(%eax)
    359a:	83 e3 08             	and    $0x8,%ebx
    359d:	74 04                	je     35a3 <vfs_open+0x253>
    359f:	c6 40 18 01          	movb   $0x1,0x18(%eax)
    35a3:	83 ec 0c             	sub    $0xc,%esp
    35a6:	89 45 c4             	mov    %eax,-0x3c(%ebp)
    35a9:	56                   	push   %esi
    35aa:	e8 81 e0 ff ff       	call   1630 <vfs_node_addref>
    35af:	89 34 24             	mov    %esi,(%esp)
    35b2:	e8 39 e3 ff ff       	call   18f0 <vfs_node_put>
    35b7:	8b 45 c4             	mov    -0x3c(%ebp),%eax
    35ba:	89 04 24             	mov    %eax,(%esp)
    35bd:	e8 ce ec ff ff       	call   2290 <vfs_file_put>
    35c2:	83 c4 0c             	add    $0xc,%esp
    35c5:	8b 55 08             	mov    0x8(%ebp),%edx
    35c8:	57                   	push   %edi
    35c9:	6a 00                	push   $0x0
    35cb:	52                   	push   %edx
    35cc:	e8 2f 61 01 00       	call   19700 <async_answer_1>
    35d1:	83 c4 10             	add    $0x10,%esp
    35d4:	e9 aa fd ff ff       	jmp    3383 <vfs_open+0x33>
    35d9:	8d b4 26 00 00 00 00 	lea    0x0(%esi,%eiz,1),%esi
    35e0:	83 ec 0c             	sub    $0xc,%esp
    35e3:	8b 45 c8             	mov    -0x38(%ebp),%eax
    35e6:	50                   	push   %eax
    35e7:	e8 54 20 01 00       	call   15640 <free>
    35ec:	89 3c 24             	mov    %edi,(%esp)
    35ef:	e8 9c e1 ff ff       	call   1790 <vfs_node_get>
    35f4:	c7 04 24 44 af 02 00 	movl   $0x2af44,(%esp)
    35fb:	89 c6                	mov    %eax,%esi
    35fd:	e8 0e 7f 00 00       	call   b510 <fibril_rwlock_write_unlock>
    3602:	83 c4 10             	add    $0x10,%esp
    3605:	e9 bb fe ff ff       	jmp    34c5 <vfs_open+0x175>
    360a:	8d b6 00 00 00 00    	lea    0x0(%esi),%esi
    3610:	83 ec 0c             	sub    $0xc,%esp
    3613:	56                   	push   %esi
    3614:	e8 d7 e2 ff ff       	call   18f0 <vfs_node_put>
    3619:	5b                   	pop    %ebx
    361a:	5e                   	pop    %esi
    361b:	57                   	push   %edi
    361c:	8b 7d 08             	mov    0x8(%ebp),%edi
    361f:	57                   	push   %edi
    3620:	e8 bb 60 01 00       	call   196e0 <async_answer_0>
    3625:	83 c4 10             	add    $0x10,%esp
    3628:	e9 56 fd ff ff       	jmp    3383 <vfs_open+0x33>
    362d:	50                   	push   %eax
    362e:	50                   	push   %eax
    362f:	8b 45 08             	mov    0x8(%ebp),%eax
    3632:	6a fe                	push   $0xfffffffe
    3634:	50                   	push   %eax
    3635:	e8 a6 60 01 00       	call   196e0 <async_answer_0>
    363a:	83 c4 10             	add    $0x10,%esp
    363d:	e9 41 fd ff ff       	jmp    3383 <vfs_open+0x33>
    3642:	83 ec 0c             	sub    $0xc,%esp
    3645:	57                   	push   %edi
    3646:	e8 c5 7e 00 00       	call   b510 <fibril_rwlock_write_unlock>
    364b:	89 34 24             	mov    %esi,(%esp)
    364e:	e8 9d e2 ff ff       	call   18f0 <vfs_node_put>
    3653:	58                   	pop    %eax
    3654:	8b 4d 08             	mov    0x8(%ebp),%ecx
    3657:	8b 45 c4             	mov    -0x3c(%ebp),%eax
    365a:	5a                   	pop    %edx
    365b:	50                   	push   %eax
    365c:	51                   	push   %ecx
    365d:	e8 7e 60 01 00       	call   196e0 <async_answer_0>
    3662:	83 c4 10             	add    $0x10,%esp
    3665:	e9 19 fd ff ff       	jmp    3383 <vfs_open+0x33>
    366a:	51                   	push   %ecx
    366b:	68 a1 02 00 00       	push   $0x2a1
    3670:	68 d0 77 02 00       	push   $0x277d0
    3675:	68 a2 77 02 00       	push   $0x277a2
    367a:	e8 51 df 01 00       	call   215d0 <assert_abort>
    367f:	90                   	nop

00003680 <vfs_sync>:
    3680:	55                   	push   %ebp
    3681:	89 e5                	mov    %esp,%ebp
    3683:	57                   	push   %edi
    3684:	56                   	push   %esi
    3685:	53                   	push   %ebx
    3686:	83 ec 48             	sub    $0x48,%esp
    3689:	8b 45 0c             	mov    0xc(%ebp),%eax
    368c:	8b 40 04             	mov    0x4(%eax),%eax
    368f:	50                   	push   %eax
    3690:	e8 3b eb ff ff       	call   21d0 <vfs_file_get>
    3695:	83 c4 10             	add    $0x10,%esp
    3698:	85 c0                	test   %eax,%eax
    369a:	0f 84 80 00 00 00    	je     3720 <vfs_sync+0xa0>
    36a0:	89 c3                	mov    %eax,%ebx
    36a2:	83 ec 0c             	sub    $0xc,%esp
    36a5:	50                   	push   %eax
    36a6:	e8 05 78 00 00       	call   aeb0 <fibril_mutex_lock>
    36ab:	8b 43 10             	mov    0x10(%ebx),%eax
    36ae:	0f bf 00             	movswl (%eax),%eax
    36b1:	89 04 24             	mov    %eax,(%esp)
    36b4:	e8 47 1e 00 00       	call   5500 <vfs_exchange_grab>
    36b9:	83 c4 0c             	add    $0xc,%esp
    36bc:	89 c6                	mov    %eax,%esi
    36be:	8d 55 c4             	lea    -0x3c(%ebp),%edx
    36c1:	8b 43 10             	mov    0x10(%ebx),%eax
    36c4:	52                   	push   %edx
    36c5:	6a 00                	push   $0x0
    36c7:	6a 00                	push   $0x0
    36c9:	8b 50 08             	mov    0x8(%eax),%edx
    36cc:	52                   	push   %edx
    36cd:	8b 48 04             	mov    0x4(%eax),%ecx
    36d0:	51                   	push   %ecx
    36d1:	68 09 04 00 00       	push   $0x409
    36d6:	56                   	push   %esi
    36d7:	e8 94 4f 01 00       	call   18670 <async_send_fast>
    36dc:	83 c4 14             	add    $0x14,%esp
    36df:	89 c7                	mov    %eax,%edi
    36e1:	56                   	push   %esi
    36e2:	e8 d9 1e 00 00       	call   55c0 <vfs_exchange_release>
    36e7:	5e                   	pop    %esi
    36e8:	58                   	pop    %eax
    36e9:	8d 45 c0             	lea    -0x40(%ebp),%eax
    36ec:	50                   	push   %eax
    36ed:	57                   	push   %edi
    36ee:	e8 fd 50 01 00       	call   187f0 <async_wait_for>
    36f3:	89 1c 24             	mov    %ebx,(%esp)
    36f6:	e8 35 79 00 00       	call   b030 <fibril_mutex_unlock>
    36fb:	89 1c 24             	mov    %ebx,(%esp)
    36fe:	e8 8d eb ff ff       	call   2290 <vfs_file_put>
    3703:	8b 5d 08             	mov    0x8(%ebp),%ebx
    3706:	8b 4d c0             	mov    -0x40(%ebp),%ecx
    3709:	58                   	pop    %eax
    370a:	5a                   	pop    %edx
    370b:	51                   	push   %ecx
    370c:	53                   	push   %ebx
    370d:	e8 ce 5f 01 00       	call   196e0 <async_answer_0>
    3712:	83 c4 10             	add    $0x10,%esp
    3715:	8d 65 f4             	lea    -0xc(%ebp),%esp
    3718:	5b                   	pop    %ebx
    3719:	5e                   	pop    %esi
    371a:	5f                   	pop    %edi
    371b:	5d                   	pop    %ebp
    371c:	c3                   	ret    
    371d:	8d 76 00             	lea    0x0(%esi),%esi
    3720:	8b 7d 08             	mov    0x8(%ebp),%edi
    3723:	56                   	push   %esi
    3724:	56                   	push   %esi
    3725:	6a ff                	push   $0xffffffff
    3727:	57                   	push   %edi
    3728:	e8 b3 5f 01 00       	call   196e0 <async_answer_0>
    372d:	83 c4 10             	add    $0x10,%esp
    3730:	8d 65 f4             	lea    -0xc(%ebp),%esp
    3733:	5b                   	pop    %ebx
    3734:	5e                   	pop    %esi
    3735:	5f                   	pop    %edi
    3736:	5d                   	pop    %ebp
    3737:	c3                   	ret    
    3738:	90                   	nop
    3739:	8d b4 26 00 00 00 00 	lea    0x0(%esi,%eiz,1),%esi

00003740 <vfs_close>:
    3740:	55                   	push   %ebp
    3741:	89 e5                	mov    %esp,%ebp
    3743:	53                   	push   %ebx
    3744:	83 ec 10             	sub    $0x10,%esp
    3747:	8b 45 0c             	mov    0xc(%ebp),%eax
    374a:	8b 5d 08             	mov    0x8(%ebp),%ebx
    374d:	8b 40 04             	mov    0x4(%eax),%eax
    3750:	50                   	push   %eax
    3751:	e8 ba e7 ff ff       	call   1f10 <vfs_fd_free>
    3756:	89 5d 08             	mov    %ebx,0x8(%ebp)
    3759:	83 c4 10             	add    $0x10,%esp
    375c:	8b 5d fc             	mov    -0x4(%ebp),%ebx
    375f:	89 45 0c             	mov    %eax,0xc(%ebp)
    3762:	c9                   	leave  
    3763:	e9 78 5f 01 00       	jmp    196e0 <async_answer_0>
    3768:	90                   	nop
    3769:	8d b4 26 00 00 00 00 	lea    0x0(%esi,%eiz,1),%esi

00003770 <vfs_rdwr_internal>:
    3770:	55                   	push   %ebp
    3771:	89 e5                	mov    %esp,%ebp
    3773:	57                   	push   %edi
    3774:	56                   	push   %esi
    3775:	53                   	push   %ebx
    3776:	83 ec 58             	sub    $0x58,%esp
    3779:	8b 45 0c             	mov    0xc(%ebp),%eax
    377c:	8b 75 08             	mov    0x8(%ebp),%esi
    377f:	56                   	push   %esi
    3780:	89 45 b4             	mov    %eax,-0x4c(%ebp)
    3783:	e8 48 ea ff ff       	call   21d0 <vfs_file_get>
    3788:	83 c4 10             	add    $0x10,%esp
    378b:	85 c0                	test   %eax,%eax
    378d:	0f 84 7d 02 00 00    	je     3a10 <vfs_rdwr_internal+0x2a0>
    3793:	83 ec 0c             	sub    $0xc,%esp
    3796:	89 c3                	mov    %eax,%ebx
    3798:	50                   	push   %eax
    3799:	e8 12 77 00 00       	call   aeb0 <fibril_mutex_lock>
    379e:	8b 43 10             	mov    0x10(%ebx),%eax
    37a1:	0f bf 00             	movswl (%eax),%eax
    37a4:	89 04 24             	mov    %eax,(%esp)
    37a7:	e8 b4 1e 00 00       	call   5660 <fs_handle_to_info>
    37ac:	83 c4 10             	add    $0x10,%esp
    37af:	89 c7                	mov    %eax,%edi
    37b1:	85 c0                	test   %eax,%eax
    37b3:	0f 84 67 02 00 00    	je     3a20 <vfs_rdwr_internal+0x2b0>
    37b9:	80 7d b4 00          	cmpb   $0x0,-0x4c(%ebp)
    37bd:	0f 85 dd 01 00 00    	jne    39a0 <vfs_rdwr_internal+0x230>
    37c3:	80 78 1c 00          	cmpb   $0x0,0x1c(%eax)
    37c7:	0f 84 63 01 00 00    	je     3930 <vfs_rdwr_internal+0x1c0>
    37cd:	80 78 1d 00          	cmpb   $0x0,0x1d(%eax)
    37d1:	0f 84 59 01 00 00    	je     3930 <vfs_rdwr_internal+0x1c0>
    37d7:	83 ec 0c             	sub    $0xc,%esp
    37da:	8b 43 10             	mov    0x10(%ebx),%eax
    37dd:	83 c0 28             	add    $0x28,%eax
    37e0:	50                   	push   %eax
    37e1:	e8 aa 7a 00 00       	call   b290 <fibril_rwlock_read_lock>
    37e6:	8b 43 10             	mov    0x10(%ebx),%eax
    37e9:	83 c4 10             	add    $0x10,%esp
    37ec:	83 78 1c 02          	cmpl   $0x2,0x1c(%eax)
    37f0:	0f 84 59 01 00 00    	je     394f <vfs_rdwr_internal+0x1df>
    37f6:	83 ec 0c             	sub    $0xc,%esp
    37f9:	0f bf 00             	movswl (%eax),%eax
    37fc:	50                   	push   %eax
    37fd:	e8 fe 1c 00 00       	call   5500 <vfs_exchange_grab>
    3802:	83 c4 10             	add    $0x10,%esp
    3805:	89 c6                	mov    %eax,%esi
    3807:	80 7b 18 00          	cmpb   $0x0,0x18(%ebx)
    380b:	74 0f                	je     381c <vfs_rdwr_internal+0xac>
    380d:	8b 43 10             	mov    0x10(%ebx),%eax
    3810:	8b 50 24             	mov    0x24(%eax),%edx
    3813:	8b 40 20             	mov    0x20(%eax),%eax
    3816:	89 43 1c             	mov    %eax,0x1c(%ebx)
    3819:	89 53 20             	mov    %edx,0x20(%ebx)
    381c:	85 f6                	test   %esi,%esi
    381e:	0f 84 f4 01 00 00    	je     3a18 <vfs_rdwr_internal+0x2a8>
    3824:	8b 53 10             	mov    0x10(%ebx),%edx
    3827:	51                   	push   %ecx
    3828:	8d 4d c4             	lea    -0x3c(%ebp),%ecx
    382b:	31 c0                	xor    %eax,%eax
    382d:	51                   	push   %ecx
    382e:	8b 4b 20             	mov    0x20(%ebx),%ecx
    3831:	51                   	push   %ecx
    3832:	8b 4b 1c             	mov    0x1c(%ebx),%ecx
    3835:	51                   	push   %ecx
    3836:	8b 4a 08             	mov    0x8(%edx),%ecx
    3839:	51                   	push   %ecx
    383a:	80 7d b4 00          	cmpb   $0x0,-0x4c(%ebp)
    383e:	0f 94 c0             	sete   %al
    3841:	8b 52 04             	mov    0x4(%edx),%edx
    3844:	05 01 04 00 00       	add    $0x401,%eax
    3849:	52                   	push   %edx
    384a:	50                   	push   %eax
    384b:	56                   	push   %esi
    384c:	e8 1f 4e 01 00       	call   18670 <async_send_fast>
    3851:	83 c4 20             	add    $0x20,%esp
    3854:	89 45 b0             	mov    %eax,-0x50(%ebp)
    3857:	85 c0                	test   %eax,%eax
    3859:	0f 84 a1 01 00 00    	je     3a00 <vfs_rdwr_internal+0x290>
    385f:	8b 45 10             	mov    0x10(%ebp),%eax
    3862:	52                   	push   %edx
    3863:	8b 48 04             	mov    0x4(%eax),%ecx
    3866:	8b 00                	mov    (%eax),%eax
    3868:	51                   	push   %ecx
    3869:	50                   	push   %eax
    386a:	56                   	push   %esi
    386b:	e8 10 74 01 00       	call   1ac80 <async_data_read_start>
    3870:	83 c4 10             	add    $0x10,%esp
    3873:	8b 55 b0             	mov    -0x50(%ebp),%edx
    3876:	85 c0                	test   %eax,%eax
    3878:	0f 85 0a 01 00 00    	jne    3988 <vfs_rdwr_internal+0x218>
    387e:	50                   	push   %eax
    387f:	50                   	push   %eax
    3880:	8d 45 c0             	lea    -0x40(%ebp),%eax
    3883:	50                   	push   %eax
    3884:	52                   	push   %edx
    3885:	e8 66 4f 01 00       	call   187f0 <async_wait_for>
    388a:	8b 4d 10             	mov    0x10(%ebp),%ecx
    388d:	8b 45 c8             	mov    -0x38(%ebp),%eax
    3890:	83 c4 10             	add    $0x10,%esp
    3893:	89 41 04             	mov    %eax,0x4(%ecx)
    3896:	8b 45 c0             	mov    -0x40(%ebp),%eax
    3899:	83 ec 0c             	sub    $0xc,%esp
    389c:	89 45 b0             	mov    %eax,-0x50(%ebp)
    389f:	56                   	push   %esi
    38a0:	e8 1b 1d 00 00       	call   55c0 <vfs_exchange_release>
    38a5:	8b 53 10             	mov    0x10(%ebx),%edx
    38a8:	8b 45 c8             	mov    -0x38(%ebp),%eax
    38ab:	89 45 ac             	mov    %eax,-0x54(%ebp)
    38ae:	83 c4 10             	add    $0x10,%esp
    38b1:	8b 45 b0             	mov    -0x50(%ebp),%eax
    38b4:	83 7a 1c 02          	cmpl   $0x2,0x1c(%edx)
    38b8:	0f 84 22 01 00 00    	je     39e0 <vfs_rdwr_internal+0x270>
    38be:	80 7d b4 00          	cmpb   $0x0,-0x4c(%ebp)
    38c2:	0f 85 a0 00 00 00    	jne    3968 <vfs_rdwr_internal+0x1f8>
    38c8:	80 7f 1c 00          	cmpb   $0x0,0x1c(%edi)
    38cc:	74 0a                	je     38d8 <vfs_rdwr_internal+0x168>
    38ce:	80 7f 1d 00          	cmpb   $0x0,0x1d(%edi)
    38d2:	0f 85 90 00 00 00    	jne    3968 <vfs_rdwr_internal+0x1f8>
    38d8:	85 c0                	test   %eax,%eax
    38da:	75 0c                	jne    38e8 <vfs_rdwr_internal+0x178>
    38dc:	8b 75 cc             	mov    -0x34(%ebp),%esi
    38df:	8b 7d d0             	mov    -0x30(%ebp),%edi
    38e2:	89 72 20             	mov    %esi,0x20(%edx)
    38e5:	89 7a 24             	mov    %edi,0x24(%edx)
    38e8:	83 ec 0c             	sub    $0xc,%esp
    38eb:	83 c2 28             	add    $0x28,%edx
    38ee:	89 45 b4             	mov    %eax,-0x4c(%ebp)
    38f1:	52                   	push   %edx
    38f2:	e8 19 7c 00 00       	call   b510 <fibril_rwlock_write_unlock>
    38f7:	83 c4 10             	add    $0x10,%esp
    38fa:	8b 45 b4             	mov    -0x4c(%ebp),%eax
    38fd:	85 c0                	test   %eax,%eax
    38ff:	75 0b                	jne    390c <vfs_rdwr_internal+0x19c>
    3901:	8b 75 ac             	mov    -0x54(%ebp),%esi
    3904:	31 ff                	xor    %edi,%edi
    3906:	01 73 1c             	add    %esi,0x1c(%ebx)
    3909:	11 7b 20             	adc    %edi,0x20(%ebx)
    390c:	83 ec 0c             	sub    $0xc,%esp
    390f:	89 45 b4             	mov    %eax,-0x4c(%ebp)
    3912:	53                   	push   %ebx
    3913:	e8 18 77 00 00       	call   b030 <fibril_mutex_unlock>
    3918:	89 1c 24             	mov    %ebx,(%esp)
    391b:	e8 70 e9 ff ff       	call   2290 <vfs_file_put>
    3920:	83 c4 10             	add    $0x10,%esp
    3923:	8b 45 b4             	mov    -0x4c(%ebp),%eax
    3926:	8d 65 f4             	lea    -0xc(%ebp),%esp
    3929:	5b                   	pop    %ebx
    392a:	5e                   	pop    %esi
    392b:	5f                   	pop    %edi
    392c:	5d                   	pop    %ebp
    392d:	c3                   	ret    
    392e:	66 90                	xchg   %ax,%ax
    3930:	83 ec 0c             	sub    $0xc,%esp
    3933:	8b 43 10             	mov    0x10(%ebx),%eax
    3936:	83 c0 28             	add    $0x28,%eax
    3939:	50                   	push   %eax
    393a:	e8 51 7a 00 00       	call   b390 <fibril_rwlock_write_lock>
    393f:	8b 43 10             	mov    0x10(%ebx),%eax
    3942:	83 c4 10             	add    $0x10,%esp
    3945:	83 78 1c 02          	cmpl   $0x2,0x1c(%eax)
    3949:	0f 85 a7 fe ff ff    	jne    37f6 <vfs_rdwr_internal+0x86>
    394f:	51                   	push   %ecx
    3950:	68 45 03 00 00       	push   $0x345
    3955:	68 d0 77 02 00       	push   $0x277d0
    395a:	68 fd 77 02 00       	push   $0x277fd
    395f:	e8 6c dc 01 00       	call   215d0 <assert_abort>
    3964:	8d 74 26 00          	lea    0x0(%esi,%eiz,1),%esi
    3968:	83 ec 0c             	sub    $0xc,%esp
    396b:	83 c2 28             	add    $0x28,%edx
    396e:	89 45 b4             	mov    %eax,-0x4c(%ebp)
    3971:	52                   	push   %edx
    3972:	e8 f9 7a 00 00       	call   b470 <fibril_rwlock_read_unlock>
    3977:	83 c4 10             	add    $0x10,%esp
    397a:	8b 45 b4             	mov    -0x4c(%ebp),%eax
    397d:	e9 7b ff ff ff       	jmp    38fd <vfs_rdwr_internal+0x18d>
    3982:	8d b6 00 00 00 00    	lea    0x0(%esi),%esi
    3988:	83 ec 0c             	sub    $0xc,%esp
    398b:	89 45 b0             	mov    %eax,-0x50(%ebp)
    398e:	52                   	push   %edx
    398f:	e8 2c 55 01 00       	call   18ec0 <async_forget>
    3994:	83 c4 10             	add    $0x10,%esp
    3997:	8b 45 b0             	mov    -0x50(%ebp),%eax
    399a:	e9 fa fe ff ff       	jmp    3899 <vfs_rdwr_internal+0x129>
    399f:	90                   	nop
    39a0:	83 ec 0c             	sub    $0xc,%esp
    39a3:	8b 43 10             	mov    0x10(%ebx),%eax
    39a6:	83 c0 28             	add    $0x28,%eax
    39a9:	50                   	push   %eax
    39aa:	e8 e1 78 00 00       	call   b290 <fibril_rwlock_read_lock>
    39af:	8b 43 10             	mov    0x10(%ebx),%eax
    39b2:	83 c4 10             	add    $0x10,%esp
    39b5:	83 78 1c 02          	cmpl   $0x2,0x1c(%eax)
    39b9:	75 7a                	jne    3a35 <vfs_rdwr_internal+0x2c5>
    39bb:	83 ec 0c             	sub    $0xc,%esp
    39be:	68 44 af 02 00       	push   $0x2af44
    39c3:	e8 c8 78 00 00       	call   b290 <fibril_rwlock_read_lock>
    39c8:	8b 43 10             	mov    0x10(%ebx),%eax
    39cb:	0f bf 00             	movswl (%eax),%eax
    39ce:	89 04 24             	mov    %eax,(%esp)
    39d1:	e8 2a 1b 00 00       	call   5500 <vfs_exchange_grab>
    39d6:	83 c4 10             	add    $0x10,%esp
    39d9:	89 c6                	mov    %eax,%esi
    39db:	e9 3c fe ff ff       	jmp    381c <vfs_rdwr_internal+0xac>
    39e0:	83 ec 0c             	sub    $0xc,%esp
    39e3:	68 44 af 02 00       	push   $0x2af44
    39e8:	e8 83 7a 00 00       	call   b470 <fibril_rwlock_read_unlock>
    39ed:	8b 53 10             	mov    0x10(%ebx),%edx
    39f0:	83 c4 10             	add    $0x10,%esp
    39f3:	8b 45 b0             	mov    -0x50(%ebp),%eax
    39f6:	e9 c3 fe ff ff       	jmp    38be <vfs_rdwr_internal+0x14e>
    39fb:	90                   	nop
    39fc:	8d 74 26 00          	lea    0x0(%esi,%eiz,1),%esi
    3a00:	b8 f2 ff ff ff       	mov    $0xfffffff2,%eax
    3a05:	e9 8f fe ff ff       	jmp    3899 <vfs_rdwr_internal+0x129>
    3a0a:	8d b6 00 00 00 00    	lea    0x0(%esi),%esi
    3a10:	83 c8 ff             	or     $0xffffffff,%eax
    3a13:	e9 0e ff ff ff       	jmp    3926 <vfs_rdwr_internal+0x1b6>
    3a18:	83 c8 ff             	or     $0xffffffff,%eax
    3a1b:	e9 79 fe ff ff       	jmp    3899 <vfs_rdwr_internal+0x129>
    3a20:	53                   	push   %ebx
    3a21:	68 33 03 00 00       	push   $0x333
    3a26:	68 d0 77 02 00       	push   $0x277d0
    3a2b:	68 f5 77 02 00       	push   $0x277f5
    3a30:	e8 9b db 01 00       	call   215d0 <assert_abort>
    3a35:	83 ec 0c             	sub    $0xc,%esp
    3a38:	0f bf 00             	movswl (%eax),%eax
    3a3b:	50                   	push   %eax
    3a3c:	e8 bf 1a 00 00       	call   5500 <vfs_exchange_grab>
    3a41:	83 c4 10             	add    $0x10,%esp
    3a44:	89 c6                	mov    %eax,%esi
    3a46:	e9 d1 fd ff ff       	jmp    381c <vfs_rdwr_internal+0xac>
    3a4b:	90                   	nop
    3a4c:	8d 74 26 00          	lea    0x0(%esi,%eiz,1),%esi

00003a50 <vfs_read>:
    3a50:	55                   	push   %ebp
    3a51:	89 e5                	mov    %esp,%ebp
    3a53:	57                   	push   %edi
    3a54:	56                   	push   %esi
    3a55:	53                   	push   %ebx
    3a56:	83 ec 58             	sub    $0x58,%esp
    3a59:	8b 45 0c             	mov    0xc(%ebp),%eax
    3a5c:	8b 40 04             	mov    0x4(%eax),%eax
    3a5f:	50                   	push   %eax
    3a60:	e8 6b e7 ff ff       	call   21d0 <vfs_file_get>
    3a65:	83 c4 10             	add    $0x10,%esp
    3a68:	85 c0                	test   %eax,%eax
    3a6a:	0f 84 18 01 00 00    	je     3b88 <vfs_read+0x138>
    3a70:	83 ec 0c             	sub    $0xc,%esp
    3a73:	89 c7                	mov    %eax,%edi
    3a75:	50                   	push   %eax
    3a76:	e8 35 74 00 00       	call   aeb0 <fibril_mutex_lock>
    3a7b:	8b 47 10             	mov    0x10(%edi),%eax
    3a7e:	0f bf 00             	movswl (%eax),%eax
    3a81:	89 04 24             	mov    %eax,(%esp)
    3a84:	e8 d7 1b 00 00       	call   5660 <fs_handle_to_info>
    3a89:	83 c4 10             	add    $0x10,%esp
    3a8c:	85 c0                	test   %eax,%eax
    3a8e:	0f 84 fb 00 00 00    	je     3b8f <vfs_read+0x13f>
    3a94:	83 ec 0c             	sub    $0xc,%esp
    3a97:	8b 47 10             	mov    0x10(%edi),%eax
    3a9a:	83 c0 28             	add    $0x28,%eax
    3a9d:	50                   	push   %eax
    3a9e:	e8 ed 77 00 00       	call   b290 <fibril_rwlock_read_lock>
    3aa3:	8b 47 10             	mov    0x10(%edi),%eax
    3aa6:	83 c4 10             	add    $0x10,%esp
    3aa9:	83 78 1c 02          	cmpl   $0x2,0x1c(%eax)
    3aad:	75 13                	jne    3ac2 <vfs_read+0x72>
    3aaf:	83 ec 0c             	sub    $0xc,%esp
    3ab2:	68 44 af 02 00       	push   $0x2af44
    3ab7:	e8 d4 77 00 00       	call   b290 <fibril_rwlock_read_lock>
    3abc:	8b 47 10             	mov    0x10(%edi),%eax
    3abf:	83 c4 10             	add    $0x10,%esp
    3ac2:	83 ec 0c             	sub    $0xc,%esp
    3ac5:	0f bf 00             	movswl (%eax),%eax
    3ac8:	50                   	push   %eax
    3ac9:	e8 32 1a 00 00       	call   5500 <vfs_exchange_grab>
    3ace:	83 c4 0c             	add    $0xc,%esp
    3ad1:	8d 4d c4             	lea    -0x3c(%ebp),%ecx
    3ad4:	8b 5f 1c             	mov    0x1c(%edi),%ebx
    3ad7:	89 c2                	mov    %eax,%edx
    3ad9:	8b 47 10             	mov    0x10(%edi),%eax
    3adc:	51                   	push   %ecx
    3add:	8b 4f 20             	mov    0x20(%edi),%ecx
    3ae0:	89 55 b4             	mov    %edx,-0x4c(%ebp)
    3ae3:	51                   	push   %ecx
    3ae4:	53                   	push   %ebx
    3ae5:	8b 70 08             	mov    0x8(%eax),%esi
    3ae8:	56                   	push   %esi
    3ae9:	8b 40 04             	mov    0x4(%eax),%eax
    3aec:	50                   	push   %eax
    3aed:	68 01 04 00 00       	push   $0x401
    3af2:	52                   	push   %edx
    3af3:	e8 48 74 01 00       	call   1af40 <async_data_read_forward_fast>
    3af8:	83 c4 14             	add    $0x14,%esp
    3afb:	8b 55 b4             	mov    -0x4c(%ebp),%edx
    3afe:	89 c3                	mov    %eax,%ebx
    3b00:	8b 75 c8             	mov    -0x38(%ebp),%esi
    3b03:	52                   	push   %edx
    3b04:	e8 b7 1a 00 00       	call   55c0 <vfs_exchange_release>
    3b09:	8b 45 c8             	mov    -0x38(%ebp),%eax
    3b0c:	83 c4 10             	add    $0x10,%esp
    3b0f:	89 45 b4             	mov    %eax,-0x4c(%ebp)
    3b12:	8b 47 10             	mov    0x10(%edi),%eax
    3b15:	83 78 1c 02          	cmpl   $0x2,0x1c(%eax)
    3b19:	74 55                	je     3b70 <vfs_read+0x120>
    3b1b:	83 ec 0c             	sub    $0xc,%esp
    3b1e:	83 c0 28             	add    $0x28,%eax
    3b21:	50                   	push   %eax
    3b22:	e8 49 79 00 00       	call   b470 <fibril_rwlock_read_unlock>
    3b27:	83 c4 10             	add    $0x10,%esp
    3b2a:	85 db                	test   %ebx,%ebx
    3b2c:	74 32                	je     3b60 <vfs_read+0x110>
    3b2e:	83 ec 0c             	sub    $0xc,%esp
    3b31:	57                   	push   %edi
    3b32:	e8 f9 74 00 00       	call   b030 <fibril_mutex_unlock>
    3b37:	89 3c 24             	mov    %edi,(%esp)
    3b3a:	e8 51 e7 ff ff       	call   2290 <vfs_file_put>
    3b3f:	83 c4 10             	add    $0x10,%esp
    3b42:	8b 55 08             	mov    0x8(%ebp),%edx
    3b45:	50                   	push   %eax
    3b46:	56                   	push   %esi
    3b47:	53                   	push   %ebx
    3b48:	52                   	push   %edx
    3b49:	e8 b2 5b 01 00       	call   19700 <async_answer_1>
    3b4e:	83 c4 10             	add    $0x10,%esp
    3b51:	8d 65 f4             	lea    -0xc(%ebp),%esp
    3b54:	5b                   	pop    %ebx
    3b55:	5e                   	pop    %esi
    3b56:	5f                   	pop    %edi
    3b57:	5d                   	pop    %ebp
    3b58:	c3                   	ret    
    3b59:	8d b4 26 00 00 00 00 	lea    0x0(%esi,%eiz,1),%esi
    3b60:	8b 45 b4             	mov    -0x4c(%ebp),%eax
    3b63:	31 d2                	xor    %edx,%edx
    3b65:	01 47 1c             	add    %eax,0x1c(%edi)
    3b68:	11 57 20             	adc    %edx,0x20(%edi)
    3b6b:	eb c1                	jmp    3b2e <vfs_read+0xde>
    3b6d:	8d 76 00             	lea    0x0(%esi),%esi
    3b70:	83 ec 0c             	sub    $0xc,%esp
    3b73:	68 44 af 02 00       	push   $0x2af44
    3b78:	e8 f3 78 00 00       	call   b470 <fibril_rwlock_read_unlock>
    3b7d:	8b 47 10             	mov    0x10(%edi),%eax
    3b80:	83 c4 10             	add    $0x10,%esp
    3b83:	eb 96                	jmp    3b1b <vfs_read+0xcb>
    3b85:	8d 76 00             	lea    0x0(%esi),%esi
    3b88:	83 cb ff             	or     $0xffffffff,%ebx
    3b8b:	31 f6                	xor    %esi,%esi
    3b8d:	eb b3                	jmp    3b42 <vfs_read+0xf2>
    3b8f:	50                   	push   %eax
    3b90:	68 33 03 00 00       	push   $0x333
    3b95:	68 d0 77 02 00       	push   $0x277d0
    3b9a:	68 f5 77 02 00       	push   $0x277f5
    3b9f:	e8 2c da 01 00       	call   215d0 <assert_abort>
    3ba4:	8d b6 00 00 00 00    	lea    0x0(%esi),%esi
    3baa:	8d bf 00 00 00 00    	lea    0x0(%edi),%edi

00003bb0 <vfs_write>:
    3bb0:	55                   	push   %ebp
    3bb1:	89 e5                	mov    %esp,%ebp
    3bb3:	57                   	push   %edi
    3bb4:	56                   	push   %esi
    3bb5:	53                   	push   %ebx
    3bb6:	83 ec 58             	sub    $0x58,%esp
    3bb9:	8b 45 0c             	mov    0xc(%ebp),%eax
    3bbc:	8b 40 04             	mov    0x4(%eax),%eax
    3bbf:	50                   	push   %eax
    3bc0:	e8 0b e6 ff ff       	call   21d0 <vfs_file_get>
    3bc5:	83 c4 10             	add    $0x10,%esp
    3bc8:	85 c0                	test   %eax,%eax
    3bca:	0f 84 a0 01 00 00    	je     3d70 <vfs_write+0x1c0>
    3bd0:	83 ec 0c             	sub    $0xc,%esp
    3bd3:	89 c3                	mov    %eax,%ebx
    3bd5:	50                   	push   %eax
    3bd6:	e8 d5 72 00 00       	call   aeb0 <fibril_mutex_lock>
    3bdb:	8b 43 10             	mov    0x10(%ebx),%eax
    3bde:	0f bf 00             	movswl (%eax),%eax
    3be1:	89 04 24             	mov    %eax,(%esp)
    3be4:	e8 77 1a 00 00       	call   5660 <fs_handle_to_info>
    3be9:	83 c4 10             	add    $0x10,%esp
    3bec:	89 c7                	mov    %eax,%edi
    3bee:	85 c0                	test   %eax,%eax
    3bf0:	0f 84 89 01 00 00    	je     3d7f <vfs_write+0x1cf>
    3bf6:	80 78 1c 00          	cmpb   $0x0,0x1c(%eax)
    3bfa:	74 0a                	je     3c06 <vfs_write+0x56>
    3bfc:	80 78 1d 00          	cmpb   $0x0,0x1d(%eax)
    3c00:	0f 85 2a 01 00 00    	jne    3d30 <vfs_write+0x180>
    3c06:	83 ec 0c             	sub    $0xc,%esp
    3c09:	8b 43 10             	mov    0x10(%ebx),%eax
    3c0c:	83 c0 28             	add    $0x28,%eax
    3c0f:	50                   	push   %eax
    3c10:	e8 7b 77 00 00       	call   b390 <fibril_rwlock_write_lock>
    3c15:	83 c4 10             	add    $0x10,%esp
    3c18:	8b 43 10             	mov    0x10(%ebx),%eax
    3c1b:	83 78 1c 02          	cmpl   $0x2,0x1c(%eax)
    3c1f:	75 17                	jne    3c38 <vfs_write+0x88>
    3c21:	50                   	push   %eax
    3c22:	68 45 03 00 00       	push   $0x345
    3c27:	68 d0 77 02 00       	push   $0x277d0
    3c2c:	68 fd 77 02 00       	push   $0x277fd
    3c31:	e8 9a d9 01 00       	call   215d0 <assert_abort>
    3c36:	66 90                	xchg   %ax,%ax
    3c38:	83 ec 0c             	sub    $0xc,%esp
    3c3b:	0f bf 00             	movswl (%eax),%eax
    3c3e:	50                   	push   %eax
    3c3f:	e8 bc 18 00 00       	call   5500 <vfs_exchange_grab>
    3c44:	83 c4 10             	add    $0x10,%esp
    3c47:	89 45 b4             	mov    %eax,-0x4c(%ebp)
    3c4a:	80 7b 18 00          	cmpb   $0x0,0x18(%ebx)
    3c4e:	8b 43 10             	mov    0x10(%ebx),%eax
    3c51:	0f 84 f1 00 00 00    	je     3d48 <vfs_write+0x198>
    3c57:	8b 50 20             	mov    0x20(%eax),%edx
    3c5a:	8b 70 24             	mov    0x24(%eax),%esi
    3c5d:	89 73 20             	mov    %esi,0x20(%ebx)
    3c60:	89 53 1c             	mov    %edx,0x1c(%ebx)
    3c63:	51                   	push   %ecx
    3c64:	8d 4d c4             	lea    -0x3c(%ebp),%ecx
    3c67:	51                   	push   %ecx
    3c68:	56                   	push   %esi
    3c69:	52                   	push   %edx
    3c6a:	8b 70 08             	mov    0x8(%eax),%esi
    3c6d:	56                   	push   %esi
    3c6e:	8b 40 04             	mov    0x4(%eax),%eax
    3c71:	50                   	push   %eax
    3c72:	8b 45 b4             	mov    -0x4c(%ebp),%eax
    3c75:	68 02 04 00 00       	push   $0x402
    3c7a:	50                   	push   %eax
    3c7b:	e8 30 78 01 00       	call   1b4b0 <async_data_write_forward_fast>
    3c80:	83 c4 14             	add    $0x14,%esp
    3c83:	89 c6                	mov    %eax,%esi
    3c85:	8b 45 c8             	mov    -0x38(%ebp),%eax
    3c88:	89 45 b0             	mov    %eax,-0x50(%ebp)
    3c8b:	8b 45 b4             	mov    -0x4c(%ebp),%eax
    3c8e:	50                   	push   %eax
    3c8f:	e8 2c 19 00 00       	call   55c0 <vfs_exchange_release>
    3c94:	8b 45 c8             	mov    -0x38(%ebp),%eax
    3c97:	83 c4 10             	add    $0x10,%esp
    3c9a:	89 45 b4             	mov    %eax,-0x4c(%ebp)
    3c9d:	8b 43 10             	mov    0x10(%ebx),%eax
    3ca0:	83 78 1c 02          	cmpl   $0x2,0x1c(%eax)
    3ca4:	0f 84 ae 00 00 00    	je     3d58 <vfs_write+0x1a8>
    3caa:	80 7f 1c 00          	cmpb   $0x0,0x1c(%edi)
    3cae:	74 06                	je     3cb6 <vfs_write+0x106>
    3cb0:	80 7f 1d 00          	cmpb   $0x0,0x1d(%edi)
    3cb4:	75 62                	jne    3d18 <vfs_write+0x168>
    3cb6:	85 f6                	test   %esi,%esi
    3cb8:	75 0c                	jne    3cc6 <vfs_write+0x116>
    3cba:	8b 55 cc             	mov    -0x34(%ebp),%edx
    3cbd:	8b 4d d0             	mov    -0x30(%ebp),%ecx
    3cc0:	89 50 20             	mov    %edx,0x20(%eax)
    3cc3:	89 48 24             	mov    %ecx,0x24(%eax)
    3cc6:	83 ec 0c             	sub    $0xc,%esp
    3cc9:	83 c0 28             	add    $0x28,%eax
    3ccc:	50                   	push   %eax
    3ccd:	e8 3e 78 00 00       	call   b510 <fibril_rwlock_write_unlock>
    3cd2:	83 c4 10             	add    $0x10,%esp
    3cd5:	85 f6                	test   %esi,%esi
    3cd7:	75 0b                	jne    3ce4 <vfs_write+0x134>
    3cd9:	8b 45 b4             	mov    -0x4c(%ebp),%eax
    3cdc:	31 d2                	xor    %edx,%edx
    3cde:	01 43 1c             	add    %eax,0x1c(%ebx)
    3ce1:	11 53 20             	adc    %edx,0x20(%ebx)
    3ce4:	83 ec 0c             	sub    $0xc,%esp
    3ce7:	53                   	push   %ebx
    3ce8:	e8 43 73 00 00       	call   b030 <fibril_mutex_unlock>
    3ced:	89 1c 24             	mov    %ebx,(%esp)
    3cf0:	e8 9b e5 ff ff       	call   2290 <vfs_file_put>
    3cf5:	83 c4 10             	add    $0x10,%esp
    3cf8:	8b 55 b0             	mov    -0x50(%ebp),%edx
    3cfb:	8b 4d 08             	mov    0x8(%ebp),%ecx
    3cfe:	50                   	push   %eax
    3cff:	52                   	push   %edx
    3d00:	56                   	push   %esi
    3d01:	51                   	push   %ecx
    3d02:	e8 f9 59 01 00       	call   19700 <async_answer_1>
    3d07:	83 c4 10             	add    $0x10,%esp
    3d0a:	8d 65 f4             	lea    -0xc(%ebp),%esp
    3d0d:	5b                   	pop    %ebx
    3d0e:	5e                   	pop    %esi
    3d0f:	5f                   	pop    %edi
    3d10:	5d                   	pop    %ebp
    3d11:	c3                   	ret    
    3d12:	8d b6 00 00 00 00    	lea    0x0(%esi),%esi
    3d18:	83 ec 0c             	sub    $0xc,%esp
    3d1b:	83 c0 28             	add    $0x28,%eax
    3d1e:	50                   	push   %eax
    3d1f:	e8 4c 77 00 00       	call   b470 <fibril_rwlock_read_unlock>
    3d24:	83 c4 10             	add    $0x10,%esp
    3d27:	eb ac                	jmp    3cd5 <vfs_write+0x125>
    3d29:	8d b4 26 00 00 00 00 	lea    0x0(%esi,%eiz,1),%esi
    3d30:	83 ec 0c             	sub    $0xc,%esp
    3d33:	8b 43 10             	mov    0x10(%ebx),%eax
    3d36:	83 c0 28             	add    $0x28,%eax
    3d39:	50                   	push   %eax
    3d3a:	e8 51 75 00 00       	call   b290 <fibril_rwlock_read_lock>
    3d3f:	83 c4 10             	add    $0x10,%esp
    3d42:	e9 d1 fe ff ff       	jmp    3c18 <vfs_write+0x68>
    3d47:	90                   	nop
    3d48:	8b 53 1c             	mov    0x1c(%ebx),%edx
    3d4b:	8b 73 20             	mov    0x20(%ebx),%esi
    3d4e:	e9 10 ff ff ff       	jmp    3c63 <vfs_write+0xb3>
    3d53:	90                   	nop
    3d54:	8d 74 26 00          	lea    0x0(%esi,%eiz,1),%esi
    3d58:	83 ec 0c             	sub    $0xc,%esp
    3d5b:	68 44 af 02 00       	push   $0x2af44
    3d60:	e8 0b 77 00 00       	call   b470 <fibril_rwlock_read_unlock>
    3d65:	8b 43 10             	mov    0x10(%ebx),%eax
    3d68:	83 c4 10             	add    $0x10,%esp
    3d6b:	e9 3a ff ff ff       	jmp    3caa <vfs_write+0xfa>
    3d70:	83 ce ff             	or     $0xffffffff,%esi
    3d73:	c7 45 b0 00 00 00 00 	movl   $0x0,-0x50(%ebp)
    3d7a:	e9 79 ff ff ff       	jmp    3cf8 <vfs_write+0x148>
    3d7f:	50                   	push   %eax
    3d80:	68 33 03 00 00       	push   $0x333
    3d85:	68 d0 77 02 00       	push   $0x277d0
    3d8a:	68 f5 77 02 00       	push   $0x277f5
    3d8f:	e8 3c d8 01 00       	call   215d0 <assert_abort>
    3d94:	8d b6 00 00 00 00    	lea    0x0(%esi),%esi
    3d9a:	8d bf 00 00 00 00    	lea    0x0(%edi),%edi

00003da0 <vfs_seek>:
    3da0:	55                   	push   %ebp
    3da1:	89 e5                	mov    %esp,%ebp
    3da3:	57                   	push   %edi
    3da4:	56                   	push   %esi
    3da5:	53                   	push   %ebx
    3da6:	83 ec 28             	sub    $0x28,%esp
    3da9:	8b 45 0c             	mov    0xc(%ebp),%eax
    3dac:	8b 7d 08             	mov    0x8(%ebp),%edi
    3daf:	8b 50 08             	mov    0x8(%eax),%edx
    3db2:	8b 48 0c             	mov    0xc(%eax),%ecx
    3db5:	8b 70 04             	mov    0x4(%eax),%esi
    3db8:	8b 58 10             	mov    0x10(%eax),%ebx
    3dbb:	89 55 e0             	mov    %edx,-0x20(%ebp)
    3dbe:	56                   	push   %esi
    3dbf:	89 4d e4             	mov    %ecx,-0x1c(%ebp)
    3dc2:	e8 09 e4 ff ff       	call   21d0 <vfs_file_get>
    3dc7:	83 c4 10             	add    $0x10,%esp
    3dca:	85 c0                	test   %eax,%eax
    3dcc:	0f 84 f6 01 00 00    	je     3fc8 <vfs_seek+0x228>
    3dd2:	83 ec 0c             	sub    $0xc,%esp
    3dd5:	89 c6                	mov    %eax,%esi
    3dd7:	50                   	push   %eax
    3dd8:	e8 d3 70 00 00       	call   aeb0 <fibril_mutex_lock>
    3ddd:	83 c4 10             	add    $0x10,%esp
    3de0:	83 fb 01             	cmp    $0x1,%ebx
    3de3:	0f 84 af 00 00 00    	je     3e98 <vfs_seek+0xf8>
    3de9:	72 75                	jb     3e60 <vfs_seek+0xc0>
    3deb:	83 fb 02             	cmp    $0x2,%ebx
    3dee:	75 7a                	jne    3e6a <vfs_seek+0xca>
    3df0:	8b 46 10             	mov    0x10(%esi),%eax
    3df3:	83 ec 0c             	sub    $0xc,%esp
    3df6:	8d 50 28             	lea    0x28(%eax),%edx
    3df9:	52                   	push   %edx
    3dfa:	e8 91 74 00 00       	call   b290 <fibril_rwlock_read_lock>
    3dff:	8b 46 10             	mov    0x10(%esi),%eax
    3e02:	8b 5d e4             	mov    -0x1c(%ebp),%ebx
    3e05:	89 45 dc             	mov    %eax,-0x24(%ebp)
    3e08:	83 c4 10             	add    $0x10,%esp
    3e0b:	8b 50 24             	mov    0x24(%eax),%edx
    3e0e:	8b 4d e0             	mov    -0x20(%ebp),%ecx
    3e11:	8b 40 20             	mov    0x20(%eax),%eax
    3e14:	85 db                	test   %ebx,%ebx
    3e16:	0f 88 3c 01 00 00    	js     3f58 <vfs_seek+0x1b8>
    3e1c:	01 c1                	add    %eax,%ecx
    3e1e:	11 d3                	adc    %edx,%ebx
    3e20:	39 da                	cmp    %ebx,%edx
    3e22:	0f 82 53 01 00 00    	jb     3f7b <vfs_seek+0x1db>
    3e28:	0f 86 c2 01 00 00    	jbe    3ff0 <vfs_seek+0x250>
    3e2e:	83 ec 0c             	sub    $0xc,%esp
    3e31:	8b 55 dc             	mov    -0x24(%ebp),%edx
    3e34:	83 c2 28             	add    $0x28,%edx
    3e37:	52                   	push   %edx
    3e38:	e8 33 76 00 00       	call   b470 <fibril_rwlock_read_unlock>
    3e3d:	89 34 24             	mov    %esi,(%esp)
    3e40:	e8 eb 71 00 00       	call   b030 <fibril_mutex_unlock>
    3e45:	89 34 24             	mov    %esi,(%esp)
    3e48:	e8 43 e4 ff ff       	call   2290 <vfs_file_put>
    3e4d:	83 c4 10             	add    $0x10,%esp
    3e50:	c7 45 0c f0 ff ff ff 	movl   $0xfffffff0,0xc(%ebp)
    3e57:	eb 2c                	jmp    3e85 <vfs_seek+0xe5>
    3e59:	8d b4 26 00 00 00 00 	lea    0x0(%esi,%eiz,1),%esi
    3e60:	8b 55 e4             	mov    -0x1c(%ebp),%edx
    3e63:	8b 45 e0             	mov    -0x20(%ebp),%eax
    3e66:	85 d2                	test   %edx,%edx
    3e68:	79 56                	jns    3ec0 <vfs_seek+0x120>
    3e6a:	83 ec 0c             	sub    $0xc,%esp
    3e6d:	56                   	push   %esi
    3e6e:	e8 bd 71 00 00       	call   b030 <fibril_mutex_unlock>
    3e73:	89 34 24             	mov    %esi,(%esp)
    3e76:	e8 15 e4 ff ff       	call   2290 <vfs_file_put>
    3e7b:	83 c4 10             	add    $0x10,%esp
    3e7e:	c7 45 0c f2 ff ff ff 	movl   $0xfffffff2,0xc(%ebp)
    3e85:	89 7d 08             	mov    %edi,0x8(%ebp)
    3e88:	8d 65 f4             	lea    -0xc(%ebp),%esp
    3e8b:	5b                   	pop    %ebx
    3e8c:	5e                   	pop    %esi
    3e8d:	5f                   	pop    %edi
    3e8e:	5d                   	pop    %ebp
    3e8f:	e9 4c 58 01 00       	jmp    196e0 <async_answer_0>
    3e94:	8d 74 26 00          	lea    0x0(%esi,%eiz,1),%esi
    3e98:	8b 5d e4             	mov    -0x1c(%ebp),%ebx
    3e9b:	8b 4d e0             	mov    -0x20(%ebp),%ecx
    3e9e:	85 db                	test   %ebx,%ebx
    3ea0:	78 56                	js     3ef8 <vfs_seek+0x158>
    3ea2:	8b 46 1c             	mov    0x1c(%esi),%eax
    3ea5:	8b 56 20             	mov    0x20(%esi),%edx
    3ea8:	01 c1                	add    %eax,%ecx
    3eaa:	11 d3                	adc    %edx,%ebx
    3eac:	39 da                	cmp    %ebx,%edx
    3eae:	72 69                	jb     3f19 <vfs_seek+0x179>
    3eb0:	0f 86 2a 01 00 00    	jbe    3fe0 <vfs_seek+0x240>
    3eb6:	83 ec 0c             	sub    $0xc,%esp
    3eb9:	56                   	push   %esi
    3eba:	eb 84                	jmp    3e40 <vfs_seek+0xa0>
    3ebc:	8d 74 26 00          	lea    0x0(%esi,%eiz,1),%esi
    3ec0:	83 ec 0c             	sub    $0xc,%esp
    3ec3:	89 46 1c             	mov    %eax,0x1c(%esi)
    3ec6:	89 56 20             	mov    %edx,0x20(%esi)
    3ec9:	56                   	push   %esi
    3eca:	e8 61 71 00 00       	call   b030 <fibril_mutex_unlock>
    3ecf:	89 34 24             	mov    %esi,(%esp)
    3ed2:	e8 b9 e3 ff ff       	call   2290 <vfs_file_put>
    3ed7:	83 c4 0c             	add    $0xc,%esp
    3eda:	8b 4d e0             	mov    -0x20(%ebp),%ecx
    3edd:	51                   	push   %ecx
    3ede:	6a 00                	push   $0x0
    3ee0:	57                   	push   %edi
    3ee1:	e8 1a 58 01 00       	call   19700 <async_answer_1>
    3ee6:	83 c4 10             	add    $0x10,%esp
    3ee9:	8d 65 f4             	lea    -0xc(%ebp),%esp
    3eec:	5b                   	pop    %ebx
    3eed:	5e                   	pop    %esi
    3eee:	5f                   	pop    %edi
    3eef:	5d                   	pop    %ebp
    3ef0:	c3                   	ret    
    3ef1:	8d b4 26 00 00 00 00 	lea    0x0(%esi,%eiz,1),%esi
    3ef8:	89 c8                	mov    %ecx,%eax
    3efa:	89 da                	mov    %ebx,%edx
    3efc:	f7 d8                	neg    %eax
    3efe:	83 d2 00             	adc    $0x0,%edx
    3f01:	8b 5e 20             	mov    0x20(%esi),%ebx
    3f04:	f7 da                	neg    %edx
    3f06:	8b 4e 1c             	mov    0x1c(%esi),%ecx
    3f09:	39 d3                	cmp    %edx,%ebx
    3f0b:	72 a9                	jb     3eb6 <vfs_seek+0x116>
    3f0d:	77 04                	ja     3f13 <vfs_seek+0x173>
    3f0f:	39 c1                	cmp    %eax,%ecx
    3f11:	72 a3                	jb     3eb6 <vfs_seek+0x116>
    3f13:	03 4d e0             	add    -0x20(%ebp),%ecx
    3f16:	13 5d e4             	adc    -0x1c(%ebp),%ebx
    3f19:	89 4e 1c             	mov    %ecx,0x1c(%esi)
    3f1c:	89 5e 20             	mov    %ebx,0x20(%esi)
    3f1f:	85 db                	test   %ebx,%ebx
    3f21:	0f 88 e9 00 00 00    	js     4010 <vfs_seek+0x270>
    3f27:	89 4d e0             	mov    %ecx,-0x20(%ebp)
    3f2a:	83 ec 0c             	sub    $0xc,%esp
    3f2d:	56                   	push   %esi
    3f2e:	e8 fd 70 00 00       	call   b030 <fibril_mutex_unlock>
    3f33:	89 34 24             	mov    %esi,(%esp)
    3f36:	e8 55 e3 ff ff       	call   2290 <vfs_file_put>
    3f3b:	8b 55 e0             	mov    -0x20(%ebp),%edx
    3f3e:	53                   	push   %ebx
    3f3f:	52                   	push   %edx
    3f40:	6a 00                	push   $0x0
    3f42:	57                   	push   %edi
    3f43:	e8 d8 57 01 00       	call   19720 <async_answer_2>
    3f48:	83 c4 20             	add    $0x20,%esp
    3f4b:	8d 65 f4             	lea    -0xc(%ebp),%esp
    3f4e:	5b                   	pop    %ebx
    3f4f:	5e                   	pop    %esi
    3f50:	5f                   	pop    %edi
    3f51:	5d                   	pop    %ebp
    3f52:	c3                   	ret    
    3f53:	90                   	nop
    3f54:	8d 74 26 00          	lea    0x0(%esi,%eiz,1),%esi
    3f58:	f7 d9                	neg    %ecx
    3f5a:	83 d3 00             	adc    $0x0,%ebx
    3f5d:	f7 db                	neg    %ebx
    3f5f:	39 da                	cmp    %ebx,%edx
    3f61:	0f 82 c7 fe ff ff    	jb     3e2e <vfs_seek+0x8e>
    3f67:	77 08                	ja     3f71 <vfs_seek+0x1d1>
    3f69:	39 c8                	cmp    %ecx,%eax
    3f6b:	0f 82 bd fe ff ff    	jb     3e2e <vfs_seek+0x8e>
    3f71:	8b 4d e0             	mov    -0x20(%ebp),%ecx
    3f74:	8b 5d e4             	mov    -0x1c(%ebp),%ebx
    3f77:	01 c1                	add    %eax,%ecx
    3f79:	11 d3                	adc    %edx,%ebx
    3f7b:	89 4e 1c             	mov    %ecx,0x1c(%esi)
    3f7e:	89 5e 20             	mov    %ebx,0x20(%esi)
    3f81:	85 db                	test   %ebx,%ebx
    3f83:	78 7b                	js     4000 <vfs_seek+0x260>
    3f85:	89 5d e0             	mov    %ebx,-0x20(%ebp)
    3f88:	89 cb                	mov    %ecx,%ebx
    3f8a:	83 ec 0c             	sub    $0xc,%esp
    3f8d:	8b 55 dc             	mov    -0x24(%ebp),%edx
    3f90:	83 c2 28             	add    $0x28,%edx
    3f93:	52                   	push   %edx
    3f94:	e8 d7 74 00 00       	call   b470 <fibril_rwlock_read_unlock>
    3f99:	89 34 24             	mov    %esi,(%esp)
    3f9c:	e8 8f 70 00 00       	call   b030 <fibril_mutex_unlock>
    3fa1:	89 34 24             	mov    %esi,(%esp)
    3fa4:	e8 e7 e2 ff ff       	call   2290 <vfs_file_put>
    3fa9:	8b 45 e0             	mov    -0x20(%ebp),%eax
    3fac:	50                   	push   %eax
    3fad:	53                   	push   %ebx
    3fae:	6a 00                	push   $0x0
    3fb0:	57                   	push   %edi
    3fb1:	e8 6a 57 01 00       	call   19720 <async_answer_2>
    3fb6:	83 c4 20             	add    $0x20,%esp
    3fb9:	8d 65 f4             	lea    -0xc(%ebp),%esp
    3fbc:	5b                   	pop    %ebx
    3fbd:	5e                   	pop    %esi
    3fbe:	5f                   	pop    %edi
    3fbf:	5d                   	pop    %ebp
    3fc0:	c3                   	ret    
    3fc1:	8d b4 26 00 00 00 00 	lea    0x0(%esi,%eiz,1),%esi
    3fc8:	89 7d 08             	mov    %edi,0x8(%ebp)
    3fcb:	c7 45 0c ff ff ff ff 	movl   $0xffffffff,0xc(%ebp)
    3fd2:	8d 65 f4             	lea    -0xc(%ebp),%esp
    3fd5:	5b                   	pop    %ebx
    3fd6:	5e                   	pop    %esi
    3fd7:	5f                   	pop    %edi
    3fd8:	5d                   	pop    %ebp
    3fd9:	e9 02 57 01 00       	jmp    196e0 <async_answer_0>
    3fde:	66 90                	xchg   %ax,%ax
    3fe0:	39 c8                	cmp    %ecx,%eax
    3fe2:	0f 86 31 ff ff ff    	jbe    3f19 <vfs_seek+0x179>
    3fe8:	e9 c9 fe ff ff       	jmp    3eb6 <vfs_seek+0x116>
    3fed:	8d 76 00             	lea    0x0(%esi),%esi
    3ff0:	39 c8                	cmp    %ecx,%eax
    3ff2:	76 87                	jbe    3f7b <vfs_seek+0x1db>
    3ff4:	e9 35 fe ff ff       	jmp    3e2e <vfs_seek+0x8e>
    3ff9:	8d b4 26 00 00 00 00 	lea    0x0(%esi,%eiz,1),%esi
    4000:	83 cb ff             	or     $0xffffffff,%ebx
    4003:	c7 45 e0 ff ff ff 7f 	movl   $0x7fffffff,-0x20(%ebp)
    400a:	e9 7b ff ff ff       	jmp    3f8a <vfs_seek+0x1ea>
    400f:	90                   	nop
    4010:	c7 45 e0 ff ff ff ff 	movl   $0xffffffff,-0x20(%ebp)
    4017:	bb ff ff ff 7f       	mov    $0x7fffffff,%ebx
    401c:	e9 09 ff ff ff       	jmp    3f2a <vfs_seek+0x18a>
    4021:	eb 0d                	jmp    4030 <vfs_truncate>
    4023:	90                   	nop
    4024:	90                   	nop
    4025:	90                   	nop
    4026:	90                   	nop
    4027:	90                   	nop
    4028:	90                   	nop
    4029:	90                   	nop
    402a:	90                   	nop
    402b:	90                   	nop
    402c:	90                   	nop
    402d:	90                   	nop
    402e:	90                   	nop
    402f:	90                   	nop

00004030 <vfs_truncate>:
    4030:	55                   	push   %ebp
    4031:	89 e5                	mov    %esp,%ebp
    4033:	57                   	push   %edi
    4034:	56                   	push   %esi
    4035:	53                   	push   %ebx
    4036:	83 ec 28             	sub    $0x28,%esp
    4039:	8b 45 08             	mov    0x8(%ebp),%eax
    403c:	89 45 e0             	mov    %eax,-0x20(%ebp)
    403f:	8b 45 0c             	mov    0xc(%ebp),%eax
    4042:	8b 50 0c             	mov    0xc(%eax),%edx
    4045:	8b 48 04             	mov    0x4(%eax),%ecx
    4048:	8b 70 08             	mov    0x8(%eax),%esi
    404b:	89 55 e4             	mov    %edx,-0x1c(%ebp)
    404e:	51                   	push   %ecx
    404f:	e8 7c e1 ff ff       	call   21d0 <vfs_file_get>
    4054:	83 c4 10             	add    $0x10,%esp
    4057:	85 c0                	test   %eax,%eax
    4059:	0f 84 b9 00 00 00    	je     4118 <vfs_truncate+0xe8>
    405f:	83 ec 0c             	sub    $0xc,%esp
    4062:	89 c3                	mov    %eax,%ebx
    4064:	50                   	push   %eax
    4065:	e8 46 6e 00 00       	call   aeb0 <fibril_mutex_lock>
    406a:	8b 43 10             	mov    0x10(%ebx),%eax
    406d:	83 c0 28             	add    $0x28,%eax
    4070:	89 04 24             	mov    %eax,(%esp)
    4073:	e8 18 73 00 00       	call   b390 <fibril_rwlock_write_lock>
    4078:	8b 43 10             	mov    0x10(%ebx),%eax
    407b:	8b 50 08             	mov    0x8(%eax),%edx
    407e:	8b 78 04             	mov    0x4(%eax),%edi
    4081:	0f bf 00             	movswl (%eax),%eax
    4084:	89 55 dc             	mov    %edx,-0x24(%ebp)
    4087:	89 04 24             	mov    %eax,(%esp)
    408a:	e8 71 14 00 00       	call   5500 <vfs_exchange_grab>
    408f:	83 c4 0c             	add    $0xc,%esp
    4092:	89 c1                	mov    %eax,%ecx
    4094:	8b 55 dc             	mov    -0x24(%ebp),%edx
    4097:	8b 45 e4             	mov    -0x1c(%ebp),%eax
    409a:	6a 00                	push   $0x0
    409c:	89 4d dc             	mov    %ecx,-0x24(%ebp)
    409f:	6a 00                	push   $0x0
    40a1:	6a 00                	push   $0x0
    40a3:	6a 00                	push   $0x0
    40a5:	6a 00                	push   $0x0
    40a7:	50                   	push   %eax
    40a8:	56                   	push   %esi
    40a9:	52                   	push   %edx
    40aa:	57                   	push   %edi
    40ab:	68 03 04 00 00       	push   $0x403
    40b0:	51                   	push   %ecx
    40b1:	e8 7a 50 01 00       	call   19130 <async_req_fast>
    40b6:	83 c4 24             	add    $0x24,%esp
    40b9:	8b 4d dc             	mov    -0x24(%ebp),%ecx
    40bc:	89 c7                	mov    %eax,%edi
    40be:	51                   	push   %ecx
    40bf:	e8 fc 14 00 00       	call   55c0 <vfs_exchange_release>
    40c4:	83 c4 10             	add    $0x10,%esp
    40c7:	8b 4b 10             	mov    0x10(%ebx),%ecx
    40ca:	85 ff                	test   %edi,%edi
    40cc:	74 3a                	je     4108 <vfs_truncate+0xd8>
    40ce:	83 ec 0c             	sub    $0xc,%esp
    40d1:	83 c1 28             	add    $0x28,%ecx
    40d4:	51                   	push   %ecx
    40d5:	e8 36 74 00 00       	call   b510 <fibril_rwlock_write_unlock>
    40da:	89 1c 24             	mov    %ebx,(%esp)
    40dd:	e8 4e 6f 00 00       	call   b030 <fibril_mutex_unlock>
    40e2:	89 1c 24             	mov    %ebx,(%esp)
    40e5:	e8 a6 e1 ff ff       	call   2290 <vfs_file_put>
    40ea:	83 c4 10             	add    $0x10,%esp
    40ed:	89 7d 0c             	mov    %edi,0xc(%ebp)
    40f0:	8b 45 e0             	mov    -0x20(%ebp),%eax
    40f3:	89 45 08             	mov    %eax,0x8(%ebp)
    40f6:	8d 65 f4             	lea    -0xc(%ebp),%esp
    40f9:	5b                   	pop    %ebx
    40fa:	5e                   	pop    %esi
    40fb:	5f                   	pop    %edi
    40fc:	5d                   	pop    %ebp
    40fd:	e9 de 55 01 00       	jmp    196e0 <async_answer_0>
    4102:	8d b6 00 00 00 00    	lea    0x0(%esi),%esi
    4108:	8b 45 e4             	mov    -0x1c(%ebp),%eax
    410b:	89 71 20             	mov    %esi,0x20(%ecx)
    410e:	89 41 24             	mov    %eax,0x24(%ecx)
    4111:	eb bb                	jmp    40ce <vfs_truncate+0x9e>
    4113:	90                   	nop
    4114:	8d 74 26 00          	lea    0x0(%esi,%eiz,1),%esi
    4118:	c7 45 0c ff ff ff ff 	movl   $0xffffffff,0xc(%ebp)
    411f:	eb cf                	jmp    40f0 <vfs_truncate+0xc0>
    4121:	eb 0d                	jmp    4130 <vfs_fstat>
    4123:	90                   	nop
    4124:	90                   	nop
    4125:	90                   	nop
    4126:	90                   	nop
    4127:	90                   	nop
    4128:	90                   	nop
    4129:	90                   	nop
    412a:	90                   	nop
    412b:	90                   	nop
    412c:	90                   	nop
    412d:	90                   	nop
    412e:	90                   	nop
    412f:	90                   	nop

00004130 <vfs_fstat>:
    4130:	55                   	push   %ebp
    4131:	89 e5                	mov    %esp,%ebp
    4133:	57                   	push   %edi
    4134:	56                   	push   %esi
    4135:	53                   	push   %ebx
    4136:	83 ec 28             	sub    $0x28,%esp
    4139:	8b 45 0c             	mov    0xc(%ebp),%eax
    413c:	8b 40 04             	mov    0x4(%eax),%eax
    413f:	50                   	push   %eax
    4140:	e8 8b e0 ff ff       	call   21d0 <vfs_file_get>
    4145:	83 c4 10             	add    $0x10,%esp
    4148:	85 c0                	test   %eax,%eax
    414a:	0f 84 d8 00 00 00    	je     4228 <vfs_fstat+0xf8>
    4150:	89 c3                	mov    %eax,%ebx
    4152:	50                   	push   %eax
    4153:	50                   	push   %eax
    4154:	8d 45 e4             	lea    -0x1c(%ebp),%eax
    4157:	6a 00                	push   $0x0
    4159:	50                   	push   %eax
    415a:	e8 e1 6c 01 00       	call   1ae40 <async_data_read_receive>
    415f:	83 c4 10             	add    $0x10,%esp
    4162:	84 c0                	test   %al,%al
    4164:	75 32                	jne    4198 <vfs_fstat+0x68>
    4166:	83 ec 0c             	sub    $0xc,%esp
    4169:	53                   	push   %ebx
    416a:	e8 21 e1 ff ff       	call   2290 <vfs_file_put>
    416f:	8b 4d e4             	mov    -0x1c(%ebp),%ecx
    4172:	58                   	pop    %eax
    4173:	5a                   	pop    %edx
    4174:	6a f2                	push   $0xfffffff2
    4176:	51                   	push   %ecx
    4177:	e8 64 55 01 00       	call   196e0 <async_answer_0>
    417c:	8b 7d 08             	mov    0x8(%ebp),%edi
    417f:	5b                   	pop    %ebx
    4180:	5e                   	pop    %esi
    4181:	6a f2                	push   $0xfffffff2
    4183:	57                   	push   %edi
    4184:	e8 57 55 01 00       	call   196e0 <async_answer_0>
    4189:	83 c4 10             	add    $0x10,%esp
    418c:	8d 65 f4             	lea    -0xc(%ebp),%esp
    418f:	5b                   	pop    %ebx
    4190:	5e                   	pop    %esi
    4191:	5f                   	pop    %edi
    4192:	5d                   	pop    %ebp
    4193:	c3                   	ret    
    4194:	8d 74 26 00          	lea    0x0(%esi,%eiz,1),%esi
    4198:	83 ec 0c             	sub    $0xc,%esp
    419b:	53                   	push   %ebx
    419c:	e8 0f 6d 00 00       	call   aeb0 <fibril_mutex_lock>
    41a1:	8b 43 10             	mov    0x10(%ebx),%eax
    41a4:	0f bf 00             	movswl (%eax),%eax
    41a7:	89 04 24             	mov    %eax,(%esp)
    41aa:	e8 51 13 00 00       	call   5500 <vfs_exchange_grab>
    41af:	83 c4 0c             	add    $0xc,%esp
    41b2:	89 c6                	mov    %eax,%esi
    41b4:	8b 43 10             	mov    0x10(%ebx),%eax
    41b7:	6a 00                	push   $0x0
    41b9:	6a 00                	push   $0x0
    41bb:	6a 01                	push   $0x1
    41bd:	8b 50 08             	mov    0x8(%eax),%edx
    41c0:	52                   	push   %edx
    41c1:	8b 48 04             	mov    0x4(%eax),%ecx
    41c4:	51                   	push   %ecx
    41c5:	68 0a 04 00 00       	push   $0x40a
    41ca:	56                   	push   %esi
    41cb:	e8 a0 44 01 00       	call   18670 <async_send_fast>
    41d0:	83 c4 18             	add    $0x18,%esp
    41d3:	89 c7                	mov    %eax,%edi
    41d5:	8b 45 e4             	mov    -0x1c(%ebp),%eax
    41d8:	6a 01                	push   $0x1
    41da:	6a 00                	push   $0x0
    41dc:	6a 00                	push   $0x0
    41de:	6a 00                	push   $0x0
    41e0:	56                   	push   %esi
    41e1:	50                   	push   %eax
    41e2:	e8 b9 55 01 00       	call   197a0 <async_forward_fast>
    41e7:	83 c4 14             	add    $0x14,%esp
    41ea:	56                   	push   %esi
    41eb:	e8 d0 13 00 00       	call   55c0 <vfs_exchange_release>
    41f0:	58                   	pop    %eax
    41f1:	8d 45 e0             	lea    -0x20(%ebp),%eax
    41f4:	5a                   	pop    %edx
    41f5:	50                   	push   %eax
    41f6:	57                   	push   %edi
    41f7:	e8 f4 45 01 00       	call   187f0 <async_wait_for>
    41fc:	89 1c 24             	mov    %ebx,(%esp)
    41ff:	e8 2c 6e 00 00       	call   b030 <fibril_mutex_unlock>
    4204:	89 1c 24             	mov    %ebx,(%esp)
    4207:	e8 84 e0 ff ff       	call   2290 <vfs_file_put>
    420c:	8b 75 e0             	mov    -0x20(%ebp),%esi
    420f:	8b 7d 08             	mov    0x8(%ebp),%edi
    4212:	59                   	pop    %ecx
    4213:	5b                   	pop    %ebx
    4214:	56                   	push   %esi
    4215:	57                   	push   %edi
    4216:	e8 c5 54 01 00       	call   196e0 <async_answer_0>
    421b:	83 c4 10             	add    $0x10,%esp
    421e:	8d 65 f4             	lea    -0xc(%ebp),%esp
    4221:	5b                   	pop    %ebx
    4222:	5e                   	pop    %esi
    4223:	5f                   	pop    %edi
    4224:	5d                   	pop    %ebp
    4225:	c3                   	ret    
    4226:	66 90                	xchg   %ax,%ax
    4228:	50                   	push   %eax
    4229:	50                   	push   %eax
    422a:	8b 45 08             	mov    0x8(%ebp),%eax
    422d:	6a ff                	push   $0xffffffff
    422f:	50                   	push   %eax
    4230:	e8 ab 54 01 00       	call   196e0 <async_answer_0>
    4235:	83 c4 10             	add    $0x10,%esp
    4238:	8d 65 f4             	lea    -0xc(%ebp),%esp
    423b:	5b                   	pop    %ebx
    423c:	5e                   	pop    %esi
    423d:	5f                   	pop    %edi
    423e:	5d                   	pop    %ebp
    423f:	c3                   	ret    

00004240 <vfs_stat>:
    4240:	55                   	push   %ebp
    4241:	89 e5                	mov    %esp,%ebp
    4243:	57                   	push   %edi
    4244:	56                   	push   %esi
    4245:	53                   	push   %ebx
    4246:	83 ec 44             	sub    $0x44,%esp
    4249:	8d 45 c0             	lea    -0x40(%ebp),%eax
    424c:	6a 00                	push   $0x0
    424e:	6a 00                	push   $0x0
    4250:	6a 00                	push   $0x0
    4252:	6a 00                	push   $0x0
    4254:	6a 01                	push   $0x1
    4256:	50                   	push   %eax
    4257:	e8 f4 70 01 00       	call   1b350 <async_data_write_accept>
    425c:	83 c4 20             	add    $0x20,%esp
    425f:	85 c0                	test   %eax,%eax
    4261:	74 1d                	je     4280 <vfs_stat+0x40>
    4263:	8b 4d 08             	mov    0x8(%ebp),%ecx
    4266:	52                   	push   %edx
    4267:	52                   	push   %edx
    4268:	50                   	push   %eax
    4269:	51                   	push   %ecx
    426a:	e8 71 54 01 00       	call   196e0 <async_answer_0>
    426f:	83 c4 10             	add    $0x10,%esp
    4272:	8d 65 f4             	lea    -0xc(%ebp),%esp
    4275:	5b                   	pop    %ebx
    4276:	5e                   	pop    %esi
    4277:	5f                   	pop    %edi
    4278:	5d                   	pop    %ebp
    4279:	c3                   	ret    
    427a:	8d b6 00 00 00 00    	lea    0x0(%esi),%esi
    4280:	50                   	push   %eax
    4281:	50                   	push   %eax
    4282:	8d 45 c4             	lea    -0x3c(%ebp),%eax
    4285:	6a 00                	push   $0x0
    4287:	50                   	push   %eax
    4288:	e8 b3 6b 01 00       	call   1ae40 <async_data_read_receive>
    428d:	83 c4 10             	add    $0x10,%esp
    4290:	84 c0                	test   %al,%al
    4292:	75 34                	jne    42c8 <vfs_stat+0x88>
    4294:	83 ec 0c             	sub    $0xc,%esp
    4297:	8b 45 c0             	mov    -0x40(%ebp),%eax
    429a:	50                   	push   %eax
    429b:	e8 a0 13 01 00       	call   15640 <free>
    42a0:	8b 4d c4             	mov    -0x3c(%ebp),%ecx
    42a3:	58                   	pop    %eax
    42a4:	5a                   	pop    %edx
    42a5:	6a f2                	push   $0xfffffff2
    42a7:	51                   	push   %ecx
    42a8:	e8 33 54 01 00       	call   196e0 <async_answer_0>
    42ad:	8b 7d 08             	mov    0x8(%ebp),%edi
    42b0:	5b                   	pop    %ebx
    42b1:	5e                   	pop    %esi
    42b2:	6a f2                	push   $0xfffffff2
    42b4:	57                   	push   %edi
    42b5:	e8 26 54 01 00       	call   196e0 <async_answer_0>
    42ba:	83 c4 10             	add    $0x10,%esp
    42bd:	8d 65 f4             	lea    -0xc(%ebp),%esp
    42c0:	5b                   	pop    %ebx
    42c1:	5e                   	pop    %esi
    42c2:	5f                   	pop    %edi
    42c3:	5d                   	pop    %ebp
    42c4:	c3                   	ret    
    42c5:	8d 76 00             	lea    0x0(%esi),%esi
    42c8:	83 ec 0c             	sub    $0xc,%esp
    42cb:	8d 75 cc             	lea    -0x34(%ebp),%esi
    42ce:	68 44 af 02 00       	push   $0x2af44
    42d3:	e8 b8 6f 00 00       	call   b290 <fibril_rwlock_read_lock>
    42d8:	8b 5d c0             	mov    -0x40(%ebp),%ebx
    42db:	6a 00                	push   $0x0
    42dd:	56                   	push   %esi
    42de:	6a 00                	push   $0x0
    42e0:	53                   	push   %ebx
    42e1:	e8 3a 0c 00 00       	call   4f20 <vfs_lookup_internal>
    42e6:	83 c4 14             	add    $0x14,%esp
    42e9:	8b 7d c0             	mov    -0x40(%ebp),%edi
    42ec:	89 c3                	mov    %eax,%ebx
    42ee:	57                   	push   %edi
    42ef:	e8 4c 13 01 00       	call   15640 <free>
    42f4:	83 c4 10             	add    $0x10,%esp
    42f7:	85 db                	test   %ebx,%ebx
    42f9:	0f 85 99 00 00 00    	jne    4398 <vfs_stat+0x158>
    42ff:	83 ec 0c             	sub    $0xc,%esp
    4302:	56                   	push   %esi
    4303:	e8 88 d4 ff ff       	call   1790 <vfs_node_get>
    4308:	83 c4 10             	add    $0x10,%esp
    430b:	89 c3                	mov    %eax,%ebx
    430d:	85 c0                	test   %eax,%eax
    430f:	0f 84 b3 00 00 00    	je     43c8 <vfs_stat+0x188>
    4315:	83 ec 0c             	sub    $0xc,%esp
    4318:	68 44 af 02 00       	push   $0x2af44
    431d:	e8 4e 71 00 00       	call   b470 <fibril_rwlock_read_unlock>
    4322:	0f bf 03             	movswl (%ebx),%eax
    4325:	89 04 24             	mov    %eax,(%esp)
    4328:	e8 d3 11 00 00       	call   5500 <vfs_exchange_grab>
    432d:	83 c4 0c             	add    $0xc,%esp
    4330:	89 c6                	mov    %eax,%esi
    4332:	6a 00                	push   $0x0
    4334:	6a 00                	push   $0x0
    4336:	6a 00                	push   $0x0
    4338:	8b 43 08             	mov    0x8(%ebx),%eax
    433b:	50                   	push   %eax
    433c:	8b 53 04             	mov    0x4(%ebx),%edx
    433f:	52                   	push   %edx
    4340:	68 0a 04 00 00       	push   $0x40a
    4345:	56                   	push   %esi
    4346:	e8 25 43 01 00       	call   18670 <async_send_fast>
    434b:	83 c4 18             	add    $0x18,%esp
    434e:	8b 4d c4             	mov    -0x3c(%ebp),%ecx
    4351:	89 c7                	mov    %eax,%edi
    4353:	6a 01                	push   $0x1
    4355:	6a 00                	push   $0x0
    4357:	6a 00                	push   $0x0
    4359:	6a 00                	push   $0x0
    435b:	56                   	push   %esi
    435c:	51                   	push   %ecx
    435d:	e8 3e 54 01 00       	call   197a0 <async_forward_fast>
    4362:	83 c4 14             	add    $0x14,%esp
    4365:	56                   	push   %esi
    4366:	e8 55 12 00 00       	call   55c0 <vfs_exchange_release>
    436b:	5e                   	pop    %esi
    436c:	58                   	pop    %eax
    436d:	8d 45 c8             	lea    -0x38(%ebp),%eax
    4370:	50                   	push   %eax
    4371:	57                   	push   %edi
    4372:	e8 79 44 01 00       	call   187f0 <async_wait_for>
    4377:	8b 4d c8             	mov    -0x38(%ebp),%ecx
    437a:	8b 75 08             	mov    0x8(%ebp),%esi
    437d:	58                   	pop    %eax
    437e:	5a                   	pop    %edx
    437f:	51                   	push   %ecx
    4380:	56                   	push   %esi
    4381:	e8 5a 53 01 00       	call   196e0 <async_answer_0>
    4386:	89 1c 24             	mov    %ebx,(%esp)
    4389:	e8 62 d5 ff ff       	call   18f0 <vfs_node_put>
    438e:	83 c4 10             	add    $0x10,%esp
    4391:	e9 dc fe ff ff       	jmp    4272 <vfs_stat+0x32>
    4396:	66 90                	xchg   %ax,%ax
    4398:	83 ec 0c             	sub    $0xc,%esp
    439b:	68 44 af 02 00       	push   $0x2af44
    43a0:	e8 cb 70 00 00       	call   b470 <fibril_rwlock_read_unlock>
    43a5:	8b 45 c4             	mov    -0x3c(%ebp),%eax
    43a8:	5e                   	pop    %esi
    43a9:	5f                   	pop    %edi
    43aa:	53                   	push   %ebx
    43ab:	50                   	push   %eax
    43ac:	e8 2f 53 01 00       	call   196e0 <async_answer_0>
    43b1:	8b 4d 08             	mov    0x8(%ebp),%ecx
    43b4:	58                   	pop    %eax
    43b5:	5a                   	pop    %edx
    43b6:	53                   	push   %ebx
    43b7:	51                   	push   %ecx
    43b8:	e8 23 53 01 00       	call   196e0 <async_answer_0>
    43bd:	83 c4 10             	add    $0x10,%esp
    43c0:	8d 65 f4             	lea    -0xc(%ebp),%esp
    43c3:	5b                   	pop    %ebx
    43c4:	5e                   	pop    %esi
    43c5:	5f                   	pop    %edi
    43c6:	5d                   	pop    %ebp
    43c7:	c3                   	ret    
    43c8:	83 ec 0c             	sub    $0xc,%esp
    43cb:	68 44 af 02 00       	push   $0x2af44
    43d0:	e8 9b 70 00 00       	call   b470 <fibril_rwlock_read_unlock>
    43d5:	5f                   	pop    %edi
    43d6:	58                   	pop    %eax
    43d7:	8b 45 c4             	mov    -0x3c(%ebp),%eax
    43da:	6a fe                	push   $0xfffffffe
    43dc:	50                   	push   %eax
    43dd:	e8 fe 52 01 00       	call   196e0 <async_answer_0>
    43e2:	8b 4d 08             	mov    0x8(%ebp),%ecx
    43e5:	58                   	pop    %eax
    43e6:	5a                   	pop    %edx
    43e7:	6a fe                	push   $0xfffffffe
    43e9:	51                   	push   %ecx
    43ea:	e8 f1 52 01 00       	call   196e0 <async_answer_0>
    43ef:	83 c4 10             	add    $0x10,%esp
    43f2:	e9 7b fe ff ff       	jmp    4272 <vfs_stat+0x32>
    43f7:	89 f6                	mov    %esi,%esi
    43f9:	8d bc 27 00 00 00 00 	lea    0x0(%edi,%eiz,1),%edi

00004400 <vfs_mkdir>:
    4400:	55                   	push   %ebp
    4401:	89 e5                	mov    %esp,%ebp
    4403:	53                   	push   %ebx
    4404:	83 ec 1c             	sub    $0x1c,%esp
    4407:	8d 45 f4             	lea    -0xc(%ebp),%eax
    440a:	6a 00                	push   $0x0
    440c:	6a 00                	push   $0x0
    440e:	6a 00                	push   $0x0
    4410:	6a 00                	push   $0x0
    4412:	6a 01                	push   $0x1
    4414:	50                   	push   %eax
    4415:	e8 36 6f 01 00       	call   1b350 <async_data_write_accept>
    441a:	83 c4 20             	add    $0x20,%esp
    441d:	85 c0                	test   %eax,%eax
    441f:	75 4f                	jne    4470 <vfs_mkdir+0x70>
    4421:	83 ec 0c             	sub    $0xc,%esp
    4424:	68 44 af 02 00       	push   $0x2af44
    4429:	e8 62 6f 00 00       	call   b390 <fibril_rwlock_write_lock>
    442e:	8b 45 f4             	mov    -0xc(%ebp),%eax
    4431:	6a 00                	push   $0x0
    4433:	6a 00                	push   $0x0
    4435:	6a 32                	push   $0x32
    4437:	50                   	push   %eax
    4438:	e8 e3 0a 00 00       	call   4f20 <vfs_lookup_internal>
    443d:	83 c4 14             	add    $0x14,%esp
    4440:	89 c3                	mov    %eax,%ebx
    4442:	68 44 af 02 00       	push   $0x2af44
    4447:	e8 c4 70 00 00       	call   b510 <fibril_rwlock_write_unlock>
    444c:	8b 4d f4             	mov    -0xc(%ebp),%ecx
    444f:	5a                   	pop    %edx
    4450:	51                   	push   %ecx
    4451:	e8 ea 11 01 00       	call   15640 <free>
    4456:	8b 4d 08             	mov    0x8(%ebp),%ecx
    4459:	58                   	pop    %eax
    445a:	5a                   	pop    %edx
    445b:	53                   	push   %ebx
    445c:	51                   	push   %ecx
    445d:	e8 7e 52 01 00       	call   196e0 <async_answer_0>
    4462:	83 c4 10             	add    $0x10,%esp
    4465:	8b 5d fc             	mov    -0x4(%ebp),%ebx
    4468:	c9                   	leave  
    4469:	c3                   	ret    
    446a:	8d b6 00 00 00 00    	lea    0x0(%esi),%esi
    4470:	53                   	push   %ebx
    4471:	53                   	push   %ebx
    4472:	50                   	push   %eax
    4473:	8b 45 08             	mov    0x8(%ebp),%eax
    4476:	50                   	push   %eax
    4477:	e8 64 52 01 00       	call   196e0 <async_answer_0>
    447c:	83 c4 10             	add    $0x10,%esp
    447f:	8b 5d fc             	mov    -0x4(%ebp),%ebx
    4482:	c9                   	leave  
    4483:	c3                   	ret    
    4484:	8d b6 00 00 00 00    	lea    0x0(%esi),%esi
    448a:	8d bf 00 00 00 00    	lea    0x0(%edi),%edi

00004490 <vfs_unlink>:
    4490:	55                   	push   %ebp
    4491:	89 e5                	mov    %esp,%ebp
    4493:	56                   	push   %esi
    4494:	53                   	push   %ebx
    4495:	83 ec 28             	sub    $0x28,%esp
    4498:	8b 45 0c             	mov    0xc(%ebp),%eax
    449b:	8b 58 04             	mov    0x4(%eax),%ebx
    449e:	8d 45 d8             	lea    -0x28(%ebp),%eax
    44a1:	6a 00                	push   $0x0
    44a3:	6a 00                	push   $0x0
    44a5:	6a 00                	push   $0x0
    44a7:	6a 00                	push   $0x0
    44a9:	6a 01                	push   $0x1
    44ab:	50                   	push   %eax
    44ac:	e8 9f 6e 01 00       	call   1b350 <async_data_write_accept>
    44b1:	83 c4 20             	add    $0x20,%esp
    44b4:	85 c0                	test   %eax,%eax
    44b6:	74 18                	je     44d0 <vfs_unlink+0x40>
    44b8:	8b 4d 08             	mov    0x8(%ebp),%ecx
    44bb:	52                   	push   %edx
    44bc:	52                   	push   %edx
    44bd:	50                   	push   %eax
    44be:	51                   	push   %ecx
    44bf:	e8 1c 52 01 00       	call   196e0 <async_answer_0>
    44c4:	83 c4 10             	add    $0x10,%esp
    44c7:	8d 65 f8             	lea    -0x8(%ebp),%esp
    44ca:	5b                   	pop    %ebx
    44cb:	5e                   	pop    %esi
    44cc:	5d                   	pop    %ebp
    44cd:	c3                   	ret    
    44ce:	66 90                	xchg   %ax,%ax
    44d0:	83 ec 0c             	sub    $0xc,%esp
    44d3:	83 e3 02             	and    $0x2,%ebx
    44d6:	80 cb 80             	or     $0x80,%bl
    44d9:	8d 75 dc             	lea    -0x24(%ebp),%esi
    44dc:	68 44 af 02 00       	push   $0x2af44
    44e1:	e8 aa 6e 00 00       	call   b390 <fibril_rwlock_write_lock>
    44e6:	8b 45 d8             	mov    -0x28(%ebp),%eax
    44e9:	6a 00                	push   $0x0
    44eb:	56                   	push   %esi
    44ec:	53                   	push   %ebx
    44ed:	50                   	push   %eax
    44ee:	e8 2d 0a 00 00       	call   4f20 <vfs_lookup_internal>
    44f3:	83 c4 14             	add    $0x14,%esp
    44f6:	89 c3                	mov    %eax,%ebx
    44f8:	8b 45 d8             	mov    -0x28(%ebp),%eax
    44fb:	50                   	push   %eax
    44fc:	e8 3f 11 01 00       	call   15640 <free>
    4501:	83 c4 10             	add    $0x10,%esp
    4504:	85 db                	test   %ebx,%ebx
    4506:	74 28                	je     4530 <vfs_unlink+0xa0>
    4508:	83 ec 0c             	sub    $0xc,%esp
    450b:	68 44 af 02 00       	push   $0x2af44
    4510:	e8 fb 6f 00 00       	call   b510 <fibril_rwlock_write_unlock>
    4515:	5e                   	pop    %esi
    4516:	58                   	pop    %eax
    4517:	8b 45 08             	mov    0x8(%ebp),%eax
    451a:	53                   	push   %ebx
    451b:	50                   	push   %eax
    451c:	e8 bf 51 01 00       	call   196e0 <async_answer_0>
    4521:	83 c4 10             	add    $0x10,%esp
    4524:	8d 65 f8             	lea    -0x8(%ebp),%esp
    4527:	5b                   	pop    %ebx
    4528:	5e                   	pop    %esi
    4529:	5d                   	pop    %ebp
    452a:	c3                   	ret    
    452b:	90                   	nop
    452c:	8d 74 26 00          	lea    0x0(%esi,%eiz,1),%esi
    4530:	83 ec 0c             	sub    $0xc,%esp
    4533:	56                   	push   %esi
    4534:	e8 57 d2 ff ff       	call   1790 <vfs_node_get>
    4539:	89 c3                	mov    %eax,%ebx
    453b:	c7 04 24 34 af 02 00 	movl   $0x2af34,(%esp)
    4542:	e8 69 69 00 00       	call   aeb0 <fibril_mutex_lock>
    4547:	8b 43 10             	mov    0x10(%ebx),%eax
    454a:	48                   	dec    %eax
    454b:	89 43 10             	mov    %eax,0x10(%ebx)
    454e:	c7 04 24 34 af 02 00 	movl   $0x2af34,(%esp)
    4555:	e8 d6 6a 00 00       	call   b030 <fibril_mutex_unlock>
    455a:	c7 04 24 44 af 02 00 	movl   $0x2af44,(%esp)
    4561:	e8 aa 6f 00 00       	call   b510 <fibril_rwlock_write_unlock>
    4566:	89 1c 24             	mov    %ebx,(%esp)
    4569:	e8 82 d3 ff ff       	call   18f0 <vfs_node_put>
    456e:	8b 5d 08             	mov    0x8(%ebp),%ebx
    4571:	5a                   	pop    %edx
    4572:	59                   	pop    %ecx
    4573:	6a 00                	push   $0x0
    4575:	53                   	push   %ebx
    4576:	e8 65 51 01 00       	call   196e0 <async_answer_0>
    457b:	83 c4 10             	add    $0x10,%esp
    457e:	8d 65 f8             	lea    -0x8(%ebp),%esp
    4581:	5b                   	pop    %ebx
    4582:	5e                   	pop    %esi
    4583:	5d                   	pop    %ebp
    4584:	c3                   	ret    
    4585:	8d 74 26 00          	lea    0x0(%esi,%eiz,1),%esi
    4589:	8d bc 27 00 00 00 00 	lea    0x0(%edi,%eiz,1),%edi

00004590 <vfs_rename>:
    4590:	55                   	push   %ebp
    4591:	89 e5                	mov    %esp,%ebp
    4593:	57                   	push   %edi
    4594:	56                   	push   %esi
    4595:	53                   	push   %ebx
    4596:	81 ec 94 00 00 00    	sub    $0x94,%esp
    459c:	8d 45 84             	lea    -0x7c(%ebp),%eax
    459f:	6a 00                	push   $0x0
    45a1:	6a 00                	push   $0x0
    45a3:	6a 00                	push   $0x0
    45a5:	6a 00                	push   $0x0
    45a7:	6a 01                	push   $0x1
    45a9:	50                   	push   %eax
    45aa:	e8 a1 6d 01 00       	call   1b350 <async_data_write_accept>
    45af:	83 c4 20             	add    $0x20,%esp
    45b2:	85 c0                	test   %eax,%eax
    45b4:	74 1a                	je     45d0 <vfs_rename+0x40>
    45b6:	8b 4d 08             	mov    0x8(%ebp),%ecx
    45b9:	52                   	push   %edx
    45ba:	52                   	push   %edx
    45bb:	50                   	push   %eax
    45bc:	51                   	push   %ecx
    45bd:	e8 1e 51 01 00       	call   196e0 <async_answer_0>
    45c2:	83 c4 10             	add    $0x10,%esp
    45c5:	8d 65 f4             	lea    -0xc(%ebp),%esp
    45c8:	5b                   	pop    %ebx
    45c9:	5e                   	pop    %esi
    45ca:	5f                   	pop    %edi
    45cb:	5d                   	pop    %ebp
    45cc:	c3                   	ret    
    45cd:	8d 76 00             	lea    0x0(%esi),%esi
    45d0:	50                   	push   %eax
    45d1:	50                   	push   %eax
    45d2:	8d 45 88             	lea    -0x78(%ebp),%eax
    45d5:	6a 00                	push   $0x0
    45d7:	6a 00                	push   $0x0
    45d9:	6a 00                	push   $0x0
    45db:	6a 00                	push   $0x0
    45dd:	6a 01                	push   $0x1
    45df:	50                   	push   %eax
    45e0:	e8 6b 6d 01 00       	call   1b350 <async_data_write_accept>
    45e5:	83 c4 20             	add    $0x20,%esp
    45e8:	89 85 74 ff ff ff    	mov    %eax,-0x8c(%ebp)
    45ee:	85 c0                	test   %eax,%eax
    45f0:	74 2e                	je     4620 <vfs_rename+0x90>
    45f2:	83 ec 0c             	sub    $0xc,%esp
    45f5:	8b 5d 84             	mov    -0x7c(%ebp),%ebx
    45f8:	53                   	push   %ebx
    45f9:	e8 42 10 01 00       	call   15640 <free>
    45fe:	8b 85 74 ff ff ff    	mov    -0x8c(%ebp),%eax
    4604:	5e                   	pop    %esi
    4605:	5f                   	pop    %edi
    4606:	50                   	push   %eax
    4607:	8b 45 08             	mov    0x8(%ebp),%eax
    460a:	50                   	push   %eax
    460b:	e8 d0 50 01 00       	call   196e0 <async_answer_0>
    4610:	83 c4 10             	add    $0x10,%esp
    4613:	8d 65 f4             	lea    -0xc(%ebp),%esp
    4616:	5b                   	pop    %ebx
    4617:	5e                   	pop    %esi
    4618:	5f                   	pop    %edi
    4619:	5d                   	pop    %ebp
    461a:	c3                   	ret    
    461b:	90                   	nop
    461c:	8d 74 26 00          	lea    0x0(%esi,%eiz,1),%esi
    4620:	50                   	push   %eax
    4621:	50                   	push   %eax
    4622:	8d 45 8c             	lea    -0x74(%ebp),%eax
    4625:	50                   	push   %eax
    4626:	8b 45 84             	mov    -0x7c(%ebp),%eax
    4629:	50                   	push   %eax
    462a:	e8 61 cc 01 00       	call   21290 <canonify>
    462f:	8b 4d 88             	mov    -0x78(%ebp),%ecx
    4632:	89 c3                	mov    %eax,%ebx
    4634:	58                   	pop    %eax
    4635:	8d 45 90             	lea    -0x70(%ebp),%eax
    4638:	5a                   	pop    %edx
    4639:	50                   	push   %eax
    463a:	51                   	push   %ecx
    463b:	e8 50 cc 01 00       	call   21290 <canonify>
    4640:	83 c4 10             	add    $0x10,%esp
    4643:	89 c6                	mov    %eax,%esi
    4645:	85 db                	test   %ebx,%ebx
    4647:	0f 84 63 01 00 00    	je     47b0 <vfs_rename+0x220>
    464d:	85 c0                	test   %eax,%eax
    464f:	0f 84 5b 01 00 00    	je     47b0 <vfs_rename+0x220>
    4655:	8b 45 8c             	mov    -0x74(%ebp),%eax
    4658:	83 ec 0c             	sub    $0xc,%esp
    465b:	c6 04 03 00          	movb   $0x0,(%ebx,%eax,1)
    465f:	8b 45 90             	mov    -0x70(%ebp),%eax
    4662:	c6 04 06 00          	movb   $0x0,(%esi,%eax,1)
    4666:	53                   	push   %ebx
    4667:	e8 54 1e 00 00       	call   64c0 <str_length>
    466c:	83 c4 0c             	add    $0xc,%esp
    466f:	50                   	push   %eax
    4670:	53                   	push   %ebx
    4671:	56                   	push   %esi
    4672:	e8 69 23 00 00       	call   69e0 <str_lcmp>
    4677:	83 c4 10             	add    $0x10,%esp
    467a:	85 c0                	test   %eax,%eax
    467c:	75 47                	jne    46c5 <vfs_rename+0x135>
    467e:	83 ec 0c             	sub    $0xc,%esp
    4681:	53                   	push   %ebx
    4682:	e8 39 1e 00 00       	call   64c0 <str_length>
    4687:	83 c4 10             	add    $0x10,%esp
    468a:	80 3c 06 2f          	cmpb   $0x2f,(%esi,%eax,1)
    468e:	0f 84 1c 01 00 00    	je     47b0 <vfs_rename+0x220>
    4694:	83 ec 0c             	sub    $0xc,%esp
    4697:	53                   	push   %ebx
    4698:	e8 23 1e 00 00       	call   64c0 <str_length>
    469d:	83 c4 10             	add    $0x10,%esp
    46a0:	48                   	dec    %eax
    46a1:	0f 84 09 01 00 00    	je     47b0 <vfs_rename+0x220>
    46a7:	83 ec 0c             	sub    $0xc,%esp
    46aa:	53                   	push   %ebx
    46ab:	e8 10 1e 00 00       	call   64c0 <str_length>
    46b0:	89 34 24             	mov    %esi,(%esp)
    46b3:	89 c7                	mov    %eax,%edi
    46b5:	e8 06 1e 00 00       	call   64c0 <str_length>
    46ba:	83 c4 10             	add    $0x10,%esp
    46bd:	39 c7                	cmp    %eax,%edi
    46bf:	0f 84 eb 00 00 00    	je     47b0 <vfs_rename+0x220>
    46c5:	83 ec 0c             	sub    $0xc,%esp
    46c8:	8d 7d 94             	lea    -0x6c(%ebp),%edi
    46cb:	68 44 af 02 00       	push   $0x2af44
    46d0:	e8 bb 6c 00 00       	call   b390 <fibril_rwlock_write_lock>
    46d5:	6a 00                	push   $0x0
    46d7:	57                   	push   %edi
    46d8:	6a 00                	push   $0x0
    46da:	53                   	push   %ebx
    46db:	e8 40 08 00 00       	call   4f20 <vfs_lookup_internal>
    46e0:	83 c4 20             	add    $0x20,%esp
    46e3:	89 85 74 ff ff ff    	mov    %eax,-0x8c(%ebp)
    46e9:	85 c0                	test   %eax,%eax
    46eb:	0f 85 ef 00 00 00    	jne    47e0 <vfs_rename+0x250>
    46f1:	83 ec 0c             	sub    $0xc,%esp
    46f4:	57                   	push   %edi
    46f5:	e8 96 d0 ff ff       	call   1790 <vfs_node_get>
    46fa:	83 c4 10             	add    $0x10,%esp
    46fd:	89 c7                	mov    %eax,%edi
    46ff:	85 c0                	test   %eax,%eax
    4701:	0f 84 11 01 00 00    	je     4818 <vfs_rename+0x288>
    4707:	83 ec 0c             	sub    $0xc,%esp
    470a:	56                   	push   %esi
    470b:	e8 90 41 00 00       	call   88a0 <str_dup>
    4710:	83 c4 10             	add    $0x10,%esp
    4713:	89 c2                	mov    %eax,%edx
    4715:	85 c0                	test   %eax,%eax
    4717:	0f 84 0e 01 00 00    	je     482b <vfs_rename+0x29b>
    471d:	50                   	push   %eax
    471e:	50                   	push   %eax
    471f:	8d 42 01             	lea    0x1(%edx),%eax
    4722:	6a 2f                	push   $0x2f
    4724:	89 95 74 ff ff ff    	mov    %edx,-0x8c(%ebp)
    472a:	50                   	push   %eax
    472b:	e8 00 3f 00 00       	call   8630 <str_rchr>
    4730:	83 c4 10             	add    $0x10,%esp
    4733:	8b 95 74 ff ff ff    	mov    -0x8c(%ebp),%edx
    4739:	85 c0                	test   %eax,%eax
    473b:	0f 84 08 01 00 00    	je     4849 <vfs_rename+0x2b9>
    4741:	c6 00 00             	movb   $0x0,(%eax)
    4744:	8d 45 cc             	lea    -0x34(%ebp),%eax
    4747:	6a 00                	push   $0x0
    4749:	89 95 70 ff ff ff    	mov    %edx,-0x90(%ebp)
    474f:	50                   	push   %eax
    4750:	6a 00                	push   $0x0
    4752:	52                   	push   %edx
    4753:	e8 c8 07 00 00       	call   4f20 <vfs_lookup_internal>
    4758:	8b 95 70 ff ff ff    	mov    -0x90(%ebp),%edx
    475e:	89 85 74 ff ff ff    	mov    %eax,-0x8c(%ebp)
    4764:	89 14 24             	mov    %edx,(%esp)
    4767:	e8 d4 0e 01 00       	call   15640 <free>
    476c:	8b 85 74 ff ff ff    	mov    -0x8c(%ebp),%eax
    4772:	83 c4 10             	add    $0x10,%esp
    4775:	85 c0                	test   %eax,%eax
    4777:	75 7f                	jne    47f8 <vfs_rename+0x268>
    4779:	8b 45 cc             	mov    -0x34(%ebp),%eax
    477c:	66 39 07             	cmp    %ax,(%edi)
    477f:	75 0c                	jne    478d <vfs_rename+0x1fd>
    4781:	8b 45 d0             	mov    -0x30(%ebp),%eax
    4784:	39 47 04             	cmp    %eax,0x4(%edi)
    4787:	0f 84 c5 00 00 00    	je     4852 <vfs_rename+0x2c2>
    478d:	83 ec 0c             	sub    $0xc,%esp
    4790:	68 44 af 02 00       	push   $0x2af44
    4795:	e8 76 6d 00 00       	call   b510 <fibril_rwlock_write_unlock>
    479a:	89 3c 24             	mov    %edi,(%esp)
    479d:	e8 4e d1 ff ff       	call   18f0 <vfs_node_put>
    47a2:	59                   	pop    %ecx
    47a3:	5b                   	pop    %ebx
    47a4:	68 f7 fe ff ff       	push   $0xfffffef7
    47a9:	eb 09                	jmp    47b4 <vfs_rename+0x224>
    47ab:	90                   	nop
    47ac:	8d 74 26 00          	lea    0x0(%esi,%eiz,1),%esi
    47b0:	50                   	push   %eax
    47b1:	50                   	push   %eax
    47b2:	6a f2                	push   $0xfffffff2
    47b4:	8b 45 08             	mov    0x8(%ebp),%eax
    47b7:	50                   	push   %eax
    47b8:	e8 23 4f 01 00       	call   196e0 <async_answer_0>
    47bd:	58                   	pop    %eax
    47be:	8b 45 84             	mov    -0x7c(%ebp),%eax
    47c1:	50                   	push   %eax
    47c2:	e8 79 0e 01 00       	call   15640 <free>
