
rtl8169:     file format elf32-i386


Disassembly of section .init:

000010f4 <__entry>:
    10f4:	66 8c d0             	mov    %ss,%ax
    10f7:	8e d8                	mov    %eax,%ds
    10f9:	8e c0                	mov    %eax,%es
    10fb:	8e e0                	mov    %eax,%fs
    10fd:	b8 01 00 00 00       	mov    $0x1,%eax
    1102:	0f a2                	cpuid  
    1104:	0f ba e2 0b          	bt     $0xb,%edx
    1108:	73 0c                	jae    1116 <__entry+0x22>
    110a:	8d 05 40 4d 01 00    	lea    0x14d40,%eax
    1110:	c7 00 20 26 01 00    	movl   $0x12620,(%eax)
    1116:	6a 00                	push   $0x0
    1118:	6a 00                	push   $0x0
    111a:	89 e5                	mov    %esp,%ebp
    111c:	57                   	push   %edi
    111d:	e8 ce 0e 01 00       	call   11ff0 <__main@plt>

Disassembly of section .text:

00001140 <rtl8169_pause_get>:
    1140:	55                   	push   %ebp
    1141:	31 c0                	xor    %eax,%eax
    1143:	89 e5                	mov    %esp,%ebp
    1145:	5d                   	pop    %ebp
    1146:	c3                   	ret    
    1147:	89 f6                	mov    %esi,%esi
    1149:	8d bc 27 00 00 00 00 	lea    0x0(%edi,%eiz,1),%edi

00001150 <rtl8169_pause_set>:
    1150:	55                   	push   %ebp
    1151:	31 c0                	xor    %eax,%eax
    1153:	89 e5                	mov    %esp,%ebp
    1155:	5d                   	pop    %ebp
    1156:	c3                   	ret    
    1157:	89 f6                	mov    %esi,%esi
    1159:	8d bc 27 00 00 00 00 	lea    0x0(%edi,%eiz,1),%edi

00001160 <rtl8169_autoneg_probe>:
    1160:	55                   	push   %ebp
    1161:	31 c0                	xor    %eax,%eax
    1163:	89 e5                	mov    %esp,%ebp
    1165:	5d                   	pop    %ebp
    1166:	c3                   	ret    
    1167:	89 f6                	mov    %esi,%esi
    1169:	8d bc 27 00 00 00 00 	lea    0x0(%edi,%eiz,1),%edi

00001170 <rtl8169_defective_get_mode>:
    1170:	55                   	push   %ebp
    1171:	31 c0                	xor    %eax,%eax
    1173:	89 e5                	mov    %esp,%ebp
    1175:	5d                   	pop    %ebp
    1176:	c3                   	ret    
    1177:	89 f6                	mov    %esi,%esi
    1179:	8d bc 27 00 00 00 00 	lea    0x0(%edi,%eiz,1),%edi

00001180 <rtl8169_defective_set_mode>:
    1180:	55                   	push   %ebp
    1181:	31 c0                	xor    %eax,%eax
    1183:	89 e5                	mov    %esp,%ebp
    1185:	5d                   	pop    %ebp
    1186:	c3                   	ret    
    1187:	89 f6                	mov    %esi,%esi
    1189:	8d bc 27 00 00 00 00 	lea    0x0(%edi,%eiz,1),%edi

00001190 <rtl8169_on_stopped>:
    1190:	55                   	push   %ebp
    1191:	89 e5                	mov    %esp,%ebp
    1193:	83 ec 10             	sub    $0x10,%esp
    1196:	68 c9 f8 00 00       	push   $0xf8c9
    119b:	6a 03                	push   $0x3
    119d:	e8 ae 2e 00 00       	call   4050 <ddf_msg>
    11a2:	31 c0                	xor    %eax,%eax
    11a4:	c9                   	leave  
    11a5:	c3                   	ret    
    11a6:	8d 76 00             	lea    0x0(%esi),%esi
    11a9:	8d bc 27 00 00 00 00 	lea    0x0(%edi,%eiz,1),%edi

000011b0 <rtl8169_broadcast_set>:
    11b0:	55                   	push   %ebp
    11b1:	89 e5                	mov    %esp,%ebp
    11b3:	57                   	push   %edi
    11b4:	56                   	push   %esi
    11b5:	53                   	push   %ebx
    11b6:	83 ec 18             	sub    $0x18,%esp
    11b9:	8b 55 08             	mov    0x8(%ebp),%edx
    11bc:	8b 5d 0c             	mov    0xc(%ebp),%ebx
    11bf:	52                   	push   %edx
    11c0:	e8 5b c0 00 00       	call   d220 <nic_get_specific>
    11c5:	89 c7                	mov    %eax,%edi
    11c7:	8b 40 04             	mov    0x4(%eax),%eax
    11ca:	83 c0 44             	add    $0x44,%eax
    11cd:	89 04 24             	mov    %eax,(%esp)
    11d0:	e8 bb 0f 01 00       	call   12190 <pio_read_32@plt>
    11d5:	83 c4 0c             	add    $0xc,%esp
    11d8:	89 c6                	mov    %eax,%esi
    11da:	53                   	push   %ebx
    11db:	68 d9 f8 00 00       	push   $0xf8d9
    11e0:	6a 04                	push   $0x4
    11e2:	e8 69 2e 00 00       	call   4050 <ddf_msg>
    11e7:	83 c4 10             	add    $0x10,%esp
    11ea:	83 fb 01             	cmp    $0x1,%ebx
    11ed:	74 49                	je     1238 <rtl8169_broadcast_set+0x88>
    11ef:	83 fb 02             	cmp    $0x2,%ebx
    11f2:	75 34                	jne    1228 <rtl8169_broadcast_set+0x78>
    11f4:	83 ce 08             	or     $0x8,%esi
    11f7:	50                   	push   %eax
    11f8:	50                   	push   %eax
    11f9:	8b 47 04             	mov    0x4(%edi),%eax
    11fc:	56                   	push   %esi
    11fd:	83 c0 44             	add    $0x44,%eax
    1200:	50                   	push   %eax
    1201:	e8 6a 11 01 00       	call   12370 <pio_write_32@plt>
    1206:	83 c4 0c             	add    $0xc,%esp
    1209:	56                   	push   %esi
    120a:	68 f6 f8 00 00       	push   $0xf8f6
    120f:	6a 04                	push   $0x4
    1211:	e8 3a 2e 00 00       	call   4050 <ddf_msg>
    1216:	83 c4 10             	add    $0x10,%esp
    1219:	8d 65 f4             	lea    -0xc(%ebp),%esp
    121c:	31 c0                	xor    %eax,%eax
    121e:	5b                   	pop    %ebx
    121f:	5e                   	pop    %esi
    1220:	5f                   	pop    %edi
    1221:	5d                   	pop    %ebp
    1222:	c3                   	ret    
    1223:	90                   	nop
    1224:	8d 74 26 00          	lea    0x0(%esi,%eiz,1),%esi
    1228:	8d 65 f4             	lea    -0xc(%ebp),%esp
    122b:	b8 f5 ff ff ff       	mov    $0xfffffff5,%eax
    1230:	5b                   	pop    %ebx
    1231:	5e                   	pop    %esi
    1232:	5f                   	pop    %edi
    1233:	5d                   	pop    %ebp
    1234:	c3                   	ret    
    1235:	8d 76 00             	lea    0x0(%esi),%esi
    1238:	83 e6 f7             	and    $0xfffffff7,%esi
    123b:	eb ba                	jmp    11f7 <rtl8169_broadcast_set+0x47>
    123d:	8d 76 00             	lea    0x0(%esi),%esi

00001240 <rtl8169_get_operation_mode>:
    1240:	55                   	push   %ebp
    1241:	89 e5                	mov    %esp,%ebp
    1243:	53                   	push   %ebx
    1244:	83 ec 10             	sub    $0x10,%esp
    1247:	8b 45 08             	mov    0x8(%ebp),%eax
    124a:	8b 5d 0c             	mov    0xc(%ebp),%ebx
    124d:	50                   	push   %eax
    124e:	e8 4d c0 00 00       	call   d2a0 <nic_get_from_ddf_fun>
    1253:	89 04 24             	mov    %eax,(%esp)
    1256:	e8 c5 bf 00 00       	call   d220 <nic_get_specific>
    125b:	8b 40 04             	mov    0x4(%eax),%eax
    125e:	83 c0 6c             	add    $0x6c,%eax
    1261:	89 04 24             	mov    %eax,(%esp)
    1264:	e8 d7 0f 01 00       	call   12240 <pio_read_8@plt>
    1269:	31 d2                	xor    %edx,%edx
    126b:	83 c4 10             	add    $0x10,%esp
    126e:	8b 4d 10             	mov    0x10(%ebp),%ecx
    1271:	a8 01                	test   $0x1,%al
    1273:	0f 94 c2             	sete   %dl
    1276:	42                   	inc    %edx
    1277:	a8 04                	test   $0x4,%al
    1279:	89 11                	mov    %edx,(%ecx)
    127b:	74 06                	je     1283 <rtl8169_get_operation_mode+0x43>
    127d:	c7 03 0a 00 00 00    	movl   $0xa,(%ebx)
    1283:	a8 08                	test   $0x8,%al
    1285:	74 06                	je     128d <rtl8169_get_operation_mode+0x4d>
    1287:	c7 03 64 00 00 00    	movl   $0x64,(%ebx)
    128d:	a8 10                	test   $0x10,%al
    128f:	74 06                	je     1297 <rtl8169_get_operation_mode+0x57>
    1291:	c7 03 e8 03 00 00    	movl   $0x3e8,(%ebx)
    1297:	8b 45 14             	mov    0x14(%ebp),%eax
    129a:	8b 5d fc             	mov    -0x4(%ebp),%ebx
    129d:	c7 00 00 00 00 00    	movl   $0x0,(%eax)
    12a3:	31 c0                	xor    %eax,%eax
    12a5:	c9                   	leave  
    12a6:	c3                   	ret    
    12a7:	89 f6                	mov    %esi,%esi
    12a9:	8d bc 27 00 00 00 00 	lea    0x0(%edi,%eiz,1),%edi

000012b0 <rtl8169_get_cable_state>:
    12b0:	55                   	push   %ebp
    12b1:	89 e5                	mov    %esp,%ebp
    12b3:	83 ec 14             	sub    $0x14,%esp
    12b6:	8b 45 08             	mov    0x8(%ebp),%eax
    12b9:	50                   	push   %eax
    12ba:	e8 e1 bf 00 00       	call   d2a0 <nic_get_from_ddf_fun>
    12bf:	89 04 24             	mov    %eax,(%esp)
    12c2:	e8 59 bf 00 00       	call   d220 <nic_get_specific>
    12c7:	8b 40 04             	mov    0x4(%eax),%eax
    12ca:	83 c0 6c             	add    $0x6c,%eax
    12cd:	89 04 24             	mov    %eax,(%esp)
    12d0:	e8 6b 0f 01 00       	call   12240 <pio_read_8@plt>
    12d5:	83 c4 10             	add    $0x10,%esp
    12d8:	a8 02                	test   $0x2,%al
    12da:	0f 94 c0             	sete   %al
    12dd:	8b 55 0c             	mov    0xc(%ebp),%edx
    12e0:	25 ff 00 00 00       	and    $0xff,%eax
    12e5:	40                   	inc    %eax
    12e6:	89 02                	mov    %eax,(%edx)
    12e8:	31 c0                	xor    %eax,%eax
    12ea:	c9                   	leave  
    12eb:	c3                   	ret    
    12ec:	8d 74 26 00          	lea    0x0(%esi,%eiz,1),%esi

000012f0 <rtl8169_get_device_info>:
    12f0:	55                   	push   %ebp
    12f1:	89 e5                	mov    %esp,%ebp
    12f3:	57                   	push   %edi
    12f4:	56                   	push   %esi
    12f5:	53                   	push   %ebx
    12f6:	83 ec 18             	sub    $0x18,%esp
    12f9:	8b 45 08             	mov    0x8(%ebp),%eax
    12fc:	8b 7d 0c             	mov    0xc(%ebp),%edi
    12ff:	50                   	push   %eax
    1300:	e8 9b bf 00 00       	call   d2a0 <nic_get_from_ddf_fun>
    1305:	89 04 24             	mov    %eax,(%esp)
    1308:	e8 13 bf 00 00       	call   d220 <nic_get_specific>
    130d:	83 c4 0c             	add    $0xc,%esp
    1310:	89 c3                	mov    %eax,%ebx
    1312:	8d 77 40             	lea    0x40(%edi),%esi
    1315:	68 0d f9 00 00       	push   $0xf90d
    131a:	6a 40                	push   $0x40
    131c:	57                   	push   %edi
    131d:	e8 4e 11 01 00       	call   12470 <str_cpy@plt>
    1322:	83 c4 0c             	add    $0xc,%esp
    1325:	68 0d f9 00 00       	push   $0xf90d
    132a:	6a 40                	push   $0x40
    132c:	56                   	push   %esi
    132d:	e8 3e 11 01 00       	call   12470 <str_cpy@plt>
    1332:	8b 43 0c             	mov    0xc(%ebx),%eax
    1335:	83 c4 10             	add    $0x10,%esp
    1338:	66 3d ec 10          	cmp    $0x10ec,%ax
    133c:	74 52                	je     1390 <rtl8169_get_device_info+0xa0>
    133e:	66 3d 86 11          	cmp    $0x1186,%ax
    1342:	74 6c                	je     13b0 <rtl8169_get_device_info+0xc0>
    1344:	66 8b 53 0e          	mov    0xe(%ebx),%dx
    1348:	66 81 fa 68 81       	cmp    $0x8168,%dx
    134d:	0f 84 7d 00 00 00    	je     13d0 <rtl8169_get_device_info+0xe0>
    1353:	66 81 fa 69 81       	cmp    $0x8169,%dx
    1358:	0f 84 92 00 00 00    	je     13f0 <rtl8169_get_device_info+0x100>
    135e:	66 81 fa 10 81       	cmp    $0x8110,%dx
    1363:	74 0b                	je     1370 <rtl8169_get_device_info+0x80>
    1365:	8d 65 f4             	lea    -0xc(%ebp),%esp
    1368:	31 c0                	xor    %eax,%eax
    136a:	5b                   	pop    %ebx
    136b:	5e                   	pop    %esi
    136c:	5f                   	pop    %edi
    136d:	5d                   	pop    %ebp
    136e:	c3                   	ret    
    136f:	90                   	nop
    1370:	50                   	push   %eax
    1371:	68 34 f9 00 00       	push   $0xf934
    1376:	6a 40                	push   $0x40
    1378:	56                   	push   %esi
    1379:	e8 f2 10 01 00       	call   12470 <str_cpy@plt>
    137e:	83 c4 10             	add    $0x10,%esp
    1381:	8d 65 f4             	lea    -0xc(%ebp),%esp
    1384:	31 c0                	xor    %eax,%eax
    1386:	5b                   	pop    %ebx
    1387:	5e                   	pop    %esi
    1388:	5f                   	pop    %edi
    1389:	5d                   	pop    %ebp
    138a:	c3                   	ret    
    138b:	90                   	nop
    138c:	8d 74 26 00          	lea    0x0(%esi,%eiz,1),%esi
    1390:	50                   	push   %eax
    1391:	68 15 f9 00 00       	push   $0xf915
    1396:	6a 40                	push   $0x40
    1398:	57                   	push   %edi
    1399:	e8 d2 10 01 00       	call   12470 <str_cpy@plt>
    139e:	8b 43 0c             	mov    0xc(%ebx),%eax
    13a1:	83 c4 10             	add    $0x10,%esp
    13a4:	66 3d 86 11          	cmp    $0x1186,%ax
    13a8:	75 9a                	jne    1344 <rtl8169_get_device_info+0x54>
    13aa:	8d b6 00 00 00 00    	lea    0x0(%esi),%esi
    13b0:	50                   	push   %eax
    13b1:	68 1d f9 00 00       	push   $0xf91d
    13b6:	6a 40                	push   $0x40
    13b8:	57                   	push   %edi
    13b9:	e8 b2 10 01 00       	call   12470 <str_cpy@plt>
    13be:	66 8b 53 0e          	mov    0xe(%ebx),%dx
    13c2:	83 c4 10             	add    $0x10,%esp
    13c5:	66 81 fa 68 81       	cmp    $0x8168,%dx
    13ca:	75 87                	jne    1353 <rtl8169_get_device_info+0x63>
    13cc:	8d 74 26 00          	lea    0x0(%esi,%eiz,1),%esi
    13d0:	51                   	push   %ecx
    13d1:	68 24 f9 00 00       	push   $0xf924
    13d6:	6a 40                	push   $0x40
    13d8:	56                   	push   %esi
    13d9:	e8 92 10 01 00       	call   12470 <str_cpy@plt>
    13de:	66 8b 53 0e          	mov    0xe(%ebx),%dx
    13e2:	83 c4 10             	add    $0x10,%esp
    13e5:	66 81 fa 69 81       	cmp    $0x8169,%dx
    13ea:	0f 85 6e ff ff ff    	jne    135e <rtl8169_get_device_info+0x6e>
    13f0:	52                   	push   %edx
    13f1:	68 2c f9 00 00       	push   $0xf92c
    13f6:	6a 40                	push   $0x40
    13f8:	56                   	push   %esi
    13f9:	e8 72 10 01 00       	call   12470 <str_cpy@plt>
    13fe:	66 8b 53 0e          	mov    0xe(%ebx),%dx
    1402:	83 c4 10             	add    $0x10,%esp
    1405:	e9 54 ff ff ff       	jmp    135e <rtl8169_get_device_info+0x6e>
    140a:	8d b6 00 00 00 00    	lea    0x0(%esi),%esi

00001410 <rtl8169_set_addr>:
    1410:	55                   	push   %ebp
    1411:	89 e5                	mov    %esp,%ebp
    1413:	57                   	push   %edi
    1414:	56                   	push   %esi
    1415:	53                   	push   %ebx
    1416:	83 ec 28             	sub    $0x28,%esp
    1419:	8b 45 08             	mov    0x8(%ebp),%eax
    141c:	8b 75 0c             	mov    0xc(%ebp),%esi
    141f:	50                   	push   %eax
    1420:	e8 7b be 00 00       	call   d2a0 <nic_get_from_ddf_fun>
    1425:	89 04 24             	mov    %eax,(%esp)
    1428:	89 c7                	mov    %eax,%edi
    142a:	e8 f1 bd 00 00       	call   d220 <nic_get_specific>
    142f:	89 c3                	mov    %eax,%ebx
    1431:	83 c0 54             	add    $0x54,%eax
    1434:	89 04 24             	mov    %eax,(%esp)
    1437:	89 45 e4             	mov    %eax,-0x1c(%ebp)
    143a:	e8 61 12 01 00       	call   126a0 <fibril_mutex_lock@plt>
    143f:	8d 43 64             	lea    0x64(%ebx),%eax
    1442:	89 04 24             	mov    %eax,(%esp)
    1445:	89 45 e0             	mov    %eax,-0x20(%ebp)
    1448:	e8 53 12 01 00       	call   126a0 <fibril_mutex_lock@plt>
    144d:	58                   	pop    %eax
    144e:	5a                   	pop    %edx
    144f:	56                   	push   %esi
    1450:	57                   	push   %edi
    1451:	e8 8a b4 00 00       	call   c8e0 <nic_report_address>
    1456:	83 c4 10             	add    $0x10,%esp
    1459:	85 c0                	test   %eax,%eax
    145b:	74 0b                	je     1468 <rtl8169_set_addr+0x58>
    145d:	8d 65 f4             	lea    -0xc(%ebp),%esp
    1460:	5b                   	pop    %ebx
    1461:	5e                   	pop    %esi
    1462:	5f                   	pop    %edi
    1463:	5d                   	pop    %ebp
    1464:	c3                   	ret    
    1465:	8d 76 00             	lea    0x0(%esi),%esi
    1468:	85 db                	test   %ebx,%ebx
    146a:	74 4c                	je     14b8 <rtl8169_set_addr+0xa8>
    146c:	85 f6                	test   %esi,%esi
    146e:	74 5d                	je     14cd <rtl8169_set_addr+0xbd>
    1470:	31 ff                	xor    %edi,%edi
    1472:	89 45 dc             	mov    %eax,-0x24(%ebp)
    1475:	8d 76 00             	lea    0x0(%esi),%esi
    1478:	31 d2                	xor    %edx,%edx
    147a:	50                   	push   %eax
    147b:	50                   	push   %eax
    147c:	8a 14 3e             	mov    (%esi,%edi,1),%dl
    147f:	52                   	push   %edx
    1480:	8b 53 04             	mov    0x4(%ebx),%edx
    1483:	01 fa                	add    %edi,%edx
    1485:	47                   	inc    %edi
    1486:	52                   	push   %edx
    1487:	e8 34 0e 01 00       	call   122c0 <pio_write_8@plt>
    148c:	83 c4 10             	add    $0x10,%esp
    148f:	83 ff 06             	cmp    $0x6,%edi
    1492:	75 e4                	jne    1478 <rtl8169_set_addr+0x68>
    1494:	83 ec 0c             	sub    $0xc,%esp
    1497:	8b 45 e4             	mov    -0x1c(%ebp),%eax
    149a:	50                   	push   %eax
    149b:	e8 60 0e 01 00       	call   12300 <fibril_mutex_unlock@plt>
    14a0:	8b 4d e0             	mov    -0x20(%ebp),%ecx
    14a3:	5a                   	pop    %edx
    14a4:	51                   	push   %ecx
    14a5:	e8 56 0e 01 00       	call   12300 <fibril_mutex_unlock@plt>
    14aa:	8b 45 dc             	mov    -0x24(%ebp),%eax
    14ad:	83 c4 10             	add    $0x10,%esp
    14b0:	8d 65 f4             	lea    -0xc(%ebp),%esp
    14b3:	5b                   	pop    %ebx
    14b4:	5e                   	pop    %esi
    14b5:	5f                   	pop    %edi
    14b6:	5d                   	pop    %ebp
    14b7:	c3                   	ret    
    14b8:	50                   	push   %eax
    14b9:	68 86 04 00 00       	push   $0x486
    14be:	68 73 ff 00 00       	push   $0xff73
    14c3:	68 3c f9 00 00       	push   $0xf93c
    14c8:	e8 93 0d 01 00       	call   12260 <assert_abort@plt>
    14cd:	50                   	push   %eax
    14ce:	68 87 04 00 00       	push   $0x487
    14d3:	68 73 ff 00 00       	push   $0xff73
    14d8:	68 47 1c 01 00       	push   $0x11c47
    14dd:	e8 7e 0d 01 00       	call   12260 <assert_abort@plt>
    14e2:	8d b4 26 00 00 00 00 	lea    0x0(%esi,%eiz,1),%esi
    14e9:	8d bc 27 00 00 00 00 	lea    0x0(%edi,%eiz,1),%edi

000014f0 <rtl8169_multicast_set>:
    14f0:	55                   	push   %ebp
    14f1:	89 e5                	mov    %esp,%ebp
    14f3:	57                   	push   %edi
    14f4:	56                   	push   %esi
    14f5:	53                   	push   %ebx
    14f6:	83 ec 18             	sub    $0x18,%esp
    14f9:	8b 45 08             	mov    0x8(%ebp),%eax
    14fc:	8b 75 0c             	mov    0xc(%ebp),%esi
    14ff:	50                   	push   %eax
    1500:	e8 1b bd 00 00       	call   d220 <nic_get_specific>
    1505:	89 c7                	mov    %eax,%edi
    1507:	8b 40 04             	mov    0x4(%eax),%eax
    150a:	83 c0 44             	add    $0x44,%eax
    150d:	89 04 24             	mov    %eax,(%esp)
    1510:	e8 7b 0c 01 00       	call   12190 <pio_read_32@plt>
    1515:	83 c4 0c             	add    $0xc,%esp
    1518:	89 c3                	mov    %eax,%ebx
    151a:	56                   	push   %esi
    151b:	68 44 f9 00 00       	push   $0xf944
    1520:	6a 04                	push   $0x4
    1522:	e8 29 2b 00 00       	call   4050 <ddf_msg>
    1527:	83 c4 10             	add    $0x10,%esp
    152a:	83 fe 02             	cmp    $0x2,%esi
    152d:	0f 84 cd 00 00 00    	je     1600 <rtl8169_multicast_set+0x110>
    1533:	83 fe 03             	cmp    $0x3,%esi
    1536:	74 38                	je     1570 <rtl8169_multicast_set+0x80>
    1538:	4e                   	dec    %esi
    1539:	b8 f5 ff ff ff       	mov    $0xfffffff5,%eax
    153e:	74 08                	je     1548 <rtl8169_multicast_set+0x58>
    1540:	8d 65 f4             	lea    -0xc(%ebp),%esp
    1543:	5b                   	pop    %ebx
    1544:	5e                   	pop    %esi
    1545:	5f                   	pop    %edi
    1546:	5d                   	pop    %ebp
    1547:	c3                   	ret    
    1548:	c7 47 50 00 00 00 00 	movl   $0x0,0x50(%edi)
    154f:	f6 47 4c 01          	testb  $0x1,0x4c(%edi)
    1553:	0f 84 f7 00 00 00    	je     1650 <rtl8169_multicast_set+0x160>
    1559:	8b 45 08             	mov    0x8(%ebp),%eax
    155c:	6a ff                	push   $0xffffffff
    155e:	6a 00                	push   $0x0
    1560:	6a ff                	push   $0xffffffff
    1562:	50                   	push   %eax
    1563:	e8 c8 ba 00 00       	call   d030 <nic_report_hw_filtering>
    1568:	83 c4 10             	add    $0x10,%esp
    156b:	eb 3c                	jmp    15a9 <rtl8169_multicast_set+0xb9>
    156d:	8d 76 00             	lea    0x0(%esi),%esi
    1570:	50                   	push   %eax
    1571:	50                   	push   %eax
    1572:	8b 47 04             	mov    0x4(%edi),%eax
    1575:	6a ff                	push   $0xffffffff
    1577:	83 c0 08             	add    $0x8,%eax
    157a:	50                   	push   %eax
    157b:	e8 f0 0d 01 00       	call   12370 <pio_write_32@plt>
    1580:	58                   	pop    %eax
    1581:	8b 47 04             	mov    0x4(%edi),%eax
    1584:	83 c0 0c             	add    $0xc,%eax
    1587:	5a                   	pop    %edx
    1588:	6a 00                	push   $0x0
    158a:	50                   	push   %eax
    158b:	e8 e0 0d 01 00       	call   12370 <pio_write_32@plt>
    1590:	8b 4d 08             	mov    0x8(%ebp),%ecx
    1593:	c7 47 50 04 00 00 00 	movl   $0x4,0x50(%edi)
    159a:	6a ff                	push   $0xffffffff
    159c:	6a 01                	push   $0x1
    159e:	6a ff                	push   $0xffffffff
    15a0:	51                   	push   %ecx
    15a1:	e8 8a ba 00 00       	call   d030 <nic_report_hw_filtering>
    15a6:	83 c4 20             	add    $0x20,%esp
    15a9:	83 ec 0c             	sub    $0xc,%esp
    15ac:	8d 77 54             	lea    0x54(%edi),%esi
    15af:	83 e3 fc             	and    $0xfffffffc,%ebx
    15b2:	56                   	push   %esi
    15b3:	e8 e8 10 01 00       	call   126a0 <fibril_mutex_lock@plt>
    15b8:	58                   	pop    %eax
    15b9:	8b 47 4c             	mov    0x4c(%edi),%eax
    15bc:	8b 4f 50             	mov    0x50(%edi),%ecx
    15bf:	09 d8                	or     %ebx,%eax
    15c1:	09 c8                	or     %ecx,%eax
    15c3:	5a                   	pop    %edx
    15c4:	50                   	push   %eax
    15c5:	8b 47 04             	mov    0x4(%edi),%eax
    15c8:	83 c0 44             	add    $0x44,%eax
    15cb:	50                   	push   %eax
    15cc:	e8 9f 0d 01 00       	call   12370 <pio_write_32@plt>
    15d1:	8b 47 4c             	mov    0x4c(%edi),%eax
    15d4:	83 c4 0c             	add    $0xc,%esp
    15d7:	09 c3                	or     %eax,%ebx
    15d9:	8b 47 50             	mov    0x50(%edi),%eax
    15dc:	09 c3                	or     %eax,%ebx
    15de:	53                   	push   %ebx
    15df:	68 f7 f8 00 00       	push   $0xf8f7
    15e4:	6a 04                	push   $0x4
    15e6:	e8 65 2a 00 00       	call   4050 <ddf_msg>
    15eb:	89 34 24             	mov    %esi,(%esp)
    15ee:	e8 0d 0d 01 00       	call   12300 <fibril_mutex_unlock@plt>
    15f3:	83 c4 10             	add    $0x10,%esp
    15f6:	8d 65 f4             	lea    -0xc(%ebp),%esp
    15f9:	31 c0                	xor    %eax,%eax
    15fb:	5b                   	pop    %ebx
    15fc:	5e                   	pop    %esi
    15fd:	5f                   	pop    %edi
    15fe:	5d                   	pop    %ebp
    15ff:	c3                   	ret    
    1600:	8b 45 14             	mov    0x14(%ebp),%eax
    1603:	56                   	push   %esi
    1604:	56                   	push   %esi
    1605:	50                   	push   %eax
    1606:	8b 45 10             	mov    0x10(%ebp),%eax
    1609:	50                   	push   %eax
    160a:	e8 41 ba 00 00       	call   d050 <nic_mcast_hash>
    160f:	89 d6                	mov    %edx,%esi
    1611:	5a                   	pop    %edx
    1612:	59                   	pop    %ecx
    1613:	50                   	push   %eax
    1614:	8b 47 04             	mov    0x4(%edi),%eax
    1617:	83 c0 08             	add    $0x8,%eax
    161a:	50                   	push   %eax
    161b:	e8 50 0d 01 00       	call   12370 <pio_write_32@plt>
    1620:	58                   	pop    %eax
    1621:	8b 47 04             	mov    0x4(%edi),%eax
    1624:	83 c0 0c             	add    $0xc,%eax
    1627:	5a                   	pop    %edx
    1628:	56                   	push   %esi
    1629:	50                   	push   %eax
    162a:	e8 41 0d 01 00       	call   12370 <pio_write_32@plt>
    162f:	8b 4d 08             	mov    0x8(%ebp),%ecx
    1632:	c7 47 50 04 00 00 00 	movl   $0x4,0x50(%edi)
    1639:	6a ff                	push   $0xffffffff
    163b:	6a 00                	push   $0x0
    163d:	6a ff                	push   $0xffffffff
    163f:	51                   	push   %ecx
    1640:	e8 eb b9 00 00       	call   d030 <nic_report_hw_filtering>
    1645:	83 c4 20             	add    $0x20,%esp
    1648:	e9 5c ff ff ff       	jmp    15a9 <rtl8169_multicast_set+0xb9>
    164d:	8d 76 00             	lea    0x0(%esi),%esi
    1650:	8b 75 08             	mov    0x8(%ebp),%esi
    1653:	6a ff                	push   $0xffffffff
    1655:	6a 01                	push   $0x1
    1657:	6a ff                	push   $0xffffffff
    1659:	56                   	push   %esi
    165a:	e8 d1 b9 00 00       	call   d030 <nic_report_hw_filtering>
    165f:	83 c4 10             	add    $0x10,%esp
    1662:	e9 42 ff ff ff       	jmp    15a9 <rtl8169_multicast_set+0xb9>
    1667:	89 f6                	mov    %esi,%esi
    1669:	8d bc 27 00 00 00 00 	lea    0x0(%edi,%eiz,1),%edi

00001670 <rtl8169_send_frame>:
    1670:	55                   	push   %ebp
    1671:	89 e5                	mov    %esp,%ebp
    1673:	57                   	push   %edi
    1674:	56                   	push   %esi
    1675:	53                   	push   %ebx
    1676:	83 ec 38             	sub    $0x38,%esp
    1679:	8b 45 0c             	mov    0xc(%ebp),%eax
    167c:	8b 75 08             	mov    0x8(%ebp),%esi
    167f:	89 45 d8             	mov    %eax,-0x28(%ebp)
    1682:	8b 45 10             	mov    0x10(%ebp),%eax
    1685:	89 c3                	mov    %eax,%ebx
    1687:	56                   	push   %esi
    1688:	89 45 e4             	mov    %eax,-0x1c(%ebp)
    168b:	e8 90 bb 00 00       	call   d220 <nic_get_specific>
    1690:	83 c4 10             	add    $0x10,%esp
    1693:	89 c7                	mov    %eax,%edi
    1695:	81 fb ee 05 00 00    	cmp    $0x5ee,%ebx
    169b:	0f 87 07 01 00 00    	ja     17a8 <rtl8169_send_frame+0x138>
    16a1:	83 ec 0c             	sub    $0xc,%esp
    16a4:	8d 47 64             	lea    0x64(%edi),%eax
    16a7:	89 45 e0             	mov    %eax,-0x20(%ebp)
    16aa:	50                   	push   %eax
    16ab:	e8 f0 0f 01 00       	call   126a0 <fibril_mutex_lock@plt>
    16b0:	58                   	pop    %eax
    16b1:	8b 47 20             	mov    0x20(%edi),%eax
    16b4:	50                   	push   %eax
    16b5:	8b 47 1c             	mov    0x1c(%edi),%eax
    16b8:	50                   	push   %eax
    16b9:	8b 45 e4             	mov    -0x1c(%ebp),%eax
    16bc:	50                   	push   %eax
    16bd:	68 44 fb 00 00       	push   $0xfb44
    16c2:	6a 04                	push   $0x4
    16c4:	e8 87 29 00 00       	call   4050 <ddf_msg>
    16c9:	8b 4f 1c             	mov    0x1c(%edi),%ecx
    16cc:	83 c4 20             	add    $0x20,%esp
    16cf:	8d 41 01             	lea    0x1(%ecx),%eax
    16d2:	83 e0 0f             	and    $0xf,%eax
    16d5:	89 c2                	mov    %eax,%edx
    16d7:	39 47 20             	cmp    %eax,0x20(%edi)
    16da:	0f 84 f0 00 00 00    	je     17d0 <rtl8169_send_frame+0x160>
    16e0:	89 c8                	mov    %ecx,%eax
    16e2:	8b 5f 34             	mov    0x34(%edi),%ebx
    16e5:	c1 e0 0b             	shl    $0xb,%eax
    16e8:	89 55 d0             	mov    %edx,-0x30(%ebp)
    16eb:	89 4d d4             	mov    %ecx,-0x2c(%ebp)
    16ee:	8b 55 e4             	mov    -0x1c(%ebp),%edx
    16f1:	8b 4d d8             	mov    -0x28(%ebp),%ecx
    16f4:	01 c3                	add    %eax,%ebx
    16f6:	56                   	push   %esi
    16f7:	52                   	push   %edx
    16f8:	51                   	push   %ecx
    16f9:	89 5d dc             	mov    %ebx,-0x24(%ebp)
    16fc:	8b 5f 38             	mov    0x38(%edi),%ebx
    16ff:	01 d8                	add    %ebx,%eax
    1701:	31 db                	xor    %ebx,%ebx
    1703:	50                   	push   %eax
    1704:	e8 77 0a 01 00       	call   12180 <memcpy@plt>
    1709:	8b 4d d4             	mov    -0x2c(%ebp),%ecx
    170c:	8b 47 18             	mov    0x18(%edi),%eax
    170f:	89 ce                	mov    %ecx,%esi
    1711:	8b 57 18             	mov    0x18(%edi),%edx
    1714:	c1 e6 04             	shl    $0x4,%esi
    1717:	89 4d d8             	mov    %ecx,-0x28(%ebp)
    171a:	01 c6                	add    %eax,%esi
    171c:	8d 41 ff             	lea    -0x1(%ecx),%eax
    171f:	83 e0 0f             	and    $0xf,%eax
    1722:	c1 e0 04             	shl    $0x4,%eax
    1725:	01 d0                	add    %edx,%eax
    1727:	50                   	push   %eax
    1728:	56                   	push   %esi
    1729:	68 74 fb 00 00       	push   $0xfb74
    172e:	6a 04                	push   $0x4
    1730:	e8 1b 29 00 00       	call   4050 <ddf_msg>
    1735:	66 8b 5d e4          	mov    -0x1c(%ebp),%bx
    1739:	89 d8                	mov    %ebx,%eax
    173b:	8b 55 dc             	mov    -0x24(%ebp),%edx
    173e:	0d 00 00 00 b0       	or     $0xb0000000,%eax
    1743:	8b 4d d8             	mov    -0x28(%ebp),%ecx
    1746:	89 56 08             	mov    %edx,0x8(%esi)
    1749:	83 c4 20             	add    $0x20,%esp
    174c:	89 06                	mov    %eax,(%esi)
    174e:	c7 46 04 00 00 00 00 	movl   $0x0,0x4(%esi)
    1755:	c7 46 0c 00 00 00 00 	movl   $0x0,0xc(%esi)
    175c:	83 f9 0f             	cmp    $0xf,%ecx
    175f:	8b 55 d0             	mov    -0x30(%ebp),%edx
    1762:	75 09                	jne    176d <rtl8169_send_frame+0xfd>
    1764:	89 d8                	mov    %ebx,%eax
    1766:	0d 00 00 00 f0       	or     $0xf0000000,%eax
    176b:	89 06                	mov    %eax,(%esi)
    176d:	89 57 1c             	mov    %edx,0x1c(%edi)
    1770:	52                   	push   %edx
    1771:	50                   	push   %eax
    1772:	68 70 f9 00 00       	push   $0xf970
    1777:	6a 04                	push   $0x4
    1779:	e8 d2 28 00 00       	call   4050 <ddf_msg>
    177e:	59                   	pop    %ecx
    177f:	5b                   	pop    %ebx
    1780:	6a 40                	push   $0x40
    1782:	8b 47 04             	mov    0x4(%edi),%eax
    1785:	83 c0 38             	add    $0x38,%eax
    1788:	50                   	push   %eax
    1789:	e8 32 0b 01 00       	call   122c0 <pio_write_8@plt>
    178e:	8b 45 e0             	mov    -0x20(%ebp),%eax
    1791:	83 c4 10             	add    $0x10,%esp
    1794:	89 45 08             	mov    %eax,0x8(%ebp)
    1797:	8d 65 f4             	lea    -0xc(%ebp),%esp
    179a:	5b                   	pop    %ebx
    179b:	5e                   	pop    %esi
    179c:	5f                   	pop    %edi
    179d:	5d                   	pop    %ebp
    179e:	e9 5d 0b 01 00       	jmp    12300 <fibril_mutex_unlock@plt>
    17a3:	90                   	nop
    17a4:	8d 74 26 00          	lea    0x0(%esi,%eiz,1),%esi
    17a8:	8b 55 e4             	mov    -0x1c(%ebp),%edx
    17ab:	50                   	push   %eax
    17ac:	52                   	push   %edx
    17ad:	68 1c fb 00 00       	push   $0xfb1c
    17b2:	6a 01                	push   $0x1
    17b4:	e8 97 28 00 00       	call   4050 <ddf_msg>
    17b9:	83 c4 0c             	add    $0xc,%esp
    17bc:	6a 01                	push   $0x1
    17be:	6a 06                	push   $0x6
    17c0:	56                   	push   %esi
    17c1:	e8 4a bb 00 00       	call   d310 <nic_report_send_error>
    17c6:	83 c4 10             	add    $0x10,%esp
    17c9:	e9 d3 fe ff ff       	jmp    16a1 <rtl8169_send_frame+0x31>
    17ce:	66 90                	xchg   %ax,%ax
    17d0:	89 4d dc             	mov    %ecx,-0x24(%ebp)
    17d3:	89 45 d4             	mov    %eax,-0x2c(%ebp)
    17d6:	51                   	push   %ecx
    17d7:	51                   	push   %ecx
    17d8:	68 61 f9 00 00       	push   $0xf961
    17dd:	6a 02                	push   $0x2
    17df:	e8 6c 28 00 00       	call   4050 <ddf_msg>
    17e4:	5b                   	pop    %ebx
    17e5:	58                   	pop    %eax
    17e6:	6a 01                	push   $0x1
    17e8:	56                   	push   %esi
    17e9:	e8 72 b2 00 00       	call   ca60 <nic_set_tx_busy>
    17ee:	83 c4 10             	add    $0x10,%esp
    17f1:	8b 55 d4             	mov    -0x2c(%ebp),%edx
    17f4:	8b 4d dc             	mov    -0x24(%ebp),%ecx
    17f7:	e9 e4 fe ff ff       	jmp    16e0 <rtl8169_send_frame+0x70>
    17fc:	8d 74 26 00          	lea    0x0(%esi,%eiz,1),%esi

00001800 <rtl8169_irq_handler>:
    1800:	55                   	push   %ebp
    1801:	89 e5                	mov    %esp,%ebp
    1803:	57                   	push   %edi
    1804:	56                   	push   %esi
    1805:	53                   	push   %ebx
    1806:	83 ec 2c             	sub    $0x2c,%esp
    1809:	8b 4d 10             	mov    0x10(%ebp),%ecx
    180c:	8b 45 0c             	mov    0xc(%ebp),%eax
    180f:	89 4d d8             	mov    %ecx,-0x28(%ebp)
    1812:	85 c9                	test   %ecx,%ecx
    1814:	0f 84 d5 04 00 00    	je     1cef <rtl8169_irq_handler+0x4ef>
    181a:	85 c0                	test   %eax,%eax
    181c:	0f 84 e2 04 00 00    	je     1d04 <rtl8169_irq_handler+0x504>
    1822:	83 ec 0c             	sub    $0xc,%esp
    1825:	8b 40 08             	mov    0x8(%eax),%eax
    1828:	89 c7                	mov    %eax,%edi
    182a:	8b 45 d8             	mov    -0x28(%ebp),%eax
    182d:	50                   	push   %eax
    182e:	e8 5d ba 00 00       	call   d290 <nic_get_from_ddf_dev>
    1833:	89 04 24             	mov    %eax,(%esp)
    1836:	e8 e5 b9 00 00       	call   d220 <nic_get_specific>
    183b:	81 e7 ff c1 ff ff    	and    $0xffffc1ff,%edi
    1841:	83 c4 0c             	add    $0xc,%esp
    1844:	89 c3                	mov    %eax,%ebx
    1846:	89 45 e0             	mov    %eax,-0x20(%ebp)
    1849:	31 c0                	xor    %eax,%eax
    184b:	66 89 f8             	mov    %di,%ax
    184e:	50                   	push   %eax
    184f:	68 94 fb 00 00       	push   $0xfb94
    1854:	6a 04                	push   $0x4
    1856:	e8 f5 27 00 00       	call   4050 <ddf_msg>
    185b:	58                   	pop    %eax
    185c:	5a                   	pop    %edx
    185d:	68 ff ff 00 00       	push   $0xffff
    1862:	8b 43 04             	mov    0x4(%ebx),%eax
    1865:	89 45 e4             	mov    %eax,-0x1c(%ebp)
    1868:	83 c0 3c             	add    $0x3c,%eax
    186b:	50                   	push   %eax
    186c:	e8 1f 0a 01 00       	call   12290 <pio_write_16@plt>
    1871:	83 c4 10             	add    $0x10,%esp
    1874:	66 85 ff             	test   %di,%di
    1877:	75 56                	jne    18cf <rtl8169_irq_handler+0xcf>
    1879:	e9 52 04 00 00       	jmp    1cd0 <rtl8169_irq_handler+0x4d0>
    187e:	66 90                	xchg   %ax,%ax
    1880:	f7 c7 8c 00 00 00    	test   $0x8c,%edi
    1886:	0f 85 1f 01 00 00    	jne    19ab <rtl8169_irq_handler+0x1ab>
    188c:	f7 c7 10 00 00 00    	test   $0x10,%edi
    1892:	0f 85 d5 01 00 00    	jne    1a6d <rtl8169_irq_handler+0x26d>
    1898:	66 85 ff             	test   %di,%di
    189b:	0f 88 ee 01 00 00    	js     1a8f <rtl8169_irq_handler+0x28f>
    18a1:	83 e7 03             	and    $0x3,%edi
    18a4:	0f 85 1e 02 00 00    	jne    1ac8 <rtl8169_irq_handler+0x2c8>
    18aa:	8b 45 e0             	mov    -0x20(%ebp),%eax
    18ad:	83 ec 0c             	sub    $0xc,%esp
    18b0:	8b 40 04             	mov    0x4(%eax),%eax
    18b3:	89 45 e4             	mov    %eax,-0x1c(%ebp)
    18b6:	83 c0 3e             	add    $0x3e,%eax
    18b9:	50                   	push   %eax
    18ba:	e8 f1 0a 01 00       	call   123b0 <pio_read_16@plt>
    18bf:	83 c4 10             	add    $0x10,%esp
    18c2:	25 ff c1 00 00       	and    $0xc1ff,%eax
    18c7:	89 c7                	mov    %eax,%edi
    18c9:	0f 84 01 04 00 00    	je     1cd0 <rtl8169_irq_handler+0x4d0>
    18cf:	50                   	push   %eax
    18d0:	31 c0                	xor    %eax,%eax
    18d2:	66 89 f8             	mov    %di,%ax
    18d5:	50                   	push   %eax
    18d6:	68 b8 fb 00 00       	push   $0xfbb8
    18db:	6a 04                	push   $0x4
    18dd:	e8 6e 27 00 00       	call   4050 <ddf_msg>
    18e2:	83 c4 10             	add    $0x10,%esp
    18e5:	f7 c7 20 00 00 00    	test   $0x20,%edi
    18eb:	74 93                	je     1880 <rtl8169_irq_handler+0x80>
    18ed:	83 ec 0c             	sub    $0xc,%esp
    18f0:	8b 75 d8             	mov    -0x28(%ebp),%esi
    18f3:	56                   	push   %esi
    18f4:	e8 97 b9 00 00       	call   d290 <nic_get_from_ddf_dev>
    18f9:	89 04 24             	mov    %eax,(%esp)
    18fc:	e8 1f b9 00 00       	call   d220 <nic_get_specific>
    1901:	8b 40 04             	mov    0x4(%eax),%eax
    1904:	83 c0 6c             	add    $0x6c,%eax
    1907:	89 04 24             	mov    %eax,(%esp)
    190a:	e8 31 09 01 00       	call   12240 <pio_read_8@plt>
    190f:	83 c4 10             	add    $0x10,%esp
    1912:	88 c3                	mov    %al,%bl
    1914:	a8 02                	test   $0x2,%al
    1916:	0f 84 8c 03 00 00    	je     1ca8 <rtl8169_irq_handler+0x4a8>
    191c:	83 ec 0c             	sub    $0xc,%esp
    191f:	56                   	push   %esi
    1920:	e8 4b 1e 00 00       	call   3770 <ddf_dev_get_name>
    1925:	83 c4 0c             	add    $0xc,%esp
    1928:	50                   	push   %eax
    1929:	68 a2 f9 00 00       	push   $0xf9a2
    192e:	6a 03                	push   $0x3
    1930:	e8 1b 27 00 00       	call   4050 <ddf_msg>
    1935:	83 c4 10             	add    $0x10,%esp
    1938:	ba 8c f9 00 00       	mov    $0xf98c,%edx
    193d:	f6 c3 01             	test   $0x1,%bl
    1940:	74 05                	je     1947 <rtl8169_irq_handler+0x147>
    1942:	ba 80 f9 00 00       	mov    $0xf980,%edx
    1947:	88 d8                	mov    %bl,%al
    1949:	83 e0 08             	and    $0x8,%eax
    194c:	3c 01                	cmp    $0x1,%al
    194e:	19 f6                	sbb    %esi,%esi
    1950:	83 e6 a6             	and    $0xffffffa6,%esi
    1953:	83 c6 64             	add    $0x64,%esi
    1956:	83 e3 10             	and    $0x10,%ebx
    1959:	74 05                	je     1960 <rtl8169_irq_handler+0x160>
    195b:	be e8 03 00 00       	mov    $0x3e8,%esi
    1960:	83 ec 0c             	sub    $0xc,%esp
    1963:	8b 45 d8             	mov    -0x28(%ebp),%eax
    1966:	89 55 e4             	mov    %edx,-0x1c(%ebp)
    1969:	50                   	push   %eax
    196a:	e8 01 1e 00 00       	call   3770 <ddf_dev_get_name>
    196f:	8b 55 e4             	mov    -0x1c(%ebp),%edx
    1972:	89 14 24             	mov    %edx,(%esp)
    1975:	56                   	push   %esi
    1976:	50                   	push   %eax
    1977:	68 ae f9 00 00       	push   $0xf9ae
    197c:	6a 03                	push   $0x3
    197e:	e8 cd 26 00 00       	call   4050 <ddf_msg>
    1983:	83 c4 20             	add    $0x20,%esp
    1986:	8b 45 e0             	mov    -0x20(%ebp),%eax
    1989:	51                   	push   %ecx
    198a:	51                   	push   %ecx
    198b:	6a 20                	push   $0x20
    198d:	8b 40 04             	mov    0x4(%eax),%eax
    1990:	89 45 e4             	mov    %eax,-0x1c(%ebp)
    1993:	83 c0 3e             	add    $0x3e,%eax
    1996:	50                   	push   %eax
    1997:	e8 f4 08 01 00       	call   12290 <pio_write_16@plt>
    199c:	83 c4 10             	add    $0x10,%esp
    199f:	f7 c7 8c 00 00 00    	test   $0x8c,%edi
    19a5:	0f 84 e1 fe ff ff    	je     188c <rtl8169_irq_handler+0x8c>
    19ab:	83 ec 0c             	sub    $0xc,%esp
    19ae:	8b 45 d8             	mov    -0x28(%ebp),%eax
    19b1:	50                   	push   %eax
    19b2:	e8 d9 b8 00 00       	call   d290 <nic_get_from_ddf_dev>
    19b7:	89 04 24             	mov    %eax,(%esp)
    19ba:	89 45 d4             	mov    %eax,-0x2c(%ebp)
    19bd:	e8 5e b8 00 00       	call   d220 <nic_get_specific>
    19c2:	89 c3                	mov    %eax,%ebx
    19c4:	58                   	pop    %eax
    19c5:	5a                   	pop    %edx
    19c6:	68 d3 f9 00 00       	push   $0xf9d3
    19cb:	6a 04                	push   $0x4
    19cd:	e8 7e 26 00 00       	call   4050 <ddf_msg>
    19d2:	8d 43 64             	lea    0x64(%ebx),%eax
    19d5:	89 04 24             	mov    %eax,(%esp)
    19d8:	89 45 dc             	mov    %eax,-0x24(%ebp)
    19db:	e8 c0 0c 01 00       	call   126a0 <fibril_mutex_lock@plt>
    19e0:	8b 43 1c             	mov    0x1c(%ebx),%eax
    19e3:	8b 73 20             	mov    0x20(%ebx),%esi
    19e6:	83 c4 10             	add    $0x10,%esp
    19e9:	89 45 e4             	mov    %eax,-0x1c(%ebp)
    19ec:	39 f0                	cmp    %esi,%eax
    19ee:	74 46                	je     1a36 <rtl8169_irq_handler+0x236>
    19f0:	89 f2                	mov    %esi,%edx
    19f2:	8b 43 18             	mov    0x18(%ebx),%eax
    19f5:	c1 e2 04             	shl    $0x4,%edx
    19f8:	01 c2                	add    %eax,%edx
    19fa:	8b 02                	mov    (%edx),%eax
    19fc:	25 ff ff ff 7f       	and    $0x7fffffff,%eax
    1a01:	89 02                	mov    %eax,(%edx)
    1a03:	8b 02                	mov    (%edx),%eax
    1a05:	50                   	push   %eax
    1a06:	56                   	push   %esi
    1a07:	68 dc fb 00 00       	push   $0xfbdc
    1a0c:	6a 04                	push   $0x4
    1a0e:	e8 3d 26 00 00       	call   4050 <ddf_msg>
    1a13:	8d 46 01             	lea    0x1(%esi),%eax
    1a16:	83 e0 0f             	and    $0xf,%eax
    1a19:	83 c4 10             	add    $0x10,%esp
    1a1c:	89 c6                	mov    %eax,%esi
    1a1e:	39 45 e4             	cmp    %eax,-0x1c(%ebp)
    1a21:	75 cd                	jne    19f0 <rtl8169_irq_handler+0x1f0>
    1a23:	8b 75 d4             	mov    -0x2c(%ebp),%esi
    1a26:	51                   	push   %ecx
    1a27:	51                   	push   %ecx
    1a28:	6a 00                	push   $0x0
    1a2a:	56                   	push   %esi
    1a2b:	e8 30 b0 00 00       	call   ca60 <nic_set_tx_busy>
    1a30:	83 c4 10             	add    $0x10,%esp
    1a33:	8b 45 e4             	mov    -0x1c(%ebp),%eax
    1a36:	83 ec 0c             	sub    $0xc,%esp
    1a39:	89 43 20             	mov    %eax,0x20(%ebx)
    1a3c:	8b 45 dc             	mov    -0x24(%ebp),%eax
    1a3f:	50                   	push   %eax
    1a40:	e8 bb 08 01 00       	call   12300 <fibril_mutex_unlock@plt>
    1a45:	58                   	pop    %eax
    1a46:	8b 45 e0             	mov    -0x20(%ebp),%eax
    1a49:	5a                   	pop    %edx
    1a4a:	68 8c 00 00 00       	push   $0x8c
    1a4f:	8b 40 04             	mov    0x4(%eax),%eax
    1a52:	89 45 e4             	mov    %eax,-0x1c(%ebp)
    1a55:	83 c0 3e             	add    $0x3e,%eax
    1a58:	50                   	push   %eax
    1a59:	e8 32 08 01 00       	call   12290 <pio_write_16@plt>
    1a5e:	83 c4 10             	add    $0x10,%esp
    1a61:	f7 c7 10 00 00 00    	test   $0x10,%edi
    1a67:	0f 84 2b fe ff ff    	je     1898 <rtl8169_irq_handler+0x98>
    1a6d:	50                   	push   %eax
    1a6e:	50                   	push   %eax
    1a6f:	8b 45 e0             	mov    -0x20(%ebp),%eax
    1a72:	6a 10                	push   $0x10
    1a74:	8b 40 04             	mov    0x4(%eax),%eax
    1a77:	89 45 e4             	mov    %eax,-0x1c(%ebp)
    1a7a:	83 c0 3e             	add    $0x3e,%eax
    1a7d:	50                   	push   %eax
    1a7e:	e8 0d 08 01 00       	call   12290 <pio_write_16@plt>
    1a83:	83 c4 10             	add    $0x10,%esp
    1a86:	66 85 ff             	test   %di,%di
    1a89:	0f 89 12 fe ff ff    	jns    18a1 <rtl8169_irq_handler+0xa1>
    1a8f:	51                   	push   %ecx
    1a90:	51                   	push   %ecx
    1a91:	68 eb f9 00 00       	push   $0xf9eb
    1a96:	6a 01                	push   $0x1
    1a98:	e8 b3 25 00 00       	call   4050 <ddf_msg>
    1a9d:	8b 45 e0             	mov    -0x20(%ebp),%eax
    1aa0:	5b                   	pop    %ebx
    1aa1:	5e                   	pop    %esi
    1aa2:	68 00 80 00 00       	push   $0x8000
    1aa7:	8b 40 04             	mov    0x4(%eax),%eax
    1aaa:	89 45 e4             	mov    %eax,-0x1c(%ebp)
    1aad:	83 c0 3e             	add    $0x3e,%eax
    1ab0:	50                   	push   %eax
    1ab1:	e8 da 07 01 00       	call   12290 <pio_write_16@plt>
    1ab6:	83 c4 10             	add    $0x10,%esp
    1ab9:	83 e7 03             	and    $0x3,%edi
    1abc:	0f 84 e8 fd ff ff    	je     18aa <rtl8169_irq_handler+0xaa>
    1ac2:	8d b6 00 00 00 00    	lea    0x0(%esi),%esi
    1ac8:	83 ec 0c             	sub    $0xc,%esp
    1acb:	8b 7d d8             	mov    -0x28(%ebp),%edi
    1ace:	57                   	push   %edi
    1acf:	e8 bc b7 00 00       	call   d290 <nic_get_from_ddf_dev>
    1ad4:	89 04 24             	mov    %eax,(%esp)
    1ad7:	89 45 d0             	mov    %eax,-0x30(%ebp)
    1ada:	e8 41 b7 00 00       	call   d220 <nic_get_specific>
    1adf:	89 c6                	mov    %eax,%esi
    1ae1:	89 45 e4             	mov    %eax,-0x1c(%ebp)
    1ae4:	e8 77 ac 00 00       	call   c760 <nic_alloc_frame_list>
    1ae9:	89 45 cc             	mov    %eax,-0x34(%ebp)
    1aec:	58                   	pop    %eax
    1aed:	5a                   	pop    %edx
    1aee:	68 02 fa 00 00       	push   $0xfa02
    1af3:	6a 04                	push   $0x4
    1af5:	e8 56 25 00 00       	call   4050 <ddf_msg>
    1afa:	89 f0                	mov    %esi,%eax
    1afc:	83 c0 54             	add    $0x54,%eax
    1aff:	89 04 24             	mov    %eax,(%esp)
    1b02:	89 45 c8             	mov    %eax,-0x38(%ebp)
    1b05:	e8 96 0b 01 00       	call   126a0 <fibril_mutex_lock@plt>
    1b0a:	8b 5e 30             	mov    0x30(%esi),%ebx
    1b0d:	83 c4 10             	add    $0x10,%esp
    1b10:	8b 76 28             	mov    0x28(%esi),%esi
    1b13:	c7 45 dc 00 00 00 00 	movl   $0x0,-0x24(%ebp)
    1b1a:	89 df                	mov    %ebx,%edi
    1b1c:	c1 e7 04             	shl    $0x4,%edi
    1b1f:	01 f7                	add    %esi,%edi
    1b21:	8b 07                	mov    (%edi),%eax
    1b23:	85 c0                	test   %eax,%eax
    1b25:	78 32                	js     1b59 <rtl8169_irq_handler+0x359>
    1b27:	a9 00 00 20 00       	test   $0x200000,%eax
    1b2c:	0f 85 c6 00 00 00    	jne    1bf8 <rtl8169_irq_handler+0x3f8>
    1b32:	a9 00 00 00 20       	test   $0x20000000,%eax
    1b37:	0f 85 a3 00 00 00    	jne    1be0 <rtl8169_irq_handler+0x3e0>
    1b3d:	a9 00 00 00 10       	test   $0x10000000,%eax
    1b42:	0f 85 d0 00 00 00    	jne    1c18 <rtl8169_irq_handler+0x418>
    1b48:	43                   	inc    %ebx
    1b49:	83 e3 0f             	and    $0xf,%ebx
    1b4c:	89 df                	mov    %ebx,%edi
    1b4e:	c1 e7 04             	shl    $0x4,%edi
    1b51:	01 f7                	add    %esi,%edi
    1b53:	8b 07                	mov    (%edi),%eax
    1b55:	85 c0                	test   %eax,%eax
    1b57:	79 ce                	jns    1b27 <rtl8169_irq_handler+0x327>
    1b59:	8b 4d e4             	mov    -0x1c(%ebp),%ecx
    1b5c:	8b 41 30             	mov    0x30(%ecx),%eax
    1b5f:	8b 79 3c             	mov    0x3c(%ecx),%edi
    1b62:	eb 0c                	jmp    1b70 <rtl8169_irq_handler+0x370>
    1b64:	8d 74 26 00          	lea    0x0(%esi,%eiz,1),%esi
    1b68:	39 c3                	cmp    %eax,%ebx
    1b6a:	74 31                	je     1b9d <rtl8169_irq_handler+0x39d>
    1b6c:	40                   	inc    %eax
    1b6d:	83 e0 0f             	and    $0xf,%eax
    1b70:	89 c2                	mov    %eax,%edx
    1b72:	89 c1                	mov    %eax,%ecx
    1b74:	c1 e2 04             	shl    $0x4,%edx
    1b77:	c1 e1 0b             	shl    $0xb,%ecx
    1b7a:	01 f2                	add    %esi,%edx
    1b7c:	01 f9                	add    %edi,%ecx
    1b7e:	83 f8 0f             	cmp    $0xf,%eax
    1b81:	c7 02 00 08 00 80    	movl   $0x80000800,(%edx)
    1b87:	89 4a 08             	mov    %ecx,0x8(%edx)
    1b8a:	c7 42 0c 00 00 00 00 	movl   $0x0,0xc(%edx)
    1b91:	75 d5                	jne    1b68 <rtl8169_irq_handler+0x368>
    1b93:	c7 02 00 08 00 c0    	movl   $0xc0000800,(%edx)
    1b99:	39 c3                	cmp    %eax,%ebx
    1b9b:	75 cf                	jne    1b6c <rtl8169_irq_handler+0x36c>
    1b9d:	8b 45 e4             	mov    -0x1c(%ebp),%eax
    1ba0:	83 ec 0c             	sub    $0xc,%esp
    1ba3:	89 58 30             	mov    %ebx,0x30(%eax)
    1ba6:	8b 45 c8             	mov    -0x38(%ebp),%eax
    1ba9:	50                   	push   %eax
    1baa:	e8 51 07 01 00       	call   12300 <fibril_mutex_unlock@plt>
    1baf:	8b 5d cc             	mov    -0x34(%ebp),%ebx
    1bb2:	8b 75 d0             	mov    -0x30(%ebp),%esi
    1bb5:	5a                   	pop    %edx
    1bb6:	59                   	pop    %ecx
    1bb7:	53                   	push   %ebx
    1bb8:	56                   	push   %esi
    1bb9:	e8 72 b0 00 00       	call   cc30 <nic_received_frame_list>
    1bbe:	5f                   	pop    %edi
    1bbf:	58                   	pop    %eax
    1bc0:	8b 45 e0             	mov    -0x20(%ebp),%eax
    1bc3:	6a 03                	push   $0x3
    1bc5:	8b 40 04             	mov    0x4(%eax),%eax
    1bc8:	89 45 e4             	mov    %eax,-0x1c(%ebp)
    1bcb:	83 c0 3e             	add    $0x3e,%eax
    1bce:	50                   	push   %eax
    1bcf:	e8 bc 06 01 00       	call   12290 <pio_write_16@plt>
    1bd4:	83 c4 10             	add    $0x10,%esp
    1bd7:	e9 ce fc ff ff       	jmp    18aa <rtl8169_irq_handler+0xaa>
    1bdc:	8d 74 26 00          	lea    0x0(%esi,%eiz,1),%esi
    1be0:	a9 00 00 00 10       	test   $0x10000000,%eax
    1be5:	0f 85 a5 00 00 00    	jne    1c90 <rtl8169_irq_handler+0x490>
    1beb:	89 5d dc             	mov    %ebx,-0x24(%ebp)
    1bee:	e9 55 ff ff ff       	jmp    1b48 <rtl8169_irq_handler+0x348>
    1bf3:	90                   	nop
    1bf4:	8d 74 26 00          	lea    0x0(%esi,%eiz,1),%esi
    1bf8:	50                   	push   %eax
    1bf9:	53                   	push   %ebx
    1bfa:	68 19 fa 00 00       	push   $0xfa19
    1bff:	6a 02                	push   $0x2
    1c01:	e8 4a 24 00 00       	call   4050 <ddf_msg>
    1c06:	8b 45 e4             	mov    -0x1c(%ebp),%eax
    1c09:	43                   	inc    %ebx
    1c0a:	8b 70 28             	mov    0x28(%eax),%esi
    1c0d:	83 e3 0f             	and    $0xf,%ebx
    1c10:	83 c4 10             	add    $0x10,%esp
    1c13:	e9 02 ff ff ff       	jmp    1b1a <rtl8169_irq_handler+0x31a>
    1c18:	50                   	push   %eax
    1c19:	53                   	push   %ebx
    1c1a:	68 fc fb 00 00       	push   $0xfbfc
    1c1f:	6a 04                	push   $0x4
    1c21:	e8 2a 24 00 00       	call   4050 <ddf_msg>
    1c26:	83 c4 10             	add    $0x10,%esp
    1c29:	3b 5d dc             	cmp    -0x24(%ebp),%ebx
    1c2c:	74 11                	je     1c3f <rtl8169_irq_handler+0x43f>
    1c2e:	56                   	push   %esi
    1c2f:	56                   	push   %esi
    1c30:	68 28 fc 00 00       	push   $0xfc28
    1c35:	6a 02                	push   $0x2
    1c37:	e8 14 24 00 00       	call   4050 <ddf_msg>
    1c3c:	83 c4 10             	add    $0x10,%esp
    1c3f:	8b 45 e4             	mov    -0x1c(%ebp),%eax
    1c42:	89 da                	mov    %ebx,%edx
    1c44:	c1 e2 0b             	shl    $0xb,%edx
    1c47:	8b 37                	mov    (%edi),%esi
    1c49:	8b 48 40             	mov    0x40(%eax),%ecx
    1c4c:	81 e6 ff 1f 00 00    	and    $0x1fff,%esi
    1c52:	01 ca                	add    %ecx,%edx
    1c54:	8b 45 d0             	mov    -0x30(%ebp),%eax
    1c57:	89 55 d4             	mov    %edx,-0x2c(%ebp)
    1c5a:	57                   	push   %edi
    1c5b:	57                   	push   %edi
    1c5c:	56                   	push   %esi
    1c5d:	50                   	push   %eax
    1c5e:	e8 6d a9 00 00       	call   c5d0 <nic_alloc_frame>
    1c63:	83 c4 0c             	add    $0xc,%esp
    1c66:	8b 55 d4             	mov    -0x2c(%ebp),%edx
    1c69:	89 c7                	mov    %eax,%edi
    1c6b:	56                   	push   %esi
    1c6c:	52                   	push   %edx
    1c6d:	8b 40 08             	mov    0x8(%eax),%eax
    1c70:	50                   	push   %eax
    1c71:	e8 0a 05 01 00       	call   12180 <memcpy@plt>
    1c76:	8b 4d cc             	mov    -0x34(%ebp),%ecx
    1c79:	58                   	pop    %eax
    1c7a:	5a                   	pop    %edx
    1c7b:	57                   	push   %edi
    1c7c:	51                   	push   %ecx
    1c7d:	e8 7e ab 00 00       	call   c800 <nic_frame_list_append>
    1c82:	8b 45 e4             	mov    -0x1c(%ebp),%eax
    1c85:	83 c4 10             	add    $0x10,%esp
    1c88:	8b 70 28             	mov    0x28(%eax),%esi
    1c8b:	e9 b8 fe ff ff       	jmp    1b48 <rtl8169_irq_handler+0x348>
    1c90:	50                   	push   %eax
    1c91:	53                   	push   %ebx
    1c92:	68 fc fb 00 00       	push   $0xfbfc
    1c97:	6a 04                	push   $0x4
    1c99:	e8 b2 23 00 00       	call   4050 <ddf_msg>
    1c9e:	83 c4 10             	add    $0x10,%esp
    1ca1:	89 5d dc             	mov    %ebx,-0x24(%ebp)
    1ca4:	eb 99                	jmp    1c3f <rtl8169_irq_handler+0x43f>
    1ca6:	66 90                	xchg   %ax,%ax
    1ca8:	83 ec 0c             	sub    $0xc,%esp
    1cab:	8b 5d d8             	mov    -0x28(%ebp),%ebx
    1cae:	53                   	push   %ebx
    1caf:	e8 bc 1a 00 00       	call   3770 <ddf_dev_get_name>
    1cb4:	83 c4 0c             	add    $0xc,%esp
    1cb7:	50                   	push   %eax
    1cb8:	68 c5 f9 00 00       	push   $0xf9c5
    1cbd:	6a 03                	push   $0x3
    1cbf:	e8 8c 23 00 00       	call   4050 <ddf_msg>
    1cc4:	83 c4 10             	add    $0x10,%esp
    1cc7:	e9 ba fc ff ff       	jmp    1986 <rtl8169_irq_handler+0x186>
    1ccc:	8d 74 26 00          	lea    0x0(%esi,%eiz,1),%esi
    1cd0:	8b 45 e0             	mov    -0x20(%ebp),%eax
    1cd3:	c7 45 0c ff ff 00 00 	movl   $0xffff,0xc(%ebp)
    1cda:	8b 40 04             	mov    0x4(%eax),%eax
    1cdd:	83 c0 3e             	add    $0x3e,%eax
    1ce0:	89 45 08             	mov    %eax,0x8(%ebp)
    1ce3:	8d 65 f4             	lea    -0xc(%ebp),%esp
    1ce6:	5b                   	pop    %ebx
    1ce7:	5e                   	pop    %esi
    1ce8:	5f                   	pop    %edi
    1ce9:	5d                   	pop    %ebp
    1cea:	e9 a1 05 01 00       	jmp    12290 <pio_write_16@plt>
    1cef:	53                   	push   %ebx
    1cf0:	68 09 04 00 00       	push   $0x409
    1cf5:	68 73 ff 00 00       	push   $0xff73
    1cfa:	68 98 f9 00 00       	push   $0xf998
    1cff:	e8 5c 05 01 00       	call   12260 <assert_abort@plt>
    1d04:	51                   	push   %ecx
    1d05:	68 0a 04 00 00       	push   $0x40a
    1d0a:	68 73 ff 00 00       	push   $0xff73
    1d0f:	68 9c f9 00 00       	push   $0xf99c
    1d14:	e8 47 05 01 00       	call   12260 <assert_abort@plt>
    1d19:	8d b4 26 00 00 00 00 	lea    0x0(%esi,%eiz,1),%esi

00001d20 <rtl8169_on_activated>:
    1d20:	55                   	push   %ebp
    1d21:	89 e5                	mov    %esp,%ebp
    1d23:	53                   	push   %ebx
    1d24:	83 ec 0c             	sub    $0xc,%esp
    1d27:	68 33 fa 00 00       	push   $0xfa33
    1d2c:	6a 03                	push   $0x3
    1d2e:	e8 1d 23 00 00       	call   4050 <ddf_msg>
    1d33:	8b 5d 08             	mov    0x8(%ebp),%ebx
    1d36:	59                   	pop    %ecx
    1d37:	53                   	push   %ebx
    1d38:	e8 e3 b4 00 00       	call   d220 <nic_get_specific>
    1d3d:	5a                   	pop    %edx
    1d3e:	89 c3                	mov    %eax,%ebx
    1d40:	59                   	pop    %ecx
    1d41:	8b 40 04             	mov    0x4(%eax),%eax
    1d44:	6a 00                	push   $0x0
    1d46:	83 c0 51             	add    $0x51,%eax
    1d49:	50                   	push   %eax
    1d4a:	e8 71 05 01 00       	call   122c0 <pio_write_8@plt>
    1d4f:	58                   	pop    %eax
    1d50:	8b 43 04             	mov    0x4(%ebx),%eax
    1d53:	83 c0 37             	add    $0x37,%eax
    1d56:	5a                   	pop    %edx
    1d57:	6a 10                	push   $0x10
    1d59:	50                   	push   %eax
    1d5a:	e8 61 05 01 00       	call   122c0 <pio_write_8@plt>
    1d5f:	0f ae f0             	mfence 
    1d62:	83 c4 10             	add    $0x10,%esp
    1d65:	eb 11                	jmp    1d78 <rtl8169_on_activated+0x58>
    1d67:	90                   	nop
    1d68:	83 ec 0c             	sub    $0xc,%esp
    1d6b:	6a 01                	push   $0x1
    1d6d:	e8 ce 03 01 00       	call   12140 <usleep@plt>
    1d72:	0f ae e8             	lfence 
    1d75:	83 c4 10             	add    $0x10,%esp
    1d78:	83 ec 0c             	sub    $0xc,%esp
    1d7b:	8b 43 04             	mov    0x4(%ebx),%eax
    1d7e:	83 c0 37             	add    $0x37,%eax
    1d81:	50                   	push   %eax
    1d82:	e8 b9 04 01 00       	call   12240 <pio_read_8@plt>
    1d87:	83 c4 10             	add    $0x10,%esp
    1d8a:	a8 10                	test   $0x10,%al
    1d8c:	75 da                	jne    1d68 <rtl8169_on_activated+0x48>
    1d8e:	51                   	push   %ecx
    1d8f:	51                   	push   %ecx
    1d90:	68 45 fa 00 00       	push   $0xfa45
    1d95:	6a 04                	push   $0x4
    1d97:	e8 b4 22 00 00       	call   4050 <ddf_msg>
    1d9c:	c7 43 18 ff ff ff ff 	movl   $0xffffffff,0x18(%ebx)
    1da3:	58                   	pop    %eax
    1da4:	8d 43 18             	lea    0x18(%ebx),%eax
    1da7:	5a                   	pop    %edx
    1da8:	50                   	push   %eax
    1da9:	8d 43 14             	lea    0x14(%ebx),%eax
    1dac:	50                   	push   %eax
    1dad:	6a 00                	push   $0x0
    1daf:	6a 03                	push   $0x3
    1db1:	6a 00                	push   $0x0
    1db3:	68 00 01 00 00       	push   $0x100
    1db8:	e8 93 06 01 00       	call   12450 <dmamem_map_anonymous@plt>
    1dbd:	83 c4 20             	add    $0x20,%esp
    1dc0:	85 c0                	test   %eax,%eax
    1dc2:	74 1c                	je     1de0 <rtl8169_on_activated+0xc0>
    1dc4:	52                   	push   %edx
    1dc5:	50                   	push   %eax
    1dc6:	68 61 fa 00 00       	push   $0xfa61
    1dcb:	6a 01                	push   $0x1
    1dcd:	e8 7e 22 00 00       	call   4050 <ddf_msg>
    1dd2:	83 c4 10             	add    $0x10,%esp
    1dd5:	31 c0                	xor    %eax,%eax
    1dd7:	8b 5d fc             	mov    -0x4(%ebp),%ebx
    1dda:	c9                   	leave  
    1ddb:	c3                   	ret    
    1ddc:	8d 74 26 00          	lea    0x0(%esi,%eiz,1),%esi
    1de0:	8b 4b 18             	mov    0x18(%ebx),%ecx
    1de3:	8b 43 14             	mov    0x14(%ebx),%eax
    1de6:	51                   	push   %ecx
    1de7:	50                   	push   %eax
    1de8:	68 54 fc 00 00       	push   $0xfc54
    1ded:	6a 04                	push   $0x4
    1def:	e8 5c 22 00 00       	call   4050 <ddf_msg>
    1df4:	83 c4 0c             	add    $0xc,%esp
    1df7:	8b 43 18             	mov    0x18(%ebx),%eax
    1dfa:	68 00 01 00 00       	push   $0x100
    1dff:	6a 00                	push   $0x0
    1e01:	50                   	push   %eax
    1e02:	e8 19 06 01 00       	call   12420 <memset@plt>
    1e07:	c7 43 28 ff ff ff ff 	movl   $0xffffffff,0x28(%ebx)
    1e0e:	58                   	pop    %eax
    1e0f:	8d 43 28             	lea    0x28(%ebx),%eax
    1e12:	5a                   	pop    %edx
    1e13:	50                   	push   %eax
    1e14:	8d 43 24             	lea    0x24(%ebx),%eax
    1e17:	50                   	push   %eax
    1e18:	6a 00                	push   $0x0
    1e1a:	6a 03                	push   $0x3
    1e1c:	6a 00                	push   $0x0
    1e1e:	68 00 01 00 00       	push   $0x100
    1e23:	e8 28 06 01 00       	call   12450 <dmamem_map_anonymous@plt>
    1e28:	83 c4 20             	add    $0x20,%esp
    1e2b:	85 c0                	test   %eax,%eax
    1e2d:	75 95                	jne    1dc4 <rtl8169_on_activated+0xa4>
    1e2f:	8b 4b 28             	mov    0x28(%ebx),%ecx
    1e32:	8b 43 24             	mov    0x24(%ebx),%eax
    1e35:	51                   	push   %ecx
    1e36:	50                   	push   %eax
    1e37:	68 7c fc 00 00       	push   $0xfc7c
    1e3c:	6a 04                	push   $0x4
    1e3e:	e8 0d 22 00 00       	call   4050 <ddf_msg>
    1e43:	83 c4 0c             	add    $0xc,%esp
    1e46:	8b 43 28             	mov    0x28(%ebx),%eax
    1e49:	68 00 01 00 00       	push   $0x100
    1e4e:	6a 00                	push   $0x0
    1e50:	50                   	push   %eax
    1e51:	e8 ca 05 01 00       	call   12420 <memset@plt>
    1e56:	c7 43 38 ff ff ff ff 	movl   $0xffffffff,0x38(%ebx)
    1e5d:	58                   	pop    %eax
    1e5e:	8d 43 38             	lea    0x38(%ebx),%eax
    1e61:	5a                   	pop    %edx
    1e62:	50                   	push   %eax
    1e63:	8d 43 34             	lea    0x34(%ebx),%eax
    1e66:	50                   	push   %eax
    1e67:	6a 00                	push   $0x0
    1e69:	6a 03                	push   $0x3
    1e6b:	6a 00                	push   $0x0
    1e6d:	68 00 80 00 00       	push   $0x8000
    1e72:	e8 d9 05 01 00       	call   12450 <dmamem_map_anonymous@plt>
    1e77:	83 c4 20             	add    $0x20,%esp
    1e7a:	85 c0                	test   %eax,%eax
    1e7c:	0f 85 42 ff ff ff    	jne    1dc4 <rtl8169_on_activated+0xa4>
    1e82:	8b 43 38             	mov    0x38(%ebx),%eax
    1e85:	50                   	push   %eax
    1e86:	8b 43 34             	mov    0x34(%ebx),%eax
    1e89:	50                   	push   %eax
    1e8a:	68 a4 fc 00 00       	push   $0xfca4
    1e8f:	6a 04                	push   $0x4
    1e91:	e8 ba 21 00 00       	call   4050 <ddf_msg>
    1e96:	c7 43 40 ff ff ff ff 	movl   $0xffffffff,0x40(%ebx)
    1e9d:	58                   	pop    %eax
    1e9e:	8d 43 40             	lea    0x40(%ebx),%eax
    1ea1:	5a                   	pop    %edx
    1ea2:	50                   	push   %eax
    1ea3:	8d 43 3c             	lea    0x3c(%ebx),%eax
    1ea6:	50                   	push   %eax
    1ea7:	6a 00                	push   $0x0
    1ea9:	6a 03                	push   $0x3
    1eab:	6a 00                	push   $0x0
    1ead:	68 00 80 00 00       	push   $0x8000
    1eb2:	e8 99 05 01 00       	call   12450 <dmamem_map_anonymous@plt>
    1eb7:	83 c4 20             	add    $0x20,%esp
    1eba:	85 c0                	test   %eax,%eax
    1ebc:	0f 85 02 ff ff ff    	jne    1dc4 <rtl8169_on_activated+0xa4>
    1ec2:	8b 4b 40             	mov    0x40(%ebx),%ecx
    1ec5:	8b 43 3c             	mov    0x3c(%ebx),%eax
    1ec8:	51                   	push   %ecx
    1ec9:	50                   	push   %eax
    1eca:	68 d0 fc 00 00       	push   $0xfcd0
    1ecf:	6a 04                	push   $0x4
    1ed1:	e8 7a 21 00 00       	call   4050 <ddf_msg>
    1ed6:	8b 53 3c             	mov    0x3c(%ebx),%edx
    1ed9:	8b 43 28             	mov    0x28(%ebx),%eax
    1edc:	8d 8a 00 08 00 00    	lea    0x800(%edx),%ecx
    1ee2:	89 48 18             	mov    %ecx,0x18(%eax)
    1ee5:	8d 8a 00 10 00 00    	lea    0x1000(%edx),%ecx
    1eeb:	89 48 28             	mov    %ecx,0x28(%eax)
    1eee:	8d 8a 00 18 00 00    	lea    0x1800(%edx),%ecx
    1ef4:	89 48 38             	mov    %ecx,0x38(%eax)
    1ef7:	8d 8a 00 20 00 00    	lea    0x2000(%edx),%ecx
    1efd:	89 48 48             	mov    %ecx,0x48(%eax)
    1f00:	8d 8a 00 28 00 00    	lea    0x2800(%edx),%ecx
    1f06:	89 48 58             	mov    %ecx,0x58(%eax)
    1f09:	8d 8a 00 30 00 00    	lea    0x3000(%edx),%ecx
    1f0f:	89 48 68             	mov    %ecx,0x68(%eax)
    1f12:	8d 8a 00 38 00 00    	lea    0x3800(%edx),%ecx
    1f18:	89 48 78             	mov    %ecx,0x78(%eax)
    1f1b:	8d 8a 00 40 00 00    	lea    0x4000(%edx),%ecx
    1f21:	89 88 88 00 00 00    	mov    %ecx,0x88(%eax)
    1f27:	8d 8a 00 48 00 00    	lea    0x4800(%edx),%ecx
    1f2d:	89 88 98 00 00 00    	mov    %ecx,0x98(%eax)
    1f33:	8d 8a 00 50 00 00    	lea    0x5000(%edx),%ecx
    1f39:	89 50 08             	mov    %edx,0x8(%eax)
    1f3c:	c7 00 00 08 00 80    	movl   $0x80000800,(%eax)
    1f42:	c7 40 0c 00 00 00 00 	movl   $0x0,0xc(%eax)
    1f49:	c7 40 10 00 08 00 80 	movl   $0x80000800,0x10(%eax)
    1f50:	c7 40 1c 00 00 00 00 	movl   $0x0,0x1c(%eax)
    1f57:	c7 40 20 00 08 00 80 	movl   $0x80000800,0x20(%eax)
    1f5e:	c7 40 2c 00 00 00 00 	movl   $0x0,0x2c(%eax)
    1f65:	c7 40 30 00 08 00 80 	movl   $0x80000800,0x30(%eax)
    1f6c:	c7 40 3c 00 00 00 00 	movl   $0x0,0x3c(%eax)
    1f73:	c7 40 40 00 08 00 80 	movl   $0x80000800,0x40(%eax)
    1f7a:	c7 40 4c 00 00 00 00 	movl   $0x0,0x4c(%eax)
    1f81:	c7 40 50 00 08 00 80 	movl   $0x80000800,0x50(%eax)
    1f88:	c7 40 5c 00 00 00 00 	movl   $0x0,0x5c(%eax)
    1f8f:	c7 40 60 00 08 00 80 	movl   $0x80000800,0x60(%eax)
    1f96:	c7 40 6c 00 00 00 00 	movl   $0x0,0x6c(%eax)
    1f9d:	c7 40 70 00 08 00 80 	movl   $0x80000800,0x70(%eax)
    1fa4:	c7 40 7c 00 00 00 00 	movl   $0x0,0x7c(%eax)
    1fab:	c7 80 80 00 00 00 00 	movl   $0x80000800,0x80(%eax)
    1fb2:	08 00 80 
    1fb5:	c7 80 8c 00 00 00 00 	movl   $0x0,0x8c(%eax)
    1fbc:	00 00 00 
    1fbf:	c7 80 90 00 00 00 00 	movl   $0x80000800,0x90(%eax)
    1fc6:	08 00 80 
    1fc9:	c7 80 9c 00 00 00 00 	movl   $0x0,0x9c(%eax)
    1fd0:	00 00 00 
    1fd3:	c7 80 a0 00 00 00 00 	movl   $0x80000800,0xa0(%eax)
    1fda:	08 00 80 
    1fdd:	89 88 a8 00 00 00    	mov    %ecx,0xa8(%eax)
    1fe3:	8d 8a 00 58 00 00    	lea    0x5800(%edx),%ecx
    1fe9:	89 88 b8 00 00 00    	mov    %ecx,0xb8(%eax)
    1fef:	8d 8a 00 60 00 00    	lea    0x6000(%edx),%ecx
    1ff5:	89 88 c8 00 00 00    	mov    %ecx,0xc8(%eax)
    1ffb:	8d 8a 00 68 00 00    	lea    0x6800(%edx),%ecx
    2001:	89 88 d8 00 00 00    	mov    %ecx,0xd8(%eax)
    2007:	8d 8a 00 70 00 00    	lea    0x7000(%edx),%ecx
    200d:	81 c2 00 78 00 00    	add    $0x7800,%edx
    2013:	89 88 e8 00 00 00    	mov    %ecx,0xe8(%eax)
    2019:	c7 80 ac 00 00 00 00 	movl   $0x0,0xac(%eax)
    2020:	00 00 00 
    2023:	c7 80 b0 00 00 00 00 	movl   $0x80000800,0xb0(%eax)
    202a:	08 00 80 
    202d:	c7 80 bc 00 00 00 00 	movl   $0x0,0xbc(%eax)
    2034:	00 00 00 
    2037:	c7 80 c0 00 00 00 00 	movl   $0x80000800,0xc0(%eax)
    203e:	08 00 80 
    2041:	c7 80 cc 00 00 00 00 	movl   $0x0,0xcc(%eax)
    2048:	00 00 00 
    204b:	c7 80 d0 00 00 00 00 	movl   $0x80000800,0xd0(%eax)
    2052:	08 00 80 
    2055:	c7 80 dc 00 00 00 00 	movl   $0x0,0xdc(%eax)
    205c:	00 00 00 
    205f:	c7 80 e0 00 00 00 00 	movl   $0x80000800,0xe0(%eax)
    2066:	08 00 80 
    2069:	c7 80 ec 00 00 00 00 	movl   $0x0,0xec(%eax)
    2070:	00 00 00 
    2073:	89 90 f8 00 00 00    	mov    %edx,0xf8(%eax)
    2079:	c7 80 fc 00 00 00 00 	movl   $0x0,0xfc(%eax)
    2080:	00 00 00 
    2083:	c7 80 f0 00 00 00 00 	movl   $0xc0000800,0xf0(%eax)
    208a:	08 00 c0 
    208d:	58                   	pop    %eax
    208e:	8b 43 04             	mov    0x4(%ebx),%eax
    2091:	8b 4b 14             	mov    0x14(%ebx),%ecx
    2094:	83 c0 20             	add    $0x20,%eax
    2097:	5a                   	pop    %edx
    2098:	51                   	push   %ecx
    2099:	50                   	push   %eax
    209a:	e8 d1 02 01 00       	call   12370 <pio_write_32@plt>
    209f:	58                   	pop    %eax
    20a0:	8b 43 04             	mov    0x4(%ebx),%eax
    20a3:	83 c0 24             	add    $0x24,%eax
    20a6:	5a                   	pop    %edx
    20a7:	6a 00                	push   $0x0
    20a9:	50                   	push   %eax
    20aa:	e8 c1 02 01 00       	call   12370 <pio_write_32@plt>
    20af:	8b 43 18             	mov    0x18(%ebx),%eax
    20b2:	c7 43 1c 00 00 00 00 	movl   $0x0,0x1c(%ebx)
    20b9:	c7 43 20 00 00 00 00 	movl   $0x0,0x20(%ebx)
    20c0:	c7 80 f0 00 00 00 00 	movl   $0x40000000,0xf0(%eax)
    20c7:	00 00 40 
    20ca:	59                   	pop    %ecx
    20cb:	58                   	pop    %eax
    20cc:	8b 43 24             	mov    0x24(%ebx),%eax
    20cf:	50                   	push   %eax
    20d0:	8b 43 04             	mov    0x4(%ebx),%eax
    20d3:	05 e4 00 00 00       	add    $0xe4,%eax
    20d8:	50                   	push   %eax
    20d9:	e8 92 02 01 00       	call   12370 <pio_write_32@plt>
    20de:	58                   	pop    %eax
    20df:	8b 43 04             	mov    0x4(%ebx),%eax
    20e2:	05 e8 00 00 00       	add    $0xe8,%eax
    20e7:	5a                   	pop    %edx
    20e8:	6a 00                	push   $0x0
    20ea:	50                   	push   %eax
    20eb:	e8 80 02 01 00       	call   12370 <pio_write_32@plt>
    20f0:	c7 43 2c 00 00 00 00 	movl   $0x0,0x2c(%ebx)
    20f7:	c7 43 30 00 00 00 00 	movl   $0x0,0x30(%ebx)
    20fe:	59                   	pop    %ecx
    20ff:	58                   	pop    %eax
    2100:	8b 43 04             	mov    0x4(%ebx),%eax
    2103:	68 ff ff 00 00       	push   $0xffff
    2108:	83 c0 3e             	add    $0x3e,%eax
    210b:	50                   	push   %eax
    210c:	e8 7f 01 01 00       	call   12290 <pio_write_16@plt>
    2111:	8b 43 04             	mov    0x4(%ebx),%eax
    2114:	83 c0 37             	add    $0x37,%eax
    2117:	89 04 24             	mov    %eax,(%esp)
    211a:	e8 21 01 01 00       	call   12240 <pio_read_8@plt>
    211f:	83 c8 0c             	or     $0xc,%eax
    2122:	5a                   	pop    %edx
    2123:	88 c2                	mov    %al,%dl
    2125:	31 c0                	xor    %eax,%eax
    2127:	88 d0                	mov    %dl,%al
    2129:	59                   	pop    %ecx
    212a:	50                   	push   %eax
    212b:	8b 43 04             	mov    0x4(%ebx),%eax
    212e:	83 c0 37             	add    $0x37,%eax
    2131:	50                   	push   %eax
    2132:	e8 89 01 01 00       	call   122c0 <pio_write_8@plt>
    2137:	58                   	pop    %eax
    2138:	8b 43 04             	mov    0x4(%ebx),%eax
    213b:	83 c0 08             	add    $0x8,%eax
    213e:	5a                   	pop    %edx
    213f:	6a ff                	push   $0xffffffff
    2141:	50                   	push   %eax
    2142:	e8 29 02 01 00       	call   12370 <pio_write_32@plt>
    2147:	59                   	pop    %ecx
    2148:	58                   	pop    %eax
    2149:	8b 43 04             	mov    0x4(%ebx),%eax
    214c:	83 c0 0c             	add    $0xc,%eax
    214f:	6a ff                	push   $0xffffffff
    2151:	50                   	push   %eax
    2152:	e8 19 02 01 00       	call   12370 <pio_write_32@plt>
    2157:	8b 43 04             	mov    0x4(%ebx),%eax
    215a:	83 c0 44             	add    $0x44,%eax
    215d:	89 04 24             	mov    %eax,(%esp)
    2160:	e8 2b 00 01 00       	call   12190 <pio_read_32@plt>
    2165:	c7 43 4c 02 00 00 00 	movl   $0x2,0x4c(%ebx)
    216c:	83 c8 32             	or     $0x32,%eax
    216f:	5a                   	pop    %edx
    2170:	59                   	pop    %ecx
    2171:	50                   	push   %eax
    2172:	8b 43 04             	mov    0x4(%ebx),%eax
    2175:	83 c0 44             	add    $0x44,%eax
    2178:	50                   	push   %eax
    2179:	e8 f2 01 01 00       	call   12370 <pio_write_32@plt>
    217e:	58                   	pop    %eax
    217f:	8b 43 04             	mov    0x4(%ebx),%eax
    2182:	05 da 00 00 00       	add    $0xda,%eax
    2187:	5a                   	pop    %edx
    2188:	68 00 08 00 00       	push   $0x800
    218d:	50                   	push   %eax
    218e:	e8 fd 00 01 00       	call   12290 <pio_write_16@plt>
    2193:	59                   	pop    %ecx
    2194:	58                   	pop    %eax
    2195:	8b 43 04             	mov    0x4(%ebx),%eax
    2198:	83 c0 3c             	add    $0x3c,%eax
    219b:	68 ff ff 00 00       	push   $0xffff
    21a0:	50                   	push   %eax
    21a1:	e8 ea 00 01 00       	call   12290 <pio_write_16@plt>
    21a6:	58                   	pop    %eax
    21a7:	8b 43 08             	mov    0x8(%ebx),%eax
    21aa:	50                   	push   %eax
    21ab:	e8 70 ff 00 00       	call   12120 <irc_enable_interrupt@plt>
    21b0:	83 c4 10             	add    $0x10,%esp
    21b3:	8b 5d fc             	mov    -0x4(%ebp),%ebx
    21b6:	31 c0                	xor    %eax,%eax
    21b8:	c9                   	leave  
    21b9:	c3                   	ret    
    21ba:	8d b6 00 00 00 00    	lea    0x0(%esi),%esi

000021c0 <rtl8169_set_operation_mode>:
    21c0:	55                   	push   %ebp
    21c1:	89 e5                	mov    %esp,%ebp
    21c3:	57                   	push   %edi
    21c4:	56                   	push   %esi
    21c5:	53                   	push   %ebx
    21c6:	83 ec 18             	sub    $0x18,%esp
    21c9:	8b 75 08             	mov    0x8(%ebp),%esi
    21cc:	8b 5d 0c             	mov    0xc(%ebp),%ebx
    21cf:	56                   	push   %esi
    21d0:	e8 cb b0 00 00       	call   d2a0 <nic_get_from_ddf_fun>
    21d5:	89 04 24             	mov    %eax,(%esp)
    21d8:	e8 43 b0 00 00       	call   d220 <nic_get_specific>
    21dd:	83 c4 10             	add    $0x10,%esp
    21e0:	89 c7                	mov    %eax,%edi
    21e2:	83 fb 0a             	cmp    $0xa,%ebx
    21e5:	0f 95 c2             	setne  %dl
    21e8:	83 fb 64             	cmp    $0x64,%ebx
    21eb:	0f 95 c0             	setne  %al
    21ee:	84 c2                	test   %al,%dl
    21f0:	74 0c                	je     21fe <rtl8169_set_operation_mode+0x3e>
    21f2:	81 fb e8 03 00 00    	cmp    $0x3e8,%ebx
    21f8:	0f 85 d2 00 00 00    	jne    22d0 <rtl8169_set_operation_mode+0x110>
    21fe:	8b 45 10             	mov    0x10(%ebp),%eax
    2201:	48                   	dec    %eax
    2202:	83 f8 01             	cmp    $0x1,%eax
    2205:	0f 87 c5 00 00 00    	ja     22d0 <rtl8169_set_operation_mode+0x110>
    220b:	51                   	push   %ecx
    220c:	51                   	push   %ecx
    220d:	8b 47 04             	mov    0x4(%edi),%eax
    2210:	6a 00                	push   $0x0
    2212:	83 c0 60             	add    $0x60,%eax
    2215:	50                   	push   %eax
    2216:	e8 55 01 01 00       	call   12370 <pio_write_32@plt>
    221b:	83 c4 10             	add    $0x10,%esp
    221e:	66 90                	xchg   %ax,%ax
    2220:	83 ec 0c             	sub    $0xc,%esp
    2223:	8b 47 04             	mov    0x4(%edi),%eax
    2226:	83 c0 60             	add    $0x60,%eax
    2229:	50                   	push   %eax
    222a:	e8 61 ff 00 00       	call   12190 <pio_read_32@plt>
    222f:	89 c6                	mov    %eax,%esi
    2231:	c7 04 24 14 00 00 00 	movl   $0x14,(%esp)
    2238:	e8 03 ff 00 00       	call   12140 <usleep@plt>
    223d:	83 c4 10             	add    $0x10,%esp
    2240:	85 f6                	test   %esi,%esi
    2242:	79 dc                	jns    2220 <rtl8169_set_operation_mode+0x60>
    2244:	89 f2                	mov    %esi,%edx
    2246:	81 e2 bf ce ff ff    	and    $0xffffcebf,%edx
    224c:	89 d0                	mov    %edx,%eax
    224e:	83 7d 10 01          	cmpl   $0x1,0x10(%ebp)
    2252:	0f 84 90 00 00 00    	je     22e8 <rtl8169_set_operation_mode+0x128>
    2258:	83 fb 64             	cmp    $0x64,%ebx
    225b:	0f 84 7f 00 00 00    	je     22e0 <rtl8169_set_operation_mode+0x120>
    2261:	81 fb e8 03 00 00    	cmp    $0x3e8,%ebx
    2267:	74 5f                	je     22c8 <rtl8169_set_operation_mode+0x108>
    2269:	52                   	push   %edx
    226a:	52                   	push   %edx
    226b:	31 d2                	xor    %edx,%edx
    226d:	66 89 c2             	mov    %ax,%dx
    2270:	8b 47 04             	mov    0x4(%edi),%eax
    2273:	81 ca 00 00 00 80    	or     $0x80000000,%edx
    2279:	83 c0 60             	add    $0x60,%eax
    227c:	52                   	push   %edx
    227d:	50                   	push   %eax
    227e:	e8 ed 00 01 00       	call   12370 <pio_write_32@plt>
    2283:	83 c4 10             	add    $0x10,%esp
    2286:	66 90                	xchg   %ax,%ax
    2288:	83 ec 0c             	sub    $0xc,%esp
    228b:	8b 47 04             	mov    0x4(%edi),%eax
    228e:	83 c0 60             	add    $0x60,%eax
    2291:	50                   	push   %eax
    2292:	e8 f9 fe 00 00       	call   12190 <pio_read_32@plt>
    2297:	89 c3                	mov    %eax,%ebx
    2299:	c7 04 24 14 00 00 00 	movl   $0x14,(%esp)
    22a0:	e8 9b fe 00 00       	call   12140 <usleep@plt>
    22a5:	83 c4 10             	add    $0x10,%esp
    22a8:	85 db                	test   %ebx,%ebx
    22aa:	78 dc                	js     2288 <rtl8169_set_operation_mode+0xc8>
    22ac:	83 ec 0c             	sub    $0xc,%esp
    22af:	6a 14                	push   $0x14
    22b1:	e8 8a fe 00 00       	call   12140 <usleep@plt>
    22b6:	83 c4 10             	add    $0x10,%esp
    22b9:	8d 65 f4             	lea    -0xc(%ebp),%esp
    22bc:	31 c0                	xor    %eax,%eax
    22be:	5b                   	pop    %ebx
    22bf:	5e                   	pop    %esi
    22c0:	5f                   	pop    %edi
    22c1:	5d                   	pop    %ebp
    22c2:	c3                   	ret    
    22c3:	90                   	nop
    22c4:	8d 74 26 00          	lea    0x0(%esi,%eiz,1),%esi
    22c8:	83 c8 40             	or     $0x40,%eax
    22cb:	eb 9c                	jmp    2269 <rtl8169_set_operation_mode+0xa9>
    22cd:	8d 76 00             	lea    0x0(%esi),%esi
    22d0:	8d 65 f4             	lea    -0xc(%ebp),%esp
    22d3:	b8 f2 ff ff ff       	mov    $0xfffffff2,%eax
    22d8:	5b                   	pop    %ebx
    22d9:	5e                   	pop    %esi
    22da:	5f                   	pop    %edi
    22db:	5d                   	pop    %ebp
    22dc:	c3                   	ret    
    22dd:	8d 76 00             	lea    0x0(%esi),%esi
    22e0:	80 cc 20             	or     $0x20,%ah
    22e3:	eb 84                	jmp    2269 <rtl8169_set_operation_mode+0xa9>
    22e5:	8d 76 00             	lea    0x0(%esi),%esi
    22e8:	80 cc 01             	or     $0x1,%ah
    22eb:	e9 68 ff ff ff       	jmp    2258 <rtl8169_set_operation_mode+0x98>

000022f0 <rtl8169_dev_add>:
    22f0:	55                   	push   %ebp
    22f1:	89 e5                	mov    %esp,%ebp
    22f3:	57                   	push   %edi
    22f4:	56                   	push   %esi
    22f5:	53                   	push   %ebx
    22f6:	83 ec 3c             	sub    $0x3c,%esp
    22f9:	8b 5d 08             	mov    0x8(%ebp),%ebx
    22fc:	85 db                	test   %ebx,%ebx
    22fe:	0f 84 f3 05 00 00    	je     28f7 <rtl8169_dev_add+0x607>
    2304:	83 ec 0c             	sub    $0xc,%esp
    2307:	53                   	push   %ebx
    2308:	e8 53 14 00 00       	call   3760 <ddf_dev_get_handle>
    230d:	89 1c 24             	mov    %ebx,(%esp)
    2310:	89 c6                	mov    %eax,%esi
    2312:	e8 59 14 00 00       	call   3770 <ddf_dev_get_name>
    2317:	56                   	push   %esi
    2318:	50                   	push   %eax
    2319:	68 00 fd 00 00       	push   $0xfd00
    231e:	6a 03                	push   $0x3
    2320:	e8 2b 1d 00 00       	call   4050 <ddf_msg>
    2325:	83 c4 14             	add    $0x14,%esp
    2328:	53                   	push   %ebx
    2329:	e8 62 af 00 00       	call   d290 <nic_get_from_ddf_dev>
    232e:	83 c4 10             	add    $0x10,%esp
    2331:	85 c0                	test   %eax,%eax
    2333:	0f 85 a9 05 00 00    	jne    28e2 <rtl8169_dev_add+0x5f2>
    2339:	83 ec 0c             	sub    $0xc,%esp
    233c:	53                   	push   %ebx
    233d:	e8 7e ab 00 00       	call   cec0 <nic_create_and_bind>
    2342:	83 c4 10             	add    $0x10,%esp
    2345:	89 c6                	mov    %eax,%esi
    2347:	85 c0                	test   %eax,%eax
    2349:	0f 84 bd 02 00 00    	je     260c <rtl8169_dev_add+0x31c>
    234f:	83 ec 0c             	sub    $0xc,%esp
    2352:	6a 78                	push   $0x78
    2354:	e8 47 fe 00 00       	call   121a0 <malloc@plt>
    2359:	83 c4 10             	add    $0x10,%esp
    235c:	89 c7                	mov    %eax,%edi
    235e:	85 c0                	test   %eax,%eax
    2360:	0f 84 9a 02 00 00    	je     2600 <rtl8169_dev_add+0x310>
    2366:	50                   	push   %eax
    2367:	6a 78                	push   $0x78
    2369:	6a 00                	push   $0x0
    236b:	57                   	push   %edi
    236c:	e8 af 00 01 00       	call   12420 <memset@plt>
    2371:	89 77 74             	mov    %esi,0x74(%edi)
    2374:	58                   	pop    %eax
    2375:	5a                   	pop    %edx
    2376:	57                   	push   %edi
    2377:	56                   	push   %esi
    2378:	e8 b3 ae 00 00       	call   d230 <nic_set_specific>
    237d:	59                   	pop    %ecx
    237e:	58                   	pop    %eax
    237f:	68 70 16 00 00       	push   $0x1670
    2384:	56                   	push   %esi
    2385:	e8 16 a1 00 00       	call   c4a0 <nic_set_send_frame_handler>
    238a:	68 90 11 00 00       	push   $0x1190
    238f:	6a 00                	push   $0x0
    2391:	68 20 1d 00 00       	push   $0x1d20
    2396:	56                   	push   %esi
    2397:	e8 24 a1 00 00       	call   c4c0 <nic_set_state_change_handlers>
    239c:	83 c4 18             	add    $0x18,%esp
    239f:	6a 00                	push   $0x0
    23a1:	6a 00                	push   $0x0
    23a3:	68 b0 11 00 00       	push   $0x11b0
    23a8:	68 f0 14 00 00       	push   $0x14f0
    23ad:	68 30 29 00 00       	push   $0x2930
    23b2:	56                   	push   %esi
    23b3:	e8 38 a1 00 00       	call   c4f0 <nic_set_filtering_change_handlers>
    23b8:	83 c4 14             	add    $0x14,%esp
    23bb:	8d 47 54             	lea    0x54(%edi),%eax
    23be:	83 c7 64             	add    $0x64,%edi
    23c1:	50                   	push   %eax
    23c2:	e8 69 ff 00 00       	call   12330 <fibril_mutex_initialize@plt>
    23c7:	89 3c 24             	mov    %edi,(%esp)
    23ca:	e8 61 ff 00 00       	call   12330 <fibril_mutex_initialize@plt>
    23cf:	83 c4 0c             	add    $0xc,%esp
    23d2:	6a 01                	push   $0x1
    23d4:	6a 04                	push   $0x4
    23d6:	56                   	push   %esi
    23d7:	e8 24 ae 00 00       	call   d200 <nic_set_wol_max_caps>
    23dc:	83 c4 0c             	add    $0xc,%esp
    23df:	6a 01                	push   $0x1
    23e1:	6a 01                	push   $0x1
    23e3:	56                   	push   %esi
    23e4:	e8 17 ae 00 00       	call   d200 <nic_set_wol_max_caps>
    23e9:	83 c4 0c             	add    $0xc,%esp
    23ec:	6a 01                	push   $0x1
    23ee:	6a 02                	push   $0x2
    23f0:	56                   	push   %esi
    23f1:	e8 0a ae 00 00       	call   d200 <nic_set_wol_max_caps>
    23f6:	89 1c 24             	mov    %ebx,(%esp)
    23f9:	e8 92 ae 00 00       	call   d290 <nic_get_from_ddf_dev>
    23fe:	83 c4 10             	add    $0x10,%esp
    2401:	89 c7                	mov    %eax,%edi
    2403:	85 c0                	test   %eax,%eax
    2405:	0f 84 c2 04 00 00    	je     28cd <rtl8169_dev_add+0x5dd>
    240b:	56                   	push   %esi
    240c:	8d 75 c8             	lea    -0x38(%ebp),%esi
    240f:	6a 20                	push   $0x20
    2411:	6a 00                	push   $0x0
    2413:	56                   	push   %esi
    2414:	e8 07 00 01 00       	call   12420 <memset@plt>
    2419:	58                   	pop    %eax
    241a:	5a                   	pop    %edx
    241b:	56                   	push   %esi
    241c:	57                   	push   %edi
    241d:	e8 6e a1 00 00       	call   c590 <nic_get_resources>
    2422:	83 c4 10             	add    $0x10,%esp
    2425:	89 c7                	mov    %eax,%edi
    2427:	85 c0                	test   %eax,%eax
    2429:	74 45                	je     2470 <rtl8169_dev_add+0x180>
    242b:	50                   	push   %eax
    242c:	50                   	push   %eax
    242d:	68 c4 fd 00 00       	push   $0xfdc4
    2432:	6a 01                	push   $0x1
    2434:	e8 17 1c 00 00       	call   4050 <ddf_msg>
    2439:	5a                   	pop    %edx
    243a:	59                   	pop    %ecx
    243b:	68 ec fd 00 00       	push   $0xfdec
    2440:	6a 01                	push   $0x1
    2442:	e8 09 1c 00 00       	call   4050 <ddf_msg>
    2447:	89 1c 24             	mov    %ebx,(%esp)
    244a:	e8 01 13 00 00       	call   3750 <ddf_dev_data_get>
    244f:	83 c4 10             	add    $0x10,%esp
    2452:	85 c0                	test   %eax,%eax
    2454:	74 0c                	je     2462 <rtl8169_dev_add+0x172>
    2456:	83 ec 0c             	sub    $0xc,%esp
    2459:	53                   	push   %ebx
    245a:	e8 a1 ab 00 00       	call   d000 <nic_unbind_and_destroy>
    245f:	83 c4 10             	add    $0x10,%esp
    2462:	8d 65 f4             	lea    -0xc(%ebp),%esp
    2465:	89 f8                	mov    %edi,%eax
    2467:	5b                   	pop    %ebx
    2468:	5e                   	pop    %esi
    2469:	5f                   	pop    %edi
    246a:	5d                   	pop    %ebp
    246b:	c3                   	ret    
    246c:	8d 74 26 00          	lea    0x0(%esi,%eiz,1),%esi
    2470:	83 ec 0c             	sub    $0xc,%esp
    2473:	53                   	push   %ebx
    2474:	e8 17 ae 00 00       	call   d290 <nic_get_from_ddf_dev>
    2479:	89 04 24             	mov    %eax,(%esp)
    247c:	e8 9f ad 00 00       	call   d220 <nic_get_specific>
    2481:	83 c4 10             	add    $0x10,%esp
    2484:	89 c7                	mov    %eax,%edi
    2486:	85 c0                	test   %eax,%eax
    2488:	0f 84 7e 04 00 00    	je     290c <rtl8169_dev_add+0x61c>
    248e:	83 7d c8 01          	cmpl   $0x1,-0x38(%ebp)
    2492:	0f 85 e0 02 00 00    	jne    2778 <rtl8169_dev_add+0x488>
    2498:	83 7d e0 01          	cmpl   $0x1,-0x20(%ebp)
    249c:	0f 85 76 02 00 00    	jne    2718 <rtl8169_dev_add+0x428>
    24a2:	8b 45 cc             	mov    -0x34(%ebp),%eax
    24a5:	83 ec 0c             	sub    $0xc,%esp
    24a8:	8b 10                	mov    (%eax),%edx
    24aa:	89 57 08             	mov    %edx,0x8(%edi)
    24ad:	89 55 c4             	mov    %edx,-0x3c(%ebp)
    24b0:	53                   	push   %ebx
    24b1:	e8 ba 12 00 00       	call   3770 <ddf_dev_get_name>
    24b6:	8b 55 c4             	mov    -0x3c(%ebp),%edx
    24b9:	52                   	push   %edx
    24ba:	50                   	push   %eax
    24bb:	68 a2 fa 00 00       	push   $0xfaa2
    24c0:	6a 04                	push   $0x4
    24c2:	e8 89 1b 00 00       	call   4050 <ddf_msg>
    24c7:	8b 45 e4             	mov    -0x1c(%ebp),%eax
    24ca:	8b 10                	mov    (%eax),%edx
    24cc:	83 c4 20             	add    $0x20,%esp
    24cf:	89 17                	mov    %edx,(%edi)
    24d1:	81 78 10 ff 00 00 00 	cmpl   $0xff,0x10(%eax)
    24d8:	0f 86 ba 02 00 00    	jbe    2798 <rtl8169_dev_add+0x4a8>
    24de:	83 ec 0c             	sub    $0xc,%esp
    24e1:	89 55 c4             	mov    %edx,-0x3c(%ebp)
    24e4:	53                   	push   %ebx
    24e5:	e8 86 12 00 00       	call   3770 <ddf_dev_get_name>
    24ea:	8b 55 c4             	mov    -0x3c(%ebp),%edx
    24ed:	52                   	push   %edx
    24ee:	50                   	push   %eax
    24ef:	68 a0 fd 00 00       	push   $0xfda0
    24f4:	6a 04                	push   $0x4
    24f6:	e8 55 1b 00 00       	call   4050 <ddf_msg>
    24fb:	83 c4 14             	add    $0x14,%esp
    24fe:	8b 7d cc             	mov    -0x34(%ebp),%edi
    2501:	57                   	push   %edi
    2502:	e8 79 01 01 00       	call   12680 <free@plt>
    2507:	58                   	pop    %eax
    2508:	8b 45 e4             	mov    -0x1c(%ebp),%eax
    250b:	50                   	push   %eax
    250c:	e8 6f 01 01 00       	call   12680 <free@plt>
    2511:	58                   	pop    %eax
    2512:	8b 45 dc             	mov    -0x24(%ebp),%eax
    2515:	50                   	push   %eax
    2516:	e8 65 01 01 00       	call   12680 <free@plt>
    251b:	58                   	pop    %eax
    251c:	8b 45 d4             	mov    -0x2c(%ebp),%eax
    251f:	50                   	push   %eax
    2520:	e8 5b 01 01 00       	call   12680 <free@plt>
    2525:	83 c4 0c             	add    $0xc,%esp
    2528:	6a 20                	push   $0x20
    252a:	6a 00                	push   $0x0
    252c:	56                   	push   %esi
    252d:	e8 ee fe 00 00       	call   12420 <memset@plt>
    2532:	5a                   	pop    %edx
    2533:	59                   	pop    %ecx
    2534:	68 bf fa 00 00       	push   $0xfabf
    2539:	6a 04                	push   $0x4
    253b:	e8 10 1b 00 00       	call   4050 <ddf_msg>
    2540:	89 1c 24             	mov    %ebx,(%esp)
    2543:	e8 48 ad 00 00       	call   d290 <nic_get_from_ddf_dev>
    2548:	89 04 24             	mov    %eax,(%esp)
    254b:	89 45 c0             	mov    %eax,-0x40(%ebp)
    254e:	e8 cd ac 00 00       	call   d220 <nic_get_specific>
    2553:	89 1c 24             	mov    %ebx,(%esp)
    2556:	89 c7                	mov    %eax,%edi
    2558:	89 45 c4             	mov    %eax,-0x3c(%ebp)
    255b:	e8 60 12 00 00       	call   37c0 <ddf_dev_parent_sess_get>
    2560:	83 c4 0c             	add    $0xc,%esp
    2563:	8d 57 0c             	lea    0xc(%edi),%edx
    2566:	52                   	push   %edx
    2567:	6a 00                	push   $0x0
    2569:	50                   	push   %eax
    256a:	e8 51 82 00 00       	call   a7c0 <pci_config_space_read_16>
    256f:	83 c4 10             	add    $0x10,%esp
    2572:	89 c7                	mov    %eax,%edi
    2574:	85 c0                	test   %eax,%eax
    2576:	0f 85 e6 fe ff ff    	jne    2462 <rtl8169_dev_add+0x172>
    257c:	83 ec 0c             	sub    $0xc,%esp
    257f:	53                   	push   %ebx
    2580:	e8 3b 12 00 00       	call   37c0 <ddf_dev_parent_sess_get>
    2585:	8b 4d c4             	mov    -0x3c(%ebp),%ecx
    2588:	83 c4 0c             	add    $0xc,%esp
    258b:	8d 51 0e             	lea    0xe(%ecx),%edx
    258e:	52                   	push   %edx
    258f:	6a 02                	push   $0x2
    2591:	50                   	push   %eax
    2592:	e8 29 82 00 00       	call   a7c0 <pci_config_space_read_16>
    2597:	83 c4 10             	add    $0x10,%esp
    259a:	89 c7                	mov    %eax,%edi
    259c:	85 c0                	test   %eax,%eax
    259e:	0f 85 be fe ff ff    	jne    2462 <rtl8169_dev_add+0x172>
    25a4:	8b 4d c4             	mov    -0x3c(%ebp),%ecx
    25a7:	50                   	push   %eax
    25a8:	89 c8                	mov    %ecx,%eax
    25aa:	83 c0 04             	add    $0x4,%eax
    25ad:	50                   	push   %eax
    25ae:	68 00 01 00 00       	push   $0x100
    25b3:	8b 01                	mov    (%ecx),%eax
    25b5:	50                   	push   %eax
    25b6:	e8 25 fa 00 00       	call   11fe0 <pio_enable@plt>
    25bb:	83 c4 10             	add    $0x10,%esp
    25be:	89 c7                	mov    %eax,%edi
    25c0:	85 c0                	test   %eax,%eax
    25c2:	74 74                	je     2638 <rtl8169_dev_add+0x348>
    25c4:	83 ec 0c             	sub    $0xc,%esp
    25c7:	53                   	push   %ebx
    25c8:	e8 a3 11 00 00       	call   3770 <ddf_dev_get_name>
    25cd:	83 c4 0c             	add    $0xc,%esp
    25d0:	50                   	push   %eax
    25d1:	68 10 fe 00 00       	push   $0xfe10
    25d6:	6a 01                	push   $0x1
    25d8:	e8 73 1a 00 00       	call   4050 <ddf_msg>
    25dd:	83 c4 10             	add    $0x10,%esp
    25e0:	83 ec 0c             	sub    $0xc,%esp
    25e3:	53                   	push   %ebx
    25e4:	e8 67 11 00 00       	call   3750 <ddf_dev_data_get>
    25e9:	83 c4 10             	add    $0x10,%esp
    25ec:	85 c0                	test   %eax,%eax
    25ee:	0f 85 62 fe ff ff    	jne    2456 <rtl8169_dev_add+0x166>
    25f4:	e9 69 fe ff ff       	jmp    2462 <rtl8169_dev_add+0x172>
    25f9:	8d b4 26 00 00 00 00 	lea    0x0(%esi,%eiz,1),%esi
    2600:	83 ec 0c             	sub    $0xc,%esp
    2603:	53                   	push   %ebx
    2604:	e8 f7 a9 00 00       	call   d000 <nic_unbind_and_destroy>
    2609:	83 c4 10             	add    $0x10,%esp
    260c:	83 ec 0c             	sub    $0xc,%esp
    260f:	bf fe ff ff ff       	mov    $0xfffffffe,%edi
    2614:	53                   	push   %ebx
    2615:	e8 56 11 00 00       	call   3770 <ddf_dev_get_name>
    261a:	83 c4 0c             	add    $0xc,%esp
    261d:	50                   	push   %eax
    261e:	68 24 ff 00 00       	push   $0xff24
    2623:	6a 01                	push   $0x1
    2625:	e8 26 1a 00 00       	call   4050 <ddf_msg>
    262a:	83 c4 10             	add    $0x10,%esp
    262d:	e9 30 fe ff ff       	jmp    2462 <rtl8169_dev_add+0x172>
    2632:	8d b6 00 00 00 00    	lea    0x0(%esi),%esi
    2638:	89 5d 08             	mov    %ebx,0x8(%ebp)
    263b:	8b 7d c4             	mov    -0x3c(%ebp),%edi
    263e:	89 c3                	mov    %eax,%ebx
    2640:	83 ec 0c             	sub    $0xc,%esp
    2643:	8b 47 04             	mov    0x4(%edi),%eax
    2646:	01 d8                	add    %ebx,%eax
    2648:	50                   	push   %eax
    2649:	e8 f2 fb 00 00       	call   12240 <pio_read_8@plt>
    264e:	88 04 1e             	mov    %al,(%esi,%ebx,1)
    2651:	43                   	inc    %ebx
    2652:	83 c4 10             	add    $0x10,%esp
    2655:	83 fb 06             	cmp    $0x6,%ebx
    2658:	75 e6                	jne    2640 <rtl8169_dev_add+0x350>
    265a:	31 c0                	xor    %eax,%eax
    265c:	8b 5d 08             	mov    0x8(%ebp),%ebx
    265f:	8a 45 cd             	mov    -0x33(%ebp),%al
    2662:	50                   	push   %eax
    2663:	31 c0                	xor    %eax,%eax
    2665:	8a 45 cc             	mov    -0x34(%ebp),%al
    2668:	50                   	push   %eax
    2669:	31 c0                	xor    %eax,%eax
    266b:	8a 45 cb             	mov    -0x35(%ebp),%al
    266e:	50                   	push   %eax
    266f:	31 c0                	xor    %eax,%eax
    2671:	8a 45 ca             	mov    -0x36(%ebp),%al
    2674:	50                   	push   %eax
    2675:	31 c0                	xor    %eax,%eax
    2677:	8a 45 c9             	mov    -0x37(%ebp),%al
    267a:	50                   	push   %eax
    267b:	31 c0                	xor    %eax,%eax
    267d:	8a 45 c8             	mov    -0x38(%ebp),%al
    2680:	50                   	push   %eax
    2681:	68 3c fe 00 00       	push   $0xfe3c
    2686:	6a 03                	push   $0x3
    2688:	e8 c3 19 00 00       	call   4050 <ddf_msg>
    268d:	83 c4 18             	add    $0x18,%esp
    2690:	8b 45 c0             	mov    -0x40(%ebp),%eax
    2693:	56                   	push   %esi
    2694:	50                   	push   %eax
    2695:	e8 46 a2 00 00       	call   c8e0 <nic_report_address>
    269a:	83 c4 10             	add    $0x10,%esp
    269d:	89 c7                	mov    %eax,%edi
    269f:	85 c0                	test   %eax,%eax
    26a1:	0f 85 39 ff ff ff    	jne    25e0 <rtl8169_dev_add+0x2f0>
    26a7:	83 ec 0c             	sub    $0xc,%esp
    26aa:	8b 7d c0             	mov    -0x40(%ebp),%edi
    26ad:	57                   	push   %edi
    26ae:	e8 6d ab 00 00       	call   d220 <nic_get_specific>
    26b3:	8b 0d e0 49 01 00    	mov    0x149e0,%ecx
    26b9:	8b 50 04             	mov    0x4(%eax),%edx
    26bc:	89 11                	mov    %edx,(%ecx)
    26be:	8b 0d e8 49 01 00    	mov    0x149e8,%ecx
    26c4:	8d 72 3e             	lea    0x3e(%edx),%esi
    26c7:	83 c2 3c             	add    $0x3c,%edx
    26ca:	89 71 04             	mov    %esi,0x4(%ecx)
    26cd:	89 71 2c             	mov    %esi,0x2c(%ecx)
    26d0:	89 51 40             	mov    %edx,0x40(%ecx)
    26d3:	8b 70 08             	mov    0x8(%eax),%esi
    26d6:	89 3c 24             	mov    %edi,(%esp)
    26d9:	e8 82 ab 00 00       	call   d260 <nic_get_ddf_dev>
    26de:	68 dc 49 01 00       	push   $0x149dc
    26e3:	68 00 18 00 00       	push   $0x1800
    26e8:	56                   	push   %esi
    26e9:	50                   	push   %eax
    26ea:	e8 11 19 00 00       	call   4000 <register_interrupt_handler>
    26ef:	83 c4 20             	add    $0x20,%esp
    26f2:	89 c7                	mov    %eax,%edi
    26f4:	85 c0                	test   %eax,%eax
    26f6:	0f 84 bd 00 00 00    	je     27b9 <rtl8169_dev_add+0x4c9>
    26fc:	50                   	push   %eax
    26fd:	57                   	push   %edi
    26fe:	68 68 fe 00 00       	push   $0xfe68
    2703:	6a 01                	push   $0x1
    2705:	e8 46 19 00 00       	call   4050 <ddf_msg>
    270a:	83 c4 10             	add    $0x10,%esp
    270d:	e9 ce fe ff ff       	jmp    25e0 <rtl8169_dev_add+0x2f0>
    2712:	8d b6 00 00 00 00    	lea    0x0(%esi),%esi
    2718:	83 ec 0c             	sub    $0xc,%esp
    271b:	53                   	push   %ebx
    271c:	e8 4f 10 00 00       	call   3770 <ddf_dev_get_name>
    2721:	83 c4 0c             	add    $0xc,%esp
    2724:	50                   	push   %eax
    2725:	68 44 fd 00 00       	push   $0xfd44
    272a:	6a 01                	push   $0x1
    272c:	e8 1f 19 00 00       	call   4050 <ddf_msg>
    2731:	83 c4 10             	add    $0x10,%esp
    2734:	83 ec 0c             	sub    $0xc,%esp
    2737:	8b 45 cc             	mov    -0x34(%ebp),%eax
    273a:	50                   	push   %eax
    273b:	e8 40 ff 00 00       	call   12680 <free@plt>
    2740:	8b 4d e4             	mov    -0x1c(%ebp),%ecx
    2743:	5a                   	pop    %edx
    2744:	51                   	push   %ecx
    2745:	e8 36 ff 00 00       	call   12680 <free@plt>
    274a:	8b 45 dc             	mov    -0x24(%ebp),%eax
    274d:	5f                   	pop    %edi
    274e:	50                   	push   %eax
    274f:	e8 2c ff 00 00       	call   12680 <free@plt>
    2754:	58                   	pop    %eax
    2755:	8b 45 d4             	mov    -0x2c(%ebp),%eax
    2758:	50                   	push   %eax
    2759:	e8 22 ff 00 00       	call   12680 <free@plt>
    275e:	83 c4 0c             	add    $0xc,%esp
    2761:	bf f2 ff ff ff       	mov    $0xfffffff2,%edi
    2766:	6a 20                	push   $0x20
    2768:	6a 00                	push   $0x0
    276a:	56                   	push   %esi
    276b:	e8 b0 fc 00 00       	call   12420 <memset@plt>
    2770:	83 c4 10             	add    $0x10,%esp
    2773:	e9 b3 fc ff ff       	jmp    242b <rtl8169_dev_add+0x13b>
    2778:	83 ec 0c             	sub    $0xc,%esp
    277b:	53                   	push   %ebx
    277c:	e8 ef 0f 00 00       	call   3770 <ddf_dev_get_name>
    2781:	83 c4 0c             	add    $0xc,%esp
    2784:	50                   	push   %eax
    2785:	68 24 fd 00 00       	push   $0xfd24
    278a:	6a 01                	push   $0x1
    278c:	e8 bf 18 00 00       	call   4050 <ddf_msg>
    2791:	83 c4 10             	add    $0x10,%esp
    2794:	eb 9e                	jmp    2734 <rtl8169_dev_add+0x444>
    2796:	66 90                	xchg   %ax,%ax
    2798:	83 ec 0c             	sub    $0xc,%esp
    279b:	53                   	push   %ebx
    279c:	e8 cf 0f 00 00       	call   3770 <ddf_dev_get_name>
    27a1:	83 c4 0c             	add    $0xc,%esp
    27a4:	50                   	push   %eax
    27a5:	68 6c fd 00 00       	push   $0xfd6c
    27aa:	6a 01                	push   $0x1
    27ac:	e8 9f 18 00 00       	call   4050 <ddf_msg>
    27b1:	83 c4 10             	add    $0x10,%esp
    27b4:	e9 7b ff ff ff       	jmp    2734 <rtl8169_dev_add+0x444>
    27b9:	50                   	push   %eax
    27ba:	50                   	push   %eax
    27bb:	68 d9 fa 00 00       	push   $0xfad9
    27c0:	6a 04                	push   $0x4
    27c2:	e8 89 18 00 00       	call   4050 <ddf_msg>
    27c7:	8b 75 c4             	mov    -0x3c(%ebp),%esi
    27ca:	8b 46 04             	mov    0x4(%esi),%eax
    27cd:	89 45 c4             	mov    %eax,-0x3c(%ebp)
    27d0:	83 c0 37             	add    $0x37,%eax
    27d3:	89 04 24             	mov    %eax,(%esp)
    27d6:	e8 65 fa 00 00       	call   12240 <pio_read_8@plt>
    27db:	83 c8 0c             	or     $0xc,%eax
    27de:	5a                   	pop    %edx
    27df:	25 ff 00 00 00       	and    $0xff,%eax
    27e4:	59                   	pop    %ecx
    27e5:	50                   	push   %eax
    27e6:	8b 46 04             	mov    0x4(%esi),%eax
    27e9:	83 c0 37             	add    $0x37,%eax
    27ec:	50                   	push   %eax
    27ed:	e8 ce fa 00 00       	call   122c0 <pio_write_8@plt>
    27f2:	8b 45 c0             	mov    -0x40(%ebp),%eax
    27f5:	5e                   	pop    %esi
    27f6:	50                   	push   %eax
    27f7:	e8 64 aa 00 00       	call   d260 <nic_get_ddf_dev>
    27fc:	83 c4 0c             	add    $0xc,%esp
    27ff:	68 f5 fa 00 00       	push   $0xfaf5
    2804:	6a 02                	push   $0x2
    2806:	50                   	push   %eax
    2807:	e8 34 10 00 00       	call   3840 <ddf_fun_create>
    280c:	83 c4 10             	add    $0x10,%esp
    280f:	89 c6                	mov    %eax,%esi
    2811:	85 c0                	test   %eax,%eax
    2813:	0f 84 9e 00 00 00    	je     28b7 <rtl8169_dev_add+0x5c7>
    2819:	8b 4d c0             	mov    -0x40(%ebp),%ecx
    281c:	52                   	push   %edx
    281d:	52                   	push   %edx
    281e:	50                   	push   %eax
    281f:	51                   	push   %ecx
    2820:	e8 5b aa 00 00       	call   d280 <nic_set_ddf_fun>
    2825:	5f                   	pop    %edi
    2826:	58                   	pop    %eax
    2827:	68 a0 4d 01 00       	push   $0x14da0
    282c:	56                   	push   %esi
    282d:	e8 be 15 00 00       	call   3df0 <ddf_fun_set_ops>
    2832:	89 34 24             	mov    %esi,(%esp)
    2835:	e8 c6 12 00 00       	call   3b00 <ddf_fun_bind>
    283a:	83 c4 10             	add    $0x10,%esp
    283d:	89 c7                	mov    %eax,%edi
    283f:	85 c0                	test   %eax,%eax
    2841:	74 22                	je     2865 <rtl8169_dev_add+0x575>
    2843:	50                   	push   %eax
    2844:	50                   	push   %eax
    2845:	68 ac fe 00 00       	push   $0xfeac
    284a:	6a 01                	push   $0x1
    284c:	e8 ff 17 00 00       	call   4050 <ddf_msg>
    2851:	83 c4 10             	add    $0x10,%esp
    2854:	83 ec 0c             	sub    $0xc,%esp
    2857:	56                   	push   %esi
    2858:	e8 73 11 00 00       	call   39d0 <ddf_fun_destroy>
    285d:	83 c4 10             	add    $0x10,%esp
    2860:	e9 7b fd ff ff       	jmp    25e0 <rtl8169_dev_add+0x2f0>
    2865:	50                   	push   %eax
    2866:	50                   	push   %eax
    2867:	68 fb fa 00 00       	push   $0xfafb
    286c:	56                   	push   %esi
    286d:	e8 de 15 00 00       	call   3e50 <ddf_fun_add_to_category>
    2872:	83 c4 10             	add    $0x10,%esp
    2875:	89 c7                	mov    %eax,%edi
    2877:	85 c0                	test   %eax,%eax
    2879:	74 1b                	je     2896 <rtl8169_dev_add+0x5a6>
    287b:	50                   	push   %eax
    287c:	50                   	push   %eax
    287d:	68 cc fe 00 00       	push   $0xfecc
    2882:	6a 01                	push   $0x1
    2884:	e8 c7 17 00 00       	call   4050 <ddf_msg>
    2889:	89 34 24             	mov    %esi,(%esp)
    288c:	e8 9f 13 00 00       	call   3c30 <ddf_fun_unbind>
    2891:	83 c4 10             	add    $0x10,%esp
    2894:	eb be                	jmp    2854 <rtl8169_dev_add+0x564>
    2896:	83 ec 0c             	sub    $0xc,%esp
    2899:	53                   	push   %ebx
    289a:	e8 d1 0e 00 00       	call   3770 <ddf_dev_get_name>
    289f:	83 c4 0c             	add    $0xc,%esp
    28a2:	50                   	push   %eax
    28a3:	68 f0 fe 00 00       	push   $0xfef0
    28a8:	6a 03                	push   $0x3
    28aa:	e8 a1 17 00 00       	call   4050 <ddf_msg>
    28af:	83 c4 10             	add    $0x10,%esp
    28b2:	e9 ab fb ff ff       	jmp    2462 <rtl8169_dev_add+0x172>
    28b7:	50                   	push   %eax
    28b8:	50                   	push   %eax
    28b9:	68 8c fe 00 00       	push   $0xfe8c
    28be:	6a 01                	push   $0x1
    28c0:	e8 8b 17 00 00       	call   4050 <ddf_msg>
    28c5:	83 c4 10             	add    $0x10,%esp
    28c8:	e9 13 fd ff ff       	jmp    25e0 <rtl8169_dev_add+0x2f0>
    28cd:	51                   	push   %ecx
    28ce:	68 b7 00 00 00       	push   $0xb7
    28d3:	68 73 ff 00 00       	push   $0xff73
    28d8:	68 99 fa 00 00       	push   $0xfa99
    28dd:	e8 7e f9 00 00       	call   12260 <assert_abort@plt>
    28e2:	50                   	push   %eax
    28e3:	68 29 01 00 00       	push   $0x129
    28e8:	68 73 ff 00 00       	push   $0xff73
    28ed:	68 7e fa 00 00       	push   $0xfa7e
    28f2:	e8 69 f9 00 00       	call   12260 <assert_abort@plt>
    28f7:	50                   	push   %eax
    28f8:	68 80 01 00 00       	push   $0x180
    28fd:	68 73 ff 00 00       	push   $0xff73
    2902:	68 98 f9 00 00       	push   $0xf998
    2907:	e8 54 f9 00 00       	call   12260 <assert_abort@plt>
    290c:	53                   	push   %ebx
    290d:	68 cf 00 00 00       	push   $0xcf
    2912:	68 73 ff 00 00       	push   $0xff73
    2917:	68 3c f9 00 00       	push   $0xf93c
    291c:	e8 3f f9 00 00       	call   12260 <assert_abort@plt>
    2921:	eb 0d                	jmp    2930 <rtl8169_unicast_set>
    2923:	90                   	nop
    2924:	90                   	nop
    2925:	90                   	nop
    2926:	90                   	nop
    2927:	90                   	nop
    2928:	90                   	nop
    2929:	90                   	nop
    292a:	90                   	nop
    292b:	90                   	nop
    292c:	90                   	nop
    292d:	90                   	nop
    292e:	90                   	nop
    292f:	90                   	nop

00002930 <rtl8169_unicast_set>:
    2930:	55                   	push   %ebp
    2931:	89 e5                	mov    %esp,%ebp
    2933:	57                   	push   %edi
    2934:	56                   	push   %esi
    2935:	53                   	push   %ebx
    2936:	83 ec 38             	sub    $0x38,%esp
    2939:	8b 75 08             	mov    0x8(%ebp),%esi
    293c:	56                   	push   %esi
    293d:	e8 de a8 00 00       	call   d220 <nic_get_specific>
    2942:	89 c7                	mov    %eax,%edi
    2944:	8b 40 04             	mov    0x4(%eax),%eax
    2947:	83 c0 44             	add    $0x44,%eax
    294a:	89 04 24             	mov    %eax,(%esp)
    294d:	e8 3e f8 00 00       	call   12190 <pio_read_32@plt>
    2952:	89 c3                	mov    %eax,%ebx
    2954:	83 e0 01             	and    $0x1,%eax
    2957:	88 45 d7             	mov    %al,-0x29(%ebp)
    295a:	8d 45 e4             	lea    -0x1c(%ebp),%eax
    295d:	c7 04 24 00 00 00 00 	movl   $0x0,(%esp)
    2964:	6a 00                	push   $0x0
    2966:	6a 00                	push   $0x0
    2968:	50                   	push   %eax
    2969:	56                   	push   %esi
    296a:	e8 81 a7 00 00       	call   d0f0 <nic_query_multicast>
    296f:	83 c4 1c             	add    $0x1c,%esp
    2972:	8b 45 0c             	mov    0xc(%ebp),%eax
    2975:	50                   	push   %eax
    2976:	68 ff fa 00 00       	push   $0xfaff
    297b:	6a 04                	push   $0x4
    297d:	e8 ce 16 00 00       	call   4050 <ddf_msg>
    2982:	83 c4 10             	add    $0x10,%esp
    2985:	83 7d 0c 02          	cmpl   $0x2,0xc(%ebp)
    2989:	0f 84 f9 00 00 00    	je     2a88 <rtl8169_unicast_set+0x158>
    298f:	0f 86 ab 00 00 00    	jbe    2a40 <rtl8169_unicast_set+0x110>
    2995:	83 7d 0c 03          	cmpl   $0x3,0xc(%ebp)
    2999:	0f 84 81 00 00 00    	je     2a20 <rtl8169_unicast_set+0xf0>
    299f:	83 7d 0c 04          	cmpl   $0x4,0xc(%ebp)
    29a3:	0f 85 cf 00 00 00    	jne    2a78 <rtl8169_unicast_set+0x148>
    29a9:	c7 47 4c 03 00 00 00 	movl   $0x3,0x4c(%edi)
    29b0:	83 7d e4 03          	cmpl   $0x3,-0x1c(%ebp)
    29b4:	0f 84 a7 00 00 00    	je     2a61 <rtl8169_unicast_set+0x131>
    29ba:	6a ff                	push   $0xffffffff
    29bc:	6a 00                	push   $0x0
    29be:	6a 01                	push   $0x1
    29c0:	56                   	push   %esi
    29c1:	e8 6a a6 00 00       	call   d030 <nic_report_hw_filtering>
    29c6:	83 c4 10             	add    $0x10,%esp
    29c9:	83 ec 0c             	sub    $0xc,%esp
    29cc:	8d 77 54             	lea    0x54(%edi),%esi
    29cf:	83 e3 fc             	and    $0xfffffffc,%ebx
    29d2:	56                   	push   %esi
    29d3:	e8 c8 fc 00 00       	call   126a0 <fibril_mutex_lock@plt>
    29d8:	58                   	pop    %eax
    29d9:	8b 47 4c             	mov    0x4c(%edi),%eax
    29dc:	8b 4f 50             	mov    0x50(%edi),%ecx
    29df:	09 d8                	or     %ebx,%eax
    29e1:	09 c8                	or     %ecx,%eax
    29e3:	5a                   	pop    %edx
    29e4:	50                   	push   %eax
    29e5:	8b 47 04             	mov    0x4(%edi),%eax
    29e8:	83 c0 44             	add    $0x44,%eax
    29eb:	50                   	push   %eax
    29ec:	e8 7f f9 00 00       	call   12370 <pio_write_32@plt>
    29f1:	8b 47 4c             	mov    0x4c(%edi),%eax
    29f4:	83 c4 0c             	add    $0xc,%esp
    29f7:	09 c3                	or     %eax,%ebx
    29f9:	8b 47 50             	mov    0x50(%edi),%eax
    29fc:	09 c3                	or     %eax,%ebx
    29fe:	53                   	push   %ebx
    29ff:	68 f7 f8 00 00       	push   $0xf8f7
    2a04:	6a 04                	push   $0x4
    2a06:	e8 45 16 00 00       	call   4050 <ddf_msg>
    2a0b:	89 34 24             	mov    %esi,(%esp)
    2a0e:	e8 ed f8 00 00       	call   12300 <fibril_mutex_unlock@plt>
    2a13:	83 c4 10             	add    $0x10,%esp
    2a16:	8d 65 f4             	lea    -0xc(%ebp),%esp
    2a19:	31 c0                	xor    %eax,%eax
    2a1b:	5b                   	pop    %ebx
    2a1c:	5e                   	pop    %esi
    2a1d:	5f                   	pop    %edi
    2a1e:	5d                   	pop    %ebp
    2a1f:	c3                   	ret    
    2a20:	c7 47 4c 03 00 00 00 	movl   $0x3,0x4c(%edi)
    2a27:	83 7d e4 03          	cmpl   $0x3,-0x1c(%ebp)
    2a2b:	74 7b                	je     2aa8 <rtl8169_unicast_set+0x178>
    2a2d:	6a ff                	push   $0xffffffff
    2a2f:	6a 00                	push   $0x0
    2a31:	6a 00                	push   $0x0
    2a33:	56                   	push   %esi
    2a34:	e8 f7 a5 00 00       	call   d030 <nic_report_hw_filtering>
    2a39:	83 c4 10             	add    $0x10,%esp
    2a3c:	eb 8b                	jmp    29c9 <rtl8169_unicast_set+0x99>
    2a3e:	66 90                	xchg   %ax,%ax
    2a40:	83 7d 0c 01          	cmpl   $0x1,0xc(%ebp)
    2a44:	75 32                	jne    2a78 <rtl8169_unicast_set+0x148>
    2a46:	c7 47 4c 00 00 00 00 	movl   $0x0,0x4c(%edi)
    2a4d:	85 f6                	test   %esi,%esi
    2a4f:	74 42                	je     2a93 <rtl8169_unicast_set+0x163>
    2a51:	80 7d d7 00          	cmpb   $0x0,-0x29(%ebp)
    2a55:	74 69                	je     2ac0 <rtl8169_unicast_set+0x190>
    2a57:	83 7d e4 02          	cmpl   $0x2,-0x1c(%ebp)
    2a5b:	0f 84 59 ff ff ff    	je     29ba <rtl8169_unicast_set+0x8a>
    2a61:	6a ff                	push   $0xffffffff
    2a63:	6a 01                	push   $0x1
    2a65:	6a 01                	push   $0x1
    2a67:	56                   	push   %esi
    2a68:	e8 c3 a5 00 00       	call   d030 <nic_report_hw_filtering>
    2a6d:	83 c4 10             	add    $0x10,%esp
    2a70:	e9 54 ff ff ff       	jmp    29c9 <rtl8169_unicast_set+0x99>
    2a75:	8d 76 00             	lea    0x0(%esi),%esi
    2a78:	8d 65 f4             	lea    -0xc(%ebp),%esp
    2a7b:	b8 f5 ff ff ff       	mov    $0xfffffff5,%eax
    2a80:	5b                   	pop    %ebx
    2a81:	5e                   	pop    %esi
    2a82:	5f                   	pop    %edi
    2a83:	5d                   	pop    %ebp
    2a84:	c3                   	ret    
    2a85:	8d 76 00             	lea    0x0(%esi),%esi
    2a88:	c7 47 4c 02 00 00 00 	movl   $0x2,0x4c(%edi)
    2a8f:	85 f6                	test   %esi,%esi
    2a91:	75 be                	jne    2a51 <rtl8169_unicast_set+0x121>
    2a93:	50                   	push   %eax
    2a94:	68 25 03 00 00       	push   $0x325
    2a99:	68 73 ff 00 00       	push   $0xff73
    2a9e:	68 99 fa 00 00       	push   $0xfa99
    2aa3:	e8 b8 f7 00 00       	call   12260 <assert_abort@plt>
    2aa8:	6a ff                	push   $0xffffffff
    2aaa:	6a 01                	push   $0x1
    2aac:	6a 00                	push   $0x0
    2aae:	56                   	push   %esi
    2aaf:	e8 7c a5 00 00       	call   d030 <nic_report_hw_filtering>
    2ab4:	83 c4 10             	add    $0x10,%esp
    2ab7:	e9 0d ff ff ff       	jmp    29c9 <rtl8169_unicast_set+0x99>
    2abc:	8d 74 26 00          	lea    0x0(%esi,%eiz,1),%esi
    2ac0:	6a ff                	push   $0xffffffff
    2ac2:	6a ff                	push   $0xffffffff
    2ac4:	6a 01                	push   $0x1
    2ac6:	56                   	push   %esi
    2ac7:	e8 64 a5 00 00       	call   d030 <nic_report_hw_filtering>
    2acc:	83 c4 10             	add    $0x10,%esp
    2acf:	e9 f5 fe ff ff       	jmp    29c9 <rtl8169_unicast_set+0x99>
    2ad4:	8d b6 00 00 00 00    	lea    0x0(%esi),%esi
    2ada:	8d bf 00 00 00 00    	lea    0x0(%edi),%edi

00002ae0 <rtl8169_autoneg_disable>:
    2ae0:	55                   	push   %ebp
    2ae1:	89 e5                	mov    %esp,%ebp
    2ae3:	56                   	push   %esi
    2ae4:	53                   	push   %ebx
    2ae5:	83 ec 0c             	sub    $0xc,%esp
    2ae8:	8b 55 08             	mov    0x8(%ebp),%edx
    2aeb:	52                   	push   %edx
    2aec:	e8 af a7 00 00       	call   d2a0 <nic_get_from_ddf_fun>
    2af1:	89 04 24             	mov    %eax,(%esp)
    2af4:	e8 27 a7 00 00       	call   d220 <nic_get_specific>
    2af9:	89 c6                	mov    %eax,%esi
    2afb:	59                   	pop    %ecx
    2afc:	8b 40 04             	mov    0x4(%eax),%eax
    2aff:	5b                   	pop    %ebx
    2b00:	83 c0 60             	add    $0x60,%eax
    2b03:	6a 00                	push   $0x0
    2b05:	50                   	push   %eax
    2b06:	e8 65 f8 00 00       	call   12370 <pio_write_32@plt>
    2b0b:	83 c4 10             	add    $0x10,%esp
    2b0e:	66 90                	xchg   %ax,%ax
    2b10:	83 ec 0c             	sub    $0xc,%esp
    2b13:	8b 46 04             	mov    0x4(%esi),%eax
    2b16:	83 c0 60             	add    $0x60,%eax
    2b19:	50                   	push   %eax
    2b1a:	e8 71 f6 00 00       	call   12190 <pio_read_32@plt>
    2b1f:	89 c3                	mov    %eax,%ebx
    2b21:	c7 04 24 14 00 00 00 	movl   $0x14,(%esp)
    2b28:	e8 13 f6 00 00       	call   12140 <usleep@plt>
    2b2d:	83 c4 10             	add    $0x10,%esp
    2b30:	85 db                	test   %ebx,%ebx
    2b32:	79 dc                	jns    2b10 <rtl8169_autoneg_disable+0x30>
    2b34:	50                   	push   %eax
    2b35:	50                   	push   %eax
    2b36:	8b 46 04             	mov    0x4(%esi),%eax
    2b39:	81 e3 ff ef 00 00    	and    $0xefff,%ebx
    2b3f:	83 c0 60             	add    $0x60,%eax
    2b42:	81 cb 00 00 00 80    	or     $0x80000000,%ebx
    2b48:	53                   	push   %ebx
    2b49:	50                   	push   %eax
    2b4a:	e8 21 f8 00 00       	call   12370 <pio_write_32@plt>
    2b4f:	83 c4 10             	add    $0x10,%esp
    2b52:	8d b6 00 00 00 00    	lea    0x0(%esi),%esi
    2b58:	83 ec 0c             	sub    $0xc,%esp
    2b5b:	8b 46 04             	mov    0x4(%esi),%eax
    2b5e:	83 c0 60             	add    $0x60,%eax
    2b61:	50                   	push   %eax
    2b62:	e8 29 f6 00 00       	call   12190 <pio_read_32@plt>
    2b67:	89 c3                	mov    %eax,%ebx
    2b69:	c7 04 24 14 00 00 00 	movl   $0x14,(%esp)
    2b70:	e8 cb f5 00 00       	call   12140 <usleep@plt>
    2b75:	83 c4 10             	add    $0x10,%esp
    2b78:	85 db                	test   %ebx,%ebx
    2b7a:	78 dc                	js     2b58 <rtl8169_autoneg_disable+0x78>
    2b7c:	83 ec 0c             	sub    $0xc,%esp
    2b7f:	6a 14                	push   $0x14
    2b81:	e8 ba f5 00 00       	call   12140 <usleep@plt>
    2b86:	8d 65 f8             	lea    -0x8(%ebp),%esp
    2b89:	31 c0                	xor    %eax,%eax
    2b8b:	5b                   	pop    %ebx
    2b8c:	5e                   	pop    %esi
    2b8d:	5d                   	pop    %ebp
    2b8e:	c3                   	ret    
    2b8f:	90                   	nop

00002b90 <rtl8169_autoneg_restart>:
    2b90:	55                   	push   %ebp
    2b91:	89 e5                	mov    %esp,%ebp
    2b93:	56                   	push   %esi
    2b94:	53                   	push   %ebx
    2b95:	83 ec 0c             	sub    $0xc,%esp
    2b98:	8b 55 08             	mov    0x8(%ebp),%edx
    2b9b:	52                   	push   %edx
    2b9c:	e8 ff a6 00 00       	call   d2a0 <nic_get_from_ddf_fun>
    2ba1:	89 04 24             	mov    %eax,(%esp)
    2ba4:	e8 77 a6 00 00       	call   d220 <nic_get_specific>
    2ba9:	89 c6                	mov    %eax,%esi
    2bab:	59                   	pop    %ecx
    2bac:	8b 40 04             	mov    0x4(%eax),%eax
    2baf:	5b                   	pop    %ebx
    2bb0:	83 c0 60             	add    $0x60,%eax
    2bb3:	6a 00                	push   $0x0
    2bb5:	50                   	push   %eax
    2bb6:	e8 b5 f7 00 00       	call   12370 <pio_write_32@plt>
    2bbb:	83 c4 10             	add    $0x10,%esp
    2bbe:	66 90                	xchg   %ax,%ax
    2bc0:	83 ec 0c             	sub    $0xc,%esp
    2bc3:	8b 46 04             	mov    0x4(%esi),%eax
    2bc6:	83 c0 60             	add    $0x60,%eax
    2bc9:	50                   	push   %eax
    2bca:	e8 c1 f5 00 00       	call   12190 <pio_read_32@plt>
    2bcf:	89 c3                	mov    %eax,%ebx
    2bd1:	c7 04 24 14 00 00 00 	movl   $0x14,(%esp)
    2bd8:	e8 63 f5 00 00       	call   12140 <usleep@plt>
    2bdd:	83 c4 10             	add    $0x10,%esp
    2be0:	85 db                	test   %ebx,%ebx
    2be2:	79 dc                	jns    2bc0 <rtl8169_autoneg_restart+0x30>
    2be4:	50                   	push   %eax
    2be5:	50                   	push   %eax
    2be6:	89 d8                	mov    %ebx,%eax
    2be8:	31 db                	xor    %ebx,%ebx
    2bea:	80 cc 10             	or     $0x10,%ah
    2bed:	66 89 c3             	mov    %ax,%bx
    2bf0:	8b 46 04             	mov    0x4(%esi),%eax
    2bf3:	83 c0 60             	add    $0x60,%eax
    2bf6:	81 cb 00 00 00 80    	or     $0x80000000,%ebx
    2bfc:	53                   	push   %ebx
    2bfd:	50                   	push   %eax
    2bfe:	e8 6d f7 00 00       	call   12370 <pio_write_32@plt>
    2c03:	83 c4 10             	add    $0x10,%esp
    2c06:	66 90                	xchg   %ax,%ax
    2c08:	83 ec 0c             	sub    $0xc,%esp
    2c0b:	8b 46 04             	mov    0x4(%esi),%eax
    2c0e:	83 c0 60             	add    $0x60,%eax
    2c11:	50                   	push   %eax
    2c12:	e8 79 f5 00 00       	call   12190 <pio_read_32@plt>
    2c17:	89 c3                	mov    %eax,%ebx
    2c19:	c7 04 24 14 00 00 00 	movl   $0x14,(%esp)
    2c20:	e8 1b f5 00 00       	call   12140 <usleep@plt>
    2c25:	83 c4 10             	add    $0x10,%esp
    2c28:	85 db                	test   %ebx,%ebx
    2c2a:	78 dc                	js     2c08 <rtl8169_autoneg_restart+0x78>
    2c2c:	83 ec 0c             	sub    $0xc,%esp
    2c2f:	6a 14                	push   $0x14
    2c31:	e8 0a f5 00 00       	call   12140 <usleep@plt>
    2c36:	8d 65 f8             	lea    -0x8(%ebp),%esp
    2c39:	31 c0                	xor    %eax,%eax
    2c3b:	5b                   	pop    %ebx
    2c3c:	5e                   	pop    %esi
    2c3d:	5d                   	pop    %ebp
    2c3e:	c3                   	ret    
    2c3f:	90                   	nop

00002c40 <rtl8169_autoneg_enable>:
    2c40:	55                   	push   %ebp
    2c41:	89 e5                	mov    %esp,%ebp
    2c43:	57                   	push   %edi
    2c44:	56                   	push   %esi
    2c45:	53                   	push   %ebx
    2c46:	83 ec 18             	sub    $0x18,%esp
    2c49:	8b 5d 08             	mov    0x8(%ebp),%ebx
    2c4c:	53                   	push   %ebx
    2c4d:	e8 4e a6 00 00       	call   d2a0 <nic_get_from_ddf_fun>
    2c52:	89 04 24             	mov    %eax,(%esp)
    2c55:	e8 c6 a5 00 00       	call   d220 <nic_get_specific>
    2c5a:	89 c3                	mov    %eax,%ebx
    2c5c:	5e                   	pop    %esi
    2c5d:	8b 40 04             	mov    0x4(%eax),%eax
    2c60:	5f                   	pop    %edi
    2c61:	83 c0 60             	add    $0x60,%eax
    2c64:	6a 00                	push   $0x0
    2c66:	50                   	push   %eax
    2c67:	e8 04 f7 00 00       	call   12370 <pio_write_32@plt>
    2c6c:	83 c4 10             	add    $0x10,%esp
    2c6f:	90                   	nop
    2c70:	83 ec 0c             	sub    $0xc,%esp
    2c73:	8b 43 04             	mov    0x4(%ebx),%eax
    2c76:	83 c0 60             	add    $0x60,%eax
    2c79:	50                   	push   %eax
    2c7a:	e8 11 f5 00 00       	call   12190 <pio_read_32@plt>
    2c7f:	89 c7                	mov    %eax,%edi
    2c81:	c7 04 24 14 00 00 00 	movl   $0x14,(%esp)
    2c88:	e8 b3 f4 00 00       	call   12140 <usleep@plt>
    2c8d:	83 c4 10             	add    $0x10,%esp
    2c90:	85 ff                	test   %edi,%edi
    2c92:	79 dc                	jns    2c70 <rtl8169_autoneg_enable+0x30>
    2c94:	f6 45 0c 02          	testb  $0x2,0xc(%ebp)
    2c98:	0f 85 ea 00 00 00    	jne    2d88 <rtl8169_autoneg_enable+0x148>
    2c9e:	b8 21 00 00 00       	mov    $0x21,%eax
    2ca3:	be 01 00 00 00       	mov    $0x1,%esi
    2ca8:	f6 45 0c 01          	testb  $0x1,0xc(%ebp)
    2cac:	74 02                	je     2cb0 <rtl8169_autoneg_enable+0x70>
    2cae:	89 c6                	mov    %eax,%esi
    2cb0:	f6 45 0c 20          	testb  $0x20,0xc(%ebp)
    2cb4:	74 07                	je     2cbd <rtl8169_autoneg_enable+0x7d>
    2cb6:	89 f0                	mov    %esi,%eax
    2cb8:	80 cc 01             	or     $0x1,%ah
    2cbb:	89 c6                	mov    %eax,%esi
    2cbd:	f6 45 0c 04          	testb  $0x4,0xc(%ebp)
    2cc1:	74 06                	je     2cc9 <rtl8169_autoneg_enable+0x89>
    2cc3:	89 f0                	mov    %esi,%eax
    2cc5:	0c 80                	or     $0x80,%al
    2cc7:	89 c6                	mov    %eax,%esi
    2cc9:	f7 45 0c 00 00 00 10 	testl  $0x10000000,0xc(%ebp)
    2cd0:	74 07                	je     2cd9 <rtl8169_autoneg_enable+0x99>
    2cd2:	89 f0                	mov    %esi,%eax
    2cd4:	80 cc 04             	or     $0x4,%ah
    2cd7:	89 c6                	mov    %eax,%esi
    2cd9:	89 fa                	mov    %edi,%edx
    2cdb:	51                   	push   %ecx
    2cdc:	80 ce 10             	or     $0x10,%dh
    2cdf:	51                   	push   %ecx
    2ce0:	89 d0                	mov    %edx,%eax
    2ce2:	31 d2                	xor    %edx,%edx
    2ce4:	66 89 c2             	mov    %ax,%dx
    2ce7:	8b 43 04             	mov    0x4(%ebx),%eax
    2cea:	81 ca 00 00 00 80    	or     $0x80000000,%edx
    2cf0:	83 c0 60             	add    $0x60,%eax
    2cf3:	52                   	push   %edx
    2cf4:	50                   	push   %eax
    2cf5:	e8 76 f6 00 00       	call   12370 <pio_write_32@plt>
    2cfa:	83 c4 10             	add    $0x10,%esp
    2cfd:	8d 76 00             	lea    0x0(%esi),%esi
    2d00:	83 ec 0c             	sub    $0xc,%esp
    2d03:	8b 43 04             	mov    0x4(%ebx),%eax
    2d06:	83 c0 60             	add    $0x60,%eax
    2d09:	50                   	push   %eax
    2d0a:	e8 81 f4 00 00       	call   12190 <pio_read_32@plt>
    2d0f:	89 c7                	mov    %eax,%edi
    2d11:	c7 04 24 14 00 00 00 	movl   $0x14,(%esp)
    2d18:	e8 23 f4 00 00       	call   12140 <usleep@plt>
    2d1d:	83 c4 10             	add    $0x10,%esp
    2d20:	85 ff                	test   %edi,%edi
    2d22:	78 dc                	js     2d00 <rtl8169_autoneg_enable+0xc0>
    2d24:	83 ec 0c             	sub    $0xc,%esp
    2d27:	6a 14                	push   $0x14
    2d29:	e8 12 f4 00 00       	call   12140 <usleep@plt>
    2d2e:	58                   	pop    %eax
    2d2f:	89 f0                	mov    %esi,%eax
    2d31:	31 f6                	xor    %esi,%esi
    2d33:	5a                   	pop    %edx
    2d34:	66 89 c6             	mov    %ax,%si
    2d37:	8b 43 04             	mov    0x4(%ebx),%eax
    2d3a:	83 c0 60             	add    $0x60,%eax
    2d3d:	81 ce 00 00 02 80    	or     $0x80020000,%esi
    2d43:	56                   	push   %esi
    2d44:	50                   	push   %eax
    2d45:	e8 26 f6 00 00       	call   12370 <pio_write_32@plt>
    2d4a:	83 c4 10             	add    $0x10,%esp
    2d4d:	8d 76 00             	lea    0x0(%esi),%esi
    2d50:	83 ec 0c             	sub    $0xc,%esp
    2d53:	8b 43 04             	mov    0x4(%ebx),%eax
    2d56:	83 c0 60             	add    $0x60,%eax
    2d59:	50                   	push   %eax
    2d5a:	e8 31 f4 00 00       	call   12190 <pio_read_32@plt>
    2d5f:	89 c6                	mov    %eax,%esi
    2d61:	c7 04 24 14 00 00 00 	movl   $0x14,(%esp)
    2d68:	e8 d3 f3 00 00       	call   12140 <usleep@plt>
    2d6d:	83 c4 10             	add    $0x10,%esp
    2d70:	85 f6                	test   %esi,%esi
    2d72:	78 dc                	js     2d50 <rtl8169_autoneg_enable+0x110>
    2d74:	83 ec 0c             	sub    $0xc,%esp
    2d77:	6a 14                	push   $0x14
    2d79:	e8 c2 f3 00 00       	call   12140 <usleep@plt>
    2d7e:	8d 65 f4             	lea    -0xc(%ebp),%esp
    2d81:	31 c0                	xor    %eax,%eax
    2d83:	5b                   	pop    %ebx
    2d84:	5e                   	pop    %esi
    2d85:	5f                   	pop    %edi
    2d86:	5d                   	pop    %ebp
    2d87:	c3                   	ret    
    2d88:	b8 61 00 00 00       	mov    $0x61,%eax
    2d8d:	be 41 00 00 00       	mov    $0x41,%esi
    2d92:	e9 11 ff ff ff       	jmp    2ca8 <rtl8169_autoneg_enable+0x68>
    2d97:	66 90                	xchg   %ax,%ax
    2d99:	66 90                	xchg   %ax,%ax
    2d9b:	66 90                	xchg   %ax,%ax
    2d9d:	66 90                	xchg   %ax,%ax
    2d9f:	90                   	nop

00002da0 <main>:
    2da0:	8d 4c 24 04          	lea    0x4(%esp),%ecx
    2da4:	83 e4 f0             	and    $0xfffffff0,%esp
    2da7:	ff 71 fc             	pushl  -0x4(%ecx)
    2daa:	55                   	push   %ebp
    2dab:	89 e5                	mov    %esp,%ebp
    2dad:	51                   	push   %ecx
    2dae:	83 ec 10             	sub    $0x10,%esp
    2db1:	68 3c f9 00 00       	push   $0xf93c
    2db6:	e8 a5 92 00 00       	call   c060 <nic_driver_init>
    2dbb:	83 c4 10             	add    $0x10,%esp
    2dbe:	85 c0                	test   %eax,%eax
    2dc0:	75 3e                	jne    2e00 <main+0x60>
    2dc2:	50                   	push   %eax
    2dc3:	68 80 4a 01 00       	push   $0x14a80
    2dc8:	68 a0 4d 01 00       	push   $0x14da0
    2dcd:	68 c8 49 01 00       	push   $0x149c8
    2dd2:	e8 f9 92 00 00       	call   c0d0 <nic_driver_implement>
    2dd7:	c7 04 24 3c f9 00 00 	movl   $0xf93c,(%esp)
    2dde:	e8 5d 12 00 00       	call   4040 <ddf_log_init>
    2de3:	5a                   	pop    %edx
    2de4:	59                   	pop    %ecx
    2de5:	68 4c ff 00 00       	push   $0xff4c
    2dea:	6a 03                	push   $0x3
    2dec:	e8 5f 12 00 00       	call   4050 <ddf_msg>
    2df1:	c7 04 24 c0 49 01 00 	movl   $0x149c0,(%esp)
    2df8:	e8 a3 10 00 00       	call   3ea0 <ddf_driver_main>
    2dfd:	83 c4 10             	add    $0x10,%esp
    2e00:	8b 4d fc             	mov    -0x4(%ebp),%ecx
    2e03:	c9                   	leave  
    2e04:	8d 61 fc             	lea    -0x4(%ecx),%esp
    2e07:	c3                   	ret    
    2e08:	66 90                	xchg   %ax,%ax
    2e0a:	66 90                	xchg   %ax,%ax
    2e0c:	66 90                	xchg   %ax,%ax
    2e0e:	66 90                	xchg   %ax,%ax

00002e10 <fun_del_ref>:
    2e10:	55                   	push   %ebp
    2e11:	83 ca ff             	or     $0xffffffff,%edx
    2e14:	89 e5                	mov    %esp,%ebp
    2e16:	57                   	push   %edi
    2e17:	56                   	push   %esi
    2e18:	53                   	push   %ebx
    2e19:	83 ec 1c             	sub    $0x1c,%esp
    2e1c:	8b 70 0c             	mov    0xc(%eax),%esi
    2e1f:	f0 0f c1 50 08       	lock xadd %edx,0x8(%eax)
    2e24:	4a                   	dec    %edx
    2e25:	74 69                	je     2e90 <fun_del_ref+0x80>
    2e27:	83 c8 ff             	or     $0xffffffff,%eax
    2e2a:	f0 0f c1 46 04       	lock xadd %eax,0x4(%esi)
    2e2f:	48                   	dec    %eax
    2e30:	74 0e                	je     2e40 <fun_del_ref+0x30>
    2e32:	8d 65 f4             	lea    -0xc(%ebp),%esp
    2e35:	5b                   	pop    %ebx
    2e36:	5e                   	pop    %esi
    2e37:	5f                   	pop    %edi
    2e38:	5d                   	pop    %ebp
    2e39:	c3                   	ret    
    2e3a:	8d b6 00 00 00 00    	lea    0x0(%esi),%esi
    2e40:	8b 46 08             	mov    0x8(%esi),%eax
    2e43:	85 c0                	test   %eax,%eax
    2e45:	74 0c                	je     2e53 <fun_del_ref+0x43>
    2e47:	83 ec 0c             	sub    $0xc,%esp
    2e4a:	50                   	push   %eax
    2e4b:	e8 20 f2 00 00       	call   12070 <async_hangup@plt>
    2e50:	83 c4 10             	add    $0x10,%esp
    2e53:	8b 46 10             	mov    0x10(%esi),%eax
    2e56:	85 c0                	test   %eax,%eax
    2e58:	74 0c                	je     2e66 <fun_del_ref+0x56>
    2e5a:	83 ec 0c             	sub    $0xc,%esp
    2e5d:	50                   	push   %eax
    2e5e:	e8 1d f8 00 00       	call   12680 <free@plt>
    2e63:	83 c4 10             	add    $0x10,%esp
    2e66:	8b 46 0c             	mov    0xc(%esi),%eax
    2e69:	85 c0                	test   %eax,%eax
    2e6b:	74 0c                	je     2e79 <fun_del_ref+0x69>
    2e6d:	83 ec 0c             	sub    $0xc,%esp
    2e70:	50                   	push   %eax
    2e71:	e8 0a f8 00 00       	call   12680 <free@plt>
    2e76:	83 c4 10             	add    $0x10,%esp
    2e79:	83 ec 0c             	sub    $0xc,%esp
    2e7c:	56                   	push   %esi
    2e7d:	e8 fe f7 00 00       	call   12680 <free@plt>
    2e82:	83 c4 10             	add    $0x10,%esp
    2e85:	8d 65 f4             	lea    -0xc(%ebp),%esp
    2e88:	5b                   	pop    %ebx
    2e89:	5e                   	pop    %esi
    2e8a:	5f                   	pop    %edi
    2e8b:	5d                   	pop    %ebp
    2e8c:	c3                   	ret    
    2e8d:	8d 76 00             	lea    0x0(%esi),%esi
    2e90:	8b 58 1c             	mov    0x1c(%eax),%ebx
    2e93:	89 c7                	mov    %eax,%edi
    2e95:	8d 40 18             	lea    0x18(%eax),%eax
    2e98:	89 45 e4             	mov    %eax,-0x1c(%ebp)
    2e9b:	39 d8                	cmp    %ebx,%eax
    2e9d:	74 49                	je     2ee8 <fun_del_ref+0xd8>
    2e9f:	90                   	nop
    2ea0:	8b 0b                	mov    (%ebx),%ecx
    2ea2:	85 c9                	test   %ecx,%ecx
    2ea4:	74 0e                	je     2eb4 <fun_del_ref+0xa4>
    2ea6:	8b 53 04             	mov    0x4(%ebx),%edx
    2ea9:	85 d2                	test   %edx,%edx
    2eab:	74 07                	je     2eb4 <fun_del_ref+0xa4>
    2ead:	89 0a                	mov    %ecx,(%edx)
    2eaf:	8b 0b                	mov    (%ebx),%ecx
    2eb1:	89 51 04             	mov    %edx,0x4(%ecx)
    2eb4:	8b 53 08             	mov    0x8(%ebx),%edx
    2eb7:	c7 03 00 00 00 00    	movl   $0x0,(%ebx)
    2ebd:	c7 43 04 00 00 00 00 	movl   $0x0,0x4(%ebx)
    2ec4:	85 d2                	test   %edx,%edx
    2ec6:	74 0c                	je     2ed4 <fun_del_ref+0xc4>
    2ec8:	83 ec 0c             	sub    $0xc,%esp
    2ecb:	52                   	push   %edx
    2ecc:	e8 af f7 00 00       	call   12680 <free@plt>
    2ed1:	83 c4 10             	add    $0x10,%esp
    2ed4:	83 ec 0c             	sub    $0xc,%esp
    2ed7:	53                   	push   %ebx
    2ed8:	e8 a3 f7 00 00       	call   12680 <free@plt>
    2edd:	8b 5f 1c             	mov    0x1c(%edi),%ebx
    2ee0:	83 c4 10             	add    $0x10,%esp
    2ee3:	3b 5d e4             	cmp    -0x1c(%ebp),%ebx
    2ee6:	75 b8                	jne    2ea0 <fun_del_ref+0x90>
    2ee8:	8b 57 20             	mov    0x20(%edi),%edx
    2eeb:	85 d2                	test   %edx,%edx
    2eed:	74 0c                	je     2efb <fun_del_ref+0xeb>
    2eef:	83 ec 0c             	sub    $0xc,%esp
    2ef2:	52                   	push   %edx
    2ef3:	e8 88 f7 00 00       	call   12680 <free@plt>
    2ef8:	83 c4 10             	add    $0x10,%esp
    2efb:	8b 57 14             	mov    0x14(%edi),%edx
    2efe:	85 d2                	test   %edx,%edx
    2f00:	74 0c                	je     2f0e <fun_del_ref+0xfe>
    2f02:	83 ec 0c             	sub    $0xc,%esp
    2f05:	52                   	push   %edx
    2f06:	e8 75 f7 00 00       	call   12680 <free@plt>
    2f0b:	83 c4 10             	add    $0x10,%esp
    2f0e:	83 ec 0c             	sub    $0xc,%esp
    2f11:	57                   	push   %edi
    2f12:	e8 69 f7 00 00       	call   12680 <free@plt>
    2f17:	83 c4 10             	add    $0x10,%esp
    2f1a:	e9 08 ff ff ff       	jmp    2e27 <fun_del_ref+0x17>
    2f1f:	90                   	nop

00002f20 <driver_connection_gen.constprop.7>:
    2f20:	55                   	push   %ebp
    2f21:	89 e5                	mov    %esp,%ebp
    2f23:	57                   	push   %edi
    2f24:	56                   	push   %esi
    2f25:	53                   	push   %ebx
    2f26:	83 ec 58             	sub    $0x58,%esp
    2f29:	89 d3                	mov    %edx,%ebx
    2f2b:	8b 72 08             	mov    0x8(%edx),%esi
    2f2e:	89 45 b4             	mov    %eax,-0x4c(%ebp)
    2f31:	68 34 4b 01 00       	push   $0x14b34
    2f36:	e8 65 f7 00 00       	call   126a0 <fibril_mutex_lock@plt>
    2f3b:	c7 04 24 34 4b 01 00 	movl   $0x14b34,(%esp)
    2f42:	e8 c9 f1 00 00       	call   12110 <fibril_mutex_is_locked@plt>
    2f47:	83 c4 10             	add    $0x10,%esp
    2f4a:	84 c0                	test   %al,%al
    2f4c:	0f 84 71 02 00 00    	je     31c3 <driver_connection_gen.constprop.7+0x2a3>
    2f52:	a1 48 4b 01 00       	mov    0x14b48,%eax
    2f57:	3d 44 4b 01 00       	cmp    $0x14b44,%eax
    2f5c:	8d 78 d4             	lea    -0x2c(%eax),%edi
    2f5f:	75 18                	jne    2f79 <driver_connection_gen.constprop.7+0x59>
    2f61:	e9 22 02 00 00       	jmp    3188 <driver_connection_gen.constprop.7+0x268>
    2f66:	66 90                	xchg   %ax,%ax
    2f68:	8b 40 04             	mov    0x4(%eax),%eax
    2f6b:	3d 44 4b 01 00       	cmp    $0x14b44,%eax
    2f70:	8d 78 d4             	lea    -0x2c(%eax),%edi
    2f73:	0f 84 0f 02 00 00    	je     3188 <driver_connection_gen.constprop.7+0x268>
    2f79:	3b 77 04             	cmp    0x4(%edi),%esi
    2f7c:	75 ea                	jne    2f68 <driver_connection_gen.constprop.7+0x48>
    2f7e:	8b 47 0c             	mov    0xc(%edi),%eax
    2f81:	f0 ff 40 04          	lock incl 0x4(%eax)
    2f85:	f0 ff 47 08          	lock incl 0x8(%edi)
    2f89:	83 ec 0c             	sub    $0xc,%esp
    2f8c:	68 34 4b 01 00       	push   $0x14b34
    2f91:	e8 6a f3 00 00       	call   12300 <fibril_mutex_unlock@plt>
    2f96:	8b 47 28             	mov    0x28(%edi),%eax
    2f99:	83 c4 10             	add    $0x10,%esp
    2f9c:	85 c0                	test   %eax,%eax
    2f9e:	74 20                	je     2fc0 <driver_connection_gen.constprop.7+0xa0>
    2fa0:	8b 55 b4             	mov    -0x4c(%ebp),%edx
    2fa3:	56                   	push   %esi
    2fa4:	57                   	push   %edi
    2fa5:	53                   	push   %ebx
    2fa6:	52                   	push   %edx
    2fa7:	ff d0                	call   *%eax
    2fa9:	89 f8                	mov    %edi,%eax
    2fab:	e8 60 fe ff ff       	call   2e10 <fun_del_ref>
    2fb0:	83 c4 10             	add    $0x10,%esp
    2fb3:	8d 65 f4             	lea    -0xc(%ebp),%esp
    2fb6:	5b                   	pop    %ebx
    2fb7:	5e                   	pop    %esi
    2fb8:	5f                   	pop    %edi
    2fb9:	5d                   	pop    %ebp
    2fba:	c3                   	ret    
    2fbb:	90                   	nop
    2fbc:	8d 74 26 00          	lea    0x0(%esi,%eiz,1),%esi
    2fc0:	8b 47 24             	mov    0x24(%edi),%eax
    2fc3:	85 c0                	test   %eax,%eax
    2fc5:	0f 84 a5 01 00 00    	je     3170 <driver_connection_gen.constprop.7+0x250>
    2fcb:	8b 00                	mov    (%eax),%eax
    2fcd:	85 c0                	test   %eax,%eax
    2fcf:	0f 84 9b 01 00 00    	je     3170 <driver_connection_gen.constprop.7+0x250>
    2fd5:	83 ec 0c             	sub    $0xc,%esp
    2fd8:	57                   	push   %edi
    2fd9:	ff d0                	call   *%eax
    2fdb:	8b 4d b4             	mov    -0x4c(%ebp),%ecx
    2fde:	89 c3                	mov    %eax,%ebx
    2fe0:	58                   	pop    %eax
    2fe1:	5a                   	pop    %edx
    2fe2:	53                   	push   %ebx
    2fe3:	51                   	push   %ecx
    2fe4:	e8 07 f2 00 00       	call   121f0 <async_answer_0@plt>
    2fe9:	83 c4 10             	add    $0x10,%esp
    2fec:	85 db                	test   %ebx,%ebx
    2fee:	0f 85 70 01 00 00    	jne    3164 <driver_connection_gen.constprop.7+0x244>
    2ff4:	8d 74 26 00          	lea    0x0(%esi,%eiz,1),%esi
    2ff8:	50                   	push   %eax
    2ff9:	50                   	push   %eax
    2ffa:	8d 45 c4             	lea    -0x3c(%ebp),%eax
    2ffd:	6a 00                	push   $0x0
    2fff:	50                   	push   %eax
    3000:	e8 ab f4 00 00       	call   124b0 <async_get_call_timeout@plt>
    3005:	8b 5d c4             	mov    -0x3c(%ebp),%ebx
    3008:	83 c4 10             	add    $0x10,%esp
    300b:	89 45 b4             	mov    %eax,-0x4c(%ebp)
    300e:	85 db                	test   %ebx,%ebx
    3010:	0f 84 e2 00 00 00    	je     30f8 <driver_connection_gen.constprop.7+0x1d8>
    3016:	83 ec 0c             	sub    $0xc,%esp
    3019:	81 eb 00 04 00 00    	sub    $0x400,%ebx
    301f:	53                   	push   %ebx
    3020:	e8 cb 0f 00 00       	call   3ff0 <is_valid_iface_idx>
    3025:	83 c4 10             	add    $0x10,%esp
    3028:	84 c0                	test   %al,%al
    302a:	75 2c                	jne    3058 <driver_connection_gen.constprop.7+0x138>
    302c:	8b 47 24             	mov    0x24(%edi),%eax
    302f:	85 c0                	test   %eax,%eax
    3031:	0f 84 91 00 00 00    	je     30c8 <driver_connection_gen.constprop.7+0x1a8>
    3037:	8b 40 44             	mov    0x44(%eax),%eax
    303a:	85 c0                	test   %eax,%eax
    303c:	0f 84 86 00 00 00    	je     30c8 <driver_connection_gen.constprop.7+0x1a8>
    3042:	8d 4d c4             	lea    -0x3c(%ebp),%ecx
    3045:	52                   	push   %edx
    3046:	51                   	push   %ecx
    3047:	8b 4d b4             	mov    -0x4c(%ebp),%ecx
    304a:	51                   	push   %ecx
    304b:	57                   	push   %edi
    304c:	ff d0                	call   *%eax
    304e:	83 c4 10             	add    $0x10,%esp
    3051:	eb a5                	jmp    2ff8 <driver_connection_gen.constprop.7+0xd8>
    3053:	90                   	nop
    3054:	8d 74 26 00          	lea    0x0(%esi,%eiz,1),%esi
    3058:	83 ec 0c             	sub    $0xc,%esp
    305b:	53                   	push   %ebx
    305c:	e8 8f 0f 00 00       	call   3ff0 <is_valid_iface_idx>
    3061:	83 c4 10             	add    $0x10,%esp
    3064:	84 c0                	test   %al,%al
    3066:	0f 84 69 01 00 00    	je     31d5 <driver_connection_gen.constprop.7+0x2b5>
    306c:	8b 47 24             	mov    0x24(%edi),%eax
    306f:	85 c0                	test   %eax,%eax
    3071:	0f 84 b9 00 00 00    	je     3130 <driver_connection_gen.constprop.7+0x210>
    3077:	8b 44 98 08          	mov    0x8(%eax,%ebx,4),%eax
    307b:	89 45 b0             	mov    %eax,-0x50(%ebp)
    307e:	85 c0                	test   %eax,%eax
    3080:	0f 84 aa 00 00 00    	je     3130 <driver_connection_gen.constprop.7+0x210>
    3086:	83 ec 0c             	sub    $0xc,%esp
    3089:	53                   	push   %ebx
    308a:	e8 11 0f 00 00       	call   3fa0 <get_remote_iface>
    308f:	83 c4 10             	add    $0x10,%esp
    3092:	85 c0                	test   %eax,%eax
    3094:	0f 84 50 01 00 00    	je     31ea <driver_connection_gen.constprop.7+0x2ca>
    309a:	8b 4d c8             	mov    -0x38(%ebp),%ecx
    309d:	52                   	push   %edx
    309e:	52                   	push   %edx
    309f:	51                   	push   %ecx
    30a0:	50                   	push   %eax
    30a1:	e8 2a 0f 00 00       	call   3fd0 <get_remote_method>
    30a6:	83 c4 10             	add    $0x10,%esp
    30a9:	85 c0                	test   %eax,%eax
    30ab:	0f 84 9f 00 00 00    	je     3150 <driver_connection_gen.constprop.7+0x230>
    30b1:	8d 55 c4             	lea    -0x3c(%ebp),%edx
    30b4:	8b 4d b0             	mov    -0x50(%ebp),%ecx
    30b7:	52                   	push   %edx
    30b8:	8b 55 b4             	mov    -0x4c(%ebp),%edx
    30bb:	52                   	push   %edx
    30bc:	51                   	push   %ecx
    30bd:	57                   	push   %edi
    30be:	ff d0                	call   *%eax
    30c0:	83 c4 10             	add    $0x10,%esp
    30c3:	e9 30 ff ff ff       	jmp    2ff8 <driver_connection_gen.constprop.7+0xd8>
    30c8:	50                   	push   %eax
    30c9:	a1 e8 4d 01 00       	mov    0x14de8,%eax
    30ce:	53                   	push   %ebx
    30cf:	8b 00                	mov    (%eax),%eax
    30d1:	50                   	push   %eax
    30d2:	68 f0 00 01 00       	push   $0x100f0
    30d7:	e8 84 ef 00 00       	call   12060 <printf@plt>
    30dc:	5b                   	pop    %ebx
    30dd:	58                   	pop    %eax
    30de:	8b 45 b4             	mov    -0x4c(%ebp),%eax
    30e1:	6a f5                	push   $0xfffffff5
    30e3:	50                   	push   %eax
    30e4:	e8 07 f1 00 00       	call   121f0 <async_answer_0@plt>
    30e9:	83 c4 10             	add    $0x10,%esp
    30ec:	e9 07 ff ff ff       	jmp    2ff8 <driver_connection_gen.constprop.7+0xd8>
    30f1:	8d b4 26 00 00 00 00 	lea    0x0(%esi,%eiz,1),%esi
    30f8:	8b 47 24             	mov    0x24(%edi),%eax
    30fb:	85 c0                	test   %eax,%eax
    30fd:	74 10                	je     310f <driver_connection_gen.constprop.7+0x1ef>
    30ff:	8b 40 04             	mov    0x4(%eax),%eax
    3102:	85 c0                	test   %eax,%eax
    3104:	74 09                	je     310f <driver_connection_gen.constprop.7+0x1ef>
    3106:	83 ec 0c             	sub    $0xc,%esp
    3109:	57                   	push   %edi
    310a:	ff d0                	call   *%eax
    310c:	83 c4 10             	add    $0x10,%esp
    310f:	8b 75 b4             	mov    -0x4c(%ebp),%esi
    3112:	53                   	push   %ebx
    3113:	53                   	push   %ebx
    3114:	6a 00                	push   $0x0
    3116:	56                   	push   %esi
    3117:	e8 d4 f0 00 00       	call   121f0 <async_answer_0@plt>
    311c:	89 f8                	mov    %edi,%eax
    311e:	e8 ed fc ff ff       	call   2e10 <fun_del_ref>
    3123:	83 c4 10             	add    $0x10,%esp
    3126:	8d 65 f4             	lea    -0xc(%ebp),%esp
    3129:	5b                   	pop    %ebx
    312a:	5e                   	pop    %esi
    312b:	5f                   	pop    %edi
    312c:	5d                   	pop    %ebp
    312d:	c3                   	ret    
    312e:	66 90                	xchg   %ax,%ax
    3130:	50                   	push   %eax
    3131:	50                   	push   %eax
    3132:	a1 e8 4d 01 00       	mov    0x14de8,%eax
    3137:	8b 00                	mov    (%eax),%eax
    3139:	50                   	push   %eax
    313a:	68 2c 01 01 00       	push   $0x1012c
    313f:	e8 1c ef 00 00       	call   12060 <printf@plt>
    3144:	83 c4 0c             	add    $0xc,%esp
    3147:	53                   	push   %ebx
    3148:	56                   	push   %esi
    3149:	68 50 01 01 00       	push   $0x10150
    314e:	eb 87                	jmp    30d7 <driver_connection_gen.constprop.7+0x1b7>
    3150:	50                   	push   %eax
    3151:	50                   	push   %eax
    3152:	a1 e8 4d 01 00       	mov    0x14de8,%eax
    3157:	8b 00                	mov    (%eax),%eax
    3159:	50                   	push   %eax
    315a:	68 88 01 01 00       	push   $0x10188
    315f:	e9 73 ff ff ff       	jmp    30d7 <driver_connection_gen.constprop.7+0x1b7>
    3164:	89 f8                	mov    %edi,%eax
    3166:	e8 a5 fc ff ff       	call   2e10 <fun_del_ref>
    316b:	e9 43 fe ff ff       	jmp    2fb3 <driver_connection_gen.constprop.7+0x93>
    3170:	8b 55 b4             	mov    -0x4c(%ebp),%edx
    3173:	50                   	push   %eax
    3174:	50                   	push   %eax
    3175:	6a 00                	push   $0x0
    3177:	52                   	push   %edx
    3178:	e8 73 f0 00 00       	call   121f0 <async_answer_0@plt>
    317d:	83 c4 10             	add    $0x10,%esp
    3180:	e9 73 fe ff ff       	jmp    2ff8 <driver_connection_gen.constprop.7+0xd8>
    3185:	8d 76 00             	lea    0x0(%esi),%esi
    3188:	83 ec 0c             	sub    $0xc,%esp
    318b:	68 34 4b 01 00       	push   $0x14b34
    3190:	e8 6b f1 00 00       	call   12300 <fibril_mutex_unlock@plt>
    3195:	a1 e8 4d 01 00       	mov    0x14de8,%eax
    319a:	83 c4 0c             	add    $0xc,%esp
    319d:	8b 08                	mov    (%eax),%ecx
    319f:	56                   	push   %esi
    31a0:	51                   	push   %ecx
    31a1:	68 c4 01 01 00       	push   $0x101c4
    31a6:	e8 b5 ee 00 00       	call   12060 <printf@plt>
    31ab:	8b 7d b4             	mov    -0x4c(%ebp),%edi
    31ae:	5b                   	pop    %ebx
    31af:	5e                   	pop    %esi
    31b0:	6a ff                	push   $0xffffffff
    31b2:	57                   	push   %edi
    31b3:	e8 38 f0 00 00       	call   121f0 <async_answer_0@plt>
    31b8:	83 c4 10             	add    $0x10,%esp
    31bb:	8d 65 f4             	lea    -0xc(%ebp),%esp
    31be:	5b                   	pop    %ebx
    31bf:	5e                   	pop    %esi
    31c0:	5f                   	pop    %edi
    31c1:	5d                   	pop    %ebp
    31c2:	c3                   	ret    
    31c3:	51                   	push   %ecx
    31c4:	6a 6b                	push   $0x6b
    31c6:	68 6b ff 00 00       	push   $0xff6b
    31cb:	68 c4 00 01 00       	push   $0x100c4
    31d0:	e8 8b f0 00 00       	call   12260 <assert_abort@plt>
    31d5:	50                   	push   %eax
    31d6:	68 fb 02 00 00       	push   $0x2fb
    31db:	68 6b ff 00 00       	push   $0xff6b
    31e0:	68 7c ff 00 00       	push   $0xff7c
    31e5:	e8 76 f0 00 00       	call   12260 <assert_abort@plt>
    31ea:	53                   	push   %ebx
    31eb:	68 aa 01 00 00       	push   $0x1aa
    31f0:	68 6b ff 00 00       	push   $0xff6b
    31f5:	68 94 ff 00 00       	push   $0xff94
    31fa:	e8 61 f0 00 00       	call   12260 <assert_abort@plt>
    31ff:	90                   	nop

00003200 <driver_connection_driver>:
    3200:	55                   	push   %ebp
    3201:	89 e5                	mov    %esp,%ebp
    3203:	8b 55 0c             	mov    0xc(%ebp),%edx
    3206:	8b 45 08             	mov    0x8(%ebp),%eax
    3209:	5d                   	pop    %ebp
    320a:	e9 11 fd ff ff       	jmp    2f20 <driver_connection_gen.constprop.7>
    320f:	90                   	nop

00003210 <driver_connection_client>:
    3210:	55                   	push   %ebp
    3211:	89 e5                	mov    %esp,%ebp
    3213:	8b 55 0c             	mov    0xc(%ebp),%edx
    3216:	8b 45 08             	mov    0x8(%ebp),%eax
    3219:	5d                   	pop    %ebp
    321a:	e9 01 fd ff ff       	jmp    2f20 <driver_connection_gen.constprop.7>
    321f:	90                   	nop

00003220 <driver_connection_devman>:
    3220:	55                   	push   %ebp
    3221:	89 e5                	mov    %esp,%ebp
    3223:	57                   	push   %edi
    3224:	56                   	push   %esi
    3225:	53                   	push   %ebx
    3226:	83 ec 54             	sub    $0x54,%esp
    3229:	8d 75 c4             	lea    -0x3c(%ebp),%esi
    322c:	8b 45 08             	mov    0x8(%ebp),%eax
    322f:	6a 00                	push   $0x0
    3231:	50                   	push   %eax
    3232:	e8 b9 ef 00 00       	call   121f0 <async_answer_0@plt>
    3237:	83 c4 10             	add    $0x10,%esp
    323a:	8d b6 00 00 00 00    	lea    0x0(%esi),%esi
    3240:	50                   	push   %eax
    3241:	50                   	push   %eax
    3242:	6a 00                	push   $0x0
    3244:	56                   	push   %esi
    3245:	e8 66 f2 00 00       	call   124b0 <async_get_call_timeout@plt>
    324a:	83 c4 10             	add    $0x10,%esp
    324d:	89 c3                	mov    %eax,%ebx
    324f:	8b 45 c4             	mov    -0x3c(%ebp),%eax
    3252:	85 c0                	test   %eax,%eax
    3254:	0f 84 de 03 00 00    	je     3638 <driver_connection_devman+0x418>
    325a:	2d 00 04 00 00       	sub    $0x400,%eax
    325f:	83 f8 04             	cmp    $0x4,%eax
    3262:	0f 87 b8 03 00 00    	ja     3620 <driver_connection_devman+0x400>
    3268:	8b 7d c8             	mov    -0x38(%ebp),%edi
    326b:	ff 24 85 74 02 01 00 	jmp    *0x10274(,%eax,4)
    3272:	8d b6 00 00 00 00    	lea    0x0(%esi),%esi
    3278:	83 ec 0c             	sub    $0xc,%esp
    327b:	68 34 4b 01 00       	push   $0x14b34
    3280:	e8 1b f4 00 00       	call   126a0 <fibril_mutex_lock@plt>
    3285:	c7 04 24 34 4b 01 00 	movl   $0x14b34,(%esp)
    328c:	e8 7f ee 00 00       	call   12110 <fibril_mutex_is_locked@plt>
    3291:	83 c4 10             	add    $0x10,%esp
    3294:	84 c0                	test   %al,%al
    3296:	0f 84 5a 04 00 00    	je     36f6 <driver_connection_devman+0x4d6>
    329c:	a1 48 4b 01 00       	mov    0x14b48,%eax
    32a1:	3d 44 4b 01 00       	cmp    $0x14b44,%eax
    32a6:	8d 50 d4             	lea    -0x2c(%eax),%edx
    32a9:	75 16                	jne    32c1 <driver_connection_devman+0xa1>
    32ab:	e9 90 03 00 00       	jmp    3640 <driver_connection_devman+0x420>
    32b0:	8b 40 04             	mov    0x4(%eax),%eax
    32b3:	3d 44 4b 01 00       	cmp    $0x14b44,%eax
    32b8:	8d 50 d4             	lea    -0x2c(%eax),%edx
    32bb:	0f 84 7f 03 00 00    	je     3640 <driver_connection_devman+0x420>
    32c1:	3b 7a 04             	cmp    0x4(%edx),%edi
    32c4:	75 ea                	jne    32b0 <driver_connection_devman+0x90>
    32c6:	8b 42 0c             	mov    0xc(%edx),%eax
    32c9:	f0 ff 40 04          	lock incl 0x4(%eax)
    32cd:	f0 ff 42 08          	lock incl 0x8(%edx)
    32d1:	83 ec 0c             	sub    $0xc,%esp
    32d4:	89 55 b4             	mov    %edx,-0x4c(%ebp)
    32d7:	68 34 4b 01 00       	push   $0x14b34
    32dc:	e8 1f f0 00 00       	call   12300 <fibril_mutex_unlock@plt>
    32e1:	a1 e8 4d 01 00       	mov    0x14de8,%eax
    32e6:	83 c4 10             	add    $0x10,%esp
    32e9:	8b 55 b4             	mov    -0x4c(%ebp),%edx
    32ec:	8b 40 04             	mov    0x4(%eax),%eax
    32ef:	8b 40 0c             	mov    0xc(%eax),%eax
    32f2:	85 c0                	test   %eax,%eax
    32f4:	0f 84 76 03 00 00    	je     3670 <driver_connection_devman+0x450>
    32fa:	83 ec 0c             	sub    $0xc,%esp
    32fd:	52                   	push   %edx
    32fe:	ff d0                	call   *%eax
    3300:	83 c4 10             	add    $0x10,%esp
    3303:	89 c7                	mov    %eax,%edi
    3305:	8b 55 b4             	mov    -0x4c(%ebp),%edx
    3308:	89 d0                	mov    %edx,%eax
    330a:	e8 01 fb ff ff       	call   2e10 <fun_del_ref>
    330f:	51                   	push   %ecx
    3310:	51                   	push   %ecx
    3311:	57                   	push   %edi
    3312:	53                   	push   %ebx
    3313:	e8 d8 ee 00 00       	call   121f0 <async_answer_0@plt>
    3318:	83 c4 10             	add    $0x10,%esp
    331b:	e9 20 ff ff ff       	jmp    3240 <driver_connection_devman+0x20>
    3320:	83 ec 0c             	sub    $0xc,%esp
    3323:	68 4c 4b 01 00       	push   $0x14b4c
    3328:	e8 73 f3 00 00       	call   126a0 <fibril_mutex_lock@plt>
    332d:	c7 04 24 4c 4b 01 00 	movl   $0x14b4c,(%esp)
    3334:	e8 d7 ed 00 00       	call   12110 <fibril_mutex_is_locked@plt>
    3339:	83 c4 10             	add    $0x10,%esp
    333c:	84 c0                	test   %al,%al
    333e:	0f 84 a0 03 00 00    	je     36e4 <driver_connection_devman+0x4c4>
    3344:	a1 60 4b 01 00       	mov    0x14b60,%eax
    3349:	3d 5c 4b 01 00       	cmp    $0x14b5c,%eax
    334e:	8d 50 ec             	lea    -0x14(%eax),%edx
    3351:	75 16                	jne    3369 <driver_connection_devman+0x149>
    3353:	e9 08 03 00 00       	jmp    3660 <driver_connection_devman+0x440>
    3358:	8b 40 04             	mov    0x4(%eax),%eax
    335b:	3d 5c 4b 01 00       	cmp    $0x14b5c,%eax
    3360:	8d 50 ec             	lea    -0x14(%eax),%edx
    3363:	0f 84 f7 02 00 00    	je     3660 <driver_connection_devman+0x440>
    3369:	3b 78 ec             	cmp    -0x14(%eax),%edi
    336c:	75 ea                	jne    3358 <driver_connection_devman+0x138>
    336e:	8d 7a 04             	lea    0x4(%edx),%edi
    3371:	f0 ff 42 04          	lock incl 0x4(%edx)
    3375:	83 ec 0c             	sub    $0xc,%esp
    3378:	89 55 b4             	mov    %edx,-0x4c(%ebp)
    337b:	68 4c 4b 01 00       	push   $0x14b4c
    3380:	e8 7b ef 00 00       	call   12300 <fibril_mutex_unlock@plt>
    3385:	a1 e8 4d 01 00       	mov    0x14de8,%eax
    338a:	83 c4 10             	add    $0x10,%esp
    338d:	8b 40 04             	mov    0x4(%eax),%eax
    3390:	8b 40 08             	mov    0x8(%eax),%eax
    3393:	85 c0                	test   %eax,%eax
    3395:	0f 85 88 00 00 00    	jne    3423 <driver_connection_devman+0x203>
    339b:	b8 f5 ff ff ff       	mov    $0xfffffff5,%eax
    33a0:	e9 63 02 00 00       	jmp    3608 <driver_connection_devman+0x3e8>
    33a5:	8d 76 00             	lea    0x0(%esi),%esi
    33a8:	83 ec 0c             	sub    $0xc,%esp
    33ab:	68 4c 4b 01 00       	push   $0x14b4c
    33b0:	e8 eb f2 00 00       	call   126a0 <fibril_mutex_lock@plt>
    33b5:	c7 04 24 4c 4b 01 00 	movl   $0x14b4c,(%esp)
    33bc:	e8 4f ed 00 00       	call   12110 <fibril_mutex_is_locked@plt>
    33c1:	83 c4 10             	add    $0x10,%esp
    33c4:	84 c0                	test   %al,%al
    33c6:	0f 84 18 03 00 00    	je     36e4 <driver_connection_devman+0x4c4>
    33cc:	a1 60 4b 01 00       	mov    0x14b60,%eax
    33d1:	3d 5c 4b 01 00       	cmp    $0x14b5c,%eax
    33d6:	8d 50 ec             	lea    -0x14(%eax),%edx
    33d9:	75 16                	jne    33f1 <driver_connection_devman+0x1d1>
    33db:	e9 80 02 00 00       	jmp    3660 <driver_connection_devman+0x440>
    33e0:	8b 40 04             	mov    0x4(%eax),%eax
    33e3:	3d 5c 4b 01 00       	cmp    $0x14b5c,%eax
    33e8:	8d 50 ec             	lea    -0x14(%eax),%edx
    33eb:	0f 84 6f 02 00 00    	je     3660 <driver_connection_devman+0x440>
    33f1:	3b 78 ec             	cmp    -0x14(%eax),%edi
    33f4:	75 ea                	jne    33e0 <driver_connection_devman+0x1c0>
    33f6:	8d 7a 04             	lea    0x4(%edx),%edi
    33f9:	f0 ff 42 04          	lock incl 0x4(%edx)
    33fd:	83 ec 0c             	sub    $0xc,%esp
    3400:	89 55 b4             	mov    %edx,-0x4c(%ebp)
    3403:	68 4c 4b 01 00       	push   $0x14b4c
    3408:	e8 f3 ee 00 00       	call   12300 <fibril_mutex_unlock@plt>
    340d:	a1 e8 4d 01 00       	mov    0x14de8,%eax
    3412:	83 c4 10             	add    $0x10,%esp
    3415:	8b 40 04             	mov    0x4(%eax),%eax
    3418:	8b 40 04             	mov    0x4(%eax),%eax
    341b:	85 c0                	test   %eax,%eax
    341d:	0f 84 78 ff ff ff    	je     339b <driver_connection_devman+0x17b>
    3423:	83 ec 0c             	sub    $0xc,%esp
    3426:	8b 55 b4             	mov    -0x4c(%ebp),%edx
    3429:	52                   	push   %edx
    342a:	ff d0                	call   *%eax
    342c:	83 c4 10             	add    $0x10,%esp
    342f:	8b 55 b4             	mov    -0x4c(%ebp),%edx
    3432:	85 c0                	test   %eax,%eax
    3434:	0f 85 ce 01 00 00    	jne    3608 <driver_connection_devman+0x3e8>
    343a:	83 c9 ff             	or     $0xffffffff,%ecx
    343d:	f0 0f c1 0f          	lock xadd %ecx,(%edi)
    3441:	49                   	dec    %ecx
    3442:	0f 85 c0 01 00 00    	jne    3608 <driver_connection_devman+0x3e8>
    3448:	8b 42 08             	mov    0x8(%edx),%eax
    344b:	85 c0                	test   %eax,%eax
    344d:	74 0f                	je     345e <driver_connection_devman+0x23e>
    344f:	83 ec 0c             	sub    $0xc,%esp
    3452:	50                   	push   %eax
    3453:	e8 18 ec 00 00       	call   12070 <async_hangup@plt>
    3458:	83 c4 10             	add    $0x10,%esp
    345b:	8b 55 b4             	mov    -0x4c(%ebp),%edx
    345e:	8b 42 10             	mov    0x10(%edx),%eax
    3461:	85 c0                	test   %eax,%eax
    3463:	74 12                	je     3477 <driver_connection_devman+0x257>
    3465:	83 ec 0c             	sub    $0xc,%esp
    3468:	89 55 b4             	mov    %edx,-0x4c(%ebp)
    346b:	50                   	push   %eax
    346c:	e8 0f f2 00 00       	call   12680 <free@plt>
    3471:	83 c4 10             	add    $0x10,%esp
    3474:	8b 55 b4             	mov    -0x4c(%ebp),%edx
    3477:	8b 42 0c             	mov    0xc(%edx),%eax
    347a:	85 c0                	test   %eax,%eax
    347c:	74 12                	je     3490 <driver_connection_devman+0x270>
    347e:	83 ec 0c             	sub    $0xc,%esp
    3481:	89 55 b4             	mov    %edx,-0x4c(%ebp)
    3484:	50                   	push   %eax
    3485:	e8 f6 f1 00 00       	call   12680 <free@plt>
    348a:	83 c4 10             	add    $0x10,%esp
    348d:	8b 55 b4             	mov    -0x4c(%ebp),%edx
    3490:	83 ec 0c             	sub    $0xc,%esp
    3493:	52                   	push   %edx
    3494:	e8 e7 f1 00 00       	call   12680 <free@plt>
    3499:	83 c4 10             	add    $0x10,%esp
    349c:	31 c0                	xor    %eax,%eax
    349e:	e9 65 01 00 00       	jmp    3608 <driver_connection_devman+0x3e8>
    34a3:	90                   	nop
    34a4:	8d 74 26 00          	lea    0x0(%esi,%eiz,1),%esi
    34a8:	50                   	push   %eax
    34a9:	50                   	push   %eax
    34aa:	8d 45 c0             	lea    -0x40(%ebp),%eax
    34ad:	6a 00                	push   $0x0
    34af:	c7 45 c0 00 00 00 00 	movl   $0x0,-0x40(%ebp)
    34b6:	6a 00                	push   $0x0
    34b8:	6a 00                	push   $0x0
    34ba:	6a 00                	push   $0x0
    34bc:	6a 01                	push   $0x1
    34be:	50                   	push   %eax
    34bf:	e8 dc f0 00 00       	call   125a0 <async_data_write_accept@plt>
    34c4:	83 c4 20             	add    $0x20,%esp
    34c7:	85 c0                	test   %eax,%eax
    34c9:	0f 85 39 01 00 00    	jne    3608 <driver_connection_devman+0x3e8>
    34cf:	50                   	push   %eax
    34d0:	50                   	push   %eax
    34d1:	6a 1c                	push   $0x1c
    34d3:	6a 01                	push   $0x1
    34d5:	e8 a6 ed 00 00       	call   12280 <calloc@plt>
    34da:	83 c4 10             	add    $0x10,%esp
    34dd:	89 c2                	mov    %eax,%edx
    34df:	85 c0                	test   %eax,%eax
    34e1:	0f 84 df 01 00 00    	je     36c6 <driver_connection_devman+0x4a6>
    34e7:	f0 ff 40 04          	lock incl 0x4(%eax)
    34eb:	89 38                	mov    %edi,(%eax)
    34ed:	8b 45 c0             	mov    -0x40(%ebp),%eax
    34f0:	89 42 0c             	mov    %eax,0xc(%edx)
    34f3:	a1 e8 4d 01 00       	mov    0x14de8,%eax
    34f8:	83 ec 0c             	sub    $0xc,%esp
    34fb:	89 55 b4             	mov    %edx,-0x4c(%ebp)
    34fe:	8b 40 04             	mov    0x4(%eax),%eax
    3501:	52                   	push   %edx
    3502:	ff 10                	call   *(%eax)
    3504:	83 c4 10             	add    $0x10,%esp
    3507:	89 c7                	mov    %eax,%edi
    3509:	85 c0                	test   %eax,%eax
    350b:	8b 55 b4             	mov    -0x4c(%ebp),%edx
    350e:	0f 84 66 01 00 00    	je     367a <driver_connection_devman+0x45a>
    3514:	83 c8 ff             	or     $0xffffffff,%eax
    3517:	f0 0f c1 42 04       	lock xadd %eax,0x4(%edx)
    351c:	48                   	dec    %eax
    351d:	0f 85 ec fd ff ff    	jne    330f <driver_connection_devman+0xef>
    3523:	8b 42 08             	mov    0x8(%edx),%eax
    3526:	85 c0                	test   %eax,%eax
    3528:	74 12                	je     353c <driver_connection_devman+0x31c>
    352a:	83 ec 0c             	sub    $0xc,%esp
    352d:	89 55 b4             	mov    %edx,-0x4c(%ebp)
    3530:	50                   	push   %eax
    3531:	e8 3a eb 00 00       	call   12070 <async_hangup@plt>
    3536:	83 c4 10             	add    $0x10,%esp
    3539:	8b 55 b4             	mov    -0x4c(%ebp),%edx
    353c:	8b 42 10             	mov    0x10(%edx),%eax
    353f:	85 c0                	test   %eax,%eax
    3541:	74 12                	je     3555 <driver_connection_devman+0x335>
    3543:	83 ec 0c             	sub    $0xc,%esp
    3546:	89 55 b4             	mov    %edx,-0x4c(%ebp)
    3549:	50                   	push   %eax
    354a:	e8 31 f1 00 00       	call   12680 <free@plt>
    354f:	83 c4 10             	add    $0x10,%esp
    3552:	8b 55 b4             	mov    -0x4c(%ebp),%edx
    3555:	8b 42 0c             	mov    0xc(%edx),%eax
    3558:	85 c0                	test   %eax,%eax
    355a:	74 12                	je     356e <driver_connection_devman+0x34e>
    355c:	83 ec 0c             	sub    $0xc,%esp
    355f:	89 55 b4             	mov    %edx,-0x4c(%ebp)
    3562:	50                   	push   %eax
    3563:	e8 18 f1 00 00       	call   12680 <free@plt>
    3568:	83 c4 10             	add    $0x10,%esp
    356b:	8b 55 b4             	mov    -0x4c(%ebp),%edx
    356e:	83 ec 0c             	sub    $0xc,%esp
    3571:	52                   	push   %edx
    3572:	e8 09 f1 00 00       	call   12680 <free@plt>
    3577:	83 c4 10             	add    $0x10,%esp
    357a:	e9 90 fd ff ff       	jmp    330f <driver_connection_devman+0xef>
    357f:	90                   	nop
    3580:	83 ec 0c             	sub    $0xc,%esp
    3583:	68 34 4b 01 00       	push   $0x14b34
    3588:	e8 13 f1 00 00       	call   126a0 <fibril_mutex_lock@plt>
    358d:	c7 04 24 34 4b 01 00 	movl   $0x14b34,(%esp)
    3594:	e8 77 eb 00 00       	call   12110 <fibril_mutex_is_locked@plt>
    3599:	83 c4 10             	add    $0x10,%esp
    359c:	84 c0                	test   %al,%al
    359e:	0f 84 52 01 00 00    	je     36f6 <driver_connection_devman+0x4d6>
    35a4:	a1 48 4b 01 00       	mov    0x14b48,%eax
    35a9:	3d 44 4b 01 00       	cmp    $0x14b44,%eax
    35ae:	8d 50 d4             	lea    -0x2c(%eax),%edx
    35b1:	75 12                	jne    35c5 <driver_connection_devman+0x3a5>
    35b3:	e9 88 00 00 00       	jmp    3640 <driver_connection_devman+0x420>
    35b8:	8b 40 04             	mov    0x4(%eax),%eax
    35bb:	3d 44 4b 01 00       	cmp    $0x14b44,%eax
    35c0:	8d 50 d4             	lea    -0x2c(%eax),%edx
    35c3:	74 7b                	je     3640 <driver_connection_devman+0x420>
    35c5:	3b 7a 04             	cmp    0x4(%edx),%edi
    35c8:	75 ee                	jne    35b8 <driver_connection_devman+0x398>
    35ca:	8b 42 0c             	mov    0xc(%edx),%eax
    35cd:	f0 ff 40 04          	lock incl 0x4(%eax)
    35d1:	f0 ff 42 08          	lock incl 0x8(%edx)
    35d5:	83 ec 0c             	sub    $0xc,%esp
    35d8:	89 55 b4             	mov    %edx,-0x4c(%ebp)
    35db:	68 34 4b 01 00       	push   $0x14b34
    35e0:	e8 1b ed 00 00       	call   12300 <fibril_mutex_unlock@plt>
    35e5:	a1 e8 4d 01 00       	mov    0x14de8,%eax
    35ea:	83 c4 10             	add    $0x10,%esp
    35ed:	8b 40 04             	mov    0x4(%eax),%eax
    35f0:	8b 40 10             	mov    0x10(%eax),%eax
    35f3:	85 c0                	test   %eax,%eax
    35f5:	0f 84 a0 fd ff ff    	je     339b <driver_connection_devman+0x17b>
    35fb:	83 ec 0c             	sub    $0xc,%esp
    35fe:	8b 55 b4             	mov    -0x4c(%ebp),%edx
    3601:	52                   	push   %edx
    3602:	ff d0                	call   *%eax
    3604:	83 c4 10             	add    $0x10,%esp
    3607:	90                   	nop
    3608:	52                   	push   %edx
    3609:	52                   	push   %edx
    360a:	50                   	push   %eax
    360b:	53                   	push   %ebx
    360c:	e8 df eb 00 00       	call   121f0 <async_answer_0@plt>
    3611:	83 c4 10             	add    $0x10,%esp
    3614:	e9 27 fc ff ff       	jmp    3240 <driver_connection_devman+0x20>
    3619:	8d b4 26 00 00 00 00 	lea    0x0(%esi,%eiz,1),%esi
    3620:	50                   	push   %eax
    3621:	50                   	push   %eax
    3622:	6a f5                	push   $0xfffffff5
    3624:	53                   	push   %ebx
    3625:	e8 c6 eb 00 00       	call   121f0 <async_answer_0@plt>
    362a:	83 c4 10             	add    $0x10,%esp
    362d:	e9 0e fc ff ff       	jmp    3240 <driver_connection_devman+0x20>
    3632:	8d b6 00 00 00 00    	lea    0x0(%esi),%esi
    3638:	8d 65 f4             	lea    -0xc(%ebp),%esp
    363b:	5b                   	pop    %ebx
    363c:	5e                   	pop    %esi
    363d:	5f                   	pop    %edi
    363e:	5d                   	pop    %ebp
    363f:	c3                   	ret    
    3640:	83 ec 0c             	sub    $0xc,%esp
    3643:	68 34 4b 01 00       	push   $0x14b34
    3648:	e8 b3 ec 00 00       	call   12300 <fibril_mutex_unlock@plt>
    364d:	58                   	pop    %eax
    364e:	5a                   	pop    %edx
    364f:	6a ff                	push   $0xffffffff
    3651:	53                   	push   %ebx
    3652:	e8 99 eb 00 00       	call   121f0 <async_answer_0@plt>
    3657:	83 c4 10             	add    $0x10,%esp
    365a:	e9 e1 fb ff ff       	jmp    3240 <driver_connection_devman+0x20>
    365f:	90                   	nop
    3660:	83 ec 0c             	sub    $0xc,%esp
    3663:	68 4c 4b 01 00       	push   $0x14b4c
    3668:	eb de                	jmp    3648 <driver_connection_devman+0x428>
    366a:	8d b6 00 00 00 00    	lea    0x0(%esi),%esi
    3670:	bf f5 ff ff ff       	mov    $0xfffffff5,%edi
    3675:	e9 8e fc ff ff       	jmp    3308 <driver_connection_devman+0xe8>
    367a:	83 ec 0c             	sub    $0xc,%esp
    367d:	89 55 b4             	mov    %edx,-0x4c(%ebp)
    3680:	68 4c 4b 01 00       	push   $0x14b4c
    3685:	e8 16 f0 00 00       	call   126a0 <fibril_mutex_lock@plt>
    368a:	8b 55 b4             	mov    -0x4c(%ebp),%edx
    368d:	8b 0d 5c 4b 01 00    	mov    0x14b5c,%ecx
    3693:	8d 42 14             	lea    0x14(%edx),%eax
    3696:	c7 42 18 5c 4b 01 00 	movl   $0x14b5c,0x18(%edx)
    369d:	89 4a 14             	mov    %ecx,0x14(%edx)
    36a0:	89 41 04             	mov    %eax,0x4(%ecx)
    36a3:	a3 5c 4b 01 00       	mov    %eax,0x14b5c
    36a8:	c7 04 24 4c 4b 01 00 	movl   $0x14b4c,(%esp)
    36af:	e8 4c ec 00 00       	call   12300 <fibril_mutex_unlock@plt>
    36b4:	5f                   	pop    %edi
    36b5:	58                   	pop    %eax
    36b6:	6a 00                	push   $0x0
    36b8:	53                   	push   %ebx
    36b9:	e8 32 eb 00 00       	call   121f0 <async_answer_0@plt>
    36be:	83 c4 10             	add    $0x10,%esp
    36c1:	e9 7a fb ff ff       	jmp    3240 <driver_connection_devman+0x20>
    36c6:	83 ec 0c             	sub    $0xc,%esp
    36c9:	8b 4d c0             	mov    -0x40(%ebp),%ecx
    36cc:	51                   	push   %ecx
    36cd:	e8 ae ef 00 00       	call   12680 <free@plt>
    36d2:	5f                   	pop    %edi
    36d3:	58                   	pop    %eax
    36d4:	6a fe                	push   $0xfffffffe
    36d6:	53                   	push   %ebx
    36d7:	e8 14 eb 00 00       	call   121f0 <async_answer_0@plt>
    36dc:	83 c4 10             	add    $0x10,%esp
    36df:	e9 5c fb ff ff       	jmp    3240 <driver_connection_devman+0x20>
    36e4:	56                   	push   %esi
    36e5:	6a 5f                	push   $0x5f
    36e7:	68 6b ff 00 00       	push   $0xff6b
    36ec:	68 10 02 01 00       	push   $0x10210
    36f1:	e8 6a eb 00 00       	call   12260 <assert_abort@plt>
    36f6:	53                   	push   %ebx
    36f7:	6a 6b                	push   $0x6b
    36f9:	68 6b ff 00 00       	push   $0xff6b
    36fe:	68 c4 00 01 00       	push   $0x100c4
    3703:	e8 58 eb 00 00       	call   12260 <assert_abort@plt>
    3708:	90                   	nop
    3709:	8d b4 26 00 00 00 00 	lea    0x0(%esi,%eiz,1),%esi

00003710 <ddf_dev_data_alloc>:
    3710:	55                   	push   %ebp
    3711:	89 e5                	mov    %esp,%ebp
    3713:	53                   	push   %ebx
    3714:	53                   	push   %ebx
    3715:	8b 5d 08             	mov    0x8(%ebp),%ebx
    3718:	8b 43 10             	mov    0x10(%ebx),%eax
    371b:	85 c0                	test   %eax,%eax
    371d:	75 1c                	jne    373b <ddf_dev_data_alloc+0x2b>
    371f:	8b 55 0c             	mov    0xc(%ebp),%edx
    3722:	50                   	push   %eax
    3723:	50                   	push   %eax
    3724:	52                   	push   %edx
    3725:	6a 01                	push   $0x1
    3727:	e8 54 eb 00 00       	call   12280 <calloc@plt>
    372c:	83 c4 10             	add    $0x10,%esp
    372f:	85 c0                	test   %eax,%eax
    3731:	74 03                	je     3736 <ddf_dev_data_alloc+0x26>
    3733:	89 43 10             	mov    %eax,0x10(%ebx)
    3736:	8b 5d fc             	mov    -0x4(%ebp),%ebx
    3739:	c9                   	leave  
    373a:	c3                   	ret    
    373b:	51                   	push   %ecx
    373c:	68 39 02 00 00       	push   $0x239
    3741:	68 6b ff 00 00       	push   $0xff6b
    3746:	68 a6 ff 00 00       	push   $0xffa6
    374b:	e8 10 eb 00 00       	call   12260 <assert_abort@plt>

00003750 <ddf_dev_data_get>:
    3750:	55                   	push   %ebp
    3751:	89 e5                	mov    %esp,%ebp
    3753:	8b 45 08             	mov    0x8(%ebp),%eax
    3756:	5d                   	pop    %ebp
    3757:	8b 40 10             	mov    0x10(%eax),%eax
    375a:	c3                   	ret    
    375b:	90                   	nop
    375c:	8d 74 26 00          	lea    0x0(%esi,%eiz,1),%esi

00003760 <ddf_dev_get_handle>:
    3760:	55                   	push   %ebp
    3761:	89 e5                	mov    %esp,%ebp
    3763:	8b 45 08             	mov    0x8(%ebp),%eax
    3766:	5d                   	pop    %ebp
    3767:	8b 00                	mov    (%eax),%eax
    3769:	c3                   	ret    
    376a:	8d b6 00 00 00 00    	lea    0x0(%esi),%esi

00003770 <ddf_dev_get_name>:
    3770:	55                   	push   %ebp
    3771:	89 e5                	mov    %esp,%ebp
    3773:	8b 45 08             	mov    0x8(%ebp),%eax
    3776:	5d                   	pop    %ebp
    3777:	8b 40 0c             	mov    0xc(%eax),%eax
    377a:	c3                   	ret    
    377b:	90                   	nop
    377c:	8d 74 26 00          	lea    0x0(%esi,%eiz,1),%esi

00003780 <ddf_dev_parent_sess_create>:
    3780:	55                   	push   %ebp
    3781:	89 e5                	mov    %esp,%ebp
    3783:	53                   	push   %ebx
    3784:	53                   	push   %ebx
    3785:	8b 5d 08             	mov    0x8(%ebp),%ebx
    3788:	8b 43 08             	mov    0x8(%ebx),%eax
    378b:	85 c0                	test   %eax,%eax
    378d:	75 14                	jne    37a3 <ddf_dev_parent_sess_create+0x23>
    378f:	50                   	push   %eax
    3790:	50                   	push   %eax
    3791:	6a 01                	push   $0x1
    3793:	8b 13                	mov    (%ebx),%edx
    3795:	52                   	push   %edx
    3796:	e8 15 e9 00 00       	call   120b0 <devman_parent_device_connect@plt>
    379b:	89 43 08             	mov    %eax,0x8(%ebx)
    379e:	8b 5d fc             	mov    -0x4(%ebp),%ebx
    37a1:	c9                   	leave  
    37a2:	c3                   	ret    
    37a3:	51                   	push   %ecx
    37a4:	68 64 02 00 00       	push   $0x264
    37a9:	68 6b ff 00 00       	push   $0xff6b
    37ae:	68 bf ff 00 00       	push   $0xffbf
    37b3:	e8 a8 ea 00 00       	call   12260 <assert_abort@plt>
    37b8:	90                   	nop
    37b9:	8d b4 26 00 00 00 00 	lea    0x0(%esi,%eiz,1),%esi

000037c0 <ddf_dev_parent_sess_get>:
    37c0:	55                   	push   %ebp
    37c1:	89 e5                	mov    %esp,%ebp
    37c3:	8b 45 08             	mov    0x8(%ebp),%eax
    37c6:	5d                   	pop    %ebp
    37c7:	8b 40 08             	mov    0x8(%eax),%eax
    37ca:	c3                   	ret    
    37cb:	90                   	nop
    37cc:	8d 74 26 00          	lea    0x0(%esi,%eiz,1),%esi

000037d0 <ddf_fun_set_name>:
    37d0:	55                   	push   %ebp
    37d1:	89 e5                	mov    %esp,%ebp
    37d3:	53                   	push   %ebx
    37d4:	51                   	push   %ecx
    37d5:	8b 5d 08             	mov    0x8(%ebp),%ebx
    37d8:	8b 43 14             	mov    0x14(%ebx),%eax
    37db:	85 c0                	test   %eax,%eax
    37dd:	75 23                	jne    3802 <ddf_fun_set_name+0x32>
    37df:	83 ec 0c             	sub    $0xc,%esp
    37e2:	8b 45 0c             	mov    0xc(%ebp),%eax
    37e5:	50                   	push   %eax
    37e6:	e8 35 eb 00 00       	call   12320 <str_dup@plt>
    37eb:	83 c4 10             	add    $0x10,%esp
    37ee:	89 43 14             	mov    %eax,0x14(%ebx)
    37f1:	85 c0                	test   %eax,%eax
    37f3:	8b 5d fc             	mov    -0x4(%ebp),%ebx
    37f6:	0f 94 c0             	sete   %al
    37f9:	25 ff 00 00 00       	and    $0xff,%eax
    37fe:	c9                   	leave  
    37ff:	f7 d8                	neg    %eax
    3801:	c3                   	ret    
    3802:	52                   	push   %edx
    3803:	68 7d 02 00 00       	push   $0x27d
    3808:	68 6b ff 00 00       	push   $0xff6b
    380d:	68 d8 ff 00 00       	push   $0xffd8
    3812:	e8 49 ea 00 00       	call   12260 <assert_abort@plt>
    3817:	89 f6                	mov    %esi,%esi
    3819:	8d bc 27 00 00 00 00 	lea    0x0(%edi,%eiz,1),%edi

00003820 <ddf_fun_get_dev>:
    3820:	55                   	push   %ebp
    3821:	89 e5                	mov    %esp,%ebp
    3823:	8b 45 08             	mov    0x8(%ebp),%eax
    3826:	5d                   	pop    %ebp
    3827:	8b 40 0c             	mov    0xc(%eax),%eax
    382a:	c3                   	ret    
    382b:	90                   	nop
    382c:	8d 74 26 00          	lea    0x0(%esi,%eiz,1),%esi

00003830 <ddf_fun_get_handle>:
    3830:	55                   	push   %ebp
    3831:	89 e5                	mov    %esp,%ebp
    3833:	8b 45 08             	mov    0x8(%ebp),%eax
    3836:	5d                   	pop    %ebp
    3837:	8b 40 04             	mov    0x4(%eax),%eax
    383a:	c3                   	ret    
    383b:	90                   	nop
    383c:	8d 74 26 00          	lea    0x0(%esi,%eiz,1),%esi

00003840 <ddf_fun_create>:
    3840:	55                   	push   %ebp
    3841:	89 e5                	mov    %esp,%ebp
    3843:	57                   	push   %edi
    3844:	56                   	push   %esi
    3845:	53                   	push   %ebx
    3846:	83 ec 14             	sub    $0x14,%esp
    3849:	8b 75 08             	mov    0x8(%ebp),%esi
    384c:	6a 34                	push   $0x34
    384e:	6a 01                	push   $0x1
    3850:	e8 2b ea 00 00       	call   12280 <calloc@plt>
    3855:	83 c4 10             	add    $0x10,%esp
    3858:	89 c3                	mov    %eax,%ebx
    385a:	85 c0                	test   %eax,%eax
    385c:	74 48                	je     38a6 <ddf_fun_create+0x66>
    385e:	8d 78 18             	lea    0x18(%eax),%edi
    3861:	c7 40 2c 00 00 00 00 	movl   $0x0,0x2c(%eax)
    3868:	89 78 18             	mov    %edi,0x18(%eax)
    386b:	89 78 1c             	mov    %edi,0x1c(%eax)
    386e:	c7 40 30 00 00 00 00 	movl   $0x0,0x30(%eax)
    3875:	89 70 0c             	mov    %esi,0xc(%eax)
    3878:	f0 ff 46 04          	lock incl 0x4(%esi)
    387c:	f0 ff 40 08          	lock incl 0x8(%eax)
    3880:	c6 00 00             	movb   $0x0,(%eax)
    3883:	8b 55 10             	mov    0x10(%ebp),%edx
    3886:	8b 45 0c             	mov    0xc(%ebp),%eax
    3889:	85 d2                	test   %edx,%edx
    388b:	89 43 10             	mov    %eax,0x10(%ebx)
    388e:	74 16                	je     38a6 <ddf_fun_create+0x66>
    3890:	83 ec 0c             	sub    $0xc,%esp
    3893:	8b 45 10             	mov    0x10(%ebp),%eax
    3896:	50                   	push   %eax
    3897:	e8 84 ea 00 00       	call   12320 <str_dup@plt>
    389c:	83 c4 10             	add    $0x10,%esp
    389f:	89 43 14             	mov    %eax,0x14(%ebx)
    38a2:	85 c0                	test   %eax,%eax
    38a4:	74 0a                	je     38b0 <ddf_fun_create+0x70>
    38a6:	8d 65 f4             	lea    -0xc(%ebp),%esp
    38a9:	89 d8                	mov    %ebx,%eax
    38ab:	5b                   	pop    %ebx
    38ac:	5e                   	pop    %esi
    38ad:	5f                   	pop    %edi
    38ae:	5d                   	pop    %ebp
    38af:	c3                   	ret    
    38b0:	8b 73 1c             	mov    0x1c(%ebx),%esi
    38b3:	39 f7                	cmp    %esi,%edi
    38b5:	0f 84 85 00 00 00    	je     3940 <ddf_fun_create+0x100>
    38bb:	90                   	nop
    38bc:	8d 74 26 00          	lea    0x0(%esi,%eiz,1),%esi
    38c0:	8b 0e                	mov    (%esi),%ecx
    38c2:	85 c9                	test   %ecx,%ecx
    38c4:	74 0e                	je     38d4 <ddf_fun_create+0x94>
    38c6:	8b 46 04             	mov    0x4(%esi),%eax
    38c9:	85 c0                	test   %eax,%eax
    38cb:	74 07                	je     38d4 <ddf_fun_create+0x94>
    38cd:	89 08                	mov    %ecx,(%eax)
    38cf:	8b 0e                	mov    (%esi),%ecx
    38d1:	89 41 04             	mov    %eax,0x4(%ecx)
    38d4:	8b 46 08             	mov    0x8(%esi),%eax
    38d7:	c7 06 00 00 00 00    	movl   $0x0,(%esi)
    38dd:	c7 46 04 00 00 00 00 	movl   $0x0,0x4(%esi)
    38e4:	85 c0                	test   %eax,%eax
    38e6:	74 0c                	je     38f4 <ddf_fun_create+0xb4>
    38e8:	83 ec 0c             	sub    $0xc,%esp
    38eb:	50                   	push   %eax
    38ec:	e8 8f ed 00 00       	call   12680 <free@plt>
    38f1:	83 c4 10             	add    $0x10,%esp
    38f4:	83 ec 0c             	sub    $0xc,%esp
    38f7:	56                   	push   %esi
    38f8:	e8 83 ed 00 00       	call   12680 <free@plt>
    38fd:	8b 73 1c             	mov    0x1c(%ebx),%esi
    3900:	83 c4 10             	add    $0x10,%esp
    3903:	39 f7                	cmp    %esi,%edi
    3905:	75 b9                	jne    38c0 <ddf_fun_create+0x80>
    3907:	8b 43 20             	mov    0x20(%ebx),%eax
    390a:	85 c0                	test   %eax,%eax
    390c:	74 0c                	je     391a <ddf_fun_create+0xda>
    390e:	83 ec 0c             	sub    $0xc,%esp
    3911:	50                   	push   %eax
    3912:	e8 69 ed 00 00       	call   12680 <free@plt>
    3917:	83 c4 10             	add    $0x10,%esp
    391a:	8b 43 14             	mov    0x14(%ebx),%eax
    391d:	85 c0                	test   %eax,%eax
    391f:	74 0c                	je     392d <ddf_fun_create+0xed>
    3921:	83 ec 0c             	sub    $0xc,%esp
    3924:	50                   	push   %eax
    3925:	e8 56 ed 00 00       	call   12680 <free@plt>
    392a:	83 c4 10             	add    $0x10,%esp
    392d:	83 ec 0c             	sub    $0xc,%esp
    3930:	53                   	push   %ebx
    3931:	31 db                	xor    %ebx,%ebx
    3933:	e8 48 ed 00 00       	call   12680 <free@plt>
    3938:	83 c4 10             	add    $0x10,%esp
    393b:	e9 66 ff ff ff       	jmp    38a6 <ddf_fun_create+0x66>
    3940:	8b 43 20             	mov    0x20(%ebx),%eax
    3943:	85 c0                	test   %eax,%eax
    3945:	75 c7                	jne    390e <ddf_fun_create+0xce>
    3947:	eb e4                	jmp    392d <ddf_fun_create+0xed>
    3949:	8d b4 26 00 00 00 00 	lea    0x0(%esi,%eiz,1),%esi

00003950 <ddf_fun_data_alloc>:
    3950:	55                   	push   %ebp
    3951:	89 e5                	mov    %esp,%ebp
    3953:	53                   	push   %ebx
    3954:	50                   	push   %eax
    3955:	8b 5d 08             	mov    0x8(%ebp),%ebx
    3958:	80 3b 00             	cmpb   $0x0,(%ebx)
    395b:	75 23                	jne    3980 <ddf_fun_data_alloc+0x30>
    395d:	8b 43 20             	mov    0x20(%ebx),%eax
    3960:	85 c0                	test   %eax,%eax
    3962:	75 31                	jne    3995 <ddf_fun_data_alloc+0x45>
    3964:	8b 55 0c             	mov    0xc(%ebp),%edx
    3967:	50                   	push   %eax
    3968:	50                   	push   %eax
    3969:	52                   	push   %edx
    396a:	6a 01                	push   $0x1
    396c:	e8 0f e9 00 00       	call   12280 <calloc@plt>
    3971:	83 c4 10             	add    $0x10,%esp
    3974:	85 c0                	test   %eax,%eax
    3976:	74 03                	je     397b <ddf_fun_data_alloc+0x2b>
    3978:	89 43 20             	mov    %eax,0x20(%ebx)
    397b:	8b 5d fc             	mov    -0x4(%ebp),%ebx
    397e:	c9                   	leave  
    397f:	c3                   	ret    
    3980:	50                   	push   %eax
    3981:	68 c9 02 00 00       	push   $0x2c9
    3986:	68 6b ff 00 00       	push   $0xff6b
    398b:	68 ea ff 00 00       	push   $0xffea
    3990:	e8 cb e8 00 00       	call   12260 <assert_abort@plt>
    3995:	51                   	push   %ecx
    3996:	68 ca 02 00 00       	push   $0x2ca
    399b:	68 6b ff 00 00       	push   $0xff6b
    39a0:	68 fe ff 00 00       	push   $0xfffe
    39a5:	e8 b6 e8 00 00       	call   12260 <assert_abort@plt>
    39aa:	8d b6 00 00 00 00    	lea    0x0(%esi),%esi

000039b0 <ddf_fun_data_get>:
    39b0:	55                   	push   %ebp
    39b1:	89 e5                	mov    %esp,%ebp
    39b3:	8b 45 08             	mov    0x8(%ebp),%eax
    39b6:	5d                   	pop    %ebp
    39b7:	8b 40 20             	mov    0x20(%eax),%eax
    39ba:	c3                   	ret    
    39bb:	90                   	nop
    39bc:	8d 74 26 00          	lea    0x0(%esi,%eiz,1),%esi

000039c0 <ddf_fun_get_name>:
    39c0:	55                   	push   %ebp
    39c1:	89 e5                	mov    %esp,%ebp
    39c3:	8b 45 08             	mov    0x8(%ebp),%eax
    39c6:	5d                   	pop    %ebp
    39c7:	8b 40 14             	mov    0x14(%eax),%eax
    39ca:	c3                   	ret    
    39cb:	90                   	nop
    39cc:	8d 74 26 00          	lea    0x0(%esi,%eiz,1),%esi

000039d0 <ddf_fun_destroy>:
    39d0:	55                   	push   %ebp
    39d1:	89 e5                	mov    %esp,%ebp
    39d3:	57                   	push   %edi
    39d4:	56                   	push   %esi
    39d5:	53                   	push   %ebx
    39d6:	83 ec 1c             	sub    $0x1c,%esp
    39d9:	8b 7d 08             	mov    0x8(%ebp),%edi
    39dc:	80 3f 00             	cmpb   $0x0,(%edi)
    39df:	0f 85 fa 00 00 00    	jne    3adf <ddf_fun_destroy+0x10f>
    39e5:	8b 77 0c             	mov    0xc(%edi),%esi
    39e8:	83 ca ff             	or     $0xffffffff,%edx
    39eb:	f0 0f c1 57 08       	lock xadd %edx,0x8(%edi)
    39f0:	4a                   	dec    %edx
    39f1:	74 5d                	je     3a50 <ddf_fun_destroy+0x80>
    39f3:	83 c8 ff             	or     $0xffffffff,%eax
    39f6:	f0 0f c1 46 04       	lock xadd %eax,0x4(%esi)
    39fb:	48                   	dec    %eax
    39fc:	74 0a                	je     3a08 <ddf_fun_destroy+0x38>
    39fe:	8d 65 f4             	lea    -0xc(%ebp),%esp
    3a01:	5b                   	pop    %ebx
    3a02:	5e                   	pop    %esi
    3a03:	5f                   	pop    %edi
    3a04:	5d                   	pop    %ebp
    3a05:	c3                   	ret    
    3a06:	66 90                	xchg   %ax,%ax
    3a08:	8b 46 08             	mov    0x8(%esi),%eax
    3a0b:	85 c0                	test   %eax,%eax
    3a0d:	74 0c                	je     3a1b <ddf_fun_destroy+0x4b>
    3a0f:	83 ec 0c             	sub    $0xc,%esp
    3a12:	50                   	push   %eax
    3a13:	e8 58 e6 00 00       	call   12070 <async_hangup@plt>
    3a18:	83 c4 10             	add    $0x10,%esp
    3a1b:	8b 46 10             	mov    0x10(%esi),%eax
    3a1e:	85 c0                	test   %eax,%eax
    3a20:	74 0c                	je     3a2e <ddf_fun_destroy+0x5e>
    3a22:	83 ec 0c             	sub    $0xc,%esp
    3a25:	50                   	push   %eax
    3a26:	e8 55 ec 00 00       	call   12680 <free@plt>
    3a2b:	83 c4 10             	add    $0x10,%esp
    3a2e:	8b 46 0c             	mov    0xc(%esi),%eax
    3a31:	85 c0                	test   %eax,%eax
    3a33:	74 0c                	je     3a41 <ddf_fun_destroy+0x71>
    3a35:	83 ec 0c             	sub    $0xc,%esp
    3a38:	50                   	push   %eax
    3a39:	e8 42 ec 00 00       	call   12680 <free@plt>
    3a3e:	83 c4 10             	add    $0x10,%esp
    3a41:	89 75 08             	mov    %esi,0x8(%ebp)
    3a44:	8d 65 f4             	lea    -0xc(%ebp),%esp
    3a47:	5b                   	pop    %ebx
    3a48:	5e                   	pop    %esi
    3a49:	5f                   	pop    %edi
    3a4a:	5d                   	pop    %ebp
    3a4b:	e9 30 ec 00 00       	jmp    12680 <free@plt>
    3a50:	8d 47 18             	lea    0x18(%edi),%eax
    3a53:	8b 5f 1c             	mov    0x1c(%edi),%ebx
    3a56:	89 45 e4             	mov    %eax,-0x1c(%ebp)
    3a59:	39 d8                	cmp    %ebx,%eax
    3a5b:	74 4b                	je     3aa8 <ddf_fun_destroy+0xd8>
    3a5d:	8d 76 00             	lea    0x0(%esi),%esi
    3a60:	8b 0b                	mov    (%ebx),%ecx
    3a62:	85 c9                	test   %ecx,%ecx
    3a64:	74 0e                	je     3a74 <ddf_fun_destroy+0xa4>
    3a66:	8b 53 04             	mov    0x4(%ebx),%edx
    3a69:	85 d2                	test   %edx,%edx
    3a6b:	74 07                	je     3a74 <ddf_fun_destroy+0xa4>
    3a6d:	89 0a                	mov    %ecx,(%edx)
    3a6f:	8b 0b                	mov    (%ebx),%ecx
    3a71:	89 51 04             	mov    %edx,0x4(%ecx)
    3a74:	8b 53 08             	mov    0x8(%ebx),%edx
    3a77:	c7 03 00 00 00 00    	movl   $0x0,(%ebx)
    3a7d:	c7 43 04 00 00 00 00 	movl   $0x0,0x4(%ebx)
    3a84:	85 d2                	test   %edx,%edx
    3a86:	74 0c                	je     3a94 <ddf_fun_destroy+0xc4>
    3a88:	83 ec 0c             	sub    $0xc,%esp
    3a8b:	52                   	push   %edx
    3a8c:	e8 ef eb 00 00       	call   12680 <free@plt>
    3a91:	83 c4 10             	add    $0x10,%esp
    3a94:	83 ec 0c             	sub    $0xc,%esp
    3a97:	53                   	push   %ebx
    3a98:	e8 e3 eb 00 00       	call   12680 <free@plt>
    3a9d:	8b 5f 1c             	mov    0x1c(%edi),%ebx
    3aa0:	83 c4 10             	add    $0x10,%esp
    3aa3:	3b 5d e4             	cmp    -0x1c(%ebp),%ebx
    3aa6:	75 b8                	jne    3a60 <ddf_fun_destroy+0x90>
    3aa8:	8b 57 20             	mov    0x20(%edi),%edx
    3aab:	85 d2                	test   %edx,%edx
    3aad:	74 0c                	je     3abb <ddf_fun_destroy+0xeb>
    3aaf:	83 ec 0c             	sub    $0xc,%esp
    3ab2:	52                   	push   %edx
    3ab3:	e8 c8 eb 00 00       	call   12680 <free@plt>
    3ab8:	83 c4 10             	add    $0x10,%esp
    3abb:	8b 57 14             	mov    0x14(%edi),%edx
    3abe:	85 d2                	test   %edx,%edx
    3ac0:	74 0c                	je     3ace <ddf_fun_destroy+0xfe>
    3ac2:	83 ec 0c             	sub    $0xc,%esp
    3ac5:	52                   	push   %edx
    3ac6:	e8 b5 eb 00 00       	call   12680 <free@plt>
    3acb:	83 c4 10             	add    $0x10,%esp
    3ace:	83 ec 0c             	sub    $0xc,%esp
    3ad1:	57                   	push   %edi
    3ad2:	e8 a9 eb 00 00       	call   12680 <free@plt>
    3ad7:	83 c4 10             	add    $0x10,%esp
    3ada:	e9 14 ff ff ff       	jmp    39f3 <ddf_fun_destroy+0x23>
    3adf:	50                   	push   %eax
    3ae0:	68 ee 02 00 00       	push   $0x2ee
    3ae5:	68 6b ff 00 00       	push   $0xff6b
    3aea:	68 ea ff 00 00       	push   $0xffea
    3aef:	e8 6c e7 00 00       	call   12260 <assert_abort@plt>
    3af4:	8d b6 00 00 00 00    	lea    0x0(%esi),%esi
    3afa:	8d bf 00 00 00 00    	lea    0x0(%edi),%edi

00003b00 <ddf_fun_bind>:
    3b00:	55                   	push   %ebp
    3b01:	89 e5                	mov    %esp,%ebp
    3b03:	53                   	push   %ebx
    3b04:	83 ec 14             	sub    $0x14,%esp
    3b07:	8b 5d 08             	mov    0x8(%ebp),%ebx
    3b0a:	80 3b 00             	cmpb   $0x0,(%ebx)
    3b0d:	0f 85 d2 00 00 00    	jne    3be5 <ddf_fun_bind+0xe5>
    3b13:	8b 43 14             	mov    0x14(%ebx),%eax
    3b16:	85 c0                	test   %eax,%eax
    3b18:	0f 84 f1 00 00 00    	je     3c0f <ddf_fun_bind+0x10f>
    3b1e:	8b 43 0c             	mov    0xc(%ebx),%eax
    3b21:	85 c0                	test   %eax,%eax
    3b23:	0f 84 d1 00 00 00    	je     3bfa <ddf_fun_bind+0xfa>
    3b29:	83 ec 0c             	sub    $0xc,%esp
    3b2c:	68 34 4b 01 00       	push   $0x14b34
    3b31:	e8 6a eb 00 00       	call   126a0 <fibril_mutex_lock@plt>
    3b36:	8b 15 44 4b 01 00    	mov    0x14b44,%edx
    3b3c:	8d 43 2c             	lea    0x2c(%ebx),%eax
    3b3f:	89 53 2c             	mov    %edx,0x2c(%ebx)
    3b42:	c7 43 30 44 4b 01 00 	movl   $0x14b44,0x30(%ebx)
    3b49:	89 42 04             	mov    %eax,0x4(%edx)
    3b4c:	a3 44 4b 01 00       	mov    %eax,0x14b44
    3b51:	c7 04 24 34 4b 01 00 	movl   $0x14b34,(%esp)
    3b58:	e8 a3 e7 00 00       	call   12300 <fibril_mutex_unlock@plt>
    3b5d:	8d 43 04             	lea    0x4(%ebx),%eax
    3b60:	8b 53 10             	mov    0x10(%ebx),%edx
    3b63:	89 04 24             	mov    %eax,(%esp)
    3b66:	8b 43 0c             	mov    0xc(%ebx),%eax
    3b69:	8b 4b 14             	mov    0x14(%ebx),%ecx
    3b6c:	8b 00                	mov    (%eax),%eax
    3b6e:	50                   	push   %eax
    3b6f:	8d 43 18             	lea    0x18(%ebx),%eax
    3b72:	50                   	push   %eax
    3b73:	52                   	push   %edx
    3b74:	51                   	push   %ecx
    3b75:	e8 b6 e6 00 00       	call   12230 <devman_add_function@plt>
    3b7a:	83 c4 20             	add    $0x20,%esp
    3b7d:	85 c0                	test   %eax,%eax
    3b7f:	75 0f                	jne    3b90 <ddf_fun_bind+0x90>
    3b81:	c6 03 01             	movb   $0x1,(%ebx)
    3b84:	8b 5d fc             	mov    -0x4(%ebp),%ebx
    3b87:	c9                   	leave  
    3b88:	c3                   	ret    
    3b89:	8d b4 26 00 00 00 00 	lea    0x0(%esi,%eiz,1),%esi
    3b90:	83 ec 0c             	sub    $0xc,%esp
    3b93:	89 45 f4             	mov    %eax,-0xc(%ebp)
    3b96:	68 34 4b 01 00       	push   $0x14b34
    3b9b:	e8 00 eb 00 00       	call   126a0 <fibril_mutex_lock@plt>
    3ba0:	8b 4b 2c             	mov    0x2c(%ebx),%ecx
    3ba3:	83 c4 10             	add    $0x10,%esp
    3ba6:	8b 45 f4             	mov    -0xc(%ebp),%eax
    3ba9:	85 c9                	test   %ecx,%ecx
    3bab:	74 0f                	je     3bbc <ddf_fun_bind+0xbc>
    3bad:	8b 53 30             	mov    0x30(%ebx),%edx
    3bb0:	85 d2                	test   %edx,%edx
    3bb2:	74 08                	je     3bbc <ddf_fun_bind+0xbc>
    3bb4:	89 0a                	mov    %ecx,(%edx)
    3bb6:	8b 4b 2c             	mov    0x2c(%ebx),%ecx
    3bb9:	89 51 04             	mov    %edx,0x4(%ecx)
    3bbc:	83 ec 0c             	sub    $0xc,%esp
    3bbf:	c7 43 2c 00 00 00 00 	movl   $0x0,0x2c(%ebx)
    3bc6:	c7 43 30 00 00 00 00 	movl   $0x0,0x30(%ebx)
    3bcd:	89 45 f4             	mov    %eax,-0xc(%ebp)
    3bd0:	68 34 4b 01 00       	push   $0x14b34
    3bd5:	e8 26 e7 00 00       	call   12300 <fibril_mutex_unlock@plt>
    3bda:	8b 45 f4             	mov    -0xc(%ebp),%eax
    3bdd:	83 c4 10             	add    $0x10,%esp
    3be0:	8b 5d fc             	mov    -0x4(%ebp),%ebx
    3be3:	c9                   	leave  
    3be4:	c3                   	ret    
    3be5:	50                   	push   %eax
    3be6:	68 12 03 00 00       	push   $0x312
    3beb:	68 6b ff 00 00       	push   $0xff6b
    3bf0:	68 ea ff 00 00       	push   $0xffea
    3bf5:	e8 66 e6 00 00       	call   12260 <assert_abort@plt>
    3bfa:	53                   	push   %ebx
    3bfb:	68 14 03 00 00       	push   $0x314
    3c00:	68 6b ff 00 00       	push   $0xff6b
    3c05:	68 29 00 01 00       	push   $0x10029
    3c0a:	e8 51 e6 00 00       	call   12260 <assert_abort@plt>
    3c0f:	50                   	push   %eax
    3c10:	68 13 03 00 00       	push   $0x313
    3c15:	68 6b ff 00 00       	push   $0xff6b
    3c1a:	68 17 00 01 00       	push   $0x10017
    3c1f:	e8 3c e6 00 00       	call   12260 <assert_abort@plt>
    3c24:	8d b6 00 00 00 00    	lea    0x0(%esi),%esi
    3c2a:	8d bf 00 00 00 00    	lea    0x0(%edi),%edi

00003c30 <ddf_fun_unbind>:
    3c30:	55                   	push   %ebp
    3c31:	89 e5                	mov    %esp,%ebp
    3c33:	53                   	push   %ebx
    3c34:	83 ec 14             	sub    $0x14,%esp
    3c37:	8b 5d 08             	mov    0x8(%ebp),%ebx
    3c3a:	80 3b 00             	cmpb   $0x0,(%ebx)
    3c3d:	74 71                	je     3cb0 <ddf_fun_unbind+0x80>
    3c3f:	83 ec 0c             	sub    $0xc,%esp
    3c42:	8b 43 04             	mov    0x4(%ebx),%eax
    3c45:	50                   	push   %eax
    3c46:	e8 65 e6 00 00       	call   122b0 <devman_remove_function@plt>
    3c4b:	83 c4 10             	add    $0x10,%esp
    3c4e:	85 c0                	test   %eax,%eax
    3c50:	74 06                	je     3c58 <ddf_fun_unbind+0x28>
    3c52:	8b 5d fc             	mov    -0x4(%ebp),%ebx
    3c55:	c9                   	leave  
    3c56:	c3                   	ret    
    3c57:	90                   	nop
    3c58:	83 ec 0c             	sub    $0xc,%esp
    3c5b:	89 45 f4             	mov    %eax,-0xc(%ebp)
    3c5e:	68 34 4b 01 00       	push   $0x14b34
    3c63:	e8 38 ea 00 00       	call   126a0 <fibril_mutex_lock@plt>
    3c68:	8b 4b 2c             	mov    0x2c(%ebx),%ecx
    3c6b:	83 c4 10             	add    $0x10,%esp
    3c6e:	8b 45 f4             	mov    -0xc(%ebp),%eax
    3c71:	85 c9                	test   %ecx,%ecx
    3c73:	74 0f                	je     3c84 <ddf_fun_unbind+0x54>
    3c75:	8b 53 30             	mov    0x30(%ebx),%edx
    3c78:	85 d2                	test   %edx,%edx
    3c7a:	74 08                	je     3c84 <ddf_fun_unbind+0x54>
    3c7c:	89 0a                	mov    %ecx,(%edx)
    3c7e:	8b 4b 2c             	mov    0x2c(%ebx),%ecx
    3c81:	89 51 04             	mov    %edx,0x4(%ecx)
    3c84:	83 ec 0c             	sub    $0xc,%esp
    3c87:	c7 43 2c 00 00 00 00 	movl   $0x0,0x2c(%ebx)
    3c8e:	c7 43 30 00 00 00 00 	movl   $0x0,0x30(%ebx)
    3c95:	89 45 f4             	mov    %eax,-0xc(%ebp)
    3c98:	68 34 4b 01 00       	push   $0x14b34
    3c9d:	e8 5e e6 00 00       	call   12300 <fibril_mutex_unlock@plt>
    3ca2:	c6 03 00             	movb   $0x0,(%ebx)
    3ca5:	8b 45 f4             	mov    -0xc(%ebp),%eax
    3ca8:	83 c4 10             	add    $0x10,%esp
    3cab:	8b 5d fc             	mov    -0x4(%ebp),%ebx
    3cae:	c9                   	leave  
    3caf:	c3                   	ret    
    3cb0:	52                   	push   %edx
    3cb1:	68 2e 03 00 00       	push   $0x32e
    3cb6:	68 6b ff 00 00       	push   $0xff6b
    3cbb:	68 3a 00 01 00       	push   $0x1003a
    3cc0:	e8 9b e5 00 00       	call   12260 <assert_abort@plt>
    3cc5:	8d 74 26 00          	lea    0x0(%esi,%eiz,1),%esi
    3cc9:	8d bc 27 00 00 00 00 	lea    0x0(%edi,%eiz,1),%edi

00003cd0 <ddf_fun_online>:
    3cd0:	55                   	push   %ebp
    3cd1:	89 e5                	mov    %esp,%ebp
    3cd3:	83 ec 08             	sub    $0x8,%esp
    3cd6:	8b 45 08             	mov    0x8(%ebp),%eax
    3cd9:	80 38 00             	cmpb   $0x0,(%eax)
    3cdc:	74 0c                	je     3cea <ddf_fun_online+0x1a>
    3cde:	8b 40 04             	mov    0x4(%eax),%eax
    3ce1:	89 45 08             	mov    %eax,0x8(%ebp)
    3ce4:	c9                   	leave  
    3ce5:	e9 46 e4 00 00       	jmp    12130 <devman_drv_fun_online@plt>
    3cea:	50                   	push   %eax
    3ceb:	68 43 03 00 00       	push   $0x343
    3cf0:	68 6b ff 00 00       	push   $0xff6b
    3cf5:	68 3a 00 01 00       	push   $0x1003a
    3cfa:	e8 61 e5 00 00       	call   12260 <assert_abort@plt>
    3cff:	90                   	nop

00003d00 <ddf_fun_offline>:
    3d00:	55                   	push   %ebp
    3d01:	89 e5                	mov    %esp,%ebp
    3d03:	83 ec 08             	sub    $0x8,%esp
    3d06:	8b 45 08             	mov    0x8(%ebp),%eax
    3d09:	80 38 00             	cmpb   $0x0,(%eax)
    3d0c:	74 0c                	je     3d1a <ddf_fun_offline+0x1a>
    3d0e:	8b 40 04             	mov    0x4(%eax),%eax
    3d11:	89 45 08             	mov    %eax,0x8(%ebp)
    3d14:	c9                   	leave  
    3d15:	e9 76 e6 00 00       	jmp    12390 <devman_drv_fun_offline@plt>
    3d1a:	50                   	push   %eax
    3d1b:	68 55 03 00 00       	push   $0x355
    3d20:	68 6b ff 00 00       	push   $0xff6b
    3d25:	68 3a 00 01 00       	push   $0x1003a
    3d2a:	e8 31 e5 00 00       	call   12260 <assert_abort@plt>
    3d2f:	90                   	nop

00003d30 <ddf_fun_add_match_id>:
    3d30:	55                   	push   %ebp
    3d31:	89 e5                	mov    %esp,%ebp
    3d33:	57                   	push   %edi
    3d34:	56                   	push   %esi
    3d35:	53                   	push   %ebx
    3d36:	83 ec 0c             	sub    $0xc,%esp
    3d39:	8b 5d 08             	mov    0x8(%ebp),%ebx
    3d3c:	8b 75 10             	mov    0x10(%ebp),%esi
    3d3f:	80 3b 00             	cmpb   $0x0,(%ebx)
    3d42:	0f 85 89 00 00 00    	jne    3dd1 <ddf_fun_add_match_id+0xa1>
    3d48:	83 7b 10 01          	cmpl   $0x1,0x10(%ebx)
    3d4c:	75 6e                	jne    3dbc <ddf_fun_add_match_id+0x8c>
    3d4e:	83 ec 0c             	sub    $0xc,%esp
    3d51:	6a 10                	push   $0x10
    3d53:	e8 48 e4 00 00       	call   121a0 <malloc@plt>
    3d58:	83 c4 0c             	add    $0xc,%esp
    3d5b:	89 c7                	mov    %eax,%edi
    3d5d:	6a 10                	push   $0x10
    3d5f:	6a 00                	push   $0x0
    3d61:	50                   	push   %eax
    3d62:	e8 b9 e6 00 00       	call   12420 <memset@plt>
    3d67:	8b 55 0c             	mov    0xc(%ebp),%edx
    3d6a:	58                   	pop    %eax
    3d6b:	52                   	push   %edx
    3d6c:	e8 af e5 00 00       	call   12320 <str_dup@plt>
    3d71:	8d 53 18             	lea    0x18(%ebx),%edx
    3d74:	89 47 08             	mov    %eax,0x8(%edi)
    3d77:	8b 43 1c             	mov    0x1c(%ebx),%eax
    3d7a:	83 c4 10             	add    $0x10,%esp
    3d7d:	89 77 0c             	mov    %esi,0xc(%edi)
    3d80:	39 c2                	cmp    %eax,%edx
    3d82:	74 18                	je     3d9c <ddf_fun_add_match_id+0x6c>
    3d84:	39 70 0c             	cmp    %esi,0xc(%eax)
    3d87:	73 0c                	jae    3d95 <ddf_fun_add_match_id+0x65>
    3d89:	eb 2d                	jmp    3db8 <ddf_fun_add_match_id+0x88>
    3d8b:	90                   	nop
    3d8c:	8d 74 26 00          	lea    0x0(%esi,%eiz,1),%esi
    3d90:	3b 70 0c             	cmp    0xc(%eax),%esi
    3d93:	77 23                	ja     3db8 <ddf_fun_add_match_id+0x88>
    3d95:	8b 40 04             	mov    0x4(%eax),%eax
    3d98:	39 c2                	cmp    %eax,%edx
    3d9a:	75 f4                	jne    3d90 <ddf_fun_add_match_id+0x60>
    3d9c:	8b 02                	mov    (%edx),%eax
    3d9e:	89 57 04             	mov    %edx,0x4(%edi)
    3da1:	89 07                	mov    %eax,(%edi)
    3da3:	8b 02                	mov    (%edx),%eax
    3da5:	89 78 04             	mov    %edi,0x4(%eax)
    3da8:	89 3a                	mov    %edi,(%edx)
    3daa:	8d 65 f4             	lea    -0xc(%ebp),%esp
    3dad:	31 c0                	xor    %eax,%eax
    3daf:	5b                   	pop    %ebx
    3db0:	5e                   	pop    %esi
    3db1:	5f                   	pop    %edi
    3db2:	5d                   	pop    %ebp
    3db3:	c3                   	ret    
    3db4:	8d 74 26 00          	lea    0x0(%esi,%eiz,1),%esi
    3db8:	89 c2                	mov    %eax,%edx
    3dba:	eb e0                	jmp    3d9c <ddf_fun_add_match_id+0x6c>
    3dbc:	51                   	push   %ecx
    3dbd:	68 6f 03 00 00       	push   $0x36f
    3dc2:	68 6b ff 00 00       	push   $0xff6b
    3dc7:	68 4d 00 01 00       	push   $0x1004d
    3dcc:	e8 8f e4 00 00       	call   12260 <assert_abort@plt>
    3dd1:	53                   	push   %ebx
    3dd2:	68 6e 03 00 00       	push   $0x36e
    3dd7:	68 6b ff 00 00       	push   $0xff6b
    3ddc:	68 ea ff 00 00       	push   $0xffea
    3de1:	e8 7a e4 00 00       	call   12260 <assert_abort@plt>
    3de6:	8d 76 00             	lea    0x0(%esi),%esi
    3de9:	8d bc 27 00 00 00 00 	lea    0x0(%edi,%eiz,1),%edi

00003df0 <ddf_fun_set_ops>:
    3df0:	55                   	push   %ebp
    3df1:	89 e5                	mov    %esp,%ebp
    3df3:	83 ec 08             	sub    $0x8,%esp
    3df6:	8b 45 08             	mov    0x8(%ebp),%eax
    3df9:	8b 48 28             	mov    0x28(%eax),%ecx
    3dfc:	85 c9                	test   %ecx,%ecx
    3dfe:	75 08                	jne    3e08 <ddf_fun_set_ops+0x18>
    3e00:	8b 55 0c             	mov    0xc(%ebp),%edx
    3e03:	89 50 24             	mov    %edx,0x24(%eax)
    3e06:	c9                   	leave  
    3e07:	c3                   	ret    
    3e08:	50                   	push   %eax
    3e09:	68 7f 03 00 00       	push   $0x37f
    3e0e:	68 6b ff 00 00       	push   $0xff6b
    3e13:	68 65 00 01 00       	push   $0x10065
    3e18:	e8 43 e4 00 00       	call   12260 <assert_abort@plt>
    3e1d:	8d 76 00             	lea    0x0(%esi),%esi

00003e20 <ddf_fun_set_conn_handler>:
    3e20:	55                   	push   %ebp
    3e21:	89 e5                	mov    %esp,%ebp
    3e23:	83 ec 08             	sub    $0x8,%esp
    3e26:	8b 45 08             	mov    0x8(%ebp),%eax
    3e29:	8b 48 24             	mov    0x24(%eax),%ecx
    3e2c:	85 c9                	test   %ecx,%ecx
    3e2e:	75 08                	jne    3e38 <ddf_fun_set_conn_handler+0x18>
    3e30:	8b 55 0c             	mov    0xc(%ebp),%edx
    3e33:	89 50 28             	mov    %edx,0x28(%eax)
    3e36:	c9                   	leave  
    3e37:	c3                   	ret    
    3e38:	50                   	push   %eax
    3e39:	68 89 03 00 00       	push   $0x389
    3e3e:	68 6b ff 00 00       	push   $0xff6b
    3e43:	68 7f 00 01 00       	push   $0x1007f
    3e48:	e8 13 e4 00 00       	call   12260 <assert_abort@plt>
    3e4d:	8d 76 00             	lea    0x0(%esi),%esi

00003e50 <ddf_fun_add_to_category>:
    3e50:	55                   	push   %ebp
    3e51:	89 e5                	mov    %esp,%ebp
    3e53:	83 ec 08             	sub    $0x8,%esp
    3e56:	8b 45 08             	mov    0x8(%ebp),%eax
    3e59:	8b 55 0c             	mov    0xc(%ebp),%edx
    3e5c:	80 38 00             	cmpb   $0x0,(%eax)
    3e5f:	74 15                	je     3e76 <ddf_fun_add_to_category+0x26>
    3e61:	83 78 10 02          	cmpl   $0x2,0x10(%eax)
    3e65:	75 24                	jne    3e8b <ddf_fun_add_to_category+0x3b>
    3e67:	89 55 0c             	mov    %edx,0xc(%ebp)
    3e6a:	8b 40 04             	mov    0x4(%eax),%eax
    3e6d:	89 45 08             	mov    %eax,0x8(%ebp)
    3e70:	c9                   	leave  
    3e71:	e9 3a e3 00 00       	jmp    121b0 <devman_add_device_to_category@plt>
    3e76:	52                   	push   %edx
    3e77:	68 9c 03 00 00       	push   $0x39c
    3e7c:	68 6b ff 00 00       	push   $0xff6b
    3e81:	68 3a 00 01 00       	push   $0x1003a
    3e86:	e8 d5 e3 00 00       	call   12260 <assert_abort@plt>
    3e8b:	50                   	push   %eax
    3e8c:	68 9d 03 00 00       	push   $0x39d
    3e91:	68 6b ff 00 00       	push   $0xff6b
    3e96:	68 90 00 01 00       	push   $0x10090
    3e9b:	e8 c0 e3 00 00       	call   12260 <assert_abort@plt>

00003ea0 <ddf_driver_main>:
    3ea0:	55                   	push   %ebp
    3ea1:	89 e5                	mov    %esp,%ebp
    3ea3:	56                   	push   %esi
    3ea4:	53                   	push   %ebx
    3ea5:	83 ec 10             	sub    $0x10,%esp
    3ea8:	8d 75 f4             	lea    -0xc(%ebp),%esi
    3eab:	8b 45 08             	mov    0x8(%ebp),%eax
    3eae:	56                   	push   %esi
    3eaf:	a3 e8 4d 01 00       	mov    %eax,0x14de8
    3eb4:	6a 00                	push   $0x0
    3eb6:	68 00 32 00 00       	push   $0x3200
    3ebb:	68 41 26 9b c9       	push   $0xc99b2641
    3ec0:	e8 9b e6 00 00       	call   12560 <async_create_port@plt>
    3ec5:	83 c4 10             	add    $0x10,%esp
    3ec8:	89 c3                	mov    %eax,%ebx
    3eca:	85 c0                	test   %eax,%eax
    3ecc:	74 0a                	je     3ed8 <ddf_driver_main+0x38>
    3ece:	8d 65 f8             	lea    -0x8(%ebp),%esp
    3ed1:	89 d8                	mov    %ebx,%eax
    3ed3:	5b                   	pop    %ebx
    3ed4:	5e                   	pop    %esi
    3ed5:	5d                   	pop    %ebp
    3ed6:	c3                   	ret    
    3ed7:	90                   	nop
    3ed8:	56                   	push   %esi
    3ed9:	6a 00                	push   $0x0
    3edb:	68 20 32 00 00       	push   $0x3220
    3ee0:	68 41 26 9b db       	push   $0xdb9b2641
    3ee5:	e8 76 e6 00 00       	call   12560 <async_create_port@plt>
    3eea:	83 c4 10             	add    $0x10,%esp
    3eed:	89 c3                	mov    %eax,%ebx
    3eef:	85 c0                	test   %eax,%eax
    3ef1:	75 db                	jne    3ece <ddf_driver_main+0x2e>
    3ef3:	51                   	push   %ecx
    3ef4:	51                   	push   %ecx
    3ef5:	6a 00                	push   $0x0
    3ef7:	68 10 32 00 00       	push   $0x3210
    3efc:	e8 3f e7 00 00       	call   12640 <async_set_fallback_port_handler@plt>
    3f01:	a1 e8 4d 01 00       	mov    0x14de8,%eax
    3f06:	8b 30                	mov    (%eax),%esi
    3f08:	5b                   	pop    %ebx
    3f09:	56                   	push   %esi
    3f0a:	e8 01 e5 00 00       	call   12410 <devman_driver_register@plt>
    3f0f:	83 c4 10             	add    $0x10,%esp
    3f12:	89 c3                	mov    %eax,%ebx
    3f14:	85 c0                	test   %eax,%eax
    3f16:	74 30                	je     3f48 <ddf_driver_main+0xa8>
    3f18:	b8 aa 00 01 00       	mov    $0x100aa,%eax
    3f1d:	83 fb f7             	cmp    $0xfffffff7,%ebx
    3f20:	74 0c                	je     3f2e <ddf_driver_main+0x8e>
    3f22:	83 ec 0c             	sub    $0xc,%esp
    3f25:	53                   	push   %ebx
    3f26:	e8 d5 e5 00 00       	call   12500 <str_error@plt>
    3f2b:	83 c4 10             	add    $0x10,%esp
    3f2e:	52                   	push   %edx
    3f2f:	52                   	push   %edx
    3f30:	50                   	push   %eax
    3f31:	68 38 02 01 00       	push   $0x10238
    3f36:	e8 25 e1 00 00       	call   12060 <printf@plt>
    3f3b:	83 c4 10             	add    $0x10,%esp
    3f3e:	8d 65 f8             	lea    -0x8(%ebp),%esp
    3f41:	89 d8                	mov    %ebx,%eax
    3f43:	5b                   	pop    %ebx
    3f44:	5e                   	pop    %esi
    3f45:	5d                   	pop    %ebp
    3f46:	c3                   	ret    
    3f47:	90                   	nop
    3f48:	83 ec 0c             	sub    $0xc,%esp
    3f4b:	6a 00                	push   $0x0
    3f4d:	e8 de e0 00 00       	call   12030 <task_retval@plt>
    3f52:	83 c4 10             	add    $0x10,%esp
    3f55:	89 c3                	mov    %eax,%ebx
    3f57:	85 c0                	test   %eax,%eax
    3f59:	0f 85 6f ff ff ff    	jne    3ece <ddf_driver_main+0x2e>
    3f5f:	83 c8 ff             	or     $0xffffffff,%eax
    3f62:	f0 0f c1 05 44 4d 01 	lock xadd %eax,0x14d44
    3f69:	00 
    3f6a:	48                   	dec    %eax
    3f6b:	78 12                	js     3f7f <ddf_driver_main+0xdf>
    3f6d:	83 ec 0c             	sub    $0xc,%esp
    3f70:	6a 03                	push   $0x3
    3f72:	e8 89 e6 00 00       	call   12600 <fibril_switch@plt>
    3f77:	83 c4 10             	add    $0x10,%esp
    3f7a:	e9 4f ff ff ff       	jmp    3ece <ddf_driver_main+0x2e>
    3f7f:	50                   	push   %eax
    3f80:	6a 0b                	push   $0xb
    3f82:	6a 00                	push   $0x0
    3f84:	6a 00                	push   $0x0
    3f86:	6a 00                	push   $0x0
    3f88:	6a 00                	push   $0x0
    3f8a:	6a 00                	push   $0x0
    3f8c:	68 44 4d 01 00       	push   $0x14d44
    3f91:	ff 15 40 4d 01 00    	call   *0x14d40
    3f97:	83 c4 20             	add    $0x20,%esp
    3f9a:	eb d1                	jmp    3f6d <ddf_driver_main+0xcd>
    3f9c:	66 90                	xchg   %ax,%ax
    3f9e:	66 90                	xchg   %ax,%ax

00003fa0 <get_remote_iface>:
    3fa0:	55                   	push   %ebp
    3fa1:	89 e5                	mov    %esp,%ebp
    3fa3:	83 ec 08             	sub    $0x8,%esp
    3fa6:	8b 45 08             	mov    0x8(%ebp),%eax
    3fa9:	83 f8 0e             	cmp    $0xe,%eax
    3fac:	77 09                	ja     3fb7 <get_remote_iface+0x17>
    3fae:	8b 04 85 a0 02 01 00 	mov    0x102a0(,%eax,4),%eax
    3fb5:	c9                   	leave  
    3fb6:	c3                   	ret    
    3fb7:	50                   	push   %eax
    3fb8:	6a 4f                	push   $0x4f
    3fba:	68 88 02 01 00       	push   $0x10288
    3fbf:	68 7c ff 00 00       	push   $0xff7c
    3fc4:	e8 97 e2 00 00       	call   12260 <assert_abort@plt>
    3fc9:	8d b4 26 00 00 00 00 	lea    0x0(%esi,%eiz,1),%esi

00003fd0 <get_remote_method>:
    3fd0:	55                   	push   %ebp
    3fd1:	89 e5                	mov    %esp,%ebp
    3fd3:	8b 55 08             	mov    0x8(%ebp),%edx
    3fd6:	8b 45 0c             	mov    0xc(%ebp),%eax
    3fd9:	39 02                	cmp    %eax,(%edx)
    3fdb:	76 0b                	jbe    3fe8 <get_remote_method+0x18>
    3fdd:	8b 52 04             	mov    0x4(%edx),%edx
    3fe0:	5d                   	pop    %ebp
    3fe1:	8b 04 82             	mov    (%edx,%eax,4),%eax
    3fe4:	c3                   	ret    
    3fe5:	8d 76 00             	lea    0x0(%esi),%esi
    3fe8:	31 c0                	xor    %eax,%eax
    3fea:	5d                   	pop    %ebp
    3feb:	c3                   	ret    
    3fec:	8d 74 26 00          	lea    0x0(%esi,%eiz,1),%esi

00003ff0 <is_valid_iface_idx>:
    3ff0:	55                   	push   %ebp
    3ff1:	89 e5                	mov    %esp,%ebp
    3ff3:	83 7d 08 0e          	cmpl   $0xe,0x8(%ebp)
    3ff7:	5d                   	pop    %ebp
    3ff8:	0f 96 c0             	setbe  %al
    3ffb:	c3                   	ret    
    3ffc:	66 90                	xchg   %ax,%ax
    3ffe:	66 90                	xchg   %ax,%ax

00004000 <register_interrupt_handler>:
    4000:	55                   	push   %ebp
    4001:	89 e5                	mov    %esp,%ebp
    4003:	83 ec 14             	sub    $0x14,%esp
    4006:	8b 45 08             	mov    0x8(%ebp),%eax
    4009:	8b 55 14             	mov    0x14(%ebp),%edx
    400c:	8b 4d 10             	mov    0x10(%ebp),%ecx
    400f:	52                   	push   %edx
    4010:	50                   	push   %eax
    4011:	51                   	push   %ecx
    4012:	8b 00                	mov    (%eax),%eax
    4014:	50                   	push   %eax
    4015:	8b 45 0c             	mov    0xc(%ebp),%eax
    4018:	50                   	push   %eax
    4019:	e8 b2 e1 00 00       	call   121d0 <async_irq_subscribe@plt>
    401e:	c9                   	leave  
    401f:	c3                   	ret    

00004020 <unregister_interrupt_handler>:
    4020:	55                   	push   %ebp
    4021:	89 e5                	mov    %esp,%ebp
    4023:	8b 55 08             	mov    0x8(%ebp),%edx
    4026:	8b 45 0c             	mov    0xc(%ebp),%eax
    4029:	8b 12                	mov    (%edx),%edx
    402b:	89 45 08             	mov    %eax,0x8(%ebp)
    402e:	89 55 0c             	mov    %edx,0xc(%ebp)
    4031:	5d                   	pop    %ebp
    4032:	e9 39 e1 00 00       	jmp    12170 <async_irq_unsubscribe@plt>
    4037:	66 90                	xchg   %ax,%ax
    4039:	66 90                	xchg   %ax,%ax
    403b:	66 90                	xchg   %ax,%ax
    403d:	66 90                	xchg   %ax,%ax
    403f:	90                   	nop

00004040 <ddf_log_init>:
    4040:	55                   	push   %ebp
    4041:	89 e5                	mov    %esp,%ebp
    4043:	5d                   	pop    %ebp
    4044:	e9 97 e0 00 00       	jmp    120e0 <log_init@plt>
    4049:	8d b4 26 00 00 00 00 	lea    0x0(%esi,%eiz,1),%esi

00004050 <ddf_msg>:
    4050:	55                   	push   %ebp
    4051:	89 e5                	mov    %esp,%ebp
    4053:	83 ec 08             	sub    $0x8,%esp
    4056:	8d 45 10             	lea    0x10(%ebp),%eax
    4059:	8b 55 0c             	mov    0xc(%ebp),%edx
    405c:	8b 4d 08             	mov    0x8(%ebp),%ecx
    405f:	50                   	push   %eax
    4060:	52                   	push   %edx
    4061:	51                   	push   %ecx
    4062:	6a ff                	push   $0xffffffff
    4064:	e8 b7 e1 00 00       	call   12220 <log_msgv@plt>
    4069:	83 c4 10             	add    $0x10,%esp
    406c:	c9                   	leave  
    406d:	c3                   	ret    
    406e:	66 90                	xchg   %ax,%ax

00004070 <remote_audio_mixer_set_item_level>:
    4070:	55                   	push   %ebp
    4071:	89 e5                	mov    %esp,%ebp
    4073:	53                   	push   %ebx
    4074:	51                   	push   %ecx
    4075:	8b 45 0c             	mov    0xc(%ebp),%eax
    4078:	8b 4d 08             	mov    0x8(%ebp),%ecx
    407b:	8b 5d 10             	mov    0x10(%ebp),%ebx
    407e:	8b 55 14             	mov    0x14(%ebp),%edx
    4081:	8b 40 0c             	mov    0xc(%eax),%eax
    4084:	85 c0                	test   %eax,%eax
    4086:	74 20                	je     40a8 <remote_audio_mixer_set_item_level+0x38>
    4088:	83 ec 04             	sub    $0x4,%esp
    408b:	ff 72 0c             	pushl  0xc(%edx)
    408e:	8b 52 08             	mov    0x8(%edx),%edx
    4091:	52                   	push   %edx
    4092:	51                   	push   %ecx
    4093:	ff d0                	call   *%eax
    4095:	89 5d 08             	mov    %ebx,0x8(%ebp)
    4098:	83 c4 10             	add    $0x10,%esp
    409b:	8b 5d fc             	mov    -0x4(%ebp),%ebx
    409e:	89 45 0c             	mov    %eax,0xc(%ebp)
    40a1:	c9                   	leave  
    40a2:	e9 49 e1 00 00       	jmp    121f0 <async_answer_0@plt>
    40a7:	90                   	nop
    40a8:	89 5d 08             	mov    %ebx,0x8(%ebp)
    40ab:	8b 5d fc             	mov    -0x4(%ebp),%ebx
    40ae:	c7 45 0c f5 ff ff ff 	movl   $0xfffffff5,0xc(%ebp)
    40b5:	c9                   	leave  
    40b6:	e9 35 e1 00 00       	jmp    121f0 <async_answer_0@plt>
    40bb:	90                   	nop
    40bc:	8d 74 26 00          	lea    0x0(%esi,%eiz,1),%esi

000040c0 <remote_audio_mixer_get_item_level>:
    40c0:	55                   	push   %ebp
    40c1:	89 e5                	mov    %esp,%ebp
    40c3:	83 ec 18             	sub    $0x18,%esp
    40c6:	8b 45 0c             	mov    0xc(%ebp),%eax
    40c9:	8b 40 08             	mov    0x8(%eax),%eax
    40cc:	85 c0                	test   %eax,%eax
    40ce:	74 30                	je     4100 <remote_audio_mixer_get_item_level+0x40>
    40d0:	8b 55 14             	mov    0x14(%ebp),%edx
    40d3:	c7 45 f4 00 00 00 00 	movl   $0x0,-0xc(%ebp)
    40da:	8b 52 08             	mov    0x8(%edx),%edx
    40dd:	51                   	push   %ecx
    40de:	8d 4d f4             	lea    -0xc(%ebp),%ecx
    40e1:	51                   	push   %ecx
    40e2:	52                   	push   %edx
    40e3:	8b 55 08             	mov    0x8(%ebp),%edx
    40e6:	52                   	push   %edx
    40e7:	ff d0                	call   *%eax
    40e9:	83 c4 0c             	add    $0xc,%esp
    40ec:	8b 4d f4             	mov    -0xc(%ebp),%ecx
    40ef:	51                   	push   %ecx
    40f0:	50                   	push   %eax
    40f1:	8b 45 10             	mov    0x10(%ebp),%eax
    40f4:	50                   	push   %eax
    40f5:	e8 e6 e3 00 00       	call   124e0 <async_answer_1@plt>
    40fa:	83 c4 10             	add    $0x10,%esp
    40fd:	c9                   	leave  
    40fe:	c3                   	ret    
    40ff:	90                   	nop
    4100:	50                   	push   %eax
    4101:	50                   	push   %eax
    4102:	8b 45 10             	mov    0x10(%ebp),%eax
    4105:	6a f5                	push   $0xfffffff5
    4107:	50                   	push   %eax
    4108:	e8 e3 e0 00 00       	call   121f0 <async_answer_0@plt>
    410d:	83 c4 10             	add    $0x10,%esp
    4110:	c9                   	leave  
    4111:	c3                   	ret    
    4112:	8d b4 26 00 00 00 00 	lea    0x0(%esi,%eiz,1),%esi
    4119:	8d bc 27 00 00 00 00 	lea    0x0(%edi,%eiz,1),%edi

00004120 <remote_audio_mixer_get_item_info>:
    4120:	55                   	push   %ebp
    4121:	89 e5                	mov    %esp,%ebp
    4123:	56                   	push   %esi
    4124:	53                   	push   %ebx
    4125:	83 ec 10             	sub    $0x10,%esp
    4128:	8b 45 0c             	mov    0xc(%ebp),%eax
    412b:	8b 40 04             	mov    0x4(%eax),%eax
    412e:	85 c0                	test   %eax,%eax
    4130:	0f 84 c2 00 00 00    	je     41f8 <remote_audio_mixer_get_item_info+0xd8>
    4136:	8b 55 14             	mov    0x14(%ebp),%edx
    4139:	8d 4d ec             	lea    -0x14(%ebp),%ecx
    413c:	c7 45 e8 00 00 00 00 	movl   $0x0,-0x18(%ebp)
    4143:	c7 45 ec 00 00 00 00 	movl   $0x0,-0x14(%ebp)
    414a:	8b 52 08             	mov    0x8(%edx),%edx
    414d:	51                   	push   %ecx
    414e:	8d 4d e8             	lea    -0x18(%ebp),%ecx
    4151:	51                   	push   %ecx
    4152:	8b 4d 08             	mov    0x8(%ebp),%ecx
    4155:	52                   	push   %edx
    4156:	51                   	push   %ecx
    4157:	ff d0                	call   *%eax
    4159:	83 c4 10             	add    $0x10,%esp
    415c:	89 c6                	mov    %eax,%esi
    415e:	8b 45 e8             	mov    -0x18(%ebp),%eax
    4161:	85 c0                	test   %eax,%eax
    4163:	74 5b                	je     41c0 <remote_audio_mixer_get_item_info+0xa0>
    4165:	83 ec 0c             	sub    $0xc,%esp
    4168:	50                   	push   %eax
    4169:	e8 52 e3 00 00       	call   124c0 <str_size@plt>
    416e:	8b 55 10             	mov    0x10(%ebp),%edx
    4171:	8d 58 01             	lea    0x1(%eax),%ebx
    4174:	8b 45 ec             	mov    -0x14(%ebp),%eax
    4177:	50                   	push   %eax
    4178:	53                   	push   %ebx
    4179:	56                   	push   %esi
    417a:	52                   	push   %edx
    417b:	e8 70 e1 00 00       	call   122f0 <async_answer_2@plt>
    4180:	83 c4 20             	add    $0x20,%esp
    4183:	85 f6                	test   %esi,%esi
    4185:	75 2f                	jne    41b6 <remote_audio_mixer_get_item_info+0x96>
    4187:	85 db                	test   %ebx,%ebx
    4189:	74 2b                	je     41b6 <remote_audio_mixer_get_item_info+0x96>
    418b:	50                   	push   %eax
    418c:	50                   	push   %eax
    418d:	8d 45 f0             	lea    -0x10(%ebp),%eax
    4190:	50                   	push   %eax
    4191:	8d 45 f4             	lea    -0xc(%ebp),%eax
    4194:	50                   	push   %eax
    4195:	e8 96 e2 00 00       	call   12430 <async_data_read_receive@plt>
    419a:	83 c4 10             	add    $0x10,%esp
    419d:	84 c0                	test   %al,%al
    419f:	74 6f                	je     4210 <remote_audio_mixer_get_item_info+0xf0>
    41a1:	3b 5d f0             	cmp    -0x10(%ebp),%ebx
    41a4:	74 3a                	je     41e0 <remote_audio_mixer_get_item_info+0xc0>
    41a6:	50                   	push   %eax
    41a7:	50                   	push   %eax
    41a8:	8b 45 f4             	mov    -0xc(%ebp),%eax
    41ab:	6a fd                	push   $0xfffffffd
    41ad:	50                   	push   %eax
    41ae:	e8 3d e0 00 00       	call   121f0 <async_answer_0@plt>
    41b3:	83 c4 10             	add    $0x10,%esp
    41b6:	8d 65 f8             	lea    -0x8(%ebp),%esp
    41b9:	5b                   	pop    %ebx
    41ba:	5e                   	pop    %esi
    41bb:	5d                   	pop    %ebp
    41bc:	c3                   	ret    
    41bd:	8d 76 00             	lea    0x0(%esi),%esi
    41c0:	8b 45 ec             	mov    -0x14(%ebp),%eax
    41c3:	8b 55 10             	mov    0x10(%ebp),%edx
    41c6:	50                   	push   %eax
    41c7:	6a 00                	push   $0x0
    41c9:	56                   	push   %esi
    41ca:	52                   	push   %edx
    41cb:	e8 20 e1 00 00       	call   122f0 <async_answer_2@plt>
    41d0:	83 c4 10             	add    $0x10,%esp
    41d3:	8d 65 f8             	lea    -0x8(%ebp),%esp
    41d6:	5b                   	pop    %ebx
    41d7:	5e                   	pop    %esi
    41d8:	5d                   	pop    %ebp
    41d9:	c3                   	ret    
    41da:	8d b6 00 00 00 00    	lea    0x0(%esi),%esi
    41e0:	8b 75 f4             	mov    -0xc(%ebp),%esi
    41e3:	51                   	push   %ecx
    41e4:	53                   	push   %ebx
    41e5:	8b 5d e8             	mov    -0x18(%ebp),%ebx
    41e8:	53                   	push   %ebx
    41e9:	56                   	push   %esi
    41ea:	e8 61 df 00 00       	call   12150 <async_data_read_finalize@plt>
    41ef:	83 c4 10             	add    $0x10,%esp
    41f2:	eb c2                	jmp    41b6 <remote_audio_mixer_get_item_info+0x96>
    41f4:	8d 74 26 00          	lea    0x0(%esi,%eiz,1),%esi
    41f8:	8b 75 10             	mov    0x10(%ebp),%esi
    41fb:	53                   	push   %ebx
    41fc:	53                   	push   %ebx
    41fd:	6a f5                	push   $0xfffffff5
    41ff:	56                   	push   %esi
    4200:	e8 eb df 00 00       	call   121f0 <async_answer_0@plt>
    4205:	83 c4 10             	add    $0x10,%esp
    4208:	8d 65 f8             	lea    -0x8(%ebp),%esp
    420b:	5b                   	pop    %ebx
    420c:	5e                   	pop    %esi
    420d:	5d                   	pop    %ebp
    420e:	c3                   	ret    
    420f:	90                   	nop
    4210:	50                   	push   %eax
    4211:	50                   	push   %eax
    4212:	8b 45 f4             	mov    -0xc(%ebp),%eax
    4215:	6a f8                	push   $0xfffffff8
    4217:	50                   	push   %eax
    4218:	e8 d3 df 00 00       	call   121f0 <async_answer_0@plt>
    421d:	83 c4 10             	add    $0x10,%esp
    4220:	eb 94                	jmp    41b6 <remote_audio_mixer_get_item_info+0x96>
    4222:	8d b4 26 00 00 00 00 	lea    0x0(%esi,%eiz,1),%esi
    4229:	8d bc 27 00 00 00 00 	lea    0x0(%edi,%eiz,1),%edi

00004230 <remote_audio_mixer_get_info>:
    4230:	55                   	push   %ebp
    4231:	89 e5                	mov    %esp,%ebp
    4233:	56                   	push   %esi
    4234:	53                   	push   %ebx
    4235:	83 ec 10             	sub    $0x10,%esp
    4238:	8b 45 0c             	mov    0xc(%ebp),%eax
    423b:	8b 00                	mov    (%eax),%eax
    423d:	85 c0                	test   %eax,%eax
    423f:	0f 84 bb 00 00 00    	je     4300 <remote_audio_mixer_get_info+0xd0>
    4245:	8d 55 ec             	lea    -0x14(%ebp),%edx
    4248:	8b 5d 08             	mov    0x8(%ebp),%ebx
    424b:	c7 45 e8 00 00 00 00 	movl   $0x0,-0x18(%ebp)
    4252:	c7 45 ec 00 00 00 00 	movl   $0x0,-0x14(%ebp)
    4259:	51                   	push   %ecx
    425a:	52                   	push   %edx
    425b:	8d 55 e8             	lea    -0x18(%ebp),%edx
    425e:	52                   	push   %edx
    425f:	53                   	push   %ebx
    4260:	ff d0                	call   *%eax
    4262:	83 c4 10             	add    $0x10,%esp
    4265:	89 c6                	mov    %eax,%esi
    4267:	8b 45 e8             	mov    -0x18(%ebp),%eax
    426a:	85 c0                	test   %eax,%eax
    426c:	74 5a                	je     42c8 <remote_audio_mixer_get_info+0x98>
    426e:	83 ec 0c             	sub    $0xc,%esp
    4271:	50                   	push   %eax
    4272:	e8 49 e2 00 00       	call   124c0 <str_size@plt>
    4277:	8b 55 10             	mov    0x10(%ebp),%edx
    427a:	8d 58 01             	lea    0x1(%eax),%ebx
    427d:	8b 45 ec             	mov    -0x14(%ebp),%eax
    4280:	50                   	push   %eax
    4281:	53                   	push   %ebx
    4282:	56                   	push   %esi
    4283:	52                   	push   %edx
    4284:	e8 67 e0 00 00       	call   122f0 <async_answer_2@plt>
    4289:	83 c4 20             	add    $0x20,%esp
    428c:	85 f6                	test   %esi,%esi
    428e:	75 2f                	jne    42bf <remote_audio_mixer_get_info+0x8f>
    4290:	85 db                	test   %ebx,%ebx
    4292:	74 2b                	je     42bf <remote_audio_mixer_get_info+0x8f>
    4294:	50                   	push   %eax
    4295:	50                   	push   %eax
    4296:	8d 45 f0             	lea    -0x10(%ebp),%eax
    4299:	50                   	push   %eax
    429a:	8d 45 f4             	lea    -0xc(%ebp),%eax
    429d:	50                   	push   %eax
    429e:	e8 8d e1 00 00       	call   12430 <async_data_read_receive@plt>
    42a3:	83 c4 10             	add    $0x10,%esp
    42a6:	84 c0                	test   %al,%al
    42a8:	74 6e                	je     4318 <remote_audio_mixer_get_info+0xe8>
    42aa:	3b 5d f0             	cmp    -0x10(%ebp),%ebx
    42ad:	74 39                	je     42e8 <remote_audio_mixer_get_info+0xb8>
    42af:	50                   	push   %eax
    42b0:	50                   	push   %eax
    42b1:	8b 45 f4             	mov    -0xc(%ebp),%eax
    42b4:	6a fd                	push   $0xfffffffd
    42b6:	50                   	push   %eax
    42b7:	e8 34 df 00 00       	call   121f0 <async_answer_0@plt>
    42bc:	83 c4 10             	add    $0x10,%esp
    42bf:	8d 65 f8             	lea    -0x8(%ebp),%esp
    42c2:	5b                   	pop    %ebx
    42c3:	5e                   	pop    %esi
    42c4:	5d                   	pop    %ebp
    42c5:	c3                   	ret    
    42c6:	66 90                	xchg   %ax,%ax
    42c8:	8b 45 ec             	mov    -0x14(%ebp),%eax
    42cb:	8b 55 10             	mov    0x10(%ebp),%edx
    42ce:	50                   	push   %eax
    42cf:	6a 00                	push   $0x0
    42d1:	56                   	push   %esi
    42d2:	52                   	push   %edx
    42d3:	e8 18 e0 00 00       	call   122f0 <async_answer_2@plt>
    42d8:	83 c4 10             	add    $0x10,%esp
    42db:	8d 65 f8             	lea    -0x8(%ebp),%esp
    42de:	5b                   	pop    %ebx
    42df:	5e                   	pop    %esi
    42e0:	5d                   	pop    %ebp
    42e1:	c3                   	ret    
    42e2:	8d b6 00 00 00 00    	lea    0x0(%esi),%esi
    42e8:	8b 75 f4             	mov    -0xc(%ebp),%esi
    42eb:	51                   	push   %ecx
    42ec:	53                   	push   %ebx
    42ed:	8b 5d e8             	mov    -0x18(%ebp),%ebx
    42f0:	53                   	push   %ebx
    42f1:	56                   	push   %esi
    42f2:	e8 59 de 00 00       	call   12150 <async_data_read_finalize@plt>
    42f7:	83 c4 10             	add    $0x10,%esp
    42fa:	eb c3                	jmp    42bf <remote_audio_mixer_get_info+0x8f>
    42fc:	8d 74 26 00          	lea    0x0(%esi,%eiz,1),%esi
    4300:	8b 45 10             	mov    0x10(%ebp),%eax
    4303:	56                   	push   %esi
    4304:	56                   	push   %esi
    4305:	6a f5                	push   $0xfffffff5
    4307:	50                   	push   %eax
    4308:	e8 e3 de 00 00       	call   121f0 <async_answer_0@plt>
    430d:	83 c4 10             	add    $0x10,%esp
    4310:	8d 65 f8             	lea    -0x8(%ebp),%esp
    4313:	5b                   	pop    %ebx
    4314:	5e                   	pop    %esi
    4315:	5d                   	pop    %ebp
    4316:	c3                   	ret    
    4317:	90                   	nop
    4318:	50                   	push   %eax
    4319:	50                   	push   %eax
    431a:	8b 45 f4             	mov    -0xc(%ebp),%eax
    431d:	6a f8                	push   $0xfffffff8
    431f:	50                   	push   %eax
    4320:	e8 cb de 00 00       	call   121f0 <async_answer_0@plt>
    4325:	83 c4 10             	add    $0x10,%esp
    4328:	eb 95                	jmp    42bf <remote_audio_mixer_get_info+0x8f>
    432a:	8d b6 00 00 00 00    	lea    0x0(%esi),%esi

00004330 <audio_mixer_get_info>:
    4330:	55                   	push   %ebp
    4331:	89 e5                	mov    %esp,%ebp
    4333:	57                   	push   %edi
    4334:	56                   	push   %esi
    4335:	53                   	push   %ebx
    4336:	83 ec 2c             	sub    $0x2c,%esp
    4339:	8b 75 08             	mov    0x8(%ebp),%esi
    433c:	85 f6                	test   %esi,%esi
    433e:	0f 84 bc 00 00 00    	je     4400 <audio_mixer_get_info+0xd0>
    4344:	50                   	push   %eax
    4345:	8d 45 e4             	lea    -0x1c(%ebp),%eax
    4348:	6a 00                	push   $0x0
    434a:	6a 00                	push   $0x0
    434c:	6a 00                	push   $0x0
    434e:	50                   	push   %eax
    434f:	8d 45 e0             	lea    -0x20(%ebp),%eax
    4352:	50                   	push   %eax
    4353:	6a 00                	push   $0x0
    4355:	6a 00                	push   $0x0
    4357:	6a 00                	push   $0x0
    4359:	6a 00                	push   $0x0
    435b:	68 03 04 00 00       	push   $0x403
    4360:	56                   	push   %esi
    4361:	e8 7a de 00 00       	call   121e0 <async_req_fast@plt>
    4366:	83 c4 30             	add    $0x30,%esp
    4369:	89 c3                	mov    %eax,%ebx
    436b:	85 c0                	test   %eax,%eax
    436d:	8b 45 0c             	mov    0xc(%ebp),%eax
    4370:	0f 94 c2             	sete   %dl
    4373:	85 c0                	test   %eax,%eax
    4375:	74 04                	je     437b <audio_mixer_get_info+0x4b>
    4377:	84 d2                	test   %dl,%dl
    4379:	75 1d                	jne    4398 <audio_mixer_get_info+0x68>
    437b:	8b 45 10             	mov    0x10(%ebp),%eax
    437e:	85 c0                	test   %eax,%eax
    4380:	74 57                	je     43d9 <audio_mixer_get_info+0xa9>
    4382:	84 d2                	test   %dl,%dl
    4384:	74 53                	je     43d9 <audio_mixer_get_info+0xa9>
    4386:	8b 4d 10             	mov    0x10(%ebp),%ecx
    4389:	8b 45 e4             	mov    -0x1c(%ebp),%eax
    438c:	89 01                	mov    %eax,(%ecx)
    438e:	89 d8                	mov    %ebx,%eax
    4390:	8d 65 f4             	lea    -0xc(%ebp),%esp
    4393:	5b                   	pop    %ebx
    4394:	5e                   	pop    %esi
    4395:	5f                   	pop    %edi
    4396:	5d                   	pop    %ebp
    4397:	c3                   	ret    
    4398:	8b 45 e0             	mov    -0x20(%ebp),%eax
    439b:	88 55 d4             	mov    %dl,-0x2c(%ebp)
    439e:	57                   	push   %edi
    439f:	57                   	push   %edi
    43a0:	50                   	push   %eax
    43a1:	6a 01                	push   $0x1
    43a3:	e8 d8 de 00 00       	call   12280 <calloc@plt>
    43a8:	83 c4 10             	add    $0x10,%esp
    43ab:	89 c7                	mov    %eax,%edi
    43ad:	85 c0                	test   %eax,%eax
    43af:	8a 55 d4             	mov    -0x2c(%ebp),%dl
    43b2:	74 53                	je     4407 <audio_mixer_get_info+0xd7>
    43b4:	8b 4d e0             	mov    -0x20(%ebp),%ecx
    43b7:	88 55 d4             	mov    %dl,-0x2c(%ebp)
    43ba:	52                   	push   %edx
    43bb:	51                   	push   %ecx
    43bc:	50                   	push   %eax
    43bd:	56                   	push   %esi
    43be:	e8 7d e0 00 00       	call   12440 <async_data_read_start@plt>
    43c3:	83 c4 10             	add    $0x10,%esp
    43c6:	8a 55 d4             	mov    -0x2c(%ebp),%dl
    43c9:	85 c0                	test   %eax,%eax
    43cb:	75 1b                	jne    43e8 <audio_mixer_get_info+0xb8>
    43cd:	8b 45 0c             	mov    0xc(%ebp),%eax
    43d0:	89 38                	mov    %edi,(%eax)
    43d2:	8b 45 10             	mov    0x10(%ebp),%eax
    43d5:	85 c0                	test   %eax,%eax
    43d7:	75 a9                	jne    4382 <audio_mixer_get_info+0x52>
    43d9:	8d 65 f4             	lea    -0xc(%ebp),%esp
    43dc:	89 d8                	mov    %ebx,%eax
    43de:	5b                   	pop    %ebx
    43df:	5e                   	pop    %esi
    43e0:	5f                   	pop    %edi
    43e1:	5d                   	pop    %ebp
    43e2:	c3                   	ret    
    43e3:	90                   	nop
    43e4:	8d 74 26 00          	lea    0x0(%esi,%eiz,1),%esi
    43e8:	83 ec 0c             	sub    $0xc,%esp
    43eb:	89 45 d4             	mov    %eax,-0x2c(%ebp)
    43ee:	57                   	push   %edi
    43ef:	e8 8c e2 00 00       	call   12680 <free@plt>
    43f4:	83 c4 10             	add    $0x10,%esp
    43f7:	8b 45 d4             	mov    -0x2c(%ebp),%eax
    43fa:	eb 94                	jmp    4390 <audio_mixer_get_info+0x60>
    43fc:	8d 74 26 00          	lea    0x0(%esi,%eiz,1),%esi
    4400:	b8 f2 ff ff ff       	mov    $0xfffffff2,%eax
    4405:	eb 89                	jmp    4390 <audio_mixer_get_info+0x60>
    4407:	53                   	push   %ebx
    4408:	6a 00                	push   $0x0
    440a:	6a ff                	push   $0xffffffff
    440c:	56                   	push   %esi
    440d:	e8 2e e0 00 00       	call   12440 <async_data_read_start@plt>
    4412:	83 c4 10             	add    $0x10,%esp
    4415:	b8 fe ff ff ff       	mov    $0xfffffffe,%eax
    441a:	e9 71 ff ff ff       	jmp    4390 <audio_mixer_get_info+0x60>
    441f:	90                   	nop

00004420 <audio_mixer_get_item_info>:
    4420:	55                   	push   %ebp
    4421:	89 e5                	mov    %esp,%ebp
    4423:	57                   	push   %edi
    4424:	56                   	push   %esi
    4425:	53                   	push   %ebx
    4426:	83 ec 2c             	sub    $0x2c,%esp
    4429:	8b 75 08             	mov    0x8(%ebp),%esi
    442c:	85 f6                	test   %esi,%esi
    442e:	0f 84 c4 00 00 00    	je     44f8 <audio_mixer_get_item_info+0xd8>
    4434:	50                   	push   %eax
    4435:	8d 45 e4             	lea    -0x1c(%ebp),%eax
    4438:	6a 00                	push   $0x0
    443a:	6a 00                	push   $0x0
    443c:	6a 00                	push   $0x0
    443e:	50                   	push   %eax
    443f:	8d 45 e0             	lea    -0x20(%ebp),%eax
    4442:	50                   	push   %eax
    4443:	8b 45 0c             	mov    0xc(%ebp),%eax
    4446:	6a 00                	push   $0x0
    4448:	6a 00                	push   $0x0
    444a:	50                   	push   %eax
    444b:	6a 01                	push   $0x1
    444d:	68 03 04 00 00       	push   $0x403
    4452:	56                   	push   %esi
    4453:	e8 88 dd 00 00       	call   121e0 <async_req_fast@plt>
    4458:	83 c4 30             	add    $0x30,%esp
    445b:	89 c3                	mov    %eax,%ebx
    445d:	85 c0                	test   %eax,%eax
    445f:	8b 45 10             	mov    0x10(%ebp),%eax
    4462:	0f 94 c2             	sete   %dl
    4465:	85 c0                	test   %eax,%eax
    4467:	74 04                	je     446d <audio_mixer_get_item_info+0x4d>
    4469:	84 d2                	test   %dl,%dl
    446b:	75 23                	jne    4490 <audio_mixer_get_item_info+0x70>
    446d:	8b 45 14             	mov    0x14(%ebp),%eax
    4470:	85 c0                	test   %eax,%eax
    4472:	74 5d                	je     44d1 <audio_mixer_get_item_info+0xb1>
    4474:	84 d2                	test   %dl,%dl
    4476:	74 59                	je     44d1 <audio_mixer_get_item_info+0xb1>
    4478:	8b 4d 14             	mov    0x14(%ebp),%ecx
    447b:	8b 45 e4             	mov    -0x1c(%ebp),%eax
    447e:	89 01                	mov    %eax,(%ecx)
    4480:	89 d8                	mov    %ebx,%eax
    4482:	8d 65 f4             	lea    -0xc(%ebp),%esp
    4485:	5b                   	pop    %ebx
    4486:	5e                   	pop    %esi
    4487:	5f                   	pop    %edi
    4488:	5d                   	pop    %ebp
    4489:	c3                   	ret    
    448a:	8d b6 00 00 00 00    	lea    0x0(%esi),%esi
    4490:	8b 45 e0             	mov    -0x20(%ebp),%eax
    4493:	88 55 d4             	mov    %dl,-0x2c(%ebp)
    4496:	57                   	push   %edi
    4497:	57                   	push   %edi
    4498:	50                   	push   %eax
    4499:	6a 01                	push   $0x1
    449b:	e8 e0 dd 00 00       	call   12280 <calloc@plt>
    44a0:	83 c4 10             	add    $0x10,%esp
    44a3:	89 c7                	mov    %eax,%edi
    44a5:	85 c0                	test   %eax,%eax
    44a7:	8a 55 d4             	mov    -0x2c(%ebp),%dl
    44aa:	74 53                	je     44ff <audio_mixer_get_item_info+0xdf>
    44ac:	8b 4d e0             	mov    -0x20(%ebp),%ecx
    44af:	88 55 d4             	mov    %dl,-0x2c(%ebp)
    44b2:	52                   	push   %edx
    44b3:	51                   	push   %ecx
    44b4:	50                   	push   %eax
    44b5:	56                   	push   %esi
    44b6:	e8 85 df 00 00       	call   12440 <async_data_read_start@plt>
    44bb:	83 c4 10             	add    $0x10,%esp
    44be:	8a 55 d4             	mov    -0x2c(%ebp),%dl
    44c1:	85 c0                	test   %eax,%eax
    44c3:	75 1b                	jne    44e0 <audio_mixer_get_item_info+0xc0>
    44c5:	8b 45 10             	mov    0x10(%ebp),%eax
    44c8:	89 38                	mov    %edi,(%eax)
    44ca:	8b 45 14             	mov    0x14(%ebp),%eax
    44cd:	85 c0                	test   %eax,%eax
    44cf:	75 a3                	jne    4474 <audio_mixer_get_item_info+0x54>
    44d1:	8d 65 f4             	lea    -0xc(%ebp),%esp
    44d4:	89 d8                	mov    %ebx,%eax
    44d6:	5b                   	pop    %ebx
    44d7:	5e                   	pop    %esi
    44d8:	5f                   	pop    %edi
    44d9:	5d                   	pop    %ebp
    44da:	c3                   	ret    
    44db:	90                   	nop
    44dc:	8d 74 26 00          	lea    0x0(%esi,%eiz,1),%esi
    44e0:	83 ec 0c             	sub    $0xc,%esp
    44e3:	89 45 d4             	mov    %eax,-0x2c(%ebp)
    44e6:	57                   	push   %edi
    44e7:	e8 94 e1 00 00       	call   12680 <free@plt>
    44ec:	83 c4 10             	add    $0x10,%esp
    44ef:	8b 45 d4             	mov    -0x2c(%ebp),%eax
    44f2:	eb 8e                	jmp    4482 <audio_mixer_get_item_info+0x62>
    44f4:	8d 74 26 00          	lea    0x0(%esi,%eiz,1),%esi
    44f8:	b8 f2 ff ff ff       	mov    $0xfffffff2,%eax
    44fd:	eb 83                	jmp    4482 <audio_mixer_get_item_info+0x62>
    44ff:	53                   	push   %ebx
    4500:	6a 00                	push   $0x0
    4502:	6a ff                	push   $0xffffffff
    4504:	56                   	push   %esi
    4505:	e8 36 df 00 00       	call   12440 <async_data_read_start@plt>
    450a:	83 c4 10             	add    $0x10,%esp
    450d:	b8 fe ff ff ff       	mov    $0xfffffffe,%eax
    4512:	e9 6b ff ff ff       	jmp    4482 <audio_mixer_get_item_info+0x62>
    4517:	89 f6                	mov    %esi,%esi
    4519:	8d bc 27 00 00 00 00 	lea    0x0(%edi,%eiz,1),%edi

00004520 <audio_mixer_set_item_level>:
    4520:	55                   	push   %ebp
    4521:	89 e5                	mov    %esp,%ebp
    4523:	83 ec 08             	sub    $0x8,%esp
    4526:	8b 45 08             	mov    0x8(%ebp),%eax
    4529:	85 c0                	test   %eax,%eax
    452b:	74 2b                	je     4558 <audio_mixer_set_item_level+0x38>
    452d:	8b 4d 10             	mov    0x10(%ebp),%ecx
    4530:	52                   	push   %edx
    4531:	8b 55 0c             	mov    0xc(%ebp),%edx
    4534:	6a 00                	push   $0x0
    4536:	6a 00                	push   $0x0
    4538:	6a 00                	push   $0x0
    453a:	6a 00                	push   $0x0
    453c:	6a 00                	push   $0x0
    453e:	6a 00                	push   $0x0
    4540:	51                   	push   %ecx
    4541:	52                   	push   %edx
    4542:	6a 02                	push   $0x2
    4544:	68 03 04 00 00       	push   $0x403
    4549:	50                   	push   %eax
    454a:	e8 91 dc 00 00       	call   121e0 <async_req_fast@plt>
    454f:	83 c4 30             	add    $0x30,%esp
    4552:	c9                   	leave  
    4553:	c3                   	ret    
    4554:	8d 74 26 00          	lea    0x0(%esi,%eiz,1),%esi
    4558:	b8 f2 ff ff ff       	mov    $0xfffffff2,%eax
    455d:	c9                   	leave  
    455e:	c3                   	ret    
    455f:	90                   	nop

00004560 <audio_mixer_get_item_level>:
    4560:	55                   	push   %ebp
    4561:	89 e5                	mov    %esp,%ebp
    4563:	53                   	push   %ebx
    4564:	83 ec 14             	sub    $0x14,%esp
    4567:	8b 45 08             	mov    0x8(%ebp),%eax
    456a:	8b 5d 10             	mov    0x10(%ebp),%ebx
    456d:	85 c0                	test   %eax,%eax
    456f:	74 37                	je     45a8 <audio_mixer_get_item_level+0x48>
    4571:	8b 4d 0c             	mov    0xc(%ebp),%ecx
    4574:	52                   	push   %edx
    4575:	8d 55 f4             	lea    -0xc(%ebp),%edx
    4578:	6a 00                	push   $0x0
    457a:	6a 00                	push   $0x0
    457c:	6a 00                	push   $0x0
    457e:	6a 00                	push   $0x0
    4580:	52                   	push   %edx
    4581:	6a 00                	push   $0x0
    4583:	6a 00                	push   $0x0
    4585:	51                   	push   %ecx
    4586:	6a 03                	push   $0x3
    4588:	68 03 04 00 00       	push   $0x403
    458d:	50                   	push   %eax
    458e:	e8 4d dc 00 00       	call   121e0 <async_req_fast@plt>
    4593:	83 c4 30             	add    $0x30,%esp
    4596:	85 c0                	test   %eax,%eax
    4598:	75 09                	jne    45a3 <audio_mixer_get_item_level+0x43>
    459a:	85 db                	test   %ebx,%ebx
    459c:	74 05                	je     45a3 <audio_mixer_get_item_level+0x43>
    459e:	8b 55 f4             	mov    -0xc(%ebp),%edx
    45a1:	89 13                	mov    %edx,(%ebx)
    45a3:	8b 5d fc             	mov    -0x4(%ebp),%ebx
    45a6:	c9                   	leave  
    45a7:	c3                   	ret    
    45a8:	b8 f2 ff ff ff       	mov    $0xfffffff2,%eax
    45ad:	eb f4                	jmp    45a3 <audio_mixer_get_item_level+0x43>
    45af:	90                   	nop

000045b0 <remote_audio_pcm_stop_capture>:
    45b0:	55                   	push   %ebp
    45b1:	89 e5                	mov    %esp,%ebp
    45b3:	53                   	push   %ebx
    45b4:	50                   	push   %eax
    45b5:	8b 45 14             	mov    0x14(%ebp),%eax
    45b8:	8b 4d 08             	mov    0x8(%ebp),%ecx
    45bb:	8b 5d 10             	mov    0x10(%ebp),%ebx
    45be:	8b 50 08             	mov    0x8(%eax),%edx
    45c1:	85 d2                	test   %edx,%edx
    45c3:	8b 55 0c             	mov    0xc(%ebp),%edx
    45c6:	0f 95 c0             	setne  %al
    45c9:	8b 52 2c             	mov    0x2c(%edx),%edx
    45cc:	85 d2                	test   %edx,%edx
    45ce:	74 20                	je     45f0 <remote_audio_pcm_stop_capture+0x40>
    45d0:	83 ec 08             	sub    $0x8,%esp
    45d3:	25 ff 00 00 00       	and    $0xff,%eax
    45d8:	50                   	push   %eax
    45d9:	51                   	push   %ecx
    45da:	ff d2                	call   *%edx
    45dc:	89 5d 08             	mov    %ebx,0x8(%ebp)
    45df:	83 c4 10             	add    $0x10,%esp
    45e2:	8b 5d fc             	mov    -0x4(%ebp),%ebx
    45e5:	89 45 0c             	mov    %eax,0xc(%ebp)
    45e8:	c9                   	leave  
    45e9:	e9 02 dc 00 00       	jmp    121f0 <async_answer_0@plt>
    45ee:	66 90                	xchg   %ax,%ax
    45f0:	89 5d 08             	mov    %ebx,0x8(%ebp)
    45f3:	b8 f5 ff ff ff       	mov    $0xfffffff5,%eax
    45f8:	8b 5d fc             	mov    -0x4(%ebp),%ebx
    45fb:	89 45 0c             	mov    %eax,0xc(%ebp)
    45fe:	c9                   	leave  
    45ff:	e9 ec db 00 00       	jmp    121f0 <async_answer_0@plt>
    4604:	8d b6 00 00 00 00    	lea    0x0(%esi),%esi
    460a:	8d bf 00 00 00 00    	lea    0x0(%edi),%edi

00004610 <remote_audio_pcm_start_capture>:
    4610:	55                   	push   %ebp
    4611:	89 e5                	mov    %esp,%ebp
    4613:	57                   	push   %edi
    4614:	56                   	push   %esi
    4615:	53                   	push   %ebx
    4616:	83 ec 0c             	sub    $0xc,%esp
    4619:	8b 55 14             	mov    0x14(%ebp),%edx
    461c:	8b 7d 0c             	mov    0xc(%ebp),%edi
    461f:	8b 4d 08             	mov    0x8(%ebp),%ecx
    4622:	8b 5d 10             	mov    0x10(%ebp),%ebx
    4625:	8b 42 10             	mov    0x10(%edx),%eax
    4628:	8b 7f 28             	mov    0x28(%edi),%edi
    462b:	89 c6                	mov    %eax,%esi
    462d:	25 ff ff 00 00       	and    $0xffff,%eax
    4632:	c1 ee 10             	shr    $0x10,%esi
    4635:	85 ff                	test   %edi,%edi
    4637:	74 27                	je     4660 <remote_audio_pcm_start_capture+0x50>
    4639:	83 ec 0c             	sub    $0xc,%esp
    463c:	50                   	push   %eax
    463d:	8b 42 0c             	mov    0xc(%edx),%eax
    4640:	50                   	push   %eax
    4641:	56                   	push   %esi
    4642:	8b 52 08             	mov    0x8(%edx),%edx
    4645:	52                   	push   %edx
    4646:	51                   	push   %ecx
