Archive member included to satisfy reference by file (symbol)

../../../lib/nettl/libnettl.a(amap.o)
                              conn.o (amap_create)
../../../lib/nettl/libnettl.a(portrng.o)
                              ../../../lib/nettl/libnettl.a(amap.o) (portrng_create)

Discarded input sections

 .debug_line    0x0000000000000000       0x53 /home/ayyuce/Desktop/HlnOS/HelenOS/uspace/lib/c/arch/ia32/src/entry.o
 .debug_info    0x0000000000000000       0x6c /home/ayyuce/Desktop/HlnOS/HelenOS/uspace/lib/c/arch/ia32/src/entry.o
 .debug_abbrev  0x0000000000000000       0x14 /home/ayyuce/Desktop/HlnOS/HelenOS/uspace/lib/c/arch/ia32/src/entry.o
 .debug_aranges
                0x0000000000000000       0x20 /home/ayyuce/Desktop/HlnOS/HelenOS/uspace/lib/c/arch/ia32/src/entry.o
 .debug_info    0x0000000000000000     0x34fb conn.o
 .debug_abbrev  0x0000000000000000      0x4bd conn.o
 .debug_loc     0x0000000000000000     0x174e conn.o
 .debug_aranges
                0x0000000000000000       0x20 conn.o
 .debug_ranges  0x0000000000000000      0x548 conn.o
 .debug_line    0x0000000000000000      0xa4d conn.o
 .debug_str     0x0000000000000000     0x1404 conn.o
 .comment       0x0000000000000000       0x12 conn.o
 .note.GNU-stack
                0x0000000000000000        0x0 conn.o
 .eh_frame      0x0000000000000000      0x3f4 conn.o
 .debug_info    0x0000000000000000      0xf60 iqueue.o
 .debug_abbrev  0x0000000000000000      0x25c iqueue.o
 .debug_loc     0x0000000000000000      0x23d iqueue.o
 .debug_aranges
                0x0000000000000000       0x20 iqueue.o
 .debug_ranges  0x0000000000000000       0x30 iqueue.o
 .debug_line    0x0000000000000000      0x2fe iqueue.o
 .debug_str     0x0000000000000000      0xc4e iqueue.o
 .comment       0x0000000000000000       0x12 iqueue.o
 .note.GNU-stack
                0x0000000000000000        0x0 iqueue.o
 .eh_frame      0x0000000000000000       0xb8 iqueue.o
 .debug_info    0x0000000000000000      0xb65 ncsim.o
 .debug_abbrev  0x0000000000000000      0x293 ncsim.o
 .debug_loc     0x0000000000000000       0xea ncsim.o
 .debug_aranges
                0x0000000000000000       0x20 ncsim.o
 .debug_ranges  0x0000000000000000       0x30 ncsim.o
 .debug_line    0x0000000000000000      0x2d8 ncsim.o
 .debug_str     0x0000000000000000      0xabf ncsim.o
 .comment       0x0000000000000000       0x12 ncsim.o
 .note.GNU-stack
                0x0000000000000000        0x0 ncsim.o
 .eh_frame      0x0000000000000000       0xa4 ncsim.o
 .debug_info    0x0000000000000000     0x1243 pdu.o
 .debug_abbrev  0x0000000000000000      0x394 pdu.o
 .debug_loc     0x0000000000000000      0xaca pdu.o
 .debug_aranges
                0x0000000000000000       0x20 pdu.o
 .debug_ranges  0x0000000000000000      0x2a8 pdu.o
 .debug_line    0x0000000000000000      0x3ea pdu.o
 .debug_str     0x0000000000000000      0xa88 pdu.o
 .comment       0x0000000000000000       0x12 pdu.o
 .note.GNU-stack
                0x0000000000000000        0x0 pdu.o
 .eh_frame      0x0000000000000000       0xdc pdu.o
 .debug_info    0x0000000000000000      0xc0c rqueue.o
 .debug_abbrev  0x0000000000000000      0x2a3 rqueue.o
 .debug_loc     0x0000000000000000      0x121 rqueue.o
 .debug_aranges
                0x0000000000000000       0x20 rqueue.o
 .debug_ranges  0x0000000000000000       0x20 rqueue.o
 .debug_line    0x0000000000000000      0x2c9 rqueue.o
 .debug_str     0x0000000000000000      0xab6 rqueue.o
 .comment       0x0000000000000000       0x12 rqueue.o
 .note.GNU-stack
                0x0000000000000000        0x0 rqueue.o
 .eh_frame      0x0000000000000000       0xf8 rqueue.o
 .debug_info    0x0000000000000000      0x804 segment.o
 .debug_abbrev  0x0000000000000000      0x247 segment.o
 .debug_loc     0x0000000000000000      0x11b segment.o
 .debug_aranges
                0x0000000000000000       0x20 segment.o
 .debug_ranges  0x0000000000000000       0x80 segment.o
 .debug_line    0x0000000000000000      0x2c9 segment.o
 .debug_str     0x0000000000000000      0x808 segment.o
 .comment       0x0000000000000000       0x12 segment.o
 .note.GNU-stack
                0x0000000000000000        0x0 segment.o
 .eh_frame      0x0000000000000000      0x1d4 segment.o
 .debug_info    0x0000000000000000     0x2f27 service.o
 .debug_abbrev  0x0000000000000000      0x441 service.o
 .debug_loc     0x0000000000000000     0x1e0f service.o
 .debug_aranges
                0x0000000000000000       0x20 service.o
 .debug_ranges  0x0000000000000000      0x468 service.o
 .debug_line    0x0000000000000000      0x694 service.o
 .debug_str     0x0000000000000000     0x14cd service.o
 .comment       0x0000000000000000       0x12 service.o
 .note.GNU-stack
                0x0000000000000000        0x0 service.o
 .eh_frame      0x0000000000000000      0x118 service.o
 .debug_info    0x0000000000000000     0x1396 seq_no.o
 .debug_abbrev  0x0000000000000000      0x278 seq_no.o
 .debug_loc     0x0000000000000000      0xd1d seq_no.o
 .debug_aranges
                0x0000000000000000       0x20 seq_no.o
 .debug_ranges  0x0000000000000000      0x378 seq_no.o
 .debug_line    0x0000000000000000      0x518 seq_no.o
 .debug_str     0x0000000000000000      0xc07 seq_no.o
 .comment       0x0000000000000000       0x12 seq_no.o
 .note.GNU-stack
                0x0000000000000000        0x0 seq_no.o
 .eh_frame      0x0000000000000000      0x254 seq_no.o
 .debug_info    0x0000000000000000      0xc3f tcp.o
 .debug_abbrev  0x0000000000000000      0x2d2 tcp.o
 .debug_loc     0x0000000000000000      0x2a6 tcp.o
 .debug_aranges
                0x0000000000000000       0x28 tcp.o
 .debug_ranges  0x0000000000000000       0x70 tcp.o
 .debug_line    0x0000000000000000      0x362 tcp.o
 .debug_str     0x0000000000000000      0xb6f tcp.o
 .comment       0x0000000000000000       0x12 tcp.o
 .note.GNU-stack
                0x0000000000000000        0x0 tcp.o
 .eh_frame      0x0000000000000000       0xbc tcp.o
 .debug_info    0x0000000000000000      0x378 test.o
 .debug_abbrev  0x0000000000000000      0x114 test.o
 .debug_aranges
                0x0000000000000000       0x20 test.o
 .debug_line    0x0000000000000000      0x153 test.o
 .debug_str     0x0000000000000000      0x690 test.o
 .comment       0x0000000000000000       0x12 test.o
 .note.GNU-stack
                0x0000000000000000        0x0 test.o
 .eh_frame      0x0000000000000000       0x38 test.o
 .debug_info    0x0000000000000000     0x1834 tqueue.o
 .debug_abbrev  0x0000000000000000      0x3a1 tqueue.o
 .debug_loc     0x0000000000000000      0x736 tqueue.o
 .debug_aranges
                0x0000000000000000       0x20 tqueue.o
 .debug_ranges  0x0000000000000000      0x188 tqueue.o
 .debug_line    0x0000000000000000      0x468 tqueue.o
 .debug_str     0x0000000000000000      0xeca tqueue.o
 .comment       0x0000000000000000       0x12 tqueue.o
 .note.GNU-stack
                0x0000000000000000        0x0 tqueue.o
 .eh_frame      0x0000000000000000      0x250 tqueue.o
 .debug_info    0x0000000000000000     0x1211 ucall.o
 .debug_abbrev  0x0000000000000000      0x245 ucall.o
 .debug_loc     0x0000000000000000      0x1c6 ucall.o
 .debug_aranges
                0x0000000000000000       0x20 ucall.o
 .debug_line    0x0000000000000000      0x3a7 ucall.o
 .debug_str     0x0000000000000000      0xe0e ucall.o
 .comment       0x0000000000000000       0x12 ucall.o
 .note.GNU-stack
                0x0000000000000000        0x0 ucall.o
 .eh_frame      0x0000000000000000      0x248 ucall.o
 .debug_info    0x0000000000000000     0x1958 ../../../lib/nettl/libnettl.a(amap.o)
 .debug_abbrev  0x0000000000000000      0x3c5 ../../../lib/nettl/libnettl.a(amap.o)
 .debug_loc     0x0000000000000000      0xcce ../../../lib/nettl/libnettl.a(amap.o)
 .debug_aranges
                0x0000000000000000       0x20 ../../../lib/nettl/libnettl.a(amap.o)
 .debug_ranges  0x0000000000000000      0x1d0 ../../../lib/nettl/libnettl.a(amap.o)
 .debug_line    0x0000000000000000      0x45c ../../../lib/nettl/libnettl.a(amap.o)
 .debug_str     0x0000000000000000      0xb36 ../../../lib/nettl/libnettl.a(amap.o)
 .comment       0x0000000000000000       0x12 ../../../lib/nettl/libnettl.a(amap.o)
 .note.GNU-stack
                0x0000000000000000        0x0 ../../../lib/nettl/libnettl.a(amap.o)
 .eh_frame      0x0000000000000000      0x148 ../../../lib/nettl/libnettl.a(amap.o)
 .debug_info    0x0000000000000000      0x90d ../../../lib/nettl/libnettl.a(portrng.o)
 .debug_abbrev  0x0000000000000000      0x26b ../../../lib/nettl/libnettl.a(portrng.o)
 .debug_loc     0x0000000000000000      0x2f1 ../../../lib/nettl/libnettl.a(portrng.o)
 .debug_aranges
                0x0000000000000000       0x20 ../../../lib/nettl/libnettl.a(portrng.o)
 .debug_ranges  0x0000000000000000       0x68 ../../../lib/nettl/libnettl.a(portrng.o)
 .debug_line    0x0000000000000000      0x283 ../../../lib/nettl/libnettl.a(portrng.o)
 .debug_str     0x0000000000000000      0x89f ../../../lib/nettl/libnettl.a(portrng.o)
 .comment       0x0000000000000000       0x12 ../../../lib/nettl/libnettl.a(portrng.o)
 .note.GNU-stack
                0x0000000000000000        0x0 ../../../lib/nettl/libnettl.a(portrng.o)
 .eh_frame      0x0000000000000000      0x128 ../../../lib/nettl/libnettl.a(portrng.o)

Memory Configuration

Name             Origin             Length             Attributes
*default*        0x0000000000000000 0xffffffffffffffff

Linker script and memory map

LOAD /home/ayyuce/Desktop/HlnOS/HelenOS/uspace/lib/c/arch/ia32/src/entry.o
                0x00000000000010f4                . = (0x1000 + SIZEOF_HEADERS)

.init           0x00000000000010f4       0x2e
 *(.init)
 .init          0x00000000000010f4       0x2e /home/ayyuce/Desktop/HlnOS/HelenOS/uspace/lib/c/arch/ia32/src/entry.o
                0x00000000000010f4                __entry

.text           0x0000000000001130     0x93c4
 *(.text .text.*)
 .text          0x0000000000001130        0x0 /home/ayyuce/Desktop/HlnOS/HelenOS/uspace/lib/c/arch/ia32/src/entry.o
 .text          0x0000000000001130     0x24db conn.o
                0x0000000000001680                tcp_conns_init
                0x00000000000016b0                tcp_conn_new
                0x0000000000001880                tcp_conn_addref
                0x00000000000018b0                tcp_conn_delref
                0x0000000000001960                tcp_conn_lock
                0x0000000000001980                tcp_conn_unlock
                0x00000000000019a0                tcp_conn_delete
                0x0000000000001aa0                tcp_conn_add
                0x0000000000001c20                tcp_conn_remove
                0x0000000000001d20                tcp_conn_sync
                0x0000000000001df0                tcp_conn_fin_sent
                0x0000000000001f30                tcp_conn_find_ref
                0x0000000000001ff0                tcp_conn_reset
                0x0000000000002120                tcp_conn_got_syn
                0x0000000000002190                tcp_conn_segment_arrived
                0x0000000000003500                tcp_conn_trim_seg_to_wnd
                0x0000000000003540                tcp_unexpected_segment
                0x00000000000035a0                tcp_ep2_flipped
                0x00000000000035d0                tcp_reply_rst
 *fill*         0x000000000000360b        0x5 
 .text          0x0000000000003610      0x249 iqueue.o
                0x0000000000003610                tcp_iqueue_init
                0x0000000000003630                tcp_iqueue_insert_seg
                0x00000000000036e0                tcp_iqueue_get_ready_seg
 *fill*         0x0000000000003859        0x7 
 .text          0x0000000000003860      0x1e4 ncsim.o
                0x0000000000003980                tcp_ncsim_init
                0x00000000000039c0                tcp_ncsim_bounce_seg
                0x00000000000039f0                tcp_ncsim_fibril_start
 *fill*         0x0000000000003a44        0xc 
 .text          0x0000000000003a50      0x67e pdu.o
                0x0000000000003a50                tcp_pdu_create
                0x0000000000003b00                tcp_pdu_delete
                0x0000000000003b30                tcp_pdu_decode
                0x0000000000003c70                tcp_pdu_encode
 *fill*         0x00000000000040ce        0x2 
 .text          0x00000000000040d0      0x234 rqueue.o
                0x0000000000004120                tcp_rqueue_init
                0x0000000000004140                tcp_rqueue_bounce_seg
                0x0000000000004230                tcp_rqueue_insert_seg
                0x00000000000042b0                tcp_rqueue_fibril_start
 *fill*         0x0000000000004304        0xc 
 .text          0x0000000000004310      0x424 segment.o
                0x0000000000004310                tcp_segment_new
                0x0000000000004330                tcp_segment_delete
                0x0000000000004360                tcp_segment_dup
                0x00000000000043f0                tcp_segment_make_ctrl
                0x0000000000004430                tcp_segment_make_rst
                0x0000000000004480                tcp_segment_make_data
                0x00000000000044f0                tcp_segment_trim
                0x0000000000004620                tcp_segment_text_copy
                0x0000000000004680                tcp_segment_text_size
                0x00000000000046a0                tcp_segment_dump
 *fill*         0x0000000000004734        0xc 
 .text          0x0000000000004740     0x1198 service.o
                0x0000000000005870                tcp_service_init
 *fill*         0x00000000000058d8        0x8 
 .text          0x00000000000058e0      0x877 seq_no.o
                0x00000000000058e0                seq_no_ack_acceptable
                0x0000000000005920                seq_no_ack_duplicate
                0x0000000000005940                seq_no_in_rcv_wnd
                0x0000000000005980                seq_no_new_wnd_update
                0x0000000000005af0                seq_no_segment_ready
                0x0000000000005c00                seq_no_segment_acked
                0x0000000000005c60                seq_no_syn_acked
                0x0000000000005ca0                seq_no_segment_acceptable
                0x0000000000005d60                seq_no_control_len
                0x0000000000005d80                seq_no_seg_trim_calc
                0x0000000000005f00                seq_no_seg_cmp
 *fill*         0x0000000000006157        0x9 
 .text          0x0000000000006160      0x29a tcp.o
                0x0000000000006300                tcp_transmit_pdu
 *fill*         0x00000000000063fa        0x6 
 .text.startup  0x0000000000006400      0x145 tcp.o
                0x0000000000006400                main
 *fill*         0x0000000000006545        0xb 
 .text          0x0000000000006550       0x21 test.o
                0x0000000000006550                tcp_test
 *fill*         0x0000000000006571        0xf 
 .text          0x0000000000006580      0xa81 tqueue.o
                0x0000000000006580                tcp_tqueue_init
                0x00000000000065c0                tcp_tqueue_clear
                0x0000000000006620                tcp_tqueue_fini
                0x0000000000006650                tcp_tqueue_seg
                0x0000000000006890                tcp_tqueue_ctrl_seg
                0x00000000000068e0                tcp_prepare_transmit_segment
                0x00000000000069f0                tcp_tqueue_new_data
                0x0000000000006b80                tcp_tqueue_ack_received
                0x0000000000006d70                tcp_conn_transmit_segment
                0x0000000000006f60                tcp_transmit_segment
 *fill*         0x0000000000007001        0xf 
 .text          0x0000000000007010      0x729 ucall.o
                0x0000000000007010                tcp_uc_open
                0x00000000000071e0                tcp_uc_send
                0x0000000000007370                tcp_uc_receive
                0x00000000000074e0                tcp_uc_close
                0x00000000000075d0                tcp_uc_abort
                0x00000000000075f0                tcp_uc_status
                0x0000000000007620                tcp_uc_delete
                0x0000000000007650                tcp_uc_set_cb
                0x0000000000007690                tcp_uc_get_userptr
                0x00000000000076a0                tcp_as_segment_arrived
                0x0000000000007720                tcp_to_user
 *fill*         0x0000000000007739        0x7 
 .text          0x0000000000007740      0xb85 ../../../lib/nettl/libnettl.a(amap.o)
                0x0000000000007880                amap_create
                0x0000000000007920                amap_destroy
                0x0000000000007950                amap_insert
                0x0000000000007e00                amap_remove
                0x0000000000008120                amap_find_match
 *fill*         0x00000000000082c5        0xb 
 .text          0x00000000000082d0      0x316 ../../../lib/nettl/libnettl.a(portrng.o)
                0x00000000000082d0                portrng_create
                0x0000000000008320                portrng_destroy
                0x0000000000008360                portrng_alloc
                0x00000000000084e0                portrng_find_port
                0x0000000000008530                portrng_free_port
                0x00000000000085c0                portrng_empty
 *(.rodata .rodata.*)
 *fill*         0x00000000000085e6        0x2 
 .rodata.str1.4
                0x00000000000085e8      0x4de conn.o
 .rodata.str1.1
                0x0000000000008ac6      0x4b4 conn.o
                                        0x4ba (size before relaxing)
 *fill*         0x0000000000008f7a        0x2 
 .rodata        0x0000000000008f7c      0x108 conn.o
 .rodata.str1.1
                0x0000000000009084       0x6e iqueue.o
 *fill*         0x00000000000090f2        0x2 
 .rodata.str1.4
                0x00000000000090f4       0x93 iqueue.o
 .rodata.str1.1
                0x0000000000009187       0x81 ncsim.o
 .rodata.str1.1
                0x0000000000009208       0x1a pdu.o
                                         0x20 (size before relaxing)
 .rodata.str1.1
                0x0000000000009222       0x75 rqueue.o
 *fill*         0x0000000000009297        0x1 
 .rodata.str1.4
                0x0000000000009298       0x43 rqueue.o
 .rodata.str1.1
                0x00000000000092db       0x90 segment.o
 *fill*         0x000000000000936b        0x1 
 .rodata.str1.4
                0x000000000000936c       0x23 segment.o
 .rodata.str1.1
                0x000000000000938f      0x2d9 service.o
                                        0x2df (size before relaxing)
 .rodata.str1.4
                0x0000000000009668      0x21c service.o
 .rodata        0x0000000000009884       0x2c service.o
 .rodata.str1.1
                0x00000000000098b0       0x29 seq_no.o
 *fill*         0x00000000000098d9        0x3 
 .rodata.str1.4
                0x00000000000098dc       0x70 seq_no.o
 .rodata.str1.1
                0x000000000000994c       0xa7 tcp.o
                                         0xb8 (size before relaxing)
 *fill*         0x00000000000099f3        0x1 
 .rodata.str1.4
                0x00000000000099f4      0x1b7 tcp.o
 .rodata.str1.1
                0x0000000000009bab        0xc test.o
 *fill*         0x0000000000009bb7        0x1 
 .rodata.str1.4
                0x0000000000009bb8      0x1d8 tqueue.o
                                        0x1fc (size before relaxing)
 .rodata.str1.1
                0x0000000000009d90       0xdb tqueue.o
                                         0xf6 (size before relaxing)
 .rodata.str1.1
                0x0000000000009e6b      0x163 ucall.o
 *fill*         0x0000000000009fce        0x2 
 .rodata.str1.4
                0x0000000000009fd0      0x107 ucall.o
 *fill*         0x000000000000a0d7        0x1 
 .rodata.str1.4
                0x000000000000a0d8      0x188 ../../../lib/nettl/libnettl.a(amap.o)
 .rodata.str1.1
                0x000000000000a260      0x176 ../../../lib/nettl/libnettl.a(amap.o)
                                        0x183 (size before relaxing)
 .rodata.str1.1
                0x000000000000a3d6       0xfe ../../../lib/nettl/libnettl.a(portrng.o)
                                        0x104 (size before relaxing)
 .rodata.str1.4
                0x000000000000a4d4       0x20 ../../../lib/nettl/libnettl.a(portrng.o)

.rel.plt        0x000000000000a4f4      0x1c8
 *(.rel.plt)
 .rel.plt       0x000000000000a4f4      0x1c8 /home/ayyuce/Desktop/HlnOS/HelenOS/uspace/lib/c/arch/ia32/src/entry.o

.rel.dyn        0x000000000000a6bc       0x10
 *(.rel.*)
 .rel.got       0x000000000000a6bc        0x0 /home/ayyuce/Desktop/HlnOS/HelenOS/uspace/lib/c/arch/ia32/src/entry.o
 .rel.bss       0x000000000000a6bc       0x10 /home/ayyuce/Desktop/HlnOS/HelenOS/uspace/lib/c/arch/ia32/src/entry.o
 .rel.init      0x000000000000a6cc        0x0 /home/ayyuce/Desktop/HlnOS/HelenOS/uspace/lib/c/arch/ia32/src/entry.o
 .rel.text      0x000000000000a6cc        0x0 /home/ayyuce/Desktop/HlnOS/HelenOS/uspace/lib/c/arch/ia32/src/entry.o
 .rel.text.startup
                0x000000000000a6cc        0x0 /home/ayyuce/Desktop/HlnOS/HelenOS/uspace/lib/c/arch/ia32/src/entry.o

.plt            0x000000000000a6d0      0x3a0
 *(.plt)
 .plt           0x000000000000a6d0      0x3a0 /home/ayyuce/Desktop/HlnOS/HelenOS/uspace/lib/c/arch/ia32/src/entry.o
                0x000000000000a6e0                __main
                0x000000000000a6f0                task_retval
                0x000000000000a700                printf
                0x000000000000a710                async_hangup
                0x000000000000a720                memmove
                0x000000000000a730                log_init
                0x000000000000a740                loc_service_register
                0x000000000000a750                async_data_read_finalize
                0x000000000000a760                inet_get_srcaddr
                0x000000000000a770                memcpy
                0x000000000000a780                malloc
                0x000000000000a790                host2addr128_t_be
                0x000000000000a7a0                async_answer_0
                0x000000000000a7b0                fibril_condvar_wait
                0x000000000000a7c0                async_send_fast
                0x000000000000a7d0                log_msg
                0x000000000000a7e0                inet_init
                0x000000000000a7f0                fibril_timer_set_locked
                0x000000000000a800                inet_send
                0x000000000000a810                fibril_timer_destroy
                0x000000000000a820                async_exchange_end
                0x000000000000a830                assert_abort
                0x000000000000a840                calloc
                0x000000000000a850                fibril_condvar_wait_timeout
                0x000000000000a860                fibril_condvar_initialize
                0x000000000000a870                inet_addr_format
                0x000000000000a880                inet_ep2_init
                0x000000000000a890                fibril_condvar_broadcast
                0x000000000000a8a0                fibril_mutex_unlock
                0x000000000000a8b0                fibril_mutex_initialize
                0x000000000000a8c0                prodcons_initialize
                0x000000000000a8d0                inet_addr_get
                0x000000000000a8e0                prodcons_consume
                0x000000000000a8f0                memset
                0x000000000000a900                async_data_read_receive
                0x000000000000a910                async_usleep
                0x000000000000a920                loc_server_register
                0x000000000000a930                inet_addr_compare
                0x000000000000a940                async_get_call_timeout
                0x000000000000a950                list_count
                0x000000000000a960                async_answer_1
                0x000000000000a970                async_exchange_begin
                0x000000000000a980                async_data_write_finalize
                0x000000000000a990                prodcons_produce
                0x000000000000a9a0                async_forget
                0x000000000000a9b0                fibril_create_generic
                0x000000000000a9c0                fibril_add_ready
                0x000000000000a9d0                fibril_switch
                0x000000000000a9e0                __syscall_fast
                0x000000000000a9f0                inet_addr_is_any
                0x000000000000aa00                fibril_timer_create
                0x000000000000aa10                async_set_fallback_port_handler
                0x000000000000aa20                async_data_write_receive
                0x000000000000aa30                fibril_timer_clear_locked
                0x000000000000aa40                async_callback_receive
                0x000000000000aa50                free
                0x000000000000aa60                fibril_mutex_lock

.dynsym         0x000000000000aa70      0x3f0
 *(.dynsym)
 .dynsym        0x000000000000aa70      0x3f0 /home/ayyuce/Desktop/HlnOS/HelenOS/uspace/lib/c/arch/ia32/src/entry.o

.dynstr         0x000000000000ae60      0x413
 *(.dynstr)
 .dynstr        0x000000000000ae60      0x413 /home/ayyuce/Desktop/HlnOS/HelenOS/uspace/lib/c/arch/ia32/src/entry.o

.hash           0x000000000000b274      0x198
 *(.hash)
 .hash          0x000000000000b274      0x198 /home/ayyuce/Desktop/HlnOS/HelenOS/uspace/lib/c/arch/ia32/src/entry.o

.interp         0x000000000000b40c       0x13
 *(.interp)
 .interp        0x000000000000b40c       0x13 /home/ayyuce/Desktop/HlnOS/HelenOS/uspace/lib/c/arch/ia32/src/entry.o
                0x000000000000c41f                . = (. + 0x1000)

.dynamic        0x000000000000c420       0xa8
 *(.dynamic)
 .dynamic       0x000000000000c420       0xa8 /home/ayyuce/Desktop/HlnOS/HelenOS/uspace/lib/c/arch/ia32/src/entry.o
                0x000000000000c420                _DYNAMIC

.data           0x000000000000c4c8       0x2c
 *(.data)
 .data          0x000000000000c4c8        0x0 /home/ayyuce/Desktop/HlnOS/HelenOS/uspace/lib/c/arch/ia32/src/entry.o
 .data          0x000000000000c4c8       0x18 conn.o
 .data          0x000000000000c4e0        0x0 iqueue.o
 .data          0x000000000000c4e0        0x0 ncsim.o
 .data          0x000000000000c4e0        0x0 pdu.o
 .data          0x000000000000c4e0        0x0 rqueue.o
 .data          0x000000000000c4e0        0x0 segment.o
 .data          0x000000000000c4e0       0x10 service.o
 .data          0x000000000000c4f0        0x0 seq_no.o
 .data          0x000000000000c4f0        0x4 tcp.o
 .data          0x000000000000c4f4        0x0 test.o
 .data          0x000000000000c4f4        0x0 tqueue.o
 .data          0x000000000000c4f4        0x0 ucall.o
 .data          0x000000000000c4f4        0x0 ../../../lib/nettl/libnettl.a(amap.o)
 .data          0x000000000000c4f4        0x0 ../../../lib/nettl/libnettl.a(portrng.o)

.data.rel
 *(.data.rel .data.rel.*)

.got            0x000000000000c4f4        0x0
 *(.got)
 .got           0x000000000000c4f4        0x0 /home/ayyuce/Desktop/HlnOS/HelenOS/uspace/lib/c/arch/ia32/src/entry.o

.got.plt        0x000000000000c4f4       0xf0
 *(.got.plt)
 .got.plt       0x000000000000c4f4       0xf0 /home/ayyuce/Desktop/HlnOS/HelenOS/uspace/lib/c/arch/ia32/src/entry.o
                0x000000000000c4f4                _GLOBAL_OFFSET_TABLE_

.tdata
 *(.tdata)
 *(.gnu.linkonce.tb.*)

.tbss
 *(.tbss)

.bss            0x000000000000c600       0x60
 *(.dynbss)
 .dynbss        0x000000000000c600        0x8 /home/ayyuce/Desktop/HlnOS/HelenOS/uspace/lib/c/arch/ia32/src/entry.o
                0x000000000000c600                __syscall_fast_func
                0x000000000000c604                async_futex
 *(COMMON)
 *(.bss)
 .bss           0x000000000000c608        0x0 /home/ayyuce/Desktop/HlnOS/HelenOS/uspace/lib/c/arch/ia32/src/entry.o
 .bss           0x000000000000c608        0x4 conn.o
 .bss           0x000000000000c60c        0x0 iqueue.o
 .bss           0x000000000000c60c       0x20 ncsim.o
 .bss           0x000000000000c62c        0x0 pdu.o
 *fill*         0x000000000000c62c       0x14 
 .bss           0x000000000000c640       0x20 rqueue.o
 .bss           0x000000000000c660        0x0 segment.o
 .bss           0x000000000000c660        0x0 service.o
 .bss           0x000000000000c660        0x0 seq_no.o
 .bss           0x000000000000c660        0x0 tcp.o
 .bss           0x000000000000c660        0x0 test.o
 .bss           0x000000000000c660        0x0 tqueue.o
 .bss           0x000000000000c660        0x0 ucall.o
 .bss           0x000000000000c660        0x0 ../../../lib/nettl/libnettl.a(amap.o)
 .bss           0x000000000000c660        0x0 ../../../lib/nettl/libnettl.a(portrng.o)

/DISCARD/
 *(*)
LOAD conn.o
LOAD iqueue.o
LOAD ncsim.o
LOAD pdu.o
LOAD rqueue.o
LOAD segment.o
LOAD service.o
LOAD seq_no.o
LOAD tcp.o
LOAD test.o
LOAD tqueue.o
LOAD ucall.o
LOAD ../../../lib/nettl/libnettl.a
LOAD ../../../lib/c/libc.so.0
LOAD ../../../lib/softint/libsoftint.so.0
OUTPUT(tcp elf32-i386)
