
tcp:     file format elf32-i386


Disassembly of section .init:

000010f4 <__entry>:
    10f4:	66 8c d0             	mov    %ss,%ax
    10f7:	8e d8                	mov    %eax,%ds
    10f9:	8e c0                	mov    %eax,%es
    10fb:	8e e0                	mov    %eax,%fs
    10fd:	b8 01 00 00 00       	mov    $0x1,%eax
    1102:	0f a2                	cpuid  
    1104:	0f ba e2 0b          	bt     $0xb,%edx
    1108:	73 0c                	jae    1116 <__entry+0x22>
    110a:	8d 05 00 c6 00 00    	lea    0xc600,%eax
    1110:	c7 00 e0 a9 00 00    	movl   $0xa9e0,(%eax)
    1116:	6a 00                	push   $0x0
    1118:	6a 00                	push   $0x0
    111a:	89 e5                	mov    %esp,%ebp
    111c:	57                   	push   %edi
    111d:	e8 be 95 00 00       	call   a6e0 <__main@plt>

Disassembly of section .text:

00001130 <tcp_conn_seg_proc_ack_est>:
    1130:	55                   	push   %ebp
    1131:	89 e5                	mov    %esp,%ebp
    1133:	56                   	push   %esi
    1134:	53                   	push   %ebx
    1135:	89 c3                	mov    %eax,%ebx
    1137:	83 ec 0c             	sub    $0xc,%esp
    113a:	89 d6                	mov    %edx,%esi
    113c:	52                   	push   %edx
    113d:	50                   	push   %eax
    113e:	68 e8 85 00 00       	push   $0x85e8
    1143:	6a 04                	push   $0x4
    1145:	6a ff                	push   $0xffffffff
    1147:	e8 84 96 00 00       	call   a7d0 <log_msg@plt>
    114c:	83 c4 18             	add    $0x18,%esp
    114f:	8b 83 c8 00 00 00    	mov    0xc8(%ebx),%eax
    1155:	50                   	push   %eax
    1156:	8b 83 c4 00 00 00    	mov    0xc4(%ebx),%eax
    115c:	50                   	push   %eax
    115d:	8b 46 08             	mov    0x8(%esi),%eax
    1160:	50                   	push   %eax
    1161:	68 0c 86 00 00       	push   $0x860c
    1166:	6a 04                	push   $0x4
    1168:	6a ff                	push   $0xffffffff
    116a:	e8 61 96 00 00       	call   a7d0 <log_msg@plt>
    116f:	83 c4 18             	add    $0x18,%esp
    1172:	8b 46 08             	mov    0x8(%esi),%eax
    1175:	50                   	push   %eax
    1176:	53                   	push   %ebx
    1177:	e8 64 47 00 00       	call   58e0 <seq_no_ack_acceptable>
    117c:	83 c4 10             	add    $0x10,%esp
    117f:	84 c0                	test   %al,%al
    1181:	74 35                	je     11b8 <tcp_conn_seg_proc_ack_est+0x88>
    1183:	8b 46 08             	mov    0x8(%esi),%eax
    1186:	89 83 c4 00 00 00    	mov    %eax,0xc4(%ebx)
    118c:	50                   	push   %eax
    118d:	50                   	push   %eax
    118e:	56                   	push   %esi
    118f:	53                   	push   %ebx
    1190:	e8 eb 47 00 00       	call   5980 <seq_no_new_wnd_update>
    1195:	83 c4 10             	add    $0x10,%esp
    1198:	84 c0                	test   %al,%al
    119a:	75 64                	jne    1200 <tcp_conn_seg_proc_ack_est+0xd0>
    119c:	83 ec 0c             	sub    $0xc,%esp
    119f:	53                   	push   %ebx
    11a0:	e8 db 59 00 00       	call   6b80 <tcp_tqueue_ack_received>
    11a5:	83 c4 10             	add    $0x10,%esp
    11a8:	8d 65 f8             	lea    -0x8(%ebp),%esp
    11ab:	31 c0                	xor    %eax,%eax
    11ad:	5b                   	pop    %ebx
    11ae:	5e                   	pop    %esi
    11af:	5d                   	pop    %ebp
    11b0:	c3                   	ret    
    11b1:	8d b4 26 00 00 00 00 	lea    0x0(%esi,%eiz,1),%esi
    11b8:	51                   	push   %ecx
    11b9:	68 c6 8a 00 00       	push   $0x8ac6
    11be:	6a 04                	push   $0x4
    11c0:	6a ff                	push   $0xffffffff
    11c2:	e8 09 96 00 00       	call   a7d0 <log_msg@plt>
    11c7:	8b 4e 08             	mov    0x8(%esi),%ecx
    11ca:	58                   	pop    %eax
    11cb:	5a                   	pop    %edx
    11cc:	51                   	push   %ecx
    11cd:	53                   	push   %ebx
    11ce:	e8 4d 47 00 00       	call   5920 <seq_no_ack_duplicate>
    11d3:	83 c4 10             	add    $0x10,%esp
    11d6:	84 c0                	test   %al,%al
    11d8:	74 5e                	je     1238 <tcp_conn_seg_proc_ack_est+0x108>
    11da:	50                   	push   %eax
    11db:	68 da 8a 00 00       	push   $0x8ada
    11e0:	6a 04                	push   $0x4
    11e2:	6a ff                	push   $0xffffffff
    11e4:	e8 e7 95 00 00       	call   a7d0 <log_msg@plt>
    11e9:	83 c4 10             	add    $0x10,%esp
    11ec:	50                   	push   %eax
    11ed:	50                   	push   %eax
    11ee:	56                   	push   %esi
    11ef:	53                   	push   %ebx
    11f0:	e8 8b 47 00 00       	call   5980 <seq_no_new_wnd_update>
    11f5:	83 c4 10             	add    $0x10,%esp
    11f8:	84 c0                	test   %al,%al
    11fa:	74 a0                	je     119c <tcp_conn_seg_proc_ack_est+0x6c>
    11fc:	8d 74 26 00          	lea    0x0(%esi,%eiz,1),%esi
    1200:	8b 46 10             	mov    0x10(%esi),%eax
    1203:	8b 56 04             	mov    0x4(%esi),%edx
    1206:	8b 4e 08             	mov    0x8(%esi),%ecx
    1209:	89 83 cc 00 00 00    	mov    %eax,0xcc(%ebx)
    120f:	89 93 d4 00 00 00    	mov    %edx,0xd4(%ebx)
    1215:	56                   	push   %esi
    1216:	89 8b d8 00 00 00    	mov    %ecx,0xd8(%ebx)
    121c:	56                   	push   %esi
    121d:	51                   	push   %ecx
    121e:	52                   	push   %edx
    121f:	50                   	push   %eax
    1220:	68 64 86 00 00       	push   $0x8664
    1225:	6a 04                	push   $0x4
    1227:	6a ff                	push   $0xffffffff
    1229:	e8 a2 95 00 00       	call   a7d0 <log_msg@plt>
    122e:	83 c4 20             	add    $0x20,%esp
    1231:	e9 66 ff ff ff       	jmp    119c <tcp_conn_seg_proc_ack_est+0x6c>
    1236:	66 90                	xchg   %ax,%ax
    1238:	50                   	push   %eax
    1239:	68 30 86 00 00       	push   $0x8630
    123e:	6a 02                	push   $0x2
    1240:	6a ff                	push   $0xffffffff
    1242:	e8 89 95 00 00       	call   a7d0 <log_msg@plt>
    1247:	58                   	pop    %eax
    1248:	5a                   	pop    %edx
    1249:	6a 08                	push   $0x8
    124b:	53                   	push   %ebx
    124c:	e8 3f 56 00 00       	call   6890 <tcp_tqueue_ctrl_seg>
    1251:	89 34 24             	mov    %esi,(%esp)
    1254:	e8 d7 30 00 00       	call   4330 <tcp_segment_delete>
    1259:	83 c4 10             	add    $0x10,%esp
    125c:	8d 65 f8             	lea    -0x8(%ebp),%esp
    125f:	b8 01 00 00 00       	mov    $0x1,%eax
    1264:	5b                   	pop    %ebx
    1265:	5e                   	pop    %esi
    1266:	5d                   	pop    %ebp
    1267:	c3                   	ret    
    1268:	90                   	nop
    1269:	8d b4 26 00 00 00 00 	lea    0x0(%esi,%eiz,1),%esi

00001270 <tcp_conn_state_set>:
    1270:	55                   	push   %ebp
    1271:	89 e5                	mov    %esp,%ebp
    1273:	57                   	push   %edi
    1274:	56                   	push   %esi
    1275:	53                   	push   %ebx
    1276:	83 ec 0c             	sub    $0xc,%esp
    1279:	89 c3                	mov    %eax,%ebx
    127b:	89 d6                	mov    %edx,%esi
    127d:	50                   	push   %eax
    127e:	68 f2 8a 00 00       	push   $0x8af2
    1283:	6a 04                	push   $0x4
    1285:	6a ff                	push   $0xffffffff
    1287:	e8 44 95 00 00       	call   a7d0 <log_msg@plt>
    128c:	8d 43 68             	lea    0x68(%ebx),%eax
    128f:	8b 7b 60             	mov    0x60(%ebx),%edi
    1292:	89 73 60             	mov    %esi,0x60(%ebx)
    1295:	89 04 24             	mov    %eax,(%esp)
    1298:	e8 f3 95 00 00       	call   a890 <fibril_condvar_broadcast@plt>
    129d:	8b 43 0c             	mov    0xc(%ebx),%eax
    12a0:	83 c4 10             	add    $0x10,%esp
    12a3:	85 c0                	test   %eax,%eax
    12a5:	74 41                	je     12e8 <tcp_conn_state_set+0x78>
    12a7:	8b 08                	mov    (%eax),%ecx
    12a9:	85 c9                	test   %ecx,%ecx
    12ab:	74 3b                	je     12e8 <tcp_conn_state_set+0x78>
    12ad:	50                   	push   %eax
    12ae:	68 a0 86 00 00       	push   $0x86a0
    12b3:	6a 04                	push   $0x4
    12b5:	6a ff                	push   $0xffffffff
    12b7:	e8 14 95 00 00       	call   a7d0 <log_msg@plt>
    12bc:	83 c4 0c             	add    $0xc,%esp
    12bf:	8b 53 10             	mov    0x10(%ebx),%edx
    12c2:	8b 43 0c             	mov    0xc(%ebx),%eax
    12c5:	57                   	push   %edi
    12c6:	52                   	push   %edx
    12c7:	53                   	push   %ebx
    12c8:	ff 10                	call   *(%eax)
    12ca:	83 c4 10             	add    $0x10,%esp
    12cd:	83 ff 0a             	cmp    $0xa,%edi
    12d0:	0f 84 c4 01 00 00    	je     149a <tcp_conn_state_set+0x22a>
    12d6:	83 fe 0a             	cmp    $0xa,%esi
    12d9:	74 25                	je     1300 <tcp_conn_state_set+0x90>
    12db:	8d 65 f4             	lea    -0xc(%ebp),%esp
    12de:	5b                   	pop    %ebx
    12df:	5e                   	pop    %esi
    12e0:	5f                   	pop    %edi
    12e1:	5d                   	pop    %ebp
    12e2:	c3                   	ret    
    12e3:	90                   	nop
    12e4:	8d 74 26 00          	lea    0x0(%esi,%eiz,1),%esi
    12e8:	50                   	push   %eax
    12e9:	68 c4 86 00 00       	push   $0x86c4
    12ee:	6a 04                	push   $0x4
    12f0:	6a ff                	push   $0xffffffff
    12f2:	e8 d9 94 00 00       	call   a7d0 <log_msg@plt>
    12f7:	83 c4 10             	add    $0x10,%esp
    12fa:	eb d1                	jmp    12cd <tcp_conn_state_set+0x5d>
    12fc:	8d 74 26 00          	lea    0x0(%esi,%eiz,1),%esi
    1300:	83 ec 0c             	sub    $0xc,%esp
    1303:	68 c8 c4 00 00       	push   $0xc4c8
    1308:	e8 53 97 00 00       	call   aa60 <fibril_mutex_lock@plt>
    130d:	8d 43 14             	lea    0x14(%ebx),%eax
    1310:	5e                   	pop    %esi
    1311:	5f                   	pop    %edi
    1312:	50                   	push   %eax
    1313:	a1 08 c6 00 00       	mov    0xc608,%eax
    1318:	50                   	push   %eax
    1319:	e8 e2 6a 00 00       	call   7e00 <amap_remove>
    131e:	8b 53 04             	mov    0x4(%ebx),%edx
    1321:	83 c4 10             	add    $0x10,%esp
    1324:	85 d2                	test   %edx,%edx
    1326:	74 0f                	je     1337 <tcp_conn_state_set+0xc7>
    1328:	8b 43 08             	mov    0x8(%ebx),%eax
    132b:	85 c0                	test   %eax,%eax
    132d:	74 08                	je     1337 <tcp_conn_state_set+0xc7>
    132f:	89 10                	mov    %edx,(%eax)
    1331:	8b 53 04             	mov    0x4(%ebx),%edx
    1334:	89 42 04             	mov    %eax,0x4(%edx)
    1337:	83 ec 0c             	sub    $0xc,%esp
    133a:	c7 43 04 00 00 00 00 	movl   $0x0,0x4(%ebx)
    1341:	c7 43 08 00 00 00 00 	movl   $0x0,0x8(%ebx)
    1348:	68 c8 c4 00 00       	push   $0xc4c8
    134d:	e8 4e 95 00 00       	call   a8a0 <fibril_mutex_unlock@plt>
    1352:	8b 43 5c             	mov    0x5c(%ebx),%eax
    1355:	8b 0b                	mov    (%ebx),%ecx
    1357:	5f                   	pop    %edi
    1358:	5a                   	pop    %edx
    1359:	50                   	push   %eax
    135a:	53                   	push   %ebx
    135b:	51                   	push   %ecx
    135c:	68 e8 86 00 00       	push   $0x86e8
    1361:	6a 05                	push   $0x5
    1363:	6a ff                	push   $0xffffffff
    1365:	e8 66 94 00 00       	call   a7d0 <log_msg@plt>
    136a:	83 c8 ff             	or     $0xffffffff,%eax
    136d:	f0 0f c1 43 5c       	lock xadd %eax,0x5c(%ebx)
    1372:	83 c4 20             	add    $0x20,%esp
    1375:	48                   	dec    %eax
    1376:	0f 84 a4 00 00 00    	je     1420 <tcp_conn_state_set+0x1b0>
    137c:	8b 43 5c             	mov    0x5c(%ebx),%eax
    137f:	8b 0b                	mov    (%ebx),%ecx
    1381:	52                   	push   %edx
    1382:	52                   	push   %edx
    1383:	50                   	push   %eax
    1384:	53                   	push   %ebx
    1385:	51                   	push   %ecx
    1386:	68 e8 86 00 00       	push   $0x86e8
    138b:	6a 05                	push   $0x5
    138d:	6a ff                	push   $0xffffffff
    138f:	e8 3c 94 00 00       	call   a7d0 <log_msg@plt>
    1394:	83 c8 ff             	or     $0xffffffff,%eax
    1397:	f0 0f c1 43 5c       	lock xadd %eax,0x5c(%ebx)
    139c:	83 c4 20             	add    $0x20,%esp
    139f:	48                   	dec    %eax
    13a0:	0f 85 35 ff ff ff    	jne    12db <tcp_conn_state_set+0x6b>
    13a6:	83 ec 0c             	sub    $0xc,%esp
    13a9:	8b 03                	mov    (%ebx),%eax
    13ab:	53                   	push   %ebx
    13ac:	50                   	push   %eax
    13ad:	68 27 8b 00 00       	push   $0x8b27
    13b2:	6a 04                	push   $0x4
    13b4:	6a ff                	push   $0xffffffff
    13b6:	e8 15 94 00 00       	call   a7d0 <log_msg@plt>
    13bb:	83 c4 14             	add    $0x14,%esp
    13be:	8d 83 80 00 00 00    	lea    0x80(%ebx),%eax
    13c4:	50                   	push   %eax
    13c5:	e8 56 52 00 00       	call   6620 <tcp_tqueue_fini>
    13ca:	8b 83 94 00 00 00    	mov    0x94(%ebx),%eax
    13d0:	83 c4 10             	add    $0x10,%esp
    13d3:	85 c0                	test   %eax,%eax
    13d5:	74 0c                	je     13e3 <tcp_conn_state_set+0x173>
    13d7:	83 ec 0c             	sub    $0xc,%esp
    13da:	50                   	push   %eax
    13db:	e8 70 96 00 00       	call   aa50 <free@plt>
    13e0:	83 c4 10             	add    $0x10,%esp
    13e3:	8b 83 ac 00 00 00    	mov    0xac(%ebx),%eax
    13e9:	85 c0                	test   %eax,%eax
    13eb:	74 0c                	je     13f9 <tcp_conn_state_set+0x189>
    13ed:	83 ec 0c             	sub    $0xc,%esp
    13f0:	50                   	push   %eax
    13f1:	e8 5a 96 00 00       	call   aa50 <free@plt>
    13f6:	83 c4 10             	add    $0x10,%esp
    13f9:	8b 83 90 00 00 00    	mov    0x90(%ebx),%eax
    13ff:	85 c0                	test   %eax,%eax
    1401:	74 0c                	je     140f <tcp_conn_state_set+0x19f>
    1403:	83 ec 0c             	sub    $0xc,%esp
    1406:	50                   	push   %eax
    1407:	e8 04 94 00 00       	call   a810 <fibril_timer_destroy@plt>
    140c:	83 c4 10             	add    $0x10,%esp
    140f:	83 ec 0c             	sub    $0xc,%esp
    1412:	53                   	push   %ebx
    1413:	e8 38 96 00 00       	call   aa50 <free@plt>
    1418:	83 c4 10             	add    $0x10,%esp
    141b:	e9 bb fe ff ff       	jmp    12db <tcp_conn_state_set+0x6b>
    1420:	83 ec 0c             	sub    $0xc,%esp
    1423:	8b 33                	mov    (%ebx),%esi
    1425:	53                   	push   %ebx
    1426:	56                   	push   %esi
    1427:	68 27 8b 00 00       	push   $0x8b27
    142c:	6a 04                	push   $0x4
    142e:	6a ff                	push   $0xffffffff
    1430:	e8 9b 93 00 00       	call   a7d0 <log_msg@plt>
    1435:	83 c4 14             	add    $0x14,%esp
    1438:	8d 83 80 00 00 00    	lea    0x80(%ebx),%eax
    143e:	50                   	push   %eax
    143f:	e8 dc 51 00 00       	call   6620 <tcp_tqueue_fini>
    1444:	8b 83 94 00 00 00    	mov    0x94(%ebx),%eax
    144a:	83 c4 10             	add    $0x10,%esp
    144d:	85 c0                	test   %eax,%eax
    144f:	74 0c                	je     145d <tcp_conn_state_set+0x1ed>
    1451:	83 ec 0c             	sub    $0xc,%esp
    1454:	50                   	push   %eax
    1455:	e8 f6 95 00 00       	call   aa50 <free@plt>
    145a:	83 c4 10             	add    $0x10,%esp
    145d:	8b 83 ac 00 00 00    	mov    0xac(%ebx),%eax
    1463:	85 c0                	test   %eax,%eax
    1465:	74 0c                	je     1473 <tcp_conn_state_set+0x203>
    1467:	83 ec 0c             	sub    $0xc,%esp
    146a:	50                   	push   %eax
    146b:	e8 e0 95 00 00       	call   aa50 <free@plt>
    1470:	83 c4 10             	add    $0x10,%esp
    1473:	8b 83 90 00 00 00    	mov    0x90(%ebx),%eax
    1479:	85 c0                	test   %eax,%eax
    147b:	74 0c                	je     1489 <tcp_conn_state_set+0x219>
    147d:	83 ec 0c             	sub    $0xc,%esp
    1480:	50                   	push   %eax
    1481:	e8 8a 93 00 00       	call   a810 <fibril_timer_destroy@plt>
    1486:	83 c4 10             	add    $0x10,%esp
    1489:	83 ec 0c             	sub    $0xc,%esp
    148c:	53                   	push   %ebx
    148d:	e8 be 95 00 00       	call   aa50 <free@plt>
    1492:	83 c4 10             	add    $0x10,%esp
    1495:	e9 e2 fe ff ff       	jmp    137c <tcp_conn_state_set+0x10c>
    149a:	50                   	push   %eax
    149b:	68 42 01 00 00       	push   $0x142
    14a0:	68 09 8b 00 00       	push   $0x8b09
    14a5:	68 10 8b 00 00       	push   $0x8b10
    14aa:	e8 81 93 00 00       	call   a830 <assert_abort@plt>
    14af:	90                   	nop

000014b0 <tw_timeout_func>:
    14b0:	55                   	push   %ebp
    14b1:	89 e5                	mov    %esp,%ebp
    14b3:	56                   	push   %esi
    14b4:	53                   	push   %ebx
    14b5:	8b 5d 08             	mov    0x8(%ebp),%ebx
    14b8:	53                   	push   %ebx
    14b9:	68 3d 8b 00 00       	push   $0x8b3d
    14be:	8d 73 4c             	lea    0x4c(%ebx),%esi
    14c1:	6a 04                	push   $0x4
    14c3:	6a ff                	push   $0xffffffff
    14c5:	e8 06 93 00 00       	call   a7d0 <log_msg@plt>
    14ca:	89 34 24             	mov    %esi,(%esp)
    14cd:	e8 8e 95 00 00       	call   aa60 <fibril_mutex_lock@plt>
    14d2:	83 c4 10             	add    $0x10,%esp
    14d5:	83 7b 60 0a          	cmpl   $0xa,0x60(%ebx)
    14d9:	74 6d                	je     1548 <tw_timeout_func+0x98>
    14db:	8b 13                	mov    (%ebx),%edx
    14dd:	52                   	push   %edx
    14de:	68 6c 8b 00 00       	push   $0x8b6c
    14e3:	6a 04                	push   $0x4
    14e5:	6a ff                	push   $0xffffffff
    14e7:	e8 e4 92 00 00       	call   a7d0 <log_msg@plt>
    14ec:	ba 0a 00 00 00       	mov    $0xa,%edx
    14f1:	89 d8                	mov    %ebx,%eax
    14f3:	e8 78 fd ff ff       	call   1270 <tcp_conn_state_set>
    14f8:	89 34 24             	mov    %esi,(%esp)
    14fb:	e8 a0 93 00 00       	call   a8a0 <fibril_mutex_unlock@plt>
    1500:	8b 43 5c             	mov    0x5c(%ebx),%eax
    1503:	59                   	pop    %ecx
    1504:	5e                   	pop    %esi
    1505:	50                   	push   %eax
    1506:	53                   	push   %ebx
    1507:	8b 03                	mov    (%ebx),%eax
    1509:	50                   	push   %eax
    150a:	68 e8 86 00 00       	push   $0x86e8
    150f:	6a 05                	push   $0x5
    1511:	6a ff                	push   $0xffffffff
    1513:	e8 b8 92 00 00       	call   a7d0 <log_msg@plt>
    1518:	83 c8 ff             	or     $0xffffffff,%eax
    151b:	f0 0f c1 43 5c       	lock xadd %eax,0x5c(%ebx)
    1520:	83 c4 20             	add    $0x20,%esp
    1523:	48                   	dec    %eax
    1524:	0f 84 d6 00 00 00    	je     1600 <tw_timeout_func+0x150>
    152a:	53                   	push   %ebx
    152b:	68 85 8b 00 00       	push   $0x8b85
    1530:	6a 04                	push   $0x4
    1532:	6a ff                	push   $0xffffffff
    1534:	e8 97 92 00 00       	call   a7d0 <log_msg@plt>
    1539:	83 c4 10             	add    $0x10,%esp
    153c:	8d 65 f8             	lea    -0x8(%ebp),%esp
    153f:	5b                   	pop    %ebx
    1540:	5e                   	pop    %esi
    1541:	5d                   	pop    %ebp
    1542:	c3                   	ret    
    1543:	90                   	nop
    1544:	8d 74 26 00          	lea    0x0(%esi,%eiz,1),%esi
    1548:	50                   	push   %eax
    1549:	68 51 8b 00 00       	push   $0x8b51
    154e:	6a 04                	push   $0x4
    1550:	6a ff                	push   $0xffffffff
    1552:	e8 79 92 00 00       	call   a7d0 <log_msg@plt>
    1557:	89 34 24             	mov    %esi,(%esp)
    155a:	e8 41 93 00 00       	call   a8a0 <fibril_mutex_unlock@plt>
    155f:	8b 43 5c             	mov    0x5c(%ebx),%eax
    1562:	5a                   	pop    %edx
    1563:	59                   	pop    %ecx
    1564:	50                   	push   %eax
    1565:	53                   	push   %ebx
    1566:	8b 33                	mov    (%ebx),%esi
    1568:	56                   	push   %esi
    1569:	68 e8 86 00 00       	push   $0x86e8
    156e:	6a 05                	push   $0x5
    1570:	6a ff                	push   $0xffffffff
    1572:	e8 59 92 00 00       	call   a7d0 <log_msg@plt>
    1577:	83 c8 ff             	or     $0xffffffff,%eax
    157a:	f0 0f c1 43 5c       	lock xadd %eax,0x5c(%ebx)
    157f:	83 c4 20             	add    $0x20,%esp
    1582:	48                   	dec    %eax
    1583:	75 b7                	jne    153c <tw_timeout_func+0x8c>
    1585:	83 ec 0c             	sub    $0xc,%esp
    1588:	53                   	push   %ebx
    1589:	8b 03                	mov    (%ebx),%eax
    158b:	50                   	push   %eax
    158c:	68 27 8b 00 00       	push   $0x8b27
    1591:	6a 04                	push   $0x4
    1593:	6a ff                	push   $0xffffffff
    1595:	e8 36 92 00 00       	call   a7d0 <log_msg@plt>
    159a:	83 c4 14             	add    $0x14,%esp
    159d:	8d 83 80 00 00 00    	lea    0x80(%ebx),%eax
    15a3:	50                   	push   %eax
    15a4:	e8 77 50 00 00       	call   6620 <tcp_tqueue_fini>
    15a9:	8b 83 94 00 00 00    	mov    0x94(%ebx),%eax
    15af:	83 c4 10             	add    $0x10,%esp
    15b2:	85 c0                	test   %eax,%eax
    15b4:	74 0c                	je     15c2 <tw_timeout_func+0x112>
    15b6:	83 ec 0c             	sub    $0xc,%esp
    15b9:	50                   	push   %eax
    15ba:	e8 91 94 00 00       	call   aa50 <free@plt>
    15bf:	83 c4 10             	add    $0x10,%esp
    15c2:	8b 83 ac 00 00 00    	mov    0xac(%ebx),%eax
    15c8:	85 c0                	test   %eax,%eax
    15ca:	74 0c                	je     15d8 <tw_timeout_func+0x128>
    15cc:	83 ec 0c             	sub    $0xc,%esp
    15cf:	50                   	push   %eax
    15d0:	e8 7b 94 00 00       	call   aa50 <free@plt>
    15d5:	83 c4 10             	add    $0x10,%esp
    15d8:	8b 83 90 00 00 00    	mov    0x90(%ebx),%eax
    15de:	85 c0                	test   %eax,%eax
    15e0:	74 0c                	je     15ee <tw_timeout_func+0x13e>
    15e2:	83 ec 0c             	sub    $0xc,%esp
    15e5:	50                   	push   %eax
    15e6:	e8 25 92 00 00       	call   a810 <fibril_timer_destroy@plt>
    15eb:	83 c4 10             	add    $0x10,%esp
    15ee:	89 5d 08             	mov    %ebx,0x8(%ebp)
    15f1:	8d 65 f8             	lea    -0x8(%ebp),%esp
    15f4:	5b                   	pop    %ebx
    15f5:	5e                   	pop    %esi
    15f6:	5d                   	pop    %ebp
    15f7:	e9 54 94 00 00       	jmp    aa50 <free@plt>
    15fc:	8d 74 26 00          	lea    0x0(%esi,%eiz,1),%esi
    1600:	83 ec 0c             	sub    $0xc,%esp
    1603:	53                   	push   %ebx
    1604:	8b 03                	mov    (%ebx),%eax
    1606:	50                   	push   %eax
    1607:	68 27 8b 00 00       	push   $0x8b27
    160c:	6a 04                	push   $0x4
    160e:	6a ff                	push   $0xffffffff
    1610:	e8 bb 91 00 00       	call   a7d0 <log_msg@plt>
    1615:	83 c4 14             	add    $0x14,%esp
    1618:	8d 83 80 00 00 00    	lea    0x80(%ebx),%eax
    161e:	50                   	push   %eax
    161f:	e8 fc 4f 00 00       	call   6620 <tcp_tqueue_fini>
    1624:	8b 83 94 00 00 00    	mov    0x94(%ebx),%eax
    162a:	83 c4 10             	add    $0x10,%esp
    162d:	85 c0                	test   %eax,%eax
    162f:	74 0c                	je     163d <tw_timeout_func+0x18d>
    1631:	83 ec 0c             	sub    $0xc,%esp
    1634:	50                   	push   %eax
    1635:	e8 16 94 00 00       	call   aa50 <free@plt>
    163a:	83 c4 10             	add    $0x10,%esp
    163d:	8b 83 ac 00 00 00    	mov    0xac(%ebx),%eax
    1643:	85 c0                	test   %eax,%eax
    1645:	74 0c                	je     1653 <tw_timeout_func+0x1a3>
    1647:	83 ec 0c             	sub    $0xc,%esp
    164a:	50                   	push   %eax
    164b:	e8 00 94 00 00       	call   aa50 <free@plt>
    1650:	83 c4 10             	add    $0x10,%esp
    1653:	8b 83 90 00 00 00    	mov    0x90(%ebx),%eax
    1659:	85 c0                	test   %eax,%eax
    165b:	74 0c                	je     1669 <tw_timeout_func+0x1b9>
    165d:	83 ec 0c             	sub    $0xc,%esp
    1660:	50                   	push   %eax
    1661:	e8 aa 91 00 00       	call   a810 <fibril_timer_destroy@plt>
    1666:	83 c4 10             	add    $0x10,%esp
    1669:	83 ec 0c             	sub    $0xc,%esp
    166c:	53                   	push   %ebx
    166d:	e8 de 93 00 00       	call   aa50 <free@plt>
    1672:	83 c4 10             	add    $0x10,%esp
    1675:	e9 b0 fe ff ff       	jmp    152a <tw_timeout_func+0x7a>
    167a:	8d b6 00 00 00 00    	lea    0x0(%esi),%esi

00001680 <tcp_conns_init>:
    1680:	55                   	push   %ebp
    1681:	89 e5                	mov    %esp,%ebp
    1683:	83 ec 14             	sub    $0x14,%esp
    1686:	68 08 c6 00 00       	push   $0xc608
    168b:	e8 f0 61 00 00       	call   7880 <amap_create>
    1690:	83 c4 10             	add    $0x10,%esp
    1693:	85 c0                	test   %eax,%eax
    1695:	74 05                	je     169c <tcp_conns_init+0x1c>
    1697:	83 f8 fe             	cmp    $0xfffffffe,%eax
    169a:	75 02                	jne    169e <tcp_conns_init+0x1e>
    169c:	c9                   	leave  
    169d:	c3                   	ret    
    169e:	50                   	push   %eax
    169f:	6a 4b                	push   $0x4b
    16a1:	68 09 8b 00 00       	push   $0x8b09
    16a6:	68 9d 8b 00 00       	push   $0x8b9d
    16ab:	e8 80 91 00 00       	call   a830 <assert_abort@plt>

000016b0 <tcp_conn_new>:
    16b0:	55                   	push   %ebp
    16b1:	89 e5                	mov    %esp,%ebp
    16b3:	57                   	push   %edi
    16b4:	56                   	push   %esi
    16b5:	53                   	push   %ebx
    16b6:	83 ec 14             	sub    $0x14,%esp
    16b9:	68 f0 00 00 00       	push   $0xf0
    16be:	6a 01                	push   $0x1
    16c0:	e8 7b 91 00 00       	call   a840 <calloc@plt>
    16c5:	83 c4 10             	add    $0x10,%esp
    16c8:	89 c3                	mov    %eax,%ebx
    16ca:	85 c0                	test   %eax,%eax
    16cc:	0f 84 3c 01 00 00    	je     180e <tcp_conn_new+0x15e>
    16d2:	83 ec 0c             	sub    $0xc,%esp
    16d5:	8d 70 4c             	lea    0x4c(%eax),%esi
    16d8:	56                   	push   %esi
    16d9:	e8 d2 91 00 00       	call   a8b0 <fibril_mutex_initialize@plt>
    16de:	89 34 24             	mov    %esi,(%esp)
    16e1:	e8 1a 93 00 00       	call   aa00 <fibril_timer_create@plt>
    16e6:	83 c4 10             	add    $0x10,%esp
    16e9:	89 83 90 00 00 00    	mov    %eax,0x90(%ebx)
    16ef:	85 c0                	test   %eax,%eax
    16f1:	0f 84 c7 00 00 00    	je     17be <tcp_conn_new+0x10e>
    16f7:	83 ec 0c             	sub    $0xc,%esp
    16fa:	8d 83 a4 00 00 00    	lea    0xa4(%ebx),%eax
    1700:	c7 43 5c 02 00 00 00 	movl   $0x2,0x5c(%ebx)
    1707:	50                   	push   %eax
    1708:	e8 53 91 00 00       	call   a860 <fibril_condvar_initialize@plt>
    170d:	c7 83 98 00 00 00 00 	movl   $0x1000,0x98(%ebx)
    1714:	10 00 00 
    1717:	c7 83 9c 00 00 00 00 	movl   $0x0,0x9c(%ebx)
    171e:	00 00 00 
    1721:	c6 83 a0 00 00 00 00 	movb   $0x0,0xa0(%ebx)
    1728:	58                   	pop    %eax
    1729:	5a                   	pop    %edx
    172a:	68 00 10 00 00       	push   $0x1000
    172f:	6a 01                	push   $0x1
    1731:	e8 0a 91 00 00       	call   a840 <calloc@plt>
    1736:	83 c4 10             	add    $0x10,%esp
    1739:	89 83 94 00 00 00    	mov    %eax,0x94(%ebx)
    173f:	85 c0                	test   %eax,%eax
    1741:	0f 84 8d 00 00 00    	je     17d4 <tcp_conn_new+0x124>
    1747:	83 ec 0c             	sub    $0xc,%esp
    174a:	8d 83 bc 00 00 00    	lea    0xbc(%ebx),%eax
    1750:	50                   	push   %eax
    1751:	e8 0a 91 00 00       	call   a860 <fibril_condvar_initialize@plt>
    1756:	c7 83 b0 00 00 00 00 	movl   $0x1000,0xb0(%ebx)
    175d:	10 00 00 
    1760:	c7 83 b4 00 00 00 00 	movl   $0x0,0xb4(%ebx)
    1767:	00 00 00 
    176a:	c6 83 b8 00 00 00 00 	movb   $0x0,0xb8(%ebx)
    1771:	5f                   	pop    %edi
    1772:	58                   	pop    %eax
    1773:	68 00 10 00 00       	push   $0x1000
    1778:	6a 01                	push   $0x1
    177a:	e8 c1 90 00 00       	call   a840 <calloc@plt>
    177f:	83 c4 10             	add    $0x10,%esp
    1782:	89 83 ac 00 00 00    	mov    %eax,0xac(%ebx)
    1788:	85 c0                	test   %eax,%eax
    178a:	0f 84 d0 00 00 00    	je     1860 <tcp_conn_new+0x1b0>
    1790:	8b 83 98 00 00 00    	mov    0x98(%ebx),%eax
    1796:	89 83 e4 00 00 00    	mov    %eax,0xe4(%ebx)
    179c:	8d 43 74             	lea    0x74(%ebx),%eax
    179f:	52                   	push   %edx
    17a0:	52                   	push   %edx
    17a1:	53                   	push   %ebx
    17a2:	50                   	push   %eax
    17a3:	e8 68 1e 00 00       	call   3610 <tcp_iqueue_init>
    17a8:	8d 83 80 00 00 00    	lea    0x80(%ebx),%eax
    17ae:	59                   	pop    %ecx
    17af:	5e                   	pop    %esi
    17b0:	53                   	push   %ebx
    17b1:	50                   	push   %eax
    17b2:	e8 c9 4d 00 00       	call   6580 <tcp_tqueue_init>
    17b7:	83 c4 10             	add    $0x10,%esp
    17ba:	85 c0                	test   %eax,%eax
    17bc:	74 5a                	je     1818 <tcp_conn_new+0x168>
    17be:	8b 83 94 00 00 00    	mov    0x94(%ebx),%eax
    17c4:	85 c0                	test   %eax,%eax
    17c6:	74 0c                	je     17d4 <tcp_conn_new+0x124>
    17c8:	83 ec 0c             	sub    $0xc,%esp
    17cb:	50                   	push   %eax
    17cc:	e8 7f 92 00 00       	call   aa50 <free@plt>
    17d1:	83 c4 10             	add    $0x10,%esp
    17d4:	8b 83 ac 00 00 00    	mov    0xac(%ebx),%eax
    17da:	85 c0                	test   %eax,%eax
    17dc:	74 0c                	je     17ea <tcp_conn_new+0x13a>
    17de:	83 ec 0c             	sub    $0xc,%esp
    17e1:	50                   	push   %eax
    17e2:	e8 69 92 00 00       	call   aa50 <free@plt>
    17e7:	83 c4 10             	add    $0x10,%esp
    17ea:	8b 83 90 00 00 00    	mov    0x90(%ebx),%eax
    17f0:	85 c0                	test   %eax,%eax
    17f2:	74 0c                	je     1800 <tcp_conn_new+0x150>
    17f4:	83 ec 0c             	sub    $0xc,%esp
    17f7:	50                   	push   %eax
    17f8:	e8 13 90 00 00       	call   a810 <fibril_timer_destroy@plt>
    17fd:	83 c4 10             	add    $0x10,%esp
    1800:	83 ec 0c             	sub    $0xc,%esp
    1803:	53                   	push   %ebx
    1804:	31 db                	xor    %ebx,%ebx
    1806:	e8 45 92 00 00       	call   aa50 <free@plt>
    180b:	83 c4 10             	add    $0x10,%esp
    180e:	8d 65 f4             	lea    -0xc(%ebp),%esp
    1811:	89 d8                	mov    %ebx,%eax
    1813:	5b                   	pop    %ebx
    1814:	5e                   	pop    %esi
    1815:	5f                   	pop    %edi
    1816:	5d                   	pop    %ebp
    1817:	c3                   	ret    
    1818:	83 ec 0c             	sub    $0xc,%esp
    181b:	8d 43 68             	lea    0x68(%ebx),%eax
    181e:	50                   	push   %eax
    181f:	e8 3c 90 00 00       	call   a860 <fibril_condvar_initialize@plt>
    1824:	8b 45 08             	mov    0x8(%ebp),%eax
    1827:	83 c4 10             	add    $0x10,%esp
    182a:	c7 43 0c 00 00 00 00 	movl   $0x0,0xc(%ebx)
    1831:	c7 43 60 00 00 00 00 	movl   $0x0,0x60(%ebx)
    1838:	c6 43 64 00          	movb   $0x0,0x64(%ebx)
    183c:	c6 43 65 00          	movb   $0x0,0x65(%ebx)
    1840:	c7 43 48 01 00 00 00 	movl   $0x1,0x48(%ebx)
    1847:	c6 43 70 00          	movb   $0x0,0x70(%ebx)
    184b:	85 c0                	test   %eax,%eax
    184d:	74 bf                	je     180e <tcp_conn_new+0x15e>
    184f:	8d 7b 14             	lea    0x14(%ebx),%edi
    1852:	b9 0d 00 00 00       	mov    $0xd,%ecx
    1857:	8b 75 08             	mov    0x8(%ebp),%esi
    185a:	f3 a5                	rep movsl %ds:(%esi),%es:(%edi)
    185c:	eb b0                	jmp    180e <tcp_conn_new+0x15e>
    185e:	66 90                	xchg   %ax,%ax
    1860:	8b 83 94 00 00 00    	mov    0x94(%ebx),%eax
    1866:	85 c0                	test   %eax,%eax
    1868:	0f 85 5a ff ff ff    	jne    17c8 <tcp_conn_new+0x118>
    186e:	e9 77 ff ff ff       	jmp    17ea <tcp_conn_new+0x13a>
    1873:	8d b6 00 00 00 00    	lea    0x0(%esi),%esi
    1879:	8d bc 27 00 00 00 00 	lea    0x0(%edi,%eiz,1),%edi

00001880 <tcp_conn_addref>:
    1880:	55                   	push   %ebp
    1881:	89 e5                	mov    %esp,%ebp
    1883:	53                   	push   %ebx
    1884:	83 ec 0c             	sub    $0xc,%esp
    1887:	8b 5d 08             	mov    0x8(%ebp),%ebx
    188a:	8b 43 5c             	mov    0x5c(%ebx),%eax
    188d:	50                   	push   %eax
    188e:	8b 03                	mov    (%ebx),%eax
    1890:	53                   	push   %ebx
    1891:	50                   	push   %eax
    1892:	68 0c 87 00 00       	push   $0x870c
    1897:	6a 05                	push   $0x5
    1899:	6a ff                	push   $0xffffffff
    189b:	e8 30 8f 00 00       	call   a7d0 <log_msg@plt>
    18a0:	f0 ff 43 5c          	lock incl 0x5c(%ebx)
    18a4:	83 c4 20             	add    $0x20,%esp
    18a7:	8b 5d fc             	mov    -0x4(%ebp),%ebx
    18aa:	c9                   	leave  
    18ab:	c3                   	ret    
    18ac:	8d 74 26 00          	lea    0x0(%esi,%eiz,1),%esi

000018b0 <tcp_conn_delref>:
    18b0:	55                   	push   %ebp
    18b1:	89 e5                	mov    %esp,%ebp
    18b3:	53                   	push   %ebx
    18b4:	83 ec 0c             	sub    $0xc,%esp
    18b7:	8b 5d 08             	mov    0x8(%ebp),%ebx
    18ba:	8b 43 5c             	mov    0x5c(%ebx),%eax
    18bd:	50                   	push   %eax
    18be:	53                   	push   %ebx
    18bf:	8b 13                	mov    (%ebx),%edx
    18c1:	52                   	push   %edx
    18c2:	68 e8 86 00 00       	push   $0x86e8
    18c7:	6a 05                	push   $0x5
    18c9:	6a ff                	push   $0xffffffff
    18cb:	e8 00 8f 00 00       	call   a7d0 <log_msg@plt>
    18d0:	83 c8 ff             	or     $0xffffffff,%eax
    18d3:	f0 0f c1 43 5c       	lock xadd %eax,0x5c(%ebx)
    18d8:	83 c4 20             	add    $0x20,%esp
    18db:	48                   	dec    %eax
    18dc:	74 0a                	je     18e8 <tcp_conn_delref+0x38>
    18de:	8b 5d fc             	mov    -0x4(%ebp),%ebx
    18e1:	c9                   	leave  
    18e2:	c3                   	ret    
    18e3:	90                   	nop
    18e4:	8d 74 26 00          	lea    0x0(%esi,%eiz,1),%esi
    18e8:	83 ec 0c             	sub    $0xc,%esp
    18eb:	53                   	push   %ebx
    18ec:	8b 03                	mov    (%ebx),%eax
    18ee:	50                   	push   %eax
    18ef:	68 27 8b 00 00       	push   $0x8b27
    18f4:	6a 04                	push   $0x4
    18f6:	6a ff                	push   $0xffffffff
    18f8:	e8 d3 8e 00 00       	call   a7d0 <log_msg@plt>
    18fd:	83 c4 14             	add    $0x14,%esp
    1900:	8d 83 80 00 00 00    	lea    0x80(%ebx),%eax
    1906:	50                   	push   %eax
    1907:	e8 14 4d 00 00       	call   6620 <tcp_tqueue_fini>
    190c:	8b 83 94 00 00 00    	mov    0x94(%ebx),%eax
    1912:	83 c4 10             	add    $0x10,%esp
    1915:	85 c0                	test   %eax,%eax
    1917:	74 0c                	je     1925 <tcp_conn_delref+0x75>
    1919:	83 ec 0c             	sub    $0xc,%esp
    191c:	50                   	push   %eax
    191d:	e8 2e 91 00 00       	call   aa50 <free@plt>
    1922:	83 c4 10             	add    $0x10,%esp
    1925:	8b 83 ac 00 00 00    	mov    0xac(%ebx),%eax
    192b:	85 c0                	test   %eax,%eax
    192d:	74 0c                	je     193b <tcp_conn_delref+0x8b>
    192f:	83 ec 0c             	sub    $0xc,%esp
    1932:	50                   	push   %eax
    1933:	e8 18 91 00 00       	call   aa50 <free@plt>
    1938:	83 c4 10             	add    $0x10,%esp
    193b:	8b 83 90 00 00 00    	mov    0x90(%ebx),%eax
    1941:	85 c0                	test   %eax,%eax
    1943:	74 0c                	je     1951 <tcp_conn_delref+0xa1>
    1945:	83 ec 0c             	sub    $0xc,%esp
    1948:	50                   	push   %eax
    1949:	e8 c2 8e 00 00       	call   a810 <fibril_timer_destroy@plt>
    194e:	83 c4 10             	add    $0x10,%esp
    1951:	89 5d 08             	mov    %ebx,0x8(%ebp)
    1954:	8b 5d fc             	mov    -0x4(%ebp),%ebx
    1957:	c9                   	leave  
    1958:	e9 f3 90 00 00       	jmp    aa50 <free@plt>
    195d:	8d 76 00             	lea    0x0(%esi),%esi

00001960 <tcp_conn_lock>:
    1960:	55                   	push   %ebp
    1961:	89 e5                	mov    %esp,%ebp
    1963:	8b 45 08             	mov    0x8(%ebp),%eax
    1966:	83 c0 4c             	add    $0x4c,%eax
    1969:	89 45 08             	mov    %eax,0x8(%ebp)
    196c:	5d                   	pop    %ebp
    196d:	e9 ee 90 00 00       	jmp    aa60 <fibril_mutex_lock@plt>
    1972:	8d b4 26 00 00 00 00 	lea    0x0(%esi,%eiz,1),%esi
    1979:	8d bc 27 00 00 00 00 	lea    0x0(%edi,%eiz,1),%edi

00001980 <tcp_conn_unlock>:
    1980:	55                   	push   %ebp
    1981:	89 e5                	mov    %esp,%ebp
    1983:	8b 45 08             	mov    0x8(%ebp),%eax
    1986:	83 c0 4c             	add    $0x4c,%eax
    1989:	89 45 08             	mov    %eax,0x8(%ebp)
    198c:	5d                   	pop    %ebp
    198d:	e9 0e 8f 00 00       	jmp    a8a0 <fibril_mutex_unlock@plt>
    1992:	8d b4 26 00 00 00 00 	lea    0x0(%esi,%eiz,1),%esi
    1999:	8d bc 27 00 00 00 00 	lea    0x0(%edi,%eiz,1),%edi

000019a0 <tcp_conn_delete>:
    19a0:	55                   	push   %ebp
    19a1:	89 e5                	mov    %esp,%ebp
    19a3:	53                   	push   %ebx
    19a4:	83 ec 10             	sub    $0x10,%esp
    19a7:	8b 5d 08             	mov    0x8(%ebp),%ebx
    19aa:	53                   	push   %ebx
    19ab:	8b 03                	mov    (%ebx),%eax
    19ad:	50                   	push   %eax
    19ae:	68 aa 8b 00 00       	push   $0x8baa
    19b3:	6a 04                	push   $0x4
    19b5:	6a ff                	push   $0xffffffff
    19b7:	e8 14 8e 00 00       	call   a7d0 <log_msg@plt>
    19bc:	83 c4 20             	add    $0x20,%esp
    19bf:	80 7b 65 00          	cmpb   $0x0,0x65(%ebx)
    19c3:	0f 85 b4 00 00 00    	jne    1a7d <tcp_conn_delete+0xdd>
    19c9:	8b 43 5c             	mov    0x5c(%ebx),%eax
    19cc:	c6 43 65 01          	movb   $0x1,0x65(%ebx)
    19d0:	c7 43 0c 00 00 00 00 	movl   $0x0,0xc(%ebx)
    19d7:	c7 43 10 00 00 00 00 	movl   $0x0,0x10(%ebx)
    19de:	52                   	push   %edx
    19df:	52                   	push   %edx
    19e0:	50                   	push   %eax
    19e1:	53                   	push   %ebx
    19e2:	8b 0b                	mov    (%ebx),%ecx
    19e4:	51                   	push   %ecx
    19e5:	68 e8 86 00 00       	push   $0x86e8
    19ea:	6a 05                	push   $0x5
    19ec:	6a ff                	push   $0xffffffff
    19ee:	e8 dd 8d 00 00       	call   a7d0 <log_msg@plt>
    19f3:	83 c8 ff             	or     $0xffffffff,%eax
    19f6:	f0 0f c1 43 5c       	lock xadd %eax,0x5c(%ebx)
    19fb:	83 c4 20             	add    $0x20,%esp
    19fe:	48                   	dec    %eax
    19ff:	74 07                	je     1a08 <tcp_conn_delete+0x68>
    1a01:	8b 5d fc             	mov    -0x4(%ebp),%ebx
    1a04:	c9                   	leave  
    1a05:	c3                   	ret    
    1a06:	66 90                	xchg   %ax,%ax
    1a08:	83 ec 0c             	sub    $0xc,%esp
    1a0b:	53                   	push   %ebx
    1a0c:	8b 03                	mov    (%ebx),%eax
    1a0e:	50                   	push   %eax
    1a0f:	68 27 8b 00 00       	push   $0x8b27
    1a14:	6a 04                	push   $0x4
    1a16:	6a ff                	push   $0xffffffff
    1a18:	e8 b3 8d 00 00       	call   a7d0 <log_msg@plt>
    1a1d:	83 c4 14             	add    $0x14,%esp
    1a20:	8d 83 80 00 00 00    	lea    0x80(%ebx),%eax
    1a26:	50                   	push   %eax
    1a27:	e8 f4 4b 00 00       	call   6620 <tcp_tqueue_fini>
    1a2c:	8b 83 94 00 00 00    	mov    0x94(%ebx),%eax
    1a32:	83 c4 10             	add    $0x10,%esp
    1a35:	85 c0                	test   %eax,%eax
    1a37:	74 0c                	je     1a45 <tcp_conn_delete+0xa5>
    1a39:	83 ec 0c             	sub    $0xc,%esp
    1a3c:	50                   	push   %eax
    1a3d:	e8 0e 90 00 00       	call   aa50 <free@plt>
    1a42:	83 c4 10             	add    $0x10,%esp
    1a45:	8b 83 ac 00 00 00    	mov    0xac(%ebx),%eax
    1a4b:	85 c0                	test   %eax,%eax
    1a4d:	74 0c                	je     1a5b <tcp_conn_delete+0xbb>
    1a4f:	83 ec 0c             	sub    $0xc,%esp
    1a52:	50                   	push   %eax
    1a53:	e8 f8 8f 00 00       	call   aa50 <free@plt>
    1a58:	83 c4 10             	add    $0x10,%esp
    1a5b:	8b 83 90 00 00 00    	mov    0x90(%ebx),%eax
    1a61:	85 c0                	test   %eax,%eax
    1a63:	74 0c                	je     1a71 <tcp_conn_delete+0xd1>
    1a65:	83 ec 0c             	sub    $0xc,%esp
    1a68:	50                   	push   %eax
    1a69:	e8 a2 8d 00 00       	call   a810 <fibril_timer_destroy@plt>
    1a6e:	83 c4 10             	add    $0x10,%esp
    1a71:	89 5d 08             	mov    %ebx,0x8(%ebp)
    1a74:	8b 5d fc             	mov    -0x4(%ebp),%ebx
    1a77:	c9                   	leave  
    1a78:	e9 d3 8f 00 00       	jmp    aa50 <free@plt>
    1a7d:	53                   	push   %ebx
    1a7e:	68 00 01 00 00       	push   $0x100
    1a83:	68 09 8b 00 00       	push   $0x8b09
    1a88:	68 c2 8b 00 00       	push   $0x8bc2
    1a8d:	e8 9e 8d 00 00       	call   a830 <assert_abort@plt>
    1a92:	8d b4 26 00 00 00 00 	lea    0x0(%esi,%eiz,1),%esi
    1a99:	8d bc 27 00 00 00 00 	lea    0x0(%edi,%eiz,1),%edi

00001aa0 <tcp_conn_add>:
    1aa0:	55                   	push   %ebp
    1aa1:	89 e5                	mov    %esp,%ebp
    1aa3:	57                   	push   %edi
    1aa4:	56                   	push   %esi
    1aa5:	53                   	push   %ebx
    1aa6:	83 ec 64             	sub    $0x64,%esp
    1aa9:	8b 5d 08             	mov    0x8(%ebp),%ebx
    1aac:	8b 43 5c             	mov    0x5c(%ebx),%eax
    1aaf:	8b 33                	mov    (%ebx),%esi
    1ab1:	50                   	push   %eax
    1ab2:	53                   	push   %ebx
    1ab3:	56                   	push   %esi
    1ab4:	68 0c 87 00 00       	push   $0x870c
    1ab9:	6a 05                	push   $0x5
    1abb:	6a ff                	push   $0xffffffff
    1abd:	e8 0e 8d 00 00       	call   a7d0 <log_msg@plt>
    1ac2:	f0 ff 43 5c          	lock incl 0x5c(%ebx)
    1ac6:	83 c4 14             	add    $0x14,%esp
    1ac9:	8d 75 b4             	lea    -0x4c(%ebp),%esi
    1acc:	68 c8 c4 00 00       	push   $0xc4c8
    1ad1:	e8 8a 8f 00 00       	call   aa60 <fibril_mutex_lock@plt>
    1ad6:	53                   	push   %ebx
    1ad7:	68 d9 8b 00 00       	push   $0x8bd9
    1adc:	6a 04                	push   $0x4
    1ade:	6a ff                	push   $0xffffffff
    1ae0:	e8 eb 8c 00 00       	call   a7d0 <log_msg@plt>
    1ae5:	83 c4 14             	add    $0x14,%esp
    1ae8:	8d 53 14             	lea    0x14(%ebx),%edx
    1aeb:	8b 3d 08 c6 00 00    	mov    0xc608,%edi
    1af1:	56                   	push   %esi
    1af2:	89 55 a4             	mov    %edx,-0x5c(%ebp)
    1af5:	6a 01                	push   $0x1
    1af7:	53                   	push   %ebx
    1af8:	52                   	push   %edx
    1af9:	57                   	push   %edi
    1afa:	e8 51 5e 00 00       	call   7950 <amap_insert>
    1aff:	83 c4 20             	add    $0x20,%esp
    1b02:	8b 55 a4             	mov    -0x5c(%ebp),%edx
    1b05:	85 c0                	test   %eax,%eax
    1b07:	89 45 a4             	mov    %eax,-0x5c(%ebp)
    1b0a:	75 44                	jne    1b50 <tcp_conn_add+0xb0>
    1b0c:	89 d7                	mov    %edx,%edi
    1b0e:	b9 0d 00 00 00       	mov    $0xd,%ecx
    1b13:	8b 15 d8 c4 00 00    	mov    0xc4d8,%edx
    1b19:	f3 a5                	rep movsl %ds:(%esi),%es:(%edi)
    1b1b:	8d 4b 04             	lea    0x4(%ebx),%ecx
    1b1e:	c7 43 08 d8 c4 00 00 	movl   $0xc4d8,0x8(%ebx)
    1b25:	89 53 04             	mov    %edx,0x4(%ebx)
    1b28:	89 0d d8 c4 00 00    	mov    %ecx,0xc4d8
    1b2e:	89 4a 04             	mov    %ecx,0x4(%edx)
    1b31:	83 ec 0c             	sub    $0xc,%esp
    1b34:	68 c8 c4 00 00       	push   $0xc4c8
    1b39:	e8 62 8d 00 00       	call   a8a0 <fibril_mutex_unlock@plt>
    1b3e:	8b 45 a4             	mov    -0x5c(%ebp),%eax
    1b41:	83 c4 10             	add    $0x10,%esp
    1b44:	8d 65 f4             	lea    -0xc(%ebp),%esp
    1b47:	5b                   	pop    %ebx
    1b48:	5e                   	pop    %esi
    1b49:	5f                   	pop    %edi
    1b4a:	5d                   	pop    %ebp
    1b4b:	c3                   	ret    
    1b4c:	8d 74 26 00          	lea    0x0(%esi,%eiz,1),%esi
    1b50:	8b 4b 5c             	mov    0x5c(%ebx),%ecx
    1b53:	52                   	push   %edx
    1b54:	52                   	push   %edx
    1b55:	51                   	push   %ecx
    1b56:	8b 0b                	mov    (%ebx),%ecx
    1b58:	53                   	push   %ebx
    1b59:	51                   	push   %ecx
    1b5a:	68 e8 86 00 00       	push   $0x86e8
    1b5f:	6a 05                	push   $0x5
    1b61:	6a ff                	push   $0xffffffff
    1b63:	e8 68 8c 00 00       	call   a7d0 <log_msg@plt>
    1b68:	83 c9 ff             	or     $0xffffffff,%ecx
    1b6b:	f0 0f c1 4b 5c       	lock xadd %ecx,0x5c(%ebx)
    1b70:	83 c4 20             	add    $0x20,%esp
    1b73:	8b 45 a4             	mov    -0x5c(%ebp),%eax
    1b76:	49                   	dec    %ecx
    1b77:	74 07                	je     1b80 <tcp_conn_add+0xe0>
    1b79:	89 45 a4             	mov    %eax,-0x5c(%ebp)
    1b7c:	eb b3                	jmp    1b31 <tcp_conn_add+0x91>
    1b7e:	66 90                	xchg   %ax,%ax
    1b80:	83 ec 0c             	sub    $0xc,%esp
    1b83:	8b 03                	mov    (%ebx),%eax
    1b85:	53                   	push   %ebx
    1b86:	50                   	push   %eax
    1b87:	68 27 8b 00 00       	push   $0x8b27
    1b8c:	6a 04                	push   $0x4
    1b8e:	6a ff                	push   $0xffffffff
    1b90:	e8 3b 8c 00 00       	call   a7d0 <log_msg@plt>
    1b95:	83 c4 14             	add    $0x14,%esp
    1b98:	8d 8b 80 00 00 00    	lea    0x80(%ebx),%ecx
    1b9e:	51                   	push   %ecx
    1b9f:	e8 7c 4a 00 00       	call   6620 <tcp_tqueue_fini>
    1ba4:	8b 8b 94 00 00 00    	mov    0x94(%ebx),%ecx
    1baa:	83 c4 10             	add    $0x10,%esp
    1bad:	8b 45 a4             	mov    -0x5c(%ebp),%eax
    1bb0:	85 c9                	test   %ecx,%ecx
    1bb2:	74 0f                	je     1bc3 <tcp_conn_add+0x123>
    1bb4:	83 ec 0c             	sub    $0xc,%esp
    1bb7:	51                   	push   %ecx
    1bb8:	e8 93 8e 00 00       	call   aa50 <free@plt>
    1bbd:	83 c4 10             	add    $0x10,%esp
    1bc0:	8b 45 a4             	mov    -0x5c(%ebp),%eax
    1bc3:	8b 8b ac 00 00 00    	mov    0xac(%ebx),%ecx
    1bc9:	85 c9                	test   %ecx,%ecx
    1bcb:	74 12                	je     1bdf <tcp_conn_add+0x13f>
    1bcd:	83 ec 0c             	sub    $0xc,%esp
    1bd0:	89 45 a4             	mov    %eax,-0x5c(%ebp)
    1bd3:	51                   	push   %ecx
    1bd4:	e8 77 8e 00 00       	call   aa50 <free@plt>
    1bd9:	83 c4 10             	add    $0x10,%esp
    1bdc:	8b 45 a4             	mov    -0x5c(%ebp),%eax
    1bdf:	8b 8b 90 00 00 00    	mov    0x90(%ebx),%ecx
    1be5:	85 c9                	test   %ecx,%ecx
    1be7:	74 12                	je     1bfb <tcp_conn_add+0x15b>
    1be9:	83 ec 0c             	sub    $0xc,%esp
    1bec:	89 45 a4             	mov    %eax,-0x5c(%ebp)
    1bef:	51                   	push   %ecx
    1bf0:	e8 1b 8c 00 00       	call   a810 <fibril_timer_destroy@plt>
    1bf5:	83 c4 10             	add    $0x10,%esp
    1bf8:	8b 45 a4             	mov    -0x5c(%ebp),%eax
    1bfb:	83 ec 0c             	sub    $0xc,%esp
    1bfe:	89 45 a4             	mov    %eax,-0x5c(%ebp)
    1c01:	53                   	push   %ebx
    1c02:	e8 49 8e 00 00       	call   aa50 <free@plt>
    1c07:	83 c4 10             	add    $0x10,%esp
    1c0a:	8b 45 a4             	mov    -0x5c(%ebp),%eax
    1c0d:	e9 67 ff ff ff       	jmp    1b79 <tcp_conn_add+0xd9>
    1c12:	8d b4 26 00 00 00 00 	lea    0x0(%esi,%eiz,1),%esi
    1c19:	8d bc 27 00 00 00 00 	lea    0x0(%edi,%eiz,1),%edi

00001c20 <tcp_conn_remove>:
    1c20:	55                   	push   %ebp
    1c21:	89 e5                	mov    %esp,%ebp
    1c23:	53                   	push   %ebx
    1c24:	83 ec 10             	sub    $0x10,%esp
    1c27:	8b 5d 08             	mov    0x8(%ebp),%ebx
    1c2a:	68 c8 c4 00 00       	push   $0xc4c8
    1c2f:	e8 2c 8e 00 00       	call   aa60 <fibril_mutex_lock@plt>
    1c34:	58                   	pop    %eax
    1c35:	8b 0d 08 c6 00 00    	mov    0xc608,%ecx
    1c3b:	8d 43 14             	lea    0x14(%ebx),%eax
    1c3e:	5a                   	pop    %edx
    1c3f:	50                   	push   %eax
    1c40:	51                   	push   %ecx
    1c41:	e8 ba 61 00 00       	call   7e00 <amap_remove>
    1c46:	8b 53 04             	mov    0x4(%ebx),%edx
    1c49:	83 c4 10             	add    $0x10,%esp
    1c4c:	85 d2                	test   %edx,%edx
    1c4e:	74 0f                	je     1c5f <tcp_conn_remove+0x3f>
    1c50:	8b 43 08             	mov    0x8(%ebx),%eax
    1c53:	85 c0                	test   %eax,%eax
    1c55:	74 08                	je     1c5f <tcp_conn_remove+0x3f>
    1c57:	89 10                	mov    %edx,(%eax)
    1c59:	8b 53 04             	mov    0x4(%ebx),%edx
    1c5c:	89 42 04             	mov    %eax,0x4(%edx)
    1c5f:	83 ec 0c             	sub    $0xc,%esp
    1c62:	c7 43 04 00 00 00 00 	movl   $0x0,0x4(%ebx)
    1c69:	c7 43 08 00 00 00 00 	movl   $0x0,0x8(%ebx)
    1c70:	68 c8 c4 00 00       	push   $0xc4c8
    1c75:	e8 26 8c 00 00       	call   a8a0 <fibril_mutex_unlock@plt>
    1c7a:	8b 43 5c             	mov    0x5c(%ebx),%eax
    1c7d:	5a                   	pop    %edx
    1c7e:	59                   	pop    %ecx
    1c7f:	50                   	push   %eax
    1c80:	53                   	push   %ebx
    1c81:	8b 03                	mov    (%ebx),%eax
    1c83:	50                   	push   %eax
    1c84:	68 e8 86 00 00       	push   $0x86e8
    1c89:	6a 05                	push   $0x5
    1c8b:	6a ff                	push   $0xffffffff
    1c8d:	e8 3e 8b 00 00       	call   a7d0 <log_msg@plt>
    1c92:	83 c8 ff             	or     $0xffffffff,%eax
    1c95:	f0 0f c1 43 5c       	lock xadd %eax,0x5c(%ebx)
    1c9a:	83 c4 20             	add    $0x20,%esp
    1c9d:	48                   	dec    %eax
    1c9e:	74 08                	je     1ca8 <tcp_conn_remove+0x88>
    1ca0:	8b 5d fc             	mov    -0x4(%ebp),%ebx
    1ca3:	c9                   	leave  
    1ca4:	c3                   	ret    
    1ca5:	8d 76 00             	lea    0x0(%esi),%esi
    1ca8:	83 ec 0c             	sub    $0xc,%esp
    1cab:	53                   	push   %ebx
    1cac:	8b 03                	mov    (%ebx),%eax
    1cae:	50                   	push   %eax
    1caf:	68 27 8b 00 00       	push   $0x8b27
    1cb4:	6a 04                	push   $0x4
    1cb6:	6a ff                	push   $0xffffffff
    1cb8:	e8 13 8b 00 00       	call   a7d0 <log_msg@plt>
    1cbd:	83 c4 14             	add    $0x14,%esp
    1cc0:	8d 83 80 00 00 00    	lea    0x80(%ebx),%eax
    1cc6:	50                   	push   %eax
    1cc7:	e8 54 49 00 00       	call   6620 <tcp_tqueue_fini>
    1ccc:	8b 83 94 00 00 00    	mov    0x94(%ebx),%eax
    1cd2:	83 c4 10             	add    $0x10,%esp
    1cd5:	85 c0                	test   %eax,%eax
    1cd7:	74 0c                	je     1ce5 <tcp_conn_remove+0xc5>
    1cd9:	83 ec 0c             	sub    $0xc,%esp
    1cdc:	50                   	push   %eax
    1cdd:	e8 6e 8d 00 00       	call   aa50 <free@plt>
    1ce2:	83 c4 10             	add    $0x10,%esp
    1ce5:	8b 83 ac 00 00 00    	mov    0xac(%ebx),%eax
    1ceb:	85 c0                	test   %eax,%eax
    1ced:	74 0c                	je     1cfb <tcp_conn_remove+0xdb>
    1cef:	83 ec 0c             	sub    $0xc,%esp
    1cf2:	50                   	push   %eax
    1cf3:	e8 58 8d 00 00       	call   aa50 <free@plt>
    1cf8:	83 c4 10             	add    $0x10,%esp
    1cfb:	8b 83 90 00 00 00    	mov    0x90(%ebx),%eax
    1d01:	85 c0                	test   %eax,%eax
    1d03:	74 0c                	je     1d11 <tcp_conn_remove+0xf1>
    1d05:	83 ec 0c             	sub    $0xc,%esp
    1d08:	50                   	push   %eax
    1d09:	e8 02 8b 00 00       	call   a810 <fibril_timer_destroy@plt>
    1d0e:	83 c4 10             	add    $0x10,%esp
    1d11:	89 5d 08             	mov    %ebx,0x8(%ebp)
    1d14:	8b 5d fc             	mov    -0x4(%ebp),%ebx
    1d17:	c9                   	leave  
    1d18:	e9 33 8d 00 00       	jmp    aa50 <free@plt>
    1d1d:	8d 76 00             	lea    0x0(%esi),%esi

00001d20 <tcp_conn_sync>:
    1d20:	55                   	push   %ebp
    1d21:	89 e5                	mov    %esp,%ebp
    1d23:	56                   	push   %esi
    1d24:	53                   	push   %ebx
    1d25:	8b 5d 08             	mov    0x8(%ebp),%ebx
    1d28:	c7 83 dc 00 00 00 01 	movl   $0x1,0xdc(%ebx)
    1d2f:	00 00 00 
    1d32:	c7 83 c8 00 00 00 01 	movl   $0x1,0xc8(%ebx)
    1d39:	00 00 00 
    1d3c:	c7 83 c4 00 00 00 01 	movl   $0x1,0xc4(%ebx)
    1d43:	00 00 00 
    1d46:	c7 43 48 00 00 00 00 	movl   $0x0,0x48(%ebx)
    1d4d:	56                   	push   %esi
    1d4e:	56                   	push   %esi
    1d4f:	6a 01                	push   $0x1
    1d51:	53                   	push   %ebx
    1d52:	e8 39 4b 00 00       	call   6890 <tcp_tqueue_ctrl_seg>
    1d57:	53                   	push   %ebx
    1d58:	68 f2 8a 00 00       	push   $0x8af2
    1d5d:	6a 04                	push   $0x4
    1d5f:	6a ff                	push   $0xffffffff
    1d61:	e8 6a 8a 00 00       	call   a7d0 <log_msg@plt>
    1d66:	83 c4 14             	add    $0x14,%esp
    1d69:	8b 73 60             	mov    0x60(%ebx),%esi
    1d6c:	8d 43 68             	lea    0x68(%ebx),%eax
    1d6f:	c7 43 60 01 00 00 00 	movl   $0x1,0x60(%ebx)
    1d76:	50                   	push   %eax
    1d77:	e8 14 8b 00 00       	call   a890 <fibril_condvar_broadcast@plt>
    1d7c:	8b 43 0c             	mov    0xc(%ebx),%eax
    1d7f:	83 c4 10             	add    $0x10,%esp
    1d82:	85 c0                	test   %eax,%eax
    1d84:	74 32                	je     1db8 <tcp_conn_sync+0x98>
    1d86:	8b 08                	mov    (%eax),%ecx
    1d88:	85 c9                	test   %ecx,%ecx
    1d8a:	74 2c                	je     1db8 <tcp_conn_sync+0x98>
    1d8c:	51                   	push   %ecx
    1d8d:	68 a0 86 00 00       	push   $0x86a0
    1d92:	6a 04                	push   $0x4
    1d94:	6a ff                	push   $0xffffffff
    1d96:	e8 35 8a 00 00       	call   a7d0 <log_msg@plt>
    1d9b:	83 c4 0c             	add    $0xc,%esp
    1d9e:	8b 43 0c             	mov    0xc(%ebx),%eax
    1da1:	8b 53 10             	mov    0x10(%ebx),%edx
    1da4:	56                   	push   %esi
    1da5:	52                   	push   %edx
    1da6:	53                   	push   %ebx
    1da7:	ff 10                	call   *(%eax)
    1da9:	83 c4 10             	add    $0x10,%esp
    1dac:	83 fe 0a             	cmp    $0xa,%esi
    1daf:	74 1b                	je     1dcc <tcp_conn_sync+0xac>
    1db1:	8d 65 f8             	lea    -0x8(%ebp),%esp
    1db4:	5b                   	pop    %ebx
    1db5:	5e                   	pop    %esi
    1db6:	5d                   	pop    %ebp
    1db7:	c3                   	ret    
    1db8:	52                   	push   %edx
    1db9:	68 c4 86 00 00       	push   $0x86c4
    1dbe:	6a 04                	push   $0x4
    1dc0:	6a ff                	push   $0xffffffff
    1dc2:	e8 09 8a 00 00       	call   a7d0 <log_msg@plt>
    1dc7:	83 c4 10             	add    $0x10,%esp
    1dca:	eb e0                	jmp    1dac <tcp_conn_sync+0x8c>
    1dcc:	50                   	push   %eax
    1dcd:	68 42 01 00 00       	push   $0x142
    1dd2:	68 09 8b 00 00       	push   $0x8b09
    1dd7:	68 10 8b 00 00       	push   $0x8b10
    1ddc:	e8 4f 8a 00 00       	call   a830 <assert_abort@plt>
    1de1:	eb 0d                	jmp    1df0 <tcp_conn_fin_sent>
    1de3:	90                   	nop
    1de4:	90                   	nop
    1de5:	90                   	nop
    1de6:	90                   	nop
    1de7:	90                   	nop
    1de8:	90                   	nop
    1de9:	90                   	nop
    1dea:	90                   	nop
    1deb:	90                   	nop
    1dec:	90                   	nop
    1ded:	90                   	nop
    1dee:	90                   	nop
    1def:	90                   	nop

00001df0 <tcp_conn_fin_sent>:
    1df0:	55                   	push   %ebp
    1df1:	89 e5                	mov    %esp,%ebp
    1df3:	56                   	push   %esi
    1df4:	53                   	push   %ebx
    1df5:	8b 5d 08             	mov    0x8(%ebp),%ebx
    1df8:	8b 43 60             	mov    0x60(%ebx),%eax
    1dfb:	83 f8 02             	cmp    $0x2,%eax
    1dfe:	0f 82 94 00 00 00    	jb     1e98 <tcp_conn_fin_sent+0xa8>
    1e04:	83 f8 03             	cmp    $0x3,%eax
    1e07:	0f 86 bb 00 00 00    	jbe    1ec8 <tcp_conn_fin_sent+0xd8>
    1e0d:	83 f8 06             	cmp    $0x6,%eax
    1e10:	0f 85 82 00 00 00    	jne    1e98 <tcp_conn_fin_sent+0xa8>
    1e16:	8b 03                	mov    (%ebx),%eax
    1e18:	50                   	push   %eax
    1e19:	68 0a 8c 00 00       	push   $0x8c0a
    1e1e:	6a 04                	push   $0x4
    1e20:	6a ff                	push   $0xffffffff
    1e22:	e8 a9 89 00 00       	call   a7d0 <log_msg@plt>
    1e27:	53                   	push   %ebx
    1e28:	68 f2 8a 00 00       	push   $0x8af2
    1e2d:	6a 04                	push   $0x4
    1e2f:	6a ff                	push   $0xffffffff
    1e31:	e8 9a 89 00 00       	call   a7d0 <log_msg@plt>
    1e36:	8b 73 60             	mov    0x60(%ebx),%esi
    1e39:	c7 43 60 08 00 00 00 	movl   $0x8,0x60(%ebx)
    1e40:	83 c4 14             	add    $0x14,%esp
    1e43:	8d 43 68             	lea    0x68(%ebx),%eax
    1e46:	50                   	push   %eax
    1e47:	e8 44 8a 00 00       	call   a890 <fibril_condvar_broadcast@plt>
    1e4c:	8b 43 0c             	mov    0xc(%ebx),%eax
    1e4f:	83 c4 10             	add    $0x10,%esp
    1e52:	85 c0                	test   %eax,%eax
    1e54:	0f 84 9e 00 00 00    	je     1ef8 <tcp_conn_fin_sent+0x108>
    1e5a:	8b 00                	mov    (%eax),%eax
    1e5c:	85 c0                	test   %eax,%eax
    1e5e:	0f 84 94 00 00 00    	je     1ef8 <tcp_conn_fin_sent+0x108>
    1e64:	52                   	push   %edx
    1e65:	68 a0 86 00 00       	push   $0x86a0
    1e6a:	6a 04                	push   $0x4
    1e6c:	6a ff                	push   $0xffffffff
    1e6e:	e8 5d 89 00 00       	call   a7d0 <log_msg@plt>
    1e73:	83 c4 0c             	add    $0xc,%esp
    1e76:	8b 43 0c             	mov    0xc(%ebx),%eax
    1e79:	8b 4b 10             	mov    0x10(%ebx),%ecx
    1e7c:	56                   	push   %esi
    1e7d:	51                   	push   %ecx
    1e7e:	53                   	push   %ebx
    1e7f:	ff 10                	call   *(%eax)
    1e81:	83 c4 10             	add    $0x10,%esp
    1e84:	83 fe 0a             	cmp    $0xa,%esi
    1e87:	0f 84 82 00 00 00    	je     1f0f <tcp_conn_fin_sent+0x11f>
    1e8d:	c6 43 70 00          	movb   $0x0,0x70(%ebx)
    1e91:	8d 65 f8             	lea    -0x8(%ebp),%esp
    1e94:	5b                   	pop    %ebx
    1e95:	5e                   	pop    %esi
    1e96:	5d                   	pop    %ebp
    1e97:	c3                   	ret    
    1e98:	83 ec 0c             	sub    $0xc,%esp
    1e9b:	50                   	push   %eax
    1e9c:	8b 03                	mov    (%ebx),%eax
    1e9e:	50                   	push   %eax
    1e9f:	68 23 8c 00 00       	push   $0x8c23
    1ea4:	6a 01                	push   $0x1
    1ea6:	6a ff                	push   $0xffffffff
    1ea8:	e8 23 89 00 00       	call   a7d0 <log_msg@plt>
    1ead:	83 c4 1c             	add    $0x1c,%esp
    1eb0:	68 6f 01 00 00       	push   $0x16f
    1eb5:	68 09 8b 00 00       	push   $0x8b09
    1eba:	68 d3 8b 00 00       	push   $0x8bd3
    1ebf:	e8 6c 89 00 00       	call   a830 <assert_abort@plt>
    1ec4:	8d 74 26 00          	lea    0x0(%esi,%eiz,1),%esi
    1ec8:	8b 03                	mov    (%ebx),%eax
    1eca:	50                   	push   %eax
    1ecb:	68 ef 8b 00 00       	push   $0x8bef
    1ed0:	6a 04                	push   $0x4
    1ed2:	6a ff                	push   $0xffffffff
    1ed4:	e8 f7 88 00 00       	call   a7d0 <log_msg@plt>
    1ed9:	53                   	push   %ebx
    1eda:	68 f2 8a 00 00       	push   $0x8af2
    1edf:	6a 04                	push   $0x4
    1ee1:	6a ff                	push   $0xffffffff
    1ee3:	e8 e8 88 00 00       	call   a7d0 <log_msg@plt>
    1ee8:	8b 73 60             	mov    0x60(%ebx),%esi
    1eeb:	c7 43 60 04 00 00 00 	movl   $0x4,0x60(%ebx)
    1ef2:	e9 49 ff ff ff       	jmp    1e40 <tcp_conn_fin_sent+0x50>
    1ef7:	90                   	nop
    1ef8:	50                   	push   %eax
    1ef9:	68 c4 86 00 00       	push   $0x86c4
    1efe:	6a 04                	push   $0x4
    1f00:	6a ff                	push   $0xffffffff
    1f02:	e8 c9 88 00 00       	call   a7d0 <log_msg@plt>
    1f07:	83 c4 10             	add    $0x10,%esp
    1f0a:	e9 75 ff ff ff       	jmp    1e84 <tcp_conn_fin_sent+0x94>
    1f0f:	50                   	push   %eax
    1f10:	68 42 01 00 00       	push   $0x142
    1f15:	68 09 8b 00 00       	push   $0x8b09
    1f1a:	68 10 8b 00 00       	push   $0x8b10
    1f1f:	e8 0c 89 00 00       	call   a830 <assert_abort@plt>
    1f24:	8d b6 00 00 00 00    	lea    0x0(%esi),%esi
    1f2a:	8d bf 00 00 00 00    	lea    0x0(%edi),%edi

00001f30 <tcp_conn_find_ref>:
    1f30:	55                   	push   %ebp
    1f31:	89 e5                	mov    %esp,%ebp
    1f33:	53                   	push   %ebx
    1f34:	83 ec 14             	sub    $0x14,%esp
    1f37:	8b 5d 08             	mov    0x8(%ebp),%ebx
    1f3a:	53                   	push   %ebx
    1f3b:	68 3b 8c 00 00       	push   $0x8c3b
    1f40:	6a 04                	push   $0x4
    1f42:	6a ff                	push   $0xffffffff
    1f44:	e8 87 88 00 00       	call   a7d0 <log_msg@plt>
    1f49:	c7 04 24 c8 c4 00 00 	movl   $0xc4c8,(%esp)
    1f50:	e8 0b 8b 00 00       	call   aa60 <fibril_mutex_lock@plt>
    1f55:	83 c4 0c             	add    $0xc,%esp
    1f58:	8d 45 f4             	lea    -0xc(%ebp),%eax
    1f5b:	50                   	push   %eax
    1f5c:	a1 08 c6 00 00       	mov    0xc608,%eax
    1f61:	53                   	push   %ebx
    1f62:	50                   	push   %eax
    1f63:	e8 b8 61 00 00       	call   8120 <amap_find_match>
    1f68:	83 c4 10             	add    $0x10,%esp
    1f6b:	85 c0                	test   %eax,%eax
    1f6d:	74 21                	je     1f90 <tcp_conn_find_ref+0x60>
    1f6f:	40                   	inc    %eax
    1f70:	75 63                	jne    1fd5 <tcp_conn_find_ref+0xa5>
    1f72:	83 ec 0c             	sub    $0xc,%esp
    1f75:	31 db                	xor    %ebx,%ebx
    1f77:	68 c8 c4 00 00       	push   $0xc4c8
    1f7c:	e8 1f 89 00 00       	call   a8a0 <fibril_mutex_unlock@plt>
    1f81:	89 d8                	mov    %ebx,%eax
    1f83:	83 c4 10             	add    $0x10,%esp
    1f86:	8b 5d fc             	mov    -0x4(%ebp),%ebx
    1f89:	c9                   	leave  
    1f8a:	c3                   	ret    
    1f8b:	90                   	nop
    1f8c:	8d 74 26 00          	lea    0x0(%esi,%eiz,1),%esi
    1f90:	8b 5d f4             	mov    -0xc(%ebp),%ebx
    1f93:	8b 43 5c             	mov    0x5c(%ebx),%eax
    1f96:	52                   	push   %edx
    1f97:	52                   	push   %edx
    1f98:	50                   	push   %eax
    1f99:	8b 0b                	mov    (%ebx),%ecx
    1f9b:	53                   	push   %ebx
    1f9c:	51                   	push   %ecx
    1f9d:	68 0c 87 00 00       	push   $0x870c
    1fa2:	6a 05                	push   $0x5
    1fa4:	6a ff                	push   $0xffffffff
    1fa6:	e8 25 88 00 00       	call   a7d0 <log_msg@plt>
    1fab:	f0 ff 43 5c          	lock incl 0x5c(%ebx)
    1faf:	83 c4 14             	add    $0x14,%esp
    1fb2:	68 c8 c4 00 00       	push   $0xc4c8
    1fb7:	e8 e4 88 00 00       	call   a8a0 <fibril_mutex_unlock@plt>
    1fbc:	53                   	push   %ebx
    1fbd:	68 30 87 00 00       	push   $0x8730
    1fc2:	6a 04                	push   $0x4
    1fc4:	6a ff                	push   $0xffffffff
    1fc6:	e8 05 88 00 00       	call   a7d0 <log_msg@plt>
    1fcb:	89 d8                	mov    %ebx,%eax
    1fcd:	83 c4 20             	add    $0x20,%esp
    1fd0:	8b 5d fc             	mov    -0x4(%ebp),%ebx
    1fd3:	c9                   	leave  
    1fd4:	c3                   	ret    
    1fd5:	53                   	push   %ebx
    1fd6:	68 8a 01 00 00       	push   $0x18a
    1fdb:	68 09 8b 00 00       	push   $0x8b09
    1fe0:	68 51 8c 00 00       	push   $0x8c51
    1fe5:	e8 46 88 00 00       	call   a830 <assert_abort@plt>
    1fea:	8d b6 00 00 00 00    	lea    0x0(%esi),%esi

00001ff0 <tcp_conn_reset>:
    1ff0:	55                   	push   %ebp
    1ff1:	89 e5                	mov    %esp,%ebp
    1ff3:	56                   	push   %esi
    1ff4:	53                   	push   %ebx
    1ff5:	8b 5d 08             	mov    0x8(%ebp),%ebx
    1ff8:	8b 03                	mov    (%ebx),%eax
    1ffa:	50                   	push   %eax
    1ffb:	68 5e 8c 00 00       	push   $0x8c5e
    2000:	6a 04                	push   $0x4
    2002:	6a ff                	push   $0xffffffff
    2004:	e8 c7 87 00 00       	call   a7d0 <log_msg@plt>
    2009:	ba 0a 00 00 00       	mov    $0xa,%edx
    200e:	89 d8                	mov    %ebx,%eax
    2010:	c6 43 64 01          	movb   $0x1,0x64(%ebx)
    2014:	e8 57 f2 ff ff       	call   1270 <tcp_conn_state_set>
    2019:	83 c4 0c             	add    $0xc,%esp
    201c:	68 50 87 00 00       	push   $0x8750
    2021:	6a 05                	push   $0x5
    2023:	6a ff                	push   $0xffffffff
    2025:	e8 a6 87 00 00       	call   a7d0 <log_msg@plt>
    202a:	58                   	pop    %eax
    202b:	8b 83 90 00 00 00    	mov    0x90(%ebx),%eax
    2031:	50                   	push   %eax
    2032:	e8 f9 89 00 00       	call   aa30 <fibril_timer_clear_locked@plt>
    2037:	83 c4 10             	add    $0x10,%esp
    203a:	48                   	dec    %eax
    203b:	74 43                	je     2080 <tcp_conn_reset+0x90>
    203d:	8d b3 80 00 00 00    	lea    0x80(%ebx),%esi
    2043:	50                   	push   %eax
    2044:	68 73 8c 00 00       	push   $0x8c73
    2049:	6a 05                	push   $0x5
    204b:	6a ff                	push   $0xffffffff
    204d:	e8 7e 87 00 00       	call   a7d0 <log_msg@plt>
    2052:	89 34 24             	mov    %esi,(%esp)
    2055:	e8 66 45 00 00       	call   65c0 <tcp_tqueue_clear>
    205a:	8d 83 a4 00 00 00    	lea    0xa4(%ebx),%eax
    2060:	89 04 24             	mov    %eax,(%esp)
    2063:	e8 28 88 00 00       	call   a890 <fibril_condvar_broadcast@plt>
    2068:	81 c3 bc 00 00 00    	add    $0xbc,%ebx
    206e:	83 c4 10             	add    $0x10,%esp
    2071:	89 5d 08             	mov    %ebx,0x8(%ebp)
    2074:	8d 65 f8             	lea    -0x8(%ebp),%esp
    2077:	5b                   	pop    %ebx
    2078:	5e                   	pop    %esi
    2079:	5d                   	pop    %ebp
    207a:	e9 11 88 00 00       	jmp    a890 <fibril_condvar_broadcast@plt>
    207f:	90                   	nop
    2080:	8b 43 5c             	mov    0x5c(%ebx),%eax
    2083:	51                   	push   %ecx
    2084:	51                   	push   %ecx
    2085:	50                   	push   %eax
    2086:	53                   	push   %ebx
    2087:	8b 33                	mov    (%ebx),%esi
    2089:	56                   	push   %esi
    208a:	68 e8 86 00 00       	push   $0x86e8
    208f:	6a 05                	push   $0x5
    2091:	6a ff                	push   $0xffffffff
    2093:	e8 38 87 00 00       	call   a7d0 <log_msg@plt>
    2098:	83 c8 ff             	or     $0xffffffff,%eax
    209b:	f0 0f c1 43 5c       	lock xadd %eax,0x5c(%ebx)
    20a0:	83 c4 20             	add    $0x20,%esp
    20a3:	48                   	dec    %eax
    20a4:	75 97                	jne    203d <tcp_conn_reset+0x4d>
    20a6:	83 ec 0c             	sub    $0xc,%esp
    20a9:	8d b3 80 00 00 00    	lea    0x80(%ebx),%esi
    20af:	53                   	push   %ebx
    20b0:	8b 13                	mov    (%ebx),%edx
    20b2:	52                   	push   %edx
    20b3:	68 27 8b 00 00       	push   $0x8b27
    20b8:	6a 04                	push   $0x4
    20ba:	6a ff                	push   $0xffffffff
    20bc:	e8 0f 87 00 00       	call   a7d0 <log_msg@plt>
    20c1:	83 c4 14             	add    $0x14,%esp
    20c4:	56                   	push   %esi
    20c5:	e8 56 45 00 00       	call   6620 <tcp_tqueue_fini>
    20ca:	8b 83 94 00 00 00    	mov    0x94(%ebx),%eax
    20d0:	83 c4 10             	add    $0x10,%esp
    20d3:	85 c0                	test   %eax,%eax
    20d5:	74 0c                	je     20e3 <tcp_conn_reset+0xf3>
    20d7:	83 ec 0c             	sub    $0xc,%esp
    20da:	50                   	push   %eax
    20db:	e8 70 89 00 00       	call   aa50 <free@plt>
    20e0:	83 c4 10             	add    $0x10,%esp
    20e3:	8b 83 ac 00 00 00    	mov    0xac(%ebx),%eax
    20e9:	85 c0                	test   %eax,%eax
    20eb:	74 0c                	je     20f9 <tcp_conn_reset+0x109>
    20ed:	83 ec 0c             	sub    $0xc,%esp
    20f0:	50                   	push   %eax
    20f1:	e8 5a 89 00 00       	call   aa50 <free@plt>
    20f6:	83 c4 10             	add    $0x10,%esp
    20f9:	8b 83 90 00 00 00    	mov    0x90(%ebx),%eax
    20ff:	85 c0                	test   %eax,%eax
    2101:	74 0c                	je     210f <tcp_conn_reset+0x11f>
    2103:	83 ec 0c             	sub    $0xc,%esp
    2106:	50                   	push   %eax
    2107:	e8 04 87 00 00       	call   a810 <fibril_timer_destroy@plt>
    210c:	83 c4 10             	add    $0x10,%esp
    210f:	83 ec 0c             	sub    $0xc,%esp
    2112:	53                   	push   %ebx
    2113:	e8 38 89 00 00       	call   aa50 <free@plt>
    2118:	83 c4 10             	add    $0x10,%esp
    211b:	e9 23 ff ff ff       	jmp    2043 <tcp_conn_reset+0x53>

00002120 <tcp_conn_got_syn>:
    2120:	55                   	push   %ebp
    2121:	89 e5                	mov    %esp,%ebp
    2123:	83 ec 08             	sub    $0x8,%esp
    2126:	8b 45 08             	mov    0x8(%ebp),%eax
    2129:	83 78 60 0a          	cmpl   $0xa,0x60(%eax)
    212d:	77 49                	ja     2178 <tcp_conn_got_syn+0x58>
    212f:	8b 40 60             	mov    0x60(%eax),%eax
    2132:	ff 24 85 7c 8f 00 00 	jmp    *0x8f7c(,%eax,4)
    2139:	8d b4 26 00 00 00 00 	lea    0x0(%esi,%eiz,1),%esi
    2140:	31 c0                	xor    %eax,%eax
    2142:	c9                   	leave  
    2143:	c3                   	ret    
    2144:	8d 74 26 00          	lea    0x0(%esi,%eiz,1),%esi
    2148:	6a 0a                	push   $0xa
    214a:	68 91 8c 00 00       	push   $0x8c91
    214f:	6a 02                	push   $0x2
    2151:	6a ff                	push   $0xffffffff
    2153:	e8 78 86 00 00       	call   a7d0 <log_msg@plt>
    2158:	83 c4 0c             	add    $0xc,%esp
    215b:	68 c9 01 00 00       	push   $0x1c9
    2160:	68 09 8b 00 00       	push   $0x8b09
    2165:	68 d3 8b 00 00       	push   $0x8bd3
    216a:	e8 c1 86 00 00       	call   a830 <assert_abort@plt>
    216f:	90                   	nop
    2170:	b0 01                	mov    $0x1,%al
    2172:	c9                   	leave  
    2173:	c3                   	ret    
    2174:	8d 74 26 00          	lea    0x0(%esi,%eiz,1),%esi
    2178:	50                   	push   %eax
    2179:	68 cc 01 00 00       	push   $0x1cc
    217e:	68 09 8b 00 00       	push   $0x8b09
    2183:	68 d3 8b 00 00       	push   $0x8bd3
    2188:	e8 a3 86 00 00       	call   a830 <assert_abort@plt>
    218d:	8d 76 00             	lea    0x0(%esi),%esi

00002190 <tcp_conn_segment_arrived>:
    2190:	55                   	push   %ebp
    2191:	89 e5                	mov    %esp,%ebp
    2193:	57                   	push   %edi
    2194:	56                   	push   %esi
    2195:	53                   	push   %ebx
    2196:	81 ec a8 00 00 00    	sub    $0xa8,%esp
    219c:	8b 5d 08             	mov    0x8(%ebp),%ebx
    219f:	8b 45 10             	mov    0x10(%ebp),%eax
    21a2:	50                   	push   %eax
    21a3:	8b 03                	mov    (%ebx),%eax
    21a5:	50                   	push   %eax
    21a6:	68 70 87 00 00       	push   $0x8770
    21ab:	6a 04                	push   $0x4
    21ad:	6a ff                	push   $0xffffffff
    21af:	e8 1c 86 00 00       	call   a7d0 <log_msg@plt>
    21b4:	83 c4 14             	add    $0x14,%esp
    21b7:	8d 43 4c             	lea    0x4c(%ebx),%eax
    21ba:	50                   	push   %eax
    21bb:	89 85 64 ff ff ff    	mov    %eax,-0x9c(%ebp)
    21c1:	e8 9a 88 00 00       	call   aa60 <fibril_mutex_lock@plt>
    21c6:	83 c4 10             	add    $0x10,%esp
    21c9:	83 7b 60 0a          	cmpl   $0xa,0x60(%ebx)
    21cd:	0f 84 5d 01 00 00    	je     2330 <tcp_conn_segment_arrived+0x1a0>
    21d3:	83 ec 0c             	sub    $0xc,%esp
    21d6:	8d 43 30             	lea    0x30(%ebx),%eax
    21d9:	89 85 5c ff ff ff    	mov    %eax,-0xa4(%ebp)
    21df:	50                   	push   %eax
    21e0:	e8 0b 88 00 00       	call   a9f0 <inet_addr_is_any@plt>
    21e5:	83 c4 10             	add    $0x10,%esp
    21e8:	85 c0                	test   %eax,%eax
    21ea:	8d 43 18             	lea    0x18(%ebx),%eax
    21ed:	89 85 60 ff ff ff    	mov    %eax,-0xa0(%ebp)
    21f3:	75 0b                	jne    2200 <tcp_conn_segment_arrived+0x70>
    21f5:	66 83 7b 44 00       	cmpw   $0x0,0x44(%ebx)
    21fa:	0f 85 b8 01 00 00    	jne    23b8 <tcp_conn_segment_arrived+0x228>
    2200:	8d 73 14             	lea    0x14(%ebx),%esi
    2203:	50                   	push   %eax
    2204:	8d 7d b4             	lea    -0x4c(%ebp),%edi
    2207:	68 b4 87 00 00       	push   $0x87b4
    220c:	6a 05                	push   $0x5
    220e:	6a ff                	push   $0xffffffff
    2210:	e8 bb 85 00 00       	call   a7d0 <log_msg@plt>
    2215:	b9 0d 00 00 00       	mov    $0xd,%ecx
    221a:	89 b5 58 ff ff ff    	mov    %esi,-0xa8(%ebp)
    2220:	f3 a5                	rep movsl %ds:(%esi),%es:(%edi)
    2222:	c7 04 24 c8 c4 00 00 	movl   $0xc4c8,(%esp)
    2229:	e8 32 88 00 00       	call   aa60 <fibril_mutex_lock@plt>
    222e:	58                   	pop    %eax
    222f:	8b 85 5c ff ff ff    	mov    -0xa4(%ebp),%eax
    2235:	50                   	push   %eax
    2236:	e8 b5 87 00 00       	call   a9f0 <inet_addr_is_any@plt>
    223b:	83 c4 10             	add    $0x10,%esp
    223e:	85 c0                	test   %eax,%eax
    2240:	74 2d                	je     226f <tcp_conn_segment_arrived+0xdf>
    2242:	8b 45 0c             	mov    0xc(%ebp),%eax
    2245:	8b 40 1c             	mov    0x1c(%eax),%eax
    2248:	89 43 30             	mov    %eax,0x30(%ebx)
    224b:	8b 45 0c             	mov    0xc(%ebp),%eax
    224e:	8b 40 20             	mov    0x20(%eax),%eax
    2251:	89 43 34             	mov    %eax,0x34(%ebx)
    2254:	8b 45 0c             	mov    0xc(%ebp),%eax
    2257:	8b 40 24             	mov    0x24(%eax),%eax
    225a:	89 43 38             	mov    %eax,0x38(%ebx)
    225d:	8b 45 0c             	mov    0xc(%ebp),%eax
    2260:	8b 40 28             	mov    0x28(%eax),%eax
    2263:	89 43 3c             	mov    %eax,0x3c(%ebx)
    2266:	8b 45 0c             	mov    0xc(%ebp),%eax
    2269:	8b 40 2c             	mov    0x2c(%eax),%eax
    226c:	89 43 40             	mov    %eax,0x40(%ebx)
    226f:	66 83 7b 44 00       	cmpw   $0x0,0x44(%ebx)
    2274:	75 0a                	jne    2280 <tcp_conn_segment_arrived+0xf0>
    2276:	8b 45 0c             	mov    0xc(%ebp),%eax
    2279:	8b 40 30             	mov    0x30(%eax),%eax
    227c:	66 89 43 44          	mov    %ax,0x44(%ebx)
    2280:	83 ec 0c             	sub    $0xc,%esp
    2283:	8b 85 60 ff ff ff    	mov    -0xa0(%ebp),%eax
    2289:	50                   	push   %eax
    228a:	e8 61 87 00 00       	call   a9f0 <inet_addr_is_any@plt>
    228f:	83 c4 10             	add    $0x10,%esp
    2292:	85 c0                	test   %eax,%eax
    2294:	74 2d                	je     22c3 <tcp_conn_segment_arrived+0x133>
    2296:	8b 45 0c             	mov    0xc(%ebp),%eax
    2299:	8b 40 04             	mov    0x4(%eax),%eax
    229c:	89 43 18             	mov    %eax,0x18(%ebx)
    229f:	8b 45 0c             	mov    0xc(%ebp),%eax
    22a2:	8b 40 08             	mov    0x8(%eax),%eax
    22a5:	89 43 1c             	mov    %eax,0x1c(%ebx)
    22a8:	8b 45 0c             	mov    0xc(%ebp),%eax
    22ab:	8b 40 0c             	mov    0xc(%eax),%eax
    22ae:	89 43 20             	mov    %eax,0x20(%ebx)
    22b1:	8b 45 0c             	mov    0xc(%ebp),%eax
    22b4:	8b 40 10             	mov    0x10(%eax),%eax
    22b7:	89 43 24             	mov    %eax,0x24(%ebx)
    22ba:	8b 45 0c             	mov    0xc(%ebp),%eax
    22bd:	8b 40 14             	mov    0x14(%eax),%eax
    22c0:	89 43 28             	mov    %eax,0x28(%ebx)
    22c3:	83 ec 0c             	sub    $0xc,%esp
    22c6:	8d 45 80             	lea    -0x80(%ebp),%eax
    22c9:	50                   	push   %eax
    22ca:	8b 85 58 ff ff ff    	mov    -0xa8(%ebp),%eax
    22d0:	6a 01                	push   $0x1
    22d2:	53                   	push   %ebx
    22d3:	50                   	push   %eax
    22d4:	a1 08 c6 00 00       	mov    0xc608,%eax
    22d9:	50                   	push   %eax
    22da:	e8 71 56 00 00       	call   7950 <amap_insert>
    22df:	83 c4 20             	add    $0x20,%esp
    22e2:	85 c0                	test   %eax,%eax
    22e4:	0f 84 96 00 00 00    	je     2380 <tcp_conn_segment_arrived+0x1f0>
    22ea:	83 f8 f7             	cmp    $0xfffffff7,%eax
    22ed:	0f 84 5d 11 00 00    	je     3450 <tcp_conn_segment_arrived+0x12c0>
    22f3:	83 f8 fe             	cmp    $0xfffffffe,%eax
    22f6:	0f 85 69 11 00 00    	jne    3465 <tcp_conn_segment_arrived+0x12d5>
    22fc:	52                   	push   %edx
    22fd:	68 d3 8c 00 00       	push   $0x8cd3
    2302:	6a 01                	push   $0x1
    2304:	6a ff                	push   $0xffffffff
    2306:	e8 c5 84 00 00       	call   a7d0 <log_msg@plt>
    230b:	c7 04 24 c8 c4 00 00 	movl   $0xc4c8,(%esp)
    2312:	e8 89 85 00 00       	call   a8a0 <fibril_mutex_unlock@plt>
    2317:	8b 9d 64 ff ff ff    	mov    -0x9c(%ebp),%ebx
    231d:	59                   	pop    %ecx
    231e:	53                   	push   %ebx
    231f:	e8 7c 85 00 00       	call   a8a0 <fibril_mutex_unlock@plt>
    2324:	83 c4 10             	add    $0x10,%esp
    2327:	8d 65 f4             	lea    -0xc(%ebp),%esp
    232a:	5b                   	pop    %ebx
    232b:	5e                   	pop    %esi
    232c:	5f                   	pop    %edi
    232d:	5d                   	pop    %ebp
    232e:	c3                   	ret    
    232f:	90                   	nop
    2330:	50                   	push   %eax
    2331:	68 9a 8c 00 00       	push   $0x8c9a
    2336:	6a 02                	push   $0x2
    2338:	6a ff                	push   $0xffffffff
    233a:	e8 91 84 00 00       	call   a7d0 <log_msg@plt>
    233f:	58                   	pop    %eax
    2340:	8b 45 10             	mov    0x10(%ebp),%eax
    2343:	50                   	push   %eax
    2344:	8b 45 0c             	mov    0xc(%ebp),%eax
    2347:	50                   	push   %eax
    2348:	68 94 87 00 00       	push   $0x8794
    234d:	6a 04                	push   $0x4
    234f:	6a ff                	push   $0xffffffff
    2351:	e8 7a 84 00 00       	call   a7d0 <log_msg@plt>
    2356:	8b 45 10             	mov    0x10(%ebp),%eax
    2359:	83 c4 20             	add    $0x20,%esp
    235c:	f6 00 04             	testb  $0x4,(%eax)
    235f:	74 6f                	je     23d0 <tcp_conn_segment_arrived+0x240>
    2361:	83 ec 0c             	sub    $0xc,%esp
    2364:	8b 85 64 ff ff ff    	mov    -0x9c(%ebp),%eax
    236a:	50                   	push   %eax
    236b:	e8 30 85 00 00       	call   a8a0 <fibril_mutex_unlock@plt>
    2370:	83 c4 10             	add    $0x10,%esp
    2373:	8d 65 f4             	lea    -0xc(%ebp),%esp
    2376:	5b                   	pop    %ebx
    2377:	5e                   	pop    %esi
    2378:	5f                   	pop    %edi
    2379:	5d                   	pop    %ebp
    237a:	c3                   	ret    
    237b:	90                   	nop
    237c:	8d 74 26 00          	lea    0x0(%esi,%eiz,1),%esi
    2380:	50                   	push   %eax
    2381:	50                   	push   %eax
    2382:	8d 45 b4             	lea    -0x4c(%ebp),%eax
    2385:	50                   	push   %eax
    2386:	a1 08 c6 00 00       	mov    0xc608,%eax
    238b:	50                   	push   %eax
    238c:	e8 6f 5a 00 00       	call   7e00 <amap_remove>
    2391:	c7 04 24 c8 c4 00 00 	movl   $0xc4c8,(%esp)
    2398:	e8 03 85 00 00       	call   a8a0 <fibril_mutex_unlock@plt>
    239d:	c7 03 e2 8c 00 00    	movl   $0x8ce2,(%ebx)
    23a3:	83 c4 10             	add    $0x10,%esp
    23a6:	83 7b 60 0a          	cmpl   $0xa,0x60(%ebx)
    23aa:	77 b5                	ja     2361 <tcp_conn_segment_arrived+0x1d1>
    23ac:	8b 43 60             	mov    0x60(%ebx),%eax
    23af:	ff 24 85 a8 8f 00 00 	jmp    *0x8fa8(,%eax,4)
    23b6:	66 90                	xchg   %ax,%ax
    23b8:	83 ec 0c             	sub    $0xc,%esp
    23bb:	50                   	push   %eax
    23bc:	e8 2f 86 00 00       	call   a9f0 <inet_addr_is_any@plt>
    23c1:	83 c4 10             	add    $0x10,%esp
    23c4:	85 c0                	test   %eax,%eax
    23c6:	0f 85 34 fe ff ff    	jne    2200 <tcp_conn_segment_arrived+0x70>
    23cc:	eb d8                	jmp    23a6 <tcp_conn_segment_arrived+0x216>
    23ce:	66 90                	xchg   %ax,%ax
    23d0:	83 ec 0c             	sub    $0xc,%esp
    23d3:	8b 55 0c             	mov    0xc(%ebp),%edx
    23d6:	50                   	push   %eax
    23d7:	52                   	push   %edx
    23d8:	68 b0 8c 00 00       	push   $0x8cb0
    23dd:	6a 04                	push   $0x4
    23df:	6a ff                	push   $0xffffffff
    23e1:	e8 ea 83 00 00       	call   a7d0 <log_msg@plt>
    23e6:	83 c4 14             	add    $0x14,%esp
    23e9:	8b 4d 10             	mov    0x10(%ebp),%ecx
    23ec:	51                   	push   %ecx
    23ed:	e8 3e 20 00 00       	call   4430 <tcp_segment_make_rst>
    23f2:	8b 7d 0c             	mov    0xc(%ebp),%edi
    23f5:	5b                   	pop    %ebx
    23f6:	5e                   	pop    %esi
    23f7:	50                   	push   %eax
    23f8:	57                   	push   %edi
    23f9:	e8 62 4b 00 00       	call   6f60 <tcp_transmit_segment>
    23fe:	83 c4 10             	add    $0x10,%esp
    2401:	e9 5b ff ff ff       	jmp    2361 <tcp_conn_segment_arrived+0x1d1>
    2406:	66 90                	xchg   %ax,%ax
    2408:	83 ec 0c             	sub    $0xc,%esp
    240b:	8b 4d 10             	mov    0x10(%ebp),%ecx
    240e:	51                   	push   %ecx
    240f:	53                   	push   %ebx
    2410:	68 fb 8d 00 00       	push   $0x8dfb
    2415:	6a 04                	push   $0x4
    2417:	6a ff                	push   $0xffffffff
    2419:	e8 b2 83 00 00       	call   a7d0 <log_msg@plt>
    241e:	83 c4 18             	add    $0x18,%esp
    2421:	8b 75 10             	mov    0x10(%ebp),%esi
    2424:	56                   	push   %esi
    2425:	53                   	push   %ebx
    2426:	e8 75 38 00 00       	call   5ca0 <seq_no_segment_acceptable>
    242b:	83 c4 10             	add    $0x10,%esp
    242e:	84 c0                	test   %al,%al
    2430:	0f 84 42 03 00 00    	je     2778 <tcp_conn_segment_arrived+0x5e8>
    2436:	8b 45 10             	mov    0x10(%ebp),%eax
    2439:	8d 73 74             	lea    0x74(%ebx),%esi
    243c:	57                   	push   %edi
    243d:	57                   	push   %edi
    243e:	50                   	push   %eax
    243f:	56                   	push   %esi
    2440:	e8 eb 11 00 00       	call   3630 <tcp_iqueue_insert_seg>
    2445:	8d 83 80 00 00 00    	lea    0x80(%ebx),%eax
    244b:	83 c4 10             	add    $0x10,%esp
    244e:	89 85 5c ff ff ff    	mov    %eax,-0xa4(%ebp)
    2454:	8d 83 a4 00 00 00    	lea    0xa4(%ebx),%eax
    245a:	89 85 60 ff ff ff    	mov    %eax,-0xa0(%ebp)
    2460:	50                   	push   %eax
    2461:	50                   	push   %eax
    2462:	8d 85 74 ff ff ff    	lea    -0x8c(%ebp),%eax
    2468:	50                   	push   %eax
    2469:	56                   	push   %esi
    246a:	e8 71 12 00 00       	call   36e0 <tcp_iqueue_get_ready_seg>
    246f:	83 c4 10             	add    $0x10,%esp
    2472:	85 c0                	test   %eax,%eax
    2474:	0f 85 e7 fe ff ff    	jne    2361 <tcp_conn_segment_arrived+0x1d1>
    247a:	83 ec 0c             	sub    $0xc,%esp
    247d:	8b bd 74 ff ff ff    	mov    -0x8c(%ebp),%edi
    2483:	57                   	push   %edi
    2484:	53                   	push   %ebx
    2485:	68 13 8e 00 00       	push   $0x8e13
    248a:	6a 04                	push   $0x4
    248c:	6a ff                	push   $0xffffffff
    248e:	e8 3d 83 00 00       	call   a7d0 <log_msg@plt>
    2493:	83 c4 14             	add    $0x14,%esp
    2496:	57                   	push   %edi
    2497:	e8 04 22 00 00       	call   46a0 <tcp_segment_dump>
    249c:	8b 07                	mov    (%edi),%eax
    249e:	83 c4 10             	add    $0x10,%esp
    24a1:	a8 04                	test   $0x4,%al
    24a3:	0f 84 2f 05 00 00    	je     29d8 <tcp_conn_segment_arrived+0x848>
    24a9:	83 7b 60 0a          	cmpl   $0xa,0x60(%ebx)
    24ad:	77 b1                	ja     2460 <tcp_conn_segment_arrived+0x2d0>
    24af:	8b 43 60             	mov    0x60(%ebx),%eax
    24b2:	ff 24 85 d4 8f 00 00 	jmp    *0x8fd4(,%eax,4)
    24b9:	8d b4 26 00 00 00 00 	lea    0x0(%esi,%eiz,1),%esi
    24c0:	83 ec 0c             	sub    $0xc,%esp
    24c3:	8b 45 10             	mov    0x10(%ebp),%eax
    24c6:	50                   	push   %eax
    24c7:	53                   	push   %ebx
    24c8:	68 3c 8d 00 00       	push   $0x8d3c
    24cd:	6a 04                	push   $0x4
    24cf:	6a ff                	push   $0xffffffff
    24d1:	e8 fa 82 00 00       	call   a7d0 <log_msg@plt>
    24d6:	8b 45 10             	mov    0x10(%ebp),%eax
    24d9:	83 c4 20             	add    $0x20,%esp
    24dc:	8b 00                	mov    (%eax),%eax
    24de:	a8 08                	test   $0x8,%al
    24e0:	0f 85 aa 02 00 00    	jne    2790 <tcp_conn_segment_arrived+0x600>
    24e6:	a8 04                	test   $0x4,%al
    24e8:	0f 85 02 09 00 00    	jne    2df0 <tcp_conn_segment_arrived+0xc60>
    24ee:	a8 01                	test   $0x1,%al
    24f0:	0f 84 ba 0a 00 00    	je     2fb0 <tcp_conn_segment_arrived+0xe20>
    24f6:	8b 45 10             	mov    0x10(%ebp),%eax
    24f9:	8b 40 04             	mov    0x4(%eax),%eax
    24fc:	89 83 ec 00 00 00    	mov    %eax,0xec(%ebx)
    2502:	8d 50 01             	lea    0x1(%eax),%edx
    2505:	89 93 e0 00 00 00    	mov    %edx,0xe0(%ebx)
    250b:	57                   	push   %edi
    250c:	68 cb 8d 00 00       	push   $0x8dcb
    2511:	6a 04                	push   $0x4
    2513:	6a ff                	push   $0xffffffff
    2515:	e8 b6 82 00 00       	call   a7d0 <log_msg@plt>
    251a:	8b 45 10             	mov    0x10(%ebp),%eax
    251d:	8b 40 04             	mov    0x4(%eax),%eax
    2520:	5a                   	pop    %edx
    2521:	59                   	pop    %ecx
    2522:	50                   	push   %eax
    2523:	50                   	push   %eax
    2524:	8b 45 10             	mov    0x10(%ebp),%eax
    2527:	8b 70 10             	mov    0x10(%eax),%esi
    252a:	56                   	push   %esi
    252b:	68 ac 88 00 00       	push   $0x88ac
    2530:	6a 04                	push   $0x4
    2532:	6a ff                	push   $0xffffffff
    2534:	e8 97 82 00 00       	call   a7d0 <log_msg@plt>
    2539:	8b 45 10             	mov    0x10(%ebp),%eax
    253c:	8b 40 10             	mov    0x10(%eax),%eax
    253f:	83 c4 14             	add    $0x14,%esp
    2542:	89 83 cc 00 00 00    	mov    %eax,0xcc(%ebx)
    2548:	8b 45 10             	mov    0x10(%ebp),%eax
    254b:	8b 40 04             	mov    0x4(%eax),%eax
    254e:	89 83 d4 00 00 00    	mov    %eax,0xd4(%ebx)
    2554:	89 83 d8 00 00 00    	mov    %eax,0xd8(%ebx)
    255a:	53                   	push   %ebx
    255b:	e8 00 37 00 00       	call   5c60 <seq_no_syn_acked>
    2560:	83 c4 10             	add    $0x10,%esp
    2563:	84 c0                	test   %al,%al
    2565:	0f 84 9e 08 00 00    	je     2e09 <tcp_conn_segment_arrived+0xc79>
    256b:	8b 33                	mov    (%ebx),%esi
    256d:	56                   	push   %esi
    256e:	68 de 8d 00 00       	push   $0x8dde
    2573:	6a 04                	push   $0x4
    2575:	6a ff                	push   $0xffffffff
    2577:	e8 54 82 00 00       	call   a7d0 <log_msg@plt>
    257c:	53                   	push   %ebx
    257d:	68 f2 8a 00 00       	push   $0x8af2
    2582:	6a 04                	push   $0x4
    2584:	6a ff                	push   $0xffffffff
    2586:	e8 45 82 00 00       	call   a7d0 <log_msg@plt>
    258b:	83 c4 14             	add    $0x14,%esp
    258e:	8b 73 60             	mov    0x60(%ebx),%esi
    2591:	8d 43 68             	lea    0x68(%ebx),%eax
    2594:	c7 43 60 03 00 00 00 	movl   $0x3,0x60(%ebx)
    259b:	50                   	push   %eax
    259c:	e8 ef 82 00 00       	call   a890 <fibril_condvar_broadcast@plt>
    25a1:	8b 43 0c             	mov    0xc(%ebx),%eax
    25a4:	83 c4 10             	add    $0x10,%esp
    25a7:	85 c0                	test   %eax,%eax
    25a9:	0f 84 2f 0a 00 00    	je     2fde <tcp_conn_segment_arrived+0xe4e>
    25af:	8b 08                	mov    (%eax),%ecx
    25b1:	85 c9                	test   %ecx,%ecx
    25b3:	0f 84 25 0a 00 00    	je     2fde <tcp_conn_segment_arrived+0xe4e>
    25b9:	50                   	push   %eax
    25ba:	68 a0 86 00 00       	push   $0x86a0
    25bf:	6a 04                	push   $0x4
    25c1:	6a ff                	push   $0xffffffff
    25c3:	e8 08 82 00 00       	call   a7d0 <log_msg@plt>
    25c8:	83 c4 0c             	add    $0xc,%esp
    25cb:	8b 43 0c             	mov    0xc(%ebx),%eax
    25ce:	8b 53 10             	mov    0x10(%ebx),%edx
    25d1:	56                   	push   %esi
    25d2:	52                   	push   %edx
    25d3:	53                   	push   %ebx
    25d4:	ff 10                	call   *(%eax)
    25d6:	83 c4 10             	add    $0x10,%esp
    25d9:	83 fe 0a             	cmp    $0xa,%esi
    25dc:	0f 84 ae 06 00 00    	je     2c90 <tcp_conn_segment_arrived+0xb00>
    25e2:	57                   	push   %edi
    25e3:	57                   	push   %edi
    25e4:	6a 08                	push   $0x8
    25e6:	53                   	push   %ebx
    25e7:	e8 a4 42 00 00       	call   6890 <tcp_tqueue_ctrl_seg>
    25ec:	83 c4 10             	add    $0x10,%esp
    25ef:	83 ec 0c             	sub    $0xc,%esp
    25f2:	8b 7d 10             	mov    0x10(%ebp),%edi
    25f5:	57                   	push   %edi
    25f6:	e8 35 1d 00 00       	call   4330 <tcp_segment_delete>
    25fb:	83 c4 10             	add    $0x10,%esp
    25fe:	e9 5e fd ff ff       	jmp    2361 <tcp_conn_segment_arrived+0x1d1>
    2603:	90                   	nop
    2604:	8d 74 26 00          	lea    0x0(%esi,%eiz,1),%esi
    2608:	83 ec 0c             	sub    $0xc,%esp
    260b:	8b 45 10             	mov    0x10(%ebp),%eax
    260e:	50                   	push   %eax
    260f:	53                   	push   %ebx
    2610:	68 e4 8c 00 00       	push   $0x8ce4
    2615:	6a 04                	push   $0x4
    2617:	6a ff                	push   $0xffffffff
    2619:	e8 b2 81 00 00       	call   a7d0 <log_msg@plt>
    261e:	8b 45 10             	mov    0x10(%ebp),%eax
    2621:	83 c4 20             	add    $0x20,%esp
    2624:	8b 00                	mov    (%eax),%eax
    2626:	a8 04                	test   $0x4,%al
    2628:	0f 85 92 03 00 00    	jne    29c0 <tcp_conn_segment_arrived+0x830>
    262e:	a8 08                	test   $0x8,%al
    2630:	0f 85 5c 08 00 00    	jne    2e92 <tcp_conn_segment_arrived+0xd02>
    2636:	a8 01                	test   $0x1,%al
    2638:	0f 84 9a 07 00 00    	je     2dd8 <tcp_conn_segment_arrived+0xc48>
    263e:	57                   	push   %edi
    263f:	68 16 8d 00 00       	push   $0x8d16
    2644:	6a 04                	push   $0x4
    2646:	6a ff                	push   $0xffffffff
    2648:	e8 83 81 00 00       	call   a7d0 <log_msg@plt>
    264d:	8b 45 10             	mov    0x10(%ebp),%eax
    2650:	8b 50 04             	mov    0x4(%eax),%edx
    2653:	89 93 ec 00 00 00    	mov    %edx,0xec(%ebx)
    2659:	8d 42 01             	lea    0x1(%edx),%eax
    265c:	89 83 e0 00 00 00    	mov    %eax,0xe0(%ebx)
    2662:	50                   	push   %eax
    2663:	68 31 8d 00 00       	push   $0x8d31
    2668:	6a 04                	push   $0x4
    266a:	6a ff                	push   $0xffffffff
    266c:	e8 5f 81 00 00       	call   a7d0 <log_msg@plt>
    2671:	8b 45 10             	mov    0x10(%ebp),%eax
    2674:	83 c4 20             	add    $0x20,%esp
    2677:	83 78 0c 01          	cmpl   $0x1,0xc(%eax)
    267b:	76 15                	jbe    2692 <tcp_conn_segment_arrived+0x502>
    267d:	56                   	push   %esi
    267e:	68 40 88 00 00       	push   $0x8840
    2683:	6a 02                	push   $0x2
    2685:	6a ff                	push   $0xffffffff
    2687:	e8 44 81 00 00       	call   a7d0 <log_msg@plt>
    268c:	83 c4 10             	add    $0x10,%esp
    268f:	8b 45 10             	mov    0x10(%ebp),%eax
    2692:	8b 40 10             	mov    0x10(%eax),%eax
    2695:	c7 83 dc 00 00 00 01 	movl   $0x1,0xdc(%ebx)
    269c:	00 00 00 
    269f:	89 83 cc 00 00 00    	mov    %eax,0xcc(%ebx)
    26a5:	8b 45 10             	mov    0x10(%ebp),%eax
    26a8:	c7 83 c8 00 00 00 01 	movl   $0x1,0xc8(%ebx)
    26af:	00 00 00 
    26b2:	c7 83 c4 00 00 00 01 	movl   $0x1,0xc4(%ebx)
    26b9:	00 00 00 
    26bc:	8b 40 04             	mov    0x4(%eax),%eax
    26bf:	89 83 d4 00 00 00    	mov    %eax,0xd4(%ebx)
    26c5:	89 83 d8 00 00 00    	mov    %eax,0xd8(%ebx)
    26cb:	53                   	push   %ebx
    26cc:	68 f2 8a 00 00       	push   $0x8af2
    26d1:	6a 04                	push   $0x4
    26d3:	6a ff                	push   $0xffffffff
    26d5:	e8 f6 80 00 00       	call   a7d0 <log_msg@plt>
    26da:	8b 73 60             	mov    0x60(%ebx),%esi
    26dd:	8d 43 68             	lea    0x68(%ebx),%eax
    26e0:	c7 43 60 02 00 00 00 	movl   $0x2,0x60(%ebx)
    26e7:	89 04 24             	mov    %eax,(%esp)
    26ea:	e8 a1 81 00 00       	call   a890 <fibril_condvar_broadcast@plt>
    26ef:	8b 43 0c             	mov    0xc(%ebx),%eax
    26f2:	83 c4 10             	add    $0x10,%esp
    26f5:	85 c0                	test   %eax,%eax
    26f7:	0f 84 d5 07 00 00    	je     2ed2 <tcp_conn_segment_arrived+0xd42>
    26fd:	8b 08                	mov    (%eax),%ecx
    26ff:	85 c9                	test   %ecx,%ecx
    2701:	0f 84 cb 07 00 00    	je     2ed2 <tcp_conn_segment_arrived+0xd42>
    2707:	57                   	push   %edi
    2708:	68 a0 86 00 00       	push   $0x86a0
    270d:	6a 04                	push   $0x4
    270f:	6a ff                	push   $0xffffffff
    2711:	e8 ba 80 00 00       	call   a7d0 <log_msg@plt>
    2716:	83 c4 0c             	add    $0xc,%esp
    2719:	8b 43 0c             	mov    0xc(%ebx),%eax
    271c:	8b 53 10             	mov    0x10(%ebx),%edx
    271f:	56                   	push   %esi
    2720:	52                   	push   %edx
    2721:	53                   	push   %ebx
    2722:	ff 10                	call   *(%eax)
    2724:	83 c4 10             	add    $0x10,%esp
    2727:	83 fe 0a             	cmp    $0xa,%esi
    272a:	0f 84 60 05 00 00    	je     2c90 <tcp_conn_segment_arrived+0xb00>
    2730:	50                   	push   %eax
    2731:	50                   	push   %eax
    2732:	6a 09                	push   $0x9
    2734:	53                   	push   %ebx
    2735:	e8 56 41 00 00       	call   6890 <tcp_tqueue_ctrl_seg>
    273a:	58                   	pop    %eax
    273b:	8b 45 10             	mov    0x10(%ebp),%eax
    273e:	50                   	push   %eax
    273f:	e8 ec 1b 00 00       	call   4330 <tcp_segment_delete>
    2744:	83 c4 10             	add    $0x10,%esp
    2747:	e9 15 fc ff ff       	jmp    2361 <tcp_conn_segment_arrived+0x1d1>
    274c:	8d 74 26 00          	lea    0x0(%esi,%eiz,1),%esi
    2750:	6a 0a                	push   $0xa
    2752:	68 91 8c 00 00       	push   $0x8c91
    2757:	6a 04                	push   $0x4
    2759:	6a ff                	push   $0xffffffff
    275b:	e8 70 80 00 00       	call   a7d0 <log_msg@plt>
    2760:	83 c4 0c             	add    $0xc,%esp
    2763:	68 eb 04 00 00       	push   $0x4eb
    2768:	68 09 8b 00 00       	push   $0x8b09
    276d:	68 d3 8b 00 00       	push   $0x8bd3
    2772:	e8 b9 80 00 00       	call   a830 <assert_abort@plt>
    2777:	90                   	nop
    2778:	50                   	push   %eax
    2779:	68 fc 88 00 00       	push   $0x88fc
    277e:	6a 04                	push   $0x4
    2780:	6a ff                	push   $0xffffffff
    2782:	e8 49 80 00 00       	call   a7d0 <log_msg@plt>
    2787:	58                   	pop    %eax
    2788:	5a                   	pop    %edx
    2789:	6a 08                	push   $0x8
    278b:	eb a7                	jmp    2734 <tcp_conn_segment_arrived+0x5a4>
    278d:	8d 76 00             	lea    0x0(%esi),%esi
    2790:	57                   	push   %edi
    2791:	57                   	push   %edi
    2792:	8b 83 c8 00 00 00    	mov    0xc8(%ebx),%eax
    2798:	50                   	push   %eax
    2799:	8b 45 10             	mov    0x10(%ebp),%eax
    279c:	8b 40 08             	mov    0x8(%eax),%eax
    279f:	50                   	push   %eax
    27a0:	8b 83 c4 00 00 00    	mov    0xc4(%ebx),%eax
    27a6:	50                   	push   %eax
    27a7:	68 68 88 00 00       	push   $0x8868
    27ac:	6a 04                	push   $0x4
    27ae:	6a ff                	push   $0xffffffff
    27b0:	e8 1b 80 00 00       	call   a7d0 <log_msg@plt>
    27b5:	8b 45 10             	mov    0x10(%ebp),%eax
    27b8:	83 c4 18             	add    $0x18,%esp
    27bb:	8b 40 08             	mov    0x8(%eax),%eax
    27be:	50                   	push   %eax
    27bf:	53                   	push   %ebx
    27c0:	e8 1b 31 00 00       	call   58e0 <seq_no_ack_acceptable>
    27c5:	83 c4 10             	add    $0x10,%esp
    27c8:	84 c0                	test   %al,%al
    27ca:	8b 45 10             	mov    0x10(%ebp),%eax
    27cd:	0f 85 cc 06 00 00    	jne    2e9f <tcp_conn_segment_arrived+0xd0f>
    27d3:	f6 00 04             	testb  $0x4,(%eax)
    27d6:	0f 85 eb 07 00 00    	jne    2fc7 <tcp_conn_segment_arrived+0xe37>
    27dc:	56                   	push   %esi
    27dd:	68 59 8d 00 00       	push   $0x8d59
    27e2:	6a 02                	push   $0x2
    27e4:	6a ff                	push   $0xffffffff
    27e6:	83 c3 14             	add    $0x14,%ebx
    27e9:	e8 e2 7f 00 00       	call   a7d0 <log_msg@plt>
    27ee:	58                   	pop    %eax
    27ef:	8b 45 10             	mov    0x10(%ebp),%eax
    27f2:	50                   	push   %eax
    27f3:	53                   	push   %ebx
    27f4:	68 b0 8c 00 00       	push   $0x8cb0
    27f9:	6a 04                	push   $0x4
    27fb:	6a ff                	push   $0xffffffff
    27fd:	e8 ce 7f 00 00       	call   a7d0 <log_msg@plt>
    2802:	83 c4 14             	add    $0x14,%esp
    2805:	8b 45 10             	mov    0x10(%ebp),%eax
    2808:	50                   	push   %eax
    2809:	e8 22 1c 00 00       	call   4430 <tcp_segment_make_rst>
    280e:	5a                   	pop    %edx
    280f:	59                   	pop    %ecx
    2810:	50                   	push   %eax
    2811:	53                   	push   %ebx
    2812:	e8 49 47 00 00       	call   6f60 <tcp_transmit_segment>
    2817:	83 c4 10             	add    $0x10,%esp
    281a:	e9 42 fb ff ff       	jmp    2361 <tcp_conn_segment_arrived+0x1d1>
    281f:	90                   	nop
    2820:	8b 03                	mov    (%ebx),%eax
    2822:	50                   	push   %eax
    2823:	68 5e 8c 00 00       	push   $0x8c5e
    2828:	6a 04                	push   $0x4
    282a:	6a ff                	push   $0xffffffff
    282c:	e8 9f 7f 00 00       	call   a7d0 <log_msg@plt>
    2831:	c6 43 64 01          	movb   $0x1,0x64(%ebx)
    2835:	ba 0a 00 00 00       	mov    $0xa,%edx
    283a:	89 d8                	mov    %ebx,%eax
    283c:	e8 2f ea ff ff       	call   1270 <tcp_conn_state_set>
    2841:	83 c4 0c             	add    $0xc,%esp
    2844:	68 50 87 00 00       	push   $0x8750
    2849:	6a 05                	push   $0x5
    284b:	6a ff                	push   $0xffffffff
    284d:	e8 7e 7f 00 00       	call   a7d0 <log_msg@plt>
    2852:	8b 83 90 00 00 00    	mov    0x90(%ebx),%eax
    2858:	5f                   	pop    %edi
    2859:	50                   	push   %eax
    285a:	e8 d1 81 00 00       	call   aa30 <fibril_timer_clear_locked@plt>
    285f:	83 c4 10             	add    $0x10,%esp
    2862:	48                   	dec    %eax
    2863:	0f 84 9f 06 00 00    	je     2f08 <tcp_conn_segment_arrived+0xd78>
    2869:	50                   	push   %eax
    286a:	68 73 8c 00 00       	push   $0x8c73
    286f:	6a 05                	push   $0x5
    2871:	6a ff                	push   $0xffffffff
    2873:	e8 58 7f 00 00       	call   a7d0 <log_msg@plt>
    2878:	58                   	pop    %eax
    2879:	8b 85 5c ff ff ff    	mov    -0xa4(%ebp),%eax
    287f:	50                   	push   %eax
    2880:	e8 3b 3d 00 00       	call   65c0 <tcp_tqueue_clear>
    2885:	8b 95 60 ff ff ff    	mov    -0xa0(%ebp),%edx
    288b:	58                   	pop    %eax
    288c:	52                   	push   %edx
    288d:	e8 fe 7f 00 00       	call   a890 <fibril_condvar_broadcast@plt>
    2892:	8d 83 bc 00 00 00    	lea    0xbc(%ebx),%eax
    2898:	89 04 24             	mov    %eax,(%esp)
    289b:	e8 f0 7f 00 00       	call   a890 <fibril_condvar_broadcast@plt>
    28a0:	83 c4 10             	add    $0x10,%esp
    28a3:	e9 b8 fb ff ff       	jmp    2460 <tcp_conn_segment_arrived+0x2d0>
    28a8:	8b 3b                	mov    (%ebx),%edi
    28aa:	57                   	push   %edi
    28ab:	68 30 8e 00 00       	push   $0x8e30
    28b0:	6a 04                	push   $0x4
    28b2:	6a ff                	push   $0xffffffff
    28b4:	e8 17 7f 00 00       	call   a7d0 <log_msg@plt>
    28b9:	8b 03                	mov    (%ebx),%eax
    28bb:	50                   	push   %eax
    28bc:	68 5e 8c 00 00       	push   $0x8c5e
    28c1:	6a 04                	push   $0x4
    28c3:	6a ff                	push   $0xffffffff
    28c5:	e8 06 7f 00 00       	call   a7d0 <log_msg@plt>
    28ca:	89 d8                	mov    %ebx,%eax
    28cc:	83 c4 20             	add    $0x20,%esp
    28cf:	c6 43 64 01          	movb   $0x1,0x64(%ebx)
    28d3:	ba 0a 00 00 00       	mov    $0xa,%edx
    28d8:	e8 93 e9 ff ff       	call   1270 <tcp_conn_state_set>
    28dd:	50                   	push   %eax
    28de:	e9 61 ff ff ff       	jmp    2844 <tcp_conn_segment_arrived+0x6b4>
    28e3:	90                   	nop
    28e4:	8d 74 26 00          	lea    0x0(%esi,%eiz,1),%esi
    28e8:	83 7b 48 01          	cmpl   $0x1,0x48(%ebx)
    28ec:	0f 85 2e ff ff ff    	jne    2820 <tcp_conn_segment_arrived+0x690>
    28f2:	53                   	push   %ebx
    28f3:	68 f2 8a 00 00       	push   $0x8af2
    28f8:	6a 04                	push   $0x4
    28fa:	6a ff                	push   $0xffffffff
    28fc:	e8 cf 7e 00 00       	call   a7d0 <log_msg@plt>
    2901:	8b 7b 60             	mov    0x60(%ebx),%edi
    2904:	8d 43 68             	lea    0x68(%ebx),%eax
    2907:	c7 43 60 00 00 00 00 	movl   $0x0,0x60(%ebx)
    290e:	89 04 24             	mov    %eax,(%esp)
    2911:	e8 7a 7f 00 00       	call   a890 <fibril_condvar_broadcast@plt>
    2916:	8b 43 0c             	mov    0xc(%ebx),%eax
    2919:	83 c4 10             	add    $0x10,%esp
    291c:	85 c0                	test   %eax,%eax
    291e:	0f 84 dd 09 00 00    	je     3301 <tcp_conn_segment_arrived+0x1171>
    2924:	8b 08                	mov    (%eax),%ecx
    2926:	85 c9                	test   %ecx,%ecx
    2928:	0f 84 d3 09 00 00    	je     3301 <tcp_conn_segment_arrived+0x1171>
    292e:	50                   	push   %eax
    292f:	68 a0 86 00 00       	push   $0x86a0
    2934:	6a 04                	push   $0x4
    2936:	6a ff                	push   $0xffffffff
    2938:	e8 93 7e 00 00       	call   a7d0 <log_msg@plt>
    293d:	83 c4 0c             	add    $0xc,%esp
    2940:	8b 43 0c             	mov    0xc(%ebx),%eax
    2943:	8b 53 10             	mov    0x10(%ebx),%edx
    2946:	57                   	push   %edi
    2947:	52                   	push   %edx
    2948:	53                   	push   %ebx
    2949:	ff 10                	call   *(%eax)
    294b:	83 c4 10             	add    $0x10,%esp
    294e:	83 ff 0a             	cmp    $0xa,%edi
    2951:	0f 84 39 03 00 00    	je     2c90 <tcp_conn_segment_arrived+0xb00>
    2957:	51                   	push   %ecx
    2958:	68 50 87 00 00       	push   $0x8750
    295d:	6a 05                	push   $0x5
    295f:	6a ff                	push   $0xffffffff
    2961:	e8 6a 7e 00 00       	call   a7d0 <log_msg@plt>
    2966:	8b 83 90 00 00 00    	mov    0x90(%ebx),%eax
    296c:	5f                   	pop    %edi
    296d:	50                   	push   %eax
    296e:	e8 bd 80 00 00       	call   aa30 <fibril_timer_clear_locked@plt>
    2973:	83 c4 10             	add    $0x10,%esp
    2976:	48                   	dec    %eax
    2977:	0f 84 ed 09 00 00    	je     336a <tcp_conn_segment_arrived+0x11da>
    297d:	50                   	push   %eax
    297e:	68 73 8c 00 00       	push   $0x8c73
    2983:	6a 05                	push   $0x5
    2985:	6a ff                	push   $0xffffffff
    2987:	e8 44 7e 00 00       	call   a7d0 <log_msg@plt>
    298c:	58                   	pop    %eax
    298d:	8b 85 5c ff ff ff    	mov    -0xa4(%ebp),%eax
    2993:	50                   	push   %eax
    2994:	e8 27 3c 00 00       	call   65c0 <tcp_tqueue_clear>
    2999:	83 c4 10             	add    $0x10,%esp
    299c:	e9 bf fa ff ff       	jmp    2460 <tcp_conn_segment_arrived+0x2d0>
    29a1:	8d b4 26 00 00 00 00 	lea    0x0(%esi,%eiz,1),%esi
    29a8:	51                   	push   %ecx
    29a9:	68 a7 02 00 00       	push   $0x2a7
    29ae:	68 09 8b 00 00       	push   $0x8b09
    29b3:	68 d3 8b 00 00       	push   $0x8bd3
    29b8:	e8 73 7e 00 00       	call   a830 <assert_abort@plt>
    29bd:	8d 76 00             	lea    0x0(%esi),%esi
    29c0:	50                   	push   %eax
    29c1:	68 ff 8c 00 00       	push   $0x8cff
    29c6:	6a 04                	push   $0x4
    29c8:	6a ff                	push   $0xffffffff
    29ca:	e8 01 7e 00 00       	call   a7d0 <log_msg@plt>
    29cf:	83 c4 10             	add    $0x10,%esp
    29d2:	e9 8a f9 ff ff       	jmp    2361 <tcp_conn_segment_arrived+0x1d1>
    29d7:	90                   	nop
    29d8:	a8 01                	test   $0x1,%al
    29da:	0f 85 c8 03 00 00    	jne    2da8 <tcp_conn_segment_arrived+0xc18>
    29e0:	51                   	push   %ecx
    29e1:	51                   	push   %ecx
    29e2:	8b 03                	mov    (%ebx),%eax
    29e4:	57                   	push   %edi
    29e5:	53                   	push   %ebx
    29e6:	50                   	push   %eax
    29e7:	68 80 8a 00 00       	push   $0x8a80
    29ec:	6a 04                	push   $0x4
    29ee:	6a ff                	push   $0xffffffff
    29f0:	e8 db 7d 00 00       	call   a7d0 <log_msg@plt>
    29f5:	83 c4 20             	add    $0x20,%esp
    29f8:	f6 07 08             	testb  $0x8,(%edi)
    29fb:	0f 84 e8 04 00 00    	je     2ee9 <tcp_conn_segment_arrived+0xd59>
    2a01:	83 7b 60 0a          	cmpl   $0xa,0x60(%ebx)
    2a05:	0f 87 01 06 00 00    	ja     300c <tcp_conn_segment_arrived+0xe7c>
    2a0b:	8b 43 60             	mov    0x60(%ebx),%eax
    2a0e:	ff 24 85 00 90 00 00 	jmp    *0x9000(,%eax,4)
    2a15:	89 fa                	mov    %edi,%edx
    2a17:	89 d8                	mov    %ebx,%eax
    2a19:	e8 12 e7 ff ff       	call   1130 <tcp_conn_seg_proc_ack_est>
    2a1e:	48                   	dec    %eax
    2a1f:	0f 84 2f fa ff ff    	je     2454 <tcp_conn_segment_arrived+0x2c4>
    2a25:	50                   	push   %eax
    2a26:	50                   	push   %eax
    2a27:	8b 03                	mov    (%ebx),%eax
    2a29:	57                   	push   %edi
    2a2a:	53                   	push   %ebx
    2a2b:	50                   	push   %eax
    2a2c:	68 a8 89 00 00       	push   $0x89a8
    2a31:	6a 04                	push   $0x4
    2a33:	6a ff                	push   $0xffffffff
    2a35:	e8 96 7d 00 00       	call   a7d0 <log_msg@plt>
    2a3a:	83 c4 20             	add    $0x20,%esp
    2a3d:	83 7b 60 0a          	cmpl   $0xa,0x60(%ebx)
    2a41:	0f 87 c5 00 00 00    	ja     2b0c <tcp_conn_segment_arrived+0x97c>
    2a47:	8b 43 60             	mov    0x60(%ebx),%eax
    2a4a:	ff 24 85 2c 90 00 00 	jmp    *0x902c(,%eax,4)
    2a51:	8d 85 7c ff ff ff    	lea    -0x84(%ebp),%eax
    2a57:	50                   	push   %eax
    2a58:	8d 85 78 ff ff ff    	lea    -0x88(%ebp),%eax
    2a5e:	50                   	push   %eax
    2a5f:	57                   	push   %edi
    2a60:	53                   	push   %ebx
    2a61:	e8 1a 33 00 00       	call   5d80 <seq_no_seg_trim_calc>
    2a66:	83 c4 0c             	add    $0xc,%esp
    2a69:	8b 85 7c ff ff ff    	mov    -0x84(%ebp),%eax
    2a6f:	50                   	push   %eax
    2a70:	8b 85 78 ff ff ff    	mov    -0x88(%ebp),%eax
    2a76:	50                   	push   %eax
    2a77:	57                   	push   %edi
    2a78:	e8 73 1a 00 00       	call   44f0 <tcp_segment_trim>
    2a7d:	83 c4 10             	add    $0x10,%esp
    2a80:	50                   	push   %eax
    2a81:	50                   	push   %eax
    2a82:	8b 13                	mov    (%ebx),%edx
    2a84:	57                   	push   %edi
    2a85:	53                   	push   %ebx
    2a86:	52                   	push   %edx
    2a87:	68 a4 8a 00 00       	push   $0x8aa4
    2a8c:	6a 04                	push   $0x4
    2a8e:	6a ff                	push   $0xffffffff
    2a90:	e8 3b 7d 00 00       	call   a7d0 <log_msg@plt>
    2a95:	83 c4 14             	add    $0x14,%esp
    2a98:	8b 0f                	mov    (%edi),%ecx
    2a9a:	8b 47 0c             	mov    0xc(%edi),%eax
    2a9d:	51                   	push   %ecx
    2a9e:	50                   	push   %eax
    2a9f:	68 5f 8f 00 00       	push   $0x8f5f
    2aa4:	6a 04                	push   $0x4
    2aa6:	6a ff                	push   $0xffffffff
    2aa8:	e8 23 7d 00 00       	call   a7d0 <log_msg@plt>
    2aad:	83 c4 14             	add    $0x14,%esp
    2ab0:	57                   	push   %edi
    2ab1:	e8 ca 1b 00 00       	call   4680 <tcp_segment_text_size>
    2ab6:	83 c4 10             	add    $0x10,%esp
    2ab9:	85 c0                	test   %eax,%eax
    2abb:	75 09                	jne    2ac6 <tcp_conn_segment_arrived+0x936>
    2abd:	f6 07 02             	testb  $0x2,(%edi)
    2ac0:	0f 85 80 05 00 00    	jne    3046 <tcp_conn_segment_arrived+0xeb6>
    2ac6:	8b 47 0c             	mov    0xc(%edi),%eax
    2ac9:	85 c0                	test   %eax,%eax
    2acb:	0f 85 50 05 00 00    	jne    3021 <tcp_conn_segment_arrived+0xe91>
    2ad1:	83 ec 0c             	sub    $0xc,%esp
    2ad4:	57                   	push   %edi
    2ad5:	e8 56 18 00 00       	call   4330 <tcp_segment_delete>
    2ada:	83 c4 10             	add    $0x10,%esp
    2add:	e9 72 f9 ff ff       	jmp    2454 <tcp_conn_segment_arrived+0x2c4>
    2ae2:	51                   	push   %ecx
    2ae3:	68 e0 03 00 00       	push   $0x3e0
    2ae8:	68 09 8b 00 00       	push   $0x8b09
    2aed:	68 d3 8b 00 00       	push   $0x8bd3
    2af2:	e8 39 7d 00 00       	call   a830 <assert_abort@plt>
    2af7:	89 fa                	mov    %edi,%edx
    2af9:	89 d8                	mov    %ebx,%eax
    2afb:	e8 30 e6 ff ff       	call   1130 <tcp_conn_seg_proc_ack_est>
    2b00:	48                   	dec    %eax
    2b01:	0f 85 1e ff ff ff    	jne    2a25 <tcp_conn_segment_arrived+0x895>
    2b07:	e9 48 f9 ff ff       	jmp    2454 <tcp_conn_segment_arrived+0x2c4>
    2b0c:	52                   	push   %edx
    2b0d:	52                   	push   %edx
    2b0e:	57                   	push   %edi
    2b0f:	53                   	push   %ebx
    2b10:	e8 db 2f 00 00       	call   5af0 <seq_no_segment_ready>
    2b15:	83 c4 10             	add    $0x10,%esp
    2b18:	84 c0                	test   %al,%al
    2b1a:	0f 84 71 09 00 00    	je     3491 <tcp_conn_segment_arrived+0x1301>
    2b20:	8d 85 7c ff ff ff    	lea    -0x84(%ebp),%eax
    2b26:	50                   	push   %eax
    2b27:	8d 85 78 ff ff ff    	lea    -0x88(%ebp),%eax
    2b2d:	50                   	push   %eax
    2b2e:	57                   	push   %edi
    2b2f:	53                   	push   %ebx
    2b30:	e8 4b 32 00 00       	call   5d80 <seq_no_seg_trim_calc>
    2b35:	83 c4 0c             	add    $0xc,%esp
    2b38:	8b 85 7c ff ff ff    	mov    -0x84(%ebp),%eax
    2b3e:	50                   	push   %eax
    2b3f:	8b 85 78 ff ff ff    	mov    -0x88(%ebp),%eax
    2b45:	50                   	push   %eax
    2b46:	57                   	push   %edi
    2b47:	e8 a4 19 00 00       	call   44f0 <tcp_segment_trim>
    2b4c:	89 3c 24             	mov    %edi,(%esp)
    2b4f:	e8 2c 1b 00 00       	call   4680 <tcp_segment_text_size>
    2b54:	8b 8b 9c 00 00 00    	mov    0x9c(%ebx),%ecx
    2b5a:	8b 93 98 00 00 00    	mov    0x98(%ebx),%edx
    2b60:	83 c4 10             	add    $0x10,%esp
    2b63:	29 ca                	sub    %ecx,%edx
    2b65:	39 c2                	cmp    %eax,%edx
    2b67:	76 02                	jbe    2b6b <tcp_conn_segment_arrived+0x9db>
    2b69:	89 c2                	mov    %eax,%edx
    2b6b:	50                   	push   %eax
    2b6c:	89 95 60 ff ff ff    	mov    %edx,-0xa0(%ebp)
    2b72:	8b 83 94 00 00 00    	mov    0x94(%ebx),%eax
    2b78:	52                   	push   %edx
    2b79:	01 c1                	add    %eax,%ecx
    2b7b:	51                   	push   %ecx
    2b7c:	57                   	push   %edi
    2b7d:	e8 9e 1a 00 00       	call   4620 <tcp_segment_text_copy>
    2b82:	8b 95 60 ff ff ff    	mov    -0xa0(%ebp),%edx
    2b88:	8b 83 9c 00 00 00    	mov    0x9c(%ebx),%eax
    2b8e:	83 c4 10             	add    $0x10,%esp
    2b91:	01 d0                	add    %edx,%eax
    2b93:	85 d2                	test   %edx,%edx
    2b95:	89 83 9c 00 00 00    	mov    %eax,0x9c(%ebx)
    2b9b:	0f 85 d9 06 00 00    	jne    327a <tcp_conn_segment_arrived+0x10ea>
    2ba1:	6a 00                	push   $0x0
    2ba3:	68 43 8f 00 00       	push   $0x8f43
    2ba8:	6a 04                	push   $0x4
    2baa:	6a ff                	push   $0xffffffff
    2bac:	89 95 60 ff ff ff    	mov    %edx,-0xa0(%ebp)
    2bb2:	e8 19 7c 00 00       	call   a7d0 <log_msg@plt>
    2bb7:	83 c4 10             	add    $0x10,%esp
    2bba:	8b 95 60 ff ff ff    	mov    -0xa0(%ebp),%edx
    2bc0:	8b 47 0c             	mov    0xc(%edi),%eax
    2bc3:	39 c2                	cmp    %eax,%edx
    2bc5:	0f 82 86 fe ff ff    	jb     2a51 <tcp_conn_segment_arrived+0x8c1>
    2bcb:	51                   	push   %ecx
    2bcc:	8b 0f                	mov    (%edi),%ecx
    2bce:	51                   	push   %ecx
    2bcf:	50                   	push   %eax
    2bd0:	8b 03                	mov    (%ebx),%eax
    2bd2:	52                   	push   %edx
    2bd3:	50                   	push   %eax
    2bd4:	68 ec 89 00 00       	push   $0x89ec
    2bd9:	6a 04                	push   $0x4
    2bdb:	6a ff                	push   $0xffffffff
    2bdd:	e8 ee 7b 00 00       	call   a7d0 <log_msg@plt>
    2be2:	83 c4 14             	add    $0x14,%esp
    2be5:	57                   	push   %edi
    2be6:	e8 45 17 00 00       	call   4330 <tcp_segment_delete>
    2beb:	83 c4 10             	add    $0x10,%esp
    2bee:	e9 61 f8 ff ff       	jmp    2454 <tcp_conn_segment_arrived+0x2c4>
    2bf3:	89 fa                	mov    %edi,%edx
    2bf5:	89 d8                	mov    %ebx,%eax
    2bf7:	e8 34 e5 ff ff       	call   1130 <tcp_conn_seg_proc_ack_est>
    2bfc:	48                   	dec    %eax
    2bfd:	0f 84 51 f8 ff ff    	je     2454 <tcp_conn_segment_arrived+0x2c4>
    2c03:	80 7b 70 00          	cmpb   $0x0,0x70(%ebx)
    2c07:	0f 84 18 fe ff ff    	je     2a25 <tcp_conn_segment_arrived+0x895>
    2c0d:	ff 33                	pushl  (%ebx)
    2c0f:	68 82 8e 00 00       	push   $0x8e82
    2c14:	6a 04                	push   $0x4
    2c16:	6a ff                	push   $0xffffffff
    2c18:	e8 b3 7b 00 00       	call   a7d0 <log_msg@plt>
    2c1d:	53                   	push   %ebx
    2c1e:	68 f2 8a 00 00       	push   $0x8af2
    2c23:	6a 04                	push   $0x4
    2c25:	6a ff                	push   $0xffffffff
    2c27:	e8 a4 7b 00 00       	call   a7d0 <log_msg@plt>
    2c2c:	8b 43 60             	mov    0x60(%ebx),%eax
    2c2f:	83 c4 14             	add    $0x14,%esp
    2c32:	89 85 60 ff ff ff    	mov    %eax,-0xa0(%ebp)
    2c38:	c7 43 60 05 00 00 00 	movl   $0x5,0x60(%ebx)
    2c3f:	8d 43 68             	lea    0x68(%ebx),%eax
    2c42:	50                   	push   %eax
    2c43:	e8 48 7c 00 00       	call   a890 <fibril_condvar_broadcast@plt>
    2c48:	8b 43 0c             	mov    0xc(%ebx),%eax
    2c4b:	83 c4 10             	add    $0x10,%esp
    2c4e:	85 c0                	test   %eax,%eax
    2c50:	0f 84 cc 07 00 00    	je     3422 <tcp_conn_segment_arrived+0x1292>
    2c56:	83 38 00             	cmpl   $0x0,(%eax)
    2c59:	0f 84 c3 07 00 00    	je     3422 <tcp_conn_segment_arrived+0x1292>
    2c5f:	50                   	push   %eax
    2c60:	68 a0 86 00 00       	push   $0x86a0
    2c65:	6a 04                	push   $0x4
    2c67:	6a ff                	push   $0xffffffff
    2c69:	e8 62 7b 00 00       	call   a7d0 <log_msg@plt>
    2c6e:	83 c4 0c             	add    $0xc,%esp
    2c71:	8b 43 0c             	mov    0xc(%ebx),%eax
    2c74:	ff b5 60 ff ff ff    	pushl  -0xa0(%ebp)
    2c7a:	ff 73 10             	pushl  0x10(%ebx)
    2c7d:	53                   	push   %ebx
    2c7e:	ff 10                	call   *(%eax)
    2c80:	83 c4 10             	add    $0x10,%esp
    2c83:	83 bd 60 ff ff ff 0a 	cmpl   $0xa,-0xa0(%ebp)
    2c8a:	0f 85 95 fd ff ff    	jne    2a25 <tcp_conn_segment_arrived+0x895>
    2c90:	52                   	push   %edx
    2c91:	68 42 01 00 00       	push   $0x142
    2c96:	68 09 8b 00 00       	push   $0x8b09
    2c9b:	68 10 8b 00 00       	push   $0x8b10
    2ca0:	e8 8b 7b 00 00       	call   a830 <assert_abort@plt>
    2ca5:	8d 76 00             	lea    0x0(%esi),%esi
    2ca8:	50                   	push   %eax
    2ca9:	68 af 03 00 00       	push   $0x3af
    2cae:	68 09 8b 00 00       	push   $0x8b09
    2cb3:	68 d3 8b 00 00       	push   $0x8bd3
    2cb8:	e8 73 7b 00 00       	call   a830 <assert_abort@plt>
    2cbd:	89 fa                	mov    %edi,%edx
    2cbf:	89 d8                	mov    %ebx,%eax
    2cc1:	e8 6a e4 ff ff       	call   1130 <tcp_conn_seg_proc_ack_est>
    2cc6:	48                   	dec    %eax
    2cc7:	0f 84 87 f7 ff ff    	je     2454 <tcp_conn_segment_arrived+0x2c4>
    2ccd:	80 7b 70 00          	cmpb   $0x0,0x70(%ebx)
    2cd1:	0f 84 4e fd ff ff    	je     2a25 <tcp_conn_segment_arrived+0x895>
    2cd7:	ff 33                	pushl  (%ebx)
    2cd9:	68 9e 8e 00 00       	push   $0x8e9e
    2cde:	6a 04                	push   $0x4
    2ce0:	6a ff                	push   $0xffffffff
    2ce2:	e8 e9 7a 00 00       	call   a7d0 <log_msg@plt>
    2ce7:	ba 0a 00 00 00       	mov    $0xa,%edx
    2cec:	89 d8                	mov    %ebx,%eax
    2cee:	e8 7d e5 ff ff       	call   1270 <tcp_conn_state_set>
    2cf3:	83 c4 10             	add    $0x10,%esp
    2cf6:	e9 59 f7 ff ff       	jmp    2454 <tcp_conn_segment_arrived+0x2c4>
    2cfb:	50                   	push   %eax
    2cfc:	50                   	push   %eax
    2cfd:	8b 47 08             	mov    0x8(%edi),%eax
    2d00:	50                   	push   %eax
    2d01:	53                   	push   %ebx
    2d02:	e8 d9 2b 00 00       	call   58e0 <seq_no_ack_acceptable>
    2d07:	83 c4 10             	add    $0x10,%esp
    2d0a:	84 c0                	test   %al,%al
    2d0c:	0f 84 06 06 00 00    	je     3318 <tcp_conn_segment_arrived+0x1188>
    2d12:	8b 03                	mov    (%ebx),%eax
    2d14:	50                   	push   %eax
    2d15:	68 65 8e 00 00       	push   $0x8e65
    2d1a:	6a 04                	push   $0x4
    2d1c:	6a ff                	push   $0xffffffff
    2d1e:	e8 ad 7a 00 00       	call   a7d0 <log_msg@plt>
    2d23:	53                   	push   %ebx
    2d24:	68 f2 8a 00 00       	push   $0x8af2
    2d29:	6a 04                	push   $0x4
    2d2b:	6a ff                	push   $0xffffffff
    2d2d:	e8 9e 7a 00 00       	call   a7d0 <log_msg@plt>
    2d32:	8b 43 60             	mov    0x60(%ebx),%eax
    2d35:	83 c4 14             	add    $0x14,%esp
    2d38:	89 85 60 ff ff ff    	mov    %eax,-0xa0(%ebp)
    2d3e:	c7 43 60 03 00 00 00 	movl   $0x3,0x60(%ebx)
    2d45:	8d 43 68             	lea    0x68(%ebx),%eax
    2d48:	50                   	push   %eax
    2d49:	e8 42 7b 00 00       	call   a890 <fibril_condvar_broadcast@plt>
    2d4e:	8b 43 0c             	mov    0xc(%ebx),%eax
    2d51:	83 c4 10             	add    $0x10,%esp
    2d54:	85 c0                	test   %eax,%eax
    2d56:	0f 84 af 06 00 00    	je     340b <tcp_conn_segment_arrived+0x127b>
    2d5c:	8b 00                	mov    (%eax),%eax
    2d5e:	85 c0                	test   %eax,%eax
    2d60:	0f 84 a5 06 00 00    	je     340b <tcp_conn_segment_arrived+0x127b>
    2d66:	51                   	push   %ecx
    2d67:	68 a0 86 00 00       	push   $0x86a0
    2d6c:	6a 04                	push   $0x4
    2d6e:	6a ff                	push   $0xffffffff
    2d70:	e8 5b 7a 00 00       	call   a7d0 <log_msg@plt>
    2d75:	83 c4 0c             	add    $0xc,%esp
    2d78:	8b 43 0c             	mov    0xc(%ebx),%eax
    2d7b:	8b 4b 10             	mov    0x10(%ebx),%ecx
    2d7e:	8b 95 60 ff ff ff    	mov    -0xa0(%ebp),%edx
    2d84:	52                   	push   %edx
    2d85:	51                   	push   %ecx
    2d86:	53                   	push   %ebx
    2d87:	ff 10                	call   *(%eax)
    2d89:	83 c4 10             	add    $0x10,%esp
    2d8c:	83 bd 60 ff ff ff 0a 	cmpl   $0xa,-0xa0(%ebp)
    2d93:	0f 84 f7 fe ff ff    	je     2c90 <tcp_conn_segment_arrived+0xb00>
    2d99:	8b 47 08             	mov    0x8(%edi),%eax
    2d9c:	89 83 c4 00 00 00    	mov    %eax,0xc4(%ebx)
    2da2:	e9 7e fc ff ff       	jmp    2a25 <tcp_conn_segment_arrived+0x895>
    2da7:	90                   	nop
    2da8:	50                   	push   %eax
    2da9:	50                   	push   %eax
    2daa:	8b 57 04             	mov    0x4(%edi),%edx
    2dad:	52                   	push   %edx
    2dae:	53                   	push   %ebx
    2daf:	e8 8c 2b 00 00       	call   5940 <seq_no_in_rcv_wnd>
    2db4:	83 c4 10             	add    $0x10,%esp
    2db7:	84 c0                	test   %al,%al
    2db9:	0f 84 29 07 00 00    	je     34e8 <tcp_conn_segment_arrived+0x1358>
    2dbf:	50                   	push   %eax
    2dc0:	68 48 89 00 00       	push   $0x8948
    2dc5:	6a 02                	push   $0x2
    2dc7:	6a ff                	push   $0xffffffff
    2dc9:	e8 02 7a 00 00       	call   a7d0 <log_msg@plt>
    2dce:	83 c4 10             	add    $0x10,%esp
    2dd1:	e9 7e f6 ff ff       	jmp    2454 <tcp_conn_segment_arrived+0x2c4>
    2dd6:	66 90                	xchg   %ax,%ax
    2dd8:	50                   	push   %eax
    2dd9:	68 1c 88 00 00       	push   $0x881c
    2dde:	6a 04                	push   $0x4
    2de0:	6a ff                	push   $0xffffffff
    2de2:	e8 e9 79 00 00       	call   a7d0 <log_msg@plt>
    2de7:	83 c4 10             	add    $0x10,%esp
    2dea:	e9 72 f5 ff ff       	jmp    2361 <tcp_conn_segment_arrived+0x1d1>
    2def:	90                   	nop
    2df0:	8b 03                	mov    (%ebx),%eax
    2df2:	50                   	push   %eax
    2df3:	68 93 8d 00 00       	push   $0x8d93
    2df8:	6a 04                	push   $0x4
    2dfa:	6a ff                	push   $0xffffffff
    2dfc:	e8 cf 79 00 00       	call   a7d0 <log_msg@plt>
    2e01:	83 c4 10             	add    $0x10,%esp
    2e04:	e9 58 f5 ff ff       	jmp    2361 <tcp_conn_segment_arrived+0x1d1>
    2e09:	8b 33                	mov    (%ebx),%esi
    2e0b:	56                   	push   %esi
    2e0c:	68 d8 88 00 00       	push   $0x88d8
    2e11:	6a 04                	push   $0x4
    2e13:	6a ff                	push   $0xffffffff
    2e15:	e8 b6 79 00 00       	call   a7d0 <log_msg@plt>
    2e1a:	53                   	push   %ebx
    2e1b:	68 f2 8a 00 00       	push   $0x8af2
    2e20:	6a 04                	push   $0x4
    2e22:	6a ff                	push   $0xffffffff
    2e24:	e8 a7 79 00 00       	call   a7d0 <log_msg@plt>
    2e29:	83 c4 14             	add    $0x14,%esp
    2e2c:	8b 73 60             	mov    0x60(%ebx),%esi
    2e2f:	8d 43 68             	lea    0x68(%ebx),%eax
    2e32:	c7 43 60 02 00 00 00 	movl   $0x2,0x60(%ebx)
    2e39:	50                   	push   %eax
    2e3a:	e8 51 7a 00 00       	call   a890 <fibril_condvar_broadcast@plt>
    2e3f:	8b 43 0c             	mov    0xc(%ebx),%eax
    2e42:	83 c4 10             	add    $0x10,%esp
    2e45:	85 c0                	test   %eax,%eax
    2e47:	0f 84 a8 01 00 00    	je     2ff5 <tcp_conn_segment_arrived+0xe65>
    2e4d:	8b 08                	mov    (%eax),%ecx
    2e4f:	85 c9                	test   %ecx,%ecx
    2e51:	0f 84 9e 01 00 00    	je     2ff5 <tcp_conn_segment_arrived+0xe65>
    2e57:	50                   	push   %eax
    2e58:	68 a0 86 00 00       	push   $0x86a0
    2e5d:	6a 04                	push   $0x4
    2e5f:	6a ff                	push   $0xffffffff
    2e61:	e8 6a 79 00 00       	call   a7d0 <log_msg@plt>
    2e66:	83 c4 0c             	add    $0xc,%esp
    2e69:	8b 43 0c             	mov    0xc(%ebx),%eax
    2e6c:	8b 53 10             	mov    0x10(%ebx),%edx
    2e6f:	56                   	push   %esi
    2e70:	52                   	push   %edx
    2e71:	53                   	push   %ebx
    2e72:	ff 10                	call   *(%eax)
    2e74:	83 c4 10             	add    $0x10,%esp
    2e77:	83 fe 0a             	cmp    $0xa,%esi
    2e7a:	0f 84 10 fe ff ff    	je     2c90 <tcp_conn_segment_arrived+0xb00>
    2e80:	50                   	push   %eax
    2e81:	50                   	push   %eax
    2e82:	6a 09                	push   $0x9
    2e84:	53                   	push   %ebx
    2e85:	e8 06 3a 00 00       	call   6890 <tcp_tqueue_ctrl_seg>
    2e8a:	83 c4 10             	add    $0x10,%esp
    2e8d:	e9 5d f7 ff ff       	jmp    25ef <tcp_conn_segment_arrived+0x45f>
    2e92:	50                   	push   %eax
    2e93:	68 f8 87 00 00       	push   $0x87f8
    2e98:	6a 04                	push   $0x4
    2e9a:	e9 45 f9 ff ff       	jmp    27e4 <tcp_conn_segment_arrived+0x654>
    2e9f:	8b 00                	mov    (%eax),%eax
    2ea1:	a8 04                	test   $0x4,%al
    2ea3:	0f 84 fd 05 00 00    	je     34a6 <tcp_conn_segment_arrived+0x1316>
    2ea9:	a8 08                	test   $0x8,%al
    2eab:	0f 84 3f ff ff ff    	je     2df0 <tcp_conn_segment_arrived+0xc60>
    2eb1:	8b 03                	mov    (%ebx),%eax
    2eb3:	50                   	push   %eax
    2eb4:	68 8c 88 00 00       	push   $0x888c
    2eb9:	6a 04                	push   $0x4
    2ebb:	6a ff                	push   $0xffffffff
    2ebd:	e8 0e 79 00 00       	call   a7d0 <log_msg@plt>
    2ec2:	89 1c 24             	mov    %ebx,(%esp)
    2ec5:	e8 26 f1 ff ff       	call   1ff0 <tcp_conn_reset>
    2eca:	83 c4 10             	add    $0x10,%esp
    2ecd:	e9 8f f4 ff ff       	jmp    2361 <tcp_conn_segment_arrived+0x1d1>
    2ed2:	51                   	push   %ecx
    2ed3:	68 c4 86 00 00       	push   $0x86c4
    2ed8:	6a 04                	push   $0x4
    2eda:	6a ff                	push   $0xffffffff
    2edc:	e8 ef 78 00 00       	call   a7d0 <log_msg@plt>
    2ee1:	83 c4 10             	add    $0x10,%esp
    2ee4:	e9 3e f8 ff ff       	jmp    2727 <tcp_conn_segment_arrived+0x597>
    2ee9:	50                   	push   %eax
    2eea:	68 47 8e 00 00       	push   $0x8e47
    2eef:	6a 02                	push   $0x2
    2ef1:	6a ff                	push   $0xffffffff
    2ef3:	e8 d8 78 00 00       	call   a7d0 <log_msg@plt>
    2ef8:	89 3c 24             	mov    %edi,(%esp)
    2efb:	e8 30 14 00 00       	call   4330 <tcp_segment_delete>
    2f00:	83 c4 10             	add    $0x10,%esp
    2f03:	e9 4c f5 ff ff       	jmp    2454 <tcp_conn_segment_arrived+0x2c4>
    2f08:	8b 43 5c             	mov    0x5c(%ebx),%eax
    2f0b:	52                   	push   %edx
    2f0c:	52                   	push   %edx
    2f0d:	50                   	push   %eax
    2f0e:	8b 0b                	mov    (%ebx),%ecx
    2f10:	53                   	push   %ebx
    2f11:	51                   	push   %ecx
    2f12:	68 e8 86 00 00       	push   $0x86e8
    2f17:	6a 05                	push   $0x5
    2f19:	6a ff                	push   $0xffffffff
    2f1b:	e8 b0 78 00 00       	call   a7d0 <log_msg@plt>
    2f20:	83 c8 ff             	or     $0xffffffff,%eax
    2f23:	f0 0f c1 43 5c       	lock xadd %eax,0x5c(%ebx)
    2f28:	83 c4 20             	add    $0x20,%esp
    2f2b:	48                   	dec    %eax
    2f2c:	0f 85 37 f9 ff ff    	jne    2869 <tcp_conn_segment_arrived+0x6d9>
    2f32:	83 ec 0c             	sub    $0xc,%esp
    2f35:	8b 0b                	mov    (%ebx),%ecx
    2f37:	53                   	push   %ebx
    2f38:	51                   	push   %ecx
    2f39:	68 27 8b 00 00       	push   $0x8b27
    2f3e:	6a 04                	push   $0x4
    2f40:	6a ff                	push   $0xffffffff
    2f42:	e8 89 78 00 00       	call   a7d0 <log_msg@plt>
    2f47:	83 c4 14             	add    $0x14,%esp
    2f4a:	8b bd 5c ff ff ff    	mov    -0xa4(%ebp),%edi
    2f50:	57                   	push   %edi
    2f51:	e8 ca 36 00 00       	call   6620 <tcp_tqueue_fini>
    2f56:	8b 83 94 00 00 00    	mov    0x94(%ebx),%eax
    2f5c:	83 c4 10             	add    $0x10,%esp
    2f5f:	85 c0                	test   %eax,%eax
    2f61:	74 0c                	je     2f6f <tcp_conn_segment_arrived+0xddf>
    2f63:	83 ec 0c             	sub    $0xc,%esp
    2f66:	50                   	push   %eax
    2f67:	e8 e4 7a 00 00       	call   aa50 <free@plt>
    2f6c:	83 c4 10             	add    $0x10,%esp
    2f6f:	8b 83 ac 00 00 00    	mov    0xac(%ebx),%eax
    2f75:	85 c0                	test   %eax,%eax
    2f77:	74 0c                	je     2f85 <tcp_conn_segment_arrived+0xdf5>
    2f79:	83 ec 0c             	sub    $0xc,%esp
    2f7c:	50                   	push   %eax
    2f7d:	e8 ce 7a 00 00       	call   aa50 <free@plt>
    2f82:	83 c4 10             	add    $0x10,%esp
    2f85:	8b 83 90 00 00 00    	mov    0x90(%ebx),%eax
    2f8b:	85 c0                	test   %eax,%eax
    2f8d:	74 0c                	je     2f9b <tcp_conn_segment_arrived+0xe0b>
    2f8f:	83 ec 0c             	sub    $0xc,%esp
    2f92:	50                   	push   %eax
    2f93:	e8 78 78 00 00       	call   a810 <fibril_timer_destroy@plt>
    2f98:	83 c4 10             	add    $0x10,%esp
    2f9b:	83 ec 0c             	sub    $0xc,%esp
    2f9e:	53                   	push   %ebx
    2f9f:	e8 ac 7a 00 00       	call   aa50 <free@plt>
    2fa4:	83 c4 10             	add    $0x10,%esp
    2fa7:	e9 bd f8 ff ff       	jmp    2869 <tcp_conn_segment_arrived+0x6d9>
    2fac:	8d 74 26 00          	lea    0x0(%esi,%eiz,1),%esi
    2fb0:	57                   	push   %edi
    2fb1:	68 ad 8d 00 00       	push   $0x8dad
    2fb6:	6a 04                	push   $0x4
    2fb8:	6a ff                	push   $0xffffffff
    2fba:	e8 11 78 00 00       	call   a7d0 <log_msg@plt>
    2fbf:	83 c4 10             	add    $0x10,%esp
    2fc2:	e9 9a f3 ff ff       	jmp    2361 <tcp_conn_segment_arrived+0x1d1>
    2fc7:	50                   	push   %eax
    2fc8:	68 76 8d 00 00       	push   $0x8d76
    2fcd:	6a 02                	push   $0x2
    2fcf:	6a ff                	push   $0xffffffff
    2fd1:	e8 fa 77 00 00       	call   a7d0 <log_msg@plt>
    2fd6:	83 c4 10             	add    $0x10,%esp
    2fd9:	e9 83 f3 ff ff       	jmp    2361 <tcp_conn_segment_arrived+0x1d1>
    2fde:	50                   	push   %eax
    2fdf:	68 c4 86 00 00       	push   $0x86c4
    2fe4:	6a 04                	push   $0x4
    2fe6:	6a ff                	push   $0xffffffff
    2fe8:	e8 e3 77 00 00       	call   a7d0 <log_msg@plt>
    2fed:	83 c4 10             	add    $0x10,%esp
    2ff0:	e9 e4 f5 ff ff       	jmp    25d9 <tcp_conn_segment_arrived+0x449>
    2ff5:	50                   	push   %eax
    2ff6:	68 c4 86 00 00       	push   $0x86c4
    2ffb:	6a 04                	push   $0x4
    2ffd:	6a ff                	push   $0xffffffff
    2fff:	e8 cc 77 00 00       	call   a7d0 <log_msg@plt>
    3004:	83 c4 10             	add    $0x10,%esp
    3007:	e9 6b fe ff ff       	jmp    2e77 <tcp_conn_segment_arrived+0xce7>
    300c:	50                   	push   %eax
    300d:	68 b2 03 00 00       	push   $0x3b2
    3012:	68 09 8b 00 00       	push   $0x8b09
    3017:	68 d3 8b 00 00       	push   $0x8bd3
    301c:	e8 0f 78 00 00       	call   a830 <assert_abort@plt>
    3021:	83 ec 0c             	sub    $0xc,%esp
    3024:	50                   	push   %eax
    3025:	57                   	push   %edi
    3026:	68 5c 8a 00 00       	push   $0x8a5c
    302b:	6a 04                	push   $0x4
    302d:	6a ff                	push   $0xffffffff
    302f:	e8 9c 77 00 00       	call   a7d0 <log_msg@plt>
    3034:	83 c4 18             	add    $0x18,%esp
    3037:	57                   	push   %edi
    3038:	56                   	push   %esi
    3039:	e8 f2 05 00 00       	call   3630 <tcp_iqueue_insert_seg>
    303e:	83 c4 10             	add    $0x10,%esp
    3041:	e9 0e f4 ff ff       	jmp    2454 <tcp_conn_segment_arrived+0x2c4>
    3046:	50                   	push   %eax
    3047:	68 b6 8e 00 00       	push   $0x8eb6
    304c:	6a 04                	push   $0x4
    304e:	6a ff                	push   $0xffffffff
    3050:	e8 7b 77 00 00       	call   a7d0 <log_msg@plt>
    3055:	5a                   	pop    %edx
    3056:	59                   	pop    %ecx
    3057:	6a 08                	push   $0x8
    3059:	53                   	push   %ebx
    305a:	e8 31 38 00 00       	call   6890 <tcp_tqueue_ctrl_seg>
    305f:	8b 83 e0 00 00 00    	mov    0xe0(%ebx),%eax
    3065:	83 c4 10             	add    $0x10,%esp
    3068:	40                   	inc    %eax
    3069:	89 83 e0 00 00 00    	mov    %eax,0xe0(%ebx)
    306f:	8b 83 e4 00 00 00    	mov    0xe4(%ebx),%eax
    3075:	48                   	dec    %eax
    3076:	89 83 e4 00 00 00    	mov    %eax,0xe4(%ebx)
    307c:	83 7b 60 0a          	cmpl   $0xa,0x60(%ebx)
    3080:	0f 87 e4 00 00 00    	ja     316a <tcp_conn_segment_arrived+0xfda>
    3086:	8b 43 60             	mov    0x60(%ebx),%eax
    3089:	ff 24 85 58 90 00 00 	jmp    *0x9058(,%eax,4)
    3090:	ff 33                	pushl  (%ebx)
    3092:	68 eb 8e 00 00       	push   $0x8eeb
    3097:	6a 04                	push   $0x4
    3099:	6a ff                	push   $0xffffffff
    309b:	e8 30 77 00 00       	call   a7d0 <log_msg@plt>
    30a0:	53                   	push   %ebx
    30a1:	68 f2 8a 00 00       	push   $0x8af2
    30a6:	6a 04                	push   $0x4
    30a8:	6a ff                	push   $0xffffffff
    30aa:	e8 21 77 00 00       	call   a7d0 <log_msg@plt>
    30af:	8b 43 60             	mov    0x60(%ebx),%eax
    30b2:	83 c4 14             	add    $0x14,%esp
    30b5:	89 85 60 ff ff ff    	mov    %eax,-0xa0(%ebp)
    30bb:	c7 43 60 09 00 00 00 	movl   $0x9,0x60(%ebx)
    30c2:	8d 43 68             	lea    0x68(%ebx),%eax
    30c5:	50                   	push   %eax
    30c6:	e8 c5 77 00 00       	call   a890 <fibril_condvar_broadcast@plt>
    30cb:	8b 43 0c             	mov    0xc(%ebx),%eax
    30ce:	83 c4 10             	add    $0x10,%esp
    30d1:	85 c0                	test   %eax,%eax
    30d3:	0f 84 a1 03 00 00    	je     347a <tcp_conn_segment_arrived+0x12ea>
    30d9:	83 38 00             	cmpl   $0x0,(%eax)
    30dc:	0f 84 98 03 00 00    	je     347a <tcp_conn_segment_arrived+0x12ea>
    30e2:	50                   	push   %eax
    30e3:	68 a0 86 00 00       	push   $0x86a0
    30e8:	6a 04                	push   $0x4
    30ea:	6a ff                	push   $0xffffffff
    30ec:	e8 df 76 00 00       	call   a7d0 <log_msg@plt>
    30f1:	83 c4 0c             	add    $0xc,%esp
    30f4:	8b 43 0c             	mov    0xc(%ebx),%eax
    30f7:	ff b5 60 ff ff ff    	pushl  -0xa0(%ebp)
    30fd:	ff 73 10             	pushl  0x10(%ebx)
    3100:	53                   	push   %ebx
    3101:	ff 10                	call   *(%eax)
    3103:	83 c4 10             	add    $0x10,%esp
    3106:	83 bd 60 ff ff ff 0a 	cmpl   $0xa,-0xa0(%ebp)
    310d:	0f 84 7d fb ff ff    	je     2c90 <tcp_conn_segment_arrived+0xb00>
    3113:	51                   	push   %ecx
    3114:	68 09 8f 00 00       	push   $0x8f09
    3119:	6a 05                	push   $0x5
    311b:	6a ff                	push   $0xffffffff
    311d:	e8 ae 76 00 00       	call   a7d0 <log_msg@plt>
    3122:	8b 43 5c             	mov    0x5c(%ebx),%eax
    3125:	5a                   	pop    %edx
    3126:	59                   	pop    %ecx
    3127:	50                   	push   %eax
    3128:	53                   	push   %ebx
    3129:	ff 33                	pushl  (%ebx)
    312b:	68 0c 87 00 00       	push   $0x870c
    3130:	6a 05                	push   $0x5
    3132:	6a ff                	push   $0xffffffff
    3134:	e8 97 76 00 00       	call   a7d0 <log_msg@plt>
    3139:	f0 ff 43 5c          	lock incl 0x5c(%ebx)
    313d:	83 c4 20             	add    $0x20,%esp
    3140:	53                   	push   %ebx
    3141:	68 b0 14 00 00       	push   $0x14b0
    3146:	68 80 c3 c9 01       	push   $0x1c9c380
    314b:	ff b3 90 00 00 00    	pushl  0x90(%ebx)
    3151:	e8 9a 76 00 00       	call   a7f0 <fibril_timer_set_locked@plt>
    3156:	83 c4 0c             	add    $0xc,%esp
    3159:	68 27 8f 00 00       	push   $0x8f27
    315e:	6a 05                	push   $0x5
    3160:	6a ff                	push   $0xffffffff
    3162:	e8 69 76 00 00       	call   a7d0 <log_msg@plt>
    3167:	83 c4 10             	add    $0x10,%esp
    316a:	83 ec 0c             	sub    $0xc,%esp
    316d:	8d 83 a4 00 00 00    	lea    0xa4(%ebx),%eax
    3173:	c6 83 a0 00 00 00 01 	movb   $0x1,0xa0(%ebx)
    317a:	50                   	push   %eax
    317b:	e8 10 77 00 00       	call   a890 <fibril_condvar_broadcast@plt>
    3180:	8b 43 0c             	mov    0xc(%ebx),%eax
    3183:	83 c4 10             	add    $0x10,%esp
    3186:	85 c0                	test   %eax,%eax
    3188:	0f 84 43 f9 ff ff    	je     2ad1 <tcp_conn_segment_arrived+0x941>
    318e:	8b 40 04             	mov    0x4(%eax),%eax
    3191:	85 c0                	test   %eax,%eax
    3193:	0f 84 38 f9 ff ff    	je     2ad1 <tcp_conn_segment_arrived+0x941>
    3199:	52                   	push   %edx
    319a:	52                   	push   %edx
    319b:	ff 73 10             	pushl  0x10(%ebx)
    319e:	53                   	push   %ebx
    319f:	ff d0                	call   *%eax
    31a1:	83 c4 10             	add    $0x10,%esp
    31a4:	e9 28 f9 ff ff       	jmp    2ad1 <tcp_conn_segment_arrived+0x941>
    31a9:	ff 33                	pushl  (%ebx)
    31ab:	68 cf 8e 00 00       	push   $0x8ecf
    31b0:	6a 04                	push   $0x4
    31b2:	6a ff                	push   $0xffffffff
    31b4:	e8 17 76 00 00       	call   a7d0 <log_msg@plt>
    31b9:	53                   	push   %ebx
    31ba:	68 f2 8a 00 00       	push   $0x8af2
    31bf:	6a 04                	push   $0x4
    31c1:	6a ff                	push   $0xffffffff
    31c3:	e8 08 76 00 00       	call   a7d0 <log_msg@plt>
    31c8:	8b 43 60             	mov    0x60(%ebx),%eax
    31cb:	89 85 60 ff ff ff    	mov    %eax,-0xa0(%ebp)
    31d1:	c7 43 60 07 00 00 00 	movl   $0x7,0x60(%ebx)
    31d8:	83 c4 14             	add    $0x14,%esp
    31db:	8d 43 68             	lea    0x68(%ebx),%eax
    31de:	50                   	push   %eax
    31df:	e8 ac 76 00 00       	call   a890 <fibril_condvar_broadcast@plt>
    31e4:	8b 43 0c             	mov    0xc(%ebx),%eax
    31e7:	83 c4 10             	add    $0x10,%esp
    31ea:	85 c0                	test   %eax,%eax
    31ec:	0f 84 47 02 00 00    	je     3439 <tcp_conn_segment_arrived+0x12a9>
    31f2:	83 38 00             	cmpl   $0x0,(%eax)
    31f5:	0f 84 3e 02 00 00    	je     3439 <tcp_conn_segment_arrived+0x12a9>
    31fb:	50                   	push   %eax
    31fc:	68 a0 86 00 00       	push   $0x86a0
    3201:	6a 04                	push   $0x4
    3203:	6a ff                	push   $0xffffffff
    3205:	e8 c6 75 00 00       	call   a7d0 <log_msg@plt>
    320a:	83 c4 0c             	add    $0xc,%esp
    320d:	8b 43 0c             	mov    0xc(%ebx),%eax
    3210:	ff b5 60 ff ff ff    	pushl  -0xa0(%ebp)
    3216:	ff 73 10             	pushl  0x10(%ebx)
    3219:	53                   	push   %ebx
    321a:	ff 10                	call   *(%eax)
    321c:	83 c4 10             	add    $0x10,%esp
    321f:	83 bd 60 ff ff ff 0a 	cmpl   $0xa,-0xa0(%ebp)
    3226:	0f 85 3e ff ff ff    	jne    316a <tcp_conn_segment_arrived+0xfda>
    322c:	e9 5f fa ff ff       	jmp    2c90 <tcp_conn_segment_arrived+0xb00>
    3231:	ff 33                	pushl  (%ebx)
    3233:	68 3c 8a 00 00       	push   $0x8a3c
    3238:	6a 04                	push   $0x4
    323a:	6a ff                	push   $0xffffffff
    323c:	e8 8f 75 00 00       	call   a7d0 <log_msg@plt>
    3241:	53                   	push   %ebx
    3242:	68 f2 8a 00 00       	push   $0x8af2
    3247:	6a 04                	push   $0x4
    3249:	6a ff                	push   $0xffffffff
    324b:	e8 80 75 00 00       	call   a7d0 <log_msg@plt>
    3250:	8b 43 60             	mov    0x60(%ebx),%eax
    3253:	89 85 60 ff ff ff    	mov    %eax,-0xa0(%ebp)
    3259:	c7 43 60 06 00 00 00 	movl   $0x6,0x60(%ebx)
    3260:	e9 73 ff ff ff       	jmp    31d8 <tcp_conn_segment_arrived+0x1048>
    3265:	50                   	push   %eax
    3266:	68 34 04 00 00       	push   $0x434
    326b:	68 09 8b 00 00       	push   $0x8b09
    3270:	68 d3 8b 00 00       	push   $0x8bd3
    3275:	e8 b6 75 00 00       	call   a830 <assert_abort@plt>
    327a:	83 ec 0c             	sub    $0xc,%esp
    327d:	8d 83 a4 00 00 00    	lea    0xa4(%ebx),%eax
    3283:	50                   	push   %eax
    3284:	e8 07 76 00 00       	call   a890 <fibril_condvar_broadcast@plt>
    3289:	8b 43 0c             	mov    0xc(%ebx),%eax
    328c:	83 c4 10             	add    $0x10,%esp
    328f:	8b 95 60 ff ff ff    	mov    -0xa0(%ebp),%edx
    3295:	85 c0                	test   %eax,%eax
    3297:	74 19                	je     32b2 <tcp_conn_segment_arrived+0x1122>
    3299:	8b 40 04             	mov    0x4(%eax),%eax
    329c:	85 c0                	test   %eax,%eax
    329e:	74 12                	je     32b2 <tcp_conn_segment_arrived+0x1122>
    32a0:	52                   	push   %edx
    32a1:	52                   	push   %edx
    32a2:	8b 4b 10             	mov    0x10(%ebx),%ecx
    32a5:	51                   	push   %ecx
    32a6:	53                   	push   %ebx
    32a7:	ff d0                	call   *%eax
    32a9:	83 c4 10             	add    $0x10,%esp
    32ac:	8b 95 60 ff ff ff    	mov    -0xa0(%ebp),%edx
    32b2:	52                   	push   %edx
    32b3:	89 95 60 ff ff ff    	mov    %edx,-0xa0(%ebp)
    32b9:	68 43 8f 00 00       	push   $0x8f43
    32be:	6a 04                	push   $0x4
    32c0:	6a ff                	push   $0xffffffff
    32c2:	e8 09 75 00 00       	call   a7d0 <log_msg@plt>
    32c7:	8b 83 e0 00 00 00    	mov    0xe0(%ebx),%eax
    32cd:	8b 95 60 ff ff ff    	mov    -0xa0(%ebp),%edx
    32d3:	01 d0                	add    %edx,%eax
    32d5:	89 83 e0 00 00 00    	mov    %eax,0xe0(%ebx)
    32db:	8b 83 e4 00 00 00    	mov    0xe4(%ebx),%eax
    32e1:	29 d0                	sub    %edx,%eax
    32e3:	89 83 e4 00 00 00    	mov    %eax,0xe4(%ebx)
    32e9:	58                   	pop    %eax
    32ea:	5a                   	pop    %edx
    32eb:	6a 08                	push   $0x8
    32ed:	53                   	push   %ebx
    32ee:	e8 9d 35 00 00       	call   6890 <tcp_tqueue_ctrl_seg>
    32f3:	83 c4 10             	add    $0x10,%esp
    32f6:	8b 95 60 ff ff ff    	mov    -0xa0(%ebp),%edx
    32fc:	e9 bf f8 ff ff       	jmp    2bc0 <tcp_conn_segment_arrived+0xa30>
    3301:	50                   	push   %eax
    3302:	68 c4 86 00 00       	push   $0x86c4
    3307:	6a 04                	push   $0x4
    3309:	6a ff                	push   $0xffffffff
    330b:	e8 c0 74 00 00       	call   a7d0 <log_msg@plt>
    3310:	83 c4 10             	add    $0x10,%esp
    3313:	e9 36 f6 ff ff       	jmp    294e <tcp_conn_segment_arrived+0x7be>
    3318:	50                   	push   %eax
    3319:	68 7c 89 00 00       	push   $0x897c
    331e:	6a 02                	push   $0x2
    3320:	6a ff                	push   $0xffffffff
    3322:	e8 a9 74 00 00       	call   a7d0 <log_msg@plt>
    3327:	8d 53 14             	lea    0x14(%ebx),%edx
    332a:	89 3c 24             	mov    %edi,(%esp)
    332d:	52                   	push   %edx
    332e:	68 b0 8c 00 00       	push   $0x8cb0
    3333:	6a 04                	push   $0x4
    3335:	6a ff                	push   $0xffffffff
    3337:	89 95 60 ff ff ff    	mov    %edx,-0xa0(%ebp)
    333d:	e8 8e 74 00 00       	call   a7d0 <log_msg@plt>
    3342:	83 c4 14             	add    $0x14,%esp
    3345:	57                   	push   %edi
    3346:	e8 e5 10 00 00       	call   4430 <tcp_segment_make_rst>
    334b:	5a                   	pop    %edx
    334c:	8b 95 60 ff ff ff    	mov    -0xa0(%ebp),%edx
    3352:	59                   	pop    %ecx
    3353:	50                   	push   %eax
    3354:	52                   	push   %edx
    3355:	e8 06 3c 00 00       	call   6f60 <tcp_transmit_segment>
    335a:	89 3c 24             	mov    %edi,(%esp)
    335d:	e8 ce 0f 00 00       	call   4330 <tcp_segment_delete>
    3362:	83 c4 10             	add    $0x10,%esp
    3365:	e9 ea f0 ff ff       	jmp    2454 <tcp_conn_segment_arrived+0x2c4>
    336a:	8b 43 5c             	mov    0x5c(%ebx),%eax
    336d:	52                   	push   %edx
    336e:	52                   	push   %edx
    336f:	50                   	push   %eax
    3370:	53                   	push   %ebx
    3371:	ff 33                	pushl  (%ebx)
    3373:	68 e8 86 00 00       	push   $0x86e8
    3378:	6a 05                	push   $0x5
    337a:	6a ff                	push   $0xffffffff
    337c:	e8 4f 74 00 00       	call   a7d0 <log_msg@plt>
    3381:	83 c8 ff             	or     $0xffffffff,%eax
    3384:	f0 0f c1 43 5c       	lock xadd %eax,0x5c(%ebx)
    3389:	83 c4 20             	add    $0x20,%esp
    338c:	48                   	dec    %eax
    338d:	0f 85 ea f5 ff ff    	jne    297d <tcp_conn_segment_arrived+0x7ed>
    3393:	83 ec 0c             	sub    $0xc,%esp
    3396:	53                   	push   %ebx
    3397:	ff 33                	pushl  (%ebx)
    3399:	68 27 8b 00 00       	push   $0x8b27
    339e:	6a 04                	push   $0x4
    33a0:	6a ff                	push   $0xffffffff
    33a2:	e8 29 74 00 00       	call   a7d0 <log_msg@plt>
    33a7:	83 c4 14             	add    $0x14,%esp
    33aa:	ff b5 5c ff ff ff    	pushl  -0xa4(%ebp)
    33b0:	e8 6b 32 00 00       	call   6620 <tcp_tqueue_fini>
    33b5:	8b 83 94 00 00 00    	mov    0x94(%ebx),%eax
    33bb:	83 c4 10             	add    $0x10,%esp
    33be:	85 c0                	test   %eax,%eax
    33c0:	74 0c                	je     33ce <tcp_conn_segment_arrived+0x123e>
    33c2:	83 ec 0c             	sub    $0xc,%esp
    33c5:	50                   	push   %eax
    33c6:	e8 85 76 00 00       	call   aa50 <free@plt>
    33cb:	83 c4 10             	add    $0x10,%esp
    33ce:	8b 83 ac 00 00 00    	mov    0xac(%ebx),%eax
    33d4:	85 c0                	test   %eax,%eax
    33d6:	74 0c                	je     33e4 <tcp_conn_segment_arrived+0x1254>
    33d8:	83 ec 0c             	sub    $0xc,%esp
    33db:	50                   	push   %eax
    33dc:	e8 6f 76 00 00       	call   aa50 <free@plt>
    33e1:	83 c4 10             	add    $0x10,%esp
    33e4:	8b 83 90 00 00 00    	mov    0x90(%ebx),%eax
    33ea:	85 c0                	test   %eax,%eax
    33ec:	74 0c                	je     33fa <tcp_conn_segment_arrived+0x126a>
    33ee:	83 ec 0c             	sub    $0xc,%esp
    33f1:	50                   	push   %eax
    33f2:	e8 19 74 00 00       	call   a810 <fibril_timer_destroy@plt>
    33f7:	83 c4 10             	add    $0x10,%esp
    33fa:	83 ec 0c             	sub    $0xc,%esp
    33fd:	53                   	push   %ebx
    33fe:	e8 4d 76 00 00       	call   aa50 <free@plt>
    3403:	83 c4 10             	add    $0x10,%esp
    3406:	e9 72 f5 ff ff       	jmp    297d <tcp_conn_segment_arrived+0x7ed>
    340b:	52                   	push   %edx
    340c:	68 c4 86 00 00       	push   $0x86c4
    3411:	6a 04                	push   $0x4
    3413:	6a ff                	push   $0xffffffff
    3415:	e8 b6 73 00 00       	call   a7d0 <log_msg@plt>
    341a:	83 c4 10             	add    $0x10,%esp
    341d:	e9 6a f9 ff ff       	jmp    2d8c <tcp_conn_segment_arrived+0xbfc>
    3422:	50                   	push   %eax
    3423:	68 c4 86 00 00       	push   $0x86c4
    3428:	6a 04                	push   $0x4
    342a:	6a ff                	push   $0xffffffff
    342c:	e8 9f 73 00 00       	call   a7d0 <log_msg@plt>
    3431:	83 c4 10             	add    $0x10,%esp
    3434:	e9 4a f8 ff ff       	jmp    2c83 <tcp_conn_segment_arrived+0xaf3>
    3439:	50                   	push   %eax
    343a:	68 c4 86 00 00       	push   $0x86c4
    343f:	6a 04                	push   $0x4
    3441:	6a ff                	push   $0xffffffff
    3443:	e8 88 73 00 00       	call   a7d0 <log_msg@plt>
    3448:	83 c4 10             	add    $0x10,%esp
    344b:	e9 cf fd ff ff       	jmp    321f <tcp_conn_segment_arrived+0x108f>
    3450:	57                   	push   %edi
    3451:	68 c9 04 00 00       	push   $0x4c9
    3456:	68 09 8b 00 00       	push   $0x8b09
    345b:	68 c6 8c 00 00       	push   $0x8cc6
    3460:	e8 cb 73 00 00       	call   a830 <assert_abort@plt>
    3465:	56                   	push   %esi
    3466:	68 ca 04 00 00       	push   $0x4ca
    346b:	68 09 8b 00 00       	push   $0x8b09
    3470:	68 9d 8b 00 00       	push   $0x8b9d
    3475:	e8 b6 73 00 00       	call   a830 <assert_abort@plt>
    347a:	50                   	push   %eax
    347b:	68 c4 86 00 00       	push   $0x86c4
    3480:	6a 04                	push   $0x4
    3482:	6a ff                	push   $0xffffffff
    3484:	e8 47 73 00 00       	call   a7d0 <log_msg@plt>
    3489:	83 c4 10             	add    $0x10,%esp
    348c:	e9 75 fc ff ff       	jmp    3106 <tcp_conn_segment_arrived+0xf76>
    3491:	50                   	push   %eax
    3492:	68 e6 03 00 00       	push   $0x3e6
    3497:	68 09 8b 00 00       	push   $0x8b09
    349c:	68 cc 89 00 00       	push   $0x89cc
    34a1:	e8 8a 73 00 00       	call   a830 <assert_abort@plt>
    34a6:	a8 01                	test   $0x1,%al
    34a8:	0f 84 02 fb ff ff    	je     2fb0 <tcp_conn_segment_arrived+0xe20>
    34ae:	8b 55 10             	mov    0x10(%ebp),%edx
    34b1:	a8 08                	test   $0x8,%al
    34b3:	8b 52 04             	mov    0x4(%edx),%edx
    34b6:	89 93 ec 00 00 00    	mov    %edx,0xec(%ebx)
    34bc:	8d 4a 01             	lea    0x1(%edx),%ecx
    34bf:	89 8b e0 00 00 00    	mov    %ecx,0xe0(%ebx)
    34c5:	0f 84 40 f0 ff ff    	je     250b <tcp_conn_segment_arrived+0x37b>
    34cb:	8b 45 10             	mov    0x10(%ebp),%eax
    34ce:	83 ec 0c             	sub    $0xc,%esp
    34d1:	8b 40 08             	mov    0x8(%eax),%eax
    34d4:	89 83 c4 00 00 00    	mov    %eax,0xc4(%ebx)
    34da:	53                   	push   %ebx
    34db:	e8 a0 36 00 00       	call   6b80 <tcp_tqueue_ack_received>
    34e0:	83 c4 10             	add    $0x10,%esp
    34e3:	e9 23 f0 ff ff       	jmp    250b <tcp_conn_segment_arrived+0x37b>
    34e8:	50                   	push   %eax
    34e9:	68 ca 02 00 00       	push   $0x2ca
    34ee:	68 09 8b 00 00       	push   $0x8b09
    34f3:	68 24 89 00 00       	push   $0x8924
    34f8:	e8 33 73 00 00       	call   a830 <assert_abort@plt>
    34fd:	8d 76 00             	lea    0x0(%esi),%esi

00003500 <tcp_conn_trim_seg_to_wnd>:
    3500:	55                   	push   %ebp
    3501:	89 e5                	mov    %esp,%ebp
    3503:	53                   	push   %ebx
    3504:	83 ec 14             	sub    $0x14,%esp
    3507:	8d 45 f4             	lea    -0xc(%ebp),%eax
    350a:	8b 5d 0c             	mov    0xc(%ebp),%ebx
    350d:	50                   	push   %eax
    350e:	8d 45 f0             	lea    -0x10(%ebp),%eax
    3511:	50                   	push   %eax
    3512:	8b 45 08             	mov    0x8(%ebp),%eax
    3515:	53                   	push   %ebx
    3516:	50                   	push   %eax
    3517:	e8 64 28 00 00       	call   5d80 <seq_no_seg_trim_calc>
    351c:	83 c4 0c             	add    $0xc,%esp
    351f:	8b 55 f4             	mov    -0xc(%ebp),%edx
    3522:	8b 4d f0             	mov    -0x10(%ebp),%ecx
    3525:	52                   	push   %edx
    3526:	51                   	push   %ecx
    3527:	53                   	push   %ebx
    3528:	e8 c3 0f 00 00       	call   44f0 <tcp_segment_trim>
    352d:	83 c4 10             	add    $0x10,%esp
    3530:	8b 5d fc             	mov    -0x4(%ebp),%ebx
    3533:	c9                   	leave  
    3534:	c3                   	ret    
    3535:	8d 74 26 00          	lea    0x0(%esi,%eiz,1),%esi
    3539:	8d bc 27 00 00 00 00 	lea    0x0(%edi,%eiz,1),%edi

00003540 <tcp_unexpected_segment>:
    3540:	55                   	push   %ebp
    3541:	89 e5                	mov    %esp,%ebp
    3543:	56                   	push   %esi
    3544:	53                   	push   %ebx
    3545:	83 ec 0c             	sub    $0xc,%esp
    3548:	8b 5d 0c             	mov    0xc(%ebp),%ebx
    354b:	8b 75 08             	mov    0x8(%ebp),%esi
    354e:	53                   	push   %ebx
    354f:	56                   	push   %esi
    3550:	68 94 87 00 00       	push   $0x8794
    3555:	6a 04                	push   $0x4
    3557:	6a ff                	push   $0xffffffff
    3559:	e8 72 72 00 00       	call   a7d0 <log_msg@plt>
    355e:	83 c4 20             	add    $0x20,%esp
    3561:	f6 03 04             	testb  $0x4,(%ebx)
    3564:	74 0a                	je     3570 <tcp_unexpected_segment+0x30>
    3566:	8d 65 f8             	lea    -0x8(%ebp),%esp
    3569:	5b                   	pop    %ebx
    356a:	5e                   	pop    %esi
    356b:	5d                   	pop    %ebp
    356c:	c3                   	ret    
    356d:	8d 76 00             	lea    0x0(%esi),%esi
    3570:	83 ec 0c             	sub    $0xc,%esp
    3573:	53                   	push   %ebx
    3574:	56                   	push   %esi
    3575:	68 b0 8c 00 00       	push   $0x8cb0
    357a:	6a 04                	push   $0x4
    357c:	6a ff                	push   $0xffffffff
    357e:	e8 4d 72 00 00       	call   a7d0 <log_msg@plt>
    3583:	83 c4 14             	add    $0x14,%esp
    3586:	53                   	push   %ebx
    3587:	e8 a4 0e 00 00       	call   4430 <tcp_segment_make_rst>
    358c:	89 75 08             	mov    %esi,0x8(%ebp)
    358f:	89 45 0c             	mov    %eax,0xc(%ebp)
    3592:	83 c4 10             	add    $0x10,%esp
    3595:	8d 65 f8             	lea    -0x8(%ebp),%esp
    3598:	5b                   	pop    %ebx
    3599:	5e                   	pop    %esi
    359a:	5d                   	pop    %ebp
    359b:	e9 c0 39 00 00       	jmp    6f60 <tcp_transmit_segment>

000035a0 <tcp_ep2_flipped>:
    35a0:	55                   	push   %ebp
    35a1:	b9 06 00 00 00       	mov    $0x6,%ecx
    35a6:	89 e5                	mov    %esp,%ebp
    35a8:	57                   	push   %edi
    35a9:	56                   	push   %esi
    35aa:	8b 55 08             	mov    0x8(%ebp),%edx
    35ad:	8b 45 0c             	mov    0xc(%ebp),%eax
    35b0:	8d 72 1c             	lea    0x1c(%edx),%esi
    35b3:	8d 78 04             	lea    0x4(%eax),%edi
    35b6:	f3 a5                	rep movsl %ds:(%esi),%es:(%edi)
    35b8:	8d 78 1c             	lea    0x1c(%eax),%edi
    35bb:	8d 72 04             	lea    0x4(%edx),%esi
    35be:	b9 06 00 00 00       	mov    $0x6,%ecx
    35c3:	f3 a5                	rep movsl %ds:(%esi),%es:(%edi)
    35c5:	5e                   	pop    %esi
    35c6:	5f                   	pop    %edi
    35c7:	5d                   	pop    %ebp
    35c8:	c3                   	ret    
    35c9:	8d b4 26 00 00 00 00 	lea    0x0(%esi,%eiz,1),%esi

000035d0 <tcp_reply_rst>:
    35d0:	55                   	push   %ebp
    35d1:	89 e5                	mov    %esp,%ebp
    35d3:	56                   	push   %esi
    35d4:	53                   	push   %ebx
    35d5:	83 ec 0c             	sub    $0xc,%esp
    35d8:	8b 5d 08             	mov    0x8(%ebp),%ebx
    35db:	8b 75 0c             	mov    0xc(%ebp),%esi
    35de:	56                   	push   %esi
    35df:	53                   	push   %ebx
    35e0:	68 b0 8c 00 00       	push   $0x8cb0
    35e5:	6a 04                	push   $0x4
    35e7:	6a ff                	push   $0xffffffff
    35e9:	e8 e2 71 00 00       	call   a7d0 <log_msg@plt>
    35ee:	83 c4 14             	add    $0x14,%esp
    35f1:	56                   	push   %esi
    35f2:	e8 39 0e 00 00       	call   4430 <tcp_segment_make_rst>
    35f7:	89 5d 08             	mov    %ebx,0x8(%ebp)
    35fa:	89 45 0c             	mov    %eax,0xc(%ebp)
    35fd:	83 c4 10             	add    $0x10,%esp
    3600:	8d 65 f8             	lea    -0x8(%ebp),%esp
    3603:	5b                   	pop    %ebx
    3604:	5e                   	pop    %esi
    3605:	5d                   	pop    %ebp
    3606:	e9 55 39 00 00       	jmp    6f60 <tcp_transmit_segment>
    360b:	66 90                	xchg   %ax,%ax
    360d:	66 90                	xchg   %ax,%ax
    360f:	90                   	nop

00003610 <tcp_iqueue_init>:
    3610:	55                   	push   %ebp
    3611:	89 e5                	mov    %esp,%ebp
    3613:	8b 45 08             	mov    0x8(%ebp),%eax
    3616:	8d 50 04             	lea    0x4(%eax),%edx
    3619:	89 50 04             	mov    %edx,0x4(%eax)
    361c:	89 50 08             	mov    %edx,0x8(%eax)
    361f:	8b 55 0c             	mov    0xc(%ebp),%edx
    3622:	89 10                	mov    %edx,(%eax)
    3624:	5d                   	pop    %ebp
    3625:	c3                   	ret    
    3626:	8d 76 00             	lea    0x0(%esi),%esi
    3629:	8d bc 27 00 00 00 00 	lea    0x0(%edi,%eiz,1),%edi

00003630 <tcp_iqueue_insert_seg>:
    3630:	55                   	push   %ebp
    3631:	89 e5                	mov    %esp,%ebp
    3633:	57                   	push   %edi
    3634:	56                   	push   %esi
    3635:	53                   	push   %ebx
    3636:	83 ec 20             	sub    $0x20,%esp
    3639:	8b 55 0c             	mov    0xc(%ebp),%edx
    363c:	8b 7d 08             	mov    0x8(%ebp),%edi
    363f:	68 84 90 00 00       	push   $0x9084
    3644:	89 55 e4             	mov    %edx,-0x1c(%ebp)
    3647:	6a 04                	push   $0x4
    3649:	6a ff                	push   $0xffffffff
    364b:	e8 80 71 00 00       	call   a7d0 <log_msg@plt>
    3650:	58                   	pop    %eax
    3651:	5a                   	pop    %edx
    3652:	6a 0c                	push   $0xc
    3654:	6a 01                	push   $0x1
    3656:	e8 e5 71 00 00       	call   a840 <calloc@plt>
    365b:	83 c4 10             	add    $0x10,%esp
    365e:	8b 55 e4             	mov    -0x1c(%ebp),%edx
    3661:	85 c0                	test   %eax,%eax
    3663:	74 61                	je     36c6 <tcp_iqueue_insert_seg+0x96>
    3665:	89 c3                	mov    %eax,%ebx
    3667:	89 50 08             	mov    %edx,0x8(%eax)
    366a:	8b 77 08             	mov    0x8(%edi),%esi
    366d:	8d 47 04             	lea    0x4(%edi),%eax
    3670:	39 f0                	cmp    %esi,%eax
    3672:	74 3c                	je     36b0 <tcp_iqueue_insert_seg+0x80>
    3674:	85 f6                	test   %esi,%esi
    3676:	75 0b                	jne    3683 <tcp_iqueue_insert_seg+0x53>
    3678:	eb 36                	jmp    36b0 <tcp_iqueue_insert_seg+0x80>
    367a:	8d b6 00 00 00 00    	lea    0x0(%esi),%esi
    3680:	8b 53 08             	mov    0x8(%ebx),%edx
    3683:	50                   	push   %eax
    3684:	8b 4e 08             	mov    0x8(%esi),%ecx
    3687:	51                   	push   %ecx
    3688:	52                   	push   %edx
    3689:	8b 07                	mov    (%edi),%eax
    368b:	50                   	push   %eax
    368c:	e8 6f 28 00 00       	call   5f00 <seq_no_seg_cmp>
    3691:	83 c4 10             	add    $0x10,%esp
    3694:	85 c0                	test   %eax,%eax
    3696:	78 e8                	js     3680 <tcp_iqueue_insert_seg+0x50>
    3698:	8b 06                	mov    (%esi),%eax
    369a:	89 73 04             	mov    %esi,0x4(%ebx)
    369d:	89 03                	mov    %eax,(%ebx)
    369f:	8b 06                	mov    (%esi),%eax
    36a1:	89 58 04             	mov    %ebx,0x4(%eax)
    36a4:	89 1e                	mov    %ebx,(%esi)
    36a6:	8d 65 f4             	lea    -0xc(%ebp),%esp
    36a9:	5b                   	pop    %ebx
    36aa:	5e                   	pop    %esi
    36ab:	5f                   	pop    %edi
    36ac:	5d                   	pop    %ebp
    36ad:	c3                   	ret    
    36ae:	66 90                	xchg   %ax,%ax
    36b0:	89 43 04             	mov    %eax,0x4(%ebx)
    36b3:	8b 47 04             	mov    0x4(%edi),%eax
    36b6:	89 03                	mov    %eax,(%ebx)
    36b8:	89 58 04             	mov    %ebx,0x4(%eax)
    36bb:	89 5f 04             	mov    %ebx,0x4(%edi)
    36be:	8d 65 f4             	lea    -0xc(%ebp),%esp
    36c1:	5b                   	pop    %ebx
    36c2:	5e                   	pop    %esi
    36c3:	5f                   	pop    %edi
    36c4:	5d                   	pop    %ebp
    36c5:	c3                   	ret    
    36c6:	50                   	push   %eax
    36c7:	68 9c 90 00 00       	push   $0x909c
    36cc:	6a 01                	push   $0x1
    36ce:	6a ff                	push   $0xffffffff
    36d0:	e8 fb 70 00 00       	call   a7d0 <log_msg@plt>
    36d5:	83 c4 10             	add    $0x10,%esp
    36d8:	eb cc                	jmp    36a6 <tcp_iqueue_insert_seg+0x76>
    36da:	8d b6 00 00 00 00    	lea    0x0(%esi),%esi

000036e0 <tcp_iqueue_get_ready_seg>:
    36e0:	55                   	push   %ebp
    36e1:	89 e5                	mov    %esp,%ebp
    36e3:	57                   	push   %edi
    36e4:	56                   	push   %esi
    36e5:	53                   	push   %ebx
    36e6:	83 ec 10             	sub    $0x10,%esp
    36e9:	8b 75 08             	mov    0x8(%ebp),%esi
    36ec:	68 b3 90 00 00       	push   $0x90b3
    36f1:	6a 04                	push   $0x4
    36f3:	6a ff                	push   $0xffffffff
    36f5:	e8 d6 70 00 00       	call   a7d0 <log_msg@plt>
    36fa:	8b 5e 08             	mov    0x8(%esi),%ebx
    36fd:	83 c4 10             	add    $0x10,%esp
    3700:	85 db                	test   %ebx,%ebx
    3702:	0f 84 08 01 00 00    	je     3810 <tcp_iqueue_get_ready_seg+0x130>
    3708:	8d 7e 04             	lea    0x4(%esi),%edi
    370b:	39 df                	cmp    %ebx,%edi
    370d:	75 7c                	jne    378b <tcp_iqueue_get_ready_seg+0xab>
    370f:	e9 fc 00 00 00       	jmp    3810 <tcp_iqueue_get_ready_seg+0x130>
    3714:	8d 74 26 00          	lea    0x0(%esi,%eiz,1),%esi
    3718:	8b 16                	mov    (%esi),%edx
    371a:	8b 4b 08             	mov    0x8(%ebx),%ecx
    371d:	83 ec 04             	sub    $0x4,%esp
    3720:	8b 82 e0 00 00 00    	mov    0xe0(%edx),%eax
    3726:	ff 71 0c             	pushl  0xc(%ecx)
    3729:	8b 49 04             	mov    0x4(%ecx),%ecx
    372c:	51                   	push   %ecx
    372d:	8b 8a e4 00 00 00    	mov    0xe4(%edx),%ecx
    3733:	01 c1                	add    %eax,%ecx
    3735:	51                   	push   %ecx
    3736:	50                   	push   %eax
    3737:	68 f4 90 00 00       	push   $0x90f4
    373c:	6a 04                	push   $0x4
    373e:	6a ff                	push   $0xffffffff
    3740:	e8 8b 70 00 00       	call   a7d0 <log_msg@plt>
    3745:	8b 13                	mov    (%ebx),%edx
    3747:	83 c4 20             	add    $0x20,%esp
    374a:	85 d2                	test   %edx,%edx
    374c:	74 0e                	je     375c <tcp_iqueue_get_ready_seg+0x7c>
    374e:	8b 43 04             	mov    0x4(%ebx),%eax
    3751:	85 c0                	test   %eax,%eax
    3753:	74 07                	je     375c <tcp_iqueue_get_ready_seg+0x7c>
    3755:	89 10                	mov    %edx,(%eax)
    3757:	8b 13                	mov    (%ebx),%edx
    3759:	89 42 04             	mov    %eax,0x4(%edx)
    375c:	83 ec 0c             	sub    $0xc,%esp
    375f:	c7 03 00 00 00 00    	movl   $0x0,(%ebx)
    3765:	c7 43 04 00 00 00 00 	movl   $0x0,0x4(%ebx)
    376c:	8b 43 08             	mov    0x8(%ebx),%eax
    376f:	50                   	push   %eax
    3770:	e8 bb 0b 00 00       	call   4330 <tcp_segment_delete>
    3775:	8b 5e 08             	mov    0x8(%esi),%ebx
    3778:	83 c4 10             	add    $0x10,%esp
    377b:	85 db                	test   %ebx,%ebx
    377d:	0f 84 8d 00 00 00    	je     3810 <tcp_iqueue_get_ready_seg+0x130>
    3783:	39 fb                	cmp    %edi,%ebx
    3785:	0f 84 85 00 00 00    	je     3810 <tcp_iqueue_get_ready_seg+0x130>
    378b:	50                   	push   %eax
    378c:	50                   	push   %eax
    378d:	8b 43 08             	mov    0x8(%ebx),%eax
    3790:	50                   	push   %eax
    3791:	8b 06                	mov    (%esi),%eax
    3793:	50                   	push   %eax
    3794:	e8 07 25 00 00       	call   5ca0 <seq_no_segment_acceptable>
    3799:	83 c4 10             	add    $0x10,%esp
    379c:	84 c0                	test   %al,%al
    379e:	0f 84 74 ff ff ff    	je     3718 <tcp_iqueue_get_ready_seg+0x38>
    37a4:	57                   	push   %edi
    37a5:	57                   	push   %edi
    37a6:	8b 43 08             	mov    0x8(%ebx),%eax
    37a9:	50                   	push   %eax
    37aa:	8b 06                	mov    (%esi),%eax
    37ac:	50                   	push   %eax
    37ad:	e8 3e 23 00 00       	call   5af0 <seq_no_segment_ready>
    37b2:	83 c4 10             	add    $0x10,%esp
    37b5:	84 c0                	test   %al,%al
    37b7:	74 74                	je     382d <tcp_iqueue_get_ready_seg+0x14d>
    37b9:	8b 43 08             	mov    0x8(%ebx),%eax
    37bc:	50                   	push   %eax
    37bd:	68 d7 90 00 00       	push   $0x90d7
    37c2:	6a 04                	push   $0x4
    37c4:	6a ff                	push   $0xffffffff
    37c6:	e8 05 70 00 00       	call   a7d0 <log_msg@plt>
    37cb:	8b 13                	mov    (%ebx),%edx
    37cd:	83 c4 10             	add    $0x10,%esp
    37d0:	85 d2                	test   %edx,%edx
    37d2:	74 0e                	je     37e2 <tcp_iqueue_get_ready_seg+0x102>
    37d4:	8b 43 04             	mov    0x4(%ebx),%eax
    37d7:	85 c0                	test   %eax,%eax
    37d9:	74 07                	je     37e2 <tcp_iqueue_get_ready_seg+0x102>
    37db:	89 10                	mov    %edx,(%eax)
    37dd:	8b 13                	mov    (%ebx),%edx
    37df:	89 42 04             	mov    %eax,0x4(%edx)
    37e2:	8b 45 0c             	mov    0xc(%ebp),%eax
    37e5:	83 ec 0c             	sub    $0xc,%esp
    37e8:	8b 53 08             	mov    0x8(%ebx),%edx
    37eb:	c7 03 00 00 00 00    	movl   $0x0,(%ebx)
    37f1:	c7 43 04 00 00 00 00 	movl   $0x0,0x4(%ebx)
    37f8:	89 10                	mov    %edx,(%eax)
    37fa:	53                   	push   %ebx
    37fb:	e8 50 72 00 00       	call   aa50 <free@plt>
    3800:	83 c4 10             	add    $0x10,%esp
    3803:	31 c0                	xor    %eax,%eax
    3805:	8d 65 f4             	lea    -0xc(%ebp),%esp
    3808:	5b                   	pop    %ebx
    3809:	5e                   	pop    %esi
    380a:	5f                   	pop    %edi
    380b:	5d                   	pop    %ebp
    380c:	c3                   	ret    
    380d:	8d 76 00             	lea    0x0(%esi),%esi
    3810:	53                   	push   %ebx
    3811:	68 c7 90 00 00       	push   $0x90c7
    3816:	6a 04                	push   $0x4
    3818:	6a ff                	push   $0xffffffff
    381a:	e8 b1 6f 00 00       	call   a7d0 <log_msg@plt>
    381f:	83 c4 10             	add    $0x10,%esp
    3822:	8d 65 f4             	lea    -0xc(%ebp),%esp
    3825:	83 c8 ff             	or     $0xffffffff,%eax
    3828:	5b                   	pop    %ebx
    3829:	5e                   	pop    %esi
    382a:	5f                   	pop    %edi
    382b:	5d                   	pop    %ebp
    382c:	c3                   	ret    
    382d:	8b 43 08             	mov    0x8(%ebx),%eax
    3830:	52                   	push   %edx
    3831:	52                   	push   %edx
    3832:	8b 48 0c             	mov    0xc(%eax),%ecx
    3835:	8b 16                	mov    (%esi),%edx
    3837:	51                   	push   %ecx
    3838:	8b 9a e0 00 00 00    	mov    0xe0(%edx),%ebx
    383e:	53                   	push   %ebx
    383f:	8b 70 04             	mov    0x4(%eax),%esi
    3842:	56                   	push   %esi
    3843:	68 4c 91 00 00       	push   $0x914c
    3848:	6a 04                	push   $0x4
    384a:	6a ff                	push   $0xffffffff
    384c:	e8 7f 6f 00 00       	call   a7d0 <log_msg@plt>
    3851:	83 c4 20             	add    $0x20,%esp
    3854:	83 c8 ff             	or     $0xffffffff,%eax
    3857:	eb ac                	jmp    3805 <tcp_iqueue_get_ready_seg+0x125>
    3859:	66 90                	xchg   %ax,%ax
    385b:	66 90                	xchg   %ax,%ax
    385d:	66 90                	xchg   %ax,%ax
    385f:	90                   	nop

00003860 <tcp_ncsim_fibril>:
    3860:	55                   	push   %ebp
    3861:	89 e5                	mov    %esp,%ebp
    3863:	53                   	push   %ebx
    3864:	83 ec 08             	sub    $0x8,%esp
    3867:	68 87 91 00 00       	push   $0x9187
    386c:	6a 04                	push   $0x4
    386e:	6a ff                	push   $0xffffffff
    3870:	e8 5b 6f 00 00       	call   a7d0 <log_msg@plt>
    3875:	83 c4 10             	add    $0x10,%esp
    3878:	83 ec 0c             	sub    $0xc,%esp
    387b:	68 14 c6 00 00       	push   $0xc614
    3880:	e8 db 71 00 00       	call   aa60 <fibril_mutex_lock@plt>
    3885:	8b 1d 28 c6 00 00    	mov    0xc628,%ebx
    388b:	83 c4 10             	add    $0x10,%esp
    388e:	81 fb 24 c6 00 00    	cmp    $0xc624,%ebx
    3894:	75 2a                	jne    38c0 <tcp_ncsim_fibril+0x60>
    3896:	66 90                	xchg   %ax,%ax
    3898:	50                   	push   %eax
    3899:	50                   	push   %eax
    389a:	68 14 c6 00 00       	push   $0xc614
    389f:	68 0c c6 00 00       	push   $0xc60c
    38a4:	e8 07 6f 00 00       	call   a7b0 <fibril_condvar_wait@plt>
    38a9:	8b 1d 28 c6 00 00    	mov    0xc628,%ebx
    38af:	83 c4 10             	add    $0x10,%esp
    38b2:	81 fb 24 c6 00 00    	cmp    $0xc624,%ebx
    38b8:	74 de                	je     3898 <tcp_ncsim_fibril+0x38>
    38ba:	8d b6 00 00 00 00    	lea    0x0(%esi),%esi
    38c0:	50                   	push   %eax
    38c1:	68 9a 91 00 00       	push   $0x919a
    38c6:	6a 04                	push   $0x4
    38c8:	6a ff                	push   $0xffffffff
    38ca:	e8 01 6f 00 00       	call   a7d0 <log_msg@plt>
    38cf:	83 c4 0c             	add    $0xc,%esp
    38d2:	8b 43 08             	mov    0x8(%ebx),%eax
    38d5:	50                   	push   %eax
    38d6:	68 14 c6 00 00       	push   $0xc614
    38db:	68 0c c6 00 00       	push   $0xc60c
    38e0:	e8 6b 6f 00 00       	call   a850 <fibril_condvar_wait_timeout@plt>
    38e5:	83 c4 10             	add    $0x10,%esp
    38e8:	83 f8 f3             	cmp    $0xfffffff3,%eax
    38eb:	74 2b                	je     3918 <tcp_ncsim_fibril+0xb8>
    38ed:	8b 1d 28 c6 00 00    	mov    0xc628,%ebx
    38f3:	81 fb 24 c6 00 00    	cmp    $0xc624,%ebx
    38f9:	75 c5                	jne    38c0 <tcp_ncsim_fibril+0x60>
    38fb:	50                   	push   %eax
    38fc:	68 9a 91 00 00       	push   $0x919a
    3901:	6a 04                	push   $0x4
    3903:	6a ff                	push   $0xffffffff
    3905:	e8 c6 6e 00 00       	call   a7d0 <log_msg@plt>
    390a:	a1 08 00 00 00       	mov    0x8,%eax
    390f:	0f 0b                	ud2    
    3911:	8d b4 26 00 00 00 00 	lea    0x0(%esi,%eiz,1),%esi
    3918:	8b 13                	mov    (%ebx),%edx
    391a:	85 d2                	test   %edx,%edx
    391c:	74 0e                	je     392c <tcp_ncsim_fibril+0xcc>
    391e:	8b 43 04             	mov    0x4(%ebx),%eax
    3921:	85 c0                	test   %eax,%eax
    3923:	74 07                	je     392c <tcp_ncsim_fibril+0xcc>
    3925:	89 10                	mov    %edx,(%eax)
    3927:	8b 13                	mov    (%ebx),%edx
    3929:	89 42 04             	mov    %eax,0x4(%edx)
    392c:	83 ec 0c             	sub    $0xc,%esp
    392f:	c7 03 00 00 00 00    	movl   $0x0,(%ebx)
    3935:	c7 43 04 00 00 00 00 	movl   $0x0,0x4(%ebx)
    393c:	68 14 c6 00 00       	push   $0xc614
    3941:	e8 5a 6f 00 00       	call   a8a0 <fibril_mutex_unlock@plt>
    3946:	83 c4 0c             	add    $0xc,%esp
    3949:	68 a8 91 00 00       	push   $0x91a8
    394e:	6a 04                	push   $0x4
    3950:	6a ff                	push   $0xffffffff
    3952:	e8 79 6e 00 00       	call   a7d0 <log_msg@plt>
    3957:	8b 43 40             	mov    0x40(%ebx),%eax
    395a:	5a                   	pop    %edx
    395b:	59                   	pop    %ecx
    395c:	50                   	push   %eax
    395d:	8d 43 0c             	lea    0xc(%ebx),%eax
    3960:	50                   	push   %eax
    3961:	e8 da 07 00 00       	call   4140 <tcp_rqueue_bounce_seg>
    3966:	89 1c 24             	mov    %ebx,(%esp)
    3969:	e8 e2 70 00 00       	call   aa50 <free@plt>
    396e:	83 c4 10             	add    $0x10,%esp
    3971:	e9 02 ff ff ff       	jmp    3878 <tcp_ncsim_fibril+0x18>
    3976:	8d 76 00             	lea    0x0(%esi),%esi
    3979:	8d bc 27 00 00 00 00 	lea    0x0(%edi,%eiz,1),%edi

00003980 <tcp_ncsim_init>:
    3980:	55                   	push   %ebp
    3981:	89 e5                	mov    %esp,%ebp
    3983:	83 ec 14             	sub    $0x14,%esp
    3986:	c7 05 24 c6 00 00 24 	movl   $0xc624,0xc624
    398d:	c6 00 00 
    3990:	c7 05 28 c6 00 00 24 	movl   $0xc624,0xc628
    3997:	c6 00 00 
    399a:	68 14 c6 00 00       	push   $0xc614
    399f:	e8 0c 6f 00 00       	call   a8b0 <fibril_mutex_initialize@plt>
    39a4:	c7 04 24 0c c6 00 00 	movl   $0xc60c,(%esp)
    39ab:	e8 b0 6e 00 00       	call   a860 <fibril_condvar_initialize@plt>
    39b0:	83 c4 10             	add    $0x10,%esp
    39b3:	c9                   	leave  
    39b4:	c3                   	ret    
    39b5:	8d 74 26 00          	lea    0x0(%esi,%eiz,1),%esi
    39b9:	8d bc 27 00 00 00 00 	lea    0x0(%edi,%eiz,1),%edi

000039c0 <tcp_ncsim_bounce_seg>:
    39c0:	55                   	push   %ebp
    39c1:	89 e5                	mov    %esp,%ebp
    39c3:	56                   	push   %esi
    39c4:	53                   	push   %ebx
    39c5:	50                   	push   %eax
    39c6:	8b 5d 08             	mov    0x8(%ebp),%ebx
    39c9:	8b 75 0c             	mov    0xc(%ebp),%esi
    39cc:	68 ba 91 00 00       	push   $0x91ba
    39d1:	6a 04                	push   $0x4
    39d3:	6a ff                	push   $0xffffffff
    39d5:	e8 f6 6d 00 00       	call   a7d0 <log_msg@plt>
    39da:	89 75 0c             	mov    %esi,0xc(%ebp)
    39dd:	89 5d 08             	mov    %ebx,0x8(%ebp)
    39e0:	83 c4 10             	add    $0x10,%esp
    39e3:	8d 65 f8             	lea    -0x8(%ebp),%esp
    39e6:	5b                   	pop    %ebx
    39e7:	5e                   	pop    %esi
    39e8:	5d                   	pop    %ebp
    39e9:	e9 52 07 00 00       	jmp    4140 <tcp_rqueue_bounce_seg>
    39ee:	66 90                	xchg   %ax,%ax

000039f0 <tcp_ncsim_fibril_start>:
    39f0:	55                   	push   %ebp
    39f1:	89 e5                	mov    %esp,%ebp
    39f3:	83 ec 0c             	sub    $0xc,%esp
    39f6:	68 d1 91 00 00       	push   $0x91d1
    39fb:	6a 04                	push   $0x4
    39fd:	6a ff                	push   $0xffffffff
    39ff:	e8 cc 6d 00 00       	call   a7d0 <log_msg@plt>
    3a04:	83 c4 0c             	add    $0xc,%esp
    3a07:	6a 00                	push   $0x0
    3a09:	6a 00                	push   $0x0
    3a0b:	68 60 38 00 00       	push   $0x3860
    3a10:	e8 9b 6f 00 00       	call   a9b0 <fibril_create_generic@plt>
    3a15:	83 c4 10             	add    $0x10,%esp
    3a18:	85 c0                	test   %eax,%eax
    3a1a:	74 14                	je     3a30 <tcp_ncsim_fibril_start+0x40>
    3a1c:	83 ec 0c             	sub    $0xc,%esp
    3a1f:	50                   	push   %eax
    3a20:	e8 9b 6f 00 00       	call   a9c0 <fibril_add_ready@plt>
    3a25:	83 c4 10             	add    $0x10,%esp
    3a28:	c9                   	leave  
    3a29:	c3                   	ret    
    3a2a:	8d b6 00 00 00 00    	lea    0x0(%esi),%esi
    3a30:	50                   	push   %eax
    3a31:	68 ea 91 00 00       	push   $0x91ea
    3a36:	6a 01                	push   $0x1
    3a38:	6a ff                	push   $0xffffffff
    3a3a:	e8 91 6d 00 00       	call   a7d0 <log_msg@plt>
    3a3f:	83 c4 10             	add    $0x10,%esp
    3a42:	c9                   	leave  
    3a43:	c3                   	ret    
    3a44:	66 90                	xchg   %ax,%ax
    3a46:	66 90                	xchg   %ax,%ax
    3a48:	66 90                	xchg   %ax,%ax
    3a4a:	66 90                	xchg   %ax,%ax
    3a4c:	66 90                	xchg   %ax,%ax
    3a4e:	66 90                	xchg   %ax,%ax

00003a50 <tcp_pdu_create>:
    3a50:	55                   	push   %ebp
    3a51:	89 e5                	mov    %esp,%ebp
    3a53:	57                   	push   %edi
    3a54:	56                   	push   %esi
    3a55:	53                   	push   %ebx
    3a56:	83 ec 14             	sub    $0x14,%esp
    3a59:	8b 7d 0c             	mov    0xc(%ebp),%edi
    3a5c:	8b 75 14             	mov    0x14(%ebp),%esi
    3a5f:	6a 38                	push   $0x38
    3a61:	6a 01                	push   $0x1
    3a63:	e8 d8 6d 00 00       	call   a840 <calloc@plt>
    3a68:	83 c4 10             	add    $0x10,%esp
    3a6b:	89 c3                	mov    %eax,%ebx
    3a6d:	85 c0                	test   %eax,%eax
    3a6f:	74 4b                	je     3abc <tcp_pdu_create+0x6c>
    3a71:	83 ec 0c             	sub    $0xc,%esp
    3a74:	57                   	push   %edi
    3a75:	e8 06 6d 00 00       	call   a780 <malloc@plt>
    3a7a:	89 43 28             	mov    %eax,0x28(%ebx)
    3a7d:	89 34 24             	mov    %esi,(%esp)
    3a80:	e8 fb 6c 00 00       	call   a780 <malloc@plt>
    3a85:	8b 53 28             	mov    0x28(%ebx),%edx
    3a88:	83 c4 10             	add    $0x10,%esp
    3a8b:	89 43 30             	mov    %eax,0x30(%ebx)
    3a8e:	85 d2                	test   %edx,%edx
    3a90:	74 45                	je     3ad7 <tcp_pdu_create+0x87>
    3a92:	85 c0                	test   %eax,%eax
    3a94:	74 32                	je     3ac8 <tcp_pdu_create+0x78>
    3a96:	8b 4d 08             	mov    0x8(%ebp),%ecx
    3a99:	50                   	push   %eax
    3a9a:	57                   	push   %edi
    3a9b:	51                   	push   %ecx
    3a9c:	52                   	push   %edx
    3a9d:	e8 ce 6c 00 00       	call   a770 <memcpy@plt>
    3aa2:	83 c4 0c             	add    $0xc,%esp
    3aa5:	8b 45 10             	mov    0x10(%ebp),%eax
    3aa8:	56                   	push   %esi
    3aa9:	50                   	push   %eax
    3aaa:	8b 43 30             	mov    0x30(%ebx),%eax
    3aad:	50                   	push   %eax
    3aae:	e8 bd 6c 00 00       	call   a770 <memcpy@plt>
    3ab3:	89 7b 2c             	mov    %edi,0x2c(%ebx)
    3ab6:	89 73 34             	mov    %esi,0x34(%ebx)
    3ab9:	83 c4 10             	add    $0x10,%esp
    3abc:	8d 65 f4             	lea    -0xc(%ebp),%esp
    3abf:	89 d8                	mov    %ebx,%eax
    3ac1:	5b                   	pop    %ebx
    3ac2:	5e                   	pop    %esi
    3ac3:	5f                   	pop    %edi
    3ac4:	5d                   	pop    %ebp
    3ac5:	c3                   	ret    
    3ac6:	66 90                	xchg   %ax,%ax
    3ac8:	83 ec 0c             	sub    $0xc,%esp
    3acb:	52                   	push   %edx
    3acc:	e8 7f 6f 00 00       	call   aa50 <free@plt>
    3ad1:	8b 43 30             	mov    0x30(%ebx),%eax
    3ad4:	83 c4 10             	add    $0x10,%esp
    3ad7:	85 c0                	test   %eax,%eax
    3ad9:	74 0c                	je     3ae7 <tcp_pdu_create+0x97>
    3adb:	83 ec 0c             	sub    $0xc,%esp
    3ade:	50                   	push   %eax
    3adf:	e8 6c 6f 00 00       	call   aa50 <free@plt>
    3ae4:	83 c4 10             	add    $0x10,%esp
    3ae7:	83 ec 0c             	sub    $0xc,%esp
    3aea:	53                   	push   %ebx
    3aeb:	31 db                	xor    %ebx,%ebx
    3aed:	e8 5e 6f 00 00       	call   aa50 <free@plt>
    3af2:	83 c4 10             	add    $0x10,%esp
    3af5:	eb c5                	jmp    3abc <tcp_pdu_create+0x6c>
    3af7:	89 f6                	mov    %esi,%esi
    3af9:	8d bc 27 00 00 00 00 	lea    0x0(%edi,%eiz,1),%edi

00003b00 <tcp_pdu_delete>:
    3b00:	55                   	push   %ebp
    3b01:	89 e5                	mov    %esp,%ebp
    3b03:	53                   	push   %ebx
    3b04:	83 ec 10             	sub    $0x10,%esp
    3b07:	8b 5d 08             	mov    0x8(%ebp),%ebx
    3b0a:	8b 43 28             	mov    0x28(%ebx),%eax
    3b0d:	50                   	push   %eax
    3b0e:	e8 3d 6f 00 00       	call   aa50 <free@plt>
    3b13:	8b 4b 30             	mov    0x30(%ebx),%ecx
    3b16:	5a                   	pop    %edx
    3b17:	51                   	push   %ecx
    3b18:	e8 33 6f 00 00       	call   aa50 <free@plt>
    3b1d:	89 5d 08             	mov    %ebx,0x8(%ebp)
    3b20:	83 c4 10             	add    $0x10,%esp
    3b23:	8b 5d fc             	mov    -0x4(%ebp),%ebx
    3b26:	c9                   	leave  
    3b27:	e9 24 6f 00 00       	jmp    aa50 <free@plt>
    3b2c:	8d 74 26 00          	lea    0x0(%esi,%eiz,1),%esi

00003b30 <tcp_pdu_decode>:
    3b30:	55                   	push   %ebp
    3b31:	89 e5                	mov    %esp,%ebp
    3b33:	57                   	push   %edi
    3b34:	56                   	push   %esi
    3b35:	53                   	push   %ebx
    3b36:	83 ec 20             	sub    $0x20,%esp
    3b39:	8b 5d 08             	mov    0x8(%ebp),%ebx
    3b3c:	8b 75 0c             	mov    0xc(%ebp),%esi
    3b3f:	8b 4b 34             	mov    0x34(%ebx),%ecx
    3b42:	8b 7b 30             	mov    0x30(%ebx),%edi
    3b45:	51                   	push   %ecx
    3b46:	57                   	push   %edi
    3b47:	6a 00                	push   $0x0
    3b49:	e8 32 09 00 00       	call   4480 <tcp_segment_make_data>
    3b4e:	83 c4 10             	add    $0x10,%esp
    3b51:	85 c0                	test   %eax,%eax
    3b53:	0f 84 07 01 00 00    	je     3c60 <tcp_pdu_decode+0x130>
    3b59:	8b 4b 28             	mov    0x28(%ebx),%ecx
    3b5c:	89 c7                	mov    %eax,%edi
    3b5e:	8b 51 0c             	mov    0xc(%ecx),%edx
    3b61:	66 c1 c2 08          	rol    $0x8,%dx
    3b65:	89 d0                	mov    %edx,%eax
    3b67:	83 e0 10             	and    $0x10,%eax
    3b6a:	66 83 f8 01          	cmp    $0x1,%ax
    3b6e:	66 89 45 e6          	mov    %ax,-0x1a(%ebp)
    3b72:	19 c0                	sbb    %eax,%eax
    3b74:	83 e0 f8             	and    $0xfffffff8,%eax
    3b77:	83 c0 0c             	add    $0xc,%eax
    3b7a:	66 83 7d e6 01       	cmpw   $0x1,-0x1a(%ebp)
    3b7f:	89 45 e0             	mov    %eax,-0x20(%ebp)
    3b82:	19 c0                	sbb    %eax,%eax
    3b84:	83 f0 ff             	xor    $0xffffffff,%eax
    3b87:	83 e0 08             	and    $0x8,%eax
    3b8a:	f6 c2 04             	test   $0x4,%dl
    3b8d:	74 03                	je     3b92 <tcp_pdu_decode+0x62>
    3b8f:	8b 45 e0             	mov    -0x20(%ebp),%eax
    3b92:	f6 c2 02             	test   $0x2,%dl
    3b95:	0f 85 bd 00 00 00    	jne    3c58 <tcp_pdu_decode+0x128>
    3b9b:	83 e2 01             	and    $0x1,%edx
    3b9e:	74 03                	je     3ba3 <tcp_pdu_decode+0x73>
    3ba0:	83 c8 02             	or     $0x2,%eax
    3ba3:	8b 51 04             	mov    0x4(%ecx),%edx
    3ba6:	83 ec 0c             	sub    $0xc,%esp
    3ba9:	0f ca                	bswap  %edx
    3bab:	89 57 04             	mov    %edx,0x4(%edi)
    3bae:	89 07                	mov    %eax,(%edi)
    3bb0:	8b 51 08             	mov    0x8(%ecx),%edx
    3bb3:	0f ca                	bswap  %edx
    3bb5:	89 57 08             	mov    %edx,0x8(%edi)
    3bb8:	66 8b 51 0e          	mov    0xe(%ecx),%dx
    3bbc:	66 c1 c2 08          	rol    $0x8,%dx
    3bc0:	66 89 55 e6          	mov    %dx,-0x1a(%ebp)
    3bc4:	31 d2                	xor    %edx,%edx
    3bc6:	66 8b 55 e6          	mov    -0x1a(%ebp),%dx
    3bca:	89 57 10             	mov    %edx,0x10(%edi)
    3bcd:	66 8b 51 12          	mov    0x12(%ecx),%dx
    3bd1:	89 d1                	mov    %edx,%ecx
    3bd3:	31 d2                	xor    %edx,%edx
    3bd5:	66 c1 c1 08          	rol    $0x8,%cx
    3bd9:	66 89 ca             	mov    %cx,%dx
    3bdc:	89 57 14             	mov    %edx,0x14(%edi)
    3bdf:	50                   	push   %eax
    3be0:	e8 7b 21 00 00       	call   5d60 <seq_no_control_len>
    3be5:	8b 57 0c             	mov    0xc(%edi),%edx
    3be8:	01 c2                	add    %eax,%edx
    3bea:	83 c4 10             	add    $0x10,%esp
    3bed:	89 57 0c             	mov    %edx,0xc(%edi)
    3bf0:	8b 53 28             	mov    0x28(%ebx),%edx
    3bf3:	66 8b 42 02          	mov    0x2(%edx),%ax
    3bf7:	66 c1 c0 08          	rol    $0x8,%ax
    3bfb:	66 89 46 18          	mov    %ax,0x18(%esi)
    3bff:	8b 43 14             	mov    0x14(%ebx),%eax
    3c02:	89 46 04             	mov    %eax,0x4(%esi)
    3c05:	8b 43 18             	mov    0x18(%ebx),%eax
    3c08:	89 46 08             	mov    %eax,0x8(%esi)
    3c0b:	8b 43 1c             	mov    0x1c(%ebx),%eax
    3c0e:	89 46 0c             	mov    %eax,0xc(%esi)
    3c11:	8b 43 20             	mov    0x20(%ebx),%eax
    3c14:	89 46 10             	mov    %eax,0x10(%esi)
    3c17:	8b 43 24             	mov    0x24(%ebx),%eax
    3c1a:	89 46 14             	mov    %eax,0x14(%esi)
    3c1d:	8b 02                	mov    (%edx),%eax
    3c1f:	66 c1 c0 08          	rol    $0x8,%ax
    3c23:	66 89 46 30          	mov    %ax,0x30(%esi)
    3c27:	8b 03                	mov    (%ebx),%eax
    3c29:	89 46 1c             	mov    %eax,0x1c(%esi)
    3c2c:	8b 43 04             	mov    0x4(%ebx),%eax
    3c2f:	89 46 20             	mov    %eax,0x20(%esi)
    3c32:	8b 43 08             	mov    0x8(%ebx),%eax
    3c35:	89 46 24             	mov    %eax,0x24(%esi)
    3c38:	8b 43 0c             	mov    0xc(%ebx),%eax
    3c3b:	89 46 28             	mov    %eax,0x28(%esi)
    3c3e:	8b 43 10             	mov    0x10(%ebx),%eax
    3c41:	89 46 2c             	mov    %eax,0x2c(%esi)
    3c44:	8b 45 10             	mov    0x10(%ebp),%eax
    3c47:	89 38                	mov    %edi,(%eax)
    3c49:	31 c0                	xor    %eax,%eax
    3c4b:	8d 65 f4             	lea    -0xc(%ebp),%esp
    3c4e:	5b                   	pop    %ebx
    3c4f:	5e                   	pop    %esi
    3c50:	5f                   	pop    %edi
    3c51:	5d                   	pop    %ebp
    3c52:	c3                   	ret    
    3c53:	90                   	nop
    3c54:	8d 74 26 00          	lea    0x0(%esi,%eiz,1),%esi
    3c58:	83 c8 01             	or     $0x1,%eax
    3c5b:	e9 3b ff ff ff       	jmp    3b9b <tcp_pdu_decode+0x6b>
    3c60:	b8 fe ff ff ff       	mov    $0xfffffffe,%eax
    3c65:	eb e4                	jmp    3c4b <tcp_pdu_decode+0x11b>
    3c67:	89 f6                	mov    %esi,%esi
    3c69:	8d bc 27 00 00 00 00 	lea    0x0(%edi,%eiz,1),%edi

00003c70 <tcp_pdu_encode>:
    3c70:	55                   	push   %ebp
    3c71:	89 e5                	mov    %esp,%ebp
    3c73:	57                   	push   %edi
    3c74:	56                   	push   %esi
    3c75:	53                   	push   %ebx
    3c76:	81 ec 84 00 00 00    	sub    $0x84,%esp
    3c7c:	8b 75 08             	mov    0x8(%ebp),%esi
    3c7f:	8b 7d 0c             	mov    0xc(%ebp),%edi
    3c82:	6a 38                	push   $0x38
    3c84:	6a 01                	push   $0x1
    3c86:	e8 b5 6b 00 00       	call   a840 <calloc@plt>
    3c8b:	83 c4 10             	add    $0x10,%esp
    3c8e:	85 c0                	test   %eax,%eax
    3c90:	0f 84 1d 03 00 00    	je     3fb3 <tcp_pdu_encode+0x343>
    3c96:	89 c3                	mov    %eax,%ebx
    3c98:	8b 46 04             	mov    0x4(%esi),%eax
    3c9b:	89 03                	mov    %eax,(%ebx)
    3c9d:	8b 46 08             	mov    0x8(%esi),%eax
    3ca0:	89 43 04             	mov    %eax,0x4(%ebx)
    3ca3:	8b 46 0c             	mov    0xc(%esi),%eax
    3ca6:	89 43 08             	mov    %eax,0x8(%ebx)
    3ca9:	8b 46 10             	mov    0x10(%esi),%eax
    3cac:	89 43 0c             	mov    %eax,0xc(%ebx)
    3caf:	8b 46 14             	mov    0x14(%esi),%eax
    3cb2:	89 43 10             	mov    %eax,0x10(%ebx)
    3cb5:	8b 46 1c             	mov    0x1c(%esi),%eax
    3cb8:	89 43 14             	mov    %eax,0x14(%ebx)
    3cbb:	8b 46 20             	mov    0x20(%esi),%eax
    3cbe:	89 43 18             	mov    %eax,0x18(%ebx)
    3cc1:	8b 46 24             	mov    0x24(%esi),%eax
    3cc4:	89 43 1c             	mov    %eax,0x1c(%ebx)
    3cc7:	8b 46 28             	mov    0x28(%esi),%eax
    3cca:	89 43 20             	mov    %eax,0x20(%ebx)
    3ccd:	8b 46 2c             	mov    0x2c(%esi),%eax
    3cd0:	89 43 24             	mov    %eax,0x24(%ebx)
    3cd3:	51                   	push   %ecx
    3cd4:	51                   	push   %ecx
    3cd5:	6a 14                	push   $0x14
    3cd7:	6a 01                	push   $0x1
    3cd9:	e8 62 6b 00 00       	call   a840 <calloc@plt>
    3cde:	83 c4 10             	add    $0x10,%esp
    3ce1:	85 c0                	test   %eax,%eax
    3ce3:	0f 84 be 02 00 00    	je     3fa7 <tcp_pdu_encode+0x337>
    3ce9:	66 8b 56 30          	mov    0x30(%esi),%dx
    3ced:	66 8b 4e 18          	mov    0x18(%esi),%cx
    3cf1:	66 c1 c2 08          	rol    $0x8,%dx
    3cf5:	66 89 50 02          	mov    %dx,0x2(%eax)
    3cf9:	8b 57 04             	mov    0x4(%edi),%edx
    3cfc:	0f ca                	bswap  %edx
    3cfe:	66 c1 c1 08          	rol    $0x8,%cx
    3d02:	89 50 04             	mov    %edx,0x4(%eax)
    3d05:	8b 57 08             	mov    0x8(%edi),%edx
    3d08:	66 89 08             	mov    %cx,(%eax)
    3d0b:	8b 0f                	mov    (%edi),%ecx
    3d0d:	0f ca                	bswap  %edx
    3d0f:	89 50 08             	mov    %edx,0x8(%eax)
    3d12:	f6 c1 08             	test   $0x8,%cl
    3d15:	0f 85 7d 02 00 00    	jne    3f98 <tcp_pdu_encode+0x328>
    3d1b:	be 04 50 00 00       	mov    $0x5004,%esi
    3d20:	ba 00 50 00 00       	mov    $0x5000,%edx
    3d25:	f6 c1 04             	test   $0x4,%cl
    3d28:	74 02                	je     3d2c <tcp_pdu_encode+0xbc>
    3d2a:	89 f2                	mov    %esi,%edx
    3d2c:	f6 c1 01             	test   $0x1,%cl
    3d2f:	74 03                	je     3d34 <tcp_pdu_encode+0xc4>
    3d31:	83 ca 02             	or     $0x2,%edx
    3d34:	83 e1 02             	and    $0x2,%ecx
    3d37:	74 03                	je     3d3c <tcp_pdu_encode+0xcc>
    3d39:	83 ca 01             	or     $0x1,%edx
    3d3c:	c1 e2 08             	shl    $0x8,%edx
    3d3f:	83 ec 0c             	sub    $0xc,%esp
    3d42:	83 ca 50             	or     $0x50,%edx
    3d45:	66 c7 40 10 00 00    	movw   $0x0,0x10(%eax)
    3d4b:	66 89 50 0c          	mov    %dx,0xc(%eax)
    3d4f:	8b 57 10             	mov    0x10(%edi),%edx
    3d52:	66 c1 c2 08          	rol    $0x8,%dx
    3d56:	66 89 50 0e          	mov    %dx,0xe(%eax)
    3d5a:	8b 57 14             	mov    0x14(%edi),%edx
    3d5d:	66 c1 c2 08          	rol    $0x8,%dx
    3d61:	66 89 50 12          	mov    %dx,0x12(%eax)
    3d65:	89 43 28             	mov    %eax,0x28(%ebx)
    3d68:	c7 43 2c 14 00 00 00 	movl   $0x14,0x2c(%ebx)
    3d6f:	57                   	push   %edi
    3d70:	e8 0b 09 00 00       	call   4680 <tcp_segment_text_size>
    3d75:	89 c6                	mov    %eax,%esi
    3d77:	58                   	pop    %eax
    3d78:	5a                   	pop    %edx
    3d79:	56                   	push   %esi
    3d7a:	6a 01                	push   $0x1
    3d7c:	e8 bf 6a 00 00       	call   a840 <calloc@plt>
    3d81:	83 c4 10             	add    $0x10,%esp
    3d84:	89 43 30             	mov    %eax,0x30(%ebx)
    3d87:	85 c0                	test   %eax,%eax
    3d89:	0f 84 09 03 00 00    	je     4098 <tcp_pdu_encode+0x428>
    3d8f:	89 73 34             	mov    %esi,0x34(%ebx)
    3d92:	52                   	push   %edx
    3d93:	8b 4f 18             	mov    0x18(%edi),%ecx
    3d96:	56                   	push   %esi
    3d97:	51                   	push   %ecx
    3d98:	50                   	push   %eax
    3d99:	e8 d2 69 00 00       	call   a770 <memcpy@plt>
    3d9e:	83 c4 0c             	add    $0xc,%esp
    3da1:	8d 55 a0             	lea    -0x60(%ebp),%edx
    3da4:	8d 45 8c             	lea    -0x74(%ebp),%eax
    3da7:	52                   	push   %edx
    3da8:	89 55 84             	mov    %edx,-0x7c(%ebp)
    3dab:	50                   	push   %eax
    3dac:	53                   	push   %ebx
    3dad:	e8 1e 6b 00 00       	call   a8d0 <inet_addr_get@plt>
    3db2:	83 c4 0c             	add    $0xc,%esp
    3db5:	89 c6                	mov    %eax,%esi
    3db7:	8d 7d b0             	lea    -0x50(%ebp),%edi
    3dba:	8d 45 90             	lea    -0x70(%ebp),%eax
    3dbd:	57                   	push   %edi
    3dbe:	50                   	push   %eax
    3dbf:	8d 43 14             	lea    0x14(%ebx),%eax
    3dc2:	50                   	push   %eax
    3dc3:	e8 08 6b 00 00       	call   a8d0 <inet_addr_get@plt>
    3dc8:	83 c4 10             	add    $0x10,%esp
    3dcb:	8b 55 84             	mov    -0x7c(%ebp),%edx
    3dce:	66 39 c6             	cmp    %ax,%si
    3dd1:	0f 85 e2 02 00 00    	jne    40b9 <tcp_pdu_encode+0x449>
    3dd7:	81 e6 ff ff 00 00    	and    $0xffff,%esi
    3ddd:	83 fe 01             	cmp    $0x1,%esi
    3de0:	0f 84 f2 01 00 00    	je     3fd8 <tcp_pdu_encode+0x368>
    3de6:	83 fe 02             	cmp    $0x2,%esi
    3de9:	0f 85 d1 01 00 00    	jne    3fc0 <tcp_pdu_encode+0x350>
    3def:	8d 75 c0             	lea    -0x40(%ebp),%esi
    3df2:	51                   	push   %ecx
    3df3:	51                   	push   %ecx
    3df4:	56                   	push   %esi
    3df5:	52                   	push   %edx
    3df6:	e8 95 69 00 00       	call   a790 <host2addr128_t_be@plt>
    3dfb:	58                   	pop    %eax
    3dfc:	8d 45 d0             	lea    -0x30(%ebp),%eax
    3dff:	5a                   	pop    %edx
    3e00:	50                   	push   %eax
    3e01:	57                   	push   %edi
    3e02:	e8 89 69 00 00       	call   a790 <host2addr128_t_be@plt>
    3e07:	8b 4b 2c             	mov    0x2c(%ebx),%ecx
    3e0a:	8b 43 34             	mov    0x34(%ebx),%eax
    3e0d:	01 c8                	add    %ecx,%eax
    3e0f:	83 c4 0c             	add    $0xc,%esp
    3e12:	0f c8                	bswap  %eax
    3e14:	89 45 e0             	mov    %eax,-0x20(%ebp)
    3e17:	8d 45 e4             	lea    -0x1c(%ebp),%eax
    3e1a:	6a 03                	push   $0x3
    3e1c:	6a 00                	push   $0x0
    3e1e:	50                   	push   %eax
    3e1f:	e8 cc 6a 00 00       	call   a8f0 <memset@plt>
    3e24:	89 f1                	mov    %esi,%ecx
    3e26:	c6 45 e7 06          	movb   $0x6,-0x19(%ebp)
    3e2a:	8d 75 e8             	lea    -0x18(%ebp),%esi
    3e2d:	83 c4 10             	add    $0x10,%esp
    3e30:	31 d2                	xor    %edx,%edx
    3e32:	8d b6 00 00 00 00    	lea    0x0(%esi),%esi
    3e38:	31 c0                	xor    %eax,%eax
    3e3a:	81 e2 ff ff 00 00    	and    $0xffff,%edx
    3e40:	8a 01                	mov    (%ecx),%al
    3e42:	83 c1 02             	add    $0x2,%ecx
    3e45:	c1 e0 08             	shl    $0x8,%eax
    3e48:	89 c7                	mov    %eax,%edi
    3e4a:	31 c0                	xor    %eax,%eax
    3e4c:	8a 41 ff             	mov    -0x1(%ecx),%al
    3e4f:	09 f8                	or     %edi,%eax
    3e51:	25 ff ff 00 00       	and    $0xffff,%eax
    3e56:	01 d0                	add    %edx,%eax
    3e58:	89 c2                	mov    %eax,%edx
    3e5a:	c1 ea 10             	shr    $0x10,%edx
    3e5d:	01 c2                	add    %eax,%edx
    3e5f:	39 ce                	cmp    %ecx,%esi
    3e61:	75 d5                	jne    3e38 <tcp_pdu_encode+0x1c8>
    3e63:	8b 7b 2c             	mov    0x2c(%ebx),%edi
    3e66:	89 d0                	mov    %edx,%eax
    3e68:	89 7d 84             	mov    %edi,-0x7c(%ebp)
    3e6b:	8b 7b 34             	mov    0x34(%ebx),%edi
    3e6e:	83 f0 ff             	xor    $0xffffffff,%eax
    3e71:	89 7d 80             	mov    %edi,-0x80(%ebp)
    3e74:	8b 55 84             	mov    -0x7c(%ebp),%edx
    3e77:	8b 7b 28             	mov    0x28(%ebx),%edi
    3e7a:	83 f0 ff             	xor    $0xffffffff,%eax
    3e7d:	89 bd 7c ff ff ff    	mov    %edi,-0x84(%ebp)
    3e83:	d1 ea                	shr    %edx
    3e85:	74 37                	je     3ebe <tcp_pdu_encode+0x24e>
    3e87:	89 fe                	mov    %edi,%esi
    3e89:	89 c1                	mov    %eax,%ecx
    3e8b:	8d 3c 57             	lea    (%edi,%edx,2),%edi
    3e8e:	66 90                	xchg   %ax,%ax
    3e90:	31 d2                	xor    %edx,%edx
    3e92:	83 c6 02             	add    $0x2,%esi
    3e95:	8a 56 fe             	mov    -0x2(%esi),%dl
    3e98:	89 d0                	mov    %edx,%eax
    3e9a:	31 d2                	xor    %edx,%edx
    3e9c:	c1 e0 08             	shl    $0x8,%eax
    3e9f:	8a 56 ff             	mov    -0x1(%esi),%dl
    3ea2:	09 c2                	or     %eax,%edx
    3ea4:	31 c0                	xor    %eax,%eax
    3ea6:	81 e2 ff ff 00 00    	and    $0xffff,%edx
    3eac:	66 89 c8             	mov    %cx,%ax
    3eaf:	01 d0                	add    %edx,%eax
    3eb1:	89 c1                	mov    %eax,%ecx
    3eb3:	c1 e9 10             	shr    $0x10,%ecx
    3eb6:	01 c1                	add    %eax,%ecx
    3eb8:	39 f7                	cmp    %esi,%edi
    3eba:	75 d4                	jne    3e90 <tcp_pdu_encode+0x220>
    3ebc:	89 c8                	mov    %ecx,%eax
    3ebe:	8b 7d 84             	mov    -0x7c(%ebp),%edi
    3ec1:	f7 c7 01 00 00 00    	test   $0x1,%edi
    3ec7:	74 2e                	je     3ef7 <tcp_pdu_encode+0x287>
    3ec9:	89 fa                	mov    %edi,%edx
    3ecb:	8b b5 7c ff ff ff    	mov    -0x84(%ebp),%esi
    3ed1:	83 e2 fe             	and    $0xfffffffe,%edx
    3ed4:	25 ff ff 00 00       	and    $0xffff,%eax
    3ed9:	0f b6 3c 16          	movzbl (%esi,%edx,1),%edi
    3edd:	81 e7 ff 00 00 00    	and    $0xff,%edi
    3ee3:	89 fa                	mov    %edi,%edx
    3ee5:	c1 e2 08             	shl    $0x8,%edx
    3ee8:	81 e2 ff ff 00 00    	and    $0xffff,%edx
    3eee:	01 d0                	add    %edx,%eax
    3ef0:	89 c2                	mov    %eax,%edx
    3ef2:	c1 ea 10             	shr    $0x10,%edx
    3ef5:	01 d0                	add    %edx,%eax
    3ef7:	8b 55 80             	mov    -0x80(%ebp),%edx
    3efa:	8b 7b 30             	mov    0x30(%ebx),%edi
    3efd:	d1 ea                	shr    %edx
    3eff:	89 7d 84             	mov    %edi,-0x7c(%ebp)
    3f02:	74 3a                	je     3f3e <tcp_pdu_encode+0x2ce>
    3f04:	89 fe                	mov    %edi,%esi
    3f06:	89 c1                	mov    %eax,%ecx
    3f08:	8d 3c 57             	lea    (%edi,%edx,2),%edi
    3f0b:	90                   	nop
    3f0c:	8d 74 26 00          	lea    0x0(%esi,%eiz,1),%esi
    3f10:	31 d2                	xor    %edx,%edx
    3f12:	83 c6 02             	add    $0x2,%esi
    3f15:	8a 56 fe             	mov    -0x2(%esi),%dl
    3f18:	89 d0                	mov    %edx,%eax
    3f1a:	31 d2                	xor    %edx,%edx
    3f1c:	c1 e0 08             	shl    $0x8,%eax
    3f1f:	8a 56 ff             	mov    -0x1(%esi),%dl
    3f22:	09 c2                	or     %eax,%edx
    3f24:	31 c0                	xor    %eax,%eax
    3f26:	81 e2 ff ff 00 00    	and    $0xffff,%edx
    3f2c:	66 89 c8             	mov    %cx,%ax
    3f2f:	01 d0                	add    %edx,%eax
    3f31:	89 c1                	mov    %eax,%ecx
    3f33:	c1 e9 10             	shr    $0x10,%ecx
    3f36:	01 c1                	add    %eax,%ecx
    3f38:	39 f7                	cmp    %esi,%edi
    3f3a:	75 d4                	jne    3f10 <tcp_pdu_encode+0x2a0>
    3f3c:	89 c8                	mov    %ecx,%eax
    3f3e:	8b 7d 80             	mov    -0x80(%ebp),%edi
    3f41:	f7 c7 01 00 00 00    	test   $0x1,%edi
    3f47:	74 2b                	je     3f74 <tcp_pdu_encode+0x304>
    3f49:	89 fa                	mov    %edi,%edx
    3f4b:	8b 75 84             	mov    -0x7c(%ebp),%esi
    3f4e:	83 e2 fe             	and    $0xfffffffe,%edx
    3f51:	25 ff ff 00 00       	and    $0xffff,%eax
    3f56:	0f b6 3c 16          	movzbl (%esi,%edx,1),%edi
    3f5a:	81 e7 ff 00 00 00    	and    $0xff,%edi
    3f60:	89 fa                	mov    %edi,%edx
    3f62:	c1 e2 08             	shl    $0x8,%edx
    3f65:	81 e2 ff ff 00 00    	and    $0xffff,%edx
    3f6b:	01 d0                	add    %edx,%eax
    3f6d:	89 c2                	mov    %eax,%edx
    3f6f:	c1 ea 10             	shr    $0x10,%edx
    3f72:	01 d0                	add    %edx,%eax
    3f74:	8b bd 7c ff ff ff    	mov    -0x84(%ebp),%edi
    3f7a:	83 f0 ff             	xor    $0xffffffff,%eax
    3f7d:	66 c1 c0 08          	rol    $0x8,%ax
    3f81:	66 89 47 10          	mov    %ax,0x10(%edi)
    3f85:	8b 45 10             	mov    0x10(%ebp),%eax
    3f88:	89 18                	mov    %ebx,(%eax)
    3f8a:	8d 65 f4             	lea    -0xc(%ebp),%esp
    3f8d:	31 c0                	xor    %eax,%eax
    3f8f:	5b                   	pop    %ebx
    3f90:	5e                   	pop    %esi
    3f91:	5f                   	pop    %edi
    3f92:	5d                   	pop    %ebp
    3f93:	c3                   	ret    
    3f94:	8d 74 26 00          	lea    0x0(%esi,%eiz,1),%esi
    3f98:	be 14 50 00 00       	mov    $0x5014,%esi
    3f9d:	ba 10 50 00 00       	mov    $0x5010,%edx
    3fa2:	e9 7e fd ff ff       	jmp    3d25 <tcp_pdu_encode+0xb5>
    3fa7:	83 ec 0c             	sub    $0xc,%esp
    3faa:	53                   	push   %ebx
    3fab:	e8 a0 6a 00 00       	call   aa50 <free@plt>
    3fb0:	83 c4 10             	add    $0x10,%esp
    3fb3:	b8 fe ff ff ff       	mov    $0xfffffffe,%eax
    3fb8:	8d 65 f4             	lea    -0xc(%ebp),%esp
    3fbb:	5b                   	pop    %ebx
    3fbc:	5e                   	pop    %esi
    3fbd:	5f                   	pop    %edi
    3fbe:	5d                   	pop    %ebp
    3fbf:	c3                   	ret    
    3fc0:	50                   	push   %eax
    3fc1:	68 b2 00 00 00       	push   $0xb2
    3fc6:	68 08 92 00 00       	push   $0x9208
    3fcb:	68 d3 8b 00 00       	push   $0x8bd3
    3fd0:	e8 5b 68 00 00       	call   a830 <assert_abort@plt>
    3fd5:	8d 76 00             	lea    0x0(%esi),%esi
    3fd8:	8b 55 8c             	mov    -0x74(%ebp),%edx
    3fdb:	8b 7b 2c             	mov    0x2c(%ebx),%edi
    3fde:	0f ca                	bswap  %edx
    3fe0:	89 f9                	mov    %edi,%ecx
    3fe2:	89 7d 84             	mov    %edi,-0x7c(%ebp)
    3fe5:	89 d7                	mov    %edx,%edi
    3fe7:	8b 73 34             	mov    0x34(%ebx),%esi
    3fea:	c1 ef 08             	shr    $0x8,%edi
    3fed:	01 f1                	add    %esi,%ecx
    3fef:	81 e7 00 ff 00 00    	and    $0xff00,%edi
    3ff5:	89 55 94             	mov    %edx,-0x6c(%ebp)
    3ff8:	89 75 80             	mov    %esi,-0x80(%ebp)
    3ffb:	89 d6                	mov    %edx,%esi
    3ffd:	c1 ea 18             	shr    $0x18,%edx
    4000:	8b 45 90             	mov    -0x70(%ebp),%eax
    4003:	66 c1 c6 08          	rol    $0x8,%si
    4007:	09 fa                	or     %edi,%edx
    4009:	81 e6 ff ff 00 00    	and    $0xffff,%esi
    400f:	81 e2 ff ff 00 00    	and    $0xffff,%edx
    4015:	01 d6                	add    %edx,%esi
    4017:	89 f2                	mov    %esi,%edx
    4019:	c1 ea 10             	shr    $0x10,%edx
    401c:	0f c8                	bswap  %eax
    401e:	01 d6                	add    %edx,%esi
    4020:	31 d2                	xor    %edx,%edx
    4022:	66 89 f2             	mov    %si,%dx
    4025:	89 c6                	mov    %eax,%esi
    4027:	66 c1 c6 08          	rol    $0x8,%si
    402b:	81 e6 ff ff 00 00    	and    $0xffff,%esi
    4031:	89 45 98             	mov    %eax,-0x68(%ebp)
    4034:	01 d6                	add    %edx,%esi
    4036:	89 f2                	mov    %esi,%edx
    4038:	c1 ea 10             	shr    $0x10,%edx
    403b:	01 f2                	add    %esi,%edx
    403d:	89 c6                	mov    %eax,%esi
    403f:	c1 ee 08             	shr    $0x8,%esi
    4042:	81 e2 ff ff 00 00    	and    $0xffff,%edx
    4048:	c1 e8 18             	shr    $0x18,%eax
    404b:	81 e6 00 ff 00 00    	and    $0xff00,%esi
    4051:	09 f0                	or     %esi,%eax
    4053:	25 ff ff 00 00       	and    $0xffff,%eax
    4058:	01 c2                	add    %eax,%edx
    405a:	89 d0                	mov    %edx,%eax
    405c:	c1 e8 10             	shr    $0x10,%eax
    405f:	01 d0                	add    %edx,%eax
    4061:	25 ff ff 00 00       	and    $0xffff,%eax
    4066:	83 c0 06             	add    $0x6,%eax
    4069:	89 c6                	mov    %eax,%esi
    406b:	c1 ee 10             	shr    $0x10,%esi
    406e:	01 f0                	add    %esi,%eax
    4070:	31 f6                	xor    %esi,%esi
    4072:	66 c1 c1 08          	rol    $0x8,%cx
    4076:	66 89 c6             	mov    %ax,%si
    4079:	66 89 4d 9e          	mov    %cx,-0x62(%ebp)
    407d:	66 c1 c1 08          	rol    $0x8,%cx
    4081:	31 c0                	xor    %eax,%eax
    4083:	66 89 c8             	mov    %cx,%ax
    4086:	8d 14 30             	lea    (%eax,%esi,1),%edx
    4089:	89 d0                	mov    %edx,%eax
    408b:	c1 e8 10             	shr    $0x10,%eax
    408e:	01 d0                	add    %edx,%eax
    4090:	83 f0 ff             	xor    $0xffffffff,%eax
    4093:	e9 dc fd ff ff       	jmp    3e74 <tcp_pdu_encode+0x204>
    4098:	83 ec 0c             	sub    $0xc,%esp
    409b:	8b 73 28             	mov    0x28(%ebx),%esi
    409e:	56                   	push   %esi
    409f:	e8 ac 69 00 00       	call   aa50 <free@plt>
    40a4:	89 1c 24             	mov    %ebx,(%esp)
    40a7:	e8 a4 69 00 00       	call   aa50 <free@plt>
    40ac:	83 c4 10             	add    $0x10,%esp
    40af:	b8 fe ff ff ff       	mov    $0xfffffffe,%eax
    40b4:	e9 ff fe ff ff       	jmp    3fb8 <tcp_pdu_encode+0x348>
    40b9:	53                   	push   %ebx
    40ba:	68 9e 00 00 00       	push   $0x9e
    40bf:	68 08 92 00 00       	push   $0x9208
    40c4:	68 0e 92 00 00       	push   $0x920e
    40c9:	e8 62 67 00 00       	call   a830 <assert_abort@plt>
    40ce:	66 90                	xchg   %ax,%ax

000040d0 <tcp_rqueue_fibril>:
    40d0:	55                   	push   %ebp
    40d1:	89 e5                	mov    %esp,%ebp
    40d3:	53                   	push   %ebx
    40d4:	83 ec 08             	sub    $0x8,%esp
    40d7:	68 22 92 00 00       	push   $0x9222
    40dc:	6a 04                	push   $0x4
    40de:	6a ff                	push   $0xffffffff
    40e0:	e8 eb 66 00 00       	call   a7d0 <log_msg@plt>
    40e5:	83 c4 10             	add    $0x10,%esp
    40e8:	83 ec 0c             	sub    $0xc,%esp
    40eb:	68 40 c6 00 00       	push   $0xc640
    40f0:	e8 eb 67 00 00       	call   a8e0 <prodcons_consume@plt>
    40f5:	89 c3                	mov    %eax,%ebx
    40f7:	58                   	pop    %eax
    40f8:	5a                   	pop    %edx
    40f9:	8b 4b 3c             	mov    0x3c(%ebx),%ecx
    40fc:	8d 43 08             	lea    0x8(%ebx),%eax
    40ff:	51                   	push   %ecx
    4100:	50                   	push   %eax
    4101:	e8 9a 35 00 00       	call   76a0 <tcp_as_segment_arrived>
    4106:	89 1c 24             	mov    %ebx,(%esp)
    4109:	e8 42 69 00 00       	call   aa50 <free@plt>
    410e:	83 c4 10             	add    $0x10,%esp
    4111:	eb d5                	jmp    40e8 <tcp_rqueue_fibril+0x18>
    4113:	8d b6 00 00 00 00    	lea    0x0(%esi),%esi
    4119:	8d bc 27 00 00 00 00 	lea    0x0(%edi,%eiz,1),%edi

00004120 <tcp_rqueue_init>:
    4120:	55                   	push   %ebp
    4121:	89 e5                	mov    %esp,%ebp
    4123:	83 ec 14             	sub    $0x14,%esp
    4126:	68 40 c6 00 00       	push   $0xc640
    412b:	e8 90 67 00 00       	call   a8c0 <prodcons_initialize@plt>
    4130:	83 c4 10             	add    $0x10,%esp
    4133:	c9                   	leave  
    4134:	c3                   	ret    
    4135:	8d 74 26 00          	lea    0x0(%esi,%eiz,1),%esi
    4139:	8d bc 27 00 00 00 00 	lea    0x0(%edi,%eiz,1),%edi

00004140 <tcp_rqueue_bounce_seg>:
    4140:	55                   	push   %ebp
    4141:	89 e5                	mov    %esp,%ebp
    4143:	57                   	push   %edi
    4144:	56                   	push   %esi
    4145:	53                   	push   %ebx
    4146:	83 ec 50             	sub    $0x50,%esp
    4149:	68 36 92 00 00       	push   $0x9236
    414e:	6a 04                	push   $0x4
    4150:	6a ff                	push   $0xffffffff
    4152:	e8 79 66 00 00       	call   a7d0 <log_msg@plt>
    4157:	83 c4 0c             	add    $0xc,%esp
    415a:	8d 45 ac             	lea    -0x54(%ebp),%eax
    415d:	50                   	push   %eax
    415e:	8b 45 0c             	mov    0xc(%ebp),%eax
    4161:	50                   	push   %eax
    4162:	8b 45 08             	mov    0x8(%ebp),%eax
    4165:	50                   	push   %eax
    4166:	e8 05 fb ff ff       	call   3c70 <tcp_pdu_encode>
    416b:	83 c4 10             	add    $0x10,%esp
    416e:	85 c0                	test   %eax,%eax
    4170:	75 19                	jne    418b <tcp_rqueue_bounce_seg+0x4b>
    4172:	50                   	push   %eax
    4173:	8d 45 b0             	lea    -0x50(%ebp),%eax
    4176:	50                   	push   %eax
    4177:	8d 75 b4             	lea    -0x4c(%ebp),%esi
    417a:	8b 45 ac             	mov    -0x54(%ebp),%eax
    417d:	56                   	push   %esi
    417e:	50                   	push   %eax
    417f:	e8 ac f9 ff ff       	call   3b30 <tcp_pdu_decode>
    4184:	83 c4 10             	add    $0x10,%esp
    4187:	85 c0                	test   %eax,%eax
    4189:	74 1d                	je     41a8 <tcp_rqueue_bounce_seg+0x68>
    418b:	50                   	push   %eax
    418c:	68 98 92 00 00       	push   $0x9298
    4191:	6a 02                	push   $0x2
    4193:	6a ff                	push   $0xffffffff
    4195:	e8 36 66 00 00       	call   a7d0 <log_msg@plt>
    419a:	83 c4 10             	add    $0x10,%esp
    419d:	8d 65 f4             	lea    -0xc(%ebp),%esp
    41a0:	5b                   	pop    %ebx
    41a1:	5e                   	pop    %esi
    41a2:	5f                   	pop    %edi
    41a3:	5d                   	pop    %ebp
    41a4:	c3                   	ret    
    41a5:	8d 76 00             	lea    0x0(%esi),%esi
    41a8:	83 ec 0c             	sub    $0xc,%esp
    41ab:	8b 5d ac             	mov    -0x54(%ebp),%ebx
    41ae:	53                   	push   %ebx
    41af:	e8 4c f9 ff ff       	call   3b00 <tcp_pdu_delete>
    41b4:	83 c4 0c             	add    $0xc,%esp
    41b7:	8b 5d b0             	mov    -0x50(%ebp),%ebx
    41ba:	68 4e 92 00 00       	push   $0x924e
    41bf:	6a 04                	push   $0x4
    41c1:	6a ff                	push   $0xffffffff
    41c3:	e8 08 66 00 00       	call   a7d0 <log_msg@plt>
    41c8:	89 1c 24             	mov    %ebx,(%esp)
    41cb:	e8 d0 04 00 00       	call   46a0 <tcp_segment_dump>
    41d0:	5f                   	pop    %edi
    41d1:	58                   	pop    %eax
    41d2:	6a 40                	push   $0x40
    41d4:	6a 01                	push   $0x1
    41d6:	e8 65 66 00 00       	call   a840 <calloc@plt>
    41db:	83 c4 10             	add    $0x10,%esp
    41de:	85 c0                	test   %eax,%eax
    41e0:	74 36                	je     4218 <tcp_rqueue_bounce_seg+0xd8>
    41e2:	8d 78 08             	lea    0x8(%eax),%edi
    41e5:	b9 0d 00 00 00       	mov    $0xd,%ecx
    41ea:	f3 a5                	rep movsl %ds:(%esi),%es:(%edi)
    41ec:	89 58 3c             	mov    %ebx,0x3c(%eax)
    41ef:	52                   	push   %edx
    41f0:	52                   	push   %edx
    41f1:	50                   	push   %eax
    41f2:	68 40 c6 00 00       	push   $0xc640
    41f7:	e8 94 67 00 00       	call   a990 <prodcons_produce@plt>
    41fc:	83 c4 10             	add    $0x10,%esp
    41ff:	83 ec 0c             	sub    $0xc,%esp
    4202:	8b 45 0c             	mov    0xc(%ebp),%eax
    4205:	50                   	push   %eax
    4206:	e8 25 01 00 00       	call   4330 <tcp_segment_delete>
    420b:	83 c4 10             	add    $0x10,%esp
    420e:	8d 65 f4             	lea    -0xc(%ebp),%esp
    4211:	5b                   	pop    %ebx
    4212:	5e                   	pop    %esi
    4213:	5f                   	pop    %edi
    4214:	5d                   	pop    %ebp
    4215:	c3                   	ret    
    4216:	66 90                	xchg   %ax,%ax
    4218:	51                   	push   %ecx
    4219:	68 66 92 00 00       	push   $0x9266
    421e:	6a 01                	push   $0x1
    4220:	6a ff                	push   $0xffffffff
    4222:	e8 a9 65 00 00       	call   a7d0 <log_msg@plt>
    4227:	83 c4 10             	add    $0x10,%esp
    422a:	eb d3                	jmp    41ff <tcp_rqueue_bounce_seg+0xbf>
    422c:	8d 74 26 00          	lea    0x0(%esi,%eiz,1),%esi

00004230 <tcp_rqueue_insert_seg>:
    4230:	55                   	push   %ebp
    4231:	89 e5                	mov    %esp,%ebp
    4233:	57                   	push   %edi
    4234:	56                   	push   %esi
    4235:	53                   	push   %ebx
    4236:	83 ec 10             	sub    $0x10,%esp
    4239:	8b 5d 0c             	mov    0xc(%ebp),%ebx
    423c:	8b 75 08             	mov    0x8(%ebp),%esi
    423f:	68 4e 92 00 00       	push   $0x924e
    4244:	6a 04                	push   $0x4
    4246:	6a ff                	push   $0xffffffff
    4248:	e8 83 65 00 00       	call   a7d0 <log_msg@plt>
    424d:	89 1c 24             	mov    %ebx,(%esp)
    4250:	e8 4b 04 00 00       	call   46a0 <tcp_segment_dump>
    4255:	5a                   	pop    %edx
    4256:	59                   	pop    %ecx
    4257:	6a 40                	push   $0x40
    4259:	6a 01                	push   $0x1
    425b:	e8 e0 65 00 00       	call   a840 <calloc@plt>
    4260:	83 c4 10             	add    $0x10,%esp
    4263:	85 c0                	test   %eax,%eax
    4265:	74 29                	je     4290 <tcp_rqueue_insert_seg+0x60>
    4267:	8d 78 08             	lea    0x8(%eax),%edi
    426a:	b9 0d 00 00 00       	mov    $0xd,%ecx
    426f:	f3 a5                	rep movsl %ds:(%esi),%es:(%edi)
    4271:	89 58 3c             	mov    %ebx,0x3c(%eax)
    4274:	89 45 0c             	mov    %eax,0xc(%ebp)
    4277:	c7 45 08 40 c6 00 00 	movl   $0xc640,0x8(%ebp)
    427e:	8d 65 f4             	lea    -0xc(%ebp),%esp
    4281:	5b                   	pop    %ebx
    4282:	5e                   	pop    %esi
    4283:	5f                   	pop    %edi
    4284:	5d                   	pop    %ebp
    4285:	e9 06 67 00 00       	jmp    a990 <prodcons_produce@plt>
    428a:	8d b6 00 00 00 00    	lea    0x0(%esi),%esi
    4290:	50                   	push   %eax
    4291:	68 66 92 00 00       	push   $0x9266
    4296:	6a 01                	push   $0x1
    4298:	6a ff                	push   $0xffffffff
    429a:	e8 31 65 00 00       	call   a7d0 <log_msg@plt>
    429f:	83 c4 10             	add    $0x10,%esp
    42a2:	8d 65 f4             	lea    -0xc(%ebp),%esp
    42a5:	5b                   	pop    %ebx
    42a6:	5e                   	pop    %esi
    42a7:	5f                   	pop    %edi
    42a8:	5d                   	pop    %ebp
    42a9:	c3                   	ret    
    42aa:	8d b6 00 00 00 00    	lea    0x0(%esi),%esi

000042b0 <tcp_rqueue_fibril_start>:
    42b0:	55                   	push   %ebp
    42b1:	89 e5                	mov    %esp,%ebp
    42b3:	83 ec 0c             	sub    $0xc,%esp
    42b6:	68 7d 92 00 00       	push   $0x927d
    42bb:	6a 04                	push   $0x4
    42bd:	6a ff                	push   $0xffffffff
    42bf:	e8 0c 65 00 00       	call   a7d0 <log_msg@plt>
    42c4:	83 c4 0c             	add    $0xc,%esp
    42c7:	6a 00                	push   $0x0
    42c9:	6a 00                	push   $0x0
    42cb:	68 d0 40 00 00       	push   $0x40d0
    42d0:	e8 db 66 00 00       	call   a9b0 <fibril_create_generic@plt>
    42d5:	83 c4 10             	add    $0x10,%esp
    42d8:	85 c0                	test   %eax,%eax
    42da:	74 14                	je     42f0 <tcp_rqueue_fibril_start+0x40>
    42dc:	83 ec 0c             	sub    $0xc,%esp
    42df:	50                   	push   %eax
    42e0:	e8 db 66 00 00       	call   a9c0 <fibril_add_ready@plt>
    42e5:	83 c4 10             	add    $0x10,%esp
    42e8:	c9                   	leave  
    42e9:	c3                   	ret    
    42ea:	8d b6 00 00 00 00    	lea    0x0(%esi),%esi
    42f0:	50                   	push   %eax
    42f1:	68 bc 92 00 00       	push   $0x92bc
    42f6:	6a 01                	push   $0x1
    42f8:	6a ff                	push   $0xffffffff
    42fa:	e8 d1 64 00 00       	call   a7d0 <log_msg@plt>
    42ff:	83 c4 10             	add    $0x10,%esp
    4302:	c9                   	leave  
    4303:	c3                   	ret    
    4304:	66 90                	xchg   %ax,%ax
    4306:	66 90                	xchg   %ax,%ax
    4308:	66 90                	xchg   %ax,%ax
    430a:	66 90                	xchg   %ax,%ax
    430c:	66 90                	xchg   %ax,%ax
    430e:	66 90                	xchg   %ax,%ax

00004310 <tcp_segment_new>:
    4310:	55                   	push   %ebp
    4311:	89 e5                	mov    %esp,%ebp
    4313:	83 ec 10             	sub    $0x10,%esp
    4316:	6a 20                	push   $0x20
    4318:	6a 01                	push   $0x1
    431a:	e8 21 65 00 00       	call   a840 <calloc@plt>
    431f:	c9                   	leave  
    4320:	c3                   	ret    
    4321:	eb 0d                	jmp    4330 <tcp_segment_delete>
    4323:	90                   	nop
    4324:	90                   	nop
    4325:	90                   	nop
    4326:	90                   	nop
    4327:	90                   	nop
    4328:	90                   	nop
    4329:	90                   	nop
    432a:	90                   	nop
    432b:	90                   	nop
    432c:	90                   	nop
    432d:	90                   	nop
    432e:	90                   	nop
    432f:	90                   	nop

00004330 <tcp_segment_delete>:
    4330:	55                   	push   %ebp
    4331:	89 e5                	mov    %esp,%ebp
    4333:	53                   	push   %ebx
    4334:	83 ec 10             	sub    $0x10,%esp
    4337:	8b 5d 08             	mov    0x8(%ebp),%ebx
    433a:	8b 43 1c             	mov    0x1c(%ebx),%eax
    433d:	50                   	push   %eax
    433e:	e8 0d 67 00 00       	call   aa50 <free@plt>
    4343:	89 5d 08             	mov    %ebx,0x8(%ebp)
    4346:	83 c4 10             	add    $0x10,%esp
    4349:	8b 5d fc             	mov    -0x4(%ebp),%ebx
    434c:	c9                   	leave  
    434d:	e9 fe 66 00 00       	jmp    aa50 <free@plt>
    4352:	8d b4 26 00 00 00 00 	lea    0x0(%esi,%eiz,1),%esi
    4359:	8d bc 27 00 00 00 00 	lea    0x0(%edi,%eiz,1),%edi

00004360 <tcp_segment_dup>:
    4360:	55                   	push   %ebp
    4361:	89 e5                	mov    %esp,%ebp
    4363:	57                   	push   %edi
    4364:	56                   	push   %esi
    4365:	53                   	push   %ebx
    4366:	83 ec 14             	sub    $0x14,%esp
    4369:	8b 75 08             	mov    0x8(%ebp),%esi
    436c:	6a 20                	push   $0x20
    436e:	6a 01                	push   $0x1
    4370:	e8 cb 64 00 00       	call   a840 <calloc@plt>
    4375:	83 c4 10             	add    $0x10,%esp
    4378:	89 c3                	mov    %eax,%ebx
    437a:	85 c0                	test   %eax,%eax
    437c:	74 56                	je     43d4 <tcp_segment_dup+0x74>
    437e:	8b 56 04             	mov    0x4(%esi),%edx
    4381:	83 ec 0c             	sub    $0xc,%esp
    4384:	89 53 04             	mov    %edx,0x4(%ebx)
    4387:	8b 56 08             	mov    0x8(%esi),%edx
    438a:	89 53 08             	mov    %edx,0x8(%ebx)
    438d:	8b 56 10             	mov    0x10(%esi),%edx
    4390:	8b 7e 0c             	mov    0xc(%esi),%edi
    4393:	8b 06                	mov    (%esi),%eax
    4395:	89 53 10             	mov    %edx,0x10(%ebx)
    4398:	8b 56 14             	mov    0x14(%esi),%edx
    439b:	89 7b 0c             	mov    %edi,0xc(%ebx)
    439e:	89 53 14             	mov    %edx,0x14(%ebx)
    43a1:	89 03                	mov    %eax,(%ebx)
    43a3:	50                   	push   %eax
    43a4:	e8 b7 19 00 00       	call   5d60 <seq_no_control_len>
    43a9:	29 c7                	sub    %eax,%edi
    43ab:	58                   	pop    %eax
    43ac:	5a                   	pop    %edx
    43ad:	6a 01                	push   $0x1
    43af:	57                   	push   %edi
    43b0:	e8 8b 64 00 00       	call   a840 <calloc@plt>
    43b5:	83 c4 10             	add    $0x10,%esp
    43b8:	89 43 18             	mov    %eax,0x18(%ebx)
    43bb:	85 c0                	test   %eax,%eax
    43bd:	74 21                	je     43e0 <tcp_segment_dup+0x80>
    43bf:	52                   	push   %edx
    43c0:	57                   	push   %edi
    43c1:	8b 4e 18             	mov    0x18(%esi),%ecx
    43c4:	51                   	push   %ecx
    43c5:	50                   	push   %eax
    43c6:	e8 a5 63 00 00       	call   a770 <memcpy@plt>
    43cb:	8b 43 18             	mov    0x18(%ebx),%eax
    43ce:	89 43 1c             	mov    %eax,0x1c(%ebx)
    43d1:	83 c4 10             	add    $0x10,%esp
    43d4:	8d 65 f4             	lea    -0xc(%ebp),%esp
    43d7:	89 d8                	mov    %ebx,%eax
    43d9:	5b                   	pop    %ebx
    43da:	5e                   	pop    %esi
    43db:	5f                   	pop    %edi
    43dc:	5d                   	pop    %ebp
    43dd:	c3                   	ret    
    43de:	66 90                	xchg   %ax,%ax
    43e0:	83 ec 0c             	sub    $0xc,%esp
    43e3:	53                   	push   %ebx
    43e4:	31 db                	xor    %ebx,%ebx
    43e6:	e8 65 66 00 00       	call   aa50 <free@plt>
    43eb:	83 c4 10             	add    $0x10,%esp
    43ee:	eb e4                	jmp    43d4 <tcp_segment_dup+0x74>

000043f0 <tcp_segment_make_ctrl>:
    43f0:	55                   	push   %ebp
    43f1:	89 e5                	mov    %esp,%ebp
    43f3:	56                   	push   %esi
    43f4:	53                   	push   %ebx
    43f5:	50                   	push   %eax
    43f6:	8b 75 08             	mov    0x8(%ebp),%esi
    43f9:	50                   	push   %eax
    43fa:	6a 20                	push   $0x20
    43fc:	6a 01                	push   $0x1
    43fe:	e8 3d 64 00 00       	call   a840 <calloc@plt>
    4403:	83 c4 10             	add    $0x10,%esp
    4406:	89 c3                	mov    %eax,%ebx
    4408:	85 c0                	test   %eax,%eax
    440a:	74 11                	je     441d <tcp_segment_make_ctrl+0x2d>
    440c:	83 ec 0c             	sub    $0xc,%esp
    440f:	89 30                	mov    %esi,(%eax)
    4411:	56                   	push   %esi
    4412:	e8 49 19 00 00       	call   5d60 <seq_no_control_len>
    4417:	83 c4 10             	add    $0x10,%esp
    441a:	89 43 0c             	mov    %eax,0xc(%ebx)
    441d:	8d 65 f8             	lea    -0x8(%ebp),%esp
    4420:	89 d8                	mov    %ebx,%eax
    4422:	5b                   	pop    %ebx
    4423:	5e                   	pop    %esi
    4424:	5d                   	pop    %ebp
    4425:	c3                   	ret    
    4426:	8d 76 00             	lea    0x0(%esi),%esi
    4429:	8d bc 27 00 00 00 00 	lea    0x0(%edi,%eiz,1),%edi

00004430 <tcp_segment_make_rst>:
    4430:	55                   	push   %ebp
    4431:	89 e5                	mov    %esp,%ebp
    4433:	53                   	push   %ebx
    4434:	83 ec 0c             	sub    $0xc,%esp
    4437:	8b 5d 08             	mov    0x8(%ebp),%ebx
    443a:	6a 20                	push   $0x20
    443c:	6a 01                	push   $0x1
    443e:	e8 fd 63 00 00       	call   a840 <calloc@plt>
    4443:	83 c4 10             	add    $0x10,%esp
    4446:	85 c0                	test   %eax,%eax
    4448:	74 11                	je     445b <tcp_segment_make_rst+0x2b>
    444a:	f6 03 08             	testb  $0x8,(%ebx)
    444d:	74 11                	je     4460 <tcp_segment_make_rst+0x30>
    444f:	8b 53 08             	mov    0x8(%ebx),%edx
    4452:	c7 00 04 00 00 00    	movl   $0x4,(%eax)
    4458:	89 50 04             	mov    %edx,0x4(%eax)
    445b:	8b 5d fc             	mov    -0x4(%ebp),%ebx
    445e:	c9                   	leave  
    445f:	c3                   	ret    
    4460:	8b 53 0c             	mov    0xc(%ebx),%edx
    4463:	8b 4b 04             	mov    0x4(%ebx),%ecx
    4466:	01 ca                	add    %ecx,%edx
    4468:	c7 00 0c 00 00 00    	movl   $0xc,(%eax)
    446e:	c7 40 04 00 00 00 00 	movl   $0x0,0x4(%eax)
    4475:	89 50 08             	mov    %edx,0x8(%eax)
    4478:	8b 5d fc             	mov    -0x4(%ebp),%ebx
    447b:	c9                   	leave  
    447c:	c3                   	ret    
    447d:	8d 76 00             	lea    0x0(%esi),%esi

00004480 <tcp_segment_make_data>:
    4480:	55                   	push   %ebp
    4481:	89 e5                	mov    %esp,%ebp
    4483:	57                   	push   %edi
    4484:	56                   	push   %esi
    4485:	53                   	push   %ebx
    4486:	83 ec 14             	sub    $0x14,%esp
    4489:	8b 7d 08             	mov    0x8(%ebp),%edi
    448c:	8b 75 10             	mov    0x10(%ebp),%esi
    448f:	6a 20                	push   $0x20
    4491:	6a 01                	push   $0x1
    4493:	e8 a8 63 00 00       	call   a840 <calloc@plt>
    4498:	83 c4 10             	add    $0x10,%esp
    449b:	89 c3                	mov    %eax,%ebx
    449d:	85 c0                	test   %eax,%eax
    449f:	74 34                	je     44d5 <tcp_segment_make_data+0x55>
    44a1:	83 ec 0c             	sub    $0xc,%esp
    44a4:	89 38                	mov    %edi,(%eax)
    44a6:	57                   	push   %edi
    44a7:	e8 b4 18 00 00       	call   5d60 <seq_no_control_len>
    44ac:	01 f0                	add    %esi,%eax
    44ae:	89 43 0c             	mov    %eax,0xc(%ebx)
    44b1:	89 34 24             	mov    %esi,(%esp)
    44b4:	e8 c7 62 00 00       	call   a780 <malloc@plt>
    44b9:	83 c4 10             	add    $0x10,%esp
    44bc:	89 43 18             	mov    %eax,0x18(%ebx)
    44bf:	89 43 1c             	mov    %eax,0x1c(%ebx)
    44c2:	85 c0                	test   %eax,%eax
    44c4:	74 1a                	je     44e0 <tcp_segment_make_data+0x60>
    44c6:	8b 4d 0c             	mov    0xc(%ebp),%ecx
    44c9:	52                   	push   %edx
    44ca:	56                   	push   %esi
    44cb:	51                   	push   %ecx
    44cc:	50                   	push   %eax
    44cd:	e8 9e 62 00 00       	call   a770 <memcpy@plt>
    44d2:	83 c4 10             	add    $0x10,%esp
    44d5:	8d 65 f4             	lea    -0xc(%ebp),%esp
    44d8:	89 d8                	mov    %ebx,%eax
    44da:	5b                   	pop    %ebx
    44db:	5e                   	pop    %esi
    44dc:	5f                   	pop    %edi
    44dd:	5d                   	pop    %ebp
    44de:	c3                   	ret    
    44df:	90                   	nop
    44e0:	83 ec 0c             	sub    $0xc,%esp
    44e3:	53                   	push   %ebx
    44e4:	31 db                	xor    %ebx,%ebx
    44e6:	e8 65 65 00 00       	call   aa50 <free@plt>
    44eb:	83 c4 10             	add    $0x10,%esp
    44ee:	eb e5                	jmp    44d5 <tcp_segment_make_data+0x55>

000044f0 <tcp_segment_trim>:
    44f0:	55                   	push   %ebp
    44f1:	89 e5                	mov    %esp,%ebp
    44f3:	57                   	push   %edi
    44f4:	56                   	push   %esi
    44f5:	53                   	push   %ebx
    44f6:	83 ec 1c             	sub    $0x1c,%esp
    44f9:	8b 5d 08             	mov    0x8(%ebp),%ebx
    44fc:	8b 7d 0c             	mov    0xc(%ebp),%edi
    44ff:	8b 55 10             	mov    0x10(%ebp),%edx
    4502:	8b 73 0c             	mov    0xc(%ebx),%esi
    4505:	01 fa                	add    %edi,%edx
    4507:	39 f2                	cmp    %esi,%edx
    4509:	0f 87 d8 00 00 00    	ja     45e7 <tcp_segment_trim+0xf7>
    450f:	39 f7                	cmp    %esi,%edi
    4511:	0f 84 b9 00 00 00    	je     45d0 <tcp_segment_trim+0xe0>
    4517:	39 75 10             	cmp    %esi,0x10(%ebp)
    451a:	74 4c                	je     4568 <tcp_segment_trim+0x78>
    451c:	83 ec 0c             	sub    $0xc,%esp
    451f:	8b 0b                	mov    (%ebx),%ecx
    4521:	89 55 e4             	mov    %edx,-0x1c(%ebp)
    4524:	51                   	push   %ecx
    4525:	e8 36 18 00 00       	call   5d60 <seq_no_control_len>
    452a:	83 c4 10             	add    $0x10,%esp
    452d:	8b 55 e4             	mov    -0x1c(%ebp),%edx
    4530:	85 ff                	test   %edi,%edi
    4532:	74 44                	je     4578 <tcp_segment_trim+0x88>
    4534:	8b 0b                	mov    (%ebx),%ecx
    4536:	f6 c1 01             	test   $0x1,%cl
    4539:	0f 84 89 00 00 00    	je     45c8 <tcp_segment_trim+0xd8>
    453f:	8b 53 04             	mov    0x4(%ebx),%edx
    4542:	83 e1 fe             	and    $0xfffffffe,%ecx
    4545:	42                   	inc    %edx
    4546:	4f                   	dec    %edi
    4547:	89 53 04             	mov    %edx,0x4(%ebx)
    454a:	8b 53 0c             	mov    0xc(%ebx),%edx
    454d:	4a                   	dec    %edx
    454e:	89 0b                	mov    %ecx,(%ebx)
    4550:	89 53 0c             	mov    %edx,0xc(%ebx)
    4553:	8b 55 10             	mov    0x10(%ebp),%edx
    4556:	85 d2                	test   %edx,%edx
    4558:	74 3f                	je     4599 <tcp_segment_trim+0xa9>
    455a:	f6 c1 02             	test   $0x2,%cl
    455d:	74 3a                	je     4599 <tcp_segment_trim+0xa9>
    455f:	eb 25                	jmp    4586 <tcp_segment_trim+0x96>
    4561:	8d b4 26 00 00 00 00 	lea    0x0(%esi,%eiz,1),%esi
    4568:	c7 43 0c 00 00 00 00 	movl   $0x0,0xc(%ebx)
    456f:	8d 65 f4             	lea    -0xc(%ebp),%esp
    4572:	5b                   	pop    %ebx
    4573:	5e                   	pop    %esi
    4574:	5f                   	pop    %edi
    4575:	5d                   	pop    %ebp
    4576:	c3                   	ret    
    4577:	90                   	nop
    4578:	8b 4d 10             	mov    0x10(%ebp),%ecx
    457b:	85 c9                	test   %ecx,%ecx
    457d:	74 f0                	je     456f <tcp_segment_trim+0x7f>
    457f:	8b 0b                	mov    (%ebx),%ecx
    4581:	f6 c1 02             	test   $0x2,%cl
    4584:	74 20                	je     45a6 <tcp_segment_trim+0xb6>
    4586:	83 e1 fd             	and    $0xfffffffd,%ecx
    4589:	8b 53 0c             	mov    0xc(%ebx),%edx
    458c:	89 0b                	mov    %ecx,(%ebx)
    458e:	8b 4d 10             	mov    0x10(%ebp),%ecx
    4591:	4a                   	dec    %edx
    4592:	49                   	dec    %ecx
    4593:	89 53 0c             	mov    %edx,0xc(%ebx)
    4596:	89 4d 10             	mov    %ecx,0x10(%ebp)
    4599:	8b 4d 10             	mov    0x10(%ebp),%ecx
    459c:	8d 14 0f             	lea    (%edi,%ecx,1),%edx
    459f:	89 f9                	mov    %edi,%ecx
    45a1:	0b 4d 10             	or     0x10(%ebp),%ecx
    45a4:	74 c9                	je     456f <tcp_segment_trim+0x7f>
    45a6:	29 c6                	sub    %eax,%esi
    45a8:	39 f2                	cmp    %esi,%edx
    45aa:	77 50                	ja     45fc <tcp_segment_trim+0x10c>
    45ac:	8b 43 18             	mov    0x18(%ebx),%eax
    45af:	8b 4b 0c             	mov    0xc(%ebx),%ecx
    45b2:	01 f8                	add    %edi,%eax
    45b4:	29 d1                	sub    %edx,%ecx
    45b6:	89 43 18             	mov    %eax,0x18(%ebx)
    45b9:	89 4b 0c             	mov    %ecx,0xc(%ebx)
    45bc:	8d 65 f4             	lea    -0xc(%ebp),%esp
    45bf:	5b                   	pop    %ebx
    45c0:	5e                   	pop    %esi
    45c1:	5f                   	pop    %edi
    45c2:	5d                   	pop    %ebp
    45c3:	c3                   	ret    
    45c4:	8d 74 26 00          	lea    0x0(%esi,%eiz,1),%esi
    45c8:	83 7d 10 00          	cmpl   $0x0,0x10(%ebp)
    45cc:	74 d8                	je     45a6 <tcp_segment_trim+0xb6>
    45ce:	eb 8a                	jmp    455a <tcp_segment_trim+0x6a>
    45d0:	8b 73 04             	mov    0x4(%ebx),%esi
    45d3:	c7 43 0c 00 00 00 00 	movl   $0x0,0xc(%ebx)
    45da:	01 fe                	add    %edi,%esi
    45dc:	89 73 04             	mov    %esi,0x4(%ebx)
    45df:	8d 65 f4             	lea    -0xc(%ebp),%esp
    45e2:	5b                   	pop    %ebx
    45e3:	5e                   	pop    %esi
    45e4:	5f                   	pop    %edi
    45e5:	5d                   	pop    %ebp
    45e6:	c3                   	ret    
    45e7:	57                   	push   %edi
    45e8:	68 b0 00 00 00       	push   $0xb0
    45ed:	68 db 92 00 00       	push   $0x92db
    45f2:	68 e5 92 00 00       	push   $0x92e5
    45f7:	e8 34 62 00 00       	call   a830 <assert_abort@plt>
    45fc:	53                   	push   %ebx
    45fd:	68 d4 00 00 00       	push   $0xd4
    4602:	68 db 92 00 00       	push   $0x92db
    4607:	68 fe 92 00 00       	push   $0x92fe
    460c:	e8 1f 62 00 00       	call   a830 <assert_abort@plt>
    4611:	eb 0d                	jmp    4620 <tcp_segment_text_copy>
    4613:	90                   	nop
    4614:	90                   	nop
    4615:	90                   	nop
    4616:	90                   	nop
    4617:	90                   	nop
    4618:	90                   	nop
    4619:	90                   	nop
    461a:	90                   	nop
    461b:	90                   	nop
    461c:	90                   	nop
    461d:	90                   	nop
    461e:	90                   	nop
    461f:	90                   	nop

00004620 <tcp_segment_text_copy>:
    4620:	55                   	push   %ebp
    4621:	89 e5                	mov    %esp,%ebp
    4623:	57                   	push   %edi
    4624:	56                   	push   %esi
    4625:	53                   	push   %ebx
    4626:	83 ec 28             	sub    $0x28,%esp
    4629:	8b 7d 08             	mov    0x8(%ebp),%edi
    462c:	8b 45 0c             	mov    0xc(%ebp),%eax
    462f:	8b 75 10             	mov    0x10(%ebp),%esi
    4632:	89 45 e4             	mov    %eax,-0x1c(%ebp)
    4635:	8b 17                	mov    (%edi),%edx
    4637:	8b 5f 0c             	mov    0xc(%edi),%ebx
    463a:	52                   	push   %edx
    463b:	e8 20 17 00 00       	call   5d60 <seq_no_control_len>
    4640:	29 c3                	sub    %eax,%ebx
    4642:	83 c4 10             	add    $0x10,%esp
    4645:	39 de                	cmp    %ebx,%esi
    4647:	77 1b                	ja     4664 <tcp_segment_text_copy+0x44>
    4649:	89 75 10             	mov    %esi,0x10(%ebp)
    464c:	8b 47 18             	mov    0x18(%edi),%eax
    464f:	89 45 0c             	mov    %eax,0xc(%ebp)
    4652:	8b 45 e4             	mov    -0x1c(%ebp),%eax
    4655:	89 45 08             	mov    %eax,0x8(%ebp)
    4658:	8d 65 f4             	lea    -0xc(%ebp),%esp
    465b:	5b                   	pop    %ebx
    465c:	5e                   	pop    %esi
    465d:	5f                   	pop    %edi
    465e:	5d                   	pop    %ebp
    465f:	e9 0c 61 00 00       	jmp    a770 <memcpy@plt>
    4664:	50                   	push   %eax
    4665:	68 e7 00 00 00       	push   $0xe7
    466a:	68 db 92 00 00       	push   $0x92db
    466f:	68 6c 93 00 00       	push   $0x936c
    4674:	e8 b7 61 00 00       	call   a830 <assert_abort@plt>
    4679:	8d b4 26 00 00 00 00 	lea    0x0(%esi,%eiz,1),%esi

00004680 <tcp_segment_text_size>:
    4680:	55                   	push   %ebp
    4681:	89 e5                	mov    %esp,%ebp
    4683:	53                   	push   %ebx
    4684:	83 ec 10             	sub    $0x10,%esp
    4687:	8b 45 08             	mov    0x8(%ebp),%eax
    468a:	8b 58 0c             	mov    0xc(%eax),%ebx
    468d:	8b 00                	mov    (%eax),%eax
    468f:	50                   	push   %eax
    4690:	e8 cb 16 00 00       	call   5d60 <seq_no_control_len>
    4695:	29 c3                	sub    %eax,%ebx
    4697:	89 d8                	mov    %ebx,%eax
    4699:	8b 5d fc             	mov    -0x4(%ebp),%ebx
    469c:	c9                   	leave  
    469d:	c3                   	ret    
    469e:	66 90                	xchg   %ax,%ax

000046a0 <tcp_segment_dump>:
    46a0:	55                   	push   %ebp
    46a1:	89 e5                	mov    %esp,%ebp
    46a3:	53                   	push   %ebx
    46a4:	83 ec 08             	sub    $0x8,%esp
    46a7:	8b 5d 08             	mov    0x8(%ebp),%ebx
    46aa:	68 15 93 00 00       	push   $0x9315
    46af:	6a 05                	push   $0x5
    46b1:	6a ff                	push   $0xffffffff
    46b3:	e8 18 61 00 00       	call   a7d0 <log_msg@plt>
    46b8:	8b 13                	mov    (%ebx),%edx
    46ba:	52                   	push   %edx
    46bb:	68 23 93 00 00       	push   $0x9323
    46c0:	6a 05                	push   $0x5
    46c2:	6a ff                	push   $0xffffffff
    46c4:	e8 07 61 00 00       	call   a7d0 <log_msg@plt>
    46c9:	83 c4 20             	add    $0x20,%esp
    46cc:	8b 4b 04             	mov    0x4(%ebx),%ecx
    46cf:	51                   	push   %ecx
    46d0:	68 30 93 00 00       	push   $0x9330
    46d5:	6a 05                	push   $0x5
    46d7:	6a ff                	push   $0xffffffff
    46d9:	e8 f2 60 00 00       	call   a7d0 <log_msg@plt>
    46de:	8b 43 08             	mov    0x8(%ebx),%eax
    46e1:	50                   	push   %eax
    46e2:	68 3c 93 00 00       	push   $0x933c
    46e7:	6a 05                	push   $0x5
    46e9:	6a ff                	push   $0xffffffff
    46eb:	e8 e0 60 00 00       	call   a7d0 <log_msg@plt>
    46f0:	83 c4 20             	add    $0x20,%esp
    46f3:	8b 43 0c             	mov    0xc(%ebx),%eax
    46f6:	50                   	push   %eax
    46f7:	68 48 93 00 00       	push   $0x9348
    46fc:	6a 05                	push   $0x5
    46fe:	6a ff                	push   $0xffffffff
    4700:	e8 cb 60 00 00       	call   a7d0 <log_msg@plt>
    4705:	8b 43 10             	mov    0x10(%ebx),%eax
    4708:	50                   	push   %eax
    4709:	68 54 93 00 00       	push   $0x9354
    470e:	6a 05                	push   $0x5
    4710:	6a ff                	push   $0xffffffff
    4712:	e8 b9 60 00 00       	call   a7d0 <log_msg@plt>
    4717:	83 c4 20             	add    $0x20,%esp
    471a:	8b 43 14             	mov    0x14(%ebx),%eax
    471d:	50                   	push   %eax
    471e:	68 60 93 00 00       	push   $0x9360
    4723:	6a 05                	push   $0x5
    4725:	6a ff                	push   $0xffffffff
    4727:	e8 a4 60 00 00       	call   a7d0 <log_msg@plt>
    472c:	83 c4 10             	add    $0x10,%esp
    472f:	8b 5d fc             	mov    -0x4(%ebp),%ebx
    4732:	c9                   	leave  
    4733:	c3                   	ret    
    4734:	66 90                	xchg   %ax,%ax
    4736:	66 90                	xchg   %ax,%ax
    4738:	66 90                	xchg   %ax,%ax
    473a:	66 90                	xchg   %ax,%ax
    473c:	66 90                	xchg   %ax,%ax
    473e:	66 90                	xchg   %ax,%ax

00004740 <tcp_service_recv_data>:
    4740:	55                   	push   %ebp
    4741:	89 e5                	mov    %esp,%ebp
    4743:	56                   	push   %esi
    4744:	53                   	push   %ebx
    4745:	50                   	push   %eax
    4746:	8b 5d 0c             	mov    0xc(%ebp),%ebx
    4749:	68 8f 93 00 00       	push   $0x938f
    474e:	6a 04                	push   $0x4
    4750:	6a ff                	push   $0xffffffff
    4752:	e8 79 60 00 00       	call   a7d0 <log_msg@plt>
    4757:	8b 53 08             	mov    0x8(%ebx),%edx
    475a:	52                   	push   %edx
    475b:	68 9d 93 00 00       	push   $0x939d
    4760:	6a 04                	push   $0x4
    4762:	6a ff                	push   $0xffffffff
    4764:	e8 67 60 00 00       	call   a7d0 <log_msg@plt>
    4769:	8b 43 08             	mov    0x8(%ebx),%eax
    476c:	83 c4 20             	add    $0x20,%esp
    476f:	8b 08                	mov    (%eax),%ecx
    4771:	51                   	push   %ecx
    4772:	68 a8 93 00 00       	push   $0x93a8
    4777:	6a 04                	push   $0x4
    4779:	6a ff                	push   $0xffffffff
    477b:	e8 50 60 00 00       	call   a7d0 <log_msg@plt>
    4780:	8b 43 08             	mov    0x8(%ebx),%eax
    4783:	8b 00                	mov    (%eax),%eax
    4785:	5e                   	pop    %esi
    4786:	50                   	push   %eax
    4787:	e8 e4 61 00 00       	call   a970 <async_exchange_begin@plt>
    478c:	83 c4 0c             	add    $0xc,%esp
    478f:	89 c6                	mov    %eax,%esi
    4791:	6a 00                	push   $0x0
    4793:	6a 00                	push   $0x0
    4795:	6a 00                	push   $0x0
    4797:	6a 00                	push   $0x0
    4799:	8b 43 04             	mov    0x4(%ebx),%eax
    479c:	50                   	push   %eax
    479d:	68 03 04 00 00       	push   $0x403
    47a2:	56                   	push   %esi
    47a3:	e8 18 60 00 00       	call   a7c0 <async_send_fast@plt>
    47a8:	83 c4 14             	add    $0x14,%esp
    47ab:	89 c3                	mov    %eax,%ebx
    47ad:	56                   	push   %esi
    47ae:	e8 6d 60 00 00       	call   a820 <async_exchange_end@plt>
    47b3:	89 5d 08             	mov    %ebx,0x8(%ebp)
    47b6:	83 c4 10             	add    $0x10,%esp
    47b9:	8d 65 f8             	lea    -0x8(%ebp),%esp
    47bc:	5b                   	pop    %ebx
    47bd:	5e                   	pop    %esi
    47be:	5d                   	pop    %ebp
    47bf:	e9 dc 61 00 00       	jmp    a9a0 <async_forget@plt>
    47c4:	8d b6 00 00 00 00    	lea    0x0(%esi),%esi
    47ca:	8d bf 00 00 00 00    	lea    0x0(%edi),%edi

000047d0 <tcp_service_cstate_change>:
    47d0:	55                   	push   %ebp
    47d1:	89 e5                	mov    %esp,%ebp
    47d3:	57                   	push   %edi
    47d4:	56                   	push   %esi
    47d5:	53                   	push   %ebx
    47d6:	83 ec 20             	sub    $0x20,%esp
    47d9:	8b 5d 08             	mov    0x8(%ebp),%ebx
    47dc:	8b 75 10             	mov    0x10(%ebp),%esi
    47df:	68 b1 93 00 00       	push   $0x93b1
    47e4:	6a 04                	push   $0x4
    47e6:	6a ff                	push   $0xffffffff
    47e8:	e8 e3 5f 00 00       	call   a7d0 <log_msg@plt>
    47ed:	8b 7b 60             	mov    0x60(%ebx),%edi
    47f0:	89 1c 24             	mov    %ebx,(%esp)
    47f3:	e8 98 2e 00 00       	call   7690 <tcp_uc_get_userptr>
    47f8:	83 c4 10             	add    $0x10,%esp
    47fb:	89 c2                	mov    %eax,%edx
    47fd:	8d 46 ff             	lea    -0x1(%esi),%eax
    4800:	83 f8 01             	cmp    $0x1,%eax
    4803:	77 09                	ja     480e <tcp_service_cstate_change+0x3e>
    4805:	83 ff 03             	cmp    $0x3,%edi
    4808:	0f 84 aa 00 00 00    	je     48b8 <tcp_service_cstate_change+0xe8>
    480e:	8a 43 64             	mov    0x64(%ebx),%al
    4811:	83 fe 0a             	cmp    $0xa,%esi
    4814:	74 09                	je     481f <tcp_service_cstate_change+0x4f>
    4816:	83 ff 0a             	cmp    $0xa,%edi
    4819:	75 04                	jne    481f <tcp_service_cstate_change+0x4f>
    481b:	84 c0                	test   %al,%al
    481d:	75 29                	jne    4848 <tcp_service_cstate_change+0x78>
    481f:	25 ff 00 00 00       	and    $0xff,%eax
    4824:	52                   	push   %edx
    4825:	52                   	push   %edx
    4826:	50                   	push   %eax
    4827:	57                   	push   %edi
    4828:	56                   	push   %esi
    4829:	68 94 96 00 00       	push   $0x9694
    482e:	6a 04                	push   $0x4
    4830:	6a ff                	push   $0xffffffff
    4832:	e8 99 5f 00 00       	call   a7d0 <log_msg@plt>
    4837:	83 c4 20             	add    $0x20,%esp
    483a:	8d 65 f4             	lea    -0xc(%ebp),%esp
    483d:	5b                   	pop    %ebx
    483e:	5e                   	pop    %esi
    483f:	5f                   	pop    %edi
    4840:	5d                   	pop    %ebp
    4841:	c3                   	ret    
    4842:	8d b6 00 00 00 00    	lea    0x0(%esi),%esi
    4848:	51                   	push   %ecx
    4849:	68 68 96 00 00       	push   $0x9668
    484e:	6a 04                	push   $0x4
    4850:	6a ff                	push   $0xffffffff
    4852:	89 55 e4             	mov    %edx,-0x1c(%ebp)
    4855:	e8 76 5f 00 00       	call   a7d0 <log_msg@plt>
    485a:	83 c4 0c             	add    $0xc,%esp
    485d:	68 e0 93 00 00       	push   $0x93e0
    4862:	6a 04                	push   $0x4
    4864:	6a ff                	push   $0xffffffff
    4866:	e8 65 5f 00 00       	call   a7d0 <log_msg@plt>
    486b:	8b 55 e4             	mov    -0x1c(%ebp),%edx
    486e:	5b                   	pop    %ebx
    486f:	8b 42 08             	mov    0x8(%edx),%eax
    4872:	8b 30                	mov    (%eax),%esi
    4874:	56                   	push   %esi
    4875:	e8 f6 60 00 00       	call   a970 <async_exchange_begin@plt>
    487a:	83 c4 0c             	add    $0xc,%esp
    487d:	8b 55 e4             	mov    -0x1c(%ebp),%edx
    4880:	89 c3                	mov    %eax,%ebx
    4882:	6a 00                	push   $0x0
    4884:	6a 00                	push   $0x0
    4886:	6a 00                	push   $0x0
    4888:	6a 00                	push   $0x0
    488a:	8b 7a 04             	mov    0x4(%edx),%edi
    488d:	57                   	push   %edi
    488e:	68 02 04 00 00       	push   $0x402
    4893:	50                   	push   %eax
    4894:	e8 27 5f 00 00       	call   a7c0 <async_send_fast@plt>
    4899:	83 c4 14             	add    $0x14,%esp
    489c:	89 c6                	mov    %eax,%esi
    489e:	53                   	push   %ebx
    489f:	e8 7c 5f 00 00       	call   a820 <async_exchange_end@plt>
    48a4:	89 75 08             	mov    %esi,0x8(%ebp)
    48a7:	83 c4 10             	add    $0x10,%esp
    48aa:	8d 65 f4             	lea    -0xc(%ebp),%esp
    48ad:	5b                   	pop    %ebx
    48ae:	5e                   	pop    %esi
    48af:	5f                   	pop    %edi
    48b0:	5d                   	pop    %ebp
    48b1:	e9 ea 60 00 00       	jmp    a9a0 <async_forget@plt>
    48b6:	66 90                	xchg   %ax,%ax
    48b8:	89 55 e4             	mov    %edx,-0x1c(%ebp)
    48bb:	50                   	push   %eax
    48bc:	68 cd 93 00 00       	push   $0x93cd
    48c1:	6a 04                	push   $0x4
    48c3:	6a ff                	push   $0xffffffff
    48c5:	e8 06 5f 00 00       	call   a7d0 <log_msg@plt>
    48ca:	8b 55 e4             	mov    -0x1c(%ebp),%edx
    48cd:	58                   	pop    %eax
    48ce:	8b 42 08             	mov    0x8(%edx),%eax
    48d1:	8b 00                	mov    (%eax),%eax
    48d3:	50                   	push   %eax
    48d4:	e8 97 60 00 00       	call   a970 <async_exchange_begin@plt>
    48d9:	83 c4 0c             	add    $0xc,%esp
    48dc:	8b 55 e4             	mov    -0x1c(%ebp),%edx
    48df:	89 c1                	mov    %eax,%ecx
    48e1:	89 55 dc             	mov    %edx,-0x24(%ebp)
    48e4:	6a 00                	push   $0x0
    48e6:	6a 00                	push   $0x0
    48e8:	6a 00                	push   $0x0
    48ea:	6a 00                	push   $0x0
    48ec:	8b 42 04             	mov    0x4(%edx),%eax
    48ef:	89 4d e0             	mov    %ecx,-0x20(%ebp)
    48f2:	50                   	push   %eax
    48f3:	68 00 04 00 00       	push   $0x400
    48f8:	51                   	push   %ecx
    48f9:	e8 c2 5e 00 00       	call   a7c0 <async_send_fast@plt>
    48fe:	83 c4 14             	add    $0x14,%esp
    4901:	8b 4d e0             	mov    -0x20(%ebp),%ecx
    4904:	89 45 e4             	mov    %eax,-0x1c(%ebp)
    4907:	51                   	push   %ecx
    4908:	e8 13 5f 00 00       	call   a820 <async_exchange_end@plt>
    490d:	8b 45 e4             	mov    -0x1c(%ebp),%eax
    4910:	89 04 24             	mov    %eax,(%esp)
    4913:	e8 88 60 00 00       	call   a9a0 <async_forget@plt>
    4918:	83 c4 10             	add    $0x10,%esp
    491b:	8b 55 dc             	mov    -0x24(%ebp),%edx
    491e:	e9 eb fe ff ff       	jmp    480e <tcp_service_cstate_change+0x3e>
    4923:	8d b6 00 00 00 00    	lea    0x0(%esi),%esi
    4929:	8d bc 27 00 00 00 00 	lea    0x0(%edi,%eiz,1),%edi

00004930 <tcp_service_lst_cstate_change>:
    4930:	55                   	push   %ebp
    4931:	89 e5                	mov    %esp,%ebp
    4933:	57                   	push   %edi
    4934:	56                   	push   %esi
    4935:	53                   	push   %ebx
    4936:	83 ec 60             	sub    $0x60,%esp
    4939:	68 d8 96 00 00       	push   $0x96d8
    493e:	6a 04                	push   $0x4
    4940:	6a ff                	push   $0xffffffff
    4942:	e8 89 5e 00 00       	call   a7d0 <log_msg@plt>
    4947:	8b 45 08             	mov    0x8(%ebp),%eax
    494a:	8b 58 60             	mov    0x60(%eax),%ebx
    494d:	89 04 24             	mov    %eax,(%esp)
    4950:	e8 3b 2d 00 00       	call   7690 <tcp_uc_get_userptr>
    4955:	83 c4 10             	add    $0x10,%esp
    4958:	89 45 a4             	mov    %eax,-0x5c(%ebp)
    495b:	8b 45 10             	mov    0x10(%ebp),%eax
    495e:	48                   	dec    %eax
    495f:	83 f8 01             	cmp    $0x1,%eax
    4962:	77 05                	ja     4969 <tcp_service_lst_cstate_change+0x39>
    4964:	83 fb 03             	cmp    $0x3,%ebx
    4967:	74 3f                	je     49a8 <tcp_service_lst_cstate_change+0x78>
    4969:	83 ec 0c             	sub    $0xc,%esp
    496c:	8d 5d b4             	lea    -0x4c(%ebp),%ebx
    496f:	8d 7d b8             	lea    -0x48(%ebp),%edi
    4972:	53                   	push   %ebx
    4973:	e8 08 5f 00 00       	call   a880 <inet_ep2_init@plt>
    4978:	8b 75 a4             	mov    -0x5c(%ebp),%esi
    497b:	8d 45 08             	lea    0x8(%ebp),%eax
    497e:	b9 06 00 00 00       	mov    $0x6,%ecx
    4983:	f3 a5                	rep movsl %ds:(%esi),%es:(%edi)
    4985:	50                   	push   %eax
    4986:	6a 01                	push   $0x1
    4988:	6a 01                	push   $0x1
    498a:	53                   	push   %ebx
    498b:	e8 80 26 00 00       	call   7010 <tcp_uc_open>
    4990:	83 c4 20             	add    $0x20,%esp
    4993:	85 c0                	test   %eax,%eax
    4995:	0f 84 ed 00 00 00    	je     4a88 <tcp_service_lst_cstate_change+0x158>
    499b:	8d 65 f4             	lea    -0xc(%ebp),%esp
    499e:	5b                   	pop    %ebx
    499f:	5e                   	pop    %esi
    49a0:	5f                   	pop    %edi
    49a1:	5d                   	pop    %ebp
    49a2:	c3                   	ret    
    49a3:	90                   	nop
    49a4:	8d 74 26 00          	lea    0x0(%esi,%eiz,1),%esi
    49a8:	8b 45 a4             	mov    -0x5c(%ebp),%eax
    49ab:	8b 75 08             	mov    0x8(%ebp),%esi
    49ae:	89 75 9c             	mov    %esi,-0x64(%ebp)
    49b1:	c7 40 18 00 00 00 00 	movl   $0x0,0x18(%eax)
    49b8:	8b 40 20             	mov    0x20(%eax),%eax
    49bb:	89 45 a0             	mov    %eax,-0x60(%ebp)
    49be:	50                   	push   %eax
    49bf:	50                   	push   %eax
    49c0:	6a 14                	push   $0x14
    49c2:	6a 01                	push   $0x1
    49c4:	e8 77 5e 00 00       	call   a840 <calloc@plt>
    49c9:	83 c4 10             	add    $0x10,%esp
    49cc:	89 c6                	mov    %eax,%esi
    49ce:	85 c0                	test   %eax,%eax
    49d0:	74 c9                	je     499b <tcp_service_lst_cstate_change+0x6b>
    49d2:	8b 45 a0             	mov    -0x60(%ebp),%eax
    49d5:	8b 50 08             	mov    0x8(%eax),%edx
    49d8:	8d 78 04             	lea    0x4(%eax),%edi
    49db:	31 c0                	xor    %eax,%eax
    49dd:	39 fa                	cmp    %edi,%edx
    49df:	8d 4a f4             	lea    -0xc(%edx),%ecx
    49e2:	74 1a                	je     49fe <tcp_service_lst_cstate_change+0xce>
    49e4:	8d 74 26 00          	lea    0x0(%esi,%eiz,1),%esi
    49e8:	8b 49 04             	mov    0x4(%ecx),%ecx
    49eb:	39 c1                	cmp    %eax,%ecx
    49ed:	8d 59 01             	lea    0x1(%ecx),%ebx
    49f0:	72 02                	jb     49f4 <tcp_service_lst_cstate_change+0xc4>
    49f2:	89 d8                	mov    %ebx,%eax
    49f4:	8b 52 04             	mov    0x4(%edx),%edx
    49f7:	39 fa                	cmp    %edi,%edx
    49f9:	8d 4a f4             	lea    -0xc(%edx),%ecx
    49fc:	75 ea                	jne    49e8 <tcp_service_lst_cstate_change+0xb8>
    49fe:	8b 5d a0             	mov    -0x60(%ebp),%ebx
    4a01:	89 46 04             	mov    %eax,0x4(%esi)
    4a04:	8b 45 9c             	mov    -0x64(%ebp),%eax
    4a07:	89 5e 08             	mov    %ebx,0x8(%esi)
    4a0a:	8b 53 04             	mov    0x4(%ebx),%edx
    4a0d:	89 06                	mov    %eax,(%esi)
    4a0f:	8d 46 0c             	lea    0xc(%esi),%eax
    4a12:	89 56 0c             	mov    %edx,0xc(%esi)
    4a15:	89 7e 10             	mov    %edi,0x10(%esi)
    4a18:	89 42 04             	mov    %eax,0x4(%edx)
    4a1b:	89 43 04             	mov    %eax,0x4(%ebx)
    4a1e:	8b 5d 08             	mov    0x8(%ebp),%ebx
    4a21:	51                   	push   %ecx
    4a22:	56                   	push   %esi
    4a23:	68 e8 c4 00 00       	push   $0xc4e8
    4a28:	53                   	push   %ebx
    4a29:	e8 22 2c 00 00       	call   7650 <tcp_uc_set_cb>
    4a2e:	83 c4 0c             	add    $0xc,%esp
    4a31:	68 f4 93 00 00       	push   $0x93f4
    4a36:	6a 04                	push   $0x4
    4a38:	6a ff                	push   $0xffffffff
    4a3a:	e8 91 5d 00 00       	call   a7d0 <log_msg@plt>
    4a3f:	5f                   	pop    %edi
    4a40:	8b 7d a4             	mov    -0x5c(%ebp),%edi
    4a43:	8b 47 20             	mov    0x20(%edi),%eax
    4a46:	8b 00                	mov    (%eax),%eax
    4a48:	50                   	push   %eax
    4a49:	e8 22 5f 00 00       	call   a970 <async_exchange_begin@plt>
    4a4e:	83 c4 0c             	add    $0xc,%esp
    4a51:	89 c3                	mov    %eax,%ebx
    4a53:	6a 00                	push   $0x0
    4a55:	6a 00                	push   $0x0
    4a57:	6a 00                	push   $0x0
    4a59:	8b 46 04             	mov    0x4(%esi),%eax
    4a5c:	50                   	push   %eax
    4a5d:	8b 47 1c             	mov    0x1c(%edi),%eax
    4a60:	50                   	push   %eax
    4a61:	68 05 04 00 00       	push   $0x405
    4a66:	53                   	push   %ebx
    4a67:	e8 54 5d 00 00       	call   a7c0 <async_send_fast@plt>
    4a6c:	83 c4 14             	add    $0x14,%esp
    4a6f:	89 c6                	mov    %eax,%esi
    4a71:	53                   	push   %ebx
    4a72:	e8 a9 5d 00 00       	call   a820 <async_exchange_end@plt>
    4a77:	89 34 24             	mov    %esi,(%esp)
    4a7a:	e8 21 5f 00 00       	call   a9a0 <async_forget@plt>
    4a7f:	83 c4 10             	add    $0x10,%esp
    4a82:	e9 e2 fe ff ff       	jmp    4969 <tcp_service_lst_cstate_change+0x39>
    4a87:	90                   	nop
    4a88:	8b 45 08             	mov    0x8(%ebp),%eax
    4a8b:	8b 75 a4             	mov    -0x5c(%ebp),%esi
    4a8e:	c7 00 06 94 00 00    	movl   $0x9406,(%eax)
    4a94:	89 46 18             	mov    %eax,0x18(%esi)
    4a97:	52                   	push   %edx
    4a98:	56                   	push   %esi
    4a99:	68 e0 c4 00 00       	push   $0xc4e0
    4a9e:	50                   	push   %eax
    4a9f:	e8 ac 2b 00 00       	call   7650 <tcp_uc_set_cb>
    4aa4:	83 c4 10             	add    $0x10,%esp
    4aa7:	8d 65 f4             	lea    -0xc(%ebp),%esp
    4aaa:	5b                   	pop    %ebx
    4aab:	5e                   	pop    %esi
    4aac:	5f                   	pop    %edi
    4aad:	5d                   	pop    %ebp
    4aae:	c3                   	ret    
    4aaf:	90                   	nop

00004ab0 <tcp_client_conn>:
    4ab0:	55                   	push   %ebp
    4ab1:	89 e5                	mov    %esp,%ebp
    4ab3:	57                   	push   %edi
    4ab4:	56                   	push   %esi
    4ab5:	53                   	push   %ebx
    4ab6:	81 ec c4 00 00 00    	sub    $0xc4,%esp
    4abc:	8b 75 08             	mov    0x8(%ebp),%esi
    4abf:	6a 00                	push   $0x0
    4ac1:	56                   	push   %esi
    4ac2:	e8 d9 5c 00 00       	call   a7a0 <async_answer_0@plt>
    4ac7:	8d 85 64 ff ff ff    	lea    -0x9c(%ebp),%eax
    4acd:	50                   	push   %eax
    4ace:	68 08 94 00 00       	push   $0x9408
    4ad3:	6a 04                	push   $0x4
    4ad5:	6a ff                	push   $0xffffffff
    4ad7:	e8 f4 5c 00 00       	call   a7d0 <log_msg@plt>
    4adc:	83 c4 1c             	add    $0x1c,%esp
    4adf:	8d 85 64 ff ff ff    	lea    -0x9c(%ebp),%eax
    4ae5:	6a 14                	push   $0x14
    4ae7:	6a 00                	push   $0x0
    4ae9:	50                   	push   %eax
    4aea:	e8 01 5e 00 00       	call   a8f0 <memset@plt>
    4aef:	8d 85 68 ff ff ff    	lea    -0x98(%ebp),%eax
    4af5:	89 85 68 ff ff ff    	mov    %eax,-0x98(%ebp)
    4afb:	89 85 6c ff ff ff    	mov    %eax,-0x94(%ebp)
    4b01:	8d 85 70 ff ff ff    	lea    -0x90(%ebp),%eax
    4b07:	c7 85 64 ff ff ff 00 	movl   $0x0,-0x9c(%ebp)
    4b0e:	00 00 00 
    4b11:	89 85 70 ff ff ff    	mov    %eax,-0x90(%ebp)
    4b17:	89 85 74 ff ff ff    	mov    %eax,-0x8c(%ebp)
    4b1d:	83 c4 10             	add    $0x10,%esp
    4b20:	52                   	push   %edx
    4b21:	68 26 94 00 00       	push   $0x9426
    4b26:	6a 04                	push   $0x4
    4b28:	6a ff                	push   $0xffffffff
    4b2a:	e8 a1 5c 00 00       	call   a7d0 <log_msg@plt>
    4b2f:	8d 45 90             	lea    -0x70(%ebp),%eax
    4b32:	59                   	pop    %ecx
    4b33:	5b                   	pop    %ebx
    4b34:	6a 00                	push   $0x0
    4b36:	50                   	push   %eax
    4b37:	e8 04 5e 00 00       	call   a940 <async_get_call_timeout@plt>
    4b3c:	8b 5d 90             	mov    -0x70(%ebp),%ebx
    4b3f:	53                   	push   %ebx
    4b40:	68 40 94 00 00       	push   $0x9440
    4b45:	6a 04                	push   $0x4
    4b47:	6a ff                	push   $0xffffffff
    4b49:	89 85 44 ff ff ff    	mov    %eax,-0xbc(%ebp)
    4b4f:	e8 7c 5c 00 00       	call   a7d0 <log_msg@plt>
    4b54:	83 c4 20             	add    $0x20,%esp
    4b57:	85 db                	test   %ebx,%ebx
    4b59:	0f 84 09 06 00 00    	je     5168 <tcp_client_conn+0x6b8>
    4b5f:	81 eb 00 04 00 00    	sub    $0x400,%ebx
    4b65:	83 fb 0a             	cmp    $0xa,%ebx
    4b68:	0f 87 72 06 00 00    	ja     51e0 <tcp_client_conn+0x730>
    4b6e:	ff 24 9d 84 98 00 00 	jmp    *0x9884(,%ebx,4)
    4b75:	8d 76 00             	lea    0x0(%esi),%esi
    4b78:	53                   	push   %ebx
    4b79:	68 4c 95 00 00       	push   $0x954c
    4b7e:	6a 04                	push   $0x4
    4b80:	6a ff                	push   $0xffffffff
    4b82:	e8 49 5c 00 00       	call   a7d0 <log_msg@plt>
    4b87:	8b 85 6c ff ff ff    	mov    -0x94(%ebp),%eax
    4b8d:	8d b5 68 ff ff ff    	lea    -0x98(%ebp),%esi
    4b93:	83 c4 10             	add    $0x10,%esp
    4b96:	8b 4d 94             	mov    -0x6c(%ebp),%ecx
    4b99:	8d 50 f4             	lea    -0xc(%eax),%edx
    4b9c:	39 f0                	cmp    %esi,%eax
    4b9e:	75 18                	jne    4bb8 <tcp_client_conn+0x108>
    4ba0:	eb 7e                	jmp    4c20 <tcp_client_conn+0x170>
    4ba2:	8d b6 00 00 00 00    	lea    0x0(%esi),%esi
    4ba8:	8b 40 04             	mov    0x4(%eax),%eax
    4bab:	8d bd 68 ff ff ff    	lea    -0x98(%ebp),%edi
    4bb1:	39 f8                	cmp    %edi,%eax
    4bb3:	8d 50 f4             	lea    -0xc(%eax),%edx
    4bb6:	74 68                	je     4c20 <tcp_client_conn+0x170>
    4bb8:	3b 4a 04             	cmp    0x4(%edx),%ecx
    4bbb:	75 eb                	jne    4ba8 <tcp_client_conn+0xf8>
    4bbd:	83 ec 0c             	sub    $0xc,%esp
    4bc0:	8b 0a                	mov    (%edx),%ecx
    4bc2:	51                   	push   %ecx
    4bc3:	e8 08 2a 00 00       	call   75d0 <tcp_uc_abort>
    4bc8:	83 c4 10             	add    $0x10,%esp
    4bcb:	90                   	nop
    4bcc:	8d 74 26 00          	lea    0x0(%esi,%eiz,1),%esi
    4bd0:	31 c0                	xor    %eax,%eax
    4bd2:	eb 4f                	jmp    4c23 <tcp_client_conn+0x173>
    4bd4:	8d 74 26 00          	lea    0x0(%esi,%eiz,1),%esi
    4bd8:	8d bd 68 ff ff ff    	lea    -0x98(%ebp),%edi
    4bde:	56                   	push   %esi
    4bdf:	68 38 95 00 00       	push   $0x9538
    4be4:	6a 04                	push   $0x4
    4be6:	6a ff                	push   $0xffffffff
    4be8:	e8 e3 5b 00 00       	call   a7d0 <log_msg@plt>
    4bed:	8b 85 6c ff ff ff    	mov    -0x94(%ebp),%eax
    4bf3:	83 c4 10             	add    $0x10,%esp
    4bf6:	8b 4d 94             	mov    -0x6c(%ebp),%ecx
    4bf9:	39 f8                	cmp    %edi,%eax
    4bfb:	74 23                	je     4c20 <tcp_client_conn+0x170>
    4bfd:	3b 48 f8             	cmp    -0x8(%eax),%ecx
    4c00:	75 0b                	jne    4c0d <tcp_client_conn+0x15d>
    4c02:	eb cc                	jmp    4bd0 <tcp_client_conn+0x120>
    4c04:	8d 74 26 00          	lea    0x0(%esi,%eiz,1),%esi
    4c08:	3b 4a 04             	cmp    0x4(%edx),%ecx
    4c0b:	74 c3                	je     4bd0 <tcp_client_conn+0x120>
    4c0d:	8b 40 04             	mov    0x4(%eax),%eax
    4c10:	8d b5 68 ff ff ff    	lea    -0x98(%ebp),%esi
    4c16:	39 f0                	cmp    %esi,%eax
    4c18:	8d 50 f4             	lea    -0xc(%eax),%edx
    4c1b:	75 eb                	jne    4c08 <tcp_client_conn+0x158>
    4c1d:	8d 76 00             	lea    0x0(%esi),%esi
    4c20:	83 c8 ff             	or     $0xffffffff,%eax
    4c23:	8b 9d 44 ff ff ff    	mov    -0xbc(%ebp),%ebx
    4c29:	51                   	push   %ecx
    4c2a:	51                   	push   %ecx
    4c2b:	50                   	push   %eax
    4c2c:	53                   	push   %ebx
    4c2d:	e8 6e 5b 00 00       	call   a7a0 <async_answer_0@plt>
    4c32:	83 c4 10             	add    $0x10,%esp
    4c35:	e9 e6 fe ff ff       	jmp    4b20 <tcp_client_conn+0x70>
    4c3a:	8d b6 00 00 00 00    	lea    0x0(%esi),%esi
    4c40:	50                   	push   %eax
    4c41:	68 05 95 00 00       	push   $0x9505
    4c46:	6a 04                	push   $0x4
    4c48:	6a ff                	push   $0xffffffff
    4c4a:	e8 81 5b 00 00       	call   a7d0 <log_msg@plt>
    4c4f:	8b 85 74 ff ff ff    	mov    -0x8c(%ebp),%eax
    4c55:	8d bd 70 ff ff ff    	lea    -0x90(%ebp),%edi
    4c5b:	83 c4 10             	add    $0x10,%esp
    4c5e:	8b 4d 94             	mov    -0x6c(%ebp),%ecx
    4c61:	8d 50 dc             	lea    -0x24(%eax),%edx
    4c64:	39 f8                	cmp    %edi,%eax
    4c66:	75 18                	jne    4c80 <tcp_client_conn+0x1d0>
    4c68:	eb b6                	jmp    4c20 <tcp_client_conn+0x170>
    4c6a:	8d b6 00 00 00 00    	lea    0x0(%esi),%esi
    4c70:	8b 40 04             	mov    0x4(%eax),%eax
    4c73:	8d b5 70 ff ff ff    	lea    -0x90(%ebp),%esi
    4c79:	39 f0                	cmp    %esi,%eax
    4c7b:	8d 50 dc             	lea    -0x24(%eax),%edx
    4c7e:	74 a0                	je     4c20 <tcp_client_conn+0x170>
    4c80:	3b 4a 1c             	cmp    0x1c(%edx),%ecx
    4c83:	75 eb                	jne    4c70 <tcp_client_conn+0x1c0>
    4c85:	8b 4a 24             	mov    0x24(%edx),%ecx
    4c88:	85 c9                	test   %ecx,%ecx
    4c8a:	74 0f                	je     4c9b <tcp_client_conn+0x1eb>
    4c8c:	8b 42 28             	mov    0x28(%edx),%eax
    4c8f:	85 c0                	test   %eax,%eax
    4c91:	74 08                	je     4c9b <tcp_client_conn+0x1eb>
    4c93:	89 08                	mov    %ecx,(%eax)
    4c95:	8b 4a 24             	mov    0x24(%edx),%ecx
    4c98:	89 41 04             	mov    %eax,0x4(%ecx)
    4c9b:	83 ec 0c             	sub    $0xc,%esp
    4c9e:	c7 42 24 00 00 00 00 	movl   $0x0,0x24(%edx)
    4ca5:	c7 42 28 00 00 00 00 	movl   $0x0,0x28(%edx)
    4cac:	52                   	push   %edx
    4cad:	e8 9e 5d 00 00       	call   aa50 <free@plt>
    4cb2:	83 c4 10             	add    $0x10,%esp
    4cb5:	31 c0                	xor    %eax,%eax
    4cb7:	e9 67 ff ff ff       	jmp    4c23 <tcp_client_conn+0x173>
    4cbc:	8d 74 26 00          	lea    0x0(%esi,%eiz,1),%esi
    4cc0:	8d b5 68 ff ff ff    	lea    -0x98(%ebp),%esi
    4cc6:	57                   	push   %edi
    4cc7:	68 20 95 00 00       	push   $0x9520
    4ccc:	6a 04                	push   $0x4
    4cce:	6a ff                	push   $0xffffffff
    4cd0:	e8 fb 5a 00 00       	call   a7d0 <log_msg@plt>
    4cd5:	8b 85 6c ff ff ff    	mov    -0x94(%ebp),%eax
    4cdb:	83 c4 10             	add    $0x10,%esp
    4cde:	8b 4d 94             	mov    -0x6c(%ebp),%ecx
    4ce1:	39 f0                	cmp    %esi,%eax
    4ce3:	0f 84 37 ff ff ff    	je     4c20 <tcp_client_conn+0x170>
    4ce9:	3b 48 f8             	cmp    -0x8(%eax),%ecx
    4cec:	75 13                	jne    4d01 <tcp_client_conn+0x251>
    4cee:	e9 dd fe ff ff       	jmp    4bd0 <tcp_client_conn+0x120>
    4cf3:	90                   	nop
    4cf4:	8d 74 26 00          	lea    0x0(%esi,%eiz,1),%esi
    4cf8:	3b 4a 04             	cmp    0x4(%edx),%ecx
    4cfb:	0f 84 cf fe ff ff    	je     4bd0 <tcp_client_conn+0x120>
    4d01:	8b 40 04             	mov    0x4(%eax),%eax
    4d04:	8d bd 68 ff ff ff    	lea    -0x98(%ebp),%edi
    4d0a:	39 f8                	cmp    %edi,%eax
    4d0c:	8d 50 f4             	lea    -0xc(%eax),%edx
    4d0f:	75 e7                	jne    4cf8 <tcp_client_conn+0x248>
    4d11:	e9 0a ff ff ff       	jmp    4c20 <tcp_client_conn+0x170>
    4d16:	66 90                	xchg   %ax,%ax
    4d18:	50                   	push   %eax
    4d19:	68 bb 94 00 00       	push   $0x94bb
    4d1e:	6a 04                	push   $0x4
    4d20:	6a ff                	push   $0xffffffff
    4d22:	e8 a9 5a 00 00       	call   a7d0 <log_msg@plt>
    4d27:	8b 85 6c ff ff ff    	mov    -0x94(%ebp),%eax
    4d2d:	8d b5 68 ff ff ff    	lea    -0x98(%ebp),%esi
    4d33:	83 c4 10             	add    $0x10,%esp
    4d36:	8b 55 94             	mov    -0x6c(%ebp),%edx
    4d39:	8d 58 f4             	lea    -0xc(%eax),%ebx
    4d3c:	39 f0                	cmp    %esi,%eax
    4d3e:	0f 84 dc fe ff ff    	je     4c20 <tcp_client_conn+0x170>
    4d44:	39 53 04             	cmp    %edx,0x4(%ebx)
    4d47:	75 10                	jne    4d59 <tcp_client_conn+0x2a9>
    4d49:	e9 ca 05 00 00       	jmp    5318 <tcp_client_conn+0x868>
    4d4e:	66 90                	xchg   %ax,%ax
    4d50:	3b 53 04             	cmp    0x4(%ebx),%edx
    4d53:	0f 84 bf 05 00 00    	je     5318 <tcp_client_conn+0x868>
    4d59:	8b 40 04             	mov    0x4(%eax),%eax
    4d5c:	8d bd 68 ff ff ff    	lea    -0x98(%ebp),%edi
    4d62:	39 f8                	cmp    %edi,%eax
    4d64:	8d 58 f4             	lea    -0xc(%eax),%ebx
    4d67:	75 e7                	jne    4d50 <tcp_client_conn+0x2a0>
    4d69:	e9 b2 fe ff ff       	jmp    4c20 <tcp_client_conn+0x170>
    4d6e:	66 90                	xchg   %ax,%ax
    4d70:	57                   	push   %edi
    4d71:	68 61 95 00 00       	push   $0x9561
    4d76:	6a 04                	push   $0x4
    4d78:	6a ff                	push   $0xffffffff
    4d7a:	e8 51 5a 00 00       	call   a7d0 <log_msg@plt>
    4d7f:	58                   	pop    %eax
    4d80:	8d 45 b4             	lea    -0x4c(%ebp),%eax
    4d83:	5a                   	pop    %edx
    4d84:	50                   	push   %eax
    4d85:	8d 85 78 ff ff ff    	lea    -0x88(%ebp),%eax
    4d8b:	50                   	push   %eax
    4d8c:	e8 8f 5c 00 00       	call   aa20 <async_data_write_receive@plt>
    4d91:	83 c4 10             	add    $0x10,%esp
    4d94:	84 c0                	test   %al,%al
    4d96:	0f 84 6c 05 00 00    	je     5308 <tcp_client_conn+0x858>
    4d9c:	8b 45 b4             	mov    -0x4c(%ebp),%eax
    4d9f:	3d 00 00 01 00       	cmp    $0x10000,%eax
    4da4:	0f 87 96 04 00 00    	ja     5240 <tcp_client_conn+0x790>
    4daa:	83 ec 0c             	sub    $0xc,%esp
    4dad:	50                   	push   %eax
    4dae:	e8 cd 59 00 00       	call   a780 <malloc@plt>
    4db3:	83 c4 10             	add    $0x10,%esp
    4db6:	89 c3                	mov    %eax,%ebx
    4db8:	85 c0                	test   %eax,%eax
    4dba:	0f 84 95 0a 00 00    	je     5855 <tcp_client_conn+0xda5>
    4dc0:	50                   	push   %eax
    4dc1:	8b 45 b4             	mov    -0x4c(%ebp),%eax
    4dc4:	50                   	push   %eax
    4dc5:	8b 85 78 ff ff ff    	mov    -0x88(%ebp),%eax
    4dcb:	53                   	push   %ebx
    4dcc:	50                   	push   %eax
    4dcd:	e8 ae 5b 00 00       	call   a980 <async_data_write_finalize@plt>
    4dd2:	83 c4 10             	add    $0x10,%esp
    4dd5:	89 c6                	mov    %eax,%esi
    4dd7:	85 c0                	test   %eax,%eax
    4dd9:	0f 85 fc 05 00 00    	jne    53db <tcp_client_conn+0x92b>
    4ddf:	8b 85 6c ff ff ff    	mov    -0x94(%ebp),%eax
    4de5:	8d bd 68 ff ff ff    	lea    -0x98(%ebp),%edi
    4deb:	8b 4d 94             	mov    -0x6c(%ebp),%ecx
    4dee:	39 f8                	cmp    %edi,%eax
    4df0:	8d 50 f4             	lea    -0xc(%eax),%edx
    4df3:	75 1f                	jne    4e14 <tcp_client_conn+0x364>
    4df5:	e9 9b 06 00 00       	jmp    5495 <tcp_client_conn+0x9e5>
    4dfa:	8d b6 00 00 00 00    	lea    0x0(%esi),%esi
    4e00:	8b 40 04             	mov    0x4(%eax),%eax
    4e03:	8d bd 68 ff ff ff    	lea    -0x98(%ebp),%edi
    4e09:	39 f8                	cmp    %edi,%eax
    4e0b:	8d 50 f4             	lea    -0xc(%eax),%edx
    4e0e:	0f 84 81 06 00 00    	je     5495 <tcp_client_conn+0x9e5>
    4e14:	3b 4a 04             	cmp    0x4(%edx),%ecx
    4e17:	75 e7                	jne    4e00 <tcp_client_conn+0x350>
    4e19:	8b 4d b4             	mov    -0x4c(%ebp),%ecx
    4e1c:	6a 00                	push   $0x0
    4e1e:	51                   	push   %ecx
    4e1f:	53                   	push   %ebx
    4e20:	8b 32                	mov    (%edx),%esi
    4e22:	56                   	push   %esi
    4e23:	e8 b8 23 00 00       	call   71e0 <tcp_uc_send>
    4e28:	83 c4 10             	add    $0x10,%esp
    4e2b:	85 c0                	test   %eax,%eax
    4e2d:	0f 85 1a 06 00 00    	jne    544d <tcp_client_conn+0x99d>
    4e33:	50                   	push   %eax
    4e34:	50                   	push   %eax
    4e35:	6a 00                	push   $0x0
    4e37:	e9 16 02 00 00       	jmp    5052 <tcp_client_conn+0x5a2>
    4e3c:	8d 74 26 00          	lea    0x0(%esi,%eiz,1),%esi
    4e40:	50                   	push   %eax
    4e41:	68 d2 94 00 00       	push   $0x94d2
    4e46:	6a 04                	push   $0x4
    4e48:	6a ff                	push   $0xffffffff
    4e4a:	e8 81 59 00 00       	call   a7d0 <log_msg@plt>
    4e4f:	58                   	pop    %eax
    4e50:	8d 85 5c ff ff ff    	lea    -0xa4(%ebp),%eax
    4e56:	5a                   	pop    %edx
    4e57:	50                   	push   %eax
    4e58:	8d 85 58 ff ff ff    	lea    -0xa8(%ebp),%eax
    4e5e:	50                   	push   %eax
    4e5f:	e8 bc 5b 00 00       	call   aa20 <async_data_write_receive@plt>
    4e64:	83 c4 10             	add    $0x10,%esp
    4e67:	84 c0                	test   %al,%al
    4e69:	0f 84 89 04 00 00    	je     52f8 <tcp_client_conn+0x848>
    4e6f:	83 bd 5c ff ff ff 18 	cmpl   $0x18,-0xa4(%ebp)
    4e76:	0f 84 ea 04 00 00    	je     5366 <tcp_client_conn+0x8b6>
    4e7c:	8b b5 58 ff ff ff    	mov    -0xa8(%ebp),%esi
    4e82:	53                   	push   %ebx
    4e83:	53                   	push   %ebx
    4e84:	6a f2                	push   $0xfffffff2
    4e86:	56                   	push   %esi
    4e87:	eb 4e                	jmp    4ed7 <tcp_client_conn+0x427>
    4e89:	8d b4 26 00 00 00 00 	lea    0x0(%esi,%eiz,1),%esi
    4e90:	50                   	push   %eax
    4e91:	68 90 94 00 00       	push   $0x9490
    4e96:	6a 04                	push   $0x4
    4e98:	6a ff                	push   $0xffffffff
    4e9a:	e8 31 59 00 00       	call   a7d0 <log_msg@plt>
    4e9f:	58                   	pop    %eax
    4ea0:	8d 85 58 ff ff ff    	lea    -0xa8(%ebp),%eax
    4ea6:	5a                   	pop    %edx
    4ea7:	50                   	push   %eax
    4ea8:	8d 85 54 ff ff ff    	lea    -0xac(%ebp),%eax
    4eae:	50                   	push   %eax
    4eaf:	e8 6c 5b 00 00       	call   aa20 <async_data_write_receive@plt>
    4eb4:	83 c4 10             	add    $0x10,%esp
    4eb7:	84 c0                	test   %al,%al
    4eb9:	0f 84 29 04 00 00    	je     52e8 <tcp_client_conn+0x838>
    4ebf:	83 bd 58 ff ff ff 34 	cmpl   $0x34,-0xa8(%ebp)
    4ec6:	0f 84 e3 04 00 00    	je     53af <tcp_client_conn+0x8ff>
    4ecc:	8b 9d 54 ff ff ff    	mov    -0xac(%ebp),%ebx
    4ed2:	51                   	push   %ecx
    4ed3:	51                   	push   %ecx
    4ed4:	6a f2                	push   $0xfffffff2
    4ed6:	53                   	push   %ebx
    4ed7:	e8 c4 58 00 00       	call   a7a0 <async_answer_0@plt>
    4edc:	8b 8d 44 ff ff ff    	mov    -0xbc(%ebp),%ecx
    4ee2:	58                   	pop    %eax
    4ee3:	5a                   	pop    %edx
    4ee4:	6a f2                	push   $0xfffffff2
    4ee6:	51                   	push   %ecx
    4ee7:	e8 b4 58 00 00       	call   a7a0 <async_answer_0@plt>
    4eec:	83 c4 10             	add    $0x10,%esp
    4eef:	e9 2c fc ff ff       	jmp    4b20 <tcp_client_conn+0x70>
    4ef4:	8d 74 26 00          	lea    0x0(%esi,%eiz,1),%esi
    4ef8:	50                   	push   %eax
    4ef9:	68 76 94 00 00       	push   $0x9476
    4efe:	6a 04                	push   $0x4
    4f00:	6a ff                	push   $0xffffffff
    4f02:	e8 c9 58 00 00       	call   a7d0 <log_msg@plt>
    4f07:	c7 04 24 01 00 00 00 	movl   $0x1,(%esp)
    4f0e:	e8 2d 5b 00 00       	call   aa40 <async_callback_receive@plt>
    4f13:	83 c4 10             	add    $0x10,%esp
    4f16:	85 c0                	test   %eax,%eax
    4f18:	0f 84 7c 05 00 00    	je     549a <tcp_client_conn+0x9ea>
    4f1e:	8b 9d 44 ff ff ff    	mov    -0xbc(%ebp),%ebx
    4f24:	51                   	push   %ecx
    4f25:	51                   	push   %ecx
    4f26:	6a 00                	push   $0x0
    4f28:	53                   	push   %ebx
    4f29:	89 85 64 ff ff ff    	mov    %eax,-0x9c(%ebp)
    4f2f:	e8 6c 58 00 00       	call   a7a0 <async_answer_0@plt>
    4f34:	83 c4 10             	add    $0x10,%esp
    4f37:	e9 e4 fb ff ff       	jmp    4b20 <tcp_client_conn+0x70>
    4f3c:	8d 74 26 00          	lea    0x0(%esi,%eiz,1),%esi
    4f40:	53                   	push   %ebx
    4f41:	68 f3 95 00 00       	push   $0x95f3
    4f46:	6a 04                	push   $0x4
    4f48:	6a ff                	push   $0xffffffff
    4f4a:	e8 81 58 00 00       	call   a7d0 <log_msg@plt>
    4f4f:	5e                   	pop    %esi
    4f50:	58                   	pop    %eax
    4f51:	8d 85 60 ff ff ff    	lea    -0xa0(%ebp),%eax
    4f57:	50                   	push   %eax
    4f58:	8d 85 5c ff ff ff    	lea    -0xa4(%ebp),%eax
    4f5e:	50                   	push   %eax
    4f5f:	8b 7d 94             	mov    -0x6c(%ebp),%edi
    4f62:	e8 99 59 00 00       	call   a900 <async_data_read_receive@plt>
    4f67:	83 c4 10             	add    $0x10,%esp
    4f6a:	84 c0                	test   %al,%al
    4f6c:	0f 84 86 02 00 00    	je     51f8 <tcp_client_conn+0x748>
    4f72:	8b 85 60 ff ff ff    	mov    -0xa0(%ebp),%eax
    4f78:	3d 00 40 00 00       	cmp    $0x4000,%eax
    4f7d:	76 05                	jbe    4f84 <tcp_client_conn+0x4d4>
    4f7f:	b8 00 40 00 00       	mov    $0x4000,%eax
    4f84:	83 ec 0c             	sub    $0xc,%esp
    4f87:	89 85 60 ff ff ff    	mov    %eax,-0xa0(%ebp)
    4f8d:	50                   	push   %eax
    4f8e:	e8 ed 57 00 00       	call   a780 <malloc@plt>
    4f93:	83 c4 10             	add    $0x10,%esp
    4f96:	89 c3                	mov    %eax,%ebx
    4f98:	85 c0                	test   %eax,%eax
    4f9a:	0f 84 6a 08 00 00    	je     580a <tcp_client_conn+0xd5a>
    4fa0:	8b b5 60 ff ff ff    	mov    -0xa0(%ebp),%esi
    4fa6:	50                   	push   %eax
    4fa7:	68 8a 95 00 00       	push   $0x958a
    4fac:	6a 04                	push   $0x4
    4fae:	6a ff                	push   $0xffffffff
    4fb0:	e8 1b 58 00 00       	call   a7d0 <log_msg@plt>
    4fb5:	8b 85 6c ff ff ff    	mov    -0x94(%ebp),%eax
    4fbb:	8d 8d 68 ff ff ff    	lea    -0x98(%ebp),%ecx
    4fc1:	83 c4 10             	add    $0x10,%esp
    4fc4:	39 c8                	cmp    %ecx,%eax
    4fc6:	8d 50 f4             	lea    -0xc(%eax),%edx
    4fc9:	75 19                	jne    4fe4 <tcp_client_conn+0x534>
    4fcb:	e9 a8 04 00 00       	jmp    5478 <tcp_client_conn+0x9c8>
    4fd0:	8b 40 04             	mov    0x4(%eax),%eax
    4fd3:	8d 8d 68 ff ff ff    	lea    -0x98(%ebp),%ecx
    4fd9:	39 c8                	cmp    %ecx,%eax
    4fdb:	8d 50 f4             	lea    -0xc(%eax),%edx
    4fde:	0f 84 94 04 00 00    	je     5478 <tcp_client_conn+0x9c8>
    4fe4:	3b 7a 04             	cmp    0x4(%edx),%edi
    4fe7:	75 e7                	jne    4fd0 <tcp_client_conn+0x520>
    4fe9:	83 ec 0c             	sub    $0xc,%esp
    4fec:	8d 45 b4             	lea    -0x4c(%ebp),%eax
    4fef:	50                   	push   %eax
    4ff0:	8d 85 78 ff ff ff    	lea    -0x88(%ebp),%eax
    4ff6:	50                   	push   %eax
    4ff7:	56                   	push   %esi
    4ff8:	53                   	push   %ebx
    4ff9:	8b 32                	mov    (%edx),%esi
    4ffb:	56                   	push   %esi
    4ffc:	e8 6f 23 00 00       	call   7370 <tcp_uc_receive>
    5001:	83 c4 20             	add    $0x20,%esp
    5004:	85 c0                	test   %eax,%eax
    5006:	0f 84 de 03 00 00    	je     53ea <tcp_client_conn+0x93a>
    500c:	83 f8 0c             	cmp    $0xc,%eax
    500f:	0f 85 8e 07 00 00    	jne    57a3 <tcp_client_conn+0xcf3>
    5015:	51                   	push   %ecx
    5016:	68 9f 95 00 00       	push   $0x959f
    501b:	6a 04                	push   $0x4
    501d:	6a ff                	push   $0xffffffff
    501f:	be 06 d5 ff ff       	mov    $0xffffd506,%esi
    5024:	e8 a7 57 00 00       	call   a7d0 <log_msg@plt>
    5029:	83 c4 10             	add    $0x10,%esp
    502c:	b8 06 d5 ff ff       	mov    $0xffffd506,%eax
    5031:	50                   	push   %eax
    5032:	68 54 98 00 00       	push   $0x9854
    5037:	6a 04                	push   $0x4
    5039:	6a ff                	push   $0xffffffff
    503b:	e8 90 57 00 00       	call   a7d0 <log_msg@plt>
    5040:	58                   	pop    %eax
    5041:	5a                   	pop    %edx
    5042:	8b 85 5c ff ff ff    	mov    -0xa4(%ebp),%eax
    5048:	56                   	push   %esi
    5049:	50                   	push   %eax
    504a:	e8 51 57 00 00       	call   a7a0 <async_answer_0@plt>
    504f:	5f                   	pop    %edi
    5050:	58                   	pop    %eax
    5051:	56                   	push   %esi
    5052:	8b b5 44 ff ff ff    	mov    -0xbc(%ebp),%esi
    5058:	56                   	push   %esi
    5059:	e8 42 57 00 00       	call   a7a0 <async_answer_0@plt>
    505e:	89 1c 24             	mov    %ebx,(%esp)
    5061:	e8 ea 59 00 00       	call   aa50 <free@plt>
    5066:	83 c4 10             	add    $0x10,%esp
    5069:	e9 b2 fa ff ff       	jmp    4b20 <tcp_client_conn+0x70>
    506e:	66 90                	xchg   %ax,%ax
    5070:	50                   	push   %eax
    5071:	68 76 95 00 00       	push   $0x9576
    5076:	6a 04                	push   $0x4
    5078:	6a ff                	push   $0xffffffff
    507a:	e8 51 57 00 00       	call   a7d0 <log_msg@plt>
    507f:	58                   	pop    %eax
    5080:	8d 85 60 ff ff ff    	lea    -0xa0(%ebp),%eax
    5086:	5a                   	pop    %edx
    5087:	50                   	push   %eax
    5088:	8d 85 5c ff ff ff    	lea    -0xa4(%ebp),%eax
    508e:	50                   	push   %eax
    508f:	8b 7d 94             	mov    -0x6c(%ebp),%edi
    5092:	e8 69 58 00 00       	call   a900 <async_data_read_receive@plt>
    5097:	83 c4 10             	add    $0x10,%esp
    509a:	84 c0                	test   %al,%al
    509c:	0f 84 8e 01 00 00    	je     5230 <tcp_client_conn+0x780>
    50a2:	8b 85 60 ff ff ff    	mov    -0xa0(%ebp),%eax
    50a8:	3d 00 40 00 00       	cmp    $0x4000,%eax
    50ad:	76 05                	jbe    50b4 <tcp_client_conn+0x604>
    50af:	b8 00 40 00 00       	mov    $0x4000,%eax
    50b4:	83 ec 0c             	sub    $0xc,%esp
    50b7:	89 85 60 ff ff ff    	mov    %eax,-0xa0(%ebp)
    50bd:	50                   	push   %eax
    50be:	e8 bd 56 00 00       	call   a780 <malloc@plt>
    50c3:	83 c4 10             	add    $0x10,%esp
    50c6:	89 c3                	mov    %eax,%ebx
    50c8:	85 c0                	test   %eax,%eax
    50ca:	0f 84 12 07 00 00    	je     57e2 <tcp_client_conn+0xd32>
    50d0:	8b b5 60 ff ff ff    	mov    -0xa0(%ebp),%esi
    50d6:	51                   	push   %ecx
    50d7:	68 8a 95 00 00       	push   $0x958a
    50dc:	6a 04                	push   $0x4
    50de:	6a ff                	push   $0xffffffff
    50e0:	e8 eb 56 00 00       	call   a7d0 <log_msg@plt>
    50e5:	8b 85 6c ff ff ff    	mov    -0x94(%ebp),%eax
    50eb:	8d 8d 68 ff ff ff    	lea    -0x98(%ebp),%ecx
    50f1:	83 c4 10             	add    $0x10,%esp
    50f4:	39 c8                	cmp    %ecx,%eax
    50f6:	8d 50 f4             	lea    -0xc(%eax),%edx
    50f9:	75 19                	jne    5114 <tcp_client_conn+0x664>
    50fb:	e9 58 03 00 00       	jmp    5458 <tcp_client_conn+0x9a8>
    5100:	8b 40 04             	mov    0x4(%eax),%eax
    5103:	8d 8d 68 ff ff ff    	lea    -0x98(%ebp),%ecx
    5109:	39 c8                	cmp    %ecx,%eax
    510b:	8d 50 f4             	lea    -0xc(%eax),%edx
    510e:	0f 84 44 03 00 00    	je     5458 <tcp_client_conn+0x9a8>
    5114:	3b 7a 04             	cmp    0x4(%edx),%edi
    5117:	75 e7                	jne    5100 <tcp_client_conn+0x650>
    5119:	83 ec 0c             	sub    $0xc,%esp
    511c:	8d 45 b4             	lea    -0x4c(%ebp),%eax
    511f:	50                   	push   %eax
    5120:	8d 85 78 ff ff ff    	lea    -0x88(%ebp),%eax
    5126:	50                   	push   %eax
    5127:	56                   	push   %esi
    5128:	53                   	push   %ebx
    5129:	8b 02                	mov    (%edx),%eax
    512b:	50                   	push   %eax
    512c:	e8 3f 22 00 00       	call   7370 <tcp_uc_receive>
    5131:	83 c4 20             	add    $0x20,%esp
    5134:	85 c0                	test   %eax,%eax
    5136:	0f 84 f1 02 00 00    	je     542d <tcp_client_conn+0x97d>
    513c:	83 f8 0c             	cmp    $0xc,%eax
    513f:	0f 85 7f 06 00 00    	jne    57c4 <tcp_client_conn+0xd14>
    5145:	50                   	push   %eax
    5146:	68 9f 95 00 00       	push   $0x959f
    514b:	6a 04                	push   $0x4
    514d:	6a ff                	push   $0xffffffff
    514f:	e8 7c 56 00 00       	call   a7d0 <log_msg@plt>
    5154:	83 c4 10             	add    $0x10,%esp
    5157:	be 06 d5 ff ff       	mov    $0xffffd506,%esi
    515c:	50                   	push   %eax
    515d:	50                   	push   %eax
    515e:	e9 df fe ff ff       	jmp    5042 <tcp_client_conn+0x592>
    5163:	90                   	nop
    5164:	8d 74 26 00          	lea    0x0(%esi,%eiz,1),%esi
    5168:	50                   	push   %eax
    5169:	50                   	push   %eax
    516a:	8b 85 44 ff ff ff    	mov    -0xbc(%ebp),%eax
    5170:	6a 00                	push   $0x0
    5172:	50                   	push   %eax
    5173:	e8 28 56 00 00       	call   a7a0 <async_answer_0@plt>
    5178:	83 c4 0c             	add    $0xc,%esp
    517b:	68 5b 94 00 00       	push   $0x945b
    5180:	6a 04                	push   $0x4
    5182:	6a ff                	push   $0xffffffff
    5184:	e8 47 56 00 00       	call   a7d0 <log_msg@plt>
    5189:	8d 85 68 ff ff ff    	lea    -0x98(%ebp),%eax
    518f:	89 04 24             	mov    %eax,(%esp)
    5192:	e8 b9 57 00 00       	call   a950 <list_count@plt>
    5197:	83 c4 10             	add    $0x10,%esp
    519a:	85 c0                	test   %eax,%eax
    519c:	0f 85 c6 00 00 00    	jne    5268 <tcp_client_conn+0x7b8>
    51a2:	83 ec 0c             	sub    $0xc,%esp
    51a5:	8d 85 70 ff ff ff    	lea    -0x90(%ebp),%eax
    51ab:	50                   	push   %eax
    51ac:	e8 9f 57 00 00       	call   a950 <list_count@plt>
    51b1:	83 c4 10             	add    $0x10,%esp
    51b4:	85 c0                	test   %eax,%eax
    51b6:	0f 85 94 00 00 00    	jne    5250 <tcp_client_conn+0x7a0>
    51bc:	8b 85 64 ff ff ff    	mov    -0x9c(%ebp),%eax
    51c2:	85 c0                	test   %eax,%eax
    51c4:	74 0c                	je     51d2 <tcp_client_conn+0x722>
    51c6:	83 ec 0c             	sub    $0xc,%esp
    51c9:	50                   	push   %eax
    51ca:	e8 41 55 00 00       	call   a710 <async_hangup@plt>
    51cf:	83 c4 10             	add    $0x10,%esp
    51d2:	8d 65 f4             	lea    -0xc(%ebp),%esp
    51d5:	5b                   	pop    %ebx
    51d6:	5e                   	pop    %esi
    51d7:	5f                   	pop    %edi
    51d8:	5d                   	pop    %ebp
    51d9:	c3                   	ret    
    51da:	8d b6 00 00 00 00    	lea    0x0(%esi),%esi
    51e0:	8b bd 44 ff ff ff    	mov    -0xbc(%ebp),%edi
    51e6:	56                   	push   %esi
    51e7:	56                   	push   %esi
    51e8:	6a f5                	push   $0xfffffff5
    51ea:	57                   	push   %edi
    51eb:	e8 b0 55 00 00       	call   a7a0 <async_answer_0@plt>
    51f0:	83 c4 10             	add    $0x10,%esp
    51f3:	e9 28 f9 ff ff       	jmp    4b20 <tcp_client_conn+0x70>
    51f8:	50                   	push   %eax
    51f9:	68 a8 97 00 00       	push   $0x97a8
    51fe:	6a 04                	push   $0x4
    5200:	6a ff                	push   $0xffffffff
    5202:	e8 c9 55 00 00       	call   a7d0 <log_msg@plt>
    5207:	8b 8d 5c ff ff ff    	mov    -0xa4(%ebp),%ecx
    520d:	58                   	pop    %eax
    520e:	5a                   	pop    %edx
    520f:	6a fc                	push   $0xfffffffc
    5211:	51                   	push   %ecx
    5212:	e8 89 55 00 00       	call   a7a0 <async_answer_0@plt>
    5217:	5f                   	pop    %edi
    5218:	58                   	pop    %eax
    5219:	8b 85 44 ff ff ff    	mov    -0xbc(%ebp),%eax
    521f:	6a fc                	push   $0xfffffffc
    5221:	50                   	push   %eax
    5222:	e8 79 55 00 00       	call   a7a0 <async_answer_0@plt>
    5227:	83 c4 10             	add    $0x10,%esp
    522a:	e9 f1 f8 ff ff       	jmp    4b20 <tcp_client_conn+0x70>
    522f:	90                   	nop
    5230:	8b bd 5c ff ff ff    	mov    -0xa4(%ebp),%edi
    5236:	56                   	push   %esi
    5237:	56                   	push   %esi
    5238:	6a fc                	push   $0xfffffffc
    523a:	57                   	push   %edi
    523b:	eb d5                	jmp    5212 <tcp_client_conn+0x762>
    523d:	8d 76 00             	lea    0x0(%esi),%esi
    5240:	8b 8d 78 ff ff ff    	mov    -0x88(%ebp),%ecx
    5246:	52                   	push   %edx
    5247:	52                   	push   %edx
    5248:	6a f2                	push   $0xfffffff2
    524a:	51                   	push   %ecx
    524b:	e9 87 fc ff ff       	jmp    4ed7 <tcp_client_conn+0x427>
    5250:	50                   	push   %eax
    5251:	68 2c 97 00 00       	push   $0x972c
    5256:	6a 02                	push   $0x2
    5258:	6a ff                	push   $0xffffffff
    525a:	e8 71 55 00 00       	call   a7d0 <log_msg@plt>
    525f:	83 c4 10             	add    $0x10,%esp
    5262:	e9 55 ff ff ff       	jmp    51bc <tcp_client_conn+0x70c>
    5267:	90                   	nop
    5268:	50                   	push   %eax
    5269:	68 f8 96 00 00       	push   $0x96f8
    526e:	6a 02                	push   $0x2
    5270:	6a ff                	push   $0xffffffff
    5272:	e8 59 55 00 00       	call   a7d0 <log_msg@plt>
    5277:	eb 50                	jmp    52c9 <tcp_client_conn+0x819>
    5279:	8d b4 26 00 00 00 00 	lea    0x0(%esi,%eiz,1),%esi
    5280:	83 ec 0c             	sub    $0xc,%esp
    5283:	8b 46 f4             	mov    -0xc(%esi),%eax
    5286:	8d 5e f4             	lea    -0xc(%esi),%ebx
    5289:	50                   	push   %eax
    528a:	e8 51 22 00 00       	call   74e0 <tcp_uc_close>
    528f:	58                   	pop    %eax
    5290:	8b 46 f4             	mov    -0xc(%esi),%eax
    5293:	50                   	push   %eax
    5294:	e8 87 23 00 00       	call   7620 <tcp_uc_delete>
    5299:	8b 53 0c             	mov    0xc(%ebx),%edx
    529c:	83 c4 10             	add    $0x10,%esp
    529f:	85 d2                	test   %edx,%edx
    52a1:	74 0f                	je     52b2 <tcp_client_conn+0x802>
    52a3:	8b 43 10             	mov    0x10(%ebx),%eax
    52a6:	85 c0                	test   %eax,%eax
    52a8:	74 08                	je     52b2 <tcp_client_conn+0x802>
    52aa:	89 10                	mov    %edx,(%eax)
    52ac:	8b 53 0c             	mov    0xc(%ebx),%edx
    52af:	89 42 04             	mov    %eax,0x4(%edx)
    52b2:	83 ec 0c             	sub    $0xc,%esp
    52b5:	c7 43 0c 00 00 00 00 	movl   $0x0,0xc(%ebx)
    52bc:	c7 43 10 00 00 00 00 	movl   $0x0,0x10(%ebx)
    52c3:	53                   	push   %ebx
    52c4:	e8 87 57 00 00       	call   aa50 <free@plt>
    52c9:	8b b5 6c ff ff ff    	mov    -0x94(%ebp),%esi
    52cf:	8d 85 68 ff ff ff    	lea    -0x98(%ebp),%eax
    52d5:	83 c4 10             	add    $0x10,%esp
    52d8:	39 c6                	cmp    %eax,%esi
    52da:	75 a4                	jne    5280 <tcp_client_conn+0x7d0>
    52dc:	e9 c1 fe ff ff       	jmp    51a2 <tcp_client_conn+0x6f2>
    52e1:	8d b4 26 00 00 00 00 	lea    0x0(%esi,%eiz,1),%esi
    52e8:	8b bd 54 ff ff ff    	mov    -0xac(%ebp),%edi
    52ee:	56                   	push   %esi
    52ef:	56                   	push   %esi
    52f0:	6a fc                	push   $0xfffffffc
    52f2:	57                   	push   %edi
    52f3:	e9 1a ff ff ff       	jmp    5212 <tcp_client_conn+0x762>
    52f8:	50                   	push   %eax
    52f9:	50                   	push   %eax
    52fa:	8b 85 58 ff ff ff    	mov    -0xa8(%ebp),%eax
    5300:	6a fc                	push   $0xfffffffc
    5302:	50                   	push   %eax
    5303:	e9 0a ff ff ff       	jmp    5212 <tcp_client_conn+0x762>
    5308:	8b b5 78 ff ff ff    	mov    -0x88(%ebp),%esi
    530e:	53                   	push   %ebx
    530f:	53                   	push   %ebx
    5310:	6a fc                	push   $0xfffffffc
    5312:	56                   	push   %esi
    5313:	e9 fa fe ff ff       	jmp    5212 <tcp_client_conn+0x762>
    5318:	83 ec 0c             	sub    $0xc,%esp
    531b:	8b 0b                	mov    (%ebx),%ecx
    531d:	51                   	push   %ecx
    531e:	e8 bd 21 00 00       	call   74e0 <tcp_uc_close>
    5323:	8b 3b                	mov    (%ebx),%edi
    5325:	5e                   	pop    %esi
    5326:	57                   	push   %edi
    5327:	e8 f4 22 00 00       	call   7620 <tcp_uc_delete>
    532c:	8b 53 0c             	mov    0xc(%ebx),%edx
    532f:	83 c4 10             	add    $0x10,%esp
    5332:	85 d2                	test   %edx,%edx
    5334:	74 0f                	je     5345 <tcp_client_conn+0x895>
    5336:	8b 43 10             	mov    0x10(%ebx),%eax
    5339:	85 c0                	test   %eax,%eax
    533b:	74 08                	je     5345 <tcp_client_conn+0x895>
    533d:	89 10                	mov    %edx,(%eax)
    533f:	8b 53 0c             	mov    0xc(%ebx),%edx
    5342:	89 42 04             	mov    %eax,0x4(%edx)
    5345:	83 ec 0c             	sub    $0xc,%esp
    5348:	c7 43 0c 00 00 00 00 	movl   $0x0,0xc(%ebx)
    534f:	c7 43 10 00 00 00 00 	movl   $0x0,0x10(%ebx)
    5356:	53                   	push   %ebx
    5357:	e8 f4 56 00 00       	call   aa50 <free@plt>
    535c:	83 c4 10             	add    $0x10,%esp
    535f:	31 c0                	xor    %eax,%eax
    5361:	e9 bd f8 ff ff       	jmp    4c23 <tcp_client_conn+0x173>
    5366:	50                   	push   %eax
    5367:	8d 85 78 ff ff ff    	lea    -0x88(%ebp),%eax
    536d:	6a 18                	push   $0x18
    536f:	50                   	push   %eax
    5370:	8b 85 58 ff ff ff    	mov    -0xa8(%ebp),%eax
    5376:	50                   	push   %eax
    5377:	e8 04 56 00 00       	call   a980 <async_data_write_finalize@plt>
    537c:	83 c4 10             	add    $0x10,%esp
    537f:	89 c3                	mov    %eax,%ebx
    5381:	85 c0                	test   %eax,%eax
    5383:	0f 84 29 01 00 00    	je     54b2 <tcp_client_conn+0xa02>
    5389:	50                   	push   %eax
    538a:	50                   	push   %eax
    538b:	8b 85 58 ff ff ff    	mov    -0xa8(%ebp),%eax
    5391:	53                   	push   %ebx
    5392:	50                   	push   %eax
    5393:	e8 08 54 00 00       	call   a7a0 <async_answer_0@plt>
    5398:	8b 85 44 ff ff ff    	mov    -0xbc(%ebp),%eax
    539e:	5e                   	pop    %esi
    539f:	5f                   	pop    %edi
    53a0:	53                   	push   %ebx
    53a1:	50                   	push   %eax
    53a2:	e8 f9 53 00 00       	call   a7a0 <async_answer_0@plt>
    53a7:	83 c4 10             	add    $0x10,%esp
    53aa:	e9 71 f7 ff ff       	jmp    4b20 <tcp_client_conn+0x70>
    53af:	8b 95 54 ff ff ff    	mov    -0xac(%ebp),%edx
    53b5:	8d 75 b4             	lea    -0x4c(%ebp),%esi
    53b8:	50                   	push   %eax
    53b9:	6a 34                	push   $0x34
    53bb:	56                   	push   %esi
    53bc:	52                   	push   %edx
    53bd:	e8 be 55 00 00       	call   a980 <async_data_write_finalize@plt>
    53c2:	83 c4 10             	add    $0x10,%esp
    53c5:	89 c3                	mov    %eax,%ebx
    53c7:	85 c0                	test   %eax,%eax
    53c9:	0f 84 06 02 00 00    	je     55d5 <tcp_client_conn+0xb25>
    53cf:	50                   	push   %eax
    53d0:	50                   	push   %eax
    53d1:	8b 85 54 ff ff ff    	mov    -0xac(%ebp),%eax
    53d7:	53                   	push   %ebx
    53d8:	50                   	push   %eax
    53d9:	eb b8                	jmp    5393 <tcp_client_conn+0x8e3>
    53db:	57                   	push   %edi
    53dc:	57                   	push   %edi
    53dd:	50                   	push   %eax
    53de:	8b 85 78 ff ff ff    	mov    -0x88(%ebp),%eax
    53e4:	50                   	push   %eax
    53e5:	e9 60 fc ff ff       	jmp    504a <tcp_client_conn+0x59a>
    53ea:	8b 95 60 ff ff ff    	mov    -0xa0(%ebp),%edx
    53f0:	8b 8d 5c ff ff ff    	mov    -0xa4(%ebp),%ecx
    53f6:	50                   	push   %eax
    53f7:	52                   	push   %edx
    53f8:	53                   	push   %ebx
    53f9:	51                   	push   %ecx
    53fa:	e8 51 53 00 00       	call   a750 <async_data_read_finalize@plt>
    53ff:	83 c4 10             	add    $0x10,%esp
    5402:	85 c0                	test   %eax,%eax
    5404:	0f 84 4b 03 00 00    	je     5755 <tcp_client_conn+0xca5>
    540a:	89 85 40 ff ff ff    	mov    %eax,-0xc0(%ebp)
    5410:	50                   	push   %eax
    5411:	68 04 98 00 00       	push   $0x9804
    5416:	6a 04                	push   $0x4
    5418:	6a ff                	push   $0xffffffff
    541a:	e8 b1 53 00 00       	call   a7d0 <log_msg@plt>
    541f:	58                   	pop    %eax
    5420:	8b 85 40 ff ff ff    	mov    -0xc0(%ebp),%eax
    5426:	5a                   	pop    %edx
    5427:	50                   	push   %eax
    5428:	e9 25 fc ff ff       	jmp    5052 <tcp_client_conn+0x5a2>
    542d:	8b b5 60 ff ff ff    	mov    -0xa0(%ebp),%esi
    5433:	8b bd 5c ff ff ff    	mov    -0xa4(%ebp),%edi
    5439:	51                   	push   %ecx
    543a:	56                   	push   %esi
    543b:	53                   	push   %ebx
    543c:	57                   	push   %edi
    543d:	e8 0e 53 00 00       	call   a750 <async_data_read_finalize@plt>
    5442:	83 c4 10             	add    $0x10,%esp
    5445:	85 c0                	test   %eax,%eax
    5447:	0f 84 d1 02 00 00    	je     571e <tcp_client_conn+0xc6e>
    544d:	52                   	push   %edx
    544e:	52                   	push   %edx
    544f:	50                   	push   %eax
    5450:	e9 fd fb ff ff       	jmp    5052 <tcp_client_conn+0x5a2>
    5455:	8d 76 00             	lea    0x0(%esi),%esi
    5458:	52                   	push   %edx
    5459:	68 80 97 00 00       	push   $0x9780
    545e:	6a 04                	push   $0x4
    5460:	6a ff                	push   $0xffffffff
    5462:	e8 69 53 00 00       	call   a7d0 <log_msg@plt>
    5467:	83 c4 10             	add    $0x10,%esp
    546a:	83 ce ff             	or     $0xffffffff,%esi
    546d:	50                   	push   %eax
    546e:	50                   	push   %eax
    546f:	e9 ce fb ff ff       	jmp    5042 <tcp_client_conn+0x592>
    5474:	8d 74 26 00          	lea    0x0(%esi,%eiz,1),%esi
    5478:	57                   	push   %edi
    5479:	68 80 97 00 00       	push   $0x9780
    547e:	6a 04                	push   $0x4
    5480:	6a ff                	push   $0xffffffff
    5482:	83 ce ff             	or     $0xffffffff,%esi
    5485:	e8 46 53 00 00       	call   a7d0 <log_msg@plt>
    548a:	83 c4 10             	add    $0x10,%esp
    548d:	83 c8 ff             	or     $0xffffffff,%eax
    5490:	e9 9c fb ff ff       	jmp    5031 <tcp_client_conn+0x581>
    5495:	83 c8 ff             	or     $0xffffffff,%eax
    5498:	eb b3                	jmp    544d <tcp_client_conn+0x99d>
    549a:	8b bd 44 ff ff ff    	mov    -0xbc(%ebp),%edi
    54a0:	56                   	push   %esi
    54a1:	56                   	push   %esi
    54a2:	6a fe                	push   $0xfffffffe
    54a4:	57                   	push   %edi
    54a5:	e8 f6 52 00 00       	call   a7a0 <async_answer_0@plt>
    54aa:	83 c4 10             	add    $0x10,%esp
    54ad:	e9 6e f6 ff ff       	jmp    4b20 <tcp_client_conn+0x70>
    54b2:	8d 5d b4             	lea    -0x4c(%ebp),%ebx
    54b5:	51                   	push   %ecx
    54b6:	68 ec 94 00 00       	push   $0x94ec
    54bb:	6a 04                	push   $0x4
    54bd:	6a ff                	push   $0xffffffff
    54bf:	e8 0c 53 00 00       	call   a7d0 <log_msg@plt>
    54c4:	89 1c 24             	mov    %ebx,(%esp)
    54c7:	e8 b4 53 00 00       	call   a880 <inet_ep2_init@plt>
    54cc:	8b 85 78 ff ff ff    	mov    -0x88(%ebp),%eax
    54d2:	89 45 b8             	mov    %eax,-0x48(%ebp)
    54d5:	8b 85 7c ff ff ff    	mov    -0x84(%ebp),%eax
    54db:	89 45 bc             	mov    %eax,-0x44(%ebp)
    54de:	8b 45 80             	mov    -0x80(%ebp),%eax
    54e1:	89 45 c0             	mov    %eax,-0x40(%ebp)
    54e4:	8b 45 84             	mov    -0x7c(%ebp),%eax
    54e7:	89 45 c4             	mov    %eax,-0x3c(%ebp)
    54ea:	8b 45 88             	mov    -0x78(%ebp),%eax
    54ed:	89 45 c8             	mov    %eax,-0x38(%ebp)
    54f0:	8b 45 8c             	mov    -0x74(%ebp),%eax
    54f3:	66 89 45 cc          	mov    %ax,-0x34(%ebp)
    54f7:	8d 85 60 ff ff ff    	lea    -0xa0(%ebp),%eax
    54fd:	50                   	push   %eax
    54fe:	6a 01                	push   $0x1
    5500:	6a 01                	push   $0x1
    5502:	53                   	push   %ebx
    5503:	e8 08 1b 00 00       	call   7010 <tcp_uc_open>
    5508:	83 c4 20             	add    $0x20,%esp
    550b:	85 c0                	test   %eax,%eax
    550d:	0f 85 4f 03 00 00    	jne    5862 <tcp_client_conn+0xdb2>
    5513:	8b bd 60 ff ff ff    	mov    -0xa0(%ebp),%edi
    5519:	c7 07 06 94 00 00    	movl   $0x9406,(%edi)
    551f:	52                   	push   %edx
    5520:	52                   	push   %edx
    5521:	6a 2c                	push   $0x2c
    5523:	6a 01                	push   $0x1
    5525:	e8 16 53 00 00       	call   a840 <calloc@plt>
    552a:	83 c4 10             	add    $0x10,%esp
    552d:	89 c3                	mov    %eax,%ebx
    552f:	85 c0                	test   %eax,%eax
    5531:	0f 84 02 03 00 00    	je     5839 <tcp_client_conn+0xd89>
    5537:	8b 95 74 ff ff ff    	mov    -0x8c(%ebp),%edx
    553d:	8d b5 70 ff ff ff    	lea    -0x90(%ebp),%esi
    5543:	31 c0                	xor    %eax,%eax
    5545:	39 f2                	cmp    %esi,%edx
    5547:	8d 4a dc             	lea    -0x24(%edx),%ecx
    554a:	74 20                	je     556c <tcp_client_conn+0xabc>
    554c:	8d 74 26 00          	lea    0x0(%esi,%eiz,1),%esi
    5550:	8b 49 1c             	mov    0x1c(%ecx),%ecx
    5553:	39 c1                	cmp    %eax,%ecx
    5555:	8d 71 01             	lea    0x1(%ecx),%esi
    5558:	72 02                	jb     555c <tcp_client_conn+0xaac>
    555a:	89 f0                	mov    %esi,%eax
    555c:	8b 52 04             	mov    0x4(%edx),%edx
    555f:	8d b5 70 ff ff ff    	lea    -0x90(%ebp),%esi
    5565:	39 f2                	cmp    %esi,%edx
    5567:	8d 4a dc             	lea    -0x24(%edx),%ecx
    556a:	75 e4                	jne    5550 <tcp_client_conn+0xaa0>
    556c:	89 43 1c             	mov    %eax,0x1c(%ebx)
    556f:	89 7b 18             	mov    %edi,0x18(%ebx)
    5572:	8b 95 70 ff ff ff    	mov    -0x90(%ebp),%edx
    5578:	8d 85 64 ff ff ff    	lea    -0x9c(%ebp),%eax
    557e:	8d bd 70 ff ff ff    	lea    -0x90(%ebp),%edi
    5584:	89 43 20             	mov    %eax,0x20(%ebx)
    5587:	89 7b 28             	mov    %edi,0x28(%ebx)
    558a:	8d 43 24             	lea    0x24(%ebx),%eax
    558d:	8d 75 b8             	lea    -0x48(%ebp),%esi
    5590:	b9 06 00 00 00       	mov    $0x6,%ecx
    5595:	89 df                	mov    %ebx,%edi
    5597:	89 53 24             	mov    %edx,0x24(%ebx)
    559a:	89 42 04             	mov    %eax,0x4(%edx)
    559d:	89 85 70 ff ff ff    	mov    %eax,-0x90(%ebp)
    55a3:	f3 a5                	rep movsl %ds:(%esi),%es:(%edi)
    55a5:	50                   	push   %eax
    55a6:	8b 85 60 ff ff ff    	mov    -0xa0(%ebp),%eax
    55ac:	53                   	push   %ebx
    55ad:	68 e0 c4 00 00       	push   $0xc4e0
    55b2:	50                   	push   %eax
    55b3:	e8 98 20 00 00       	call   7650 <tcp_uc_set_cb>
    55b8:	83 c4 0c             	add    $0xc,%esp
    55bb:	8b 43 1c             	mov    0x1c(%ebx),%eax
    55be:	50                   	push   %eax
    55bf:	8b 85 44 ff ff ff    	mov    -0xbc(%ebp),%eax
    55c5:	6a 00                	push   $0x0
    55c7:	50                   	push   %eax
    55c8:	e8 93 53 00 00       	call   a960 <async_answer_1@plt>
    55cd:	83 c4 10             	add    $0x10,%esp
    55d0:	e9 4b f5 ff ff       	jmp    4b20 <tcp_client_conn+0x70>
    55d5:	51                   	push   %ecx
    55d6:	68 a6 94 00 00       	push   $0x94a6
    55db:	6a 04                	push   $0x4
    55dd:	6a ff                	push   $0xffffffff
    55df:	e8 ec 51 00 00       	call   a7d0 <log_msg@plt>
    55e4:	8d 85 60 ff ff ff    	lea    -0xa0(%ebp),%eax
    55ea:	5b                   	pop    %ebx
    55eb:	5f                   	pop    %edi
    55ec:	50                   	push   %eax
    55ed:	8d 45 b8             	lea    -0x48(%ebp),%eax
    55f0:	50                   	push   %eax
    55f1:	e8 7a 52 00 00       	call   a870 <inet_addr_format@plt>
    55f6:	58                   	pop    %eax
    55f7:	8d 85 78 ff ff ff    	lea    -0x88(%ebp),%eax
    55fd:	5a                   	pop    %edx
    55fe:	50                   	push   %eax
    55ff:	8d 45 d0             	lea    -0x30(%ebp),%eax
    5602:	50                   	push   %eax
    5603:	e8 68 52 00 00       	call   a870 <inet_addr_format@plt>
    5608:	8b 9d 78 ff ff ff    	mov    -0x88(%ebp),%ebx
    560e:	8b bd 60 ff ff ff    	mov    -0xa0(%ebp),%edi
    5614:	59                   	pop    %ecx
    5615:	53                   	push   %ebx
    5616:	57                   	push   %edi
    5617:	68 5c 97 00 00       	push   $0x975c
    561c:	6a 04                	push   $0x4
    561e:	6a ff                	push   $0xffffffff
    5620:	e8 ab 51 00 00       	call   a7d0 <log_msg@plt>
    5625:	83 c4 14             	add    $0x14,%esp
    5628:	8b 85 60 ff ff ff    	mov    -0xa0(%ebp),%eax
    562e:	50                   	push   %eax
    562f:	e8 1c 54 00 00       	call   aa50 <free@plt>
    5634:	58                   	pop    %eax
    5635:	8b 85 78 ff ff ff    	mov    -0x88(%ebp),%eax
    563b:	50                   	push   %eax
    563c:	e8 0f 54 00 00       	call   aa50 <free@plt>
    5641:	8d 85 5c ff ff ff    	lea    -0xa4(%ebp),%eax
    5647:	50                   	push   %eax
    5648:	6a 01                	push   $0x1
    564a:	6a 00                	push   $0x0
    564c:	56                   	push   %esi
    564d:	e8 be 19 00 00       	call   7010 <tcp_uc_open>
    5652:	83 c4 20             	add    $0x20,%esp
    5655:	85 c0                	test   %eax,%eax
    5657:	0f 85 05 02 00 00    	jne    5862 <tcp_client_conn+0xdb2>
    565d:	8b 85 5c ff ff ff    	mov    -0xa4(%ebp),%eax
    5663:	89 85 40 ff ff ff    	mov    %eax,-0xc0(%ebp)
    5669:	c7 00 24 a4 00 00    	movl   $0xa424,(%eax)
    566f:	52                   	push   %edx
    5670:	52                   	push   %edx
    5671:	6a 14                	push   $0x14
    5673:	6a 01                	push   $0x1
    5675:	e8 c6 51 00 00       	call   a840 <calloc@plt>
    567a:	83 c4 10             	add    $0x10,%esp
    567d:	89 c7                	mov    %eax,%edi
    567f:	85 c0                	test   %eax,%eax
    5681:	0f 84 96 01 00 00    	je     581d <tcp_client_conn+0xd6d>
    5687:	8b 8d 6c ff ff ff    	mov    -0x94(%ebp),%ecx
    568d:	8d b5 68 ff ff ff    	lea    -0x98(%ebp),%esi
    5693:	31 d2                	xor    %edx,%edx
    5695:	39 f1                	cmp    %esi,%ecx
    5697:	8d 41 f4             	lea    -0xc(%ecx),%eax
    569a:	74 20                	je     56bc <tcp_client_conn+0xc0c>
    569c:	8d 74 26 00          	lea    0x0(%esi,%eiz,1),%esi
    56a0:	8b 40 04             	mov    0x4(%eax),%eax
    56a3:	39 d0                	cmp    %edx,%eax
    56a5:	8d 58 01             	lea    0x1(%eax),%ebx
    56a8:	72 02                	jb     56ac <tcp_client_conn+0xbfc>
    56aa:	89 da                	mov    %ebx,%edx
    56ac:	8b 49 04             	mov    0x4(%ecx),%ecx
    56af:	8d b5 68 ff ff ff    	lea    -0x98(%ebp),%esi
    56b5:	39 f1                	cmp    %esi,%ecx
    56b7:	8d 41 f4             	lea    -0xc(%ecx),%eax
    56ba:	75 e4                	jne    56a0 <tcp_client_conn+0xbf0>
    56bc:	8d 85 64 ff ff ff    	lea    -0x9c(%ebp),%eax
    56c2:	89 57 04             	mov    %edx,0x4(%edi)
    56c5:	89 47 08             	mov    %eax,0x8(%edi)
    56c8:	8b 95 68 ff ff ff    	mov    -0x98(%ebp),%edx
    56ce:	8b 85 40 ff ff ff    	mov    -0xc0(%ebp),%eax
    56d4:	8d b5 68 ff ff ff    	lea    -0x98(%ebp),%esi
    56da:	89 07                	mov    %eax,(%edi)
    56dc:	8d 47 0c             	lea    0xc(%edi),%eax
    56df:	89 57 0c             	mov    %edx,0xc(%edi)
    56e2:	89 77 10             	mov    %esi,0x10(%edi)
    56e5:	89 42 04             	mov    %eax,0x4(%edx)
    56e8:	89 85 68 ff ff ff    	mov    %eax,-0x98(%ebp)
    56ee:	50                   	push   %eax
    56ef:	8b 85 5c ff ff ff    	mov    -0xa4(%ebp),%eax
    56f5:	57                   	push   %edi
    56f6:	68 e8 c4 00 00       	push   $0xc4e8
    56fb:	50                   	push   %eax
    56fc:	e8 4f 1f 00 00       	call   7650 <tcp_uc_set_cb>
    5701:	83 c4 0c             	add    $0xc,%esp
    5704:	8b 47 04             	mov    0x4(%edi),%eax
    5707:	50                   	push   %eax
    5708:	8b 85 44 ff ff ff    	mov    -0xbc(%ebp),%eax
    570e:	6a 00                	push   $0x0
    5710:	50                   	push   %eax
    5711:	e8 4a 52 00 00       	call   a960 <async_answer_1@plt>
    5716:	83 c4 10             	add    $0x10,%esp
    5719:	e9 02 f4 ff ff       	jmp    4b20 <tcp_client_conn+0x70>
    571e:	50                   	push   %eax
    571f:	8b 85 78 ff ff ff    	mov    -0x88(%ebp),%eax
    5725:	50                   	push   %eax
    5726:	8b 85 44 ff ff ff    	mov    -0xbc(%ebp),%eax
    572c:	6a 00                	push   $0x0
    572e:	50                   	push   %eax
    572f:	e8 2c 52 00 00       	call   a960 <async_answer_1@plt>
    5734:	89 1c 24             	mov    %ebx,(%esp)
    5737:	e8 14 53 00 00       	call   aa50 <free@plt>
    573c:	83 c4 0c             	add    $0xc,%esp
    573f:	68 db 95 00 00       	push   $0x95db
    5744:	6a 04                	push   $0x4
    5746:	6a ff                	push   $0xffffffff
    5748:	e8 83 50 00 00       	call   a7d0 <log_msg@plt>
    574d:	83 c4 10             	add    $0x10,%esp
    5750:	e9 cb f3 ff ff       	jmp    4b20 <tcp_client_conn+0x70>
    5755:	8b 85 60 ff ff ff    	mov    -0xa0(%ebp),%eax
    575b:	50                   	push   %eax
    575c:	68 30 98 00 00       	push   $0x9830
    5761:	6a 04                	push   $0x4
    5763:	6a ff                	push   $0xffffffff
    5765:	e8 66 50 00 00       	call   a7d0 <log_msg@plt>
    576a:	83 c4 0c             	add    $0xc,%esp
    576d:	8b 85 78 ff ff ff    	mov    -0x88(%ebp),%eax
    5773:	50                   	push   %eax
    5774:	8b 85 44 ff ff ff    	mov    -0xbc(%ebp),%eax
    577a:	6a 00                	push   $0x0
    577c:	50                   	push   %eax
    577d:	e8 de 51 00 00       	call   a960 <async_answer_1@plt>
    5782:	89 1c 24             	mov    %ebx,(%esp)
    5785:	e8 c6 52 00 00       	call   aa50 <free@plt>
    578a:	83 c4 0c             	add    $0xc,%esp
    578d:	68 0c 96 00 00       	push   $0x960c
    5792:	6a 04                	push   $0x4
    5794:	6a ff                	push   $0xffffffff
    5796:	e8 35 50 00 00       	call   a7d0 <log_msg@plt>
    579b:	83 c4 10             	add    $0x10,%esp
    579e:	e9 7d f3 ff ff       	jmp    4b20 <tcp_client_conn+0x70>
    57a3:	50                   	push   %eax
    57a4:	68 bd 95 00 00       	push   $0x95bd
    57a9:	6a 04                	push   $0x4
    57ab:	6a ff                	push   $0xffffffff
    57ad:	be f6 fe ff ff       	mov    $0xfffffef6,%esi
    57b2:	e8 19 50 00 00       	call   a7d0 <log_msg@plt>
    57b7:	83 c4 10             	add    $0x10,%esp
    57ba:	b8 f6 fe ff ff       	mov    $0xfffffef6,%eax
    57bf:	e9 6d f8 ff ff       	jmp    5031 <tcp_client_conn+0x581>
    57c4:	50                   	push   %eax
    57c5:	68 bd 95 00 00       	push   $0x95bd
    57ca:	6a 04                	push   $0x4
    57cc:	6a ff                	push   $0xffffffff
    57ce:	e8 fd 4f 00 00       	call   a7d0 <log_msg@plt>
    57d3:	83 c4 10             	add    $0x10,%esp
    57d6:	be f6 fe ff ff       	mov    $0xfffffef6,%esi
    57db:	50                   	push   %eax
    57dc:	50                   	push   %eax
    57dd:	e9 60 f8 ff ff       	jmp    5042 <tcp_client_conn+0x592>
    57e2:	53                   	push   %ebx
    57e3:	53                   	push   %ebx
    57e4:	8b 9d 5c ff ff ff    	mov    -0xa4(%ebp),%ebx
    57ea:	6a fe                	push   $0xfffffffe
    57ec:	53                   	push   %ebx
    57ed:	e8 ae 4f 00 00       	call   a7a0 <async_answer_0@plt>
    57f2:	8b 8d 44 ff ff ff    	mov    -0xbc(%ebp),%ecx
    57f8:	58                   	pop    %eax
    57f9:	5a                   	pop    %edx
    57fa:	6a fe                	push   $0xfffffffe
    57fc:	51                   	push   %ecx
    57fd:	e8 9e 4f 00 00       	call   a7a0 <async_answer_0@plt>
    5802:	83 c4 10             	add    $0x10,%esp
    5805:	e9 16 f3 ff ff       	jmp    4b20 <tcp_client_conn+0x70>
    580a:	56                   	push   %esi
    580b:	68 d8 97 00 00       	push   $0x97d8
    5810:	6a 04                	push   $0x4
    5812:	6a ff                	push   $0xffffffff
    5814:	e8 b7 4f 00 00       	call   a7d0 <log_msg@plt>
    5819:	5f                   	pop    %edi
    581a:	58                   	pop    %eax
    581b:	eb c7                	jmp    57e4 <tcp_client_conn+0xd34>
    581d:	83 ec 0c             	sub    $0xc,%esp
    5820:	8b 85 5c ff ff ff    	mov    -0xa4(%ebp),%eax
    5826:	50                   	push   %eax
    5827:	e8 74 c1 ff ff       	call   19a0 <tcp_conn_delete>
    582c:	83 c4 10             	add    $0x10,%esp
    582f:	b8 fe ff ff ff       	mov    $0xfffffffe,%eax
    5834:	e9 ea f3 ff ff       	jmp    4c23 <tcp_client_conn+0x173>
    5839:	83 ec 0c             	sub    $0xc,%esp
    583c:	8b 85 60 ff ff ff    	mov    -0xa0(%ebp),%eax
    5842:	50                   	push   %eax
    5843:	e8 58 c1 ff ff       	call   19a0 <tcp_conn_delete>
    5848:	83 c4 10             	add    $0x10,%esp
    584b:	b8 fe ff ff ff       	mov    $0xfffffffe,%eax
    5850:	e9 ce f3 ff ff       	jmp    4c23 <tcp_client_conn+0x173>
    5855:	50                   	push   %eax
    5856:	50                   	push   %eax
    5857:	8b 85 78 ff ff ff    	mov    -0x88(%ebp),%eax
    585d:	6a fe                	push   $0xfffffffe
    585f:	50                   	push   %eax
    5860:	eb 8b                	jmp    57ed <tcp_client_conn+0xd3d>
    5862:	b8 f6 fe ff ff       	mov    $0xfffffef6,%eax
    5867:	e9 b7 f3 ff ff       	jmp    4c23 <tcp_client_conn+0x173>
    586c:	8d 74 26 00          	lea    0x0(%esi,%eiz,1),%esi

00005870 <tcp_service_init>:
    5870:	55                   	push   %ebp
    5871:	89 e5                	mov    %esp,%ebp
    5873:	83 ec 20             	sub    $0x20,%esp
    5876:	6a 00                	push   $0x0
    5878:	68 b0 4a 00 00       	push   $0x4ab0
    587d:	e8 8e 51 00 00       	call   aa10 <async_set_fallback_port_handler@plt>
    5882:	c7 04 24 48 96 00 00 	movl   $0x9648,(%esp)
    5889:	e8 92 50 00 00       	call   a920 <loc_server_register@plt>
    588e:	83 c4 10             	add    $0x10,%esp
    5891:	85 c0                	test   %eax,%eax
    5893:	75 3b                	jne    58d0 <tcp_service_init+0x60>
    5895:	8d 45 f4             	lea    -0xc(%ebp),%eax
    5898:	52                   	push   %edx
    5899:	52                   	push   %edx
    589a:	50                   	push   %eax
    589b:	68 44 96 00 00       	push   $0x9644
    58a0:	e8 9b 4e 00 00       	call   a740 <loc_service_register@plt>
    58a5:	83 c4 10             	add    $0x10,%esp
    58a8:	85 c0                	test   %eax,%eax
    58aa:	75 04                	jne    58b0 <tcp_service_init+0x40>
    58ac:	c9                   	leave  
    58ad:	c3                   	ret    
    58ae:	66 90                	xchg   %ax,%ax
    58b0:	50                   	push   %eax
    58b1:	68 4c 96 00 00       	push   $0x964c
    58b6:	6a 01                	push   $0x1
    58b8:	6a ff                	push   $0xffffffff
    58ba:	e8 11 4f 00 00       	call   a7d0 <log_msg@plt>
    58bf:	83 c4 10             	add    $0x10,%esp
    58c2:	b8 f6 fe ff ff       	mov    $0xfffffef6,%eax
    58c7:	c9                   	leave  
    58c8:	c3                   	ret    
    58c9:	8d b4 26 00 00 00 00 	lea    0x0(%esi,%eiz,1),%esi
    58d0:	51                   	push   %ecx
    58d1:	68 29 96 00 00       	push   $0x9629
    58d6:	eb de                	jmp    58b6 <tcp_service_init+0x46>
    58d8:	66 90                	xchg   %ax,%ax
    58da:	66 90                	xchg   %ax,%ax
    58dc:	66 90                	xchg   %ax,%ax
    58de:	66 90                	xchg   %ax,%ax

000058e0 <seq_no_ack_acceptable>:
    58e0:	55                   	push   %ebp
    58e1:	89 e5                	mov    %esp,%ebp
    58e3:	53                   	push   %ebx
    58e4:	8b 45 08             	mov    0x8(%ebp),%eax
    58e7:	8b 55 0c             	mov    0xc(%ebp),%edx
    58ea:	8b 98 c8 00 00 00    	mov    0xc8(%eax),%ebx
    58f0:	8b 88 c4 00 00 00    	mov    0xc4(%eax),%ecx
    58f6:	39 cb                	cmp    %ecx,%ebx
    58f8:	73 16                	jae    5910 <seq_no_ack_acceptable+0x30>
    58fa:	39 d3                	cmp    %edx,%ebx
    58fc:	5b                   	pop    %ebx
    58fd:	0f 93 c0             	setae  %al
    5900:	39 d1                	cmp    %edx,%ecx
    5902:	5d                   	pop    %ebp
    5903:	0f 92 c2             	setb   %dl
    5906:	09 d0                	or     %edx,%eax
    5908:	c3                   	ret    
    5909:	8d b4 26 00 00 00 00 	lea    0x0(%esi,%eiz,1),%esi
    5910:	39 d1                	cmp    %edx,%ecx
    5912:	0f 92 c0             	setb   %al
    5915:	39 d3                	cmp    %edx,%ebx
    5917:	5b                   	pop    %ebx
    5918:	0f 93 c2             	setae  %dl
    591b:	21 d0                	and    %edx,%eax
    591d:	5d                   	pop    %ebp
    591e:	c3                   	ret    
    591f:	90                   	nop

00005920 <seq_no_ack_duplicate>:
    5920:	55                   	push   %ebp
    5921:	89 e5                	mov    %esp,%ebp
    5923:	8b 55 08             	mov    0x8(%ebp),%edx
    5926:	8b 45 0c             	mov    0xc(%ebp),%eax
    5929:	5d                   	pop    %ebp
    592a:	8b 8a c4 00 00 00    	mov    0xc4(%edx),%ecx
    5930:	29 c8                	sub    %ecx,%eax
    5932:	85 c0                	test   %eax,%eax
    5934:	0f 9e c0             	setle  %al
    5937:	c3                   	ret    
    5938:	90                   	nop
    5939:	8d b4 26 00 00 00 00 	lea    0x0(%esi,%eiz,1),%esi

00005940 <seq_no_in_rcv_wnd>:
    5940:	55                   	push   %ebp
    5941:	89 e5                	mov    %esp,%ebp
    5943:	53                   	push   %ebx
    5944:	8b 55 08             	mov    0x8(%ebp),%edx
    5947:	8b 4d 0c             	mov    0xc(%ebp),%ecx
    594a:	8b 82 e0 00 00 00    	mov    0xe0(%edx),%eax
    5950:	89 c3                	mov    %eax,%ebx
    5952:	03 9a e4 00 00 00    	add    0xe4(%edx),%ebx
    5958:	72 0f                	jb     5969 <seq_no_in_rcv_wnd+0x29>
    595a:	39 c8                	cmp    %ecx,%eax
    595c:	0f 96 c0             	setbe  %al
    595f:	39 cb                	cmp    %ecx,%ebx
    5961:	0f 97 c2             	seta   %dl
    5964:	21 d0                	and    %edx,%eax
    5966:	5b                   	pop    %ebx
    5967:	5d                   	pop    %ebp
    5968:	c3                   	ret    
    5969:	39 cb                	cmp    %ecx,%ebx
    596b:	0f 97 c2             	seta   %dl
    596e:	39 c8                	cmp    %ecx,%eax
    5970:	0f 96 c0             	setbe  %al
    5973:	09 d0                	or     %edx,%eax
    5975:	eb ef                	jmp    5966 <seq_no_in_rcv_wnd+0x26>
    5977:	89 f6                	mov    %esi,%esi
    5979:	8d bc 27 00 00 00 00 	lea    0x0(%edi,%eiz,1),%edi

00005980 <seq_no_new_wnd_update>:
    5980:	55                   	push   %ebp
    5981:	89 e5                	mov    %esp,%ebp
    5983:	57                   	push   %edi
    5984:	56                   	push   %esi
    5985:	53                   	push   %ebx
    5986:	83 ec 1c             	sub    $0x1c,%esp
    5989:	8b 4d 08             	mov    0x8(%ebp),%ecx
    598c:	8b 81 e0 00 00 00    	mov    0xe0(%ecx),%eax
    5992:	8b b9 e4 00 00 00    	mov    0xe4(%ecx),%edi
    5998:	89 c2                	mov    %eax,%edx
    599a:	89 7d dc             	mov    %edi,-0x24(%ebp)
    599d:	01 fa                	add    %edi,%edx
    599f:	89 55 e4             	mov    %edx,-0x1c(%ebp)
    59a2:	0f 82 3a 01 00 00    	jb     5ae2 <seq_no_new_wnd_update+0x162>
    59a8:	31 db                	xor    %ebx,%ebx
    59aa:	8b 75 0c             	mov    0xc(%ebp),%esi
    59ad:	85 db                	test   %ebx,%ebx
    59af:	8b 56 04             	mov    0x4(%esi),%edx
    59b2:	0f 85 90 00 00 00    	jne    5a48 <seq_no_new_wnd_update+0xc8>
    59b8:	39 d0                	cmp    %edx,%eax
    59ba:	89 f7                	mov    %esi,%edi
    59bc:	0f 96 c3             	setbe  %bl
    59bf:	89 de                	mov    %ebx,%esi
    59c1:	39 55 e4             	cmp    %edx,-0x1c(%ebp)
    59c4:	0f 97 c3             	seta   %bl
    59c7:	21 de                	and    %ebx,%esi
    59c9:	89 f3                	mov    %esi,%ebx
    59cb:	8b 77 0c             	mov    0xc(%edi),%esi
    59ce:	88 5d e3             	mov    %bl,-0x1d(%ebp)
    59d1:	8d 5c 32 ff          	lea    -0x1(%edx,%esi,1),%ebx
    59d5:	89 df                	mov    %ebx,%edi
    59d7:	39 c3                	cmp    %eax,%ebx
    59d9:	0f 93 c3             	setae  %bl
    59dc:	3b 7d e4             	cmp    -0x1c(%ebp),%edi
    59df:	0f 92 c0             	setb   %al
    59e2:	21 c3                	and    %eax,%ebx
    59e4:	85 f6                	test   %esi,%esi
    59e6:	74 50                	je     5a38 <seq_no_new_wnd_update+0xb8>
    59e8:	8b 75 dc             	mov    -0x24(%ebp),%esi
    59eb:	85 f6                	test   %esi,%esi
    59ed:	0f 84 dd 00 00 00    	je     5ad0 <seq_no_new_wnd_update+0x150>
    59f3:	08 5d e3             	or     %bl,-0x1d(%ebp)
    59f6:	80 7d e3 00          	cmpb   $0x0,-0x1d(%ebp)
    59fa:	0f 84 d0 00 00 00    	je     5ad0 <seq_no_new_wnd_update+0x150>
    5a00:	8b 81 c4 00 00 00    	mov    0xc4(%ecx),%eax
    5a06:	8b 99 cc 00 00 00    	mov    0xcc(%ecx),%ebx
    5a0c:	01 c3                	add    %eax,%ebx
    5a0e:	8b b1 d4 00 00 00    	mov    0xd4(%ecx),%esi
    5a14:	39 d3                	cmp    %edx,%ebx
    5a16:	0f 93 c0             	setae  %al
    5a19:	89 c7                	mov    %eax,%edi
    5a1b:	39 d6                	cmp    %edx,%esi
    5a1d:	0f 92 c0             	setb   %al
    5a20:	39 f3                	cmp    %esi,%ebx
    5a22:	73 5c                	jae    5a80 <seq_no_new_wnd_update+0x100>
    5a24:	09 f8                	or     %edi,%eax
    5a26:	31 ff                	xor    %edi,%edi
    5a28:	39 d6                	cmp    %edx,%esi
    5a2a:	74 5c                	je     5a88 <seq_no_new_wnd_update+0x108>
    5a2c:	8d 65 f4             	lea    -0xc(%ebp),%esp
    5a2f:	09 f8                	or     %edi,%eax
    5a31:	5b                   	pop    %ebx
    5a32:	5e                   	pop    %esi
    5a33:	5f                   	pop    %edi
    5a34:	5d                   	pop    %ebp
    5a35:	c3                   	ret    
    5a36:	66 90                	xchg   %ax,%ax
    5a38:	8b 7d dc             	mov    -0x24(%ebp),%edi
    5a3b:	85 ff                	test   %edi,%edi
    5a3d:	75 b7                	jne    59f6 <seq_no_new_wnd_update+0x76>
    5a3f:	39 55 e4             	cmp    %edx,-0x1c(%ebp)
    5a42:	0f 94 45 e3          	sete   -0x1d(%ebp)
    5a46:	eb ae                	jmp    59f6 <seq_no_new_wnd_update+0x76>
    5a48:	8b 7d e4             	mov    -0x1c(%ebp),%edi
    5a4b:	39 d7                	cmp    %edx,%edi
    5a4d:	0f 97 c3             	seta   %bl
    5a50:	89 de                	mov    %ebx,%esi
    5a52:	39 d0                	cmp    %edx,%eax
    5a54:	0f 96 c3             	setbe  %bl
    5a57:	09 de                	or     %ebx,%esi
    5a59:	89 f3                	mov    %esi,%ebx
    5a5b:	8b 75 0c             	mov    0xc(%ebp),%esi
    5a5e:	88 5d e3             	mov    %bl,-0x1d(%ebp)
    5a61:	8b 76 0c             	mov    0xc(%esi),%esi
    5a64:	8d 5c 32 ff          	lea    -0x1(%edx,%esi,1),%ebx
    5a68:	89 5d d8             	mov    %ebx,-0x28(%ebp)
    5a6b:	39 df                	cmp    %ebx,%edi
    5a6d:	0f 97 c3             	seta   %bl
    5a70:	3b 45 d8             	cmp    -0x28(%ebp),%eax
    5a73:	0f 96 c0             	setbe  %al
    5a76:	09 c3                	or     %eax,%ebx
    5a78:	e9 67 ff ff ff       	jmp    59e4 <seq_no_new_wnd_update+0x64>
    5a7d:	8d 76 00             	lea    0x0(%esi),%esi
    5a80:	21 f8                	and    %edi,%eax
    5a82:	31 ff                	xor    %edi,%edi
    5a84:	39 d6                	cmp    %edx,%esi
    5a86:	75 a4                	jne    5a2c <seq_no_new_wnd_update+0xac>
    5a88:	8b 55 0c             	mov    0xc(%ebp),%edx
    5a8b:	43                   	inc    %ebx
    5a8c:	8b 72 08             	mov    0x8(%edx),%esi
    5a8f:	8b 91 d8 00 00 00    	mov    0xd8(%ecx),%edx
    5a95:	39 d3                	cmp    %edx,%ebx
    5a97:	72 1f                	jb     5ab8 <seq_no_new_wnd_update+0x138>
    5a99:	39 d6                	cmp    %edx,%esi
    5a9b:	0f 93 c1             	setae  %cl
    5a9e:	39 f3                	cmp    %esi,%ebx
    5aa0:	0f 97 c2             	seta   %dl
    5aa3:	21 d1                	and    %edx,%ecx
    5aa5:	8d 65 f4             	lea    -0xc(%ebp),%esp
    5aa8:	89 cf                	mov    %ecx,%edi
    5aaa:	5b                   	pop    %ebx
    5aab:	09 f8                	or     %edi,%eax
    5aad:	5e                   	pop    %esi
    5aae:	5f                   	pop    %edi
    5aaf:	5d                   	pop    %ebp
    5ab0:	c3                   	ret    
    5ab1:	8d b4 26 00 00 00 00 	lea    0x0(%esi,%eiz,1),%esi
    5ab8:	39 f3                	cmp    %esi,%ebx
    5aba:	0f 97 c1             	seta   %cl
    5abd:	39 d6                	cmp    %edx,%esi
    5abf:	0f 93 c2             	setae  %dl
    5ac2:	09 d1                	or     %edx,%ecx
    5ac4:	8d 65 f4             	lea    -0xc(%ebp),%esp
    5ac7:	89 cf                	mov    %ecx,%edi
    5ac9:	5b                   	pop    %ebx
    5aca:	09 f8                	or     %edi,%eax
    5acc:	5e                   	pop    %esi
    5acd:	5f                   	pop    %edi
    5ace:	5d                   	pop    %ebp
    5acf:	c3                   	ret    
    5ad0:	52                   	push   %edx
    5ad1:	6a 69                	push   $0x69
    5ad3:	68 b0 98 00 00       	push   $0x98b0
    5ad8:	68 dc 98 00 00       	push   $0x98dc
    5add:	e8 4e 4d 00 00       	call   a830 <assert_abort@plt>
    5ae2:	bb 01 00 00 00       	mov    $0x1,%ebx
    5ae7:	e9 be fe ff ff       	jmp    59aa <seq_no_new_wnd_update+0x2a>
    5aec:	8d 74 26 00          	lea    0x0(%esi,%eiz,1),%esi

00005af0 <seq_no_segment_ready>:
    5af0:	55                   	push   %ebp
    5af1:	89 e5                	mov    %esp,%ebp
    5af3:	57                   	push   %edi
    5af4:	56                   	push   %esi
    5af5:	53                   	push   %ebx
    5af6:	83 ec 1c             	sub    $0x1c,%esp
    5af9:	8b 4d 08             	mov    0x8(%ebp),%ecx
    5afc:	8b 45 0c             	mov    0xc(%ebp),%eax
    5aff:	8b b1 e4 00 00 00    	mov    0xe4(%ecx),%esi
    5b05:	8b 91 e0 00 00 00    	mov    0xe0(%ecx),%edx
    5b0b:	89 75 dc             	mov    %esi,-0x24(%ebp)
    5b0e:	01 d6                	add    %edx,%esi
    5b10:	89 75 e4             	mov    %esi,-0x1c(%ebp)
    5b13:	0f 82 d0 00 00 00    	jb     5be9 <seq_no_segment_ready+0xf9>
    5b19:	31 db                	xor    %ebx,%ebx
    5b1b:	8b 48 04             	mov    0x4(%eax),%ecx
    5b1e:	85 db                	test   %ebx,%ebx
    5b20:	75 6e                	jne    5b90 <seq_no_segment_ready+0xa0>
    5b22:	39 ca                	cmp    %ecx,%edx
    5b24:	0f 96 c3             	setbe  %bl
    5b27:	89 de                	mov    %ebx,%esi
    5b29:	39 4d e4             	cmp    %ecx,-0x1c(%ebp)
    5b2c:	0f 97 c3             	seta   %bl
    5b2f:	21 f3                	and    %esi,%ebx
    5b31:	8b 70 0c             	mov    0xc(%eax),%esi
    5b34:	88 5d e3             	mov    %bl,-0x1d(%ebp)
    5b37:	8d 04 31             	lea    (%ecx,%esi,1),%eax
    5b3a:	8d 78 ff             	lea    -0x1(%eax),%edi
    5b3d:	39 fa                	cmp    %edi,%edx
    5b3f:	0f 96 45 e2          	setbe  -0x1e(%ebp)
    5b43:	39 7d e4             	cmp    %edi,-0x1c(%ebp)
    5b46:	0f 97 c3             	seta   %bl
    5b49:	89 df                	mov    %ebx,%edi
    5b4b:	8a 5d e2             	mov    -0x1e(%ebp),%bl
    5b4e:	21 df                	and    %ebx,%edi
    5b50:	85 f6                	test   %esi,%esi
    5b52:	74 2c                	je     5b80 <seq_no_segment_ready+0x90>
    5b54:	8b 5d dc             	mov    -0x24(%ebp),%ebx
    5b57:	85 db                	test   %ebx,%ebx
    5b59:	74 79                	je     5bd4 <seq_no_segment_ready+0xe4>
    5b5b:	89 fb                	mov    %edi,%ebx
    5b5d:	08 5d e3             	or     %bl,-0x1d(%ebp)
    5b60:	80 7d e3 00          	cmpb   $0x0,-0x1d(%ebp)
    5b64:	74 6e                	je     5bd4 <seq_no_segment_ready+0xe4>
    5b66:	40                   	inc    %eax
    5b67:	39 c8                	cmp    %ecx,%eax
    5b69:	73 55                	jae    5bc0 <seq_no_segment_ready+0xd0>
    5b6b:	39 d0                	cmp    %edx,%eax
    5b6d:	0f 97 c0             	seta   %al
    5b70:	39 ca                	cmp    %ecx,%edx
    5b72:	0f 93 c2             	setae  %dl
    5b75:	8d 65 f4             	lea    -0xc(%ebp),%esp
    5b78:	09 d0                	or     %edx,%eax
    5b7a:	5b                   	pop    %ebx
    5b7b:	5e                   	pop    %esi
    5b7c:	5f                   	pop    %edi
    5b7d:	5d                   	pop    %ebp
    5b7e:	c3                   	ret    
    5b7f:	90                   	nop
    5b80:	8b 75 dc             	mov    -0x24(%ebp),%esi
    5b83:	85 f6                	test   %esi,%esi
    5b85:	75 d9                	jne    5b60 <seq_no_segment_ready+0x70>
    5b87:	39 45 e4             	cmp    %eax,-0x1c(%ebp)
    5b8a:	0f 94 45 e3          	sete   -0x1d(%ebp)
    5b8e:	eb d0                	jmp    5b60 <seq_no_segment_ready+0x70>
    5b90:	39 4d e4             	cmp    %ecx,-0x1c(%ebp)
    5b93:	0f 97 c3             	seta   %bl
    5b96:	89 de                	mov    %ebx,%esi
    5b98:	39 ca                	cmp    %ecx,%edx
    5b9a:	0f 96 c3             	setbe  %bl
    5b9d:	09 f3                	or     %esi,%ebx
    5b9f:	8b 70 0c             	mov    0xc(%eax),%esi
    5ba2:	88 5d e3             	mov    %bl,-0x1d(%ebp)
    5ba5:	8d 04 31             	lea    (%ecx,%esi,1),%eax
    5ba8:	8d 78 ff             	lea    -0x1(%eax),%edi
    5bab:	39 7d e4             	cmp    %edi,-0x1c(%ebp)
    5bae:	0f 97 45 e2          	seta   -0x1e(%ebp)
    5bb2:	39 fa                	cmp    %edi,%edx
    5bb4:	0f 96 c3             	setbe  %bl
    5bb7:	89 df                	mov    %ebx,%edi
    5bb9:	8a 5d e2             	mov    -0x1e(%ebp),%bl
    5bbc:	09 df                	or     %ebx,%edi
    5bbe:	eb 90                	jmp    5b50 <seq_no_segment_ready+0x60>
    5bc0:	39 d0                	cmp    %edx,%eax
    5bc2:	0f 97 c0             	seta   %al
    5bc5:	39 ca                	cmp    %ecx,%edx
    5bc7:	0f 93 c2             	setae  %dl
    5bca:	8d 65 f4             	lea    -0xc(%ebp),%esp
    5bcd:	21 d0                	and    %edx,%eax
    5bcf:	5b                   	pop    %ebx
    5bd0:	5e                   	pop    %esi
    5bd1:	5f                   	pop    %edi
    5bd2:	5d                   	pop    %ebp
    5bd3:	c3                   	ret    
    5bd4:	50                   	push   %eax
    5bd5:	68 83 00 00 00       	push   $0x83
    5bda:	68 b0 98 00 00       	push   $0x98b0
    5bdf:	68 dc 98 00 00       	push   $0x98dc
    5be4:	e8 47 4c 00 00       	call   a830 <assert_abort@plt>
    5be9:	bb 01 00 00 00       	mov    $0x1,%ebx
    5bee:	e9 28 ff ff ff       	jmp    5b1b <seq_no_segment_ready+0x2b>
    5bf3:	8d b6 00 00 00 00    	lea    0x0(%esi),%esi
    5bf9:	8d bc 27 00 00 00 00 	lea    0x0(%edi,%eiz,1),%edi

00005c00 <seq_no_segment_acked>:
    5c00:	55                   	push   %ebp
    5c01:	89 e5                	mov    %esp,%ebp
    5c03:	83 ec 08             	sub    $0x8,%esp
    5c06:	8b 55 0c             	mov    0xc(%ebp),%edx
    5c09:	8b 42 0c             	mov    0xc(%edx),%eax
    5c0c:	85 c0                	test   %eax,%eax
    5c0e:	74 2f                	je     5c3f <seq_no_segment_acked+0x3f>
    5c10:	8b 4a 04             	mov    0x4(%edx),%ecx
    5c13:	3b 4d 10             	cmp    0x10(%ebp),%ecx
    5c16:	8d 14 08             	lea    (%eax,%ecx,1),%edx
    5c19:	76 15                	jbe    5c30 <seq_no_segment_acked+0x30>
    5c1b:	3b 55 10             	cmp    0x10(%ebp),%edx
    5c1e:	c9                   	leave  
    5c1f:	0f 96 c0             	setbe  %al
    5c22:	39 d1                	cmp    %edx,%ecx
    5c24:	0f 92 c2             	setb   %dl
    5c27:	09 d0                	or     %edx,%eax
    5c29:	c3                   	ret    
    5c2a:	8d b6 00 00 00 00    	lea    0x0(%esi),%esi
    5c30:	39 d1                	cmp    %edx,%ecx
    5c32:	0f 92 c0             	setb   %al
    5c35:	3b 55 10             	cmp    0x10(%ebp),%edx
    5c38:	c9                   	leave  
    5c39:	0f 96 c2             	setbe  %dl
    5c3c:	21 d0                	and    %edx,%eax
    5c3e:	c3                   	ret    
    5c3f:	50                   	push   %eax
    5c40:	68 8b 00 00 00       	push   $0x8b
    5c45:	68 b0 98 00 00       	push   $0x98b0
    5c4a:	68 b9 98 00 00       	push   $0x98b9
    5c4f:	e8 dc 4b 00 00       	call   a830 <assert_abort@plt>
    5c54:	8d b6 00 00 00 00    	lea    0x0(%esi),%esi
    5c5a:	8d bf 00 00 00 00    	lea    0x0(%edi),%edi

00005c60 <seq_no_syn_acked>:
    5c60:	55                   	push   %ebp
    5c61:	89 e5                	mov    %esp,%ebp
    5c63:	53                   	push   %ebx
    5c64:	8b 45 08             	mov    0x8(%ebp),%eax
    5c67:	8b 98 c8 00 00 00    	mov    0xc8(%eax),%ebx
    5c6d:	8b 90 dc 00 00 00    	mov    0xdc(%eax),%edx
    5c73:	8b 88 c4 00 00 00    	mov    0xc4(%eax),%ecx
    5c79:	39 d3                	cmp    %edx,%ebx
    5c7b:	73 13                	jae    5c90 <seq_no_syn_acked+0x30>
    5c7d:	39 cb                	cmp    %ecx,%ebx
    5c7f:	5b                   	pop    %ebx
    5c80:	0f 93 c0             	setae  %al
    5c83:	39 d1                	cmp    %edx,%ecx
    5c85:	5d                   	pop    %ebp
    5c86:	0f 97 c2             	seta   %dl
    5c89:	09 d0                	or     %edx,%eax
    5c8b:	c3                   	ret    
    5c8c:	8d 74 26 00          	lea    0x0(%esi,%eiz,1),%esi
    5c90:	39 d1                	cmp    %edx,%ecx
    5c92:	0f 97 c0             	seta   %al
    5c95:	39 cb                	cmp    %ecx,%ebx
    5c97:	5b                   	pop    %ebx
    5c98:	0f 93 c2             	setae  %dl
    5c9b:	21 d0                	and    %edx,%eax
    5c9d:	5d                   	pop    %ebp
    5c9e:	c3                   	ret    
    5c9f:	90                   	nop

00005ca0 <seq_no_segment_acceptable>:
    5ca0:	55                   	push   %ebp
    5ca1:	89 e5                	mov    %esp,%ebp
    5ca3:	57                   	push   %edi
    5ca4:	56                   	push   %esi
    5ca5:	53                   	push   %ebx
    5ca6:	83 ec 08             	sub    $0x8,%esp
    5ca9:	8b 45 08             	mov    0x8(%ebp),%eax
    5cac:	8b 75 0c             	mov    0xc(%ebp),%esi
    5caf:	8b 90 e0 00 00 00    	mov    0xe0(%eax),%edx
    5cb5:	8b 98 e4 00 00 00    	mov    0xe4(%eax),%ebx
    5cbb:	89 d1                	mov    %edx,%ecx
    5cbd:	01 d9                	add    %ebx,%ecx
    5cbf:	89 4d f0             	mov    %ecx,-0x10(%ebp)
    5cc2:	0f 82 89 00 00 00    	jb     5d51 <seq_no_segment_acceptable+0xb1>
    5cc8:	31 c0                	xor    %eax,%eax
    5cca:	8b 4e 04             	mov    0x4(%esi),%ecx
    5ccd:	85 c0                	test   %eax,%eax
    5ccf:	75 4f                	jne    5d20 <seq_no_segment_acceptable+0x80>
    5cd1:	39 ca                	cmp    %ecx,%edx
    5cd3:	8b 76 0c             	mov    0xc(%esi),%esi
    5cd6:	0f 96 c0             	setbe  %al
    5cd9:	89 c7                	mov    %eax,%edi
    5cdb:	39 4d f0             	cmp    %ecx,-0x10(%ebp)
    5cde:	0f 97 c0             	seta   %al
    5ce1:	21 f8                	and    %edi,%eax
    5ce3:	8d 7c 31 ff          	lea    -0x1(%ecx,%esi,1),%edi
    5ce7:	39 7d f0             	cmp    %edi,-0x10(%ebp)
    5cea:	0f 97 45 ef          	seta   -0x11(%ebp)
    5cee:	39 fa                	cmp    %edi,%edx
    5cf0:	0f 96 c2             	setbe  %dl
    5cf3:	22 55 ef             	and    -0x11(%ebp),%dl
    5cf6:	85 f6                	test   %esi,%esi
    5cf8:	74 0e                	je     5d08 <seq_no_segment_acceptable+0x68>
    5cfa:	09 d0                	or     %edx,%eax
    5cfc:	85 db                	test   %ebx,%ebx
    5cfe:	74 48                	je     5d48 <seq_no_segment_acceptable+0xa8>
    5d00:	5a                   	pop    %edx
    5d01:	59                   	pop    %ecx
    5d02:	5b                   	pop    %ebx
    5d03:	5e                   	pop    %esi
    5d04:	5f                   	pop    %edi
    5d05:	5d                   	pop    %ebp
    5d06:	c3                   	ret    
    5d07:	90                   	nop
    5d08:	85 db                	test   %ebx,%ebx
    5d0a:	75 f4                	jne    5d00 <seq_no_segment_acceptable+0x60>
    5d0c:	39 4d f0             	cmp    %ecx,-0x10(%ebp)
    5d0f:	5a                   	pop    %edx
    5d10:	0f 94 c0             	sete   %al
    5d13:	59                   	pop    %ecx
    5d14:	5b                   	pop    %ebx
    5d15:	5e                   	pop    %esi
    5d16:	5f                   	pop    %edi
    5d17:	5d                   	pop    %ebp
    5d18:	c3                   	ret    
    5d19:	8d b4 26 00 00 00 00 	lea    0x0(%esi,%eiz,1),%esi
    5d20:	39 4d f0             	cmp    %ecx,-0x10(%ebp)
    5d23:	8b 76 0c             	mov    0xc(%esi),%esi
    5d26:	0f 97 c0             	seta   %al
    5d29:	89 c7                	mov    %eax,%edi
    5d2b:	39 ca                	cmp    %ecx,%edx
    5d2d:	0f 96 c0             	setbe  %al
    5d30:	09 f8                	or     %edi,%eax
    5d32:	8d 7c 31 ff          	lea    -0x1(%ecx,%esi,1),%edi
    5d36:	39 7d f0             	cmp    %edi,-0x10(%ebp)
    5d39:	0f 97 45 ef          	seta   -0x11(%ebp)
    5d3d:	39 fa                	cmp    %edi,%edx
    5d3f:	0f 96 c2             	setbe  %dl
    5d42:	0a 55 ef             	or     -0x11(%ebp),%dl
    5d45:	eb af                	jmp    5cf6 <seq_no_segment_acceptable+0x56>
    5d47:	90                   	nop
    5d48:	5a                   	pop    %edx
    5d49:	31 c0                	xor    %eax,%eax
    5d4b:	59                   	pop    %ecx
    5d4c:	5b                   	pop    %ebx
    5d4d:	5e                   	pop    %esi
    5d4e:	5f                   	pop    %edi
    5d4f:	5d                   	pop    %ebp
    5d50:	c3                   	ret    
    5d51:	b8 01 00 00 00       	mov    $0x1,%eax
    5d56:	e9 6f ff ff ff       	jmp    5cca <seq_no_segment_acceptable+0x2a>
    5d5b:	90                   	nop
    5d5c:	8d 74 26 00          	lea    0x0(%esi,%eiz,1),%esi

00005d60 <seq_no_control_len>:
    5d60:	55                   	push   %ebp
    5d61:	89 e5                	mov    %esp,%ebp
    5d63:	8b 55 08             	mov    0x8(%ebp),%edx
    5d66:	5d                   	pop    %ebp
    5d67:	89 d0                	mov    %edx,%eax
    5d69:	83 e2 02             	and    $0x2,%edx
    5d6c:	83 e0 01             	and    $0x1,%eax
    5d6f:	83 fa 01             	cmp    $0x1,%edx
    5d72:	83 d8 ff             	sbb    $0xffffffff,%eax
    5d75:	c3                   	ret    
    5d76:	8d 76 00             	lea    0x0(%esi),%esi
    5d79:	8d bc 27 00 00 00 00 	lea    0x0(%edi,%eiz,1),%edi

00005d80 <seq_no_seg_trim_calc>:
    5d80:	55                   	push   %ebp
    5d81:	89 e5                	mov    %esp,%ebp
    5d83:	57                   	push   %edi
    5d84:	56                   	push   %esi
    5d85:	53                   	push   %ebx
    5d86:	83 ec 2c             	sub    $0x2c,%esp
    5d89:	c7 45 e0 00 00 00 00 	movl   $0x0,-0x20(%ebp)
    5d90:	8b 4d 08             	mov    0x8(%ebp),%ecx
    5d93:	8b 81 e4 00 00 00    	mov    0xe4(%ecx),%eax
    5d99:	8b b9 e0 00 00 00    	mov    0xe0(%ecx),%edi
    5d9f:	89 45 d8             	mov    %eax,-0x28(%ebp)
    5da2:	01 f8                	add    %edi,%eax
    5da4:	89 45 e4             	mov    %eax,-0x1c(%ebp)
    5da7:	0f 82 46 01 00 00    	jb     5ef3 <seq_no_seg_trim_calc+0x173>
    5dad:	8b 45 0c             	mov    0xc(%ebp),%eax
    5db0:	8b 5d e0             	mov    -0x20(%ebp),%ebx
    5db3:	85 db                	test   %ebx,%ebx
    5db5:	8b 40 04             	mov    0x4(%eax),%eax
    5db8:	0f 85 d2 00 00 00    	jne    5e90 <seq_no_seg_trim_calc+0x110>
    5dbe:	39 c7                	cmp    %eax,%edi
    5dc0:	0f 96 c3             	setbe  %bl
    5dc3:	39 45 e4             	cmp    %eax,-0x1c(%ebp)
    5dc6:	0f 97 c2             	seta   %dl
    5dc9:	21 da                	and    %ebx,%edx
    5dcb:	88 55 df             	mov    %dl,-0x21(%ebp)
    5dce:	8b 55 0c             	mov    0xc(%ebp),%edx
    5dd1:	8b 72 0c             	mov    0xc(%edx),%esi
    5dd4:	8d 5c 30 ff          	lea    -0x1(%eax,%esi,1),%ebx
    5dd8:	89 da                	mov    %ebx,%edx
    5dda:	39 df                	cmp    %ebx,%edi
    5ddc:	0f 96 c3             	setbe  %bl
    5ddf:	39 55 e4             	cmp    %edx,-0x1c(%ebp)
    5de2:	0f 97 45 d4          	seta   -0x2c(%ebp)
    5de6:	8a 55 d4             	mov    -0x2c(%ebp),%dl
    5de9:	21 d3                	and    %edx,%ebx
    5deb:	85 f6                	test   %esi,%esi
    5ded:	0f 84 85 00 00 00    	je     5e78 <seq_no_seg_trim_calc+0xf8>
    5df3:	8b 75 d8             	mov    -0x28(%ebp),%esi
    5df6:	85 f6                	test   %esi,%esi
    5df8:	0f 84 e0 00 00 00    	je     5ede <seq_no_seg_trim_calc+0x15e>
    5dfe:	08 5d df             	or     %bl,-0x21(%ebp)
    5e01:	80 7d df 00          	cmpb   $0x0,-0x21(%ebp)
    5e05:	0f 84 d3 00 00 00    	je     5ede <seq_no_seg_trim_calc+0x15e>
    5e0b:	8b 55 e0             	mov    -0x20(%ebp),%edx
    5e0e:	85 d2                	test   %edx,%edx
    5e10:	0f 94 c2             	sete   %dl
    5e13:	39 c7                	cmp    %eax,%edi
    5e15:	0f 97 c3             	seta   %bl
    5e18:	39 45 e4             	cmp    %eax,-0x1c(%ebp)
    5e1b:	0f 83 a7 00 00 00    	jae    5ec8 <seq_no_seg_trim_calc+0x148>
    5e21:	09 da                	or     %ebx,%edx
    5e23:	31 db                	xor    %ebx,%ebx
    5e25:	84 d2                	test   %dl,%dl
    5e27:	74 04                	je     5e2d <seq_no_seg_trim_calc+0xad>
    5e29:	29 c7                	sub    %eax,%edi
    5e2b:	89 fb                	mov    %edi,%ebx
    5e2d:	8b 45 10             	mov    0x10(%ebp),%eax
    5e30:	8b 7d 0c             	mov    0xc(%ebp),%edi
    5e33:	89 18                	mov    %ebx,(%eax)
    5e35:	8b 81 e0 00 00 00    	mov    0xe0(%ecx),%eax
    5e3b:	8b 91 e4 00 00 00    	mov    0xe4(%ecx),%edx
    5e41:	01 c2                	add    %eax,%edx
    5e43:	8b 45 0c             	mov    0xc(%ebp),%eax
    5e46:	8b 5f 0c             	mov    0xc(%edi),%ebx
    5e49:	8b 40 04             	mov    0x4(%eax),%eax
    5e4c:	01 c3                	add    %eax,%ebx
    5e4e:	48                   	dec    %eax
    5e4f:	39 c2                	cmp    %eax,%edx
    5e51:	72 7d                	jb     5ed0 <seq_no_seg_trim_calc+0x150>
    5e53:	39 c3                	cmp    %eax,%ebx
    5e55:	0f 97 c0             	seta   %al
    5e58:	39 da                	cmp    %ebx,%edx
    5e5a:	0f 93 c1             	setae  %cl
    5e5d:	21 c8                	and    %ecx,%eax
    5e5f:	31 c9                	xor    %ecx,%ecx
    5e61:	84 c0                	test   %al,%al
    5e63:	75 04                	jne    5e69 <seq_no_seg_trim_calc+0xe9>
    5e65:	89 d9                	mov    %ebx,%ecx
    5e67:	29 d1                	sub    %edx,%ecx
    5e69:	8b 45 14             	mov    0x14(%ebp),%eax
    5e6c:	89 08                	mov    %ecx,(%eax)
    5e6e:	8d 65 f4             	lea    -0xc(%ebp),%esp
    5e71:	5b                   	pop    %ebx
    5e72:	5e                   	pop    %esi
    5e73:	5f                   	pop    %edi
    5e74:	5d                   	pop    %ebp
    5e75:	c3                   	ret    
    5e76:	66 90                	xchg   %ax,%ax
    5e78:	8b 55 d8             	mov    -0x28(%ebp),%edx
    5e7b:	85 d2                	test   %edx,%edx
    5e7d:	75 82                	jne    5e01 <seq_no_seg_trim_calc+0x81>
    5e7f:	39 45 e4             	cmp    %eax,-0x1c(%ebp)
    5e82:	0f 94 45 df          	sete   -0x21(%ebp)
    5e86:	e9 76 ff ff ff       	jmp    5e01 <seq_no_seg_trim_calc+0x81>
    5e8b:	90                   	nop
    5e8c:	8d 74 26 00          	lea    0x0(%esi,%eiz,1),%esi
    5e90:	39 45 e4             	cmp    %eax,-0x1c(%ebp)
    5e93:	0f 97 c3             	seta   %bl
    5e96:	39 c7                	cmp    %eax,%edi
    5e98:	0f 96 c2             	setbe  %dl
    5e9b:	09 da                	or     %ebx,%edx
    5e9d:	8b 5d 0c             	mov    0xc(%ebp),%ebx
    5ea0:	88 55 df             	mov    %dl,-0x21(%ebp)
    5ea3:	8b 73 0c             	mov    0xc(%ebx),%esi
    5ea6:	8d 5c 30 ff          	lea    -0x1(%eax,%esi,1),%ebx
    5eaa:	89 5d d4             	mov    %ebx,-0x2c(%ebp)
    5ead:	3b 5d e4             	cmp    -0x1c(%ebp),%ebx
    5eb0:	0f 92 c3             	setb   %bl
    5eb3:	39 7d d4             	cmp    %edi,-0x2c(%ebp)
    5eb6:	0f 93 45 d4          	setae  -0x2c(%ebp)
    5eba:	8a 55 d4             	mov    -0x2c(%ebp),%dl
    5ebd:	09 d3                	or     %edx,%ebx
    5ebf:	e9 27 ff ff ff       	jmp    5deb <seq_no_seg_trim_calc+0x6b>
    5ec4:	8d 74 26 00          	lea    0x0(%esi,%eiz,1),%esi
    5ec8:	21 da                	and    %ebx,%edx
    5eca:	e9 54 ff ff ff       	jmp    5e23 <seq_no_seg_trim_calc+0xa3>
    5ecf:	90                   	nop
    5ed0:	39 da                	cmp    %ebx,%edx
    5ed2:	0f 93 c1             	setae  %cl
    5ed5:	39 c3                	cmp    %eax,%ebx
    5ed7:	0f 97 c0             	seta   %al
    5eda:	09 c8                	or     %ecx,%eax
    5edc:	eb 81                	jmp    5e5f <seq_no_seg_trim_calc+0xdf>
    5ede:	51                   	push   %ecx
    5edf:	68 bd 00 00 00       	push   $0xbd
    5ee4:	68 b0 98 00 00       	push   $0x98b0
    5ee9:	68 dc 98 00 00       	push   $0x98dc
    5eee:	e8 3d 49 00 00       	call   a830 <assert_abort@plt>
    5ef3:	c7 45 e0 01 00 00 00 	movl   $0x1,-0x20(%ebp)
    5efa:	e9 ae fe ff ff       	jmp    5dad <seq_no_seg_trim_calc+0x2d>
    5eff:	90                   	nop

00005f00 <seq_no_seg_cmp>:
    5f00:	55                   	push   %ebp
    5f01:	89 e5                	mov    %esp,%ebp
    5f03:	57                   	push   %edi
    5f04:	56                   	push   %esi
    5f05:	53                   	push   %ebx
    5f06:	83 ec 1c             	sub    $0x1c,%esp
    5f09:	8b 45 08             	mov    0x8(%ebp),%eax
    5f0c:	8b 4d 0c             	mov    0xc(%ebp),%ecx
    5f0f:	8b b8 e0 00 00 00    	mov    0xe0(%eax),%edi
    5f15:	8b 80 e4 00 00 00    	mov    0xe4(%eax),%eax
    5f1b:	89 c2                	mov    %eax,%edx
    5f1d:	89 45 d8             	mov    %eax,-0x28(%ebp)
    5f20:	89 f8                	mov    %edi,%eax
    5f22:	89 7d dc             	mov    %edi,-0x24(%ebp)
    5f25:	01 d0                	add    %edx,%eax
    5f27:	89 45 e4             	mov    %eax,-0x1c(%ebp)
    5f2a:	0f 82 08 02 00 00    	jb     6138 <seq_no_seg_cmp+0x238>
    5f30:	31 ff                	xor    %edi,%edi
    5f32:	8b 71 04             	mov    0x4(%ecx),%esi
    5f35:	85 ff                	test   %edi,%edi
    5f37:	89 75 e0             	mov    %esi,-0x20(%ebp)
    5f3a:	0f 85 58 01 00 00    	jne    6098 <seq_no_seg_cmp+0x198>
    5f40:	8b 45 dc             	mov    -0x24(%ebp),%eax
    5f43:	39 f0                	cmp    %esi,%eax
    5f45:	0f 96 c3             	setbe  %bl
    5f48:	39 75 e4             	cmp    %esi,-0x1c(%ebp)
    5f4b:	0f 97 c2             	seta   %dl
    5f4e:	21 da                	and    %ebx,%edx
    5f50:	8b 59 0c             	mov    0xc(%ecx),%ebx
    5f53:	8d 74 1e ff          	lea    -0x1(%esi,%ebx,1),%esi
    5f57:	39 f0                	cmp    %esi,%eax
    5f59:	0f 96 c1             	setbe  %cl
    5f5c:	39 75 e4             	cmp    %esi,-0x1c(%ebp)
    5f5f:	0f 97 c0             	seta   %al
    5f62:	89 c6                	mov    %eax,%esi
    5f64:	21 f1                	and    %esi,%ecx
    5f66:	85 db                	test   %ebx,%ebx
    5f68:	0f 84 c2 00 00 00    	je     6030 <seq_no_seg_cmp+0x130>
    5f6e:	8b 45 d8             	mov    -0x28(%ebp),%eax
    5f71:	85 c0                	test   %eax,%eax
    5f73:	0f 84 8c 01 00 00    	je     6105 <seq_no_seg_cmp+0x205>
    5f79:	09 ca                	or     %ecx,%edx
    5f7b:	84 d2                	test   %dl,%dl
    5f7d:	0f 84 82 01 00 00    	je     6105 <seq_no_seg_cmp+0x205>
    5f83:	8b 45 10             	mov    0x10(%ebp),%eax
    5f86:	85 ff                	test   %edi,%edi
    5f88:	8b 50 04             	mov    0x4(%eax),%edx
    5f8b:	0f 84 bc 00 00 00    	je     604d <seq_no_seg_cmp+0x14d>
    5f91:	89 c6                	mov    %eax,%esi
    5f93:	8b 45 e4             	mov    -0x1c(%ebp),%eax
    5f96:	39 d0                	cmp    %edx,%eax
    5f98:	8b 76 0c             	mov    0xc(%esi),%esi
    5f9b:	0f 97 c3             	seta   %bl
    5f9e:	8d 7c 32 ff          	lea    -0x1(%edx,%esi,1),%edi
    5fa2:	39 55 dc             	cmp    %edx,-0x24(%ebp)
    5fa5:	0f 96 c1             	setbe  %cl
    5fa8:	09 d9                	or     %ebx,%ecx
    5faa:	39 f8                	cmp    %edi,%eax
    5fac:	0f 97 c3             	seta   %bl
    5faf:	39 7d dc             	cmp    %edi,-0x24(%ebp)
    5fb2:	0f 96 c0             	setbe  %al
    5fb5:	89 c7                	mov    %eax,%edi
    5fb7:	09 fb                	or     %edi,%ebx
    5fb9:	85 f6                	test   %esi,%esi
    5fbb:	0f 84 bd 00 00 00    	je     607e <seq_no_seg_cmp+0x17e>
    5fc1:	8b 75 d8             	mov    -0x28(%ebp),%esi
    5fc4:	85 f6                	test   %esi,%esi
    5fc6:	0f 84 4e 01 00 00    	je     611a <seq_no_seg_cmp+0x21a>
    5fcc:	09 d9                	or     %ebx,%ecx
    5fce:	84 c9                	test   %cl,%cl
    5fd0:	0f 84 44 01 00 00    	je     611a <seq_no_seg_cmp+0x21a>
    5fd6:	8b 45 e4             	mov    -0x1c(%ebp),%eax
    5fd9:	8b 7d e0             	mov    -0x20(%ebp),%edi
    5fdc:	39 f8                	cmp    %edi,%eax
    5fde:	0f 82 e4 00 00 00    	jb     60c8 <seq_no_seg_cmp+0x1c8>
    5fe4:	39 c2                	cmp    %eax,%edx
    5fe6:	0f 96 c1             	setbe  %cl
    5fe9:	39 fa                	cmp    %edi,%edx
    5feb:	0f 97 c3             	seta   %bl
    5fee:	21 d9                	and    %ebx,%ecx
    5ff0:	84 c9                	test   %cl,%cl
    5ff2:	0f 85 38 01 00 00    	jne    6130 <seq_no_seg_cmp+0x230>
    5ff8:	8b 45 e4             	mov    -0x1c(%ebp),%eax
    5ffb:	39 c2                	cmp    %eax,%edx
    5ffd:	0f 87 dd 00 00 00    	ja     60e0 <seq_no_seg_cmp+0x1e0>
    6003:	8b 5d e0             	mov    -0x20(%ebp),%ebx
    6006:	39 da                	cmp    %ebx,%edx
    6008:	0f 92 c1             	setb   %cl
    600b:	39 d8                	cmp    %ebx,%eax
    600d:	0f 93 c3             	setae  %bl
    6010:	21 d9                	and    %ebx,%ecx
    6012:	84 c9                	test   %cl,%cl
    6014:	0f 85 de 00 00 00    	jne    60f8 <seq_no_seg_cmp+0x1f8>
    601a:	3b 55 e0             	cmp    -0x20(%ebp),%edx
    601d:	0f 85 1f 01 00 00    	jne    6142 <seq_no_seg_cmp+0x242>
    6023:	31 c0                	xor    %eax,%eax
    6025:	8d 65 f4             	lea    -0xc(%ebp),%esp
    6028:	5b                   	pop    %ebx
    6029:	5e                   	pop    %esi
    602a:	5f                   	pop    %edi
    602b:	5d                   	pop    %ebp
    602c:	c3                   	ret    
    602d:	8d 76 00             	lea    0x0(%esi),%esi
    6030:	8b 45 d8             	mov    -0x28(%ebp),%eax
    6033:	85 c0                	test   %eax,%eax
    6035:	0f 85 40 ff ff ff    	jne    5f7b <seq_no_seg_cmp+0x7b>
    603b:	8b 7d e0             	mov    -0x20(%ebp),%edi
    603e:	39 7d e4             	cmp    %edi,-0x1c(%ebp)
    6041:	0f 85 be 00 00 00    	jne    6105 <seq_no_seg_cmp+0x205>
    6047:	8b 45 10             	mov    0x10(%ebp),%eax
    604a:	8b 50 04             	mov    0x4(%eax),%edx
    604d:	8b 45 dc             	mov    -0x24(%ebp),%eax
    6050:	39 d0                	cmp    %edx,%eax
    6052:	0f 96 c3             	setbe  %bl
    6055:	39 55 e4             	cmp    %edx,-0x1c(%ebp)
    6058:	0f 97 c1             	seta   %cl
    605b:	21 d9                	and    %ebx,%ecx
    605d:	8b 5d 10             	mov    0x10(%ebp),%ebx
    6060:	8b 73 0c             	mov    0xc(%ebx),%esi
    6063:	8d 7c 32 ff          	lea    -0x1(%edx,%esi,1),%edi
    6067:	39 c7                	cmp    %eax,%edi
    6069:	0f 93 c3             	setae  %bl
    606c:	3b 7d e4             	cmp    -0x1c(%ebp),%edi
    606f:	0f 92 c0             	setb   %al
    6072:	89 c7                	mov    %eax,%edi
    6074:	21 fb                	and    %edi,%ebx
    6076:	85 f6                	test   %esi,%esi
    6078:	0f 85 43 ff ff ff    	jne    5fc1 <seq_no_seg_cmp+0xc1>
    607e:	8b 7d d8             	mov    -0x28(%ebp),%edi
    6081:	85 ff                	test   %edi,%edi
    6083:	0f 85 45 ff ff ff    	jne    5fce <seq_no_seg_cmp+0xce>
    6089:	3b 55 e4             	cmp    -0x1c(%ebp),%edx
    608c:	0f 94 c1             	sete   %cl
    608f:	e9 3a ff ff ff       	jmp    5fce <seq_no_seg_cmp+0xce>
    6094:	8d 74 26 00          	lea    0x0(%esi,%eiz,1),%esi
    6098:	8b 45 e4             	mov    -0x1c(%ebp),%eax
    609b:	39 f0                	cmp    %esi,%eax
    609d:	0f 97 c3             	seta   %bl
    60a0:	39 75 dc             	cmp    %esi,-0x24(%ebp)
    60a3:	0f 96 c2             	setbe  %dl
    60a6:	09 da                	or     %ebx,%edx
    60a8:	8b 59 0c             	mov    0xc(%ecx),%ebx
    60ab:	8d 74 1e ff          	lea    -0x1(%esi,%ebx,1),%esi
    60af:	39 f0                	cmp    %esi,%eax
    60b1:	0f 97 c1             	seta   %cl
    60b4:	39 75 dc             	cmp    %esi,-0x24(%ebp)
    60b7:	0f 96 c0             	setbe  %al
    60ba:	89 c6                	mov    %eax,%esi
    60bc:	09 f1                	or     %esi,%ecx
    60be:	e9 a3 fe ff ff       	jmp    5f66 <seq_no_seg_cmp+0x66>
    60c3:	90                   	nop
    60c4:	8d 74 26 00          	lea    0x0(%esi,%eiz,1),%esi
    60c8:	3b 55 e4             	cmp    -0x1c(%ebp),%edx
    60cb:	0f 96 c1             	setbe  %cl
    60ce:	3b 55 e0             	cmp    -0x20(%ebp),%edx
    60d1:	0f 97 c3             	seta   %bl
    60d4:	09 d9                	or     %ebx,%ecx
    60d6:	e9 15 ff ff ff       	jmp    5ff0 <seq_no_seg_cmp+0xf0>
    60db:	90                   	nop
    60dc:	8d 74 26 00          	lea    0x0(%esi,%eiz,1),%esi
    60e0:	8b 45 e0             	mov    -0x20(%ebp),%eax
    60e3:	39 45 e4             	cmp    %eax,-0x1c(%ebp)
    60e6:	0f 93 c1             	setae  %cl
    60e9:	39 c2                	cmp    %eax,%edx
    60eb:	0f 92 c3             	setb   %bl
    60ee:	09 d9                	or     %ebx,%ecx
    60f0:	84 c9                	test   %cl,%cl
    60f2:	0f 84 22 ff ff ff    	je     601a <seq_no_seg_cmp+0x11a>
    60f8:	8d 65 f4             	lea    -0xc(%ebp),%esp
    60fb:	b8 01 00 00 00       	mov    $0x1,%eax
    6100:	5b                   	pop    %ebx
    6101:	5e                   	pop    %esi
    6102:	5f                   	pop    %edi
    6103:	5d                   	pop    %ebp
    6104:	c3                   	ret    
    6105:	50                   	push   %eax
    6106:	68 e4 00 00 00       	push   $0xe4
    610b:	68 b0 98 00 00       	push   $0x98b0
    6110:	68 04 99 00 00       	push   $0x9904
    6115:	e8 16 47 00 00       	call   a830 <assert_abort@plt>
    611a:	52                   	push   %edx
    611b:	68 e5 00 00 00       	push   $0xe5
    6120:	68 b0 98 00 00       	push   $0x98b0
    6125:	68 28 99 00 00       	push   $0x9928
    612a:	e8 01 47 00 00       	call   a830 <assert_abort@plt>
    612f:	90                   	nop
    6130:	83 c8 ff             	or     $0xffffffff,%eax
    6133:	e9 ed fe ff ff       	jmp    6025 <seq_no_seg_cmp+0x125>
    6138:	bf 01 00 00 00       	mov    $0x1,%edi
    613d:	e9 f0 fd ff ff       	jmp    5f32 <seq_no_seg_cmp+0x32>
    6142:	50                   	push   %eax
    6143:	68 ed 00 00 00       	push   $0xed
    6148:	68 b0 98 00 00       	push   $0x98b0
    614d:	68 c6 98 00 00       	push   $0x98c6
    6152:	e8 d9 46 00 00       	call   a830 <assert_abort@plt>
    6157:	66 90                	xchg   %ax,%ax
    6159:	66 90                	xchg   %ax,%ax
    615b:	66 90                	xchg   %ax,%ax
    615d:	66 90                	xchg   %ax,%ax
    615f:	90                   	nop

00006160 <tcp_inet_ev_recv>:
    6160:	55                   	push   %ebp
    6161:	89 e5                	mov    %esp,%ebp
    6163:	57                   	push   %edi
    6164:	56                   	push   %esi
    6165:	53                   	push   %ebx
    6166:	83 ec 60             	sub    $0x60,%esp
    6169:	8b 7d 08             	mov    0x8(%ebp),%edi
    616c:	68 4c 99 00 00       	push   $0x994c
    6171:	6a 04                	push   $0x4
    6173:	6a ff                	push   $0xffffffff
    6175:	e8 56 46 00 00       	call   a7d0 <log_msg@plt>
    617a:	83 c4 0c             	add    $0xc,%esp
    617d:	8b 47 30             	mov    0x30(%edi),%eax
    6180:	8b 77 34             	mov    0x34(%edi),%esi
    6183:	89 45 a4             	mov    %eax,-0x5c(%ebp)
    6186:	68 f4 99 00 00       	push   $0x99f4
    618b:	6a 04                	push   $0x4
    618d:	6a ff                	push   $0xffffffff
    618f:	e8 3c 46 00 00       	call   a7d0 <log_msg@plt>
    6194:	83 c4 10             	add    $0x10,%esp
    6197:	8b 45 a4             	mov    -0x5c(%ebp),%eax
    619a:	83 fe 13             	cmp    $0x13,%esi
    619d:	0f 86 1d 01 00 00    	jbe    62c0 <tcp_inet_ev_recv+0x160>
    61a3:	8b 58 0c             	mov    0xc(%eax),%ebx
    61a6:	66 c1 c3 08          	rol    $0x8,%bx
    61aa:	89 d9                	mov    %ebx,%ecx
    61ac:	31 db                	xor    %ebx,%ebx
    61ae:	66 c1 e9 0c          	shr    $0xc,%cx
    61b2:	66 89 cb             	mov    %cx,%bx
    61b5:	c1 e3 02             	shl    $0x2,%ebx
    61b8:	39 de                	cmp    %ebx,%esi
    61ba:	0f 82 10 01 00 00    	jb     62d0 <tcp_inet_ev_recv+0x170>
    61c0:	83 fb 13             	cmp    $0x13,%ebx
    61c3:	0f 86 d7 00 00 00    	jbe    62a0 <tcp_inet_ev_recv+0x140>
    61c9:	83 ec 0c             	sub    $0xc,%esp
    61cc:	89 45 a4             	mov    %eax,-0x5c(%ebp)
    61cf:	53                   	push   %ebx
    61d0:	56                   	push   %esi
    61d1:	68 a0 9a 00 00       	push   $0x9aa0
    61d6:	6a 04                	push   $0x4
    61d8:	6a ff                	push   $0xffffffff
    61da:	e8 f1 45 00 00       	call   a7d0 <log_msg@plt>
    61df:	8b 45 a4             	mov    -0x5c(%ebp),%eax
    61e2:	83 c4 20             	add    $0x20,%esp
    61e5:	29 de                	sub    %ebx,%esi
    61e7:	8d 14 18             	lea    (%eax,%ebx,1),%edx
    61ea:	56                   	push   %esi
    61eb:	52                   	push   %edx
    61ec:	53                   	push   %ebx
    61ed:	50                   	push   %eax
    61ee:	e8 5d d8 ff ff       	call   3a50 <tcp_pdu_create>
    61f3:	83 c4 10             	add    $0x10,%esp
    61f6:	89 c3                	mov    %eax,%ebx
    61f8:	85 c0                	test   %eax,%eax
    61fa:	0f 84 dc 00 00 00    	je     62dc <tcp_inet_ev_recv+0x17c>
    6200:	8b 47 04             	mov    0x4(%edi),%eax
    6203:	89 03                	mov    %eax,(%ebx)
    6205:	8b 47 08             	mov    0x8(%edi),%eax
    6208:	89 43 04             	mov    %eax,0x4(%ebx)
    620b:	8b 47 0c             	mov    0xc(%edi),%eax
    620e:	89 43 08             	mov    %eax,0x8(%ebx)
    6211:	8b 47 10             	mov    0x10(%edi),%eax
    6214:	89 43 0c             	mov    %eax,0xc(%ebx)
    6217:	8b 47 14             	mov    0x14(%edi),%eax
    621a:	89 43 10             	mov    %eax,0x10(%ebx)
    621d:	8b 47 18             	mov    0x18(%edi),%eax
    6220:	89 43 14             	mov    %eax,0x14(%ebx)
    6223:	8b 47 1c             	mov    0x1c(%edi),%eax
    6226:	89 43 18             	mov    %eax,0x18(%ebx)
    6229:	8b 47 20             	mov    0x20(%edi),%eax
    622c:	89 43 1c             	mov    %eax,0x1c(%ebx)
    622f:	8b 47 24             	mov    0x24(%edi),%eax
    6232:	89 43 20             	mov    %eax,0x20(%ebx)
    6235:	8b 47 28             	mov    0x28(%edi),%eax
    6238:	89 43 24             	mov    %eax,0x24(%ebx)
    623b:	56                   	push   %esi
    623c:	68 7d 99 00 00       	push   $0x997d
    6241:	6a 04                	push   $0x4
    6243:	6a ff                	push   $0xffffffff
    6245:	e8 86 45 00 00       	call   a7d0 <log_msg@plt>
    624a:	83 c4 0c             	add    $0xc,%esp
    624d:	8d 45 b0             	lea    -0x50(%ebp),%eax
    6250:	8d 75 b4             	lea    -0x4c(%ebp),%esi
    6253:	50                   	push   %eax
    6254:	56                   	push   %esi
    6255:	53                   	push   %ebx
    6256:	e8 d5 d8 ff ff       	call   3b30 <tcp_pdu_decode>
    625b:	83 c4 10             	add    $0x10,%esp
    625e:	85 c0                	test   %eax,%eax
    6260:	75 26                	jne    6288 <tcp_inet_ev_recv+0x128>
    6262:	8b 55 b0             	mov    -0x50(%ebp),%edx
    6265:	50                   	push   %eax
    6266:	50                   	push   %eax
    6267:	52                   	push   %edx
    6268:	56                   	push   %esi
    6269:	e8 c2 df ff ff       	call   4230 <tcp_rqueue_insert_seg>
    626e:	83 c4 10             	add    $0x10,%esp
    6271:	83 ec 0c             	sub    $0xc,%esp
    6274:	53                   	push   %ebx
    6275:	e8 86 d8 ff ff       	call   3b00 <tcp_pdu_delete>
    627a:	83 c4 10             	add    $0x10,%esp
    627d:	31 c0                	xor    %eax,%eax
    627f:	8d 65 f4             	lea    -0xc(%ebp),%esp
    6282:	5b                   	pop    %ebx
    6283:	5e                   	pop    %esi
    6284:	5f                   	pop    %edi
    6285:	5d                   	pop    %ebp
    6286:	c3                   	ret    
    6287:	90                   	nop
    6288:	51                   	push   %ecx
    6289:	68 c0 9a 00 00       	push   $0x9ac0
    628e:	6a 02                	push   $0x2
    6290:	6a ff                	push   $0xffffffff
    6292:	e8 39 45 00 00       	call   a7d0 <log_msg@plt>
    6297:	83 c4 10             	add    $0x10,%esp
    629a:	eb d5                	jmp    6271 <tcp_inet_ev_recv+0x111>
    629c:	8d 74 26 00          	lea    0x0(%esi,%eiz,1),%esi
    62a0:	83 ec 0c             	sub    $0xc,%esp
    62a3:	6a 14                	push   $0x14
    62a5:	53                   	push   %ebx
    62a6:	68 74 9a 00 00       	push   $0x9a74
    62ab:	6a 02                	push   $0x2
    62ad:	6a ff                	push   $0xffffffff
    62af:	e8 1c 45 00 00       	call   a7d0 <log_msg@plt>
    62b4:	83 c4 20             	add    $0x20,%esp
    62b7:	b8 f2 ff ff ff       	mov    $0xfffffff2,%eax
    62bc:	eb c1                	jmp    627f <tcp_inet_ev_recv+0x11f>
    62be:	66 90                	xchg   %ax,%ax
    62c0:	83 ec 0c             	sub    $0xc,%esp
    62c3:	6a 14                	push   $0x14
    62c5:	56                   	push   %esi
    62c6:	68 20 9a 00 00       	push   $0x9a20
    62cb:	eb de                	jmp    62ab <tcp_inet_ev_recv+0x14b>
    62cd:	8d 76 00             	lea    0x0(%esi),%esi
    62d0:	83 ec 0c             	sub    $0xc,%esp
    62d3:	53                   	push   %ebx
    62d4:	56                   	push   %esi
    62d5:	68 50 9a 00 00       	push   $0x9a50
    62da:	eb cf                	jmp    62ab <tcp_inet_ev_recv+0x14b>
    62dc:	57                   	push   %edi
    62dd:	68 5f 99 00 00       	push   $0x995f
    62e2:	6a 02                	push   $0x2
    62e4:	6a ff                	push   $0xffffffff
    62e6:	e8 e5 44 00 00       	call   a7d0 <log_msg@plt>
    62eb:	83 c4 10             	add    $0x10,%esp
    62ee:	b8 fe ff ff ff       	mov    $0xfffffffe,%eax
    62f3:	eb 8a                	jmp    627f <tcp_inet_ev_recv+0x11f>
    62f5:	8d 74 26 00          	lea    0x0(%esi,%eiz,1),%esi
    62f9:	8d bc 27 00 00 00 00 	lea    0x0(%edi,%eiz,1),%edi

00006300 <tcp_transmit_pdu>:
    6300:	55                   	push   %ebp
    6301:	89 e5                	mov    %esp,%ebp
    6303:	57                   	push   %edi
    6304:	56                   	push   %esi
    6305:	53                   	push   %ebx
    6306:	83 ec 58             	sub    $0x58,%esp
    6309:	8b 5d 08             	mov    0x8(%ebp),%ebx
    630c:	8b 7b 34             	mov    0x34(%ebx),%edi
    630f:	8b 43 2c             	mov    0x2c(%ebx),%eax
    6312:	01 c7                	add    %eax,%edi
    6314:	57                   	push   %edi
    6315:	e8 66 44 00 00       	call   a780 <malloc@plt>
    631a:	83 c4 10             	add    $0x10,%esp
    631d:	85 c0                	test   %eax,%eax
    631f:	0f 84 bb 00 00 00    	je     63e0 <tcp_transmit_pdu+0xe0>
    6325:	52                   	push   %edx
    6326:	89 c6                	mov    %eax,%esi
    6328:	8b 4b 2c             	mov    0x2c(%ebx),%ecx
    632b:	8b 43 28             	mov    0x28(%ebx),%eax
    632e:	51                   	push   %ecx
    632f:	50                   	push   %eax
    6330:	56                   	push   %esi
    6331:	e8 3a 44 00 00       	call   a770 <memcpy@plt>
    6336:	83 c4 0c             	add    $0xc,%esp
    6339:	8b 43 34             	mov    0x34(%ebx),%eax
    633c:	50                   	push   %eax
    633d:	8b 43 30             	mov    0x30(%ebx),%eax
    6340:	50                   	push   %eax
    6341:	8b 43 2c             	mov    0x2c(%ebx),%eax
    6344:	01 f0                	add    %esi,%eax
    6346:	50                   	push   %eax
    6347:	e8 24 44 00 00       	call   a770 <memcpy@plt>
    634c:	8b 03                	mov    (%ebx),%eax
    634e:	83 c4 0c             	add    $0xc,%esp
    6351:	89 45 b4             	mov    %eax,-0x4c(%ebp)
    6354:	8b 43 04             	mov    0x4(%ebx),%eax
    6357:	89 45 b8             	mov    %eax,-0x48(%ebp)
    635a:	8b 43 08             	mov    0x8(%ebx),%eax
    635d:	89 45 bc             	mov    %eax,-0x44(%ebp)
    6360:	8b 43 0c             	mov    0xc(%ebx),%eax
    6363:	89 45 c0             	mov    %eax,-0x40(%ebp)
    6366:	8b 43 10             	mov    0x10(%ebx),%eax
    6369:	89 45 c4             	mov    %eax,-0x3c(%ebp)
    636c:	8b 43 14             	mov    0x14(%ebx),%eax
    636f:	89 45 c8             	mov    %eax,-0x38(%ebp)
    6372:	8b 43 18             	mov    0x18(%ebx),%eax
    6375:	89 45 cc             	mov    %eax,-0x34(%ebp)
    6378:	8b 43 1c             	mov    0x1c(%ebx),%eax
    637b:	89 45 d0             	mov    %eax,-0x30(%ebp)
    637e:	8b 43 20             	mov    0x20(%ebx),%eax
    6381:	89 45 d4             	mov    %eax,-0x2c(%ebp)
    6384:	8b 43 24             	mov    0x24(%ebx),%eax
    6387:	89 45 d8             	mov    %eax,-0x28(%ebp)
    638a:	8d 45 b0             	lea    -0x50(%ebp),%eax
    638d:	6a 00                	push   $0x0
    638f:	c7 45 b0 00 00 00 00 	movl   $0x0,-0x50(%ebp)
    6396:	68 ff 00 00 00       	push   $0xff
    639b:	c6 45 dc 00          	movb   $0x0,-0x24(%ebp)
    639f:	50                   	push   %eax
    63a0:	89 75 e0             	mov    %esi,-0x20(%ebp)
    63a3:	89 7d e4             	mov    %edi,-0x1c(%ebp)
    63a6:	e8 55 44 00 00       	call   a800 <inet_send@plt>
    63ab:	83 c4 10             	add    $0x10,%esp
    63ae:	85 c0                	test   %eax,%eax
    63b0:	75 16                	jne    63c8 <tcp_transmit_pdu+0xc8>
    63b2:	83 ec 0c             	sub    $0xc,%esp
    63b5:	56                   	push   %esi
    63b6:	e8 95 46 00 00       	call   aa50 <free@plt>
    63bb:	83 c4 10             	add    $0x10,%esp
    63be:	8d 65 f4             	lea    -0xc(%ebp),%esp
    63c1:	5b                   	pop    %ebx
    63c2:	5e                   	pop    %esi
    63c3:	5f                   	pop    %edi
    63c4:	5d                   	pop    %ebp
    63c5:	c3                   	ret    
    63c6:	66 90                	xchg   %ax,%ax
    63c8:	50                   	push   %eax
    63c9:	68 90 99 00 00       	push   $0x9990
    63ce:	6a 01                	push   $0x1
    63d0:	6a ff                	push   $0xffffffff
    63d2:	e8 f9 43 00 00       	call   a7d0 <log_msg@plt>
    63d7:	83 c4 10             	add    $0x10,%esp
    63da:	eb d6                	jmp    63b2 <tcp_transmit_pdu+0xb2>
    63dc:	8d 74 26 00          	lea    0x0(%esi,%eiz,1),%esi
    63e0:	50                   	push   %eax
    63e1:	68 e0 9a 00 00       	push   $0x9ae0
    63e6:	6a 01                	push   $0x1
    63e8:	6a ff                	push   $0xffffffff
    63ea:	e8 e1 43 00 00       	call   a7d0 <log_msg@plt>
    63ef:	83 c4 10             	add    $0x10,%esp
    63f2:	8d 65 f4             	lea    -0xc(%ebp),%esp
    63f5:	5b                   	pop    %ebx
    63f6:	5e                   	pop    %esi
    63f7:	5f                   	pop    %edi
    63f8:	5d                   	pop    %ebp
    63f9:	c3                   	ret    
    63fa:	66 90                	xchg   %ax,%ax
    63fc:	66 90                	xchg   %ax,%ax
    63fe:	66 90                	xchg   %ax,%ax

00006400 <main>:
    6400:	8d 4c 24 04          	lea    0x4(%esp),%ecx
    6404:	83 e4 f0             	and    $0xfffffff0,%esp
    6407:	ff 71 fc             	pushl  -0x4(%ecx)
    640a:	55                   	push   %ebp
    640b:	89 e5                	mov    %esp,%ebp
    640d:	53                   	push   %ebx
    640e:	51                   	push   %ecx
    640f:	83 ec 0c             	sub    $0xc,%esp
    6412:	68 08 9b 00 00       	push   $0x9b08
    6417:	e8 e4 42 00 00       	call   a700 <printf@plt>
    641c:	c7 04 24 48 96 00 00 	movl   $0x9648,(%esp)
    6423:	e8 08 43 00 00       	call   a730 <log_init@plt>
    6428:	83 c4 10             	add    $0x10,%esp
    642b:	85 c0                	test   %eax,%eax
    642d:	75 47                	jne    6476 <main+0x76>
    642f:	50                   	push   %eax
    6430:	68 a8 99 00 00       	push   $0x99a8
    6435:	6a 04                	push   $0x4
    6437:	6a ff                	push   $0xffffffff
    6439:	e8 92 43 00 00       	call   a7d0 <log_msg@plt>
    643e:	e8 3d b2 ff ff       	call   1680 <tcp_conns_init>
    6443:	83 c4 10             	add    $0x10,%esp
    6446:	85 c0                	test   %eax,%eax
    6448:	74 43                	je     648d <main+0x8d>
    644a:	83 f8 fe             	cmp    $0xfffffffe,%eax
    644d:	0f 85 dd 00 00 00    	jne    6530 <main+0x130>
    6453:	50                   	push   %eax
    6454:	68 64 9b 00 00       	push   $0x9b64
    6459:	6a 01                	push   $0x1
    645b:	6a ff                	push   $0xffffffff
    645d:	bb 01 00 00 00       	mov    $0x1,%ebx
    6462:	e8 69 43 00 00       	call   a7d0 <log_msg@plt>
    6467:	83 c4 10             	add    $0x10,%esp
    646a:	8d 65 f8             	lea    -0x8(%ebp),%esp
    646d:	89 d8                	mov    %ebx,%eax
    646f:	59                   	pop    %ecx
    6470:	5b                   	pop    %ebx
    6471:	5d                   	pop    %ebp
    6472:	8d 61 fc             	lea    -0x4(%ecx),%esp
    6475:	c3                   	ret    
    6476:	83 ec 0c             	sub    $0xc,%esp
    6479:	bb 01 00 00 00       	mov    $0x1,%ebx
    647e:	68 44 9b 00 00       	push   $0x9b44
    6483:	e8 78 42 00 00       	call   a700 <printf@plt>
    6488:	83 c4 10             	add    $0x10,%esp
    648b:	eb dd                	jmp    646a <main+0x6a>
    648d:	e8 8e dc ff ff       	call   4120 <tcp_rqueue_init>
    6492:	e8 19 de ff ff       	call   42b0 <tcp_rqueue_fibril_start>
    6497:	e8 e4 d4 ff ff       	call   3980 <tcp_ncsim_init>
    649c:	e8 4f d5 ff ff       	call   39f0 <tcp_ncsim_fibril_start>
    64a1:	53                   	push   %ebx
    64a2:	53                   	push   %ebx
    64a3:	68 f0 c4 00 00       	push   $0xc4f0
    64a8:	6a 06                	push   $0x6
    64aa:	e8 31 43 00 00       	call   a7e0 <inet_init@plt>
    64af:	83 c4 10             	add    $0x10,%esp
    64b2:	85 c0                	test   %eax,%eax
    64b4:	75 64                	jne    651a <main+0x11a>
    64b6:	e8 b5 f3 ff ff       	call   5870 <tcp_service_init>
    64bb:	89 c3                	mov    %eax,%ebx
    64bd:	85 c0                	test   %eax,%eax
    64bf:	75 64                	jne    6525 <main+0x125>
    64c1:	83 ec 0c             	sub    $0xc,%esp
    64c4:	68 d6 99 00 00       	push   $0x99d6
    64c9:	e8 32 42 00 00       	call   a700 <printf@plt>
    64ce:	c7 04 24 00 00 00 00 	movl   $0x0,(%esp)
    64d5:	e8 16 42 00 00       	call   a6f0 <task_retval@plt>
    64da:	83 c8 ff             	or     $0xffffffff,%eax
    64dd:	f0 0f c1 05 04 c6 00 	lock xadd %eax,0xc604
    64e4:	00 
    64e5:	83 c4 10             	add    $0x10,%esp
    64e8:	48                   	dec    %eax
    64e9:	78 12                	js     64fd <main+0xfd>
    64eb:	83 ec 0c             	sub    $0xc,%esp
    64ee:	6a 03                	push   $0x3
    64f0:	e8 db 44 00 00       	call   a9d0 <fibril_switch@plt>
    64f5:	83 c4 10             	add    $0x10,%esp
    64f8:	e9 6d ff ff ff       	jmp    646a <main+0x6a>
    64fd:	50                   	push   %eax
    64fe:	6a 0b                	push   $0xb
    6500:	6a 00                	push   $0x0
    6502:	6a 00                	push   $0x0
    6504:	6a 00                	push   $0x0
    6506:	6a 00                	push   $0x0
    6508:	6a 00                	push   $0x0
    650a:	68 04 c6 00 00       	push   $0xc604
    650f:	ff 15 00 c6 00 00    	call   *0xc600
    6515:	83 c4 20             	add    $0x20,%esp
    6518:	eb d1                	jmp    64eb <main+0xeb>
    651a:	51                   	push   %ecx
    651b:	68 84 9b 00 00       	push   $0x9b84
    6520:	e9 34 ff ff ff       	jmp    6459 <main+0x59>
    6525:	52                   	push   %edx
    6526:	68 b9 99 00 00       	push   $0x99b9
    652b:	e9 29 ff ff ff       	jmp    6459 <main+0x59>
    6530:	50                   	push   %eax
    6531:	68 b8 00 00 00       	push   $0xb8
    6536:	68 b3 99 00 00       	push   $0x99b3
    653b:	68 9d 8b 00 00       	push   $0x8b9d
    6540:	e8 eb 42 00 00       	call   a830 <assert_abort@plt>
    6545:	66 90                	xchg   %ax,%ax
    6547:	66 90                	xchg   %ax,%ax
    6549:	66 90                	xchg   %ax,%ax
    654b:	66 90                	xchg   %ax,%ax
    654d:	66 90                	xchg   %ax,%ax
    654f:	90                   	nop

00006550 <tcp_test>:
    6550:	55                   	push   %ebp
    6551:	89 e5                	mov    %esp,%ebp
    6553:	83 ec 14             	sub    $0x14,%esp
    6556:	68 ab 9b 00 00       	push   $0x9bab
    655b:	e8 a0 41 00 00       	call   a700 <printf@plt>
    6560:	c7 04 24 40 42 0f 00 	movl   $0xf4240,(%esp)
    6567:	e8 a4 43 00 00       	call   a910 <async_usleep@plt>
    656c:	83 c4 10             	add    $0x10,%esp
    656f:	c9                   	leave  
    6570:	c3                   	ret    
    6571:	66 90                	xchg   %ax,%ax
    6573:	66 90                	xchg   %ax,%ax
    6575:	66 90                	xchg   %ax,%ax
    6577:	66 90                	xchg   %ax,%ax
    6579:	66 90                	xchg   %ax,%ax
    657b:	66 90                	xchg   %ax,%ax
    657d:	66 90                	xchg   %ax,%ax
    657f:	90                   	nop

00006580 <tcp_tqueue_init>:
    6580:	55                   	push   %ebp
    6581:	89 e5                	mov    %esp,%ebp
    6583:	53                   	push   %ebx
    6584:	83 ec 10             	sub    $0x10,%esp
    6587:	8b 5d 08             	mov    0x8(%ebp),%ebx
    658a:	8b 45 0c             	mov    0xc(%ebp),%eax
    658d:	89 03                	mov    %eax,(%ebx)
    658f:	83 c0 4c             	add    $0x4c,%eax
    6592:	50                   	push   %eax
    6593:	e8 68 44 00 00       	call   aa00 <fibril_timer_create@plt>
    6598:	83 c4 10             	add    $0x10,%esp
    659b:	89 43 0c             	mov    %eax,0xc(%ebx)
    659e:	85 c0                	test   %eax,%eax
    65a0:	74 10                	je     65b2 <tcp_tqueue_init+0x32>
    65a2:	8d 43 04             	lea    0x4(%ebx),%eax
    65a5:	89 43 04             	mov    %eax,0x4(%ebx)
    65a8:	89 43 08             	mov    %eax,0x8(%ebx)
    65ab:	31 c0                	xor    %eax,%eax
    65ad:	8b 5d fc             	mov    -0x4(%ebp),%ebx
    65b0:	c9                   	leave  
    65b1:	c3                   	ret    
    65b2:	b8 fe ff ff ff       	mov    $0xfffffffe,%eax
    65b7:	eb f4                	jmp    65ad <tcp_tqueue_init+0x2d>
    65b9:	8d b4 26 00 00 00 00 	lea    0x0(%esi,%eiz,1),%esi

000065c0 <tcp_tqueue_clear>:
    65c0:	55                   	push   %ebp
    65c1:	89 e5                	mov    %esp,%ebp
    65c3:	53                   	push   %ebx
    65c4:	52                   	push   %edx
    65c5:	8b 45 08             	mov    0x8(%ebp),%eax
    65c8:	8b 18                	mov    (%eax),%ebx
    65ca:	8b 0b                	mov    (%ebx),%ecx
    65cc:	51                   	push   %ecx
    65cd:	68 b8 9b 00 00       	push   $0x9bb8
    65d2:	6a 04                	push   $0x4
    65d4:	6a ff                	push   $0xffffffff
    65d6:	e8 f5 41 00 00       	call   a7d0 <log_msg@plt>
    65db:	58                   	pop    %eax
    65dc:	8b 83 8c 00 00 00    	mov    0x8c(%ebx),%eax
    65e2:	50                   	push   %eax
    65e3:	e8 48 44 00 00       	call   aa30 <fibril_timer_clear_locked@plt>
    65e8:	83 c4 10             	add    $0x10,%esp
    65eb:	48                   	dec    %eax
    65ec:	74 1a                	je     6608 <tcp_tqueue_clear+0x48>
    65ee:	8b 03                	mov    (%ebx),%eax
    65f0:	50                   	push   %eax
    65f1:	68 e0 9b 00 00       	push   $0x9be0
    65f6:	6a 04                	push   $0x4
    65f8:	6a ff                	push   $0xffffffff
    65fa:	e8 d1 41 00 00       	call   a7d0 <log_msg@plt>
    65ff:	83 c4 10             	add    $0x10,%esp
    6602:	8b 5d fc             	mov    -0x4(%ebp),%ebx
    6605:	c9                   	leave  
    6606:	c3                   	ret    
    6607:	90                   	nop
    6608:	83 ec 0c             	sub    $0xc,%esp
    660b:	53                   	push   %ebx
    660c:	e8 9f b2 ff ff       	call   18b0 <tcp_conn_delref>
    6611:	83 c4 10             	add    $0x10,%esp
    6614:	eb d8                	jmp    65ee <tcp_tqueue_clear+0x2e>
    6616:	8d 76 00             	lea    0x0(%esi),%esi
    6619:	8d bc 27 00 00 00 00 	lea    0x0(%edi,%eiz,1),%edi

00006620 <tcp_tqueue_fini>:
    6620:	55                   	push   %ebp
    6621:	89 e5                	mov    %esp,%ebp
    6623:	53                   	push   %ebx
    6624:	50                   	push   %eax
    6625:	8b 5d 08             	mov    0x8(%ebp),%ebx
    6628:	8b 43 0c             	mov    0xc(%ebx),%eax
    662b:	85 c0                	test   %eax,%eax
    662d:	74 13                	je     6642 <tcp_tqueue_fini+0x22>
    662f:	83 ec 0c             	sub    $0xc,%esp
    6632:	50                   	push   %eax
    6633:	e8 d8 41 00 00       	call   a810 <fibril_timer_destroy@plt>
    6638:	c7 43 0c 00 00 00 00 	movl   $0x0,0xc(%ebx)
    663f:	83 c4 10             	add    $0x10,%esp
    6642:	8b 5d fc             	mov    -0x4(%ebp),%ebx
    6645:	c9                   	leave  
    6646:	c3                   	ret    
    6647:	89 f6                	mov    %esi,%esi
    6649:	8d bc 27 00 00 00 00 	lea    0x0(%edi,%eiz,1),%edi

00006650 <tcp_tqueue_seg>:
    6650:	55                   	push   %ebp
    6651:	89 e5                	mov    %esp,%ebp
    6653:	57                   	push   %edi
    6654:	56                   	push   %esi
    6655:	53                   	push   %ebx
    6656:	83 ec 24             	sub    $0x24,%esp
    6659:	8b 5d 08             	mov    0x8(%ebp),%ebx
    665c:	8b 75 0c             	mov    0xc(%ebp),%esi
    665f:	56                   	push   %esi
    6660:	53                   	push   %ebx
    6661:	8b 3b                	mov    (%ebx),%edi
    6663:	57                   	push   %edi
    6664:	68 90 9d 00 00       	push   $0x9d90
    6669:	6a 04                	push   $0x4
    666b:	6a ff                	push   $0xffffffff
    666d:	e8 5e 41 00 00       	call   a7d0 <log_msg@plt>
    6672:	8b 46 0c             	mov    0xc(%esi),%eax
    6675:	83 c4 20             	add    $0x20,%esp
    6678:	85 c0                	test   %eax,%eax
    667a:	0f 84 d7 00 00 00    	je     6757 <tcp_tqueue_seg+0x107>
    6680:	83 ec 0c             	sub    $0xc,%esp
    6683:	56                   	push   %esi
    6684:	e8 d7 dc ff ff       	call   4360 <tcp_segment_dup>
    6689:	83 c4 10             	add    $0x10,%esp
    668c:	89 c7                	mov    %eax,%edi
    668e:	85 c0                	test   %eax,%eax
    6690:	0f 84 c2 01 00 00    	je     6858 <tcp_tqueue_seg+0x208>
    6696:	52                   	push   %edx
    6697:	52                   	push   %edx
    6698:	6a 10                	push   $0x10
    669a:	6a 01                	push   $0x1
    669c:	e8 9f 41 00 00       	call   a840 <calloc@plt>
    66a1:	83 c4 10             	add    $0x10,%esp
    66a4:	85 c0                	test   %eax,%eax
    66a6:	0f 84 ac 01 00 00    	je     6858 <tcp_tqueue_seg+0x208>
    66ac:	8b 93 c8 00 00 00    	mov    0xc8(%ebx),%edx
    66b2:	89 58 08             	mov    %ebx,0x8(%eax)
    66b5:	89 78 0c             	mov    %edi,0xc(%eax)
    66b8:	89 57 04             	mov    %edx,0x4(%edi)
    66bb:	8d 93 84 00 00 00    	lea    0x84(%ebx),%edx
    66c1:	89 50 04             	mov    %edx,0x4(%eax)
    66c4:	8b 93 84 00 00 00    	mov    0x84(%ebx),%edx
    66ca:	89 10                	mov    %edx,(%eax)
    66cc:	89 42 04             	mov    %eax,0x4(%edx)
    66cf:	89 83 84 00 00 00    	mov    %eax,0x84(%ebx)
    66d5:	8b 03                	mov    (%ebx),%eax
    66d7:	50                   	push   %eax
    66d8:	68 08 9c 00 00       	push   $0x9c08
    66dd:	6a 04                	push   $0x4
    66df:	6a ff                	push   $0xffffffff
    66e1:	e8 ea 40 00 00       	call   a7d0 <log_msg@plt>
    66e6:	8b 03                	mov    (%ebx),%eax
    66e8:	50                   	push   %eax
    66e9:	68 b8 9b 00 00       	push   $0x9bb8
    66ee:	6a 04                	push   $0x4
    66f0:	6a ff                	push   $0xffffffff
    66f2:	e8 d9 40 00 00       	call   a7d0 <log_msg@plt>
    66f7:	83 c4 14             	add    $0x14,%esp
    66fa:	8b 83 8c 00 00 00    	mov    0x8c(%ebx),%eax
    6700:	50                   	push   %eax
    6701:	e8 2a 43 00 00       	call   aa30 <fibril_timer_clear_locked@plt>
    6706:	83 c4 10             	add    $0x10,%esp
    6709:	48                   	dec    %eax
    670a:	0f 84 60 01 00 00    	je     6870 <tcp_tqueue_seg+0x220>
    6710:	8b 03                	mov    (%ebx),%eax
    6712:	50                   	push   %eax
    6713:	68 e0 9b 00 00       	push   $0x9be0
    6718:	6a 04                	push   $0x4
    671a:	6a ff                	push   $0xffffffff
    671c:	e8 af 40 00 00       	call   a7d0 <log_msg@plt>
    6721:	89 1c 24             	mov    %ebx,(%esp)
    6724:	e8 57 b1 ff ff       	call   1880 <tcp_conn_addref>
    6729:	8b 83 8c 00 00 00    	mov    0x8c(%ebx),%eax
    672f:	53                   	push   %ebx
    6730:	68 50 6e 00 00       	push   $0x6e50
    6735:	68 80 84 1e 00       	push   $0x1e8480
    673a:	50                   	push   %eax
    673b:	e8 b0 40 00 00       	call   a7f0 <fibril_timer_set_locked@plt>
    6740:	83 c4 20             	add    $0x20,%esp
    6743:	8b 03                	mov    (%ebx),%eax
    6745:	50                   	push   %eax
    6746:	68 30 9c 00 00       	push   $0x9c30
    674b:	6a 04                	push   $0x4
    674d:	6a ff                	push   $0xffffffff
    674f:	e8 7c 40 00 00       	call   a7d0 <log_msg@plt>
    6754:	83 c4 10             	add    $0x10,%esp
    6757:	83 ec 0c             	sub    $0xc,%esp
    675a:	53                   	push   %ebx
    675b:	e8 c0 b9 ff ff       	call   2120 <tcp_conn_got_syn>
    6760:	83 c4 10             	add    $0x10,%esp
    6763:	84 c0                	test   %al,%al
    6765:	74 0b                	je     6772 <tcp_tqueue_seg+0x122>
    6767:	8b 06                	mov    (%esi),%eax
    6769:	a8 04                	test   $0x4,%al
    676b:	75 05                	jne    6772 <tcp_tqueue_seg+0x122>
    676d:	83 c8 08             	or     $0x8,%eax
    6770:	89 06                	mov    %eax,(%esi)
    6772:	8b 83 c8 00 00 00    	mov    0xc8(%ebx),%eax
    6778:	8b 56 0c             	mov    0xc(%esi),%edx
    677b:	89 46 04             	mov    %eax,0x4(%esi)
    677e:	01 d0                	add    %edx,%eax
    6780:	89 83 c8 00 00 00    	mov    %eax,0xc8(%ebx)
    6786:	51                   	push   %ecx
    6787:	51                   	push   %ecx
    6788:	56                   	push   %esi
    6789:	8b 3b                	mov    (%ebx),%edi
    678b:	53                   	push   %ebx
    678c:	57                   	push   %edi
    678d:	68 54 9c 00 00       	push   $0x9c54
    6792:	6a 04                	push   $0x4
    6794:	6a ff                	push   $0xffffffff
    6796:	e8 35 40 00 00       	call   a7d0 <log_msg@plt>
    679b:	8b 83 e4 00 00 00    	mov    0xe4(%ebx),%eax
    67a1:	89 46 10             	mov    %eax,0x10(%esi)
    67a4:	83 c4 20             	add    $0x20,%esp
    67a7:	31 c0                	xor    %eax,%eax
    67a9:	f6 06 08             	testb  $0x8,(%esi)
    67ac:	74 06                	je     67b4 <tcp_tqueue_seg+0x164>
    67ae:	8b 83 e0 00 00 00    	mov    0xe0(%ebx),%eax
    67b4:	89 46 08             	mov    %eax,0x8(%esi)
    67b7:	31 c0                	xor    %eax,%eax
    67b9:	57                   	push   %edi
    67ba:	57                   	push   %edi
    67bb:	66 8b 43 44          	mov    0x44(%ebx),%ax
    67bf:	56                   	push   %esi
    67c0:	50                   	push   %eax
    67c1:	31 c0                	xor    %eax,%eax
    67c3:	66 8b 43 2c          	mov    0x2c(%ebx),%ax
    67c7:	83 c3 14             	add    $0x14,%ebx
    67ca:	50                   	push   %eax
    67cb:	68 7c 9c 00 00       	push   $0x9c7c
    67d0:	6a 04                	push   $0x4
    67d2:	6a ff                	push   $0xffffffff
    67d4:	e8 f7 3f 00 00       	call   a7d0 <log_msg@plt>
    67d9:	83 c4 14             	add    $0x14,%esp
    67dc:	8b 46 10             	mov    0x10(%esi),%eax
    67df:	50                   	push   %eax
    67e0:	8b 46 04             	mov    0x4(%esi),%eax
    67e3:	50                   	push   %eax
    67e4:	68 c5 9d 00 00       	push   $0x9dc5
    67e9:	6a 04                	push   $0x4
    67eb:	6a ff                	push   $0xffffffff
    67ed:	e8 de 3f 00 00       	call   a7d0 <log_msg@plt>
    67f2:	83 c4 14             	add    $0x14,%esp
    67f5:	56                   	push   %esi
    67f6:	e8 a5 de ff ff       	call   46a0 <tcp_segment_dump>
    67fb:	83 c4 0c             	add    $0xc,%esp
    67fe:	8d 45 e4             	lea    -0x1c(%ebp),%eax
    6801:	50                   	push   %eax
    6802:	56                   	push   %esi
    6803:	53                   	push   %ebx
    6804:	e8 67 d4 ff ff       	call   3c70 <tcp_pdu_encode>
    6809:	83 c4 10             	add    $0x10,%esp
    680c:	85 c0                	test   %eax,%eax
    680e:	75 28                	jne    6838 <tcp_tqueue_seg+0x1e8>
    6810:	83 ec 0c             	sub    $0xc,%esp
    6813:	8b 45 e4             	mov    -0x1c(%ebp),%eax
    6816:	50                   	push   %eax
    6817:	e8 e4 fa ff ff       	call   6300 <tcp_transmit_pdu>
    681c:	8b 4d e4             	mov    -0x1c(%ebp),%ecx
    681f:	5a                   	pop    %edx
    6820:	51                   	push   %ecx
    6821:	e8 da d2 ff ff       	call   3b00 <tcp_pdu_delete>
    6826:	83 c4 10             	add    $0x10,%esp
    6829:	8d 65 f4             	lea    -0xc(%ebp),%esp
    682c:	5b                   	pop    %ebx
    682d:	5e                   	pop    %esi
    682e:	5f                   	pop    %edi
    682f:	5d                   	pop    %ebp
    6830:	c3                   	ret    
    6831:	8d b4 26 00 00 00 00 	lea    0x0(%esi,%eiz,1),%esi
    6838:	53                   	push   %ebx
    6839:	68 98 92 00 00       	push   $0x9298
    683e:	6a 02                	push   $0x2
    6840:	6a ff                	push   $0xffffffff
    6842:	e8 89 3f 00 00       	call   a7d0 <log_msg@plt>
    6847:	83 c4 10             	add    $0x10,%esp
    684a:	8d 65 f4             	lea    -0xc(%ebp),%esp
    684d:	5b                   	pop    %ebx
    684e:	5e                   	pop    %esi
    684f:	5f                   	pop    %edi
    6850:	5d                   	pop    %ebp
    6851:	c3                   	ret    
    6852:	8d b6 00 00 00 00    	lea    0x0(%esi),%esi
    6858:	51                   	push   %ecx
    6859:	68 ab 9d 00 00       	push   $0x9dab
    685e:	6a 01                	push   $0x1
    6860:	6a ff                	push   $0xffffffff
    6862:	e8 69 3f 00 00       	call   a7d0 <log_msg@plt>
    6867:	83 c4 10             	add    $0x10,%esp
    686a:	eb bd                	jmp    6829 <tcp_tqueue_seg+0x1d9>
    686c:	8d 74 26 00          	lea    0x0(%esi,%eiz,1),%esi
    6870:	83 ec 0c             	sub    $0xc,%esp
    6873:	53                   	push   %ebx
    6874:	e8 37 b0 ff ff       	call   18b0 <tcp_conn_delref>
    6879:	83 c4 10             	add    $0x10,%esp
    687c:	e9 8f fe ff ff       	jmp    6710 <tcp_tqueue_seg+0xc0>
    6881:	eb 0d                	jmp    6890 <tcp_tqueue_ctrl_seg>
    6883:	90                   	nop
    6884:	90                   	nop
    6885:	90                   	nop
    6886:	90                   	nop
    6887:	90                   	nop
    6888:	90                   	nop
    6889:	90                   	nop
    688a:	90                   	nop
    688b:	90                   	nop
    688c:	90                   	nop
    688d:	90                   	nop
    688e:	90                   	nop
    688f:	90                   	nop

00006890 <tcp_tqueue_ctrl_seg>:
    6890:	55                   	push   %ebp
    6891:	89 e5                	mov    %esp,%ebp
    6893:	56                   	push   %esi
    6894:	53                   	push   %ebx
    6895:	83 ec 0c             	sub    $0xc,%esp
    6898:	8b 75 08             	mov    0x8(%ebp),%esi
    689b:	8b 5d 0c             	mov    0xc(%ebp),%ebx
    689e:	53                   	push   %ebx
    689f:	56                   	push   %esi
    68a0:	68 dc 9d 00 00       	push   $0x9ddc
    68a5:	6a 04                	push   $0x4
    68a7:	6a ff                	push   $0xffffffff
    68a9:	e8 22 3f 00 00       	call   a7d0 <log_msg@plt>
    68ae:	83 c4 14             	add    $0x14,%esp
    68b1:	53                   	push   %ebx
    68b2:	e8 39 db ff ff       	call   43f0 <tcp_segment_make_ctrl>
    68b7:	89 c3                	mov    %eax,%ebx
    68b9:	58                   	pop    %eax
    68ba:	5a                   	pop    %edx
    68bb:	53                   	push   %ebx
    68bc:	56                   	push   %esi
    68bd:	e8 8e fd ff ff       	call   6650 <tcp_tqueue_seg>
    68c2:	89 5d 08             	mov    %ebx,0x8(%ebp)
    68c5:	83 c4 10             	add    $0x10,%esp
    68c8:	8d 65 f8             	lea    -0x8(%ebp),%esp
    68cb:	5b                   	pop    %ebx
    68cc:	5e                   	pop    %esi
    68cd:	5d                   	pop    %ebp
    68ce:	e9 5d da ff ff       	jmp    4330 <tcp_segment_delete>
    68d3:	8d b6 00 00 00 00    	lea    0x0(%esi),%esi
    68d9:	8d bc 27 00 00 00 00 	lea    0x0(%edi,%eiz,1),%edi

000068e0 <tcp_prepare_transmit_segment>:
    68e0:	55                   	push   %ebp
    68e1:	89 e5                	mov    %esp,%ebp
    68e3:	56                   	push   %esi
    68e4:	53                   	push   %ebx
    68e5:	83 ec 1c             	sub    $0x1c,%esp
    68e8:	8b 75 08             	mov    0x8(%ebp),%esi
    68eb:	8b 5d 0c             	mov    0xc(%ebp),%ebx
    68ee:	56                   	push   %esi
    68ef:	e8 2c b8 ff ff       	call   2120 <tcp_conn_got_syn>
    68f4:	83 c4 10             	add    $0x10,%esp
    68f7:	84 c0                	test   %al,%al
    68f9:	74 0b                	je     6906 <tcp_prepare_transmit_segment+0x26>
    68fb:	8b 03                	mov    (%ebx),%eax
    68fd:	a8 04                	test   $0x4,%al
    68ff:	75 05                	jne    6906 <tcp_prepare_transmit_segment+0x26>
    6901:	83 c8 08             	or     $0x8,%eax
    6904:	89 03                	mov    %eax,(%ebx)
    6906:	8b 86 c8 00 00 00    	mov    0xc8(%esi),%eax
    690c:	8b 53 0c             	mov    0xc(%ebx),%edx
    690f:	89 43 04             	mov    %eax,0x4(%ebx)
    6912:	01 d0                	add    %edx,%eax
    6914:	89 86 c8 00 00 00    	mov    %eax,0xc8(%esi)
    691a:	51                   	push   %ecx
    691b:	51                   	push   %ecx
    691c:	53                   	push   %ebx
    691d:	8b 06                	mov    (%esi),%eax
    691f:	56                   	push   %esi
    6920:	50                   	push   %eax
    6921:	68 54 9c 00 00       	push   $0x9c54
    6926:	6a 04                	push   $0x4
    6928:	6a ff                	push   $0xffffffff
    692a:	e8 a1 3e 00 00       	call   a7d0 <log_msg@plt>
    692f:	8b 86 e4 00 00 00    	mov    0xe4(%esi),%eax
    6935:	89 43 10             	mov    %eax,0x10(%ebx)
    6938:	83 c4 20             	add    $0x20,%esp
    693b:	31 c0                	xor    %eax,%eax
    693d:	f6 03 08             	testb  $0x8,(%ebx)
    6940:	74 06                	je     6948 <tcp_prepare_transmit_segment+0x68>
    6942:	8b 86 e0 00 00 00    	mov    0xe0(%esi),%eax
    6948:	89 43 08             	mov    %eax,0x8(%ebx)
    694b:	50                   	push   %eax
    694c:	50                   	push   %eax
    694d:	31 c0                	xor    %eax,%eax
    694f:	66 8b 46 44          	mov    0x44(%esi),%ax
    6953:	53                   	push   %ebx
    6954:	50                   	push   %eax
    6955:	31 c0                	xor    %eax,%eax
    6957:	66 8b 46 2c          	mov    0x2c(%esi),%ax
    695b:	83 c6 14             	add    $0x14,%esi
    695e:	50                   	push   %eax
    695f:	68 7c 9c 00 00       	push   $0x9c7c
    6964:	6a 04                	push   $0x4
    6966:	6a ff                	push   $0xffffffff
    6968:	e8 63 3e 00 00       	call   a7d0 <log_msg@plt>
    696d:	83 c4 14             	add    $0x14,%esp
    6970:	8b 43 10             	mov    0x10(%ebx),%eax
    6973:	50                   	push   %eax
    6974:	8b 43 04             	mov    0x4(%ebx),%eax
    6977:	50                   	push   %eax
    6978:	68 c5 9d 00 00       	push   $0x9dc5
    697d:	6a 04                	push   $0x4
    697f:	6a ff                	push   $0xffffffff
    6981:	e8 4a 3e 00 00       	call   a7d0 <log_msg@plt>
    6986:	83 c4 14             	add    $0x14,%esp
    6989:	53                   	push   %ebx
    698a:	e8 11 dd ff ff       	call   46a0 <tcp_segment_dump>
    698f:	83 c4 0c             	add    $0xc,%esp
    6992:	8d 45 f4             	lea    -0xc(%ebp),%eax
    6995:	50                   	push   %eax
    6996:	53                   	push   %ebx
    6997:	56                   	push   %esi
    6998:	e8 d3 d2 ff ff       	call   3c70 <tcp_pdu_encode>
    699d:	83 c4 10             	add    $0x10,%esp
    69a0:	85 c0                	test   %eax,%eax
    69a2:	75 24                	jne    69c8 <tcp_prepare_transmit_segment+0xe8>
    69a4:	83 ec 0c             	sub    $0xc,%esp
    69a7:	8b 45 f4             	mov    -0xc(%ebp),%eax
    69aa:	50                   	push   %eax
    69ab:	e8 50 f9 ff ff       	call   6300 <tcp_transmit_pdu>
    69b0:	8b 4d f4             	mov    -0xc(%ebp),%ecx
    69b3:	5a                   	pop    %edx
    69b4:	51                   	push   %ecx
    69b5:	e8 46 d1 ff ff       	call   3b00 <tcp_pdu_delete>
    69ba:	83 c4 10             	add    $0x10,%esp
    69bd:	8d 65 f8             	lea    -0x8(%ebp),%esp
    69c0:	5b                   	pop    %ebx
    69c1:	5e                   	pop    %esi
    69c2:	5d                   	pop    %ebp
    69c3:	c3                   	ret    
    69c4:	8d 74 26 00          	lea    0x0(%esi,%eiz,1),%esi
    69c8:	53                   	push   %ebx
    69c9:	68 98 92 00 00       	push   $0x9298
    69ce:	6a 02                	push   $0x2
    69d0:	6a ff                	push   $0xffffffff
    69d2:	e8 f9 3d 00 00       	call   a7d0 <log_msg@plt>
    69d7:	83 c4 10             	add    $0x10,%esp
    69da:	8d 65 f8             	lea    -0x8(%ebp),%esp
    69dd:	5b                   	pop    %ebx
    69de:	5e                   	pop    %esi
    69df:	5d                   	pop    %ebp
    69e0:	c3                   	ret    
    69e1:	eb 0d                	jmp    69f0 <tcp_tqueue_new_data>
    69e3:	90                   	nop
    69e4:	90                   	nop
    69e5:	90                   	nop
    69e6:	90                   	nop
    69e7:	90                   	nop
    69e8:	90                   	nop
    69e9:	90                   	nop
    69ea:	90                   	nop
    69eb:	90                   	nop
    69ec:	90                   	nop
    69ed:	90                   	nop
    69ee:	90                   	nop
    69ef:	90                   	nop

000069f0 <tcp_tqueue_new_data>:
    69f0:	55                   	push   %ebp
    69f1:	89 e5                	mov    %esp,%ebp
    69f3:	57                   	push   %edi
    69f4:	56                   	push   %esi
    69f5:	53                   	push   %ebx
    69f6:	83 ec 0c             	sub    $0xc,%esp
    69f9:	8b 5d 08             	mov    0x8(%ebp),%ebx
    69fc:	8b 33                	mov    (%ebx),%esi
    69fe:	56                   	push   %esi
    69ff:	68 f8 9d 00 00       	push   $0x9df8
    6a04:	6a 04                	push   $0x4
    6a06:	6a ff                	push   $0xffffffff
    6a08:	e8 c3 3d 00 00       	call   a7d0 <log_msg@plt>
    6a0d:	8b 83 cc 00 00 00    	mov    0xcc(%ebx),%eax
    6a13:	0f b6 bb b8 00 00 00 	movzbl 0xb8(%ebx),%edi
    6a1a:	8b b3 c4 00 00 00    	mov    0xc4(%ebx),%esi
    6a20:	81 e7 ff 00 00 00    	and    $0xff,%edi
    6a26:	01 c6                	add    %eax,%esi
    6a28:	8b 93 b4 00 00 00    	mov    0xb4(%ebx),%edx
    6a2e:	8b 8b c8 00 00 00    	mov    0xc8(%ebx),%ecx
    6a34:	01 d7                	add    %edx,%edi
    6a36:	29 ce                	sub    %ecx,%esi
    6a38:	83 c4 10             	add    $0x10,%esp
    6a3b:	39 fe                	cmp    %edi,%esi
    6a3d:	76 02                	jbe    6a41 <tcp_tqueue_new_data+0x51>
    6a3f:	89 fe                	mov    %edi,%esi
    6a41:	52                   	push   %edx
    6a42:	56                   	push   %esi
    6a43:	50                   	push   %eax
    6a44:	57                   	push   %edi
    6a45:	8b 0b                	mov    (%ebx),%ecx
    6a47:	51                   	push   %ecx
    6a48:	68 a4 9c 00 00       	push   $0x9ca4
    6a4d:	6a 04                	push   $0x4
    6a4f:	6a ff                	push   $0xffffffff
    6a51:	e8 7a 3d 00 00       	call   a7d0 <log_msg@plt>
    6a56:	83 c4 20             	add    $0x20,%esp
    6a59:	85 f6                	test   %esi,%esi
    6a5b:	0f 84 91 00 00 00    	je     6af2 <tcp_tqueue_new_data+0x102>
    6a61:	80 bb b8 00 00 00 00 	cmpb   $0x0,0xb8(%ebx)
    6a68:	74 08                	je     6a72 <tcp_tqueue_new_data+0x82>
    6a6a:	39 f7                	cmp    %esi,%edi
    6a6c:	0f 84 8e 00 00 00    	je     6b00 <tcp_tqueue_new_data+0x110>
    6a72:	50                   	push   %eax
    6a73:	56                   	push   %esi
    6a74:	8b 83 ac 00 00 00    	mov    0xac(%ebx),%eax
    6a7a:	50                   	push   %eax
    6a7b:	6a 00                	push   $0x0
    6a7d:	e8 fe d9 ff ff       	call   4480 <tcp_segment_make_data>
    6a82:	83 c4 10             	add    $0x10,%esp
    6a85:	89 c7                	mov    %eax,%edi
    6a87:	85 c0                	test   %eax,%eax
    6a89:	74 55                	je     6ae0 <tcp_tqueue_new_data+0xf0>
    6a8b:	8b 93 ac 00 00 00    	mov    0xac(%ebx),%edx
    6a91:	50                   	push   %eax
    6a92:	8b 83 b4 00 00 00    	mov    0xb4(%ebx),%eax
    6a98:	29 f0                	sub    %esi,%eax
    6a9a:	50                   	push   %eax
    6a9b:	8d 04 32             	lea    (%edx,%esi,1),%eax
    6a9e:	50                   	push   %eax
    6a9f:	52                   	push   %edx
    6aa0:	e8 7b 3c 00 00       	call   a720 <memmove@plt>
    6aa5:	8b 83 b4 00 00 00    	mov    0xb4(%ebx),%eax
    6aab:	29 f0                	sub    %esi,%eax
    6aad:	89 83 b4 00 00 00    	mov    %eax,0xb4(%ebx)
    6ab3:	8d 83 bc 00 00 00    	lea    0xbc(%ebx),%eax
    6ab9:	89 04 24             	mov    %eax,(%esp)
    6abc:	e8 cf 3d 00 00       	call   a890 <fibril_condvar_broadcast@plt>
    6ac1:	83 c4 10             	add    $0x10,%esp
    6ac4:	50                   	push   %eax
    6ac5:	50                   	push   %eax
    6ac6:	57                   	push   %edi
    6ac7:	53                   	push   %ebx
    6ac8:	e8 83 fb ff ff       	call   6650 <tcp_tqueue_seg>
    6acd:	89 7d 08             	mov    %edi,0x8(%ebp)
    6ad0:	83 c4 10             	add    $0x10,%esp
    6ad3:	8d 65 f4             	lea    -0xc(%ebp),%esp
    6ad6:	5b                   	pop    %ebx
    6ad7:	5e                   	pop    %esi
    6ad8:	5f                   	pop    %edi
    6ad9:	5d                   	pop    %ebp
    6ada:	e9 51 d8 ff ff       	jmp    4330 <tcp_segment_delete>
    6adf:	90                   	nop
    6ae0:	50                   	push   %eax
    6ae1:	68 12 9e 00 00       	push   $0x9e12
    6ae6:	6a 01                	push   $0x1
    6ae8:	6a ff                	push   $0xffffffff
    6aea:	e8 e1 3c 00 00       	call   a7d0 <log_msg@plt>
    6aef:	83 c4 10             	add    $0x10,%esp
    6af2:	8d 65 f4             	lea    -0xc(%ebp),%esp
    6af5:	5b                   	pop    %ebx
    6af6:	5e                   	pop    %esi
    6af7:	5f                   	pop    %edi
    6af8:	5d                   	pop    %ebp
    6af9:	c3                   	ret    
    6afa:	8d b6 00 00 00 00    	lea    0x0(%esi),%esi
    6b00:	8b 0b                	mov    (%ebx),%ecx
    6b02:	4e                   	dec    %esi
    6b03:	51                   	push   %ecx
    6b04:	68 2d 9e 00 00       	push   $0x9e2d
    6b09:	6a 04                	push   $0x4
    6b0b:	6a ff                	push   $0xffffffff
    6b0d:	e8 be 3c 00 00       	call   a7d0 <log_msg@plt>
    6b12:	83 c4 0c             	add    $0xc,%esp
    6b15:	56                   	push   %esi
    6b16:	8b bb ac 00 00 00    	mov    0xac(%ebx),%edi
    6b1c:	57                   	push   %edi
    6b1d:	6a 02                	push   $0x2
    6b1f:	e8 5c d9 ff ff       	call   4480 <tcp_segment_make_data>
    6b24:	83 c4 10             	add    $0x10,%esp
    6b27:	89 c7                	mov    %eax,%edi
    6b29:	85 c0                	test   %eax,%eax
    6b2b:	74 b3                	je     6ae0 <tcp_tqueue_new_data+0xf0>
    6b2d:	8b 93 ac 00 00 00    	mov    0xac(%ebx),%edx
    6b33:	50                   	push   %eax
    6b34:	8b 83 b4 00 00 00    	mov    0xb4(%ebx),%eax
    6b3a:	29 f0                	sub    %esi,%eax
    6b3c:	50                   	push   %eax
    6b3d:	8d 04 32             	lea    (%edx,%esi,1),%eax
    6b40:	50                   	push   %eax
    6b41:	52                   	push   %edx
    6b42:	e8 d9 3b 00 00       	call   a720 <memmove@plt>
    6b47:	8b 93 b4 00 00 00    	mov    0xb4(%ebx),%edx
    6b4d:	29 f2                	sub    %esi,%edx
    6b4f:	8d 83 bc 00 00 00    	lea    0xbc(%ebx),%eax
    6b55:	89 93 b4 00 00 00    	mov    %edx,0xb4(%ebx)
    6b5b:	c6 83 b8 00 00 00 00 	movb   $0x0,0xb8(%ebx)
    6b62:	89 04 24             	mov    %eax,(%esp)
    6b65:	e8 26 3d 00 00       	call   a890 <fibril_condvar_broadcast@plt>
    6b6a:	89 1c 24             	mov    %ebx,(%esp)
    6b6d:	e8 7e b2 ff ff       	call   1df0 <tcp_conn_fin_sent>
    6b72:	83 c4 10             	add    $0x10,%esp
    6b75:	e9 4a ff ff ff       	jmp    6ac4 <tcp_tqueue_new_data+0xd4>
    6b7a:	8d b6 00 00 00 00    	lea    0x0(%esi),%esi

00006b80 <tcp_tqueue_ack_received>:
    6b80:	55                   	push   %ebp
    6b81:	89 e5                	mov    %esp,%ebp
    6b83:	57                   	push   %edi
    6b84:	56                   	push   %esi
    6b85:	53                   	push   %ebx
    6b86:	83 ec 28             	sub    $0x28,%esp
    6b89:	8b 5d 08             	mov    0x8(%ebp),%ebx
    6b8c:	53                   	push   %ebx
    6b8d:	8b 03                	mov    (%ebx),%eax
    6b8f:	50                   	push   %eax
    6b90:	68 e0 9c 00 00       	push   $0x9ce0
    6b95:	6a 04                	push   $0x4
    6b97:	6a ff                	push   $0xffffffff
    6b99:	e8 32 3c 00 00       	call   a7d0 <log_msg@plt>
    6b9e:	8d 83 84 00 00 00    	lea    0x84(%ebx),%eax
    6ba4:	8b bb 88 00 00 00    	mov    0x88(%ebx),%edi
    6baa:	89 45 e4             	mov    %eax,-0x1c(%ebp)
    6bad:	83 c4 20             	add    $0x20,%esp
    6bb0:	3b 7d e4             	cmp    -0x1c(%ebp),%edi
    6bb3:	0f 84 f3 00 00 00    	je     6cac <tcp_tqueue_ack_received+0x12c>
    6bb9:	8d b4 26 00 00 00 00 	lea    0x0(%esi,%eiz,1),%esi
    6bc0:	8b 77 04             	mov    0x4(%edi),%esi
    6bc3:	50                   	push   %eax
    6bc4:	8b 83 c4 00 00 00    	mov    0xc4(%ebx),%eax
    6bca:	50                   	push   %eax
    6bcb:	8b 47 0c             	mov    0xc(%edi),%eax
    6bce:	50                   	push   %eax
    6bcf:	53                   	push   %ebx
    6bd0:	e8 2b f0 ff ff       	call   5c00 <seq_no_segment_acked>
    6bd5:	83 c4 10             	add    $0x10,%esp
    6bd8:	84 c0                	test   %al,%al
    6bda:	0f 84 c1 00 00 00    	je     6ca1 <tcp_tqueue_ack_received+0x121>
    6be0:	8b 0f                	mov    (%edi),%ecx
    6be2:	85 c9                	test   %ecx,%ecx
    6be4:	74 0e                	je     6bf4 <tcp_tqueue_ack_received+0x74>
    6be6:	8b 47 04             	mov    0x4(%edi),%eax
    6be9:	85 c0                	test   %eax,%eax
    6beb:	74 07                	je     6bf4 <tcp_tqueue_ack_received+0x74>
    6bed:	89 08                	mov    %ecx,(%eax)
    6bef:	8b 0f                	mov    (%edi),%ecx
    6bf1:	89 41 04             	mov    %eax,0x4(%ecx)
    6bf4:	8b 47 0c             	mov    0xc(%edi),%eax
    6bf7:	c7 07 00 00 00 00    	movl   $0x0,(%edi)
    6bfd:	c7 47 04 00 00 00 00 	movl   $0x0,0x4(%edi)
    6c04:	f6 00 02             	testb  $0x2,(%eax)
    6c07:	0f 85 bb 00 00 00    	jne    6cc8 <tcp_tqueue_ack_received+0x148>
    6c0d:	83 ec 0c             	sub    $0xc,%esp
    6c10:	50                   	push   %eax
    6c11:	e8 1a d7 ff ff       	call   4330 <tcp_segment_delete>
    6c16:	89 3c 24             	mov    %edi,(%esp)
    6c19:	e8 32 3e 00 00       	call   aa50 <free@plt>
    6c1e:	8b 03                	mov    (%ebx),%eax
    6c20:	50                   	push   %eax
    6c21:	68 08 9c 00 00       	push   $0x9c08
    6c26:	6a 04                	push   $0x4
    6c28:	6a ff                	push   $0xffffffff
    6c2a:	e8 a1 3b 00 00       	call   a7d0 <log_msg@plt>
    6c2f:	83 c4 20             	add    $0x20,%esp
    6c32:	8b 03                	mov    (%ebx),%eax
    6c34:	50                   	push   %eax
    6c35:	68 b8 9b 00 00       	push   $0x9bb8
    6c3a:	6a 04                	push   $0x4
    6c3c:	6a ff                	push   $0xffffffff
    6c3e:	e8 8d 3b 00 00       	call   a7d0 <log_msg@plt>
    6c43:	58                   	pop    %eax
    6c44:	8b 83 8c 00 00 00    	mov    0x8c(%ebx),%eax
    6c4a:	50                   	push   %eax
    6c4b:	e8 e0 3d 00 00       	call   aa30 <fibril_timer_clear_locked@plt>
    6c50:	83 c4 10             	add    $0x10,%esp
    6c53:	48                   	dec    %eax
    6c54:	0f 84 ae 00 00 00    	je     6d08 <tcp_tqueue_ack_received+0x188>
    6c5a:	8b 3b                	mov    (%ebx),%edi
    6c5c:	57                   	push   %edi
    6c5d:	68 e0 9b 00 00       	push   $0x9be0
    6c62:	6a 04                	push   $0x4
    6c64:	6a ff                	push   $0xffffffff
    6c66:	e8 65 3b 00 00       	call   a7d0 <log_msg@plt>
    6c6b:	89 1c 24             	mov    %ebx,(%esp)
    6c6e:	e8 0d ac ff ff       	call   1880 <tcp_conn_addref>
    6c73:	53                   	push   %ebx
    6c74:	68 50 6e 00 00       	push   $0x6e50
    6c79:	68 80 84 1e 00       	push   $0x1e8480
    6c7e:	8b 83 8c 00 00 00    	mov    0x8c(%ebx),%eax
    6c84:	50                   	push   %eax
    6c85:	e8 66 3b 00 00       	call   a7f0 <fibril_timer_set_locked@plt>
    6c8a:	83 c4 20             	add    $0x20,%esp
    6c8d:	8b 03                	mov    (%ebx),%eax
    6c8f:	50                   	push   %eax
    6c90:	68 30 9c 00 00       	push   $0x9c30
    6c95:	6a 04                	push   $0x4
    6c97:	6a ff                	push   $0xffffffff
    6c99:	e8 32 3b 00 00       	call   a7d0 <log_msg@plt>
    6c9e:	83 c4 10             	add    $0x10,%esp
    6ca1:	89 f7                	mov    %esi,%edi
    6ca3:	3b 7d e4             	cmp    -0x1c(%ebp),%edi
    6ca6:	0f 85 14 ff ff ff    	jne    6bc0 <tcp_tqueue_ack_received+0x40>
    6cac:	3b bb 88 00 00 00    	cmp    0x88(%ebx),%edi
    6cb2:	74 65                	je     6d19 <tcp_tqueue_ack_received+0x199>
    6cb4:	89 5d 08             	mov    %ebx,0x8(%ebp)
    6cb7:	8d 65 f4             	lea    -0xc(%ebp),%esp
    6cba:	5b                   	pop    %ebx
    6cbb:	5e                   	pop    %esi
    6cbc:	5f                   	pop    %edi
    6cbd:	5d                   	pop    %ebp
    6cbe:	e9 2d fd ff ff       	jmp    69f0 <tcp_tqueue_new_data>
    6cc3:	90                   	nop
    6cc4:	8d 74 26 00          	lea    0x0(%esi,%eiz,1),%esi
    6cc8:	52                   	push   %edx
    6cc9:	68 42 9e 00 00       	push   $0x9e42
    6cce:	6a 04                	push   $0x4
    6cd0:	6a ff                	push   $0xffffffff
    6cd2:	e8 f9 3a 00 00       	call   a7d0 <log_msg@plt>
    6cd7:	8b 47 0c             	mov    0xc(%edi),%eax
    6cda:	59                   	pop    %ecx
    6cdb:	8b 48 0c             	mov    0xc(%eax),%ecx
    6cde:	5a                   	pop    %edx
    6cdf:	51                   	push   %ecx
    6ce0:	8b 40 04             	mov    0x4(%eax),%eax
    6ce3:	50                   	push   %eax
    6ce4:	8b 83 c4 00 00 00    	mov    0xc4(%ebx),%eax
    6cea:	50                   	push   %eax
    6ceb:	68 00 9d 00 00       	push   $0x9d00
    6cf0:	6a 04                	push   $0x4
    6cf2:	6a ff                	push   $0xffffffff
    6cf4:	e8 d7 3a 00 00       	call   a7d0 <log_msg@plt>
    6cf9:	c6 43 70 01          	movb   $0x1,0x70(%ebx)
    6cfd:	8b 47 0c             	mov    0xc(%edi),%eax
    6d00:	83 c4 20             	add    $0x20,%esp
    6d03:	e9 05 ff ff ff       	jmp    6c0d <tcp_tqueue_ack_received+0x8d>
    6d08:	83 ec 0c             	sub    $0xc,%esp
    6d0b:	53                   	push   %ebx
    6d0c:	e8 9f ab ff ff       	call   18b0 <tcp_conn_delref>
    6d11:	83 c4 10             	add    $0x10,%esp
    6d14:	e9 41 ff ff ff       	jmp    6c5a <tcp_tqueue_ack_received+0xda>
    6d19:	8b 13                	mov    (%ebx),%edx
    6d1b:	52                   	push   %edx
    6d1c:	68 b8 9b 00 00       	push   $0x9bb8
    6d21:	6a 04                	push   $0x4
    6d23:	6a ff                	push   $0xffffffff
    6d25:	e8 a6 3a 00 00       	call   a7d0 <log_msg@plt>
    6d2a:	8b b3 8c 00 00 00    	mov    0x8c(%ebx),%esi
    6d30:	59                   	pop    %ecx
    6d31:	56                   	push   %esi
    6d32:	e8 f9 3c 00 00       	call   aa30 <fibril_timer_clear_locked@plt>
    6d37:	83 c4 10             	add    $0x10,%esp
    6d3a:	48                   	dec    %eax
    6d3b:	74 23                	je     6d60 <tcp_tqueue_ack_received+0x1e0>
    6d3d:	8b 03                	mov    (%ebx),%eax
    6d3f:	50                   	push   %eax
    6d40:	68 e0 9b 00 00       	push   $0x9be0
    6d45:	6a 04                	push   $0x4
    6d47:	6a ff                	push   $0xffffffff
    6d49:	e8 82 3a 00 00       	call   a7d0 <log_msg@plt>
    6d4e:	89 5d 08             	mov    %ebx,0x8(%ebp)
    6d51:	83 c4 10             	add    $0x10,%esp
    6d54:	8d 65 f4             	lea    -0xc(%ebp),%esp
    6d57:	5b                   	pop    %ebx
    6d58:	5e                   	pop    %esi
    6d59:	5f                   	pop    %edi
    6d5a:	5d                   	pop    %ebp
    6d5b:	e9 90 fc ff ff       	jmp    69f0 <tcp_tqueue_new_data>
    6d60:	83 ec 0c             	sub    $0xc,%esp
    6d63:	53                   	push   %ebx
    6d64:	e8 47 ab ff ff       	call   18b0 <tcp_conn_delref>
    6d69:	83 c4 10             	add    $0x10,%esp
    6d6c:	eb cf                	jmp    6d3d <tcp_tqueue_ack_received+0x1bd>
    6d6e:	66 90                	xchg   %ax,%ax

00006d70 <tcp_conn_transmit_segment>:
    6d70:	55                   	push   %ebp
    6d71:	89 e5                	mov    %esp,%ebp
    6d73:	56                   	push   %esi
    6d74:	53                   	push   %ebx
    6d75:	83 ec 18             	sub    $0x18,%esp
    6d78:	8b 75 08             	mov    0x8(%ebp),%esi
    6d7b:	8b 5d 0c             	mov    0xc(%ebp),%ebx
    6d7e:	53                   	push   %ebx
    6d7f:	56                   	push   %esi
    6d80:	8b 06                	mov    (%esi),%eax
    6d82:	50                   	push   %eax
    6d83:	68 54 9c 00 00       	push   $0x9c54
    6d88:	6a 04                	push   $0x4
    6d8a:	6a ff                	push   $0xffffffff
    6d8c:	e8 3f 3a 00 00       	call   a7d0 <log_msg@plt>
    6d91:	8b 86 e4 00 00 00    	mov    0xe4(%esi),%eax
    6d97:	89 43 10             	mov    %eax,0x10(%ebx)
    6d9a:	83 c4 20             	add    $0x20,%esp
    6d9d:	31 c0                	xor    %eax,%eax
    6d9f:	f6 03 08             	testb  $0x8,(%ebx)
    6da2:	74 06                	je     6daa <tcp_conn_transmit_segment+0x3a>
    6da4:	8b 86 e0 00 00 00    	mov    0xe0(%esi),%eax
    6daa:	89 43 08             	mov    %eax,0x8(%ebx)
    6dad:	50                   	push   %eax
    6dae:	50                   	push   %eax
    6daf:	31 c0                	xor    %eax,%eax
    6db1:	66 8b 46 44          	mov    0x44(%esi),%ax
    6db5:	53                   	push   %ebx
    6db6:	50                   	push   %eax
    6db7:	31 c0                	xor    %eax,%eax
    6db9:	66 8b 46 2c          	mov    0x2c(%esi),%ax
    6dbd:	83 c6 14             	add    $0x14,%esi
    6dc0:	50                   	push   %eax
    6dc1:	68 7c 9c 00 00       	push   $0x9c7c
    6dc6:	6a 04                	push   $0x4
    6dc8:	6a ff                	push   $0xffffffff
    6dca:	e8 01 3a 00 00       	call   a7d0 <log_msg@plt>
    6dcf:	83 c4 14             	add    $0x14,%esp
    6dd2:	8b 43 10             	mov    0x10(%ebx),%eax
    6dd5:	50                   	push   %eax
    6dd6:	8b 43 04             	mov    0x4(%ebx),%eax
    6dd9:	50                   	push   %eax
    6dda:	68 c5 9d 00 00       	push   $0x9dc5
    6ddf:	6a 04                	push   $0x4
    6de1:	6a ff                	push   $0xffffffff
    6de3:	e8 e8 39 00 00       	call   a7d0 <log_msg@plt>
    6de8:	83 c4 14             	add    $0x14,%esp
    6deb:	53                   	push   %ebx
    6dec:	e8 af d8 ff ff       	call   46a0 <tcp_segment_dump>
    6df1:	83 c4 0c             	add    $0xc,%esp
    6df4:	8d 45 f4             	lea    -0xc(%ebp),%eax
    6df7:	50                   	push   %eax
    6df8:	53                   	push   %ebx
    6df9:	56                   	push   %esi
    6dfa:	e8 71 ce ff ff       	call   3c70 <tcp_pdu_encode>
    6dff:	83 c4 10             	add    $0x10,%esp
    6e02:	85 c0                	test   %eax,%eax
    6e04:	75 22                	jne    6e28 <tcp_conn_transmit_segment+0xb8>
    6e06:	83 ec 0c             	sub    $0xc,%esp
    6e09:	8b 45 f4             	mov    -0xc(%ebp),%eax
    6e0c:	50                   	push   %eax
    6e0d:	e8 ee f4 ff ff       	call   6300 <tcp_transmit_pdu>
    6e12:	8b 4d f4             	mov    -0xc(%ebp),%ecx
    6e15:	5a                   	pop    %edx
    6e16:	51                   	push   %ecx
    6e17:	e8 e4 cc ff ff       	call   3b00 <tcp_pdu_delete>
    6e1c:	83 c4 10             	add    $0x10,%esp
    6e1f:	8d 65 f8             	lea    -0x8(%ebp),%esp
    6e22:	5b                   	pop    %ebx
    6e23:	5e                   	pop    %esi
    6e24:	5d                   	pop    %ebp
    6e25:	c3                   	ret    
    6e26:	66 90                	xchg   %ax,%ax
    6e28:	53                   	push   %ebx
    6e29:	68 98 92 00 00       	push   $0x9298
    6e2e:	6a 02                	push   $0x2
    6e30:	6a ff                	push   $0xffffffff
    6e32:	e8 99 39 00 00       	call   a7d0 <log_msg@plt>
    6e37:	83 c4 10             	add    $0x10,%esp
    6e3a:	8d 65 f8             	lea    -0x8(%ebp),%esp
    6e3d:	5b                   	pop    %ebx
    6e3e:	5e                   	pop    %esi
    6e3f:	5d                   	pop    %ebp
    6e40:	c3                   	ret    
    6e41:	eb 0d                	jmp    6e50 <retransmit_timeout_func>
    6e43:	90                   	nop
    6e44:	90                   	nop
    6e45:	90                   	nop
    6e46:	90                   	nop
    6e47:	90                   	nop
    6e48:	90                   	nop
    6e49:	90                   	nop
    6e4a:	90                   	nop
    6e4b:	90                   	nop
    6e4c:	90                   	nop
    6e4d:	90                   	nop
    6e4e:	90                   	nop
    6e4f:	90                   	nop

00006e50 <retransmit_timeout_func>:
    6e50:	55                   	push   %ebp
    6e51:	89 e5                	mov    %esp,%ebp
    6e53:	57                   	push   %edi
    6e54:	56                   	push   %esi
    6e55:	53                   	push   %ebx
    6e56:	83 ec 18             	sub    $0x18,%esp
    6e59:	8b 5d 08             	mov    0x8(%ebp),%ebx
    6e5c:	53                   	push   %ebx
    6e5d:	8b 03                	mov    (%ebx),%eax
    6e5f:	50                   	push   %eax
    6e60:	68 24 9d 00 00       	push   $0x9d24
    6e65:	6a 04                	push   $0x4
    6e67:	6a ff                	push   $0xffffffff
    6e69:	e8 62 39 00 00       	call   a7d0 <log_msg@plt>
    6e6e:	83 c4 14             	add    $0x14,%esp
    6e71:	53                   	push   %ebx
    6e72:	e8 e9 aa ff ff       	call   1960 <tcp_conn_lock>
    6e77:	83 c4 10             	add    $0x10,%esp
    6e7a:	83 7b 60 0a          	cmpl   $0xa,0x60(%ebx)
    6e7e:	0f 84 94 00 00 00    	je     6f18 <retransmit_timeout_func+0xc8>
    6e84:	8b b3 88 00 00 00    	mov    0x88(%ebx),%esi
    6e8a:	85 f6                	test   %esi,%esi
    6e8c:	0f 84 af 00 00 00    	je     6f41 <retransmit_timeout_func+0xf1>
    6e92:	8d 83 84 00 00 00    	lea    0x84(%ebx),%eax
    6e98:	39 c6                	cmp    %eax,%esi
    6e9a:	0f 84 a1 00 00 00    	je     6f41 <retransmit_timeout_func+0xf1>
    6ea0:	83 ec 0c             	sub    $0xc,%esp
    6ea3:	8b 46 0c             	mov    0xc(%esi),%eax
    6ea6:	50                   	push   %eax
    6ea7:	e8 b4 d4 ff ff       	call   4360 <tcp_segment_dup>
    6eac:	83 c4 10             	add    $0x10,%esp
    6eaf:	89 c7                	mov    %eax,%edi
    6eb1:	85 c0                	test   %eax,%eax
    6eb3:	0f 84 97 00 00 00    	je     6f50 <retransmit_timeout_func+0x100>
    6eb9:	8b 03                	mov    (%ebx),%eax
    6ebb:	50                   	push   %eax
    6ebc:	68 48 9d 00 00       	push   $0x9d48
    6ec1:	6a 04                	push   $0x4
    6ec3:	6a ff                	push   $0xffffffff
    6ec5:	e8 06 39 00 00       	call   a7d0 <log_msg@plt>
    6eca:	5a                   	pop    %edx
    6ecb:	59                   	pop    %ecx
    6ecc:	57                   	push   %edi
    6ecd:	8b 76 08             	mov    0x8(%esi),%esi
    6ed0:	56                   	push   %esi
    6ed1:	e8 9a fe ff ff       	call   6d70 <tcp_conn_transmit_segment>
    6ed6:	53                   	push   %ebx
    6ed7:	68 50 6e 00 00       	push   $0x6e50
    6edc:	68 80 84 1e 00       	push   $0x1e8480
    6ee1:	8b bb 8c 00 00 00    	mov    0x8c(%ebx),%edi
    6ee7:	57                   	push   %edi
    6ee8:	e8 03 39 00 00       	call   a7f0 <fibril_timer_set_locked@plt>
    6eed:	83 c4 14             	add    $0x14,%esp
    6ef0:	53                   	push   %ebx
    6ef1:	e8 8a aa ff ff       	call   1980 <tcp_conn_unlock>
    6ef6:	89 1c 24             	mov    %ebx,(%esp)
    6ef9:	8b 03                	mov    (%ebx),%eax
    6efb:	50                   	push   %eax
    6efc:	68 68 9d 00 00       	push   $0x9d68
    6f01:	6a 04                	push   $0x4
    6f03:	6a ff                	push   $0xffffffff
    6f05:	e8 c6 38 00 00       	call   a7d0 <log_msg@plt>
    6f0a:	83 c4 20             	add    $0x20,%esp
    6f0d:	8d 65 f4             	lea    -0xc(%ebp),%esp
    6f10:	5b                   	pop    %ebx
    6f11:	5e                   	pop    %esi
    6f12:	5f                   	pop    %edi
    6f13:	5d                   	pop    %ebp
    6f14:	c3                   	ret    
    6f15:	8d 76 00             	lea    0x0(%esi),%esi
    6f18:	50                   	push   %eax
    6f19:	68 51 8b 00 00       	push   $0x8b51
    6f1e:	6a 04                	push   $0x4
    6f20:	6a ff                	push   $0xffffffff
    6f22:	e8 a9 38 00 00       	call   a7d0 <log_msg@plt>
    6f27:	89 1c 24             	mov    %ebx,(%esp)
    6f2a:	e8 51 aa ff ff       	call   1980 <tcp_conn_unlock>
    6f2f:	89 5d 08             	mov    %ebx,0x8(%ebp)
    6f32:	83 c4 10             	add    $0x10,%esp
    6f35:	8d 65 f4             	lea    -0xc(%ebp),%esp
    6f38:	5b                   	pop    %ebx
    6f39:	5e                   	pop    %esi
    6f3a:	5f                   	pop    %edi
    6f3b:	5d                   	pop    %ebp
    6f3c:	e9 6f a9 ff ff       	jmp    18b0 <tcp_conn_delref>
    6f41:	50                   	push   %eax
    6f42:	68 55 9e 00 00       	push   $0x9e55
    6f47:	6a 04                	push   $0x4
    6f49:	eb d5                	jmp    6f20 <retransmit_timeout_func+0xd0>
    6f4b:	90                   	nop
    6f4c:	8d 74 26 00          	lea    0x0(%esi,%eiz,1),%esi
    6f50:	50                   	push   %eax
    6f51:	68 ab 9d 00 00       	push   $0x9dab
    6f56:	6a 01                	push   $0x1
    6f58:	eb c6                	jmp    6f20 <retransmit_timeout_func+0xd0>
    6f5a:	8d b6 00 00 00 00    	lea    0x0(%esi),%esi

00006f60 <tcp_transmit_segment>:
    6f60:	55                   	push   %ebp
    6f61:	31 c0                	xor    %eax,%eax
    6f63:	89 e5                	mov    %esp,%ebp
    6f65:	56                   	push   %esi
    6f66:	53                   	push   %ebx
    6f67:	83 ec 18             	sub    $0x18,%esp
    6f6a:	8b 75 08             	mov    0x8(%ebp),%esi
    6f6d:	8b 5d 0c             	mov    0xc(%ebp),%ebx
    6f70:	53                   	push   %ebx
    6f71:	66 8b 46 30          	mov    0x30(%esi),%ax
    6f75:	50                   	push   %eax
    6f76:	31 c0                	xor    %eax,%eax
    6f78:	66 8b 46 18          	mov    0x18(%esi),%ax
    6f7c:	50                   	push   %eax
    6f7d:	68 7c 9c 00 00       	push   $0x9c7c
    6f82:	6a 04                	push   $0x4
    6f84:	6a ff                	push   $0xffffffff
    6f86:	e8 45 38 00 00       	call   a7d0 <log_msg@plt>
    6f8b:	83 c4 14             	add    $0x14,%esp
    6f8e:	8b 43 10             	mov    0x10(%ebx),%eax
    6f91:	50                   	push   %eax
    6f92:	8b 43 04             	mov    0x4(%ebx),%eax
    6f95:	50                   	push   %eax
    6f96:	68 c5 9d 00 00       	push   $0x9dc5
    6f9b:	6a 04                	push   $0x4
    6f9d:	6a ff                	push   $0xffffffff
    6f9f:	e8 2c 38 00 00       	call   a7d0 <log_msg@plt>
    6fa4:	83 c4 14             	add    $0x14,%esp
    6fa7:	53                   	push   %ebx
    6fa8:	e8 f3 d6 ff ff       	call   46a0 <tcp_segment_dump>
    6fad:	83 c4 0c             	add    $0xc,%esp
    6fb0:	8d 45 f4             	lea    -0xc(%ebp),%eax
    6fb3:	50                   	push   %eax
    6fb4:	53                   	push   %ebx
    6fb5:	56                   	push   %esi
    6fb6:	e8 b5 cc ff ff       	call   3c70 <tcp_pdu_encode>
    6fbb:	83 c4 10             	add    $0x10,%esp
    6fbe:	85 c0                	test   %eax,%eax
    6fc0:	75 26                	jne    6fe8 <tcp_transmit_segment+0x88>
    6fc2:	83 ec 0c             	sub    $0xc,%esp
    6fc5:	8b 45 f4             	mov    -0xc(%ebp),%eax
    6fc8:	50                   	push   %eax
    6fc9:	e8 32 f3 ff ff       	call   6300 <tcp_transmit_pdu>
    6fce:	8b 4d f4             	mov    -0xc(%ebp),%ecx
    6fd1:	5a                   	pop    %edx
    6fd2:	51                   	push   %ecx
    6fd3:	e8 28 cb ff ff       	call   3b00 <tcp_pdu_delete>
    6fd8:	83 c4 10             	add    $0x10,%esp
    6fdb:	8d 65 f8             	lea    -0x8(%ebp),%esp
    6fde:	5b                   	pop    %ebx
    6fdf:	5e                   	pop    %esi
    6fe0:	5d                   	pop    %ebp
    6fe1:	c3                   	ret    
    6fe2:	8d b6 00 00 00 00    	lea    0x0(%esi),%esi
    6fe8:	53                   	push   %ebx
    6fe9:	68 98 92 00 00       	push   $0x9298
    6fee:	6a 02                	push   $0x2
    6ff0:	6a ff                	push   $0xffffffff
    6ff2:	e8 d9 37 00 00       	call   a7d0 <log_msg@plt>
    6ff7:	83 c4 10             	add    $0x10,%esp
    6ffa:	8d 65 f8             	lea    -0x8(%ebp),%esp
    6ffd:	5b                   	pop    %ebx
    6ffe:	5e                   	pop    %esi
    6fff:	5d                   	pop    %ebp
    7000:	c3                   	ret    
    7001:	66 90                	xchg   %ax,%ax
    7003:	66 90                	xchg   %ax,%ax
    7005:	66 90                	xchg   %ax,%ax
    7007:	66 90                	xchg   %ax,%ax
    7009:	66 90                	xchg   %ax,%ax
    700b:	66 90                	xchg   %ax,%ax
    700d:	66 90                	xchg   %ax,%ax
    700f:	90                   	nop

00007010 <tcp_uc_open>:
    7010:	55                   	push   %ebp
    7011:	b8 6b 9e 00 00       	mov    $0x9e6b,%eax
    7016:	89 e5                	mov    %esp,%ebp
    7018:	57                   	push   %edi
    7019:	56                   	push   %esi
    701a:	53                   	push   %ebx
    701b:	83 ec 0c             	sub    $0xc,%esp
    701e:	8b 5d 08             	mov    0x8(%ebp),%ebx
    7021:	83 7d 10 01          	cmpl   $0x1,0x10(%ebp)
    7025:	74 05                	je     702c <tcp_uc_open+0x1c>
    7027:	b8 74 9e 00 00       	mov    $0x9e74,%eax
    702c:	8b 55 0c             	mov    0xc(%ebp),%edx
    702f:	85 d2                	test   %edx,%edx
    7031:	75 55                	jne    7088 <tcp_uc_open+0x78>
    7033:	8b 7d 14             	mov    0x14(%ebp),%edi
    7036:	56                   	push   %esi
    7037:	57                   	push   %edi
    7038:	50                   	push   %eax
    7039:	68 ae 9e 00 00       	push   $0x9eae
    703e:	53                   	push   %ebx
    703f:	68 b5 9e 00 00       	push   $0x9eb5
    7044:	6a 04                	push   $0x4
    7046:	6a ff                	push   $0xffffffff
    7048:	e8 83 37 00 00       	call   a7d0 <log_msg@plt>
    704d:	83 c4 14             	add    $0x14,%esp
    7050:	53                   	push   %ebx
    7051:	e8 5a a6 ff ff       	call   16b0 <tcp_conn_new>
    7056:	89 04 24             	mov    %eax,(%esp)
    7059:	89 c3                	mov    %eax,%ebx
    705b:	e8 40 aa ff ff       	call   1aa0 <tcp_conn_add>
    7060:	83 c4 10             	add    $0x10,%esp
    7063:	85 c0                	test   %eax,%eax
    7065:	0f 84 dd 00 00 00    	je     7148 <tcp_uc_open+0x138>
    706b:	83 ec 0c             	sub    $0xc,%esp
    706e:	53                   	push   %ebx
    706f:	e8 2c a9 ff ff       	call   19a0 <tcp_conn_delete>
    7074:	83 c4 10             	add    $0x10,%esp
    7077:	b8 02 00 00 00       	mov    $0x2,%eax
    707c:	8d 65 f4             	lea    -0xc(%ebp),%esp
    707f:	5b                   	pop    %ebx
    7080:	5e                   	pop    %esi
    7081:	5f                   	pop    %edi
    7082:	5d                   	pop    %ebp
    7083:	c3                   	ret    
    7084:	8d 74 26 00          	lea    0x0(%esi,%eiz,1),%esi
    7088:	8b 4d 14             	mov    0x14(%ebp),%ecx
    708b:	52                   	push   %edx
    708c:	51                   	push   %ecx
    708d:	50                   	push   %eax
    708e:	68 d1 9e 00 00       	push   $0x9ed1
    7093:	53                   	push   %ebx
    7094:	68 b5 9e 00 00       	push   $0x9eb5
    7099:	6a 04                	push   $0x4
    709b:	6a ff                	push   $0xffffffff
    709d:	e8 2e 37 00 00       	call   a7d0 <log_msg@plt>
    70a2:	83 c4 14             	add    $0x14,%esp
    70a5:	53                   	push   %ebx
    70a6:	e8 05 a6 ff ff       	call   16b0 <tcp_conn_new>
    70ab:	89 04 24             	mov    %eax,(%esp)
    70ae:	89 c3                	mov    %eax,%ebx
    70b0:	e8 eb a9 ff ff       	call   1aa0 <tcp_conn_add>
    70b5:	83 c4 10             	add    $0x10,%esp
    70b8:	85 c0                	test   %eax,%eax
    70ba:	75 af                	jne    706b <tcp_uc_open+0x5b>
    70bc:	83 ec 0c             	sub    $0xc,%esp
    70bf:	53                   	push   %ebx
    70c0:	e8 9b a8 ff ff       	call   1960 <tcp_conn_lock>
    70c5:	83 c4 10             	add    $0x10,%esp
    70c8:	83 7d 10 01          	cmpl   $0x1,0x10(%ebp)
    70cc:	0f 84 ce 00 00 00    	je     71a0 <tcp_uc_open+0x190>
    70d2:	50                   	push   %eax
    70d3:	68 d0 9f 00 00       	push   $0x9fd0
    70d8:	6a 04                	push   $0x4
    70da:	6a ff                	push   $0xffffffff
    70dc:	e8 ef 36 00 00       	call   a7d0 <log_msg@plt>
    70e1:	8b 43 60             	mov    0x60(%ebx),%eax
    70e4:	83 c4 10             	add    $0x10,%esp
    70e7:	83 f8 02             	cmp    $0x2,%eax
    70ea:	77 20                	ja     710c <tcp_uc_open+0xfc>
    70ec:	8d 7b 4c             	lea    0x4c(%ebx),%edi
    70ef:	8d 73 68             	lea    0x68(%ebx),%esi
    70f2:	8d b6 00 00 00 00    	lea    0x0(%esi),%esi
    70f8:	50                   	push   %eax
    70f9:	50                   	push   %eax
    70fa:	57                   	push   %edi
    70fb:	56                   	push   %esi
    70fc:	e8 af 36 00 00       	call   a7b0 <fibril_condvar_wait@plt>
    7101:	8b 43 60             	mov    0x60(%ebx),%eax
    7104:	83 c4 10             	add    $0x10,%esp
    7107:	83 f8 02             	cmp    $0x2,%eax
    710a:	76 ec                	jbe    70f8 <tcp_uc_open+0xe8>
    710c:	83 f8 03             	cmp    $0x3,%eax
    710f:	74 57                	je     7168 <tcp_uc_open+0x158>
    7111:	50                   	push   %eax
    7112:	68 f4 9f 00 00       	push   $0x9ff4
    7117:	6a 04                	push   $0x4
    7119:	6a ff                	push   $0xffffffff
    711b:	e8 b0 36 00 00       	call   a7d0 <log_msg@plt>
    7120:	83 c4 10             	add    $0x10,%esp
    7123:	83 7b 60 0a          	cmpl   $0xa,0x60(%ebx)
    7127:	0f 85 9a 00 00 00    	jne    71c7 <tcp_uc_open+0x1b7>
    712d:	83 ec 0c             	sub    $0xc,%esp
    7130:	53                   	push   %ebx
    7131:	e8 4a a8 ff ff       	call   1980 <tcp_conn_unlock>
    7136:	83 c4 10             	add    $0x10,%esp
    7139:	8d 65 f4             	lea    -0xc(%ebp),%esp
    713c:	b8 07 00 00 00       	mov    $0x7,%eax
    7141:	5b                   	pop    %ebx
    7142:	5e                   	pop    %esi
    7143:	5f                   	pop    %edi
    7144:	5d                   	pop    %ebp
    7145:	c3                   	ret    
    7146:	66 90                	xchg   %ax,%ax
    7148:	83 ec 0c             	sub    $0xc,%esp
    714b:	53                   	push   %ebx
    714c:	e8 0f a8 ff ff       	call   1960 <tcp_conn_lock>
    7151:	89 1c 24             	mov    %ebx,(%esp)
    7154:	e8 c7 ab ff ff       	call   1d20 <tcp_conn_sync>
    7159:	83 c4 10             	add    $0x10,%esp
    715c:	e9 67 ff ff ff       	jmp    70c8 <tcp_uc_open+0xb8>
    7161:	8d b4 26 00 00 00 00 	lea    0x0(%esi,%eiz,1),%esi
    7168:	83 ec 0c             	sub    $0xc,%esp
    716b:	53                   	push   %ebx
    716c:	e8 0f a8 ff ff       	call   1980 <tcp_conn_unlock>
    7171:	83 c4 0c             	add    $0xc,%esp
    7174:	68 18 a0 00 00       	push   $0xa018
    7179:	6a 04                	push   $0x4
    717b:	6a ff                	push   $0xffffffff
    717d:	e8 4e 36 00 00       	call   a7d0 <log_msg@plt>
    7182:	8b 45 14             	mov    0x14(%ebp),%eax
    7185:	89 18                	mov    %ebx,(%eax)
    7187:	53                   	push   %ebx
    7188:	68 79 9e 00 00       	push   $0x9e79
    718d:	6a 04                	push   $0x4
    718f:	6a ff                	push   $0xffffffff
    7191:	e8 3a 36 00 00       	call   a7d0 <log_msg@plt>
    7196:	83 c4 20             	add    $0x20,%esp
    7199:	31 c0                	xor    %eax,%eax
    719b:	e9 dc fe ff ff       	jmp    707c <tcp_uc_open+0x6c>
    71a0:	83 ec 0c             	sub    $0xc,%esp
    71a3:	53                   	push   %ebx
    71a4:	e8 d7 a7 ff ff       	call   1980 <tcp_conn_unlock>
    71a9:	53                   	push   %ebx
    71aa:	68 79 9e 00 00       	push   $0x9e79
    71af:	6a 04                	push   $0x4
    71b1:	6a ff                	push   $0xffffffff
    71b3:	e8 18 36 00 00       	call   a7d0 <log_msg@plt>
    71b8:	8b 45 14             	mov    0x14(%ebp),%eax
    71bb:	83 c4 20             	add    $0x20,%esp
    71be:	89 18                	mov    %ebx,(%eax)
    71c0:	31 c0                	xor    %eax,%eax
    71c2:	e9 b5 fe ff ff       	jmp    707c <tcp_uc_open+0x6c>
    71c7:	50                   	push   %eax
    71c8:	6a 6c                	push   $0x6c
    71ca:	68 8b 9e 00 00       	push   $0x9e8b
    71cf:	68 93 9e 00 00       	push   $0x9e93
    71d4:	e8 57 36 00 00       	call   a830 <assert_abort@plt>
    71d9:	8d b4 26 00 00 00 00 	lea    0x0(%esi,%eiz,1),%esi

000071e0 <tcp_uc_send>:
    71e0:	55                   	push   %ebp
    71e1:	89 e5                	mov    %esp,%ebp
    71e3:	57                   	push   %edi
    71e4:	56                   	push   %esi
    71e5:	53                   	push   %ebx
    71e6:	83 ec 1c             	sub    $0x1c,%esp
    71e9:	8b 7d 08             	mov    0x8(%ebp),%edi
    71ec:	8b 1f                	mov    (%edi),%ebx
    71ee:	53                   	push   %ebx
    71ef:	68 d9 9e 00 00       	push   $0x9ed9
    71f4:	6a 04                	push   $0x4
    71f6:	6a ff                	push   $0xffffffff
    71f8:	e8 d3 35 00 00       	call   a7d0 <log_msg@plt>
    71fd:	89 3c 24             	mov    %edi,(%esp)
    7200:	e8 5b a7 ff ff       	call   1960 <tcp_conn_lock>
    7205:	8b 47 60             	mov    0x60(%edi),%eax
    7208:	83 c4 10             	add    $0x10,%esp
    720b:	83 f8 0a             	cmp    $0xa,%eax
    720e:	0f 84 26 01 00 00    	je     733a <tcp_uc_send+0x15a>
    7214:	85 c0                	test   %eax,%eax
    7216:	0f 84 37 01 00 00    	je     7353 <tcp_uc_send+0x173>
    721c:	80 bf b8 00 00 00 00 	cmpb   $0x0,0xb8(%edi)
    7223:	75 7f                	jne    72a4 <tcp_uc_send+0xc4>
    7225:	8b 4d 10             	mov    0x10(%ebp),%ecx
    7228:	8d 77 4c             	lea    0x4c(%edi),%esi
    722b:	8d 9f bc 00 00 00    	lea    0xbc(%edi),%ebx
    7231:	85 c9                	test   %ecx,%ecx
    7233:	0f 84 e3 00 00 00    	je     731c <tcp_uc_send+0x13c>
    7239:	8d b4 26 00 00 00 00 	lea    0x0(%esi,%eiz,1),%esi
    7240:	8b 87 b4 00 00 00    	mov    0xb4(%edi),%eax
    7246:	8b 97 b0 00 00 00    	mov    0xb0(%edi),%edx
    724c:	29 c2                	sub    %eax,%edx
    724e:	74 35                	je     7285 <tcp_uc_send+0xa5>
    7250:	eb 6e                	jmp    72c0 <tcp_uc_send+0xe0>
    7252:	8d b6 00 00 00 00    	lea    0x0(%esi),%esi
    7258:	8b 07                	mov    (%edi),%eax
    725a:	50                   	push   %eax
    725b:	68 eb 9e 00 00       	push   $0x9eeb
    7260:	6a 04                	push   $0x4
    7262:	6a ff                	push   $0xffffffff
    7264:	e8 67 35 00 00       	call   a7d0 <log_msg@plt>
    7269:	58                   	pop    %eax
    726a:	5a                   	pop    %edx
    726b:	56                   	push   %esi
    726c:	53                   	push   %ebx
    726d:	e8 3e 35 00 00       	call   a7b0 <fibril_condvar_wait@plt>
    7272:	8b 87 b4 00 00 00    	mov    0xb4(%edi),%eax
    7278:	8b 97 b0 00 00 00    	mov    0xb0(%edi),%edx
    727e:	83 c4 10             	add    $0x10,%esp
    7281:	29 c2                	sub    %eax,%edx
    7283:	75 3b                	jne    72c0 <tcp_uc_send+0xe0>
    7285:	80 7f 64 00          	cmpb   $0x0,0x64(%edi)
    7289:	74 cd                	je     7258 <tcp_uc_send+0x78>
    728b:	83 ec 0c             	sub    $0xc,%esp
    728e:	57                   	push   %edi
    728f:	e8 ec a6 ff ff       	call   1980 <tcp_conn_unlock>
    7294:	83 c4 10             	add    $0x10,%esp
    7297:	8d 65 f4             	lea    -0xc(%ebp),%esp
    729a:	b8 07 00 00 00       	mov    $0x7,%eax
    729f:	5b                   	pop    %ebx
    72a0:	5e                   	pop    %esi
    72a1:	5f                   	pop    %edi
    72a2:	5d                   	pop    %ebp
    72a3:	c3                   	ret    
    72a4:	83 ec 0c             	sub    $0xc,%esp
    72a7:	57                   	push   %edi
    72a8:	e8 d3 a6 ff ff       	call   1980 <tcp_conn_unlock>
    72ad:	83 c4 10             	add    $0x10,%esp
    72b0:	8d 65 f4             	lea    -0xc(%ebp),%esp
    72b3:	b8 03 00 00 00       	mov    $0x3,%eax
    72b8:	5b                   	pop    %ebx
    72b9:	5e                   	pop    %esi
    72ba:	5f                   	pop    %edi
    72bb:	5d                   	pop    %ebp
    72bc:	c3                   	ret    
    72bd:	8d 76 00             	lea    0x0(%esi),%esi
    72c0:	80 7f 64 00          	cmpb   $0x0,0x64(%edi)
    72c4:	75 c5                	jne    728b <tcp_uc_send+0xab>
    72c6:	3b 55 10             	cmp    0x10(%ebp),%edx
    72c9:	76 03                	jbe    72ce <tcp_uc_send+0xee>
    72cb:	8b 55 10             	mov    0x10(%ebp),%edx
    72ce:	89 55 e4             	mov    %edx,-0x1c(%ebp)
    72d1:	51                   	push   %ecx
    72d2:	52                   	push   %edx
    72d3:	8b 55 0c             	mov    0xc(%ebp),%edx
    72d6:	52                   	push   %edx
    72d7:	8b 8f ac 00 00 00    	mov    0xac(%edi),%ecx
    72dd:	01 c8                	add    %ecx,%eax
    72df:	50                   	push   %eax
    72e0:	e8 8b 34 00 00       	call   a770 <memcpy@plt>
    72e5:	8b 55 e4             	mov    -0x1c(%ebp),%edx
    72e8:	8b 45 0c             	mov    0xc(%ebp),%eax
    72eb:	01 d0                	add    %edx,%eax
    72ed:	89 45 0c             	mov    %eax,0xc(%ebp)
    72f0:	8b 87 b4 00 00 00    	mov    0xb4(%edi),%eax
    72f6:	01 d0                	add    %edx,%eax
    72f8:	89 87 b4 00 00 00    	mov    %eax,0xb4(%edi)
    72fe:	8b 45 10             	mov    0x10(%ebp),%eax
    7301:	29 d0                	sub    %edx,%eax
    7303:	89 3c 24             	mov    %edi,(%esp)
    7306:	89 45 10             	mov    %eax,0x10(%ebp)
    7309:	e8 e2 f6 ff ff       	call   69f0 <tcp_tqueue_new_data>
    730e:	8b 45 10             	mov    0x10(%ebp),%eax
    7311:	83 c4 10             	add    $0x10,%esp
    7314:	85 c0                	test   %eax,%eax
    7316:	0f 85 24 ff ff ff    	jne    7240 <tcp_uc_send+0x60>
    731c:	83 ec 0c             	sub    $0xc,%esp
    731f:	57                   	push   %edi
    7320:	e8 cb f6 ff ff       	call   69f0 <tcp_tqueue_new_data>
    7325:	89 3c 24             	mov    %edi,(%esp)
    7328:	e8 53 a6 ff ff       	call   1980 <tcp_conn_unlock>
    732d:	83 c4 10             	add    $0x10,%esp
    7330:	8d 65 f4             	lea    -0xc(%ebp),%esp
    7333:	31 c0                	xor    %eax,%eax
    7335:	5b                   	pop    %ebx
    7336:	5e                   	pop    %esi
    7337:	5f                   	pop    %edi
    7338:	5d                   	pop    %ebp
    7339:	c3                   	ret    
    733a:	83 ec 0c             	sub    $0xc,%esp
    733d:	57                   	push   %edi
    733e:	e8 3d a6 ff ff       	call   1980 <tcp_conn_unlock>
    7343:	83 c4 10             	add    $0x10,%esp
    7346:	8d 65 f4             	lea    -0xc(%ebp),%esp
    7349:	b8 04 00 00 00       	mov    $0x4,%eax
    734e:	5b                   	pop    %ebx
    734f:	5e                   	pop    %esi
    7350:	5f                   	pop    %edi
    7351:	5d                   	pop    %ebp
    7352:	c3                   	ret    
    7353:	83 ec 0c             	sub    $0xc,%esp
    7356:	57                   	push   %edi
    7357:	e8 c4 a9 ff ff       	call   1d20 <tcp_conn_sync>
    735c:	83 c4 10             	add    $0x10,%esp
    735f:	e9 b8 fe ff ff       	jmp    721c <tcp_uc_send+0x3c>
    7364:	8d b6 00 00 00 00    	lea    0x0(%esi),%esi
    736a:	8d bf 00 00 00 00    	lea    0x0(%edi),%edi

00007370 <tcp_uc_receive>:
    7370:	55                   	push   %ebp
    7371:	89 e5                	mov    %esp,%ebp
    7373:	56                   	push   %esi
    7374:	53                   	push   %ebx
    7375:	8b 5d 08             	mov    0x8(%ebp),%ebx
    7378:	8b 33                	mov    (%ebx),%esi
    737a:	56                   	push   %esi
    737b:	68 07 9f 00 00       	push   $0x9f07
    7380:	6a 04                	push   $0x4
    7382:	6a ff                	push   $0xffffffff
    7384:	e8 47 34 00 00       	call   a7d0 <log_msg@plt>
    7389:	89 1c 24             	mov    %ebx,(%esp)
    738c:	e8 cf a5 ff ff       	call   1960 <tcp_conn_lock>
    7391:	83 c4 10             	add    $0x10,%esp
    7394:	83 7b 60 0a          	cmpl   $0xa,0x60(%ebx)
    7398:	0f 84 12 01 00 00    	je     74b0 <tcp_uc_receive+0x140>
    739e:	8b b3 9c 00 00 00    	mov    0x9c(%ebx),%esi
    73a4:	85 f6                	test   %esi,%esi
    73a6:	0f 84 94 00 00 00    	je     7440 <tcp_uc_receive+0xd0>
    73ac:	3b 75 10             	cmp    0x10(%ebp),%esi
    73af:	76 03                	jbe    73b4 <tcp_uc_receive+0x44>
    73b1:	8b 75 10             	mov    0x10(%ebp),%esi
    73b4:	50                   	push   %eax
    73b5:	8b 4d 0c             	mov    0xc(%ebp),%ecx
    73b8:	8b 93 94 00 00 00    	mov    0x94(%ebx),%edx
    73be:	56                   	push   %esi
    73bf:	52                   	push   %edx
    73c0:	51                   	push   %ecx
    73c1:	e8 aa 33 00 00       	call   a770 <memcpy@plt>
    73c6:	8b 45 14             	mov    0x14(%ebp),%eax
    73c9:	89 30                	mov    %esi,(%eax)
    73cb:	83 c4 0c             	add    $0xc,%esp
    73ce:	8b 93 94 00 00 00    	mov    0x94(%ebx),%edx
    73d4:	8b 83 9c 00 00 00    	mov    0x9c(%ebx),%eax
    73da:	29 f0                	sub    %esi,%eax
    73dc:	50                   	push   %eax
    73dd:	8d 04 32             	lea    (%edx,%esi,1),%eax
    73e0:	50                   	push   %eax
    73e1:	52                   	push   %edx
    73e2:	e8 39 33 00 00       	call   a720 <memmove@plt>
    73e7:	8b 83 9c 00 00 00    	mov    0x9c(%ebx),%eax
    73ed:	29 f0                	sub    %esi,%eax
    73ef:	89 83 9c 00 00 00    	mov    %eax,0x9c(%ebx)
    73f5:	8b 83 e4 00 00 00    	mov    0xe4(%ebx),%eax
    73fb:	01 f0                	add    %esi,%eax
    73fd:	89 83 e4 00 00 00    	mov    %eax,0xe4(%ebx)
    7403:	8b 45 18             	mov    0x18(%ebp),%eax
    7406:	c7 00 00 00 00 00    	movl   $0x0,(%eax)
    740c:	58                   	pop    %eax
    740d:	5a                   	pop    %edx
    740e:	6a 08                	push   $0x8
    7410:	53                   	push   %ebx
    7411:	e8 7a f4 ff ff       	call   6890 <tcp_tqueue_ctrl_seg>
    7416:	8b 0b                	mov    (%ebx),%ecx
    7418:	89 34 24             	mov    %esi,(%esp)
    741b:	51                   	push   %ecx
    741c:	68 44 a0 00 00       	push   $0xa044
    7421:	6a 04                	push   $0x4
    7423:	6a ff                	push   $0xffffffff
    7425:	e8 a6 33 00 00       	call   a7d0 <log_msg@plt>
    742a:	83 c4 14             	add    $0x14,%esp
    742d:	53                   	push   %ebx
    742e:	e8 4d a5 ff ff       	call   1980 <tcp_conn_unlock>
    7433:	83 c4 10             	add    $0x10,%esp
    7436:	8d 65 f8             	lea    -0x8(%ebp),%esp
    7439:	31 c0                	xor    %eax,%eax
    743b:	5b                   	pop    %ebx
    743c:	5e                   	pop    %esi
    743d:	5d                   	pop    %ebp
    743e:	c3                   	ret    
    743f:	90                   	nop
    7440:	80 bb a0 00 00 00 00 	cmpb   $0x0,0xa0(%ebx)
    7447:	75 37                	jne    7480 <tcp_uc_receive+0x110>
    7449:	80 7b 64 00          	cmpb   $0x0,0x64(%ebx)
    744d:	74 79                	je     74c8 <tcp_uc_receive+0x158>
    744f:	8b 45 14             	mov    0x14(%ebp),%eax
    7452:	83 ec 0c             	sub    $0xc,%esp
    7455:	c7 00 00 00 00 00    	movl   $0x0,(%eax)
    745b:	8b 45 18             	mov    0x18(%ebp),%eax
    745e:	c7 00 00 00 00 00    	movl   $0x0,(%eax)
    7464:	53                   	push   %ebx
    7465:	e8 16 a5 ff ff       	call   1980 <tcp_conn_unlock>
    746a:	83 c4 10             	add    $0x10,%esp
    746d:	8d 65 f8             	lea    -0x8(%ebp),%esp
    7470:	b8 07 00 00 00       	mov    $0x7,%eax
    7475:	5b                   	pop    %ebx
    7476:	5e                   	pop    %esi
    7477:	5d                   	pop    %ebp
    7478:	c3                   	ret    
    7479:	8d b4 26 00 00 00 00 	lea    0x0(%esi,%eiz,1),%esi
    7480:	8b 45 14             	mov    0x14(%ebp),%eax
    7483:	83 ec 0c             	sub    $0xc,%esp
    7486:	c7 00 00 00 00 00    	movl   $0x0,(%eax)
    748c:	8b 45 18             	mov    0x18(%ebp),%eax
    748f:	c7 00 00 00 00 00    	movl   $0x0,(%eax)
    7495:	53                   	push   %ebx
    7496:	e8 e5 a4 ff ff       	call   1980 <tcp_conn_unlock>
    749b:	83 c4 10             	add    $0x10,%esp
    749e:	b8 03 00 00 00       	mov    $0x3,%eax
    74a3:	8d 65 f8             	lea    -0x8(%ebp),%esp
    74a6:	5b                   	pop    %ebx
    74a7:	5e                   	pop    %esi
    74a8:	5d                   	pop    %ebp
    74a9:	c3                   	ret    
    74aa:	8d b6 00 00 00 00    	lea    0x0(%esi),%esi
    74b0:	83 ec 0c             	sub    $0xc,%esp
    74b3:	53                   	push   %ebx
    74b4:	e8 c7 a4 ff ff       	call   1980 <tcp_conn_unlock>
    74b9:	83 c4 10             	add    $0x10,%esp
    74bc:	8d 65 f8             	lea    -0x8(%ebp),%esp
    74bf:	b8 04 00 00 00       	mov    $0x4,%eax
    74c4:	5b                   	pop    %ebx
    74c5:	5e                   	pop    %esi
    74c6:	5d                   	pop    %ebp
    74c7:	c3                   	ret    
    74c8:	83 ec 0c             	sub    $0xc,%esp
    74cb:	53                   	push   %ebx
    74cc:	e8 af a4 ff ff       	call   1980 <tcp_conn_unlock>
    74d1:	83 c4 10             	add    $0x10,%esp
    74d4:	b8 0c 00 00 00       	mov    $0xc,%eax
    74d9:	eb c8                	jmp    74a3 <tcp_uc_receive+0x133>
    74db:	90                   	nop
    74dc:	8d 74 26 00          	lea    0x0(%esi,%eiz,1),%esi

000074e0 <tcp_uc_close>:
    74e0:	55                   	push   %ebp
    74e1:	89 e5                	mov    %esp,%ebp
    74e3:	53                   	push   %ebx
    74e4:	83 ec 10             	sub    $0x10,%esp
    74e7:	8b 5d 08             	mov    0x8(%ebp),%ebx
    74ea:	53                   	push   %ebx
    74eb:	8b 03                	mov    (%ebx),%eax
    74ed:	50                   	push   %eax
    74ee:	68 1c 9f 00 00       	push   $0x9f1c
    74f3:	6a 04                	push   $0x4
    74f5:	6a ff                	push   $0xffffffff
    74f7:	e8 d4 32 00 00       	call   a7d0 <log_msg@plt>
    74fc:	83 c4 14             	add    $0x14,%esp
    74ff:	53                   	push   %ebx
    7500:	e8 5b a4 ff ff       	call   1960 <tcp_conn_lock>
    7505:	8b 43 60             	mov    0x60(%ebx),%eax
    7508:	83 c4 10             	add    $0x10,%esp
    750b:	83 f8 0a             	cmp    $0xa,%eax
    750e:	74 68                	je     7578 <tcp_uc_close+0x98>
    7510:	83 f8 01             	cmp    $0x1,%eax
    7513:	0f 86 87 00 00 00    	jbe    75a0 <tcp_uc_close+0xc0>
    7519:	80 bb b8 00 00 00 00 	cmpb   $0x0,0xb8(%ebx)
    7520:	74 26                	je     7548 <tcp_uc_close+0x68>
    7522:	52                   	push   %edx
    7523:	68 4a 9f 00 00       	push   $0x9f4a
    7528:	6a 04                	push   $0x4
    752a:	6a ff                	push   $0xffffffff
    752c:	e8 9f 32 00 00       	call   a7d0 <log_msg@plt>
    7531:	89 1c 24             	mov    %ebx,(%esp)
    7534:	e8 47 a4 ff ff       	call   1980 <tcp_conn_unlock>
    7539:	83 c4 10             	add    $0x10,%esp
    753c:	b8 03 00 00 00       	mov    $0x3,%eax
    7541:	8b 5d fc             	mov    -0x4(%ebp),%ebx
    7544:	c9                   	leave  
    7545:	c3                   	ret    
    7546:	66 90                	xchg   %ax,%ax
    7548:	50                   	push   %eax
    7549:	68 90 a0 00 00       	push   $0xa090
    754e:	6a 04                	push   $0x4
    7550:	6a ff                	push   $0xffffffff
    7552:	e8 79 32 00 00       	call   a7d0 <log_msg@plt>
    7557:	c6 83 b8 00 00 00 01 	movb   $0x1,0xb8(%ebx)
    755e:	89 1c 24             	mov    %ebx,(%esp)
    7561:	e8 8a f4 ff ff       	call   69f0 <tcp_tqueue_new_data>
    7566:	89 1c 24             	mov    %ebx,(%esp)
    7569:	e8 12 a4 ff ff       	call   1980 <tcp_conn_unlock>
    756e:	83 c4 10             	add    $0x10,%esp
    7571:	31 c0                	xor    %eax,%eax
    7573:	8b 5d fc             	mov    -0x4(%ebp),%ebx
    7576:	c9                   	leave  
    7577:	c3                   	ret    
    7578:	50                   	push   %eax
    7579:	68 31 9f 00 00       	push   $0x9f31
    757e:	6a 04                	push   $0x4
    7580:	6a ff                	push   $0xffffffff
    7582:	e8 49 32 00 00       	call   a7d0 <log_msg@plt>
    7587:	89 1c 24             	mov    %ebx,(%esp)
    758a:	e8 f1 a3 ff ff       	call   1980 <tcp_conn_unlock>
    758f:	83 c4 10             	add    $0x10,%esp
    7592:	b8 04 00 00 00       	mov    $0x4,%eax
    7597:	8b 5d fc             	mov    -0x4(%ebp),%ebx
    759a:	c9                   	leave  
    759b:	c3                   	ret    
    759c:	8d 74 26 00          	lea    0x0(%esi,%eiz,1),%esi
    75a0:	51                   	push   %ecx
    75a1:	68 70 a0 00 00       	push   $0xa070
    75a6:	6a 04                	push   $0x4
    75a8:	6a ff                	push   $0xffffffff
    75aa:	e8 21 32 00 00       	call   a7d0 <log_msg@plt>
    75af:	89 1c 24             	mov    %ebx,(%esp)
    75b2:	e8 39 aa ff ff       	call   1ff0 <tcp_conn_reset>
    75b7:	89 1c 24             	mov    %ebx,(%esp)
    75ba:	e8 c1 a3 ff ff       	call   1980 <tcp_conn_unlock>
    75bf:	83 c4 10             	add    $0x10,%esp
    75c2:	31 c0                	xor    %eax,%eax
    75c4:	e9 78 ff ff ff       	jmp    7541 <tcp_uc_close+0x61>
    75c9:	8d b4 26 00 00 00 00 	lea    0x0(%esi,%eiz,1),%esi

000075d0 <tcp_uc_abort>:
    75d0:	55                   	push   %ebp
    75d1:	89 e5                	mov    %esp,%ebp
    75d3:	83 ec 0c             	sub    $0xc,%esp
    75d6:	68 62 9f 00 00       	push   $0x9f62
    75db:	6a 04                	push   $0x4
    75dd:	6a ff                	push   $0xffffffff
    75df:	e8 ec 31 00 00       	call   a7d0 <log_msg@plt>
    75e4:	83 c4 10             	add    $0x10,%esp
    75e7:	c9                   	leave  
    75e8:	c3                   	ret    
    75e9:	8d b4 26 00 00 00 00 	lea    0x0(%esi,%eiz,1),%esi

000075f0 <tcp_uc_status>:
    75f0:	55                   	push   %ebp
    75f1:	89 e5                	mov    %esp,%ebp
    75f3:	83 ec 0c             	sub    $0xc,%esp
    75f6:	68 71 9f 00 00       	push   $0x9f71
    75fb:	6a 04                	push   $0x4
    75fd:	6a ff                	push   $0xffffffff
    75ff:	e8 cc 31 00 00       	call   a7d0 <log_msg@plt>
    7604:	8b 45 08             	mov    0x8(%ebp),%eax
    7607:	83 c4 10             	add    $0x10,%esp
    760a:	8b 50 60             	mov    0x60(%eax),%edx
    760d:	8b 45 0c             	mov    0xc(%ebp),%eax
    7610:	89 10                	mov    %edx,(%eax)
    7612:	c9                   	leave  
    7613:	c3                   	ret    
    7614:	8d b6 00 00 00 00    	lea    0x0(%esi),%esi
    761a:	8d bf 00 00 00 00    	lea    0x0(%edi),%edi

00007620 <tcp_uc_delete>:
    7620:	55                   	push   %ebp
    7621:	89 e5                	mov    %esp,%ebp
    7623:	53                   	push   %ebx
    7624:	83 ec 08             	sub    $0x8,%esp
    7627:	8b 5d 08             	mov    0x8(%ebp),%ebx
    762a:	68 81 9f 00 00       	push   $0x9f81
    762f:	6a 04                	push   $0x4
    7631:	6a ff                	push   $0xffffffff
    7633:	e8 98 31 00 00       	call   a7d0 <log_msg@plt>
    7638:	89 5d 08             	mov    %ebx,0x8(%ebp)
    763b:	83 c4 10             	add    $0x10,%esp
    763e:	8b 5d fc             	mov    -0x4(%ebp),%ebx
    7641:	c9                   	leave  
    7642:	e9 59 a3 ff ff       	jmp    19a0 <tcp_conn_delete>
    7647:	89 f6                	mov    %esi,%esi
    7649:	8d bc 27 00 00 00 00 	lea    0x0(%edi,%eiz,1),%edi

00007650 <tcp_uc_set_cb>:
    7650:	55                   	push   %ebp
    7651:	89 e5                	mov    %esp,%ebp
    7653:	57                   	push   %edi
    7654:	56                   	push   %esi
    7655:	53                   	push   %ebx
    7656:	83 ec 14             	sub    $0x14,%esp
    7659:	8b 5d 08             	mov    0x8(%ebp),%ebx
    765c:	8b 7d 0c             	mov    0xc(%ebp),%edi
    765f:	8b 75 10             	mov    0x10(%ebp),%esi
    7662:	56                   	push   %esi
    7663:	57                   	push   %edi
    7664:	53                   	push   %ebx
    7665:	68 91 9f 00 00       	push   $0x9f91
    766a:	6a 04                	push   $0x4
    766c:	6a ff                	push   $0xffffffff
    766e:	e8 5d 31 00 00       	call   a7d0 <log_msg@plt>
    7673:	89 7b 0c             	mov    %edi,0xc(%ebx)
    7676:	89 73 10             	mov    %esi,0x10(%ebx)
    7679:	83 c4 20             	add    $0x20,%esp
    767c:	8d 65 f4             	lea    -0xc(%ebp),%esp
    767f:	5b                   	pop    %ebx
    7680:	5e                   	pop    %esi
    7681:	5f                   	pop    %edi
    7682:	5d                   	pop    %ebp
    7683:	c3                   	ret    
    7684:	8d b6 00 00 00 00    	lea    0x0(%esi),%esi
    768a:	8d bf 00 00 00 00    	lea    0x0(%edi),%edi

00007690 <tcp_uc_get_userptr>:
    7690:	55                   	push   %ebp
    7691:	89 e5                	mov    %esp,%ebp
    7693:	8b 45 08             	mov    0x8(%ebp),%eax
    7696:	5d                   	pop    %ebp
    7697:	8b 40 10             	mov    0x10(%eax),%eax
    769a:	c3                   	ret    
    769b:	90                   	nop
    769c:	8d 74 26 00          	lea    0x0(%esi,%eiz,1),%esi

000076a0 <tcp_as_segment_arrived>:
    76a0:	55                   	push   %ebp
    76a1:	31 c0                	xor    %eax,%eax
    76a3:	89 e5                	mov    %esp,%ebp
    76a5:	57                   	push   %edi
    76a6:	56                   	push   %esi
    76a7:	53                   	push   %ebx
    76a8:	83 ec 18             	sub    $0x18,%esp
    76ab:	8b 5d 08             	mov    0x8(%ebp),%ebx
    76ae:	8b 7d 0c             	mov    0xc(%ebp),%edi
    76b1:	66 8b 43 18          	mov    0x18(%ebx),%ax
    76b5:	50                   	push   %eax
    76b6:	31 c0                	xor    %eax,%eax
    76b8:	66 8b 43 30          	mov    0x30(%ebx),%ax
    76bc:	50                   	push   %eax
    76bd:	68 b0 a0 00 00       	push   $0xa0b0
    76c2:	6a 04                	push   $0x4
    76c4:	6a ff                	push   $0xffffffff
    76c6:	e8 05 31 00 00       	call   a7d0 <log_msg@plt>
    76cb:	83 c4 14             	add    $0x14,%esp
    76ce:	53                   	push   %ebx
    76cf:	e8 5c a8 ff ff       	call   1f30 <tcp_conn_find_ref>
    76d4:	83 c4 10             	add    $0x10,%esp
    76d7:	85 c0                	test   %eax,%eax
    76d9:	74 1d                	je     76f8 <tcp_as_segment_arrived+0x58>
    76db:	89 c6                	mov    %eax,%esi
    76dd:	50                   	push   %eax
    76de:	57                   	push   %edi
    76df:	53                   	push   %ebx
    76e0:	56                   	push   %esi
    76e1:	e8 aa aa ff ff       	call   2190 <tcp_conn_segment_arrived>
    76e6:	89 75 08             	mov    %esi,0x8(%ebp)
    76e9:	83 c4 10             	add    $0x10,%esp
    76ec:	8d 65 f4             	lea    -0xc(%ebp),%esp
    76ef:	5b                   	pop    %ebx
    76f0:	5e                   	pop    %esi
    76f1:	5f                   	pop    %edi
    76f2:	5d                   	pop    %ebp
    76f3:	e9 b8 a1 ff ff       	jmp    18b0 <tcp_conn_delref>
    76f8:	52                   	push   %edx
    76f9:	68 ab 9f 00 00       	push   $0x9fab
    76fe:	6a 02                	push   $0x2
    7700:	6a ff                	push   $0xffffffff
    7702:	e8 c9 30 00 00       	call   a7d0 <log_msg@plt>
    7707:	89 7d 0c             	mov    %edi,0xc(%ebp)
    770a:	89 5d 08             	mov    %ebx,0x8(%ebp)
    770d:	83 c4 10             	add    $0x10,%esp
    7710:	8d 65 f4             	lea    -0xc(%ebp),%esp
    7713:	5b                   	pop    %ebx
    7714:	5e                   	pop    %esi
    7715:	5f                   	pop    %edi
    7716:	5d                   	pop    %ebp
    7717:	e9 24 be ff ff       	jmp    3540 <tcp_unexpected_segment>
    771c:	8d 74 26 00          	lea    0x0(%esi,%eiz,1),%esi

00007720 <tcp_to_user>:
    7720:	55                   	push   %ebp
    7721:	89 e5                	mov    %esp,%ebp
    7723:	83 ec 0c             	sub    $0xc,%esp
    7726:	68 c0 9f 00 00       	push   $0x9fc0
    772b:	6a 04                	push   $0x4
    772d:	6a ff                	push   $0xffffffff
    772f:	e8 9c 30 00 00       	call   a7d0 <log_msg@plt>
    7734:	83 c4 10             	add    $0x10,%esp
    7737:	c9                   	leave  
    7738:	c3                   	ret    
    7739:	66 90                	xchg   %ax,%ax
    773b:	66 90                	xchg   %ax,%ax
    773d:	66 90                	xchg   %ax,%ax
    773f:	90                   	nop

00007740 <amap_repla_find>:
    7740:	55                   	push   %ebp
    7741:	89 e5                	mov    %esp,%ebp
    7743:	57                   	push   %edi
    7744:	56                   	push   %esi
    7745:	53                   	push   %ebx
    7746:	83 ec 34             	sub    $0x34,%esp
    7749:	89 c6                	mov    %eax,%esi
    774b:	89 45 d0             	mov    %eax,-0x30(%ebp)
    774e:	8d 45 e0             	lea    -0x20(%ebp),%eax
    7751:	50                   	push   %eax
    7752:	89 cb                	mov    %ecx,%ebx
    7754:	52                   	push   %edx
    7755:	89 d7                	mov    %edx,%edi
    7757:	89 4d cc             	mov    %ecx,-0x34(%ebp)
    775a:	89 55 d4             	mov    %edx,-0x2c(%ebp)
    775d:	e8 0e 31 00 00       	call   a870 <inet_addr_format@plt>
    7762:	58                   	pop    %eax
    7763:	8d 45 e4             	lea    -0x1c(%ebp),%eax
    7766:	5a                   	pop    %edx
    7767:	50                   	push   %eax
    7768:	53                   	push   %ebx
    7769:	e8 02 31 00 00       	call   a870 <inet_addr_format@plt>
    776e:	8b 45 e4             	mov    -0x1c(%ebp),%eax
    7771:	59                   	pop    %ecx
    7772:	5b                   	pop    %ebx
    7773:	50                   	push   %eax
    7774:	31 c0                	xor    %eax,%eax
    7776:	66 8b 47 14          	mov    0x14(%edi),%ax
    777a:	50                   	push   %eax
    777b:	8b 45 e0             	mov    -0x20(%ebp),%eax
    777e:	50                   	push   %eax
    777f:	68 d8 a0 00 00       	push   $0xa0d8
    7784:	6a 05                	push   $0x5
    7786:	6a ff                	push   $0xffffffff
    7788:	e8 43 30 00 00       	call   a7d0 <log_msg@plt>
    778d:	83 c4 14             	add    $0x14,%esp
    7790:	8b 45 e0             	mov    -0x20(%ebp),%eax
    7793:	50                   	push   %eax
    7794:	e8 b7 32 00 00       	call   aa50 <free@plt>
    7799:	58                   	pop    %eax
    779a:	8b 45 e4             	mov    -0x1c(%ebp),%eax
    779d:	50                   	push   %eax
    779e:	e8 ad 32 00 00       	call   aa50 <free@plt>
    77a3:	8b 5e 04             	mov    0x4(%esi),%ebx
    77a6:	83 c4 10             	add    $0x10,%esp
    77a9:	39 f3                	cmp    %esi,%ebx
    77ab:	75 17                	jne    77c4 <amap_repla_find+0x84>
    77ad:	e9 ae 00 00 00       	jmp    7860 <amap_repla_find+0x120>
    77b2:	8d b6 00 00 00 00    	lea    0x0(%esi),%esi
    77b8:	8b 5b 04             	mov    0x4(%ebx),%ebx
    77bb:	3b 5d d0             	cmp    -0x30(%ebp),%ebx
    77be:	0f 84 9c 00 00 00    	je     7860 <amap_repla_find+0x120>
    77c4:	8d 73 08             	lea    0x8(%ebx),%esi
    77c7:	8d 45 e0             	lea    -0x20(%ebp),%eax
    77ca:	51                   	push   %ecx
    77cb:	8d 7b 20             	lea    0x20(%ebx),%edi
    77ce:	51                   	push   %ecx
    77cf:	50                   	push   %eax
    77d0:	56                   	push   %esi
    77d1:	e8 9a 30 00 00       	call   a870 <inet_addr_format@plt>
    77d6:	58                   	pop    %eax
    77d7:	8d 45 e4             	lea    -0x1c(%ebp),%eax
    77da:	5a                   	pop    %edx
    77db:	50                   	push   %eax
    77dc:	57                   	push   %edi
    77dd:	e8 8e 30 00 00       	call   a870 <inet_addr_format@plt>
    77e2:	59                   	pop    %ecx
    77e3:	58                   	pop    %eax
    77e4:	8b 45 e4             	mov    -0x1c(%ebp),%eax
    77e7:	50                   	push   %eax
    77e8:	31 c0                	xor    %eax,%eax
    77ea:	66 8b 43 1c          	mov    0x1c(%ebx),%ax
    77ee:	50                   	push   %eax
    77ef:	8b 45 e0             	mov    -0x20(%ebp),%eax
    77f2:	50                   	push   %eax
    77f3:	68 00 a1 00 00       	push   $0xa100
    77f8:	6a 05                	push   $0x5
    77fa:	6a ff                	push   $0xffffffff
    77fc:	e8 cf 2f 00 00       	call   a7d0 <log_msg@plt>
    7801:	83 c4 14             	add    $0x14,%esp
    7804:	8b 45 e0             	mov    -0x20(%ebp),%eax
    7807:	50                   	push   %eax
    7808:	e8 43 32 00 00       	call   aa50 <free@plt>
    780d:	58                   	pop    %eax
    780e:	8b 45 e4             	mov    -0x1c(%ebp),%eax
    7811:	50                   	push   %eax
    7812:	e8 39 32 00 00       	call   aa50 <free@plt>
    7817:	8b 45 d4             	mov    -0x2c(%ebp),%eax
    781a:	5a                   	pop    %edx
    781b:	59                   	pop    %ecx
    781c:	50                   	push   %eax
    781d:	56                   	push   %esi
    781e:	e8 0d 31 00 00       	call   a930 <inet_addr_compare@plt>
    7823:	83 c4 10             	add    $0x10,%esp
    7826:	85 c0                	test   %eax,%eax
    7828:	74 8e                	je     77b8 <amap_repla_find+0x78>
    782a:	8b 45 d4             	mov    -0x2c(%ebp),%eax
    782d:	8b 40 14             	mov    0x14(%eax),%eax
    7830:	66 39 43 1c          	cmp    %ax,0x1c(%ebx)
    7834:	75 82                	jne    77b8 <amap_repla_find+0x78>
    7836:	8b 55 cc             	mov    -0x34(%ebp),%edx
    7839:	50                   	push   %eax
    783a:	50                   	push   %eax
    783b:	52                   	push   %edx
    783c:	57                   	push   %edi
    783d:	e8 ee 30 00 00       	call   a930 <inet_addr_compare@plt>
    7842:	83 c4 10             	add    $0x10,%esp
    7845:	85 c0                	test   %eax,%eax
    7847:	0f 84 6b ff ff ff    	je     77b8 <amap_repla_find+0x78>
    784d:	8b 45 08             	mov    0x8(%ebp),%eax
    7850:	89 18                	mov    %ebx,(%eax)
    7852:	8d 65 f4             	lea    -0xc(%ebp),%esp
    7855:	31 c0                	xor    %eax,%eax
    7857:	5b                   	pop    %ebx
    7858:	5e                   	pop    %esi
    7859:	5f                   	pop    %edi
    785a:	5d                   	pop    %ebp
    785b:	c3                   	ret    
    785c:	8d 74 26 00          	lea    0x0(%esi,%eiz,1),%esi
    7860:	8b 45 08             	mov    0x8(%ebp),%eax
    7863:	c7 00 00 00 00 00    	movl   $0x0,(%eax)
    7869:	8d 65 f4             	lea    -0xc(%ebp),%esp
    786c:	83 c8 ff             	or     $0xffffffff,%eax
    786f:	5b                   	pop    %ebx
    7870:	5e                   	pop    %esi
    7871:	5f                   	pop    %edi
    7872:	5d                   	pop    %ebp
    7873:	c3                   	ret    
    7874:	8d b6 00 00 00 00    	lea    0x0(%esi),%esi
    787a:	8d bf 00 00 00 00    	lea    0x0(%edi),%edi

00007880 <amap_create>:
    7880:	55                   	push   %ebp
    7881:	89 e5                	mov    %esp,%ebp
    7883:	53                   	push   %ebx
    7884:	83 ec 18             	sub    $0x18,%esp
    7887:	68 60 a2 00 00       	push   $0xa260
    788c:	6a 05                	push   $0x5
    788e:	6a ff                	push   $0xffffffff
    7890:	e8 3b 2f 00 00       	call   a7d0 <log_msg@plt>
    7895:	5a                   	pop    %edx
    7896:	59                   	pop    %ecx
    7897:	6a 1c                	push   $0x1c
    7899:	6a 01                	push   $0x1
    789b:	e8 a0 2f 00 00       	call   a840 <calloc@plt>
    78a0:	83 c4 10             	add    $0x10,%esp
    78a3:	85 c0                	test   %eax,%eax
    78a5:	74 59                	je     7900 <amap_create+0x80>
    78a7:	83 ec 0c             	sub    $0xc,%esp
    78aa:	89 c3                	mov    %eax,%ebx
    78ac:	8d 40 18             	lea    0x18(%eax),%eax
    78af:	50                   	push   %eax
    78b0:	e8 1b 0a 00 00       	call   82d0 <portrng_create>
    78b5:	83 c4 10             	add    $0x10,%esp
    78b8:	85 c0                	test   %eax,%eax
    78ba:	74 1c                	je     78d8 <amap_create+0x58>
    78bc:	83 f8 fe             	cmp    $0xfffffffe,%eax
    78bf:	75 46                	jne    7907 <amap_create+0x87>
    78c1:	83 ec 0c             	sub    $0xc,%esp
    78c4:	89 45 f4             	mov    %eax,-0xc(%ebp)
    78c7:	53                   	push   %ebx
    78c8:	e8 83 31 00 00       	call   aa50 <free@plt>
    78cd:	8b 45 f4             	mov    -0xc(%ebp),%eax
    78d0:	83 c4 10             	add    $0x10,%esp
    78d3:	8b 5d fc             	mov    -0x4(%ebp),%ebx
    78d6:	c9                   	leave  
    78d7:	c3                   	ret    
    78d8:	8d 53 08             	lea    0x8(%ebx),%edx
    78db:	89 1b                	mov    %ebx,(%ebx)
    78dd:	89 53 08             	mov    %edx,0x8(%ebx)
    78e0:	89 53 0c             	mov    %edx,0xc(%ebx)
    78e3:	8d 53 10             	lea    0x10(%ebx),%edx
    78e6:	89 5b 04             	mov    %ebx,0x4(%ebx)
    78e9:	89 53 10             	mov    %edx,0x10(%ebx)
    78ec:	89 53 14             	mov    %edx,0x14(%ebx)
    78ef:	8b 55 08             	mov    0x8(%ebp),%edx
    78f2:	89 1a                	mov    %ebx,(%edx)
    78f4:	8b 5d fc             	mov    -0x4(%ebp),%ebx
    78f7:	c9                   	leave  
    78f8:	c3                   	ret    
    78f9:	8d b4 26 00 00 00 00 	lea    0x0(%esi,%eiz,1),%esi
    7900:	b8 fe ff ff ff       	mov    $0xfffffffe,%eax
    7905:	eb ed                	jmp    78f4 <amap_create+0x74>
    7907:	50                   	push   %eax
    7908:	6a 4f                	push   $0x4f
    790a:	68 6e a2 00 00       	push   $0xa26e
    790f:	68 9d 8b 00 00       	push   $0x8b9d
    7914:	e8 17 2f 00 00       	call   a830 <assert_abort@plt>
    7919:	8d b4 26 00 00 00 00 	lea    0x0(%esi,%eiz,1),%esi

00007920 <amap_destroy>:
    7920:	55                   	push   %ebp
    7921:	89 e5                	mov    %esp,%ebp
    7923:	53                   	push   %ebx
    7924:	83 ec 08             	sub    $0x8,%esp
    7927:	8b 5d 08             	mov    0x8(%ebp),%ebx
    792a:	68 79 a2 00 00       	push   $0xa279
    792f:	6a 05                	push   $0x5
    7931:	6a ff                	push   $0xffffffff
    7933:	e8 98 2e 00 00       	call   a7d0 <log_msg@plt>
    7938:	89 5d 08             	mov    %ebx,0x8(%ebp)
    793b:	83 c4 10             	add    $0x10,%esp
    793e:	8b 5d fc             	mov    -0x4(%ebp),%ebx
    7941:	c9                   	leave  
    7942:	e9 09 31 00 00       	jmp    aa50 <free@plt>
    7947:	89 f6                	mov    %esi,%esi
    7949:	8d bc 27 00 00 00 00 	lea    0x0(%edi,%eiz,1),%edi

00007950 <amap_insert>:
    7950:	55                   	push   %ebp
    7951:	89 e5                	mov    %esp,%ebp
    7953:	57                   	push   %edi
    7954:	56                   	push   %esi
    7955:	53                   	push   %ebx
    7956:	81 ec 90 00 00 00    	sub    $0x90,%esp
    795c:	8d 7d 80             	lea    -0x80(%ebp),%edi
    795f:	8b 5d 0c             	mov    0xc(%ebp),%ebx
    7962:	68 88 a2 00 00       	push   $0xa288
    7967:	89 de                	mov    %ebx,%esi
    7969:	6a 05                	push   $0x5
    796b:	6a ff                	push   $0xffffffff
    796d:	e8 5e 2e 00 00       	call   a7d0 <log_msg@plt>
    7972:	b9 0d 00 00 00       	mov    $0xd,%ecx
    7977:	f3 a5                	rep movsl %ds:(%esi),%es:(%edi)
    7979:	8d 73 1c             	lea    0x1c(%ebx),%esi
    797c:	89 34 24             	mov    %esi,(%esp)
    797f:	e8 6c 30 00 00       	call   a9f0 <inet_addr_is_any@plt>
    7984:	83 c4 10             	add    $0x10,%esp
    7987:	85 c0                	test   %eax,%eax
    7989:	75 17                	jne    79a2 <amap_insert+0x52>
    798b:	83 ec 0c             	sub    $0xc,%esp
    798e:	83 c3 04             	add    $0x4,%ebx
    7991:	53                   	push   %ebx
    7992:	e8 59 30 00 00       	call   a9f0 <inet_addr_is_any@plt>
    7997:	83 c4 10             	add    $0x10,%esp
    799a:	85 c0                	test   %eax,%eax
    799c:	0f 85 ce 01 00 00    	jne    7b70 <amap_insert+0x220>
    79a2:	53                   	push   %ebx
    79a3:	68 88 a1 00 00       	push   $0xa188
    79a8:	6a 05                	push   $0x5
    79aa:	6a ff                	push   $0xffffffff
    79ac:	8d 5d 84             	lea    -0x7c(%ebp),%ebx
    79af:	e8 1c 2e 00 00       	call   a7d0 <log_msg@plt>
    79b4:	83 c4 10             	add    $0x10,%esp
    79b7:	83 ec 0c             	sub    $0xc,%esp
    79ba:	8d 45 9c             	lea    -0x64(%ebp),%eax
    79bd:	50                   	push   %eax
    79be:	e8 2d 30 00 00       	call   a9f0 <inet_addr_is_any@plt>
    79c3:	8b 75 b0             	mov    -0x50(%ebp),%esi
    79c6:	85 c0                	test   %eax,%eax
    79c8:	89 1c 24             	mov    %ebx,(%esp)
    79cb:	0f 94 85 74 ff ff ff 	sete   -0x8c(%ebp)
    79d2:	66 85 f6             	test   %si,%si
    79d5:	89 c7                	mov    %eax,%edi
    79d7:	0f 95 85 73 ff ff ff 	setne  -0x8d(%ebp)
    79de:	e8 0d 30 00 00       	call   a9f0 <inet_addr_is_any@plt>
    79e3:	8b 55 80             	mov    -0x80(%ebp),%edx
    79e6:	83 c4 10             	add    $0x10,%esp
    79e9:	85 c0                	test   %eax,%eax
    79eb:	0f 94 c1             	sete   %cl
    79ee:	85 d2                	test   %edx,%edx
    79f0:	0f 95 85 72 ff ff ff 	setne  -0x8e(%ebp)
    79f7:	80 bd 74 ff ff ff 00 	cmpb   $0x0,-0x8c(%ebp)
    79fe:	74 58                	je     7a58 <amap_insert+0x108>
    7a00:	80 bd 73 ff ff ff 00 	cmpb   $0x0,-0x8d(%ebp)
    7a07:	74 4f                	je     7a58 <amap_insert+0x108>
    7a09:	85 d2                	test   %edx,%edx
    7a0b:	75 08                	jne    7a15 <amap_insert+0xc5>
    7a0d:	84 c9                	test   %cl,%cl
    7a0f:	0f 85 ab 01 00 00    	jne    7bc0 <amap_insert+0x270>
    7a15:	50                   	push   %eax
    7a16:	31 c0                	xor    %eax,%eax
    7a18:	8a 85 72 ff ff ff    	mov    -0x8e(%ebp),%al
    7a1e:	50                   	push   %eax
    7a1f:	31 c0                	xor    %eax,%eax
    7a21:	88 c8                	mov    %cl,%al
    7a23:	50                   	push   %eax
    7a24:	31 c0                	xor    %eax,%eax
    7a26:	8a 85 73 ff ff ff    	mov    -0x8d(%ebp),%al
    7a2c:	50                   	push   %eax
    7a2d:	31 c0                	xor    %eax,%eax
    7a2f:	8a 85 74 ff ff ff    	mov    -0x8c(%ebp),%al
    7a35:	50                   	push   %eax
    7a36:	68 d0 a1 00 00       	push   $0xa1d0
    7a3b:	6a 05                	push   $0x5
    7a3d:	6a ff                	push   $0xffffffff
    7a3f:	e8 8c 2d 00 00       	call   a7d0 <log_msg@plt>
    7a44:	83 c4 20             	add    $0x20,%esp
    7a47:	b8 f2 ff ff ff       	mov    $0xfffffff2,%eax
    7a4c:	e9 16 01 00 00       	jmp    7b67 <amap_insert+0x217>
    7a51:	8d b4 26 00 00 00 00 	lea    0x0(%esi,%eiz,1),%esi
    7a58:	85 ff                	test   %edi,%edi
    7a5a:	74 b9                	je     7a15 <amap_insert+0xc5>
    7a5c:	66 85 f6             	test   %si,%si
    7a5f:	75 b4                	jne    7a15 <amap_insert+0xc5>
    7a61:	85 d2                	test   %edx,%edx
    7a63:	0f 94 c2             	sete   %dl
    7a66:	84 c9                	test   %cl,%cl
    7a68:	0f 84 82 00 00 00    	je     7af0 <amap_insert+0x1a0>
    7a6e:	84 d2                	test   %dl,%dl
    7a70:	74 7e                	je     7af0 <amap_insert+0x1a0>
    7a72:	50                   	push   %eax
    7a73:	68 aa a2 00 00       	push   $0xa2aa
    7a78:	6a 05                	push   $0x5
    7a7a:	6a ff                	push   $0xffffffff
    7a7c:	e8 4f 2d 00 00       	call   a7d0 <log_msg@plt>
    7a81:	8b 45 08             	mov    0x8(%ebp),%eax
    7a84:	8b 78 0c             	mov    0xc(%eax),%edi
    7a87:	8d 70 08             	lea    0x8(%eax),%esi
    7a8a:	83 c4 10             	add    $0x10,%esp
    7a8d:	39 f7                	cmp    %esi,%edi
    7a8f:	75 12                	jne    7aa3 <amap_insert+0x153>
    7a91:	e9 2a 02 00 00       	jmp    7cc0 <amap_insert+0x370>
    7a96:	66 90                	xchg   %ax,%ax
    7a98:	8b 7f 04             	mov    0x4(%edi),%edi
    7a9b:	39 f7                	cmp    %esi,%edi
    7a9d:	0f 84 1d 02 00 00    	je     7cc0 <amap_insert+0x370>
    7aa3:	50                   	push   %eax
    7aa4:	50                   	push   %eax
    7aa5:	8d 47 08             	lea    0x8(%edi),%eax
    7aa8:	53                   	push   %ebx
    7aa9:	50                   	push   %eax
    7aaa:	e8 81 2e 00 00       	call   a930 <inet_addr_compare@plt>
    7aaf:	83 c4 10             	add    $0x10,%esp
    7ab2:	85 c0                	test   %eax,%eax
    7ab4:	74 e2                	je     7a98 <amap_insert+0x148>
    7ab6:	89 fb                	mov    %edi,%ebx
    7ab8:	83 ec 0c             	sub    $0xc,%esp
    7abb:	8d 45 cc             	lea    -0x34(%ebp),%eax
    7abe:	8d 7d b4             	lea    -0x4c(%ebp),%edi
    7ac1:	b9 0d 00 00 00       	mov    $0xd,%ecx
    7ac6:	8d 75 80             	lea    -0x80(%ebp),%esi
    7ac9:	8b 55 10             	mov    0x10(%ebp),%edx
    7acc:	f3 a5                	rep movsl %ds:(%esi),%es:(%edi)
    7ace:	50                   	push   %eax
    7acf:	8b 45 14             	mov    0x14(%ebp),%eax
    7ad2:	50                   	push   %eax
    7ad3:	31 c0                	xor    %eax,%eax
    7ad5:	52                   	push   %edx
    7ad6:	66 8b 45 98          	mov    -0x68(%ebp),%ax
    7ada:	8b 4b 1c             	mov    0x1c(%ebx),%ecx
    7add:	50                   	push   %eax
    7ade:	51                   	push   %ecx
    7adf:	e8 7c 08 00 00       	call   8360 <portrng_alloc>
    7ae4:	8d 75 b4             	lea    -0x4c(%ebp),%esi
    7ae7:	83 c4 20             	add    $0x20,%esp
    7aea:	85 c0                	test   %eax,%eax
    7aec:	74 6f                	je     7b5d <amap_insert+0x20d>
    7aee:	eb 77                	jmp    7b67 <amap_insert+0x217>
    7af0:	85 c0                	test   %eax,%eax
    7af2:	0f 95 c0             	setne  %al
    7af5:	80 bd 72 ff ff ff 00 	cmpb   $0x0,-0x8e(%ebp)
    7afc:	74 08                	je     7b06 <amap_insert+0x1b6>
    7afe:	84 c0                	test   %al,%al
    7b00:	0f 85 32 01 00 00    	jne    7c38 <amap_insert+0x2e8>
    7b06:	84 d2                	test   %dl,%dl
    7b08:	0f 84 07 ff ff ff    	je     7a15 <amap_insert+0xc5>
    7b0e:	84 c0                	test   %al,%al
    7b10:	0f 84 ff fe ff ff    	je     7a15 <amap_insert+0xc5>
    7b16:	8d 7d b4             	lea    -0x4c(%ebp),%edi
    7b19:	52                   	push   %edx
    7b1a:	8d 75 80             	lea    -0x80(%ebp),%esi
    7b1d:	68 d2 a2 00 00       	push   $0xa2d2
    7b22:	6a 05                	push   $0x5
    7b24:	6a ff                	push   $0xffffffff
    7b26:	e8 a5 2c 00 00       	call   a7d0 <log_msg@plt>
    7b2b:	8d 45 cc             	lea    -0x34(%ebp),%eax
    7b2e:	b9 0d 00 00 00       	mov    $0xd,%ecx
    7b33:	8b 5d 10             	mov    0x10(%ebp),%ebx
    7b36:	f3 a5                	rep movsl %ds:(%esi),%es:(%edi)
    7b38:	89 04 24             	mov    %eax,(%esp)
    7b3b:	31 c0                	xor    %eax,%eax
    7b3d:	66 8b 45 98          	mov    -0x68(%ebp),%ax
    7b41:	8b 4d 14             	mov    0x14(%ebp),%ecx
    7b44:	51                   	push   %ecx
    7b45:	53                   	push   %ebx
    7b46:	50                   	push   %eax
    7b47:	8b 45 08             	mov    0x8(%ebp),%eax
    7b4a:	8d 75 b4             	lea    -0x4c(%ebp),%esi
    7b4d:	8b 78 18             	mov    0x18(%eax),%edi
    7b50:	57                   	push   %edi
    7b51:	e8 0a 08 00 00       	call   8360 <portrng_alloc>
    7b56:	83 c4 20             	add    $0x20,%esp
    7b59:	85 c0                	test   %eax,%eax
    7b5b:	75 0a                	jne    7b67 <amap_insert+0x217>
    7b5d:	b9 0d 00 00 00       	mov    $0xd,%ecx
    7b62:	8b 7d 18             	mov    0x18(%ebp),%edi
    7b65:	f3 a5                	rep movsl %ds:(%esi),%es:(%edi)
    7b67:	8d 65 f4             	lea    -0xc(%ebp),%esp
    7b6a:	5b                   	pop    %ebx
    7b6b:	5e                   	pop    %esi
    7b6c:	5f                   	pop    %edi
    7b6d:	5d                   	pop    %ebp
    7b6e:	c3                   	ret    
    7b6f:	90                   	nop
    7b70:	57                   	push   %edi
    7b71:	68 34 a1 00 00       	push   $0xa134
    7b76:	6a 05                	push   $0x5
    7b78:	6a ff                	push   $0xffffffff
    7b7a:	e8 51 2c 00 00       	call   a7d0 <log_msg@plt>
    7b7f:	83 c4 0c             	add    $0xc,%esp
    7b82:	8d 5d 84             	lea    -0x7c(%ebp),%ebx
    7b85:	53                   	push   %ebx
    7b86:	6a 00                	push   $0x0
    7b88:	56                   	push   %esi
    7b89:	e8 d2 2b 00 00       	call   a760 <inet_get_srcaddr@plt>
    7b8e:	83 c4 10             	add    $0x10,%esp
    7b91:	85 c0                	test   %eax,%eax
    7b93:	0f 84 1e fe ff ff    	je     79b7 <amap_insert+0x67>
    7b99:	56                   	push   %esi
    7b9a:	68 5c a1 00 00       	push   $0xa15c
    7b9f:	6a 05                	push   $0x5
    7ba1:	6a ff                	push   $0xffffffff
    7ba3:	89 85 74 ff ff ff    	mov    %eax,-0x8c(%ebp)
    7ba9:	e8 22 2c 00 00       	call   a7d0 <log_msg@plt>
    7bae:	83 c4 10             	add    $0x10,%esp
    7bb1:	8b 85 74 ff ff ff    	mov    -0x8c(%ebp),%eax
    7bb7:	eb ae                	jmp    7b67 <amap_insert+0x217>
    7bb9:	8d b4 26 00 00 00 00 	lea    0x0(%esi,%eiz,1),%esi
    7bc0:	51                   	push   %ecx
    7bc1:	68 96 a2 00 00       	push   $0xa296
    7bc6:	6a 05                	push   $0x5
    7bc8:	6a ff                	push   $0xffffffff
    7bca:	e8 01 2c 00 00       	call   a7d0 <log_msg@plt>
    7bcf:	8d 85 7c ff ff ff    	lea    -0x84(%ebp),%eax
    7bd5:	89 04 24             	mov    %eax,(%esp)
    7bd8:	89 d9                	mov    %ebx,%ecx
    7bda:	8d 55 9c             	lea    -0x64(%ebp),%edx
    7bdd:	8b 45 08             	mov    0x8(%ebp),%eax
    7be0:	e8 5b fb ff ff       	call   7740 <amap_repla_find>
    7be5:	83 c4 10             	add    $0x10,%esp
    7be8:	85 c0                	test   %eax,%eax
    7bea:	0f 85 38 01 00 00    	jne    7d28 <amap_insert+0x3d8>
    7bf0:	8b 9d 7c ff ff ff    	mov    -0x84(%ebp),%ebx
    7bf6:	83 ec 0c             	sub    $0xc,%esp
    7bf9:	8d 45 cc             	lea    -0x34(%ebp),%eax
    7bfc:	8d 7d b4             	lea    -0x4c(%ebp),%edi
    7bff:	b9 0d 00 00 00       	mov    $0xd,%ecx
    7c04:	8d 75 80             	lea    -0x80(%ebp),%esi
    7c07:	f3 a5                	rep movsl %ds:(%esi),%es:(%edi)
    7c09:	50                   	push   %eax
    7c0a:	8b 45 14             	mov    0x14(%ebp),%eax
    7c0d:	50                   	push   %eax
    7c0e:	8b 45 10             	mov    0x10(%ebp),%eax
    7c11:	50                   	push   %eax
    7c12:	31 c0                	xor    %eax,%eax
    7c14:	66 8b 45 98          	mov    -0x68(%ebp),%ax
    7c18:	8d 75 b4             	lea    -0x4c(%ebp),%esi
    7c1b:	50                   	push   %eax
    7c1c:	8b 43 34             	mov    0x34(%ebx),%eax
    7c1f:	50                   	push   %eax
    7c20:	e8 3b 07 00 00       	call   8360 <portrng_alloc>
    7c25:	83 c4 20             	add    $0x20,%esp
    7c28:	85 c0                	test   %eax,%eax
    7c2a:	0f 84 2d ff ff ff    	je     7b5d <amap_insert+0x20d>
    7c30:	e9 32 ff ff ff       	jmp    7b67 <amap_insert+0x217>
    7c35:	8d 76 00             	lea    0x0(%esi),%esi
    7c38:	50                   	push   %eax
    7c39:	68 be a2 00 00       	push   $0xa2be
    7c3e:	6a 05                	push   $0x5
    7c40:	6a ff                	push   $0xffffffff
    7c42:	e8 89 2b 00 00       	call   a7d0 <log_msg@plt>
    7c47:	8b 45 08             	mov    0x8(%ebp),%eax
    7c4a:	8b 55 08             	mov    0x8(%ebp),%edx
    7c4d:	8b 40 14             	mov    0x14(%eax),%eax
    7c50:	83 c4 10             	add    $0x10,%esp
    7c53:	8b 7d 80             	mov    -0x80(%ebp),%edi
    7c56:	8d 72 10             	lea    0x10(%edx),%esi
    7c59:	39 f0                	cmp    %esi,%eax
    7c5b:	75 16                	jne    7c73 <amap_insert+0x323>
    7c5d:	e9 56 01 00 00       	jmp    7db8 <amap_insert+0x468>
    7c62:	8d b6 00 00 00 00    	lea    0x0(%esi),%esi
    7c68:	8b 40 04             	mov    0x4(%eax),%eax
    7c6b:	39 f0                	cmp    %esi,%eax
    7c6d:	0f 84 45 01 00 00    	je     7db8 <amap_insert+0x468>
    7c73:	3b 78 08             	cmp    0x8(%eax),%edi
    7c76:	75 f0                	jne    7c68 <amap_insert+0x318>
    7c78:	89 c3                	mov    %eax,%ebx
    7c7a:	83 ec 0c             	sub    $0xc,%esp
    7c7d:	8d 45 cc             	lea    -0x34(%ebp),%eax
    7c80:	8d 7d b4             	lea    -0x4c(%ebp),%edi
    7c83:	b9 0d 00 00 00       	mov    $0xd,%ecx
    7c88:	8d 75 80             	lea    -0x80(%ebp),%esi
    7c8b:	f3 a5                	rep movsl %ds:(%esi),%es:(%edi)
    7c8d:	50                   	push   %eax
    7c8e:	8b 45 14             	mov    0x14(%ebp),%eax
    7c91:	50                   	push   %eax
    7c92:	8b 45 10             	mov    0x10(%ebp),%eax
    7c95:	50                   	push   %eax
    7c96:	31 c0                	xor    %eax,%eax
    7c98:	66 8b 45 98          	mov    -0x68(%ebp),%ax
    7c9c:	8d 75 b4             	lea    -0x4c(%ebp),%esi
    7c9f:	50                   	push   %eax
    7ca0:	8b 43 0c             	mov    0xc(%ebx),%eax
    7ca3:	50                   	push   %eax
    7ca4:	e8 b7 06 00 00       	call   8360 <portrng_alloc>
    7ca9:	83 c4 20             	add    $0x20,%esp
    7cac:	85 c0                	test   %eax,%eax
    7cae:	0f 84 a9 fe ff ff    	je     7b5d <amap_insert+0x20d>
    7cb4:	e9 ae fe ff ff       	jmp    7b67 <amap_insert+0x217>
    7cb9:	8d b4 26 00 00 00 00 	lea    0x0(%esi,%eiz,1),%esi
    7cc0:	50                   	push   %eax
    7cc1:	50                   	push   %eax
    7cc2:	6a 20                	push   $0x20
    7cc4:	6a 01                	push   $0x1
    7cc6:	e8 75 2b 00 00       	call   a840 <calloc@plt>
    7ccb:	83 c4 10             	add    $0x10,%esp
    7cce:	89 c3                	mov    %eax,%ebx
    7cd0:	85 c0                	test   %eax,%eax
    7cd2:	0f 84 bf 00 00 00    	je     7d97 <amap_insert+0x447>
    7cd8:	83 ec 0c             	sub    $0xc,%esp
    7cdb:	8d 40 1c             	lea    0x1c(%eax),%eax
    7cde:	50                   	push   %eax
    7cdf:	e8 ec 05 00 00       	call   82d0 <portrng_create>
    7ce4:	83 c4 10             	add    $0x10,%esp
    7ce7:	85 c0                	test   %eax,%eax
    7ce9:	0f 85 b2 00 00 00    	jne    7da1 <amap_insert+0x451>
    7cef:	8b 45 84             	mov    -0x7c(%ebp),%eax
    7cf2:	89 73 04             	mov    %esi,0x4(%ebx)
    7cf5:	89 43 08             	mov    %eax,0x8(%ebx)
    7cf8:	8b 45 88             	mov    -0x78(%ebp),%eax
    7cfb:	89 43 0c             	mov    %eax,0xc(%ebx)
    7cfe:	8b 45 8c             	mov    -0x74(%ebp),%eax
    7d01:	89 43 10             	mov    %eax,0x10(%ebx)
    7d04:	8b 45 90             	mov    -0x70(%ebp),%eax
    7d07:	89 43 14             	mov    %eax,0x14(%ebx)
    7d0a:	8b 45 94             	mov    -0x6c(%ebp),%eax
    7d0d:	89 43 18             	mov    %eax,0x18(%ebx)
    7d10:	8b 45 08             	mov    0x8(%ebp),%eax
    7d13:	8b 40 08             	mov    0x8(%eax),%eax
    7d16:	89 03                	mov    %eax,(%ebx)
    7d18:	89 58 04             	mov    %ebx,0x4(%eax)
    7d1b:	8b 45 08             	mov    0x8(%ebp),%eax
    7d1e:	89 58 08             	mov    %ebx,0x8(%eax)
    7d21:	e9 92 fd ff ff       	jmp    7ab8 <amap_insert+0x168>
    7d26:	66 90                	xchg   %ax,%ax
    7d28:	52                   	push   %edx
    7d29:	52                   	push   %edx
    7d2a:	6a 38                	push   $0x38
    7d2c:	6a 01                	push   $0x1
    7d2e:	e8 0d 2b 00 00       	call   a840 <calloc@plt>
    7d33:	83 c4 10             	add    $0x10,%esp
    7d36:	89 c3                	mov    %eax,%ebx
    7d38:	85 c0                	test   %eax,%eax
    7d3a:	74 5b                	je     7d97 <amap_insert+0x447>
    7d3c:	83 ec 0c             	sub    $0xc,%esp
    7d3f:	8d 40 34             	lea    0x34(%eax),%eax
    7d42:	50                   	push   %eax
    7d43:	e8 88 05 00 00       	call   82d0 <portrng_create>
    7d48:	83 c4 10             	add    $0x10,%esp
    7d4b:	85 c0                	test   %eax,%eax
    7d4d:	75 52                	jne    7da1 <amap_insert+0x451>
    7d4f:	8b 45 84             	mov    -0x7c(%ebp),%eax
    7d52:	8d 7b 08             	lea    0x8(%ebx),%edi
    7d55:	b9 06 00 00 00       	mov    $0x6,%ecx
    7d5a:	8d 75 9c             	lea    -0x64(%ebp),%esi
    7d5d:	f3 a5                	rep movsl %ds:(%esi),%es:(%edi)
    7d5f:	89 43 20             	mov    %eax,0x20(%ebx)
    7d62:	8b 45 88             	mov    -0x78(%ebp),%eax
    7d65:	89 43 24             	mov    %eax,0x24(%ebx)
    7d68:	8b 45 8c             	mov    -0x74(%ebp),%eax
    7d6b:	89 43 28             	mov    %eax,0x28(%ebx)
    7d6e:	8b 45 90             	mov    -0x70(%ebp),%eax
    7d71:	89 43 2c             	mov    %eax,0x2c(%ebx)
    7d74:	8b 45 94             	mov    -0x6c(%ebp),%eax
    7d77:	89 43 30             	mov    %eax,0x30(%ebx)
    7d7a:	8b 45 08             	mov    0x8(%ebp),%eax
    7d7d:	89 43 04             	mov    %eax,0x4(%ebx)
    7d80:	89 9d 7c ff ff ff    	mov    %ebx,-0x84(%ebp)
    7d86:	8b 00                	mov    (%eax),%eax
    7d88:	89 03                	mov    %eax,(%ebx)
    7d8a:	89 58 04             	mov    %ebx,0x4(%eax)
    7d8d:	8b 45 08             	mov    0x8(%ebp),%eax
    7d90:	89 18                	mov    %ebx,(%eax)
    7d92:	e9 5f fe ff ff       	jmp    7bf6 <amap_insert+0x2a6>
    7d97:	b8 fe ff ff ff       	mov    $0xfffffffe,%eax
    7d9c:	e9 c6 fd ff ff       	jmp    7b67 <amap_insert+0x217>
    7da1:	83 ec 0c             	sub    $0xc,%esp
    7da4:	53                   	push   %ebx
    7da5:	e8 a6 2c 00 00       	call   aa50 <free@plt>
    7daa:	83 c4 10             	add    $0x10,%esp
    7dad:	b8 fe ff ff ff       	mov    $0xfffffffe,%eax
    7db2:	e9 b0 fd ff ff       	jmp    7b67 <amap_insert+0x217>
    7db7:	90                   	nop
    7db8:	50                   	push   %eax
    7db9:	50                   	push   %eax
    7dba:	6a 10                	push   $0x10
    7dbc:	6a 01                	push   $0x1
    7dbe:	e8 7d 2a 00 00       	call   a840 <calloc@plt>
    7dc3:	83 c4 10             	add    $0x10,%esp
    7dc6:	89 c3                	mov    %eax,%ebx
    7dc8:	85 c0                	test   %eax,%eax
    7dca:	74 cb                	je     7d97 <amap_insert+0x447>
    7dcc:	83 ec 0c             	sub    $0xc,%esp
    7dcf:	8d 40 0c             	lea    0xc(%eax),%eax
    7dd2:	50                   	push   %eax
    7dd3:	e8 f8 04 00 00       	call   82d0 <portrng_create>
    7dd8:	83 c4 10             	add    $0x10,%esp
    7ddb:	85 c0                	test   %eax,%eax
    7ddd:	75 c2                	jne    7da1 <amap_insert+0x451>
    7ddf:	8b 45 08             	mov    0x8(%ebp),%eax
    7de2:	89 7b 08             	mov    %edi,0x8(%ebx)
    7de5:	89 73 04             	mov    %esi,0x4(%ebx)
    7de8:	8b 40 10             	mov    0x10(%eax),%eax
    7deb:	89 03                	mov    %eax,(%ebx)
    7ded:	89 58 04             	mov    %ebx,0x4(%eax)
    7df0:	8b 45 08             	mov    0x8(%ebp),%eax
    7df3:	89 58 10             	mov    %ebx,0x10(%eax)
    7df6:	e9 7f fe ff ff       	jmp    7c7a <amap_insert+0x32a>
    7dfb:	90                   	nop
    7dfc:	8d 74 26 00          	lea    0x0(%esi,%eiz,1),%esi

00007e00 <amap_remove>:
    7e00:	55                   	push   %ebp
    7e01:	89 e5                	mov    %esp,%ebp
    7e03:	57                   	push   %edi
    7e04:	56                   	push   %esi
    7e05:	53                   	push   %ebx
    7e06:	83 ec 30             	sub    $0x30,%esp
    7e09:	68 e7 a2 00 00       	push   $0xa2e7
    7e0e:	6a 05                	push   $0x5
    7e10:	6a ff                	push   $0xffffffff
    7e12:	e8 b9 29 00 00       	call   a7d0 <log_msg@plt>
    7e17:	8b 45 0c             	mov    0xc(%ebp),%eax
    7e1a:	83 c0 1c             	add    $0x1c,%eax
    7e1d:	89 04 24             	mov    %eax,(%esp)
    7e20:	89 45 d0             	mov    %eax,-0x30(%ebp)
    7e23:	e8 c8 2b 00 00       	call   a9f0 <inet_addr_is_any@plt>
    7e28:	8b 55 0c             	mov    0xc(%ebp),%edx
    7e2b:	8b 7a 30             	mov    0x30(%edx),%edi
    7e2e:	8d 5a 04             	lea    0x4(%edx),%ebx
    7e31:	85 c0                	test   %eax,%eax
    7e33:	89 1c 24             	mov    %ebx,(%esp)
    7e36:	0f 94 45 d7          	sete   -0x29(%ebp)
    7e3a:	66 85 ff             	test   %di,%di
    7e3d:	89 c6                	mov    %eax,%esi
    7e3f:	0f 95 45 d6          	setne  -0x2a(%ebp)
    7e43:	e8 a8 2b 00 00       	call   a9f0 <inet_addr_is_any@plt>
    7e48:	8b 4d 0c             	mov    0xc(%ebp),%ecx
    7e4b:	8b 09                	mov    (%ecx),%ecx
    7e4d:	83 c4 10             	add    $0x10,%esp
    7e50:	85 c0                	test   %eax,%eax
    7e52:	0f 94 c2             	sete   %dl
    7e55:	85 c9                	test   %ecx,%ecx
    7e57:	0f 95 45 d5          	setne  -0x2b(%ebp)
    7e5b:	80 7d d7 00          	cmpb   $0x0,-0x29(%ebp)
    7e5f:	74 4f                	je     7eb0 <amap_remove+0xb0>
    7e61:	80 7d d6 00          	cmpb   $0x0,-0x2a(%ebp)
    7e65:	74 49                	je     7eb0 <amap_remove+0xb0>
    7e67:	85 c9                	test   %ecx,%ecx
    7e69:	75 0d                	jne    7e78 <amap_remove+0x78>
    7e6b:	84 d2                	test   %dl,%dl
    7e6d:	0f 85 45 01 00 00    	jne    7fb8 <amap_remove+0x1b8>
    7e73:	90                   	nop
    7e74:	8d 74 26 00          	lea    0x0(%esi,%eiz,1),%esi
    7e78:	50                   	push   %eax
    7e79:	31 c0                	xor    %eax,%eax
    7e7b:	8a 45 d5             	mov    -0x2b(%ebp),%al
    7e7e:	50                   	push   %eax
    7e7f:	31 c0                	xor    %eax,%eax
    7e81:	88 d0                	mov    %dl,%al
    7e83:	50                   	push   %eax
    7e84:	31 c0                	xor    %eax,%eax
    7e86:	8a 45 d6             	mov    -0x2a(%ebp),%al
    7e89:	50                   	push   %eax
    7e8a:	31 c0                	xor    %eax,%eax
    7e8c:	8a 45 d7             	mov    -0x29(%ebp),%al
    7e8f:	50                   	push   %eax
    7e90:	68 18 a2 00 00       	push   $0xa218
    7e95:	6a 05                	push   $0x5
    7e97:	6a ff                	push   $0xffffffff
    7e99:	e8 32 29 00 00       	call   a7d0 <log_msg@plt>
    7e9e:	83 c4 20             	add    $0x20,%esp
    7ea1:	8d 65 f4             	lea    -0xc(%ebp),%esp
    7ea4:	5b                   	pop    %ebx
    7ea5:	5e                   	pop    %esi
    7ea6:	5f                   	pop    %edi
    7ea7:	5d                   	pop    %ebp
    7ea8:	c3                   	ret    
    7ea9:	8d b4 26 00 00 00 00 	lea    0x0(%esi,%eiz,1),%esi
    7eb0:	85 f6                	test   %esi,%esi
    7eb2:	74 c4                	je     7e78 <amap_remove+0x78>
    7eb4:	66 85 ff             	test   %di,%di
    7eb7:	75 bf                	jne    7e78 <amap_remove+0x78>
    7eb9:	85 c9                	test   %ecx,%ecx
    7ebb:	0f 94 45 d0          	sete   -0x30(%ebp)
    7ebf:	84 d2                	test   %dl,%dl
    7ec1:	0f 84 a9 00 00 00    	je     7f70 <amap_remove+0x170>
    7ec7:	80 7d d0 00          	cmpb   $0x0,-0x30(%ebp)
    7ecb:	0f 84 9f 00 00 00    	je     7f70 <amap_remove+0x170>
    7ed1:	8b 45 08             	mov    0x8(%ebp),%eax
    7ed4:	8b 78 0c             	mov    0xc(%eax),%edi
    7ed7:	8d 70 08             	lea    0x8(%eax),%esi
    7eda:	39 f7                	cmp    %esi,%edi
    7edc:	75 15                	jne    7ef3 <amap_remove+0xf3>
    7ede:	e9 f5 01 00 00       	jmp    80d8 <amap_remove+0x2d8>
    7ee3:	90                   	nop
    7ee4:	8d 74 26 00          	lea    0x0(%esi,%eiz,1),%esi
    7ee8:	8b 7f 04             	mov    0x4(%edi),%edi
    7eeb:	39 f7                	cmp    %esi,%edi
    7eed:	0f 84 e5 01 00 00    	je     80d8 <amap_remove+0x2d8>
    7ef3:	50                   	push   %eax
    7ef4:	50                   	push   %eax
    7ef5:	8d 47 08             	lea    0x8(%edi),%eax
    7ef8:	53                   	push   %ebx
    7ef9:	50                   	push   %eax
    7efa:	e8 31 2a 00 00       	call   a930 <inet_addr_compare@plt>
    7eff:	83 c4 10             	add    $0x10,%esp
    7f02:	85 c0                	test   %eax,%eax
    7f04:	74 e2                	je     7ee8 <amap_remove+0xe8>
    7f06:	8b 75 0c             	mov    0xc(%ebp),%esi
    7f09:	50                   	push   %eax
    7f0a:	50                   	push   %eax
    7f0b:	31 c0                	xor    %eax,%eax
    7f0d:	66 8b 46 18          	mov    0x18(%esi),%ax
    7f11:	8b 57 1c             	mov    0x1c(%edi),%edx
    7f14:	50                   	push   %eax
    7f15:	52                   	push   %edx
    7f16:	e8 15 06 00 00       	call   8530 <portrng_free_port>
    7f1b:	8b 5f 1c             	mov    0x1c(%edi),%ebx
    7f1e:	59                   	pop    %ecx
    7f1f:	53                   	push   %ebx
    7f20:	e8 9b 06 00 00       	call   85c0 <portrng_empty>
    7f25:	83 c4 10             	add    $0x10,%esp
    7f28:	84 c0                	test   %al,%al
    7f2a:	0f 84 71 ff ff ff    	je     7ea1 <amap_remove+0xa1>
    7f30:	8b 17                	mov    (%edi),%edx
    7f32:	85 d2                	test   %edx,%edx
    7f34:	74 0e                	je     7f44 <amap_remove+0x144>
    7f36:	8b 47 04             	mov    0x4(%edi),%eax
    7f39:	85 c0                	test   %eax,%eax
    7f3b:	74 07                	je     7f44 <amap_remove+0x144>
    7f3d:	89 10                	mov    %edx,(%eax)
    7f3f:	8b 17                	mov    (%edi),%edx
    7f41:	89 42 04             	mov    %eax,0x4(%edx)
    7f44:	83 ec 0c             	sub    $0xc,%esp
    7f47:	8b 47 1c             	mov    0x1c(%edi),%eax
    7f4a:	c7 07 00 00 00 00    	movl   $0x0,(%edi)
    7f50:	c7 47 04 00 00 00 00 	movl   $0x0,0x4(%edi)
    7f57:	50                   	push   %eax
    7f58:	e8 c3 03 00 00       	call   8320 <portrng_destroy>
    7f5d:	89 3c 24             	mov    %edi,(%esp)
    7f60:	e8 eb 2a 00 00       	call   aa50 <free@plt>
    7f65:	83 c4 10             	add    $0x10,%esp
    7f68:	e9 34 ff ff ff       	jmp    7ea1 <amap_remove+0xa1>
    7f6d:	8d 76 00             	lea    0x0(%esi),%esi
    7f70:	85 c0                	test   %eax,%eax
    7f72:	0f 95 c0             	setne  %al
    7f75:	80 7d d5 00          	cmpb   $0x0,-0x2b(%ebp)
    7f79:	74 08                	je     7f83 <amap_remove+0x183>
    7f7b:	84 c0                	test   %al,%al
    7f7d:	0f 85 c5 00 00 00    	jne    8048 <amap_remove+0x248>
    7f83:	80 7d d0 00          	cmpb   $0x0,-0x30(%ebp)
    7f87:	0f 84 eb fe ff ff    	je     7e78 <amap_remove+0x78>
    7f8d:	84 c0                	test   %al,%al
    7f8f:	0f 84 e3 fe ff ff    	je     7e78 <amap_remove+0x78>
    7f95:	8b 75 0c             	mov    0xc(%ebp),%esi
    7f98:	31 c0                	xor    %eax,%eax
    7f9a:	52                   	push   %edx
    7f9b:	52                   	push   %edx
    7f9c:	66 8b 46 18          	mov    0x18(%esi),%ax
    7fa0:	50                   	push   %eax
    7fa1:	8b 45 08             	mov    0x8(%ebp),%eax
    7fa4:	8b 48 18             	mov    0x18(%eax),%ecx
    7fa7:	51                   	push   %ecx
    7fa8:	e8 83 05 00 00       	call   8530 <portrng_free_port>
    7fad:	83 c4 10             	add    $0x10,%esp
    7fb0:	8d 65 f4             	lea    -0xc(%ebp),%esp
    7fb3:	5b                   	pop    %ebx
    7fb4:	5e                   	pop    %esi
    7fb5:	5f                   	pop    %edi
    7fb6:	5d                   	pop    %ebp
    7fb7:	c3                   	ret    
    7fb8:	83 ec 0c             	sub    $0xc,%esp
    7fbb:	8d 45 e4             	lea    -0x1c(%ebp),%eax
    7fbe:	89 d9                	mov    %ebx,%ecx
    7fc0:	8b 55 d0             	mov    -0x30(%ebp),%edx
    7fc3:	50                   	push   %eax
    7fc4:	8b 45 08             	mov    0x8(%ebp),%eax
    7fc7:	e8 74 f7 ff ff       	call   7740 <amap_repla_find>
    7fcc:	83 c4 10             	add    $0x10,%esp
    7fcf:	85 c0                	test   %eax,%eax
    7fd1:	0f 85 19 01 00 00    	jne    80f0 <amap_remove+0x2f0>
    7fd7:	8b 75 0c             	mov    0xc(%ebp),%esi
    7fda:	50                   	push   %eax
    7fdb:	50                   	push   %eax
    7fdc:	31 c0                	xor    %eax,%eax
    7fde:	66 8b 46 18          	mov    0x18(%esi),%ax
    7fe2:	50                   	push   %eax
    7fe3:	8b 45 e4             	mov    -0x1c(%ebp),%eax
    7fe6:	8b 40 34             	mov    0x34(%eax),%eax
    7fe9:	50                   	push   %eax
    7fea:	e8 41 05 00 00       	call   8530 <portrng_free_port>
    7fef:	58                   	pop    %eax
    7ff0:	8b 45 e4             	mov    -0x1c(%ebp),%eax
    7ff3:	8b 40 34             	mov    0x34(%eax),%eax
    7ff6:	50                   	push   %eax
    7ff7:	e8 c4 05 00 00       	call   85c0 <portrng_empty>
    7ffc:	83 c4 10             	add    $0x10,%esp
    7fff:	84 c0                	test   %al,%al
    8001:	0f 84 9a fe ff ff    	je     7ea1 <amap_remove+0xa1>
    8007:	8b 5d e4             	mov    -0x1c(%ebp),%ebx
    800a:	8b 13                	mov    (%ebx),%edx
    800c:	85 d2                	test   %edx,%edx
    800e:	74 0e                	je     801e <amap_remove+0x21e>
    8010:	8b 43 04             	mov    0x4(%ebx),%eax
    8013:	85 c0                	test   %eax,%eax
    8015:	74 07                	je     801e <amap_remove+0x21e>
    8017:	89 10                	mov    %edx,(%eax)
    8019:	8b 13                	mov    (%ebx),%edx
    801b:	89 42 04             	mov    %eax,0x4(%edx)
    801e:	83 ec 0c             	sub    $0xc,%esp
    8021:	8b 43 34             	mov    0x34(%ebx),%eax
    8024:	c7 03 00 00 00 00    	movl   $0x0,(%ebx)
    802a:	c7 43 04 00 00 00 00 	movl   $0x0,0x4(%ebx)
    8031:	50                   	push   %eax
    8032:	e8 e9 02 00 00       	call   8320 <portrng_destroy>
    8037:	89 1c 24             	mov    %ebx,(%esp)
    803a:	e8 11 2a 00 00       	call   aa50 <free@plt>
    803f:	83 c4 10             	add    $0x10,%esp
    8042:	e9 5a fe ff ff       	jmp    7ea1 <amap_remove+0xa1>
    8047:	90                   	nop
    8048:	8b 45 08             	mov    0x8(%ebp),%eax
    804b:	83 c0 10             	add    $0x10,%eax
    804e:	8b 58 04             	mov    0x4(%eax),%ebx
    8051:	39 c3                	cmp    %eax,%ebx
    8053:	75 16                	jne    806b <amap_remove+0x26b>
    8055:	e9 ae 00 00 00       	jmp    8108 <amap_remove+0x308>
    805a:	8d b6 00 00 00 00    	lea    0x0(%esi),%esi
    8060:	8b 5b 04             	mov    0x4(%ebx),%ebx
    8063:	39 c3                	cmp    %eax,%ebx
    8065:	0f 84 9d 00 00 00    	je     8108 <amap_remove+0x308>
    806b:	3b 4b 08             	cmp    0x8(%ebx),%ecx
    806e:	75 f0                	jne    8060 <amap_remove+0x260>
    8070:	8b 75 0c             	mov    0xc(%ebp),%esi
    8073:	31 c0                	xor    %eax,%eax
    8075:	57                   	push   %edi
    8076:	57                   	push   %edi
    8077:	66 8b 46 18          	mov    0x18(%esi),%ax
    807b:	50                   	push   %eax
    807c:	8b 43 0c             	mov    0xc(%ebx),%eax
    807f:	50                   	push   %eax
    8080:	e8 ab 04 00 00       	call   8530 <portrng_free_port>
    8085:	58                   	pop    %eax
    8086:	8b 43 0c             	mov    0xc(%ebx),%eax
    8089:	50                   	push   %eax
    808a:	e8 31 05 00 00       	call   85c0 <portrng_empty>
    808f:	83 c4 10             	add    $0x10,%esp
    8092:	84 c0                	test   %al,%al
    8094:	0f 84 07 fe ff ff    	je     7ea1 <amap_remove+0xa1>
    809a:	8b 13                	mov    (%ebx),%edx
    809c:	85 d2                	test   %edx,%edx
    809e:	74 0e                	je     80ae <amap_remove+0x2ae>
    80a0:	8b 43 04             	mov    0x4(%ebx),%eax
    80a3:	85 c0                	test   %eax,%eax
    80a5:	74 07                	je     80ae <amap_remove+0x2ae>
    80a7:	89 10                	mov    %edx,(%eax)
    80a9:	8b 13                	mov    (%ebx),%edx
    80ab:	89 42 04             	mov    %eax,0x4(%edx)
    80ae:	83 ec 0c             	sub    $0xc,%esp
    80b1:	8b 73 0c             	mov    0xc(%ebx),%esi
    80b4:	c7 03 00 00 00 00    	movl   $0x0,(%ebx)
    80ba:	c7 43 04 00 00 00 00 	movl   $0x0,0x4(%ebx)
    80c1:	56                   	push   %esi
    80c2:	e8 59 02 00 00       	call   8320 <portrng_destroy>
    80c7:	89 1c 24             	mov    %ebx,(%esp)
    80ca:	e8 81 29 00 00       	call   aa50 <free@plt>
    80cf:	83 c4 10             	add    $0x10,%esp
    80d2:	e9 ca fd ff ff       	jmp    7ea1 <amap_remove+0xa1>
    80d7:	90                   	nop
    80d8:	56                   	push   %esi
    80d9:	68 12 a3 00 00       	push   $0xa312
    80de:	6a 05                	push   $0x5
    80e0:	6a ff                	push   $0xffffffff
    80e2:	e8 e9 26 00 00       	call   a7d0 <log_msg@plt>
    80e7:	83 c4 10             	add    $0x10,%esp
    80ea:	e9 b2 fd ff ff       	jmp    7ea1 <amap_remove+0xa1>
    80ef:	90                   	nop
    80f0:	52                   	push   %edx
    80f1:	68 f5 a2 00 00       	push   $0xa2f5
    80f6:	6a 05                	push   $0x5
    80f8:	6a ff                	push   $0xffffffff
    80fa:	e8 d1 26 00 00       	call   a7d0 <log_msg@plt>
    80ff:	83 c4 10             	add    $0x10,%esp
    8102:	e9 9a fd ff ff       	jmp    7ea1 <amap_remove+0xa1>
    8107:	90                   	nop
    8108:	50                   	push   %eax
    8109:	68 2f a3 00 00       	push   $0xa32f
    810e:	6a 05                	push   $0x5
    8110:	6a ff                	push   $0xffffffff
    8112:	e8 b9 26 00 00       	call   a7d0 <log_msg@plt>
    8117:	83 c4 10             	add    $0x10,%esp
    811a:	e9 82 fd ff ff       	jmp    7ea1 <amap_remove+0xa1>
    811f:	90                   	nop

00008120 <amap_find_match>:
    8120:	55                   	push   %ebp
    8121:	89 e5                	mov    %esp,%ebp
    8123:	57                   	push   %edi
    8124:	56                   	push   %esi
    8125:	53                   	push   %ebx
    8126:	83 ec 2c             	sub    $0x2c,%esp
    8129:	8b 45 0c             	mov    0xc(%ebp),%eax
    812c:	8b 18                	mov    (%eax),%ebx
    812e:	53                   	push   %ebx
    812f:	68 4c a3 00 00       	push   $0xa34c
    8134:	6a 05                	push   $0x5
    8136:	6a ff                	push   $0xffffffff
    8138:	e8 93 26 00 00       	call   a7d0 <log_msg@plt>
    813d:	8b 45 0c             	mov    0xc(%ebp),%eax
    8140:	8d 70 04             	lea    0x4(%eax),%esi
    8143:	8d 50 1c             	lea    0x1c(%eax),%edx
    8146:	8d 45 e4             	lea    -0x1c(%ebp),%eax
    8149:	89 f1                	mov    %esi,%ecx
    814b:	89 04 24             	mov    %eax,(%esp)
    814e:	8b 45 08             	mov    0x8(%ebp),%eax
    8151:	e8 ea f5 ff ff       	call   7740 <amap_repla_find>
    8156:	83 c4 10             	add    $0x10,%esp
    8159:	85 c0                	test   %eax,%eax
    815b:	75 26                	jne    8183 <amap_find_match+0x63>
    815d:	8b 4d 0c             	mov    0xc(%ebp),%ecx
    8160:	50                   	push   %eax
    8161:	31 c0                	xor    %eax,%eax
    8163:	8b 55 10             	mov    0x10(%ebp),%edx
    8166:	66 8b 41 18          	mov    0x18(%ecx),%ax
    816a:	52                   	push   %edx
    816b:	50                   	push   %eax
    816c:	8b 45 e4             	mov    -0x1c(%ebp),%eax
    816f:	8b 48 34             	mov    0x34(%eax),%ecx
    8172:	51                   	push   %ecx
    8173:	e8 68 03 00 00       	call   84e0 <portrng_find_port>
    8178:	83 c4 10             	add    $0x10,%esp
    817b:	85 c0                	test   %eax,%eax
    817d:	0f 84 cc 00 00 00    	je     824f <amap_find_match+0x12f>
    8183:	8b 45 08             	mov    0x8(%ebp),%eax
    8186:	8b 78 0c             	mov    0xc(%eax),%edi
    8189:	8d 58 08             	lea    0x8(%eax),%ebx
    818c:	39 fb                	cmp    %edi,%ebx
    818e:	75 0f                	jne    819f <amap_find_match+0x7f>
    8190:	eb 46                	jmp    81d8 <amap_find_match+0xb8>
    8192:	8d b6 00 00 00 00    	lea    0x0(%esi),%esi
    8198:	8b 7f 04             	mov    0x4(%edi),%edi
    819b:	39 fb                	cmp    %edi,%ebx
    819d:	74 39                	je     81d8 <amap_find_match+0xb8>
    819f:	50                   	push   %eax
    81a0:	50                   	push   %eax
    81a1:	8d 47 08             	lea    0x8(%edi),%eax
    81a4:	56                   	push   %esi
    81a5:	50                   	push   %eax
    81a6:	e8 85 27 00 00       	call   a930 <inet_addr_compare@plt>
    81ab:	83 c4 10             	add    $0x10,%esp
    81ae:	85 c0                	test   %eax,%eax
    81b0:	74 e6                	je     8198 <amap_find_match+0x78>
    81b2:	8b 4d 0c             	mov    0xc(%ebp),%ecx
    81b5:	50                   	push   %eax
    81b6:	8b 45 10             	mov    0x10(%ebp),%eax
    81b9:	50                   	push   %eax
    81ba:	31 c0                	xor    %eax,%eax
    81bc:	66 8b 41 18          	mov    0x18(%ecx),%ax
    81c0:	50                   	push   %eax
    81c1:	8b 47 1c             	mov    0x1c(%edi),%eax
    81c4:	50                   	push   %eax
    81c5:	e8 16 03 00 00       	call   84e0 <portrng_find_port>
    81ca:	83 c4 10             	add    $0x10,%esp
    81cd:	85 c0                	test   %eax,%eax
    81cf:	0f 84 8e 00 00 00    	je     8263 <amap_find_match+0x143>
    81d5:	8d 76 00             	lea    0x0(%esi),%esi
    81d8:	8b 45 0c             	mov    0xc(%ebp),%eax
    81db:	8b 75 08             	mov    0x8(%ebp),%esi
    81de:	8b 08                	mov    (%eax),%ecx
    81e0:	8b 45 08             	mov    0x8(%ebp),%eax
    81e3:	8d 56 10             	lea    0x10(%esi),%edx
    81e6:	8b 40 14             	mov    0x14(%eax),%eax
    81e9:	39 d0                	cmp    %edx,%eax
    81eb:	75 0a                	jne    81f7 <amap_find_match+0xd7>
    81ed:	eb 11                	jmp    8200 <amap_find_match+0xe0>
    81ef:	90                   	nop
    81f0:	8b 40 04             	mov    0x4(%eax),%eax
    81f3:	39 d0                	cmp    %edx,%eax
    81f5:	74 09                	je     8200 <amap_find_match+0xe0>
    81f7:	3b 48 08             	cmp    0x8(%eax),%ecx
    81fa:	75 f4                	jne    81f0 <amap_find_match+0xd0>
    81fc:	85 c9                	test   %ecx,%ecx
    81fe:	75 77                	jne    8277 <amap_find_match+0x157>
    8200:	8b 5d 0c             	mov    0xc(%ebp),%ebx
    8203:	31 c0                	xor    %eax,%eax
    8205:	52                   	push   %edx
    8206:	8b 4d 10             	mov    0x10(%ebp),%ecx
    8209:	66 8b 43 18          	mov    0x18(%ebx),%ax
    820d:	51                   	push   %ecx
    820e:	50                   	push   %eax
    820f:	8b 45 08             	mov    0x8(%ebp),%eax
    8212:	8b 58 18             	mov    0x18(%eax),%ebx
    8215:	53                   	push   %ebx
    8216:	e8 c5 02 00 00       	call   84e0 <portrng_find_port>
    821b:	83 c4 10             	add    $0x10,%esp
    821e:	89 45 d4             	mov    %eax,-0x2c(%ebp)
    8221:	85 c0                	test   %eax,%eax
    8223:	0f 85 85 00 00 00    	jne    82ae <amap_find_match+0x18e>
    8229:	8b 45 0c             	mov    0xc(%ebp),%eax
    822c:	31 d2                	xor    %edx,%edx
    822e:	66 8b 50 18          	mov    0x18(%eax),%dx
    8232:	52                   	push   %edx
    8233:	68 b2 a3 00 00       	push   $0xa3b2
    8238:	6a 05                	push   $0x5
    823a:	6a ff                	push   $0xffffffff
    823c:	e8 8f 25 00 00       	call   a7d0 <log_msg@plt>
    8241:	83 c4 10             	add    $0x10,%esp
    8244:	8b 45 d4             	mov    -0x2c(%ebp),%eax
    8247:	8d 65 f4             	lea    -0xc(%ebp),%esp
    824a:	5b                   	pop    %ebx
    824b:	5e                   	pop    %esi
    824c:	5f                   	pop    %edi
    824d:	5d                   	pop    %ebp
    824e:	c3                   	ret    
    824f:	89 45 d4             	mov    %eax,-0x2c(%ebp)
    8252:	8b 45 0c             	mov    0xc(%ebp),%eax
    8255:	31 d2                	xor    %edx,%edx
    8257:	66 8b 50 18          	mov    0x18(%eax),%dx
    825b:	52                   	push   %edx
    825c:	68 67 a3 00 00       	push   $0xa367
    8261:	eb d5                	jmp    8238 <amap_find_match+0x118>
    8263:	89 45 d4             	mov    %eax,-0x2c(%ebp)
    8266:	8b 45 0c             	mov    0xc(%ebp),%eax
    8269:	31 d2                	xor    %edx,%edx
    826b:	66 8b 50 18          	mov    0x18(%eax),%dx
    826f:	52                   	push   %edx
    8270:	68 80 a3 00 00       	push   $0xa380
    8275:	eb c1                	jmp    8238 <amap_find_match+0x118>
    8277:	8b 7d 10             	mov    0x10(%ebp),%edi
    827a:	8b 4d 0c             	mov    0xc(%ebp),%ecx
    827d:	31 d2                	xor    %edx,%edx
    827f:	56                   	push   %esi
    8280:	57                   	push   %edi
    8281:	66 8b 51 18          	mov    0x18(%ecx),%dx
    8285:	8b 40 0c             	mov    0xc(%eax),%eax
    8288:	52                   	push   %edx
    8289:	50                   	push   %eax
    828a:	e8 51 02 00 00       	call   84e0 <portrng_find_port>
    828f:	83 c4 10             	add    $0x10,%esp
    8292:	85 c0                	test   %eax,%eax
    8294:	0f 85 66 ff ff ff    	jne    8200 <amap_find_match+0xe0>
    829a:	89 45 d4             	mov    %eax,-0x2c(%ebp)
    829d:	8b 45 0c             	mov    0xc(%ebp),%eax
    82a0:	31 d2                	xor    %edx,%edx
    82a2:	66 8b 50 18          	mov    0x18(%eax),%dx
    82a6:	52                   	push   %edx
    82a7:	68 99 a3 00 00       	push   $0xa399
    82ac:	eb 8a                	jmp    8238 <amap_find_match+0x118>
    82ae:	50                   	push   %eax
    82af:	68 cc a3 00 00       	push   $0xa3cc
    82b4:	6a 05                	push   $0x5
    82b6:	6a ff                	push   $0xffffffff
    82b8:	e8 13 25 00 00       	call   a7d0 <log_msg@plt>
    82bd:	83 c4 10             	add    $0x10,%esp
    82c0:	83 c8 ff             	or     $0xffffffff,%eax
    82c3:	eb 82                	jmp    8247 <amap_find_match+0x127>
    82c5:	66 90                	xchg   %ax,%ax
    82c7:	66 90                	xchg   %ax,%ax
    82c9:	66 90                	xchg   %ax,%ax
    82cb:	66 90                	xchg   %ax,%ax
    82cd:	66 90                	xchg   %ax,%ax
    82cf:	90                   	nop

000082d0 <portrng_create>:
    82d0:	55                   	push   %ebp
    82d1:	89 e5                	mov    %esp,%ebp
    82d3:	83 ec 0c             	sub    $0xc,%esp
    82d6:	68 d6 a3 00 00       	push   $0xa3d6
    82db:	6a 05                	push   $0x5
    82dd:	6a ff                	push   $0xffffffff
    82df:	e8 ec 24 00 00       	call   a7d0 <log_msg@plt>
    82e4:	5a                   	pop    %edx
    82e5:	59                   	pop    %ecx
    82e6:	6a 08                	push   $0x8
    82e8:	6a 01                	push   $0x1
    82ea:	e8 51 25 00 00       	call   a840 <calloc@plt>
    82ef:	83 c4 10             	add    $0x10,%esp
    82f2:	85 c0                	test   %eax,%eax
    82f4:	74 22                	je     8318 <portrng_create+0x48>
    82f6:	8b 55 08             	mov    0x8(%ebp),%edx
    82f9:	89 00                	mov    %eax,(%eax)
    82fb:	89 40 04             	mov    %eax,0x4(%eax)
    82fe:	89 02                	mov    %eax,(%edx)
    8300:	50                   	push   %eax
    8301:	68 ef a3 00 00       	push   $0xa3ef
    8306:	6a 05                	push   $0x5
    8308:	6a ff                	push   $0xffffffff
    830a:	e8 c1 24 00 00       	call   a7d0 <log_msg@plt>
    830f:	83 c4 10             	add    $0x10,%esp
    8312:	31 c0                	xor    %eax,%eax
    8314:	c9                   	leave  
    8315:	c3                   	ret    
    8316:	66 90                	xchg   %ax,%ax
    8318:	b8 fe ff ff ff       	mov    $0xfffffffe,%eax
    831d:	c9                   	leave  
    831e:	c3                   	ret    
    831f:	90                   	nop

00008320 <portrng_destroy>:
    8320:	55                   	push   %ebp
    8321:	89 e5                	mov    %esp,%ebp
    8323:	53                   	push   %ebx
    8324:	83 ec 08             	sub    $0x8,%esp
    8327:	8b 5d 08             	mov    0x8(%ebp),%ebx
    832a:	68 06 a4 00 00       	push   $0xa406
    832f:	6a 05                	push   $0x5
    8331:	6a ff                	push   $0xffffffff
    8333:	e8 98 24 00 00       	call   a7d0 <log_msg@plt>
    8338:	83 c4 10             	add    $0x10,%esp
    833b:	39 5b 04             	cmp    %ebx,0x4(%ebx)
    833e:	75 0c                	jne    834c <portrng_destroy+0x2c>
    8340:	89 5d 08             	mov    %ebx,0x8(%ebp)
    8343:	8b 5d fc             	mov    -0x4(%ebp),%ebx
    8346:	c9                   	leave  
    8347:	e9 04 27 00 00       	jmp    aa50 <free@plt>
    834c:	50                   	push   %eax
    834d:	6a 4c                	push   $0x4c
    834f:	68 18 a4 00 00       	push   $0xa418
    8354:	68 26 a4 00 00       	push   $0xa426
    8359:	e8 d2 24 00 00       	call   a830 <assert_abort@plt>
    835e:	66 90                	xchg   %ax,%ax

00008360 <portrng_alloc>:
    8360:	55                   	push   %ebp
    8361:	89 e5                	mov    %esp,%ebp
    8363:	57                   	push   %edi
    8364:	56                   	push   %esi
    8365:	53                   	push   %ebx
    8366:	83 ec 10             	sub    $0x10,%esp
    8369:	8b 75 0c             	mov    0xc(%ebp),%esi
    836c:	8b 5d 08             	mov    0x8(%ebp),%ebx
    836f:	68 3c a4 00 00       	push   $0xa43c
    8374:	6a 05                	push   $0x5
    8376:	6a ff                	push   $0xffffffff
    8378:	e8 53 24 00 00       	call   a7d0 <log_msg@plt>
    837d:	83 c4 10             	add    $0x10,%esp
    8380:	66 85 f6             	test   %si,%si
    8383:	0f 84 c6 00 00 00    	je     844f <portrng_alloc+0xef>
    8389:	31 c0                	xor    %eax,%eax
    838b:	89 f7                	mov    %esi,%edi
    838d:	66 89 f0             	mov    %si,%ax
    8390:	50                   	push   %eax
    8391:	68 6b a4 00 00       	push   $0xa46b
    8396:	6a 05                	push   $0x5
    8398:	6a ff                	push   $0xffffffff
    839a:	e8 31 24 00 00       	call   a7d0 <log_msg@plt>
    839f:	83 c4 10             	add    $0x10,%esp
    83a2:	f6 45 14 01          	testb  $0x1,0x14(%ebp)
    83a6:	75 0b                	jne    83b3 <portrng_alloc+0x53>
    83a8:	66 81 fe ff 03       	cmp    $0x3ff,%si
    83ad:	0f 86 fc 00 00 00    	jbe    84af <portrng_alloc+0x14f>
    83b3:	8b 43 04             	mov    0x4(%ebx),%eax
    83b6:	39 d8                	cmp    %ebx,%eax
    83b8:	74 1b                	je     83d5 <portrng_alloc+0x75>
    83ba:	66 3b 70 08          	cmp    0x8(%eax),%si
    83be:	75 0e                	jne    83ce <portrng_alloc+0x6e>
    83c0:	eb 6e                	jmp    8430 <portrng_alloc+0xd0>
    83c2:	8d b6 00 00 00 00    	lea    0x0(%esi),%esi
    83c8:	66 3b 78 08          	cmp    0x8(%eax),%di
    83cc:	74 62                	je     8430 <portrng_alloc+0xd0>
    83ce:	8b 40 04             	mov    0x4(%eax),%eax
    83d1:	39 d8                	cmp    %ebx,%eax
    83d3:	75 f3                	jne    83c8 <portrng_alloc+0x68>
    83d5:	50                   	push   %eax
    83d6:	50                   	push   %eax
    83d7:	6a 10                	push   $0x10
    83d9:	6a 01                	push   $0x1
    83db:	e8 60 24 00 00       	call   a840 <calloc@plt>
    83e0:	83 c4 10             	add    $0x10,%esp
    83e3:	85 c0                	test   %eax,%eax
    83e5:	0f 84 e0 00 00 00    	je     84cb <portrng_alloc+0x16b>
    83eb:	8b 55 10             	mov    0x10(%ebp),%edx
    83ee:	66 89 78 08          	mov    %di,0x8(%eax)
    83f2:	89 50 0c             	mov    %edx,0xc(%eax)
    83f5:	8b 13                	mov    (%ebx),%edx
    83f7:	89 58 04             	mov    %ebx,0x4(%eax)
    83fa:	89 10                	mov    %edx,(%eax)
    83fc:	89 42 04             	mov    %eax,0x4(%edx)
    83ff:	89 03                	mov    %eax,(%ebx)
    8401:	8b 45 18             	mov    0x18(%ebp),%eax
    8404:	66 89 38             	mov    %di,(%eax)
    8407:	81 e7 ff ff 00 00    	and    $0xffff,%edi
    840d:	57                   	push   %edi
    840e:	68 d4 a4 00 00       	push   $0xa4d4
    8413:	6a 05                	push   $0x5
    8415:	6a ff                	push   $0xffffffff
    8417:	e8 b4 23 00 00       	call   a7d0 <log_msg@plt>
    841c:	83 c4 10             	add    $0x10,%esp
    841f:	8d 65 f4             	lea    -0xc(%ebp),%esp
    8422:	31 c0                	xor    %eax,%eax
    8424:	5b                   	pop    %ebx
    8425:	5e                   	pop    %esi
    8426:	5f                   	pop    %edi
    8427:	5d                   	pop    %ebp
    8428:	c3                   	ret    
    8429:	8d b4 26 00 00 00 00 	lea    0x0(%esi,%eiz,1),%esi
    8430:	52                   	push   %edx
    8431:	68 96 a4 00 00       	push   $0xa496
    8436:	6a 05                	push   $0x5
    8438:	6a ff                	push   $0xffffffff
    843a:	e8 91 23 00 00       	call   a7d0 <log_msg@plt>
    843f:	83 c4 10             	add    $0x10,%esp
    8442:	b8 f7 ff ff ff       	mov    $0xfffffff7,%eax
    8447:	8d 65 f4             	lea    -0xc(%ebp),%esp
    844a:	5b                   	pop    %ebx
    844b:	5e                   	pop    %esi
    844c:	5f                   	pop    %edi
    844d:	5d                   	pop    %ebp
    844e:	c3                   	ret    
    844f:	be 00 c0 00 00       	mov    $0xc000,%esi
    8454:	56                   	push   %esi
    8455:	68 54 a4 00 00       	push   $0xa454
    845a:	6a 05                	push   $0x5
    845c:	6a ff                	push   $0xffffffff
    845e:	e8 6d 23 00 00       	call   a7d0 <log_msg@plt>
    8463:	8b 43 04             	mov    0x4(%ebx),%eax
    8466:	83 c4 10             	add    $0x10,%esp
    8469:	39 c3                	cmp    %eax,%ebx
    846b:	75 0a                	jne    8477 <portrng_alloc+0x117>
    846d:	eb 21                	jmp    8490 <portrng_alloc+0x130>
    846f:	90                   	nop
    8470:	8b 40 04             	mov    0x4(%eax),%eax
    8473:	39 c3                	cmp    %eax,%ebx
    8475:	74 19                	je     8490 <portrng_alloc+0x130>
    8477:	66 83 78 08 00       	cmpw   $0x0,0x8(%eax)
    847c:	75 f2                	jne    8470 <portrng_alloc+0x110>
    847e:	46                   	inc    %esi
    847f:	81 fe 00 00 01 00    	cmp    $0x10000,%esi
    8485:	75 cd                	jne    8454 <portrng_alloc+0xf4>
    8487:	83 c8 ff             	or     $0xffffffff,%eax
    848a:	eb bb                	jmp    8447 <portrng_alloc+0xe7>
    848c:	8d 74 26 00          	lea    0x0(%esi,%eiz,1),%esi
    8490:	89 f7                	mov    %esi,%edi
    8492:	81 e6 ff ff 00 00    	and    $0xffff,%esi
    8498:	56                   	push   %esi
    8499:	68 5e a4 00 00       	push   $0xa45e
    849e:	6a 05                	push   $0x5
    84a0:	6a ff                	push   $0xffffffff
    84a2:	e8 29 23 00 00       	call   a7d0 <log_msg@plt>
    84a7:	83 c4 10             	add    $0x10,%esp
    84aa:	e9 26 ff ff ff       	jmp    83d5 <portrng_alloc+0x75>
    84af:	51                   	push   %ecx
    84b0:	68 7e a4 00 00       	push   $0xa47e
    84b5:	6a 05                	push   $0x5
    84b7:	6a ff                	push   $0xffffffff
    84b9:	e8 12 23 00 00       	call   a7d0 <log_msg@plt>
    84be:	83 c4 10             	add    $0x10,%esp
    84c1:	b8 f2 ff ff ff       	mov    $0xfffffff2,%eax
    84c6:	e9 7c ff ff ff       	jmp    8447 <portrng_alloc+0xe7>
    84cb:	b8 fe ff ff ff       	mov    $0xfffffffe,%eax
    84d0:	e9 72 ff ff ff       	jmp    8447 <portrng_alloc+0xe7>
    84d5:	8d 74 26 00          	lea    0x0(%esi,%eiz,1),%esi
    84d9:	8d bc 27 00 00 00 00 	lea    0x0(%edi,%eiz,1),%edi

000084e0 <portrng_find_port>:
    84e0:	55                   	push   %ebp
    84e1:	89 e5                	mov    %esp,%ebp
    84e3:	53                   	push   %ebx
    84e4:	8b 55 08             	mov    0x8(%ebp),%edx
    84e7:	8b 5d 0c             	mov    0xc(%ebp),%ebx
    84ea:	8b 42 04             	mov    0x4(%edx),%eax
    84ed:	39 d0                	cmp    %edx,%eax
    84ef:	74 1c                	je     850d <portrng_find_port+0x2d>
    84f1:	66 3b 58 08          	cmp    0x8(%eax),%bx
    84f5:	89 d9                	mov    %ebx,%ecx
    84f7:	75 0d                	jne    8506 <portrng_find_port+0x26>
    84f9:	eb 1d                	jmp    8518 <portrng_find_port+0x38>
    84fb:	90                   	nop
    84fc:	8d 74 26 00          	lea    0x0(%esi,%eiz,1),%esi
    8500:	66 39 48 08          	cmp    %cx,0x8(%eax)
    8504:	74 12                	je     8518 <portrng_find_port+0x38>
    8506:	8b 40 04             	mov    0x4(%eax),%eax
    8509:	39 d0                	cmp    %edx,%eax
    850b:	75 f3                	jne    8500 <portrng_find_port+0x20>
    850d:	83 c8 ff             	or     $0xffffffff,%eax
    8510:	5b                   	pop    %ebx
    8511:	5d                   	pop    %ebp
    8512:	c3                   	ret    
    8513:	90                   	nop
    8514:	8d 74 26 00          	lea    0x0(%esi,%eiz,1),%esi
    8518:	8b 50 0c             	mov    0xc(%eax),%edx
    851b:	8b 45 10             	mov    0x10(%ebp),%eax
    851e:	89 10                	mov    %edx,(%eax)
    8520:	31 c0                	xor    %eax,%eax
    8522:	5b                   	pop    %ebx
    8523:	5d                   	pop    %ebp
    8524:	c3                   	ret    
    8525:	8d 74 26 00          	lea    0x0(%esi,%eiz,1),%esi
    8529:	8d bc 27 00 00 00 00 	lea    0x0(%edi,%eiz,1),%edi

00008530 <portrng_free_port>:
    8530:	55                   	push   %ebp
    8531:	89 e5                	mov    %esp,%ebp
    8533:	57                   	push   %edi
    8534:	56                   	push   %esi
    8535:	53                   	push   %ebx
    8536:	83 ec 10             	sub    $0x10,%esp
    8539:	8b 5d 08             	mov    0x8(%ebp),%ebx
    853c:	8b 7d 0c             	mov    0xc(%ebp),%edi
    853f:	68 a8 a4 00 00       	push   $0xa4a8
    8544:	6a 05                	push   $0x5
    8546:	6a ff                	push   $0xffffffff
    8548:	e8 83 22 00 00       	call   a7d0 <log_msg@plt>
    854d:	8b 43 04             	mov    0x4(%ebx),%eax
    8550:	83 c4 10             	add    $0x10,%esp
    8553:	39 d8                	cmp    %ebx,%eax
    8555:	74 1e                	je     8575 <portrng_free_port+0x45>
    8557:	66 3b 78 08          	cmp    0x8(%eax),%di
    855b:	89 fe                	mov    %edi,%esi
    855d:	75 0f                	jne    856e <portrng_free_port+0x3e>
    855f:	eb 2f                	jmp    8590 <portrng_free_port+0x60>
    8561:	8d b4 26 00 00 00 00 	lea    0x0(%esi,%eiz,1),%esi
    8568:	66 39 70 08          	cmp    %si,0x8(%eax)
    856c:	74 22                	je     8590 <portrng_free_port+0x60>
    856e:	8b 40 04             	mov    0x4(%eax),%eax
    8571:	39 d8                	cmp    %ebx,%eax
    8573:	75 f3                	jne    8568 <portrng_free_port+0x38>
    8575:	50                   	push   %eax
    8576:	68 c1 00 00 00       	push   $0xc1
    857b:	68 18 a4 00 00       	push   $0xa418
    8580:	68 d3 8b 00 00       	push   $0x8bd3
    8585:	e8 a6 22 00 00       	call   a830 <assert_abort@plt>
    858a:	8d b6 00 00 00 00    	lea    0x0(%esi),%esi
    8590:	8b 08                	mov    (%eax),%ecx
    8592:	85 c9                	test   %ecx,%ecx
    8594:	74 0e                	je     85a4 <portrng_free_port+0x74>
    8596:	8b 50 04             	mov    0x4(%eax),%edx
    8599:	85 d2                	test   %edx,%edx
    859b:	74 07                	je     85a4 <portrng_free_port+0x74>
    859d:	89 0a                	mov    %ecx,(%edx)
    859f:	8b 08                	mov    (%eax),%ecx
    85a1:	89 51 04             	mov    %edx,0x4(%ecx)
    85a4:	c7 00 00 00 00 00    	movl   $0x0,(%eax)
    85aa:	c7 40 04 00 00 00 00 	movl   $0x0,0x4(%eax)
    85b1:	89 45 08             	mov    %eax,0x8(%ebp)
    85b4:	8d 65 f4             	lea    -0xc(%ebp),%esp
    85b7:	5b                   	pop    %ebx
    85b8:	5e                   	pop    %esi
    85b9:	5f                   	pop    %edi
    85ba:	5d                   	pop    %ebp
    85bb:	e9 90 24 00 00       	jmp    aa50 <free@plt>

000085c0 <portrng_empty>:
    85c0:	55                   	push   %ebp
    85c1:	89 e5                	mov    %esp,%ebp
    85c3:	53                   	push   %ebx
    85c4:	83 ec 08             	sub    $0x8,%esp
    85c7:	8b 5d 08             	mov    0x8(%ebp),%ebx
    85ca:	68 c4 a4 00 00       	push   $0xa4c4
    85cf:	6a 05                	push   $0x5
    85d1:	6a ff                	push   $0xffffffff
    85d3:	e8 f8 21 00 00       	call   a7d0 <log_msg@plt>
    85d8:	83 c4 10             	add    $0x10,%esp
    85db:	39 5b 04             	cmp    %ebx,0x4(%ebx)
    85de:	8b 5d fc             	mov    -0x4(%ebp),%ebx
    85e1:	c9                   	leave  
    85e2:	0f 94 c0             	sete   %al
    85e5:	c3                   	ret    
    85e6:	66 90                	xchg   %ax,%ax
    85e8:	74 63                	je     864d <portrng_empty+0x8d>
    85ea:	70 5f                	jo     864b <portrng_empty+0x8b>
    85ec:	63 6f 6e             	arpl   %bp,0x6e(%edi)
    85ef:	6e                   	outsb  %ds:(%esi),(%dx)
    85f0:	5f                   	pop    %edi
    85f1:	73 65                	jae    8658 <portrng_empty+0x98>
    85f3:	67 5f                	addr16 pop %edi
    85f5:	70 72                	jo     8669 <portrng_empty+0xa9>
    85f7:	6f                   	outsl  %ds:(%esi),(%dx)
    85f8:	63 5f 61             	arpl   %bx,0x61(%edi)
    85fb:	63 6b 5f             	arpl   %bp,0x5f(%ebx)
    85fe:	65 73 74             	gs jae 8675 <portrng_empty+0xb5>
    8601:	28 25 70 2c 20 25    	sub    %ah,0x25202c70
    8607:	70 29                	jo     8632 <portrng_empty+0x72>
    8609:	00 00                	add    %al,(%eax)
    860b:	00 53 45             	add    %dl,0x45(%ebx)
    860e:	47                   	inc    %edi
    860f:	2e 41                	cs inc %ecx
    8611:	43                   	inc    %ebx
    8612:	4b                   	dec    %ebx
    8613:	3d 25 75 2c 20       	cmp    $0x202c7525,%eax
    8618:	53                   	push   %ebx
    8619:	4e                   	dec    %esi
    861a:	44                   	inc    %esp
    861b:	2e 55                	cs push %ebp
    861d:	4e                   	dec    %esi
    861e:	41                   	inc    %ecx
    861f:	3d 25 75 2c 20       	cmp    $0x202c7525,%eax
    8624:	53                   	push   %ebx
    8625:	4e                   	dec    %esi
    8626:	44                   	inc    %esp
    8627:	2e 4e                	cs dec %esi
    8629:	58                   	pop    %eax
    862a:	54                   	push   %esp
    862b:	3d 25 75 00 00       	cmp    $0x7525,%eax
    8630:	4e                   	dec    %esi
    8631:	6f                   	outsl  %ds:(%esi),(%dx)
    8632:	74 20                	je     8654 <portrng_empty+0x94>
    8634:	61                   	popa   
    8635:	63 63 65             	arpl   %sp,0x65(%ebx)
    8638:	70 74                	jo     86ae <portrng_empty+0xee>
    863a:	61                   	popa   
    863b:	62 6c 65 2c          	bound  %ebp,0x2c(%ebp,%eiz,2)
    863f:	20 6e 6f             	and    %ch,0x6f(%esi)
    8642:	74 20                	je     8664 <portrng_empty+0xa4>
    8644:	64 75 70             	fs jne 86b7 <portrng_empty+0xf7>
    8647:	6c                   	insb   (%dx),%es:(%edi)
    8648:	69 63 61 74 65 2e 20 	imul   $0x202e6574,0x61(%ebx),%esp
    864f:	53                   	push   %ebx
    8650:	65 6e                	outsb  %gs:(%esi),(%dx)
    8652:	64 20 41 43          	and    %al,%fs:0x43(%ecx)
    8656:	4b                   	dec    %ebx
    8657:	20 61 6e             	and    %ah,0x6e(%ecx)
    865a:	64 20 64 72 6f       	and    %ah,%fs:0x6f(%edx,%esi,2)
    865f:	70 2e                	jo     868f <portrng_empty+0xcf>
    8661:	00 00                	add    %al,(%eax)
    8663:	00 55 70             	add    %dl,0x70(%ebp)
    8666:	64 61                	fs popa 
    8668:	74 69                	je     86d3 <portrng_empty+0x113>
    866a:	6e                   	outsb  %ds:(%esi),(%dx)
    866b:	67 20 73 65          	and    %dh,0x65(%bp,%di)
    866f:	6e                   	outsb  %ds:(%esi),(%dx)
    8670:	64 20 77 69          	and    %dh,%fs:0x69(%edi)
    8674:	6e                   	outsb  %ds:(%esi),(%dx)
    8675:	64 6f                	outsl  %fs:(%esi),(%dx)
    8677:	77 2c                	ja     86a5 <portrng_empty+0xe5>
    8679:	20 53 4e             	and    %dl,0x4e(%ebx)
    867c:	44                   	inc    %esp
    867d:	2e 57                	cs push %edi
    867f:	4e                   	dec    %esi
    8680:	44                   	inc    %esp
    8681:	3d 25 75 2c 20       	cmp    $0x202c7525,%eax
    8686:	53                   	push   %ebx
    8687:	4e                   	dec    %esi
    8688:	44                   	inc    %esp
    8689:	2e 57                	cs push %edi
    868b:	4c                   	dec    %esp
    868c:	31 3d 25 75 2c 20    	xor    %edi,0x202c7525
    8692:	53                   	push   %ebx
    8693:	4e                   	dec    %esi
    8694:	44                   	inc    %esp
    8695:	2e 57                	cs push %edi
    8697:	4c                   	dec    %esp
    8698:	32 3d 25 75 00 00    	xor    0x7525,%bh
    869e:	00 00                	add    %al,(%eax)
    86a0:	74 63                	je     8705 <portrng_empty+0x145>
    86a2:	70 5f                	jo     8703 <portrng_empty+0x143>
    86a4:	63 6f 6e             	arpl   %bp,0x6e(%edi)
    86a7:	6e                   	outsb  %ds:(%esi),(%dx)
    86a8:	5f                   	pop    %edi
    86a9:	73 74                	jae    871f <portrng_empty+0x15f>
    86ab:	61                   	popa   
    86ac:	74 65                	je     8713 <portrng_empty+0x153>
    86ae:	5f                   	pop    %edi
    86af:	73 65                	jae    8716 <portrng_empty+0x156>
    86b1:	74 28                	je     86db <portrng_empty+0x11b>
    86b3:	29 20                	sub    %esp,(%eax)
    86b5:	2d 20 72 75 6e       	sub    $0x6e757220,%eax
    86ba:	20 75 73             	and    %dh,0x73(%ebp)
    86bd:	65 72 20             	gs jb  86e0 <portrng_empty+0x120>
    86c0:	43                   	inc    %ebx
    86c1:	42                   	inc    %edx
    86c2:	00 00                	add    %al,(%eax)
    86c4:	74 63                	je     8729 <portrng_empty+0x169>
    86c6:	70 5f                	jo     8727 <portrng_empty+0x167>
    86c8:	63 6f 6e             	arpl   %bp,0x6e(%edi)
    86cb:	6e                   	outsb  %ds:(%esi),(%dx)
    86cc:	5f                   	pop    %edi
    86cd:	73 74                	jae    8743 <portrng_empty+0x183>
    86cf:	61                   	popa   
    86d0:	74 65                	je     8737 <portrng_empty+0x177>
    86d2:	5f                   	pop    %edi
    86d3:	73 65                	jae    873a <portrng_empty+0x17a>
    86d5:	74 28                	je     86ff <portrng_empty+0x13f>
    86d7:	29 20                	sub    %esp,(%eax)
    86d9:	2d 20 6e 6f 20       	sub    $0x206f6e20,%eax
    86de:	75 73                	jne    8753 <portrng_empty+0x193>
    86e0:	65 72 20             	gs jb  8703 <portrng_empty+0x143>
    86e3:	43                   	inc    %ebx
    86e4:	42                   	inc    %edx
    86e5:	00 00                	add    %al,(%eax)
    86e7:	00 25 73 3a 20 74    	add    %ah,0x74203a73
    86ed:	63 70 5f             	arpl   %si,0x5f(%eax)
    86f0:	63 6f 6e             	arpl   %bp,0x6e(%edi)
    86f3:	6e                   	outsb  %ds:(%esi),(%dx)
    86f4:	5f                   	pop    %edi
    86f5:	64 65 6c             	fs gs insb (%dx),%es:(%edi)
    86f8:	72 65                	jb     875f <portrng_empty+0x19f>
    86fa:	66 28 25 70 29 20 62 	data16 sub %ah,0x62202970
    8701:	65 66 6f             	outsw  %gs:(%esi),(%dx)
    8704:	72 65                	jb     876b <portrng_empty+0x1ab>
    8706:	3d 25 7a 75 00       	cmp    $0x757a25,%eax
    870b:	00 25 73 3a 20 74    	add    %ah,0x74203a73
    8711:	63 70 5f             	arpl   %si,0x5f(%eax)
    8714:	63 6f 6e             	arpl   %bp,0x6e(%edi)
    8717:	6e                   	outsb  %ds:(%esi),(%dx)
    8718:	5f                   	pop    %edi
    8719:	61                   	popa   
    871a:	64 64 72 65          	fs fs jb 8783 <portrng_empty+0x1c3>
    871e:	66 28 25 70 29 20 62 	data16 sub %ah,0x62202970
    8725:	65 66 6f             	outsw  %gs:(%esi),(%dx)
    8728:	72 65                	jb     878f <portrng_empty+0x1cf>
    872a:	3d 25 7a 75 00       	cmp    $0x757a25,%eax
    872f:	00 74 63 70          	add    %dh,0x70(%ebx,%eiz,2)
    8733:	5f                   	pop    %edi
    8734:	63 6f 6e             	arpl   %bp,0x6e(%edi)
    8737:	6e                   	outsb  %ds:(%esi),(%dx)
    8738:	5f                   	pop    %edi
    8739:	66 69 6e 64 5f 72    	imul   $0x725f,0x64(%esi),%bp
    873f:	65 66 3a 20          	data16 cmp %gs:(%eax),%ah
    8743:	67 6f                	outsl  %ds:(%si),(%dx)
    8745:	74 20                	je     8767 <portrng_empty+0x1a7>
    8747:	63 6f 6e             	arpl   %bp,0x6e(%edi)
    874a:	6e                   	outsb  %ds:(%esi),(%dx)
    874b:	3d 25 70 00 00       	cmp    $0x7025,%eax
    8750:	74 63                	je     87b5 <portrng_empty+0x1f5>
    8752:	70 5f                	jo     87b3 <portrng_empty+0x1f3>
    8754:	63 6f 6e             	arpl   %bp,0x6e(%edi)
    8757:	6e                   	outsb  %ds:(%esi),(%dx)
    8758:	5f                   	pop    %edi
    8759:	74 77                	je     87d2 <portrng_empty+0x212>
    875b:	5f                   	pop    %edi
    875c:	74 69                	je     87c7 <portrng_empty+0x207>
    875e:	6d                   	insl   (%dx),%es:(%edi)
    875f:	65 72 5f             	gs jb  87c1 <portrng_empty+0x201>
    8762:	63 6c 65 61          	arpl   %bp,0x61(%ebp,%eiz,2)
    8766:	72 28                	jb     8790 <portrng_empty+0x1d0>
    8768:	29 20                	sub    %esp,(%eax)
    876a:	62 65 67             	bound  %esp,0x67(%ebp)
    876d:	69 6e 00 25 73 3a 20 	imul   $0x203a7325,0x0(%esi),%ebp
    8774:	74 63                	je     87d9 <portrng_empty+0x219>
    8776:	70 5f                	jo     87d7 <portrng_empty+0x217>
    8778:	63 6f 6e             	arpl   %bp,0x6e(%edi)
    877b:	6e                   	outsb  %ds:(%esi),(%dx)
    877c:	5f                   	pop    %edi
    877d:	73 65                	jae    87e4 <portrng_empty+0x224>
    877f:	67 6d                	insl   (%dx),%es:(%di)
    8781:	65 6e                	outsb  %gs:(%esi),(%dx)
    8783:	74 5f                	je     87e4 <portrng_empty+0x224>
    8785:	61                   	popa   
    8786:	72 72                	jb     87fa <portrng_empty+0x23a>
    8788:	69 76 65 64 28 25 70 	imul   $0x70252864,0x65(%esi),%esi
    878f:	29 00                	sub    %eax,(%eax)
    8791:	00 00                	add    %al,(%eax)
    8793:	00 74 63 70          	add    %dh,0x70(%ebx,%eiz,2)
    8797:	5f                   	pop    %edi
    8798:	75 6e                	jne    8808 <portrng_empty+0x248>
    879a:	65 78 70             	gs js  880d <portrng_empty+0x24d>
    879d:	65 63 74 65 64       	arpl   %si,%gs:0x64(%ebp,%eiz,2)
    87a2:	5f                   	pop    %edi
    87a3:	73 65                	jae    880a <portrng_empty+0x24a>
    87a5:	67 6d                	insl   (%dx),%es:(%di)
    87a7:	65 6e                	outsb  %gs:(%esi),(%dx)
    87a9:	74 28                	je     87d3 <portrng_empty+0x213>
    87ab:	25 70 2c 20 25       	and    $0x25202c70,%eax
    87b0:	70 29                	jo     87db <portrng_empty+0x21b>
    87b2:	00 00                	add    %al,(%eax)
    87b4:	74 63                	je     8819 <portrng_empty+0x259>
    87b6:	70 5f                	jo     8817 <portrng_empty+0x257>
    87b8:	63 6f 6e             	arpl   %bp,0x6e(%edi)
    87bb:	6e                   	outsb  %ds:(%esi),(%dx)
    87bc:	5f                   	pop    %edi
    87bd:	73 65                	jae    8824 <portrng_empty+0x264>
    87bf:	67 6d                	insl   (%dx),%es:(%di)
    87c1:	65 6e                	outsb  %gs:(%esi),(%dx)
    87c3:	74 5f                	je     8824 <portrng_empty+0x264>
    87c5:	61                   	popa   
    87c6:	72 72                	jb     883a <portrng_empty+0x27a>
    87c8:	69 76 65 64 3a 20 43 	imul   $0x43203a64,0x65(%esi),%esi
    87cf:	68 61 6e 67 69       	push   $0x69676e61
    87d4:	6e                   	outsb  %ds:(%esi),(%dx)
    87d5:	67 20 63 6f          	and    %ah,0x6f(%bp,%di)
    87d9:	6e                   	outsb  %ds:(%esi),(%dx)
    87da:	6e                   	outsb  %ds:(%esi),(%dx)
    87db:	65 63 74 69 6f       	arpl   %si,%gs:0x6f(%ecx,%ebp,2)
    87e0:	6e                   	outsb  %ds:(%esi),(%dx)
    87e1:	20 49 44             	and    %cl,0x44(%ecx)
    87e4:	2c 20                	sub    $0x20,%al
    87e6:	75 70                	jne    8858 <portrng_empty+0x298>
    87e8:	64 61                	fs popa 
    87ea:	74 69                	je     8855 <portrng_empty+0x295>
    87ec:	6e                   	outsb  %ds:(%esi),(%dx)
    87ed:	67 20 61 6d          	and    %ah,0x6d(%bx,%di)
    87f1:	61                   	popa   
    87f2:	70 2e                	jo     8822 <portrng_empty+0x262>
    87f4:	00 00                	add    %al,(%eax)
    87f6:	00 00                	add    %al,(%eax)
    87f8:	49                   	dec    %ecx
    87f9:	6e                   	outsb  %ds:(%esi),(%dx)
    87fa:	63 6f 6d             	arpl   %bp,0x6d(%edi)
    87fd:	69 6e 67 20 41 43 4b 	imul   $0x4b434120,0x67(%esi),%ebp
    8804:	2c 20                	sub    $0x20,%al
    8806:	73 65                	jae    886d <portrng_empty+0x2ad>
    8808:	6e                   	outsb  %ds:(%esi),(%dx)
    8809:	64 20 61 63          	and    %ah,%fs:0x63(%ecx)
    880d:	63 65 70             	arpl   %sp,0x70(%ebp)
    8810:	74 61                	je     8873 <portrng_empty+0x2b3>
    8812:	62 6c 65 20          	bound  %ebp,0x20(%ebp,%eiz,2)
    8816:	52                   	push   %edx
    8817:	53                   	push   %ebx
    8818:	54                   	push   %esp
    8819:	2e 00 00             	add    %al,%cs:(%eax)
    881c:	53                   	push   %ebx
    881d:	59                   	pop    %ecx
    881e:	4e                   	dec    %esi
    881f:	20 6e 6f             	and    %ch,0x6f(%esi)
    8822:	74 20                	je     8844 <portrng_empty+0x284>
    8824:	70 72                	jo     8898 <portrng_empty+0x2d8>
    8826:	65 73 65             	gs jae 888e <portrng_empty+0x2ce>
    8829:	6e                   	outsb  %ds:(%esi),(%dx)
    882a:	74 2e                	je     885a <portrng_empty+0x29a>
    882c:	20 49 67             	and    %cl,0x67(%ecx)
    882f:	6e                   	outsb  %ds:(%esi),(%dx)
    8830:	6f                   	outsl  %ds:(%esi),(%dx)
    8831:	72 69                	jb     889c <portrng_empty+0x2dc>
    8833:	6e                   	outsb  %ds:(%esi),(%dx)
    8834:	67 20 73 65          	and    %dh,0x65(%bp,%di)
    8838:	67 6d                	insl   (%dx),%es:(%di)
    883a:	65 6e                	outsb  %gs:(%esi),(%dx)
    883c:	74 2e                	je     886c <portrng_empty+0x2ac>
    883e:	00 00                	add    %al,(%eax)
    8840:	53                   	push   %ebx
    8841:	59                   	pop    %ecx
    8842:	4e                   	dec    %esi
    8843:	20 63 6f             	and    %ah,0x6f(%ebx)
    8846:	6d                   	insl   (%dx),%es:(%edi)
    8847:	62 69 6e             	bound  %ebp,0x6e(%ecx)
    884a:	65 64 20 77 69       	gs and %dh,%fs:0x69(%edi)
    884f:	74 68                	je     88b9 <portrng_empty+0x2f9>
    8851:	20 64 61 74          	and    %ah,0x74(%ecx,%eiz,2)
    8855:	61                   	popa   
    8856:	2c 20                	sub    $0x20,%al
    8858:	69 67 6e 6f 72 69 6e 	imul   $0x6e69726f,0x6e(%edi),%esp
    885f:	67 20 64 61          	and    %ah,0x61(%si)
    8863:	74 61                	je     88c6 <portrng_empty+0x306>
    8865:	2e 00 00             	add    %al,%cs:(%eax)
    8868:	73 6e                	jae    88d8 <portrng_empty+0x318>
    886a:	64 5f                	fs pop %edi
    886c:	75 6e                	jne    88dc <portrng_empty+0x31c>
    886e:	61                   	popa   
    886f:	3d 25 75 2c 20       	cmp    $0x202c7525,%eax
    8874:	73 65                	jae    88db <portrng_empty+0x31b>
    8876:	67 2e 61             	addr16 cs popa 
    8879:	63 6b 3d             	arpl   %bp,0x3d(%ebx)
    887c:	25 75 2c 20 73       	and    $0x73202c75,%eax
    8881:	6e                   	outsb  %ds:(%esi),(%dx)
    8882:	64 5f                	fs pop %edi
    8884:	6e                   	outsb  %ds:(%esi),(%dx)
    8885:	78 74                	js     88fb <portrng_empty+0x33b>
    8887:	3d 25 75 00 00       	cmp    $0x7525,%eax
    888c:	25 73 3a 20 43       	and    $0x43203a73,%eax
    8891:	6f                   	outsl  %ds:(%esi),(%dx)
    8892:	6e                   	outsb  %ds:(%esi),(%dx)
    8893:	6e                   	outsb  %ds:(%esi),(%dx)
    8894:	65 63 74 69 6f       	arpl   %si,%gs:0x6f(%ecx,%ebp,2)
    8899:	6e                   	outsb  %ds:(%esi),(%dx)
    889a:	20 72 65             	and    %dh,0x65(%edx)
    889d:	73 65                	jae    8904 <portrng_empty+0x344>
    889f:	74 2e                	je     88cf <portrng_empty+0x30f>
    88a1:	20 2d 3e 20 43 6c    	and    %ch,0x6c43203e
    88a7:	6f                   	outsl  %ds:(%esi),(%dx)
    88a8:	73 65                	jae    890f <portrng_empty+0x34f>
    88aa:	64 00 53 4e          	add    %dl,%fs:0x4e(%ebx)
    88ae:	44                   	inc    %esp
    88af:	2e 57                	cs push %edi
    88b1:	4e                   	dec    %esi
    88b2:	44                   	inc    %esp
    88b3:	20 3a                	and    %bh,(%edx)
    88b5:	3d 20 25 75 2c       	cmp    $0x2c752520,%eax
    88ba:	20 53 4e             	and    %dl,0x4e(%ebx)
    88bd:	44                   	inc    %esp
    88be:	2e 57                	cs push %edi
    88c0:	4c                   	dec    %esp
    88c1:	31 20                	xor    %esp,(%eax)
    88c3:	3a 3d 20 25 75 2c    	cmp    0x2c752520,%bh
    88c9:	20 53 4e             	and    %dl,0x4e(%ebx)
    88cc:	44                   	inc    %esp
    88cd:	2e 57                	cs push %edi
    88cf:	4c                   	dec    %esp
    88d0:	32 20                	xor    (%eax),%ah
    88d2:	3d 20 25 75 00       	cmp    $0x752520,%eax
    88d7:	00 25 73 3a 20 73    	add    %ah,0x73203a73
    88dd:	79 6e                	jns    894d <portrng_empty+0x38d>
    88df:	20 6e 6f             	and    %ch,0x6f(%esi)
    88e2:	74 20                	je     8904 <portrng_empty+0x344>
    88e4:	61                   	popa   
    88e5:	63 6b 65             	arpl   %bp,0x65(%ebx)
    88e8:	64 20 2d 3e 20 53 79 	and    %ch,%fs:0x7953203e
    88ef:	6e                   	outsb  %ds:(%esi),(%dx)
    88f0:	2d 52 65 63 65       	sub    $0x65636552,%eax
    88f5:	69 76 65 64 00 00 00 	imul   $0x64,0x65(%esi),%esi
    88fc:	52                   	push   %edx
    88fd:	65 70 6c             	gs jo  896c <portrng_empty+0x3ac>
    8900:	79 69                	jns    896b <portrng_empty+0x3ab>
    8902:	6e                   	outsb  %ds:(%esi),(%dx)
    8903:	67 20 41 43          	and    %al,0x43(%bx,%di)
    8907:	4b                   	dec    %ebx
    8908:	20 74 6f 20          	and    %dh,0x20(%edi,%ebp,2)
    890c:	75 6e                	jne    897c <portrng_empty+0x3bc>
    890e:	61                   	popa   
    890f:	63 63 65             	arpl   %sp,0x65(%ebx)
    8912:	70 74                	jo     8988 <portrng_empty+0x3c8>
    8914:	61                   	popa   
    8915:	62 6c 65 20          	bound  %ebp,0x20(%ebp,%eiz,2)
    8919:	73 65                	jae    8980 <portrng_empty+0x3c0>
    891b:	67 6d                	insl   (%dx),%es:(%di)
    891d:	65 6e                	outsb  %gs:(%esi),(%dx)
    891f:	74 2e                	je     894f <portrng_empty+0x38f>
    8921:	00 00                	add    %al,(%eax)
    8923:	00 73 65             	add    %dh,0x65(%ebx)
    8926:	71 5f                	jno    8987 <portrng_empty+0x3c7>
    8928:	6e                   	outsb  %ds:(%esi),(%dx)
    8929:	6f                   	outsl  %ds:(%esi),(%dx)
    892a:	5f                   	pop    %edi
    892b:	69 6e 5f 72 63 76 5f 	imul   $0x5f766372,0x5f(%esi),%ebp
    8932:	77 6e                	ja     89a2 <portrng_empty+0x3e2>
    8934:	64 28 63 6f          	sub    %ah,%fs:0x6f(%ebx)
    8938:	6e                   	outsb  %ds:(%esi),(%dx)
    8939:	6e                   	outsb  %ds:(%esi),(%dx)
    893a:	2c 20                	sub    $0x20,%al
    893c:	73 65                	jae    89a3 <portrng_empty+0x3e3>
    893e:	67 2d 3e 73 65 71    	addr16 sub $0x7165733e,%eax
    8944:	29 00                	sub    %eax,(%eax)
    8946:	00 00                	add    %al,(%eax)
    8948:	53                   	push   %ebx
    8949:	59                   	pop    %ecx
    894a:	4e                   	dec    %esi
    894b:	20 69 73             	and    %ch,0x73(%ecx)
    894e:	20 69 6e             	and    %ch,0x6e(%ecx)
    8951:	20 72 65             	and    %dh,0x65(%edx)
    8954:	63 65 69             	arpl   %sp,0x69(%ebp)
    8957:	76 65                	jbe    89be <portrng_empty+0x3fe>
    8959:	20 77 69             	and    %dh,0x69(%edi)
    895c:	6e                   	outsb  %ds:(%esi),(%dx)
    895d:	64 6f                	outsl  %fs:(%esi),(%dx)
    895f:	77 2c                	ja     898d <portrng_empty+0x3cd>
    8961:	20 73 68             	and    %dh,0x68(%ebx)
    8964:	6f                   	outsl  %ds:(%esi),(%dx)
    8965:	75 6c                	jne    89d3 <portrng_empty+0x413>
    8967:	64 20 73 65          	and    %dh,%fs:0x65(%ebx)
    896b:	6e                   	outsb  %ds:(%esi),(%dx)
    896c:	64 20 72 65          	and    %dh,%fs:0x65(%edx)
    8970:	73 65                	jae    89d7 <portrng_empty+0x417>
    8972:	74 2e                	je     89a2 <portrng_empty+0x3e2>
    8974:	20 58 58             	and    %bl,0x58(%eax)
    8977:	58                   	pop    %eax
    8978:	00 00                	add    %al,(%eax)
    897a:	00 00                	add    %al,(%eax)
    897c:	53                   	push   %ebx
    897d:	65 67 6d             	gs insl (%dx),%es:(%di)
    8980:	65 6e                	outsb  %gs:(%esi),(%dx)
    8982:	74 20                	je     89a4 <portrng_empty+0x3e4>
    8984:	41                   	inc    %ecx
    8985:	43                   	inc    %ebx
    8986:	4b                   	dec    %ebx
    8987:	20 6e 6f             	and    %ch,0x6f(%esi)
    898a:	74 20                	je     89ac <portrng_empty+0x3ec>
    898c:	61                   	popa   
    898d:	63 63 65             	arpl   %sp,0x65(%ebx)
    8990:	70 74                	jo     8a06 <portrng_empty+0x446>
    8992:	61                   	popa   
    8993:	62 6c 65 2c          	bound  %ebp,0x2c(%ebp,%eiz,2)
    8997:	20 73 65             	and    %dh,0x65(%ebx)
    899a:	6e                   	outsb  %ds:(%esi),(%dx)
    899b:	64 69 6e 67 20 52 53 	imul   $0x54535220,%fs:0x67(%esi),%ebp
    89a2:	54 
    89a3:	2e 00 00             	add    %al,%cs:(%eax)
    89a6:	00 00                	add    %al,(%eax)
    89a8:	25 73 3a 20 74       	and    $0x74203a73,%eax
    89ad:	63 70 5f             	arpl   %si,0x5f(%eax)
    89b0:	63 6f 6e             	arpl   %bp,0x6e(%edi)
    89b3:	6e                   	outsb  %ds:(%esi),(%dx)
    89b4:	5f                   	pop    %edi
    89b5:	73 65                	jae    8a1c <portrng_empty+0x45c>
    89b7:	67 5f                	addr16 pop %edi
    89b9:	70 72                	jo     8a2d <portrng_empty+0x46d>
    89bb:	6f                   	outsl  %ds:(%esi),(%dx)
    89bc:	63 5f 74             	arpl   %bx,0x74(%edi)
    89bf:	65 78 74             	gs js  8a36 <portrng_empty+0x476>
    89c2:	28 25 70 2c 20 25    	sub    %ah,0x25202c70
    89c8:	70 29                	jo     89f3 <portrng_empty+0x433>
    89ca:	00 00                	add    %al,(%eax)
    89cc:	73 65                	jae    8a33 <portrng_empty+0x473>
    89ce:	71 5f                	jno    8a2f <portrng_empty+0x46f>
    89d0:	6e                   	outsb  %ds:(%esi),(%dx)
    89d1:	6f                   	outsl  %ds:(%esi),(%dx)
    89d2:	5f                   	pop    %edi
    89d3:	73 65                	jae    8a3a <portrng_empty+0x47a>
    89d5:	67 6d                	insl   (%dx),%es:(%di)
    89d7:	65 6e                	outsb  %gs:(%esi),(%dx)
    89d9:	74 5f                	je     8a3a <portrng_empty+0x47a>
    89db:	72 65                	jb     8a42 <portrng_empty+0x482>
    89dd:	61                   	popa   
    89de:	64 79 28             	fs jns 8a09 <portrng_empty+0x449>
    89e1:	63 6f 6e             	arpl   %bp,0x6e(%edi)
    89e4:	6e                   	outsb  %ds:(%esi),(%dx)
    89e5:	2c 20                	sub    $0x20,%al
    89e7:	73 65                	jae    8a4e <portrng_empty+0x48e>
    89e9:	67 29 00             	sub    %eax,(%bx,%si)
    89ec:	25 73 3a 20 4e       	and    $0x4e203a73,%eax
    89f1:	6f                   	outsl  %ds:(%esi),(%dx)
    89f2:	74 68                	je     8a5c <portrng_empty+0x49c>
    89f4:	69 6e 67 20 6c 65 66 	imul   $0x66656c20,0x67(%esi),%ebp
    89fb:	74 20                	je     8a1d <portrng_empty+0x45d>
    89fd:	69 6e 20 73 65 67 6d 	imul   $0x6d676573,0x20(%esi),%ebp
    8a04:	65 6e                	outsb  %gs:(%esi),(%dx)
    8a06:	74 2c                	je     8a34 <portrng_empty+0x474>
    8a08:	20 64 72 6f          	and    %ah,0x6f(%edx,%esi,2)
    8a0c:	70 70                	jo     8a7e <portrng_empty+0x4be>
    8a0e:	69 6e 67 20 28 78 66 	imul   $0x66782820,0x67(%esi),%ebp
    8a15:	65 72 5f             	gs jb  8a77 <portrng_empty+0x4b7>
    8a18:	73 69                	jae    8a83 <portrng_empty+0x4c3>
    8a1a:	7a 65                	jp     8a81 <portrng_empty+0x4c1>
    8a1c:	3d 25 7a 75 2c       	cmp    $0x2c757a25,%eax
    8a21:	20 53 45             	and    %dl,0x45(%ebx)
    8a24:	47                   	inc    %edi
    8a25:	2e 4c                	cs dec %esp
    8a27:	45                   	inc    %ebp
    8a28:	4e                   	dec    %esi
    8a29:	3d 25 75 2c 20       	cmp    $0x202c7525,%eax
    8a2e:	73 65                	jae    8a95 <portrng_empty+0x4d5>
    8a30:	67 2d 3e 63 74 72    	addr16 sub $0x7274633e,%eax
    8a36:	6c                   	insb   (%dx),%es:(%edi)
    8a37:	3d 25 75 29 00       	cmp    $0x297525,%eax
    8a3c:	25 73 3a 20 46       	and    $0x46203a73,%eax
    8a41:	49                   	dec    %ecx
    8a42:	4e                   	dec    %esi
    8a43:	20 72 65             	and    %dh,0x65(%edx)
    8a46:	63 65 69             	arpl   %sp,0x69(%ebp)
    8a49:	76 65                	jbe    8ab0 <portrng_empty+0x4f0>
    8a4b:	64 20 2d 3e 20 43 6c 	and    %ch,%fs:0x6c43203e
    8a52:	6f                   	outsl  %ds:(%esi),(%dx)
    8a53:	73 65                	jae    8aba <portrng_empty+0x4fa>
    8a55:	2d 57 61 69 74       	sub    $0x74696157,%eax
    8a5a:	00 00                	add    %al,(%eax)
    8a5c:	52                   	push   %edx
    8a5d:	65 2d 69 6e 73 65    	gs sub $0x65736e69,%eax
    8a63:	72 74                	jb     8ad9 <portrng_empty+0x519>
    8a65:	20 73 65             	and    %dh,0x65(%ebx)
    8a68:	67 6d                	insl   (%dx),%es:(%di)
    8a6a:	65 6e                	outsb  %gs:(%esi),(%dx)
    8a6c:	74 20                	je     8a8e <portrng_empty+0x4ce>
    8a6e:	25 70 2e 20 73       	and    $0x73202e70,%eax
    8a73:	65 67 2d 3e 6c 65 6e 	gs addr16 sub $0x6e656c3e,%eax
    8a7a:	3d 25 7a 75 00       	cmp    $0x757a25,%eax
    8a7f:	00 25 73 3a 20 74    	add    %ah,0x74203a73
    8a85:	63 70 5f             	arpl   %si,0x5f(%eax)
    8a88:	63 6f 6e             	arpl   %bp,0x6e(%edi)
    8a8b:	6e                   	outsb  %ds:(%esi),(%dx)
    8a8c:	5f                   	pop    %edi
    8a8d:	73 65                	jae    8af4 <portrng_empty+0x534>
    8a8f:	67 5f                	addr16 pop %edi
    8a91:	70 72                	jo     8b05 <portrng_empty+0x545>
    8a93:	6f                   	outsl  %ds:(%esi),(%dx)
    8a94:	63 5f 61             	arpl   %bx,0x61(%edi)
    8a97:	63 6b 28             	arpl   %bp,0x28(%ebx)
    8a9a:	25 70 2c 20 25       	and    $0x25202c70,%eax
    8a9f:	70 29                	jo     8aca <portrng_empty+0x50a>
    8aa1:	00 00                	add    %al,(%eax)
    8aa3:	00 25 73 3a 20 74    	add    %ah,0x74203a73
    8aa9:	63 70 5f             	arpl   %si,0x5f(%eax)
    8aac:	63 6f 6e             	arpl   %bp,0x6e(%edi)
    8aaf:	6e                   	outsb  %ds:(%esi),(%dx)
    8ab0:	5f                   	pop    %edi
    8ab1:	73 65                	jae    8b18 <portrng_empty+0x558>
    8ab3:	67 5f                	addr16 pop %edi
    8ab5:	70 72                	jo     8b29 <portrng_empty+0x569>
    8ab7:	6f                   	outsl  %ds:(%esi),(%dx)
    8ab8:	63 5f 66             	arpl   %bx,0x66(%edi)
    8abb:	69 6e 28 25 70 2c 20 	imul   $0x202c7025,0x28(%esi),%ebp
    8ac2:	25 70 29 00 41       	and    $0x41002970,%eax
    8ac7:	43                   	inc    %ebx
    8ac8:	4b                   	dec    %ebx
    8ac9:	20 6e 6f             	and    %ch,0x6f(%esi)
    8acc:	74 20                	je     8aee <portrng_empty+0x52e>
    8ace:	61                   	popa   
    8acf:	63 63 65             	arpl   %sp,0x65(%ebx)
    8ad2:	70 74                	jo     8b48 <portrng_empty+0x588>
    8ad4:	61                   	popa   
    8ad5:	62 6c 65 2e          	bound  %ebp,0x2e(%ebp,%eiz,2)
    8ad9:	00 49 67             	add    %cl,0x67(%ecx)
    8adc:	6e                   	outsb  %ds:(%esi),(%dx)
    8add:	6f                   	outsl  %ds:(%esi),(%dx)
    8ade:	72 69                	jb     8b49 <portrng_empty+0x589>
    8ae0:	6e                   	outsb  %ds:(%esi),(%dx)
    8ae1:	67 20 64 75          	and    %ah,0x75(%si)
    8ae5:	70 6c                	jo     8b53 <portrng_empty+0x593>
    8ae7:	69 63 61 74 65 20 41 	imul   $0x41206574,0x61(%ebx),%esp
    8aee:	43                   	inc    %ebx
    8aef:	4b                   	dec    %ebx
    8af0:	2e 00 74 63 70       	add    %dh,%cs:0x70(%ebx,%eiz,2)
    8af5:	5f                   	pop    %edi
    8af6:	63 6f 6e             	arpl   %bp,0x6e(%edi)
    8af9:	6e                   	outsb  %ds:(%esi),(%dx)
    8afa:	5f                   	pop    %edi
    8afb:	73 74                	jae    8b71 <portrng_empty+0x5b1>
    8afd:	61                   	popa   
    8afe:	74 65                	je     8b65 <portrng_empty+0x5a5>
    8b00:	5f                   	pop    %edi
    8b01:	73 65                	jae    8b68 <portrng_empty+0x5a8>
    8b03:	74 28                	je     8b2d <portrng_empty+0x56d>
    8b05:	25 70 29 00 63       	and    $0x63002970,%eax
    8b0a:	6f                   	outsl  %ds:(%esi),(%dx)
    8b0b:	6e                   	outsb  %ds:(%esi),(%dx)
    8b0c:	6e                   	outsb  %ds:(%esi),(%dx)
    8b0d:	2e 63 00             	arpl   %ax,%cs:(%eax)
    8b10:	6f                   	outsl  %ds:(%esi),(%dx)
    8b11:	6c                   	insb   (%dx),%es:(%edi)
    8b12:	64 5f                	fs pop %edi
    8b14:	73 74                	jae    8b8a <portrng_empty+0x5ca>
    8b16:	61                   	popa   
    8b17:	74 65                	je     8b7e <portrng_empty+0x5be>
    8b19:	20 21                	and    %ah,(%ecx)
    8b1b:	3d 20 73 74 5f       	cmp    $0x5f747320,%eax
    8b20:	63 6c 6f 73          	arpl   %bp,0x73(%edi,%ebp,2)
    8b24:	65 64 00 25 73 3a 20 	gs add %ah,%fs:0x74203a73
    8b2b:	74 
    8b2c:	63 70 5f             	arpl   %si,0x5f(%eax)
    8b2f:	63 6f 6e             	arpl   %bp,0x6e(%edi)
    8b32:	6e                   	outsb  %ds:(%esi),(%dx)
    8b33:	5f                   	pop    %edi
    8b34:	66 72 65             	data16 jb 8b9c <portrng_empty+0x5dc>
    8b37:	65 28 25 70 29 00 74 	sub    %ah,%gs:0x74002970
    8b3e:	77 5f                	ja     8b9f <portrng_empty+0x5df>
    8b40:	74 69                	je     8bab <portrng_empty+0x5eb>
    8b42:	6d                   	insl   (%dx),%es:(%edi)
    8b43:	65 6f                	outsl  %gs:(%esi),(%dx)
    8b45:	75 74                	jne    8bbb <portrng_empty+0x5fb>
    8b47:	5f                   	pop    %edi
    8b48:	66 75 6e             	data16 jne 8bb9 <portrng_empty+0x5f9>
    8b4b:	63 28                	arpl   %bp,(%eax)
    8b4d:	25 70 29 00 43       	and    $0x43002970,%eax
    8b52:	6f                   	outsl  %ds:(%esi),(%dx)
    8b53:	6e                   	outsb  %ds:(%esi),(%dx)
    8b54:	6e                   	outsb  %ds:(%esi),(%dx)
    8b55:	65 63 74 69 6f       	arpl   %si,%gs:0x6f(%ecx,%ebp,2)
    8b5a:	6e                   	outsb  %ds:(%esi),(%dx)
    8b5b:	20 61 6c             	and    %ah,0x6c(%ecx)
    8b5e:	72 65                	jb     8bc5 <portrng_empty+0x605>
    8b60:	61                   	popa   
    8b61:	64 79 20             	fs jns 8b84 <portrng_empty+0x5c4>
    8b64:	63 6c 6f 73          	arpl   %bp,0x73(%edi,%ebp,2)
    8b68:	65 64 2e 00 25 73 3a 	gs fs add %ah,%cs:0x54203a73
    8b6f:	20 54 
    8b71:	57                   	push   %edi
    8b72:	20 54 69 6d          	and    %dl,0x6d(%ecx,%ebp,2)
    8b76:	65 6f                	outsl  %gs:(%esi),(%dx)
    8b78:	75 74                	jne    8bee <portrng_empty+0x62e>
    8b7a:	20 2d 3e 20 43 6c    	and    %ch,0x6c43203e
    8b80:	6f                   	outsl  %ds:(%esi),(%dx)
    8b81:	73 65                	jae    8be8 <portrng_empty+0x628>
    8b83:	64 00 74 77 5f       	add    %dh,%fs:0x5f(%edi,%esi,2)
    8b88:	74 69                	je     8bf3 <portrng_empty+0x633>
    8b8a:	6d                   	insl   (%dx),%es:(%edi)
    8b8b:	65 6f                	outsl  %gs:(%esi),(%dx)
    8b8d:	75 74                	jne    8c03 <portrng_empty+0x643>
    8b8f:	5f                   	pop    %edi
    8b90:	66 75 6e             	data16 jne 8c01 <portrng_empty+0x641>
    8b93:	63 28                	arpl   %bp,(%eax)
    8b95:	25 70 29 20 65       	and    $0x65202970,%eax
    8b9a:	6e                   	outsb  %ds:(%esi),(%dx)
    8b9b:	64 00 72 63          	add    %dh,%fs:0x63(%edx)
    8b9f:	20 3d 3d 20 45 4e    	and    %bh,0x4e45203d
    8ba5:	4f                   	dec    %edi
    8ba6:	4d                   	dec    %ebp
    8ba7:	45                   	inc    %ebp
    8ba8:	4d                   	dec    %ebp
    8ba9:	00 25 73 3a 20 74    	add    %ah,0x74203a73
    8baf:	63 70 5f             	arpl   %si,0x5f(%eax)
    8bb2:	63 6f 6e             	arpl   %bp,0x6e(%edi)
    8bb5:	6e                   	outsb  %ds:(%esi),(%dx)
    8bb6:	5f                   	pop    %edi
    8bb7:	64 65 6c             	fs gs insb (%dx),%es:(%edi)
    8bba:	65 74 65             	gs je  8c22 <portrng_empty+0x662>
    8bbd:	28 25 70 29 00 63    	sub    %ah,0x63002970
    8bc3:	6f                   	outsl  %ds:(%esi),(%dx)
    8bc4:	6e                   	outsb  %ds:(%esi),(%dx)
    8bc5:	6e                   	outsb  %ds:(%esi),(%dx)
    8bc6:	2d 3e 64 65 6c       	sub    $0x6c65643e,%eax
    8bcb:	65 74 65             	gs je  8c33 <portrng_empty+0x673>
    8bce:	64 20 3d 3d 20 66 61 	and    %bh,%fs:0x6166203d
    8bd5:	6c                   	insb   (%dx),%es:(%edi)
    8bd6:	73 65                	jae    8c3d <portrng_empty+0x67d>
    8bd8:	00 74 63 70          	add    %dh,0x70(%ebx,%eiz,2)
    8bdc:	5f                   	pop    %edi
    8bdd:	63 6f 6e             	arpl   %bp,0x6e(%edi)
    8be0:	6e                   	outsb  %ds:(%esi),(%dx)
    8be1:	5f                   	pop    %edi
    8be2:	61                   	popa   
    8be3:	64 64 3a 20          	fs cmp %fs:(%eax),%ah
    8be7:	63 6f 6e             	arpl   %bp,0x6e(%edi)
    8bea:	6e                   	outsb  %ds:(%esi),(%dx)
    8beb:	3d 25 70 00 25       	cmp    $0x25007025,%eax
    8bf0:	73 3a                	jae    8c2c <portrng_empty+0x66c>
    8bf2:	20 46 49             	and    %al,0x49(%esi)
    8bf5:	4e                   	dec    %esi
    8bf6:	20 73 65             	and    %dh,0x65(%ebx)
    8bf9:	6e                   	outsb  %ds:(%esi),(%dx)
    8bfa:	74 20                	je     8c1c <portrng_empty+0x65c>
    8bfc:	2d 3e 20 46 69       	sub    $0x6946203e,%eax
    8c01:	6e                   	outsb  %ds:(%esi),(%dx)
    8c02:	2d 57 61 69 74       	sub    $0x74696157,%eax
    8c07:	2d 31 00 25 73       	sub    $0x73250031,%eax
    8c0c:	3a 20                	cmp    (%eax),%ah
    8c0e:	46                   	inc    %esi
    8c0f:	49                   	dec    %ecx
    8c10:	4e                   	dec    %esi
    8c11:	20 73 65             	and    %dh,0x65(%ebx)
    8c14:	6e                   	outsb  %ds:(%esi),(%dx)
    8c15:	74 20                	je     8c37 <portrng_empty+0x677>
    8c17:	2d 3e 20 4c 61       	sub    $0x614c203e,%eax
    8c1c:	73 74                	jae    8c92 <portrng_empty+0x6d2>
    8c1e:	2d 41 63 6b 00       	sub    $0x6b6341,%eax
    8c23:	25 73 3a 20 43       	and    $0x43203a73,%eax
    8c28:	6f                   	outsl  %ds:(%esi),(%dx)
    8c29:	6e                   	outsb  %ds:(%esi),(%dx)
    8c2a:	6e                   	outsb  %ds:(%esi),(%dx)
    8c2b:	65 63 74 69 6f       	arpl   %si,%gs:0x6f(%ecx,%ebp,2)
    8c30:	6e                   	outsb  %ds:(%esi),(%dx)
    8c31:	20 73 74             	and    %dh,0x74(%ebx)
    8c34:	61                   	popa   
    8c35:	74 65                	je     8c9c <portrng_empty+0x6dc>
    8c37:	20 25 64 00 74 63    	and    %ah,0x63740064
    8c3d:	70 5f                	jo     8c9e <portrng_empty+0x6de>
    8c3f:	63 6f 6e             	arpl   %bp,0x6e(%edi)
    8c42:	6e                   	outsb  %ds:(%esi),(%dx)
    8c43:	5f                   	pop    %edi
    8c44:	66 69 6e 64 5f 72    	imul   $0x725f,0x64(%esi),%bp
    8c4a:	65 66 28 25 70 29 00 	data16 sub %ah,%gs:0x72002970
    8c51:	72 
    8c52:	63 20                	arpl   %sp,(%eax)
    8c54:	3d 3d 20 45 4e       	cmp    $0x4e45203d,%eax
    8c59:	4f                   	dec    %edi
    8c5a:	45                   	inc    %ebp
    8c5b:	4e                   	dec    %esi
    8c5c:	54                   	push   %esp
    8c5d:	00 25 73 3a 20 74    	add    %ah,0x74203a73
    8c63:	63 70 5f             	arpl   %si,0x5f(%eax)
    8c66:	63 6f 6e             	arpl   %bp,0x6e(%edi)
    8c69:	6e                   	outsb  %ds:(%esi),(%dx)
    8c6a:	5f                   	pop    %edi
    8c6b:	72 65                	jb     8cd2 <portrng_empty+0x712>
    8c6d:	73 65                	jae    8cd4 <portrng_empty+0x714>
    8c6f:	74 28                	je     8c99 <portrng_empty+0x6d9>
    8c71:	29 00                	sub    %eax,(%eax)
    8c73:	74 63                	je     8cd8 <portrng_empty+0x718>
    8c75:	70 5f                	jo     8cd6 <portrng_empty+0x716>
    8c77:	63 6f 6e             	arpl   %bp,0x6e(%edi)
    8c7a:	6e                   	outsb  %ds:(%esi),(%dx)
    8c7b:	5f                   	pop    %edi
    8c7c:	74 77                	je     8cf5 <portrng_empty+0x735>
    8c7e:	5f                   	pop    %edi
    8c7f:	74 69                	je     8cea <portrng_empty+0x72a>
    8c81:	6d                   	insl   (%dx),%es:(%edi)
    8c82:	65 72 5f             	gs jb  8ce4 <portrng_empty+0x724>
    8c85:	63 6c 65 61          	arpl   %bp,0x61(%ebp,%eiz,2)
    8c89:	72 28                	jb     8cb3 <portrng_empty+0x6f3>
    8c8b:	29 20                	sub    %esp,(%eax)
    8c8d:	65 6e                	outsb  %gs:(%esi),(%dx)
    8c8f:	64 00 73 74          	add    %dh,%fs:0x74(%ebx)
    8c93:	61                   	popa   
    8c94:	74 65                	je     8cfb <portrng_empty+0x73b>
    8c96:	3d 25 64 00 43       	cmp    $0x43006425,%eax
    8c9b:	6f                   	outsl  %ds:(%esi),(%dx)
    8c9c:	6e                   	outsb  %ds:(%esi),(%dx)
    8c9d:	6e                   	outsb  %ds:(%esi),(%dx)
    8c9e:	65 63 74 69 6f       	arpl   %si,%gs:0x6f(%ecx,%ebp,2)
    8ca3:	6e                   	outsb  %ds:(%esi),(%dx)
    8ca4:	20 69 73             	and    %ch,0x73(%ecx)
    8ca7:	20 63 6c             	and    %ah,0x6c(%ebx)
    8caa:	6f                   	outsl  %ds:(%esi),(%dx)
    8cab:	73 65                	jae    8d12 <portrng_empty+0x752>
    8cad:	64 2e 00 74 63 70    	fs add %dh,%cs:0x70(%ebx,%eiz,2)
    8cb3:	5f                   	pop    %edi
    8cb4:	72 65                	jb     8d1b <portrng_empty+0x75b>
    8cb6:	70 6c                	jo     8d24 <portrng_empty+0x764>
    8cb8:	79 5f                	jns    8d19 <portrng_empty+0x759>
    8cba:	72 73                	jb     8d2f <portrng_empty+0x76f>
    8cbc:	74 28                	je     8ce6 <portrng_empty+0x726>
    8cbe:	25 70 2c 20 25       	and    $0x25202c70,%eax
    8cc3:	70 29                	jo     8cee <portrng_empty+0x72e>
    8cc5:	00 72 63             	add    %dh,0x63(%edx)
    8cc8:	20 21                	and    %ah,(%ecx)
    8cca:	3d 20 45 45 58       	cmp    $0x58454520,%eax
    8ccf:	49                   	dec    %ecx
    8cd0:	53                   	push   %ebx
    8cd1:	54                   	push   %esp
    8cd2:	00 4f 75             	add    %cl,0x75(%edi)
    8cd5:	74 20                	je     8cf7 <portrng_empty+0x737>
    8cd7:	6f                   	outsl  %ds:(%esi),(%dx)
    8cd8:	66 20 6d 65          	data16 and %ch,0x65(%ebp)
    8cdc:	6d                   	insl   (%dx),%es:(%edi)
    8cdd:	6f                   	outsl  %ds:(%esi),(%dx)
    8cde:	72 79                	jb     8d59 <portrng_empty+0x799>
    8ce0:	2e 00 61 00          	add    %ah,%cs:0x0(%ecx)
    8ce4:	74 63                	je     8d49 <portrng_empty+0x789>
    8ce6:	70 5f                	jo     8d47 <portrng_empty+0x787>
    8ce8:	63 6f 6e             	arpl   %bp,0x6e(%edi)
    8ceb:	6e                   	outsb  %ds:(%esi),(%dx)
    8cec:	5f                   	pop    %edi
    8ced:	73 61                	jae    8d50 <portrng_empty+0x790>
    8cef:	5f                   	pop    %edi
    8cf0:	6c                   	insb   (%dx),%es:(%edi)
    8cf1:	69 73 74 65 6e 28 25 	imul   $0x25286e65,0x74(%ebx),%esi
    8cf8:	70 2c                	jo     8d26 <portrng_empty+0x766>
    8cfa:	20 25 70 29 00 49    	and    %ah,0x49002970
    8d00:	67 6e                	outsb  %ds:(%si),(%dx)
    8d02:	6f                   	outsl  %ds:(%esi),(%dx)
    8d03:	72 69                	jb     8d6e <portrng_empty+0x7ae>
    8d05:	6e                   	outsb  %ds:(%esi),(%dx)
    8d06:	67 20 69 6e          	and    %ch,0x6e(%bx,%di)
    8d0a:	63 6f 6d             	arpl   %bp,0x6d(%edi)
    8d0d:	69 6e 67 20 52 53 54 	imul   $0x54535220,0x67(%esi),%ebp
    8d14:	2e 00 47 6f          	add    %al,%cs:0x6f(%edi)
    8d18:	74 20                	je     8d3a <portrng_empty+0x77a>
    8d1a:	53                   	push   %ebx
    8d1b:	59                   	pop    %ecx
    8d1c:	4e                   	dec    %esi
    8d1d:	2c 20                	sub    $0x20,%al
    8d1f:	73 65                	jae    8d86 <portrng_empty+0x7c6>
    8d21:	6e                   	outsb  %ds:(%esi),(%dx)
    8d22:	64 69 6e 67 20 53 59 	imul   $0x4e595320,%fs:0x67(%esi),%ebp
    8d29:	4e 
    8d2a:	2c 20                	sub    $0x20,%al
    8d2c:	41                   	inc    %ecx
    8d2d:	43                   	inc    %ebx
    8d2e:	4b                   	dec    %ebx
    8d2f:	2e 00 72 63          	add    %dh,%cs:0x63(%edx)
    8d33:	76 5f                	jbe    8d94 <portrng_empty+0x7d4>
    8d35:	6e                   	outsb  %ds:(%esi),(%dx)
    8d36:	78 74                	js     8dac <portrng_empty+0x7ec>
    8d38:	3d 25 75 00 74       	cmp    $0x74007525,%eax
    8d3d:	63 70 5f             	arpl   %si,0x5f(%eax)
    8d40:	63 6f 6e             	arpl   %bp,0x6e(%edi)
    8d43:	6e                   	outsb  %ds:(%esi),(%dx)
    8d44:	5f                   	pop    %edi
    8d45:	73 61                	jae    8da8 <portrng_empty+0x7e8>
    8d47:	5f                   	pop    %edi
    8d48:	73 79                	jae    8dc3 <portrng_empty+0x803>
    8d4a:	6e                   	outsb  %ds:(%esi),(%dx)
    8d4b:	5f                   	pop    %edi
    8d4c:	73 65                	jae    8db3 <portrng_empty+0x7f3>
    8d4e:	6e                   	outsb  %ds:(%esi),(%dx)
    8d4f:	74 28                	je     8d79 <portrng_empty+0x7b9>
    8d51:	25 70 2c 20 25       	and    $0x25202c70,%eax
    8d56:	70 29                	jo     8d81 <portrng_empty+0x7c1>
    8d58:	00 41 43             	add    %al,0x43(%ecx)
    8d5b:	4b                   	dec    %ebx
    8d5c:	20 6e 6f             	and    %ch,0x6f(%esi)
    8d5f:	74 20                	je     8d81 <portrng_empty+0x7c1>
    8d61:	61                   	popa   
    8d62:	63 63 65             	arpl   %sp,0x65(%ebx)
    8d65:	70 74                	jo     8ddb <portrng_empty+0x81b>
    8d67:	61                   	popa   
    8d68:	62 6c 65 2c          	bound  %ebp,0x2c(%ebp,%eiz,2)
    8d6c:	20 73 65             	and    %dh,0x65(%ebx)
    8d6f:	6e                   	outsb  %ds:(%esi),(%dx)
    8d70:	64 20 52 53          	and    %dl,%fs:0x53(%edx)
    8d74:	54                   	push   %esp
    8d75:	00 52 53             	add    %dl,0x53(%edx)
    8d78:	54                   	push   %esp
    8d79:	2c 41                	sub    $0x41,%al
    8d7b:	43                   	inc    %ebx
    8d7c:	4b                   	dec    %ebx
    8d7d:	20 6e 6f             	and    %ch,0x6f(%esi)
    8d80:	74 20                	je     8da2 <portrng_empty+0x7e2>
    8d82:	61                   	popa   
    8d83:	63 63 65             	arpl   %sp,0x65(%ebx)
    8d86:	70 74                	jo     8dfc <portrng_empty+0x83c>
    8d88:	61                   	popa   
    8d89:	62 6c 65 2c          	bound  %ebp,0x2c(%ebp,%eiz,2)
    8d8d:	20 64 72 6f          	and    %ah,0x6f(%edx,%esi,2)
    8d91:	70 00                	jo     8d93 <portrng_empty+0x7d3>
    8d93:	25 73 3a 20 52       	and    $0x52203a73,%eax
    8d98:	53                   	push   %ebx
    8d99:	54                   	push   %esp
    8d9a:	20 77 69             	and    %dh,0x69(%edi)
    8d9d:	74 68                	je     8e07 <portrng_empty+0x847>
    8d9f:	6f                   	outsl  %ds:(%esi),(%dx)
    8da0:	75 74                	jne    8e16 <portrng_empty+0x856>
    8da2:	20 41 43             	and    %al,0x43(%ecx)
    8da5:	4b                   	dec    %ebx
    8da6:	2c 20                	sub    $0x20,%al
    8da8:	64 72 6f             	fs jb  8e1a <portrng_empty+0x85a>
    8dab:	70 00                	jo     8dad <portrng_empty+0x7ed>
    8dad:	4e                   	dec    %esi
    8dae:	6f                   	outsl  %ds:(%esi),(%dx)
    8daf:	20 53 59             	and    %dl,0x59(%ebx)
    8db2:	4e                   	dec    %esi
    8db3:	20 62 69             	and    %ah,0x69(%edx)
    8db6:	74 2c                	je     8de4 <portrng_empty+0x824>
    8db8:	20 69 67             	and    %ch,0x67(%ecx)
    8dbb:	6e                   	outsb  %ds:(%esi),(%dx)
    8dbc:	6f                   	outsl  %ds:(%esi),(%dx)
    8dbd:	72 69                	jb     8e28 <portrng_empty+0x868>
    8dbf:	6e                   	outsb  %ds:(%esi),(%dx)
    8dc0:	67 20 73 65          	and    %dh,0x65(%bp,%di)
    8dc4:	67 6d                	insl   (%dx),%es:(%di)
    8dc6:	65 6e                	outsb  %gs:(%esi),(%dx)
    8dc8:	74 2e                	je     8df8 <portrng_empty+0x838>
    8dca:	00 53 65             	add    %dl,0x65(%ebx)
    8dcd:	6e                   	outsb  %ds:(%esi),(%dx)
    8dce:	74 20                	je     8df0 <portrng_empty+0x830>
    8dd0:	53                   	push   %ebx
    8dd1:	59                   	pop    %ecx
    8dd2:	4e                   	dec    %esi
    8dd3:	2c 20                	sub    $0x20,%al
    8dd5:	67 6f                	outsl  %ds:(%si),(%dx)
    8dd7:	74 20                	je     8df9 <portrng_empty+0x839>
    8dd9:	53                   	push   %ebx
    8dda:	59                   	pop    %ecx
    8ddb:	4e                   	dec    %esi
    8ddc:	2e 00 25 73 3a 20 73 	add    %ah,%cs:0x73203a73
    8de3:	79 6e                	jns    8e53 <portrng_empty+0x893>
    8de5:	20 61 63             	and    %ah,0x63(%ecx)
    8de8:	6b 65 64 20          	imul   $0x20,0x64(%ebp),%esp
    8dec:	2d 3e 20 45 73       	sub    $0x7345203e,%eax
    8df1:	74 61                	je     8e54 <portrng_empty+0x894>
    8df3:	62 6c 69 73          	bound  %ebp,0x73(%ecx,%ebp,2)
    8df7:	68 65 64 00 74       	push   $0x74006465
    8dfc:	63 70 5f             	arpl   %si,0x5f(%eax)
    8dff:	63 6f 6e             	arpl   %bp,0x6e(%edi)
    8e02:	6e                   	outsb  %ds:(%esi),(%dx)
    8e03:	5f                   	pop    %edi
    8e04:	73 61                	jae    8e67 <portrng_empty+0x8a7>
    8e06:	5f                   	pop    %edi
    8e07:	73 65                	jae    8e6e <portrng_empty+0x8ae>
    8e09:	71 28                	jno    8e33 <portrng_empty+0x873>
    8e0b:	25 70 2c 20 25       	and    $0x25202c70,%eax
    8e10:	70 29                	jo     8e3b <portrng_empty+0x87b>
    8e12:	00 74 63 70          	add    %dh,0x70(%ebx,%eiz,2)
    8e16:	5f                   	pop    %edi
    8e17:	63 6f 6e             	arpl   %bp,0x6e(%edi)
    8e1a:	6e                   	outsb  %ds:(%esi),(%dx)
    8e1b:	5f                   	pop    %edi
    8e1c:	73 65                	jae    8e83 <portrng_empty+0x8c3>
    8e1e:	67 5f                	addr16 pop %edi
    8e20:	70 72                	jo     8e94 <portrng_empty+0x8d4>
    8e22:	6f                   	outsl  %ds:(%esi),(%dx)
    8e23:	63 65 73             	arpl   %sp,0x73(%ebp)
    8e26:	73 28                	jae    8e50 <portrng_empty+0x890>
    8e28:	25 70 2c 20 25       	and    $0x25202c70,%eax
    8e2d:	70 29                	jo     8e58 <portrng_empty+0x898>
    8e2f:	00 25 73 3a 20 74    	add    %ah,0x74203a73
    8e35:	63 70 5f             	arpl   %si,0x5f(%eax)
    8e38:	72 65                	jb     8e9f <portrng_empty+0x8df>
    8e3a:	73 65                	jae    8ea1 <portrng_empty+0x8e1>
    8e3c:	74 5f                	je     8e9d <portrng_empty+0x8dd>
    8e3e:	73 69                	jae    8ea9 <portrng_empty+0x8e9>
    8e40:	67 6e                	outsb  %ds:(%si),(%dx)
    8e42:	61                   	popa   
    8e43:	6c                   	insb   (%dx),%es:(%edi)
    8e44:	28 29                	sub    %ch,(%ecx)
    8e46:	00 53 65             	add    %dl,0x65(%ebx)
    8e49:	67 6d                	insl   (%dx),%es:(%di)
    8e4b:	65 6e                	outsb  %gs:(%esi),(%dx)
    8e4d:	74 20                	je     8e6f <portrng_empty+0x8af>
    8e4f:	68 61 73 20 6e       	push   $0x6e207361
    8e54:	6f                   	outsl  %ds:(%esi),(%dx)
    8e55:	20 41 43             	and    %al,0x43(%ecx)
    8e58:	4b                   	dec    %ebx
    8e59:	2e 20 44 72 6f       	and    %al,%cs:0x6f(%edx,%esi,2)
    8e5e:	70 70                	jo     8ed0 <portrng_empty+0x910>
    8e60:	69 6e 67 2e 00 25 73 	imul   $0x7325002e,0x67(%esi),%ebp
    8e67:	3a 20                	cmp    (%eax),%ah
    8e69:	53                   	push   %ebx
    8e6a:	59                   	pop    %ecx
    8e6b:	4e                   	dec    %esi
    8e6c:	20 41 43             	and    %al,0x43(%ecx)
    8e6f:	4b                   	dec    %ebx
    8e70:	65 64 20 2d 3e 20 45 	gs and %ch,%fs:0x7345203e
    8e77:	73 
    8e78:	74 61                	je     8edb <portrng_empty+0x91b>
    8e7a:	62 6c 69 73          	bound  %ebp,0x73(%ecx,%ebp,2)
    8e7e:	68 65 64 00 25       	push   $0x25006465
    8e83:	73 3a                	jae    8ebf <portrng_empty+0x8ff>
    8e85:	20 46 49             	and    %al,0x49(%esi)
    8e88:	4e                   	dec    %esi
    8e89:	20 61 63             	and    %ah,0x63(%ecx)
    8e8c:	6b 65 64 20          	imul   $0x20,0x64(%ebp),%esp
    8e90:	2d 3e 20 46 69       	sub    $0x6946203e,%eax
    8e95:	6e                   	outsb  %ds:(%esi),(%dx)
    8e96:	2d 57 61 69 74       	sub    $0x74696157,%eax
    8e9b:	2d 32 00 25 73       	sub    $0x73250032,%eax
    8ea0:	3a 20                	cmp    (%eax),%ah
    8ea2:	46                   	inc    %esi
    8ea3:	49                   	dec    %ecx
    8ea4:	4e                   	dec    %esi
    8ea5:	20 61 63             	and    %ah,0x63(%ecx)
    8ea8:	6b 65 64 20          	imul   $0x20,0x64(%ebp),%esp
    8eac:	2d 3e 20 43 6c       	sub    $0x6c43203e,%eax
    8eb1:	6f                   	outsl  %ds:(%esi),(%dx)
    8eb2:	73 65                	jae    8f19 <portrng_empty+0x959>
    8eb4:	64 00 20             	add    %ah,%fs:(%eax)
    8eb7:	2d 20 46 49 4e       	sub    $0x4e494620,%eax
    8ebc:	20 66 6f             	and    %ah,0x6f(%esi)
    8ebf:	75 6e                	jne    8f2f <portrng_empty+0x96f>
    8ec1:	64 20 69 6e          	and    %ch,%fs:0x6e(%ecx)
    8ec5:	20 73 65             	and    %dh,0x65(%ebx)
    8ec8:	67 6d                	insl   (%dx),%es:(%di)
    8eca:	65 6e                	outsb  %gs:(%esi),(%dx)
    8ecc:	74 2e                	je     8efc <portrng_empty+0x93c>
    8ece:	00 25 73 3a 20 46    	add    %ah,0x46203a73
    8ed4:	49                   	dec    %ecx
    8ed5:	4e                   	dec    %esi
    8ed6:	20 72 65             	and    %dh,0x65(%edx)
    8ed9:	63 65 69             	arpl   %sp,0x69(%ebp)
    8edc:	76 65                	jbe    8f43 <portrng_empty+0x983>
    8ede:	64 20 2d 3e 20 43 6c 	and    %ch,%fs:0x6c43203e
    8ee5:	6f                   	outsl  %ds:(%esi),(%dx)
    8ee6:	73 69                	jae    8f51 <portrng_empty+0x991>
    8ee8:	6e                   	outsb  %ds:(%esi),(%dx)
    8ee9:	67 00 25             	add    %ah,(%di)
    8eec:	73 3a                	jae    8f28 <portrng_empty+0x968>
    8eee:	20 46 49             	and    %al,0x49(%esi)
    8ef1:	4e                   	dec    %esi
    8ef2:	20 72 65             	and    %dh,0x65(%edx)
    8ef5:	63 65 69             	arpl   %sp,0x69(%ebp)
    8ef8:	76 65                	jbe    8f5f <portrng_empty+0x99f>
    8efa:	64 20 2d 3e 20 54 69 	and    %ch,%fs:0x6954203e
    8f01:	6d                   	insl   (%dx),%es:(%edi)
    8f02:	65 2d 57 61 69 74    	gs sub $0x74696157,%eax
    8f08:	00 74 63 70          	add    %dh,0x70(%ebx,%eiz,2)
    8f0c:	5f                   	pop    %edi
    8f0d:	63 6f 6e             	arpl   %bp,0x6e(%edi)
    8f10:	6e                   	outsb  %ds:(%esi),(%dx)
    8f11:	5f                   	pop    %edi
    8f12:	74 77                	je     8f8b <portrng_empty+0x9cb>
    8f14:	5f                   	pop    %edi
    8f15:	74 69                	je     8f80 <portrng_empty+0x9c0>
    8f17:	6d                   	insl   (%dx),%es:(%edi)
    8f18:	65 72 5f             	gs jb  8f7a <portrng_empty+0x9ba>
    8f1b:	73 65                	jae    8f82 <portrng_empty+0x9c2>
    8f1d:	74 28                	je     8f47 <portrng_empty+0x987>
    8f1f:	29 20                	sub    %esp,(%eax)
    8f21:	62 65 67             	bound  %esp,0x67(%ebp)
    8f24:	69 6e 00 74 63 70 5f 	imul   $0x5f706374,0x0(%esi),%ebp
    8f2b:	63 6f 6e             	arpl   %bp,0x6e(%edi)
    8f2e:	6e                   	outsb  %ds:(%esi),(%dx)
    8f2f:	5f                   	pop    %edi
    8f30:	74 77                	je     8fa9 <portrng_empty+0x9e9>
    8f32:	5f                   	pop    %edi
    8f33:	74 69                	je     8f9e <portrng_empty+0x9de>
    8f35:	6d                   	insl   (%dx),%es:(%edi)
    8f36:	65 72 5f             	gs jb  8f98 <portrng_empty+0x9d8>
    8f39:	73 65                	jae    8fa0 <portrng_empty+0x9e0>
    8f3b:	74 28                	je     8f65 <portrng_empty+0x9a5>
    8f3d:	29 20                	sub    %esp,(%eax)
    8f3f:	65 6e                	outsb  %gs:(%esi),(%dx)
    8f41:	64 00 52 65          	add    %dl,%fs:0x65(%edx)
    8f45:	63 65 69             	arpl   %sp,0x69(%ebp)
    8f48:	76 65                	jbe    8faf <portrng_empty+0x9ef>
    8f4a:	64 20 25 7a 75 20 62 	and    %ah,%fs:0x6220757a
    8f51:	79 74                	jns    8fc7 <portrng_empty+0xa07>
    8f53:	65 73 20             	gs jae 8f76 <portrng_empty+0x9b6>
    8f56:	6f                   	outsl  %ds:(%esi),(%dx)
    8f57:	66 20 64 61 74       	data16 and %ah,0x74(%ecx,%eiz,2)
    8f5c:	61                   	popa   
    8f5d:	2e 00 20             	add    %ah,%cs:(%eax)
    8f60:	73 65                	jae    8fc7 <portrng_empty+0xa07>
    8f62:	67 2d 3e 6c 65 6e    	addr16 sub $0x6e656c3e,%eax
    8f68:	3d 25 7a 75 2c       	cmp    $0x2c757a25,%eax
    8f6d:	20 73 65             	and    %dh,0x65(%ebx)
    8f70:	67 2d 3e 63 74 6c    	addr16 sub $0x6c74633e,%eax
    8f76:	3d 25 75 00 66       	cmp    $0x66007525,%eax
    8f7b:	90                   	nop
    8f7c:	40                   	inc    %eax
    8f7d:	21 00                	and    %eax,(%eax)
    8f7f:	00 40 21             	add    %al,0x21(%eax)
    8f82:	00 00                	add    %al,(%eax)
    8f84:	70 21                	jo     8fa7 <portrng_empty+0x9e7>
    8f86:	00 00                	add    %al,(%eax)
    8f88:	70 21                	jo     8fab <portrng_empty+0x9eb>
    8f8a:	00 00                	add    %al,(%eax)
    8f8c:	70 21                	jo     8faf <portrng_empty+0x9ef>
    8f8e:	00 00                	add    %al,(%eax)
    8f90:	70 21                	jo     8fb3 <portrng_empty+0x9f3>
    8f92:	00 00                	add    %al,(%eax)
    8f94:	70 21                	jo     8fb7 <portrng_empty+0x9f7>
    8f96:	00 00                	add    %al,(%eax)
    8f98:	70 21                	jo     8fbb <portrng_empty+0x9fb>
    8f9a:	00 00                	add    %al,(%eax)
    8f9c:	70 21                	jo     8fbf <portrng_empty+0x9ff>
    8f9e:	00 00                	add    %al,(%eax)
    8fa0:	70 21                	jo     8fc3 <portrng_empty+0xa03>
    8fa2:	00 00                	add    %al,(%eax)
    8fa4:	48                   	dec    %eax
    8fa5:	21 00                	and    %eax,(%eax)
    8fa7:	00 08                	add    %cl,(%eax)
    8fa9:	26 00 00             	add    %al,%es:(%eax)
    8fac:	c0 24 00 00          	shlb   $0x0,(%eax,%eax,1)
    8fb0:	08 24 00             	or     %ah,(%eax,%eax,1)
    8fb3:	00 08                	add    %cl,(%eax)
    8fb5:	24 00                	and    $0x0,%al
    8fb7:	00 08                	add    %cl,(%eax)
    8fb9:	24 00                	and    $0x0,%al
    8fbb:	00 08                	add    %cl,(%eax)
    8fbd:	24 00                	and    $0x0,%al
    8fbf:	00 08                	add    %cl,(%eax)
    8fc1:	24 00                	and    $0x0,%al
    8fc3:	00 08                	add    %cl,(%eax)
    8fc5:	24 00                	and    $0x0,%al
    8fc7:	00 08                	add    %cl,(%eax)
    8fc9:	24 00                	and    $0x0,%al
    8fcb:	00 08                	add    %cl,(%eax)
    8fcd:	24 00                	and    $0x0,%al
    8fcf:	00 50 27             	add    %dl,0x27(%eax)
    8fd2:	00 00                	add    %al,(%eax)
    8fd4:	a8 29                	test   $0x29,%al
    8fd6:	00 00                	add    %al,(%eax)
    8fd8:	a8 29                	test   $0x29,%al
    8fda:	00 00                	add    %al,(%eax)
    8fdc:	e8 28 00 00 a8       	call   a8009009 <rqueue+0xa7ffc9c9>
    8fe1:	28 00                	sub    %al,(%eax)
    8fe3:	00 a8 28 00 00 a8    	add    %ch,-0x57ffffd8(%eax)
    8fe9:	28 00                	sub    %al,(%eax)
    8feb:	00 a8 28 00 00 20    	add    %ch,0x20000028(%eax)
    8ff1:	28 00                	sub    %al,(%eax)
    8ff3:	00 20                	add    %ah,(%eax)
    8ff5:	28 00                	sub    %al,(%eax)
    8ff7:	00 20                	add    %ah,(%eax)
    8ff9:	28 00                	sub    %al,(%eax)
    8ffb:	00 a8 29 00 00 a8    	add    %ch,-0x57ffffd7(%eax)
    9001:	2c 00                	sub    $0x0,%al
    9003:	00 a8 2c 00 00 fb    	add    %ch,-0x4ffffd4(%eax)
    9009:	2c 00                	sub    $0x0,%al
    900b:	00 15 2a 00 00 f3    	add    %dl,0xf300002a
    9011:	2b 00                	sub    (%eax),%eax
    9013:	00 f7                	add    %dh,%bh
    9015:	2a 00                	sub    (%eax),%al
    9017:	00 15 2a 00 00 f7    	add    %dl,0xf700002a
    901d:	2a 00                	sub    (%eax),%al
    901f:	00 bd 2c 00 00 25    	add    %bh,0x2500002c(%ebp)
    9025:	2a 00                	sub    (%eax),%al
    9027:	00 a8 2c 00 00 e2    	add    %ch,-0x1dffffd4(%eax)
    902d:	2a 00                	sub    (%eax),%al
    902f:	00 e2                	add    %ah,%dl
    9031:	2a 00                	sub    (%eax),%al
    9033:	00 e2                	add    %ah,%dl
    9035:	2a 00                	sub    (%eax),%al
    9037:	00 0c 2b             	add    %cl,(%ebx,%ebp,1)
    903a:	00 00                	add    %al,(%eax)
    903c:	0c 2b                	or     $0x2b,%al
    903e:	00 00                	add    %al,(%eax)
    9040:	0c 2b                	or     $0x2b,%al
    9042:	00 00                	add    %al,(%eax)
    9044:	80 2a 00             	subb   $0x0,(%edx)
    9047:	00 80 2a 00 00 80    	add    %al,-0x7fffffd6(%eax)
    904d:	2a 00                	sub    (%eax),%al
    904f:	00 80 2a 00 00 e2    	add    %al,-0x1dffffd6(%eax)
    9055:	2a 00                	sub    (%eax),%al
    9057:	00 65 32             	add    %ah,0x32(%ebp)
    905a:	00 00                	add    %al,(%eax)
    905c:	65 32 00             	xor    %gs:(%eax),%al
    905f:	00 31                	add    %dh,(%ecx)
    9061:	32 00                	xor    (%eax),%al
    9063:	00 31                	add    %dh,(%ecx)
    9065:	32 00                	xor    (%eax),%al
    9067:	00 a9 31 00 00 90    	add    %ch,-0x6fffffcf(%ecx)
    906d:	30 00                	xor    %al,(%eax)
    906f:	00 6a 31             	add    %ch,0x31(%edx)
    9072:	00 00                	add    %al,(%eax)
    9074:	6a 31                	push   $0x31
    9076:	00 00                	add    %al,(%eax)
    9078:	6a 31                	push   $0x31
    907a:	00 00                	add    %al,(%eax)
    907c:	13 31                	adc    (%ecx),%esi
    907e:	00 00                	add    %al,(%eax)
    9080:	65 32 00             	xor    %gs:(%eax),%al
    9083:	00 74 63 70          	add    %dh,0x70(%ebx,%eiz,2)
    9087:	5f                   	pop    %edi
    9088:	69 71 75 65 75 65 5f 	imul   $0x5f657565,0x75(%ecx),%esi
    908f:	69 6e 73 65 72 74 5f 	imul   $0x5f747265,0x73(%esi),%ebp
    9096:	73 65                	jae    90fd <portrng_empty+0xb3d>
    9098:	67 28 29             	sub    %ch,(%bx,%di)
    909b:	00 46 61             	add    %al,0x61(%esi)
    909e:	69 6c 65 64 20 61 6c 	imul   $0x6c6c6120,0x64(%ebp,%eiz,2),%ebp
    90a5:	6c 
    90a6:	6f                   	outsl  %ds:(%esi),(%dx)
    90a7:	63 61 74             	arpl   %sp,0x74(%ecx)
    90aa:	69 6e 67 20 49 51 45 	imul   $0x45514920,0x67(%esi),%ebp
    90b1:	2e 00 74 63 70       	add    %dh,%cs:0x70(%ebx,%eiz,2)
    90b6:	5f                   	pop    %edi
    90b7:	67 65 74 5f          	addr16 gs je 911a <portrng_empty+0xb5a>
    90bb:	72 65                	jb     9122 <portrng_empty+0xb62>
    90bd:	61                   	popa   
    90be:	64 79 5f             	fs jns 9120 <portrng_empty+0xb60>
    90c1:	73 65                	jae    9128 <portrng_empty+0xb68>
    90c3:	67 28 29             	sub    %ch,(%bx,%di)
    90c6:	00 69 71             	add    %ch,0x71(%ecx)
    90c9:	75 65                	jne    9130 <portrng_empty+0xb70>
    90cb:	75 65                	jne    9132 <portrng_empty+0xb72>
    90cd:	20 69 73             	and    %ch,0x73(%ecx)
    90d0:	20 65 6d             	and    %ah,0x6d(%ebp)
    90d3:	70 74                	jo     9149 <portrng_empty+0xb89>
    90d5:	79 00                	jns    90d7 <portrng_empty+0xb17>
    90d7:	52                   	push   %edx
    90d8:	65 74 75             	gs je  9150 <portrng_empty+0xb90>
    90db:	72 6e                	jb     914b <portrng_empty+0xb8b>
    90dd:	69 6e 67 20 72 65 61 	imul   $0x61657220,0x67(%esi),%ebp
    90e4:	64 79 20             	fs jns 9107 <portrng_empty+0xb47>
    90e7:	73 65                	jae    914e <portrng_empty+0xb8e>
    90e9:	67 6d                	insl   (%dx),%es:(%di)
    90eb:	65 6e                	outsb  %gs:(%esi),(%dx)
    90ed:	74 20                	je     910f <portrng_empty+0xb4f>
    90ef:	25 70 00 66 90       	and    $0x90660070,%eax
    90f4:	53                   	push   %ebx
    90f5:	6b 69 70 70          	imul   $0x70,0x70(%ecx),%ebp
    90f9:	69 6e 67 20 75 6e 61 	imul   $0x616e7520,0x67(%esi),%ebp
    9100:	63 63 65             	arpl   %sp,0x65(%ebx)
    9103:	70 74                	jo     9179 <portrng_empty+0xbb9>
    9105:	61                   	popa   
    9106:	62 6c 65 20          	bound  %ebp,0x20(%ebp,%eiz,2)
    910a:	73 65                	jae    9171 <portrng_empty+0xbb1>
    910c:	67 6d                	insl   (%dx),%es:(%di)
    910e:	65 6e                	outsb  %gs:(%esi),(%dx)
    9110:	74 20                	je     9132 <portrng_empty+0xb72>
    9112:	28 52 43             	sub    %dl,0x43(%edx)
    9115:	56                   	push   %esi
    9116:	2e 4e                	cs dec %esi
    9118:	58                   	pop    %eax
    9119:	54                   	push   %esp
    911a:	3d 25 75 2c 20       	cmp    $0x202c7525,%eax
    911f:	52                   	push   %edx
    9120:	43                   	inc    %ebx
    9121:	56                   	push   %esi
    9122:	2e 4e                	cs dec %esi
    9124:	58                   	pop    %eax
    9125:	54                   	push   %esp
    9126:	2b 52 43             	sub    0x43(%edx),%edx
    9129:	56                   	push   %esi
    912a:	2e 57                	cs push %edi
    912c:	4e                   	dec    %esi
    912d:	44                   	inc    %esp
    912e:	3d 25 75 2c 20       	cmp    $0x202c7525,%eax
    9133:	53                   	push   %ebx
    9134:	45                   	inc    %ebp
    9135:	47                   	inc    %edi
    9136:	2e 53                	cs push %ebx
    9138:	45                   	inc    %ebp
    9139:	51                   	push   %ecx
    913a:	3d 25 75 2c 20       	cmp    $0x202c7525,%eax
    913f:	53                   	push   %ebx
    9140:	45                   	inc    %ebp
    9141:	47                   	inc    %edi
    9142:	2e 4c                	cs dec %esp
    9144:	45                   	inc    %ebp
    9145:	4e                   	dec    %esi
    9146:	3d 25 75 29 00       	cmp    $0x297525,%eax
    914b:	00 4e 65             	add    %cl,0x65(%esi)
    914e:	78 74                	js     91c4 <portrng_empty+0xc04>
    9150:	20 73 65             	and    %dh,0x65(%ebx)
    9153:	67 6d                	insl   (%dx),%es:(%di)
    9155:	65 6e                	outsb  %gs:(%esi),(%dx)
    9157:	74 20                	je     9179 <portrng_empty+0xbb9>
    9159:	6e                   	outsb  %ds:(%esi),(%dx)
    915a:	6f                   	outsl  %ds:(%esi),(%dx)
    915b:	74 20                	je     917d <portrng_empty+0xbbd>
    915d:	72 65                	jb     91c4 <portrng_empty+0xc04>
    915f:	61                   	popa   
    9160:	64 79 3a             	fs jns 919d <portrng_empty+0xbdd>
    9163:	20 53 45             	and    %dl,0x45(%ebx)
    9166:	47                   	inc    %edi
    9167:	2e 53                	cs push %ebx
    9169:	45                   	inc    %ebp
    916a:	51                   	push   %ecx
    916b:	3d 25 75 2c 20       	cmp    $0x202c7525,%eax
    9170:	52                   	push   %edx
    9171:	43                   	inc    %ebx
    9172:	56                   	push   %esi
    9173:	2e 4e                	cs dec %esi
    9175:	58                   	pop    %eax
    9176:	54                   	push   %esp
    9177:	3d 25 75 2c 20       	cmp    $0x202c7525,%eax
    917c:	53                   	push   %ebx
    917d:	45                   	inc    %ebp
    917e:	47                   	inc    %edi
    917f:	2e 4c                	cs dec %esp
    9181:	45                   	inc    %ebp
    9182:	4e                   	dec    %esi
    9183:	3d 25 75 00 74       	cmp    $0x74007525,%eax
    9188:	63 70 5f             	arpl   %si,0x5f(%eax)
    918b:	6e                   	outsb  %ds:(%esi),(%dx)
    918c:	63 73 69             	arpl   %si,0x69(%ebx)
    918f:	6d                   	insl   (%dx),%es:(%edi)
    9190:	5f                   	pop    %edi
    9191:	66 69 62 72 69 6c    	imul   $0x6c69,0x72(%edx),%sp
    9197:	28 29                	sub    %ch,(%ecx)
    9199:	00 4e 43             	add    %cl,0x43(%esi)
    919c:	53                   	push   %ebx
    919d:	69 6d 20 2d 20 53 6c 	imul   $0x6c53202d,0x20(%ebp),%ebp
    91a4:	65 65 70 00          	gs gs jo 91a8 <portrng_empty+0xbe8>
    91a8:	4e                   	dec    %esi
    91a9:	43                   	inc    %ebx
    91aa:	53                   	push   %ebx
    91ab:	69 6d 20 2d 20 45 6e 	imul   $0x6e45202d,0x20(%ebp),%ebp
    91b2:	64 20 53 6c          	and    %dl,%fs:0x6c(%ebx)
    91b6:	65 65 70 00          	gs gs jo 91ba <portrng_empty+0xbfa>
    91ba:	74 63                	je     921f <portrng_empty+0xc5f>
    91bc:	70 5f                	jo     921d <portrng_empty+0xc5d>
    91be:	6e                   	outsb  %ds:(%esi),(%dx)
    91bf:	63 73 69             	arpl   %si,0x69(%ebx)
    91c2:	6d                   	insl   (%dx),%es:(%edi)
    91c3:	5f                   	pop    %edi
    91c4:	62 6f 75             	bound  %ebp,0x75(%edi)
    91c7:	6e                   	outsb  %ds:(%esi),(%dx)
    91c8:	63 65 5f             	arpl   %sp,0x5f(%ebp)
    91cb:	73 65                	jae    9232 <portrng_empty+0xc72>
    91cd:	67 28 29             	sub    %ch,(%bx,%di)
    91d0:	00 74 63 70          	add    %dh,0x70(%ebx,%eiz,2)
    91d4:	5f                   	pop    %edi
    91d5:	6e                   	outsb  %ds:(%esi),(%dx)
    91d6:	63 73 69             	arpl   %si,0x69(%ebx)
    91d9:	6d                   	insl   (%dx),%es:(%edi)
    91da:	5f                   	pop    %edi
    91db:	66 69 62 72 69 6c    	imul   $0x6c69,0x72(%edx),%sp
    91e1:	5f                   	pop    %edi
    91e2:	73 74                	jae    9258 <portrng_empty+0xc98>
    91e4:	61                   	popa   
    91e5:	72 74                	jb     925b <portrng_empty+0xc9b>
    91e7:	28 29                	sub    %ch,(%ecx)
    91e9:	00 46 61             	add    %al,0x61(%esi)
    91ec:	69 6c 65 64 20 63 72 	imul   $0x65726320,0x64(%ebp,%eiz,2),%ebp
    91f3:	65 
    91f4:	61                   	popa   
    91f5:	74 69                	je     9260 <portrng_empty+0xca0>
    91f7:	6e                   	outsb  %ds:(%esi),(%dx)
    91f8:	67 20 6e 63          	and    %ch,0x63(%bp)
    91fc:	73 69                	jae    9267 <portrng_empty+0xca7>
    91fe:	6d                   	insl   (%dx),%es:(%edi)
    91ff:	20 66 69             	and    %ah,0x69(%esi)
    9202:	62 72 69             	bound  %esi,0x69(%edx)
    9205:	6c                   	insb   (%dx),%es:(%edi)
    9206:	2e 00 70 64          	add    %dh,%cs:0x64(%eax)
    920a:	75 2e                	jne    923a <portrng_empty+0xc7a>
    920c:	63 00                	arpl   %ax,(%eax)
    920e:	73 72                	jae    9282 <portrng_empty+0xcc2>
    9210:	63 5f 76             	arpl   %bx,0x76(%edi)
    9213:	65 72 20             	gs jb  9236 <portrng_empty+0xc76>
    9216:	3d 3d 20 64 65       	cmp    $0x6564203d,%eax
    921b:	73 74                	jae    9291 <portrng_empty+0xcd1>
    921d:	5f                   	pop    %edi
    921e:	76 65                	jbe    9285 <portrng_empty+0xcc5>
    9220:	72 00                	jb     9222 <portrng_empty+0xc62>
    9222:	74 63                	je     9287 <portrng_empty+0xcc7>
    9224:	70 5f                	jo     9285 <portrng_empty+0xcc5>
    9226:	72 71                	jb     9299 <portrng_empty+0xcd9>
    9228:	75 65                	jne    928f <portrng_empty+0xccf>
    922a:	75 65                	jne    9291 <portrng_empty+0xcd1>
    922c:	5f                   	pop    %edi
    922d:	66 69 62 72 69 6c    	imul   $0x6c69,0x72(%edx),%sp
    9233:	28 29                	sub    %ch,(%ecx)
    9235:	00 74 63 70          	add    %dh,0x70(%ebx,%eiz,2)
    9239:	5f                   	pop    %edi
    923a:	72 71                	jb     92ad <portrng_empty+0xced>
    923c:	75 65                	jne    92a3 <portrng_empty+0xce3>
    923e:	75 65                	jne    92a5 <portrng_empty+0xce5>
    9240:	5f                   	pop    %edi
    9241:	62 6f 75             	bound  %ebp,0x75(%edi)
    9244:	6e                   	outsb  %ds:(%esi),(%dx)
    9245:	63 65 5f             	arpl   %sp,0x5f(%ebp)
    9248:	73 65                	jae    92af <portrng_empty+0xcef>
    924a:	67 28 29             	sub    %ch,(%bx,%di)
    924d:	00 74 63 70          	add    %dh,0x70(%ebx,%eiz,2)
    9251:	5f                   	pop    %edi
    9252:	72 71                	jb     92c5 <portrng_empty+0xd05>
    9254:	75 65                	jne    92bb <portrng_empty+0xcfb>
    9256:	75 65                	jne    92bd <portrng_empty+0xcfd>
    9258:	5f                   	pop    %edi
    9259:	69 6e 73 65 72 74 5f 	imul   $0x5f747265,0x73(%esi),%ebp
    9260:	73 65                	jae    92c7 <portrng_empty+0xd07>
    9262:	67 28 29             	sub    %ch,(%bx,%di)
    9265:	00 46 61             	add    %al,0x61(%esi)
    9268:	69 6c 65 64 20 61 6c 	imul   $0x6c6c6120,0x64(%ebp,%eiz,2),%ebp
    926f:	6c 
    9270:	6f                   	outsl  %ds:(%esi),(%dx)
    9271:	63 61 74             	arpl   %sp,0x74(%ecx)
    9274:	69 6e 67 20 52 51 45 	imul   $0x45515220,0x67(%esi),%ebp
    927b:	2e 00 74 63 70       	add    %dh,%cs:0x70(%ebx,%eiz,2)
    9280:	5f                   	pop    %edi
    9281:	72 71                	jb     92f4 <portrng_empty+0xd34>
    9283:	75 65                	jne    92ea <portrng_empty+0xd2a>
    9285:	75 65                	jne    92ec <portrng_empty+0xd2c>
    9287:	5f                   	pop    %edi
    9288:	66 69 62 72 69 6c    	imul   $0x6c69,0x72(%edx),%sp
    928e:	5f                   	pop    %edi
    928f:	73 74                	jae    9305 <portrng_empty+0xd45>
    9291:	61                   	popa   
    9292:	72 74                	jb     9308 <portrng_empty+0xd48>
    9294:	28 29                	sub    %ch,(%ecx)
    9296:	00 90 4e 6f 74 20    	add    %dl,0x20746f4e(%eax)
    929c:	65 6e                	outsb  %gs:(%esi),(%dx)
    929e:	6f                   	outsl  %ds:(%esi),(%dx)
    929f:	75 67                	jne    9308 <portrng_empty+0xd48>
    92a1:	68 20 6d 65 6d       	push   $0x6d656d20
    92a6:	6f                   	outsl  %ds:(%esi),(%dx)
    92a7:	72 79                	jb     9322 <portrng_empty+0xd62>
    92a9:	2e 20 53 65          	and    %dl,%cs:0x65(%ebx)
    92ad:	67 6d                	insl   (%dx),%es:(%di)
    92af:	65 6e                	outsb  %gs:(%esi),(%dx)
    92b1:	74 20                	je     92d3 <portrng_empty+0xd13>
    92b3:	64 72 6f             	fs jb  9325 <portrng_empty+0xd65>
    92b6:	70 70                	jo     9328 <portrng_empty+0xd68>
    92b8:	65 64 2e 00 46 61    	gs fs add %al,%cs:0x61(%esi)
    92be:	69 6c 65 64 20 63 72 	imul   $0x65726320,0x64(%ebp,%eiz,2),%ebp
    92c5:	65 
    92c6:	61                   	popa   
    92c7:	74 69                	je     9332 <portrng_empty+0xd72>
    92c9:	6e                   	outsb  %ds:(%esi),(%dx)
    92ca:	67 20 72 71          	and    %dh,0x71(%bp,%si)
    92ce:	75 65                	jne    9335 <portrng_empty+0xd75>
    92d0:	75 65                	jne    9337 <portrng_empty+0xd77>
    92d2:	20 66 69             	and    %ah,0x69(%esi)
    92d5:	62 72 69             	bound  %esi,0x69(%edx)
    92d8:	6c                   	insb   (%dx),%es:(%edi)
    92d9:	2e 00 73 65          	add    %dh,%cs:0x65(%ebx)
    92dd:	67 6d                	insl   (%dx),%es:(%di)
    92df:	65 6e                	outsb  %gs:(%esi),(%dx)
    92e1:	74 2e                	je     9311 <portrng_empty+0xd51>
    92e3:	63 00                	arpl   %ax,(%eax)
    92e5:	6c                   	insb   (%dx),%es:(%edi)
    92e6:	65 66 74 20          	gs data16 je 930a <portrng_empty+0xd4a>
    92ea:	2b 20                	sub    (%eax),%esp
    92ec:	72 69                	jb     9357 <portrng_empty+0xd97>
    92ee:	67 68 74 20 3c 3d    	addr16 push $0x3d3c2074
    92f4:	20 73 65             	and    %dh,0x65(%ebx)
    92f7:	67 2d 3e 6c 65 6e    	addr16 sub $0x6e656c3e,%eax
    92fd:	00 6c 65 66          	add    %ch,0x66(%ebp,%eiz,2)
    9301:	74 20                	je     9323 <portrng_empty+0xd63>
    9303:	2b 20                	sub    (%eax),%esp
    9305:	72 69                	jb     9370 <portrng_empty+0xdb0>
    9307:	67 68 74 20 3c 3d    	addr16 push $0x3d3c2074
    930d:	20 74 5f 73          	and    %dh,0x73(%edi,%ebx,2)
    9311:	69 7a 65 00 53 65 67 	imul   $0x67655300,0x65(%edx),%edi
    9318:	6d                   	insl   (%dx),%es:(%edi)
    9319:	65 6e                	outsb  %gs:(%esi),(%dx)
    931b:	74 20                	je     933d <portrng_empty+0xd7d>
    931d:	64 75 6d             	fs jne 938d <portrng_empty+0xdcd>
    9320:	70 3a                	jo     935c <portrng_empty+0xd9c>
    9322:	00 20                	add    %ah,(%eax)
    9324:	2d 20 63 74 72       	sub    $0x72746320,%eax
    9329:	6c                   	insb   (%dx),%es:(%edi)
    932a:	20 3d 20 25 75 00    	and    %bh,0x752520
    9330:	20 2d 20 73 65 71    	and    %ch,0x71657320
    9336:	20 3d 20 25 75 00    	and    %bh,0x752520
    933c:	20 2d 20 61 63 6b    	and    %ch,0x6b636120
    9342:	20 3d 20 25 75 00    	and    %bh,0x752520
    9348:	20 2d 20 6c 65 6e    	and    %ch,0x6e656c20
    934e:	20 3d 20 25 75 00    	and    %bh,0x752520
    9354:	20 2d 20 77 6e 64    	and    %ch,0x646e7720
    935a:	20 3d 20 25 75 00    	and    %bh,0x752520
    9360:	20 2d 20 75 70 20    	and    %ch,0x20707520
    9366:	3d 20 25 75 00       	cmp    $0x752520,%eax
    936b:	90                   	nop
    936c:	73 69                	jae    93d7 <portrng_empty+0xe17>
    936e:	7a 65                	jp     93d5 <portrng_empty+0xe15>
    9370:	20 3c 3d 20 74 63 70 	and    %bh,0x70637420(,%edi,1)
    9377:	5f                   	pop    %edi
    9378:	73 65                	jae    93df <portrng_empty+0xe1f>
    937a:	67 6d                	insl   (%dx),%es:(%di)
    937c:	65 6e                	outsb  %gs:(%esi),(%dx)
    937e:	74 5f                	je     93df <portrng_empty+0xe1f>
    9380:	74 65                	je     93e7 <portrng_empty+0xe27>
    9382:	78 74                	js     93f8 <portrng_empty+0xe38>
    9384:	5f                   	pop    %edi
    9385:	73 69                	jae    93f0 <portrng_empty+0xe30>
    9387:	7a 65                	jp     93ee <portrng_empty+0xe2e>
    9389:	28 73 65             	sub    %dh,0x65(%ebx)
    938c:	67 29 00             	sub    %eax,(%bx,%si)
    938f:	74 63                	je     93f4 <portrng_empty+0xe34>
    9391:	70 5f                	jo     93f2 <portrng_empty+0xe32>
    9393:	65 76 5f             	gs jbe 93f5 <portrng_empty+0xe35>
    9396:	64 61                	fs popa 
    9398:	74 61                	je     93fb <portrng_empty+0xe3b>
    939a:	28 29                	sub    %ch,(%ecx)
    939c:	00 63 6c             	add    %ah,0x6c(%ebx)
    939f:	69 65 6e 74 3d 25 70 	imul   $0x70253d74,0x6e(%ebp),%esp
    93a6:	0a 00                	or     (%eax),%al
    93a8:	73 65                	jae    940f <portrng_empty+0xe4f>
    93aa:	73 73                	jae    941f <portrng_empty+0xe5f>
    93ac:	3d 25 70 0a 00       	cmp    $0xa7025,%eax
    93b1:	74 63                	je     9416 <portrng_empty+0xe56>
    93b3:	70 5f                	jo     9414 <portrng_empty+0xe54>
    93b5:	73 65                	jae    941c <portrng_empty+0xe5c>
    93b7:	72 76                	jb     942f <portrng_empty+0xe6f>
    93b9:	69 63 65 5f 63 73 74 	imul   $0x7473635f,0x65(%ebx),%esp
    93c0:	61                   	popa   
    93c1:	74 65                	je     9428 <portrng_empty+0xe68>
    93c3:	5f                   	pop    %edi
    93c4:	63 68 61             	arpl   %bp,0x61(%eax)
    93c7:	6e                   	outsb  %ds:(%esi),(%dx)
    93c8:	67 65 28 29          	sub    %ch,%gs:(%bx,%di)
    93cc:	00 74 63 70          	add    %dh,0x70(%ebx,%eiz,2)
    93d0:	5f                   	pop    %edi
    93d1:	65 76 5f             	gs jbe 9433 <portrng_empty+0xe73>
    93d4:	63 6f 6e             	arpl   %bp,0x6e(%edi)
    93d7:	6e                   	outsb  %ds:(%esi),(%dx)
    93d8:	65 63 74 65 64       	arpl   %si,%gs:0x64(%ebp,%eiz,2)
    93dd:	28 29                	sub    %ch,(%ecx)
    93df:	00 74 63 70          	add    %dh,0x70(%ebx,%eiz,2)
    93e3:	5f                   	pop    %edi
    93e4:	65 76 5f             	gs jbe 9446 <portrng_empty+0xe86>
    93e7:	63 6f 6e             	arpl   %bp,0x6e(%edi)
    93ea:	6e                   	outsb  %ds:(%esi),(%dx)
    93eb:	5f                   	pop    %edi
    93ec:	72 65                	jb     9453 <portrng_empty+0xe93>
    93ee:	73 65                	jae    9455 <portrng_empty+0xe95>
    93f0:	74 28                	je     941a <portrng_empty+0xe5a>
    93f2:	29 00                	sub    %eax,(%eax)
    93f4:	74 63                	je     9459 <portrng_empty+0xe99>
    93f6:	70 5f                	jo     9457 <portrng_empty+0xe97>
    93f8:	65 76 5f             	gs jbe 945a <portrng_empty+0xe9a>
    93fb:	6e                   	outsb  %ds:(%esi),(%dx)
    93fc:	65 77 5f             	gs ja  945e <portrng_empty+0xe9e>
    93ff:	63 6f 6e             	arpl   %bp,0x6e(%edi)
    9402:	6e                   	outsb  %ds:(%esi),(%dx)
    9403:	28 29                	sub    %ch,(%ecx)
    9405:	00 73 00             	add    %dh,0x0(%ebx)
    9408:	74 63                	je     946d <portrng_empty+0xead>
    940a:	70 5f                	jo     946b <portrng_empty+0xeab>
    940c:	63 6c 69 65          	arpl   %bp,0x65(%ecx,%ebp,2)
    9410:	6e                   	outsb  %ds:(%esi),(%dx)
    9411:	74 5f                	je     9472 <portrng_empty+0xeb2>
    9413:	63 6f 6e             	arpl   %bp,0x6e(%edi)
    9416:	6e                   	outsb  %ds:(%esi),(%dx)
    9417:	28 29                	sub    %ch,(%ecx)
    9419:	20 2d 20 63 6c 69    	and    %ch,0x696c6320
    941f:	65 6e                	outsb  %gs:(%esi),(%dx)
    9421:	74 3d                	je     9460 <portrng_empty+0xea0>
    9423:	25 70 00 74 63       	and    $0x63740070,%eax
    9428:	70 5f                	jo     9489 <portrng_empty+0xec9>
    942a:	63 6c 69 65          	arpl   %bp,0x65(%ecx,%ebp,2)
    942e:	6e                   	outsb  %ds:(%esi),(%dx)
    942f:	74 5f                	je     9490 <portrng_empty+0xed0>
    9431:	63 6f 6e             	arpl   %bp,0x6e(%edi)
    9434:	6e                   	outsb  %ds:(%esi),(%dx)
    9435:	3a 20                	cmp    (%eax),%ah
    9437:	77 61                	ja     949a <portrng_empty+0xeda>
    9439:	69 74 20 72 65 71 00 	imul   $0x74007165,0x72(%eax,%eiz,1),%esi
    9440:	74 
    9441:	63 70 5f             	arpl   %si,0x5f(%eax)
    9444:	63 6c 69 65          	arpl   %bp,0x65(%ecx,%ebp,2)
    9448:	6e                   	outsb  %ds:(%esi),(%dx)
    9449:	74 5f                	je     94aa <portrng_empty+0xeea>
    944b:	63 6f 6e             	arpl   %bp,0x6e(%edi)
    944e:	6e                   	outsb  %ds:(%esi),(%dx)
    944f:	3a 20                	cmp    (%eax),%ah
    9451:	6d                   	insl   (%dx),%es:(%edi)
    9452:	65 74 68             	gs je  94bd <portrng_empty+0xefd>
    9455:	6f                   	outsl  %ds:(%esi),(%dx)
    9456:	64 3d 25 64 00 74    	fs cmp $0x74006425,%eax
    945c:	63 70 5f             	arpl   %si,0x5f(%eax)
    945f:	63 6c 69 65          	arpl   %bp,0x65(%ecx,%ebp,2)
    9463:	6e                   	outsb  %ds:(%esi),(%dx)
    9464:	74 5f                	je     94c5 <portrng_empty+0xf05>
    9466:	63 6f 6e             	arpl   %bp,0x6e(%edi)
    9469:	6e                   	outsb  %ds:(%esi),(%dx)
    946a:	20 54 45 52          	and    %dl,0x52(%ebp,%eax,2)
    946e:	4d                   	dec    %ebp
    946f:	49                   	dec    %ecx
    9470:	4e                   	dec    %esi
    9471:	41                   	inc    %ecx
    9472:	54                   	push   %esp
    9473:	45                   	inc    %ebp
    9474:	44                   	inc    %esp
    9475:	00 74 63 70          	add    %dh,0x70(%ebx,%eiz,2)
    9479:	5f                   	pop    %edi
    947a:	63 61 6c             	arpl   %sp,0x6c(%ecx)
    947d:	6c                   	insb   (%dx),%es:(%edi)
    947e:	62 61 63             	bound  %esp,0x63(%ecx)
    9481:	6b 5f 63 72          	imul   $0x72,0x63(%edi),%ebx
    9485:	65 61                	gs popa 
    9487:	74 65                	je     94ee <portrng_empty+0xf2e>
    9489:	5f                   	pop    %edi
    948a:	73 72                	jae    94fe <portrng_empty+0xf3e>
    948c:	76 28                	jbe    94b6 <portrng_empty+0xef6>
    948e:	29 00                	sub    %eax,(%eax)
    9490:	74 63                	je     94f5 <portrng_empty+0xf35>
    9492:	70 5f                	jo     94f3 <portrng_empty+0xf33>
    9494:	63 6f 6e             	arpl   %bp,0x6e(%edi)
    9497:	6e                   	outsb  %ds:(%esi),(%dx)
    9498:	5f                   	pop    %edi
    9499:	63 72 65             	arpl   %si,0x65(%edx)
    949c:	61                   	popa   
    949d:	74 65                	je     9504 <portrng_empty+0xf44>
    949f:	5f                   	pop    %edi
    94a0:	73 72                	jae    9514 <portrng_empty+0xf54>
    94a2:	76 28                	jbe    94cc <portrng_empty+0xf0c>
    94a4:	29 00                	sub    %eax,(%eax)
    94a6:	74 63                	je     950b <portrng_empty+0xf4b>
    94a8:	70 5f                	jo     9509 <portrng_empty+0xf49>
    94aa:	63 6f 6e             	arpl   %bp,0x6e(%edi)
    94ad:	6e                   	outsb  %ds:(%esi),(%dx)
    94ae:	5f                   	pop    %edi
    94af:	63 72 65             	arpl   %si,0x65(%edx)
    94b2:	61                   	popa   
    94b3:	74 65                	je     951a <portrng_empty+0xf5a>
    94b5:	5f                   	pop    %edi
    94b6:	69 6d 70 6c 00 74 63 	imul   $0x6374006c,0x70(%ebp),%ebp
    94bd:	70 5f                	jo     951e <portrng_empty+0xf5e>
    94bf:	63 6f 6e             	arpl   %bp,0x6e(%edi)
    94c2:	6e                   	outsb  %ds:(%esi),(%dx)
    94c3:	5f                   	pop    %edi
    94c4:	64 65 73 74          	fs gs jae 953c <portrng_empty+0xf7c>
    94c8:	72 6f                	jb     9539 <portrng_empty+0xf79>
    94ca:	79 5f                	jns    952b <portrng_empty+0xf6b>
    94cc:	73 72                	jae    9540 <portrng_empty+0xf80>
    94ce:	76 28                	jbe    94f8 <portrng_empty+0xf38>
    94d0:	29 00                	sub    %eax,(%eax)
    94d2:	74 63                	je     9537 <portrng_empty+0xf77>
    94d4:	70 5f                	jo     9535 <portrng_empty+0xf75>
    94d6:	6c                   	insb   (%dx),%es:(%edi)
    94d7:	69 73 74 65 6e 65 72 	imul   $0x72656e65,0x74(%ebx),%esi
    94de:	5f                   	pop    %edi
    94df:	63 72 65             	arpl   %si,0x65(%edx)
    94e2:	61                   	popa   
    94e3:	74 65                	je     954a <portrng_empty+0xf8a>
    94e5:	5f                   	pop    %edi
    94e6:	73 72                	jae    955a <portrng_empty+0xf9a>
    94e8:	76 28                	jbe    9512 <portrng_empty+0xf52>
    94ea:	29 00                	sub    %eax,(%eax)
    94ec:	74 63                	je     9551 <portrng_empty+0xf91>
    94ee:	70 5f                	jo     954f <portrng_empty+0xf8f>
    94f0:	6c                   	insb   (%dx),%es:(%edi)
    94f1:	69 73 74 65 6e 65 72 	imul   $0x72656e65,0x74(%ebx),%esi
    94f8:	5f                   	pop    %edi
    94f9:	63 72 65             	arpl   %si,0x65(%edx)
    94fc:	61                   	popa   
    94fd:	74 65                	je     9564 <portrng_empty+0xfa4>
    94ff:	5f                   	pop    %edi
    9500:	69 6d 70 6c 00 74 63 	imul   $0x6374006c,0x70(%ebp),%ebp
    9507:	70 5f                	jo     9568 <portrng_empty+0xfa8>
    9509:	6c                   	insb   (%dx),%es:(%edi)
    950a:	69 73 74 65 6e 65 72 	imul   $0x72656e65,0x74(%ebx),%esi
    9511:	5f                   	pop    %edi
    9512:	64 65 73 74          	fs gs jae 958a <portrng_empty+0xfca>
    9516:	72 6f                	jb     9587 <portrng_empty+0xfc7>
    9518:	79 5f                	jns    9579 <portrng_empty+0xfb9>
    951a:	73 72                	jae    958e <portrng_empty+0xfce>
    951c:	76 28                	jbe    9546 <portrng_empty+0xf86>
    951e:	29 00                	sub    %eax,(%eax)
    9520:	74 63                	je     9585 <portrng_empty+0xfc5>
    9522:	70 5f                	jo     9583 <portrng_empty+0xfc3>
    9524:	63 6f 6e             	arpl   %bp,0x6e(%edi)
    9527:	6e                   	outsb  %ds:(%esi),(%dx)
    9528:	5f                   	pop    %edi
    9529:	73 65                	jae    9590 <portrng_empty+0xfd0>
    952b:	6e                   	outsb  %ds:(%esi),(%dx)
    952c:	64 5f                	fs pop %edi
    952e:	66 69 6e 5f 73 72    	imul   $0x7273,0x5f(%esi),%bp
    9534:	76 28                	jbe    955e <portrng_empty+0xf9e>
    9536:	29 00                	sub    %eax,(%eax)
    9538:	74 63                	je     959d <portrng_empty+0xfdd>
    953a:	70 5f                	jo     959b <portrng_empty+0xfdb>
    953c:	63 6f 6e             	arpl   %bp,0x6e(%edi)
    953f:	6e                   	outsb  %ds:(%esi),(%dx)
    9540:	5f                   	pop    %edi
    9541:	70 75                	jo     95b8 <portrng_empty+0xff8>
    9543:	73 68                	jae    95ad <portrng_empty+0xfed>
    9545:	5f                   	pop    %edi
    9546:	73 72                	jae    95ba <portrng_empty+0xffa>
    9548:	76 28                	jbe    9572 <portrng_empty+0xfb2>
    954a:	29 00                	sub    %eax,(%eax)
    954c:	74 63                	je     95b1 <portrng_empty+0xff1>
    954e:	70 5f                	jo     95af <portrng_empty+0xfef>
    9550:	63 6f 6e             	arpl   %bp,0x6e(%edi)
    9553:	6e                   	outsb  %ds:(%esi),(%dx)
    9554:	5f                   	pop    %edi
    9555:	72 65                	jb     95bc <portrng_empty+0xffc>
    9557:	73 65                	jae    95be <portrng_empty+0xffe>
    9559:	74 5f                	je     95ba <portrng_empty+0xffa>
    955b:	73 72                	jae    95cf <portrng_empty+0x100f>
    955d:	76 28                	jbe    9587 <portrng_empty+0xfc7>
    955f:	29 00                	sub    %eax,(%eax)
    9561:	74 63                	je     95c6 <portrng_empty+0x1006>
    9563:	70 5f                	jo     95c4 <portrng_empty+0x1004>
    9565:	63 6f 6e             	arpl   %bp,0x6e(%edi)
    9568:	6e                   	outsb  %ds:(%esi),(%dx)
    9569:	5f                   	pop    %edi
    956a:	73 65                	jae    95d1 <portrng_empty+0x1011>
    956c:	6e                   	outsb  %ds:(%esi),(%dx)
    956d:	64 5f                	fs pop %edi
    956f:	73 72                	jae    95e3 <portrng_empty+0x1023>
    9571:	76 28                	jbe    959b <portrng_empty+0xfdb>
    9573:	29 29                	sub    %ebp,(%ecx)
    9575:	00 74 63 70          	add    %dh,0x70(%ebx,%eiz,2)
    9579:	5f                   	pop    %edi
    957a:	63 6f 6e             	arpl   %bp,0x6e(%edi)
    957d:	6e                   	outsb  %ds:(%esi),(%dx)
    957e:	5f                   	pop    %edi
    957f:	72 65                	jb     95e6 <portrng_empty+0x1026>
    9581:	63 76 5f             	arpl   %si,0x5f(%esi)
    9584:	73 72                	jae    95f8 <portrng_empty+0x1038>
    9586:	76 28                	jbe    95b0 <portrng_empty+0xff0>
    9588:	29 00                	sub    %eax,(%eax)
    958a:	74 63                	je     95ef <portrng_empty+0x102f>
    958c:	70 5f                	jo     95ed <portrng_empty+0x102d>
    958e:	63 6f 6e             	arpl   %bp,0x6e(%edi)
    9591:	6e                   	outsb  %ds:(%esi),(%dx)
    9592:	5f                   	pop    %edi
    9593:	72 65                	jb     95fa <portrng_empty+0x103a>
    9595:	63 76 5f             	arpl   %si,0x5f(%esi)
    9598:	69 6d 70 6c 28 29 00 	imul   $0x29286c,0x70(%ebp),%ebp
    959f:	74 63                	je     9604 <portrng_empty+0x1044>
    95a1:	70 5f                	jo     9602 <portrng_empty+0x1042>
    95a3:	63 6f 6e             	arpl   %bp,0x6e(%edi)
    95a6:	6e                   	outsb  %ds:(%esi),(%dx)
    95a7:	5f                   	pop    %edi
    95a8:	72 65                	jb     960f <portrng_empty+0x104f>
    95aa:	63 76 5f             	arpl   %si,0x5f(%esi)
    95ad:	69 6d 70 6c 28 29 20 	imul   $0x2029286c,0x70(%ebp),%ebp
    95b4:	2d 20 45 41 47       	sub    $0x47414520,%eax
    95b9:	41                   	inc    %ecx
    95ba:	49                   	dec    %ecx
    95bb:	4e                   	dec    %esi
    95bc:	00 74 63 70          	add    %dh,0x70(%ebx,%eiz,2)
    95c0:	5f                   	pop    %edi
    95c1:	63 6f 6e             	arpl   %bp,0x6e(%edi)
    95c4:	6e                   	outsb  %ds:(%esi),(%dx)
    95c5:	5f                   	pop    %edi
    95c6:	72 65                	jb     962d <portrng_empty+0x106d>
    95c8:	63 76 5f             	arpl   %si,0x5f(%esi)
    95cb:	69 6d 70 6c 28 29 20 	imul   $0x2029286c,0x70(%ebp),%ebp
    95d2:	2d 20 74 72 63       	sub    $0x63727420,%eax
    95d7:	3d 25 64 00 74       	cmp    $0x74006425,%eax
    95dc:	63 70 5f             	arpl   %si,0x5f(%eax)
    95df:	63 6f 6e             	arpl   %bp,0x6e(%edi)
    95e2:	6e                   	outsb  %ds:(%esi),(%dx)
    95e3:	5f                   	pop    %edi
    95e4:	72 65                	jb     964b <portrng_empty+0x108b>
    95e6:	63 76 5f             	arpl   %si,0x5f(%esi)
    95e9:	73 72                	jae    965d <portrng_empty+0x109d>
    95eb:	76 28                	jbe    9615 <portrng_empty+0x1055>
    95ed:	29 3a                	sub    %edi,(%edx)
    95ef:	20 4f 4b             	and    %cl,0x4b(%edi)
    95f2:	00 74 63 70          	add    %dh,0x70(%ebx,%eiz,2)
    95f6:	5f                   	pop    %edi
    95f7:	63 6f 6e             	arpl   %bp,0x6e(%edi)
    95fa:	6e                   	outsb  %ds:(%esi),(%dx)
    95fb:	5f                   	pop    %edi
    95fc:	72 65                	jb     9663 <portrng_empty+0x10a3>
    95fe:	63 76 5f             	arpl   %si,0x5f(%esi)
    9601:	77 61                	ja     9664 <portrng_empty+0x10a4>
    9603:	69 74 5f 73 72 76 28 	imul   $0x29287672,0x73(%edi,%ebx,2),%esi
    960a:	29 
    960b:	00 74 63 70          	add    %dh,0x70(%ebx,%eiz,2)
    960f:	5f                   	pop    %edi
    9610:	63 6f 6e             	arpl   %bp,0x6e(%edi)
    9613:	6e                   	outsb  %ds:(%esi),(%dx)
    9614:	5f                   	pop    %edi
    9615:	72 65                	jb     967c <portrng_empty+0x10bc>
    9617:	63 76 5f             	arpl   %si,0x5f(%esi)
    961a:	77 61                	ja     967d <portrng_empty+0x10bd>
    961c:	69 74 5f 73 72 76 28 	imul   $0x29287672,0x73(%edi,%ebx,2),%esi
    9623:	29 
    9624:	3a 20                	cmp    (%eax),%ah
    9626:	4f                   	dec    %edi
    9627:	4b                   	dec    %ebx
    9628:	00 46 61             	add    %al,0x61(%esi)
    962b:	69 6c 65 64 20 72 65 	imul   $0x67657220,0x64(%ebp,%eiz,2),%ebp
    9632:	67 
    9633:	69 73 74 65 72 69 6e 	imul   $0x6e697265,0x74(%ebx),%esi
    963a:	67 20 73 65          	and    %dh,0x65(%bp,%di)
    963e:	72 76                	jb     96b6 <portrng_empty+0x10f6>
    9640:	65 72 2e             	gs jb  9671 <portrng_empty+0x10b1>
    9643:	00 6e 65             	add    %ch,0x65(%esi)
    9646:	74 2f                	je     9677 <portrng_empty+0x10b7>
    9648:	74 63                	je     96ad <portrng_empty+0x10ed>
    964a:	70 00                	jo     964c <portrng_empty+0x108c>
    964c:	46                   	inc    %esi
    964d:	61                   	popa   
    964e:	69 6c 65 64 20 72 65 	imul   $0x67657220,0x64(%ebp,%eiz,2),%ebp
    9655:	67 
    9656:	69 73 74 65 72 69 6e 	imul   $0x6e697265,0x74(%ebx),%esi
    965d:	67 20 73 65          	and    %dh,0x65(%bp,%di)
    9661:	72 76                	jb     96d9 <portrng_empty+0x1119>
    9663:	69 63 65 2e 00 74 63 	imul   $0x6374002e,0x65(%ebx),%esp
    966a:	70 5f                	jo     96cb <portrng_empty+0x110b>
    966c:	73 65                	jae    96d3 <portrng_empty+0x1113>
    966e:	72 76                	jb     96e6 <portrng_empty+0x1126>
    9670:	69 63 65 5f 63 73 74 	imul   $0x7473635f,0x65(%ebx),%esp
    9677:	61                   	popa   
    9678:	74 65                	je     96df <portrng_empty+0x111f>
    967a:	5f                   	pop    %edi
    967b:	63 68 61             	arpl   %bp,0x61(%eax)
    967e:	6e                   	outsb  %ds:(%esi),(%dx)
    967f:	67 65 3a 20          	cmp    %gs:(%bx,%si),%ah
    9683:	43                   	inc    %ebx
    9684:	6f                   	outsl  %ds:(%esi),(%dx)
    9685:	6e                   	outsb  %ds:(%esi),(%dx)
    9686:	6e                   	outsb  %ds:(%esi),(%dx)
    9687:	65 63 74 69 6f       	arpl   %si,%gs:0x6f(%ecx,%ebp,2)
    968c:	6e                   	outsb  %ds:(%esi),(%dx)
    968d:	20 72 65             	and    %dh,0x65(%edx)
    9690:	73 65                	jae    96f7 <portrng_empty+0x1137>
    9692:	74 00                	je     9694 <portrng_empty+0x10d4>
    9694:	74 63                	je     96f9 <portrng_empty+0x1139>
    9696:	70 5f                	jo     96f7 <portrng_empty+0x1137>
    9698:	73 65                	jae    96ff <portrng_empty+0x113f>
    969a:	72 76                	jb     9712 <portrng_empty+0x1152>
    969c:	69 63 65 5f 63 73 74 	imul   $0x7473635f,0x65(%ebx),%esp
    96a3:	61                   	popa   
    96a4:	74 65                	je     970b <portrng_empty+0x114b>
    96a6:	5f                   	pop    %edi
    96a7:	63 68 61             	arpl   %bp,0x61(%eax)
    96aa:	6e                   	outsb  %ds:(%esi),(%dx)
    96ab:	67 65 3a 20          	cmp    %gs:(%bx,%si),%ah
    96af:	6f                   	outsl  %ds:(%esi),(%dx)
    96b0:	6c                   	insb   (%dx),%es:(%edi)
    96b1:	64 5f                	fs pop %edi
    96b3:	73 74                	jae    9729 <portrng_empty+0x1169>
    96b5:	61                   	popa   
    96b6:	74 65                	je     971d <portrng_empty+0x115d>
    96b8:	3d 25 64 20 6e       	cmp    $0x6e206425,%eax
    96bd:	73 74                	jae    9733 <portrng_empty+0x1173>
    96bf:	61                   	popa   
    96c0:	74 65                	je     9727 <portrng_empty+0x1167>
    96c2:	3d 25 64 20 63       	cmp    $0x63206425,%eax
    96c7:	6f                   	outsl  %ds:(%esi),(%dx)
    96c8:	6e                   	outsb  %ds:(%esi),(%dx)
    96c9:	6e                   	outsb  %ds:(%esi),(%dx)
    96ca:	2d 3e 72 65 73       	sub    $0x7365723e,%eax
    96cf:	65 74 3d             	gs je  970f <portrng_empty+0x114f>
    96d2:	25 64 00 00 00       	and    $0x64,%eax
    96d7:	00 74 63 70          	add    %dh,0x70(%ebx,%eiz,2)
    96db:	5f                   	pop    %edi
    96dc:	73 65                	jae    9743 <portrng_empty+0x1183>
    96de:	72 76                	jb     9756 <portrng_empty+0x1196>
    96e0:	69 63 65 5f 6c 73 74 	imul   $0x74736c5f,0x65(%ebx),%esp
    96e7:	5f                   	pop    %edi
    96e8:	63 73 74             	arpl   %si,0x74(%ebx)
    96eb:	61                   	popa   
    96ec:	74 65                	je     9753 <portrng_empty+0x1193>
    96ee:	5f                   	pop    %edi
    96ef:	63 68 61             	arpl   %bp,0x61(%eax)
    96f2:	6e                   	outsb  %ds:(%esi),(%dx)
    96f3:	67 65 28 29          	sub    %ch,%gs:(%bx,%di)
    96f7:	00 43 6c             	add    %al,0x6c(%ebx)
    96fa:	69 65 6e 74 20 77 69 	imul   $0x69772074,0x6e(%ebp),%esp
    9701:	74 68                	je     976b <portrng_empty+0x11ab>
    9703:	20 25 6c 75 20 61    	and    %ah,0x6120756c
    9709:	63 74 69 76          	arpl   %si,0x76(%ecx,%ebp,2)
    970d:	65 20 63 6f          	and    %ah,%gs:0x6f(%ebx)
    9711:	6e                   	outsb  %ds:(%esi),(%dx)
    9712:	6e                   	outsb  %ds:(%esi),(%dx)
    9713:	65 63 74 69 6f       	arpl   %si,%gs:0x6f(%ecx,%ebp,2)
    9718:	6e                   	outsb  %ds:(%esi),(%dx)
    9719:	73 20                	jae    973b <portrng_empty+0x117b>
    971b:	63 6c 6f 73          	arpl   %bp,0x73(%edi,%ebp,2)
    971f:	65 64 20 73 65       	gs and %dh,%fs:0x65(%ebx)
    9724:	73 73                	jae    9799 <portrng_empty+0x11d9>
    9726:	69 6f 6e 00 00 00 43 	imul   $0x43000000,0x6e(%edi),%ebp
    972d:	6c                   	insb   (%dx),%es:(%edi)
    972e:	69 65 6e 74 20 77 69 	imul   $0x69772074,0x6e(%ebp),%esp
    9735:	74 68                	je     979f <portrng_empty+0x11df>
    9737:	20 25 6c 75 20 61    	and    %ah,0x6120756c
    973d:	63 74 69 76          	arpl   %si,0x76(%ecx,%ebp,2)
    9741:	65 20 6c 69 73       	and    %ch,%gs:0x73(%ecx,%ebp,2)
    9746:	74 65                	je     97ad <portrng_empty+0x11ed>
    9748:	6e                   	outsb  %ds:(%esi),(%dx)
    9749:	65 72 73             	gs jb  97bf <portrng_empty+0x11ff>
    974c:	20 63 6c             	and    %ah,0x6c(%ebx)
    974f:	6f                   	outsl  %ds:(%esi),(%dx)
    9750:	73 65                	jae    97b7 <portrng_empty+0x11f7>
    9752:	64 20 73 65          	and    %dh,%fs:0x65(%ebx)
    9756:	73 73                	jae    97cb <portrng_empty+0x120b>
    9758:	69 6f 6e 00 74 63 70 	imul   $0x70637400,0x6e(%edi),%ebp
    975f:	5f                   	pop    %edi
    9760:	63 6f 6e             	arpl   %bp,0x6e(%edi)
    9763:	6e                   	outsb  %ds:(%esi),(%dx)
    9764:	5f                   	pop    %edi
    9765:	63 72 65             	arpl   %si,0x65(%edx)
    9768:	61                   	popa   
    9769:	74 65                	je     97d0 <portrng_empty+0x1210>
    976b:	3a 20                	cmp    (%eax),%ah
    976d:	6c                   	insb   (%dx),%es:(%edi)
    976e:	6f                   	outsl  %ds:(%esi),(%dx)
    976f:	63 61 6c             	arpl   %sp,0x6c(%ecx)
    9772:	3d 25 73 20 72       	cmp    $0x72207325,%eax
    9777:	65 6d                	gs insl (%dx),%es:(%edi)
    9779:	6f                   	outsl  %ds:(%esi),(%dx)
    977a:	74 65                	je     97e1 <portrng_empty+0x1221>
    977c:	3d 25 73 00 74       	cmp    $0x74007325,%eax
    9781:	63 70 5f             	arpl   %si,0x5f(%eax)
    9784:	63 6f 6e             	arpl   %bp,0x6e(%edi)
    9787:	6e                   	outsb  %ds:(%esi),(%dx)
    9788:	5f                   	pop    %edi
    9789:	72 65                	jb     97f0 <portrng_empty+0x1230>
    978b:	63 76 5f             	arpl   %si,0x5f(%esi)
    978e:	69 6d 70 6c 28 29 20 	imul   $0x2029286c,0x70(%ebp),%ebp
    9795:	2d 20 63 6f 6e       	sub    $0x6e6f6320,%eax
    979a:	6e                   	outsb  %ds:(%esi),(%dx)
    979b:	20 6e 6f             	and    %ch,0x6f(%esi)
    979e:	74 20                	je     97c0 <portrng_empty+0x1200>
    97a0:	66 6f                	outsw  %ds:(%esi),(%dx)
    97a2:	75 6e                	jne    9812 <portrng_empty+0x1252>
    97a4:	64 00 00             	add    %al,%fs:(%eax)
    97a7:	00 74 63 70          	add    %dh,0x70(%ebx,%eiz,2)
    97ab:	5f                   	pop    %edi
    97ac:	63 6f 6e             	arpl   %bp,0x6e(%edi)
    97af:	6e                   	outsb  %ds:(%esi),(%dx)
    97b0:	5f                   	pop    %edi
    97b1:	72 65                	jb     9818 <portrng_empty+0x1258>
    97b3:	63 76 5f             	arpl   %si,0x5f(%esi)
    97b6:	77 61                	ja     9819 <portrng_empty+0x1259>
    97b8:	69 74 5f 73 72 76 20 	imul   $0x2d207672,0x73(%edi,%ebx,2),%esi
    97bf:	2d 
    97c0:	20 64 61 74          	and    %ah,0x74(%ecx,%eiz,2)
    97c4:	61                   	popa   
    97c5:	5f                   	pop    %edi
    97c6:	72 65                	jb     982d <portrng_empty+0x126d>
    97c8:	63 65 69             	arpl   %sp,0x69(%ebp)
    97cb:	76 65                	jbe    9832 <portrng_empty+0x1272>
    97cd:	20 66 61             	and    %ah,0x61(%esi)
    97d0:	69 6c 65 64 00 00 00 	imul   $0x0,0x64(%ebp,%eiz,2),%ebp
    97d7:	00 
    97d8:	74 63                	je     983d <portrng_empty+0x127d>
    97da:	70 5f                	jo     983b <portrng_empty+0x127b>
    97dc:	63 6f 6e             	arpl   %bp,0x6e(%edi)
    97df:	6e                   	outsb  %ds:(%esi),(%dx)
    97e0:	5f                   	pop    %edi
    97e1:	72 65                	jb     9848 <portrng_empty+0x1288>
    97e3:	63 76 5f             	arpl   %si,0x5f(%esi)
    97e6:	77 61                	ja     9849 <portrng_empty+0x1289>
    97e8:	69 74 5f 73 72 76 20 	imul   $0x2d207672,0x73(%edi,%ebx,2),%esi
    97ef:	2d 
    97f0:	20 61 6c             	and    %ah,0x6c(%ecx)
    97f3:	6c                   	insb   (%dx),%es:(%edi)
    97f4:	6f                   	outsl  %ds:(%esi),(%dx)
    97f5:	63 61 74             	arpl   %sp,0x74(%ecx)
    97f8:	69 6f 6e 20 66 61 69 	imul   $0x69616620,0x6e(%edi),%ebp
    97ff:	6c                   	insb   (%dx),%es:(%edi)
    9800:	65 64 00 00          	gs add %al,%fs:(%eax)
    9804:	74 63                	je     9869 <portrng_empty+0x12a9>
    9806:	70 5f                	jo     9867 <portrng_empty+0x12a7>
    9808:	63 6f 6e             	arpl   %bp,0x6e(%edi)
    980b:	6e                   	outsb  %ds:(%esi),(%dx)
    980c:	5f                   	pop    %edi
    980d:	72 65                	jb     9874 <portrng_empty+0x12b4>
    980f:	63 76 5f             	arpl   %si,0x5f(%esi)
    9812:	77 61                	ja     9875 <portrng_empty+0x12b5>
    9814:	69 74 5f 73 72 76 20 	imul   $0x2d207672,0x73(%edi,%ebx,2),%esi
    981b:	2d 
    981c:	20 66 69             	and    %ah,0x69(%esi)
    981f:	6e                   	outsb  %ds:(%esi),(%dx)
    9820:	61                   	popa   
    9821:	6c                   	insb   (%dx),%es:(%edi)
    9822:	69 7a 65 20 66 61 69 	imul   $0x69616620,0x65(%edx),%edi
    9829:	6c                   	insb   (%dx),%es:(%edi)
    982a:	65 64 00 00          	gs add %al,%fs:(%eax)
    982e:	00 00                	add    %al,(%eax)
    9830:	74 63                	je     9895 <portrng_empty+0x12d5>
    9832:	70 5f                	jo     9893 <portrng_empty+0x12d3>
    9834:	63 6f 6e             	arpl   %bp,0x6e(%edi)
    9837:	6e                   	outsb  %ds:(%esi),(%dx)
    9838:	5f                   	pop    %edi
    9839:	72 65                	jb     98a0 <portrng_empty+0x12e0>
    983b:	63 76 5f             	arpl   %si,0x5f(%esi)
    983e:	77 61                	ja     98a1 <portrng_empty+0x12e1>
    9840:	69 74 5f 73 72 76 28 	imul   $0x29287672,0x73(%edi,%ebx,2),%esi
    9847:	29 
    9848:	3a 20                	cmp    (%eax),%ah
    984a:	72 73                	jb     98bf <portrng_empty+0x12ff>
    984c:	69 7a 65 3d 25 7a 75 	imul   $0x757a253d,0x65(%edx),%edi
    9853:	00 74 63 70          	add    %dh,0x70(%ebx,%eiz,2)
    9857:	5f                   	pop    %edi
    9858:	63 6f 6e             	arpl   %bp,0x6e(%edi)
    985b:	6e                   	outsb  %ds:(%esi),(%dx)
    985c:	5f                   	pop    %edi
    985d:	72 65                	jb     98c4 <portrng_empty+0x1304>
    985f:	63 76 5f             	arpl   %si,0x5f(%esi)
    9862:	77 61                	ja     98c5 <portrng_empty+0x1305>
    9864:	69 74 5f 73 72 76 20 	imul   $0x2d207672,0x73(%edi,%ebx,2),%esi
    986b:	2d 
    986c:	20 72 65             	and    %dh,0x65(%edx)
    986f:	63 76 5f             	arpl   %si,0x5f(%esi)
    9872:	69 6d 70 6c 20 66 61 	imul   $0x6166206c,0x70(%ebp),%ebp
    9879:	69 6c 65 64 20 72 63 	imul   $0x3d637220,0x64(%ebp,%eiz,2),%ebp
    9880:	3d 
    9881:	25 64 00 f8 4e       	and    $0x4ef80064,%eax
    9886:	00 00                	add    %al,(%eax)
    9888:	90                   	nop
    9889:	4e                   	dec    %esi
    988a:	00 00                	add    %al,(%eax)
    988c:	18 4d 00             	sbb    %cl,0x0(%ebp)
    988f:	00 40 4e             	add    %al,0x4e(%eax)
    9892:	00 00                	add    %al,(%eax)
    9894:	40                   	inc    %eax
    9895:	4c                   	dec    %esp
    9896:	00 00                	add    %al,(%eax)
    9898:	70 4d                	jo     98e7 <portrng_empty+0x1327>
    989a:	00 00                	add    %al,(%eax)
    989c:	c0 4c 00 00 d8       	rorb   $0xd8,0x0(%eax,%eax,1)
    98a1:	4b                   	dec    %ebx
    98a2:	00 00                	add    %al,(%eax)
    98a4:	78 4b                	js     98f1 <portrng_empty+0x1331>
    98a6:	00 00                	add    %al,(%eax)
    98a8:	70 50                	jo     98fa <portrng_empty+0x133a>
    98aa:	00 00                	add    %al,(%eax)
    98ac:	40                   	inc    %eax
    98ad:	4f                   	dec    %edi
    98ae:	00 00                	add    %al,(%eax)
    98b0:	73 65                	jae    9917 <portrng_empty+0x1357>
    98b2:	71 5f                	jno    9913 <portrng_empty+0x1353>
    98b4:	6e                   	outsb  %ds:(%esi),(%dx)
    98b5:	6f                   	outsl  %ds:(%esi),(%dx)
    98b6:	2e 63 00             	arpl   %ax,%cs:(%eax)
    98b9:	73 65                	jae    9920 <portrng_empty+0x1360>
    98bb:	67 2d 3e 6c 65 6e    	addr16 sub $0x6e656c3e,%eax
    98c1:	20 3e                	and    %bh,(%esi)
    98c3:	20 30                	and    %dh,(%eax)
    98c5:	00 73 61             	add    %dh,0x61(%ebx)
    98c8:	2d 3e 73 65 71       	sub    $0x7165733e,%eax
    98cd:	20 3d 3d 20 73 62    	and    %bh,0x6273203d
    98d3:	2d 3e 73 65 71       	sub    $0x7165733e,%eax
    98d8:	00 66 90             	add    %ah,-0x70(%esi)
    98db:	90                   	nop
    98dc:	73 65                	jae    9943 <portrng_empty+0x1383>
    98de:	71 5f                	jno    993f <portrng_empty+0x137f>
    98e0:	6e                   	outsb  %ds:(%esi),(%dx)
    98e1:	6f                   	outsl  %ds:(%esi),(%dx)
    98e2:	5f                   	pop    %edi
    98e3:	73 65                	jae    994a <portrng_empty+0x138a>
    98e5:	67 6d                	insl   (%dx),%es:(%di)
    98e7:	65 6e                	outsb  %gs:(%esi),(%dx)
    98e9:	74 5f                	je     994a <portrng_empty+0x138a>
    98eb:	61                   	popa   
    98ec:	63 63 65             	arpl   %sp,0x65(%ebx)
    98ef:	70 74                	jo     9965 <portrng_empty+0x13a5>
    98f1:	61                   	popa   
    98f2:	62 6c 65 28          	bound  %ebp,0x28(%ebp,%eiz,2)
    98f6:	63 6f 6e             	arpl   %bp,0x6e(%edi)
    98f9:	6e                   	outsb  %ds:(%esi),(%dx)
    98fa:	2c 20                	sub    $0x20,%al
    98fc:	73 65                	jae    9963 <portrng_empty+0x13a3>
    98fe:	67 29 00             	sub    %eax,(%bx,%si)
    9901:	00 00                	add    %al,(%eax)
    9903:	00 73 65             	add    %dh,0x65(%ebx)
    9906:	71 5f                	jno    9967 <portrng_empty+0x13a7>
    9908:	6e                   	outsb  %ds:(%esi),(%dx)
    9909:	6f                   	outsl  %ds:(%esi),(%dx)
    990a:	5f                   	pop    %edi
    990b:	73 65                	jae    9972 <portrng_empty+0x13b2>
    990d:	67 6d                	insl   (%dx),%es:(%di)
    990f:	65 6e                	outsb  %gs:(%esi),(%dx)
    9911:	74 5f                	je     9972 <portrng_empty+0x13b2>
    9913:	61                   	popa   
    9914:	63 63 65             	arpl   %sp,0x65(%ebx)
    9917:	70 74                	jo     998d <portrng_empty+0x13cd>
    9919:	61                   	popa   
    991a:	62 6c 65 28          	bound  %ebp,0x28(%ebp,%eiz,2)
    991e:	63 6f 6e             	arpl   %bp,0x6e(%edi)
    9921:	6e                   	outsb  %ds:(%esi),(%dx)
    9922:	2c 20                	sub    $0x20,%al
    9924:	73 61                	jae    9987 <portrng_empty+0x13c7>
    9926:	29 00                	sub    %eax,(%eax)
    9928:	73 65                	jae    998f <portrng_empty+0x13cf>
    992a:	71 5f                	jno    998b <portrng_empty+0x13cb>
    992c:	6e                   	outsb  %ds:(%esi),(%dx)
    992d:	6f                   	outsl  %ds:(%esi),(%dx)
    992e:	5f                   	pop    %edi
    992f:	73 65                	jae    9996 <portrng_empty+0x13d6>
    9931:	67 6d                	insl   (%dx),%es:(%di)
    9933:	65 6e                	outsb  %gs:(%esi),(%dx)
    9935:	74 5f                	je     9996 <portrng_empty+0x13d6>
    9937:	61                   	popa   
    9938:	63 63 65             	arpl   %sp,0x65(%ebx)
    993b:	70 74                	jo     99b1 <portrng_empty+0x13f1>
    993d:	61                   	popa   
    993e:	62 6c 65 28          	bound  %ebp,0x28(%ebp,%eiz,2)
    9942:	63 6f 6e             	arpl   %bp,0x6e(%edi)
    9945:	6e                   	outsb  %ds:(%esi),(%dx)
    9946:	2c 20                	sub    $0x20,%al
    9948:	73 62                	jae    99ac <portrng_empty+0x13ec>
    994a:	29 00                	sub    %eax,(%eax)
    994c:	74 63                	je     99b1 <portrng_empty+0x13f1>
    994e:	70 5f                	jo     99af <portrng_empty+0x13ef>
    9950:	69 6e 65 74 5f 65 76 	imul   $0x76655f74,0x65(%esi),%ebp
    9957:	5f                   	pop    %edi
    9958:	72 65                	jb     99bf <portrng_empty+0x13ff>
    995a:	63 76 28             	arpl   %si,0x28(%esi)
    995d:	29 00                	sub    %eax,(%eax)
    995f:	46                   	inc    %esi
    9960:	61                   	popa   
    9961:	69 6c 65 64 20 63 72 	imul   $0x65726320,0x64(%ebp,%eiz,2),%ebp
    9968:	65 
    9969:	61                   	popa   
    996a:	74 69                	je     99d5 <portrng_empty+0x1415>
    996c:	6e                   	outsb  %ds:(%esi),(%dx)
    996d:	67 20 50 44          	and    %dl,0x44(%bx,%si)
    9971:	55                   	push   %ebp
    9972:	2e 20 44 72 6f       	and    %al,%cs:0x6f(%edx,%esi,2)
    9977:	70 70                	jo     99e9 <portrng_empty+0x1429>
    9979:	65 64 2e 00 74 63 70 	gs fs add %dh,%cs:0x70(%ebx,%eiz,2)
    9980:	5f                   	pop    %edi
    9981:	72 65                	jb     99e8 <portrng_empty+0x1428>
    9983:	63 65 69             	arpl   %sp,0x69(%ebp)
    9986:	76 65                	jbe    99ed <portrng_empty+0x142d>
    9988:	64 5f                	fs pop %edi
    998a:	70 64                	jo     99f0 <portrng_empty+0x1430>
    998c:	75 28                	jne    99b6 <portrng_empty+0x13f6>
    998e:	29 00                	sub    %eax,(%eax)
    9990:	46                   	inc    %esi
    9991:	61                   	popa   
    9992:	69 6c 65 64 20 74 6f 	imul   $0x206f7420,0x64(%ebp,%eiz,2),%ebp
    9999:	20 
    999a:	74 72                	je     9a0e <portrng_empty+0x144e>
    999c:	61                   	popa   
    999d:	6e                   	outsb  %ds:(%esi),(%dx)
    999e:	73 6d                	jae    9a0d <portrng_empty+0x144d>
    99a0:	69 74 20 50 44 55 2e 	imul   $0x2e5544,0x50(%eax,%eiz,1),%esi
    99a7:	00 
    99a8:	74 63                	je     9a0d <portrng_empty+0x144d>
    99aa:	70 5f                	jo     9a0b <portrng_empty+0x144b>
    99ac:	69 6e 69 74 28 29 00 	imul   $0x292874,0x69(%esi),%ebp
    99b3:	74 63                	je     9a18 <portrng_empty+0x1458>
    99b5:	70 2e                	jo     99e5 <portrng_empty+0x1425>
    99b7:	63 00                	arpl   %ax,(%eax)
    99b9:	46                   	inc    %esi
    99ba:	61                   	popa   
    99bb:	69 6c 65 64 20 69 6e 	imul   $0x696e6920,0x64(%ebp,%eiz,2),%ebp
    99c2:	69 
    99c3:	74 69                	je     9a2e <portrng_empty+0x146e>
    99c5:	61                   	popa   
    99c6:	6c                   	insb   (%dx),%es:(%edi)
    99c7:	69 7a 69 6e 67 20 73 	imul   $0x7320676e,0x69(%edx),%edi
    99ce:	65 72 76             	gs jb  9a47 <portrng_empty+0x1487>
    99d1:	69 63 65 2e 00 74 63 	imul   $0x6374002e,0x65(%ebx),%esp
    99d8:	70 3a                	jo     9a14 <portrng_empty+0x1454>
    99da:	20 41 63             	and    %al,0x63(%ecx)
    99dd:	63 65 70             	arpl   %sp,0x70(%ebp)
    99e0:	74 69                	je     9a4b <portrng_empty+0x148b>
    99e2:	6e                   	outsb  %ds:(%esi),(%dx)
    99e3:	67 20 63 6f          	and    %ah,0x6f(%bp,%di)
    99e7:	6e                   	outsb  %ds:(%esi),(%dx)
    99e8:	6e                   	outsb  %ds:(%esi),(%dx)
    99e9:	65 63 74 69 6f       	arpl   %si,%gs:0x6f(%ecx,%ebp,2)
    99ee:	6e                   	outsb  %ds:(%esi),(%dx)
    99ef:	73 2e                	jae    9a1f <portrng_empty+0x145f>
    99f1:	0a 00                	or     (%eax),%al
    99f3:	90                   	nop
    99f4:	74 63                	je     9a59 <portrng_empty+0x1499>
    99f6:	70 5f                	jo     9a57 <portrng_empty+0x1497>
    99f8:	69 6e 65 74 5f 65 76 	imul   $0x76655f74,0x65(%esi),%ebp
    99ff:	5f                   	pop    %edi
    9a00:	72 65                	jb     9a67 <portrng_empty+0x14a7>
    9a02:	63 76 28             	arpl   %si,0x28(%esi)
    9a05:	29 20                	sub    %esp,(%eax)
    9a07:	2d 20 73 70 6c       	sub    $0x6c707320,%eax
    9a0c:	69 74 20 68 65 61 64 	imul   $0x65646165,0x68(%eax,%eiz,1),%esi
    9a13:	65 
    9a14:	72 2f                	jb     9a45 <portrng_empty+0x1485>
    9a16:	70 61                	jo     9a79 <portrng_empty+0x14b9>
    9a18:	79 6c                	jns    9a86 <portrng_empty+0x14c6>
    9a1a:	6f                   	outsl  %ds:(%esi),(%dx)
    9a1b:	61                   	popa   
    9a1c:	64 00 00             	add    %al,%fs:(%eax)
    9a1f:	00 70 64             	add    %dh,0x64(%eax)
    9a22:	75 5f                	jne    9a83 <portrng_empty+0x14c3>
    9a24:	72 61                	jb     9a87 <portrng_empty+0x14c7>
    9a26:	77 5f                	ja     9a87 <portrng_empty+0x14c7>
    9a28:	73 69                	jae    9a93 <portrng_empty+0x14d3>
    9a2a:	7a 65                	jp     9a91 <portrng_empty+0x14d1>
    9a2c:	20 3d 20 25 7a 75    	and    %bh,0x757a2520
    9a32:	20 3c 20             	and    %bh,(%eax,%eiz,1)
    9a35:	73 69                	jae    9aa0 <portrng_empty+0x14e0>
    9a37:	7a 65                	jp     9a9e <portrng_empty+0x14de>
    9a39:	6f                   	outsl  %ds:(%esi),(%dx)
    9a3a:	66 28 74 63 70       	data16 sub %dh,0x70(%ebx,%eiz,2)
    9a3f:	5f                   	pop    %edi
    9a40:	68 65 61 64 65       	push   $0x65646165
    9a45:	72 5f                	jb     9aa6 <portrng_empty+0x14e6>
    9a47:	74 29                	je     9a72 <portrng_empty+0x14b2>
    9a49:	20 3d 20 25 7a 75    	and    %bh,0x757a2520
    9a4f:	00 70 64             	add    %dh,0x64(%eax)
    9a52:	75 5f                	jne    9ab3 <portrng_empty+0x14f3>
    9a54:	72 61                	jb     9ab7 <portrng_empty+0x14f7>
    9a56:	77 5f                	ja     9ab7 <portrng_empty+0x14f7>
    9a58:	73 69                	jae    9ac3 <portrng_empty+0x1503>
    9a5a:	7a 65                	jp     9ac1 <portrng_empty+0x1501>
    9a5c:	20 3d 20 25 7a 75    	and    %bh,0x757a2520
    9a62:	20 3c 20             	and    %bh,(%eax,%eiz,1)
    9a65:	68 64 72 5f 73       	push   $0x735f7264
    9a6a:	69 7a 65 20 3d 20 25 	imul   $0x25203d20,0x65(%edx),%edi
    9a71:	7a 75                	jp     9ae8 <portrng_empty+0x1528>
    9a73:	00 68 64             	add    %ch,0x64(%eax)
    9a76:	72 5f                	jb     9ad7 <portrng_empty+0x1517>
    9a78:	73 69                	jae    9ae3 <portrng_empty+0x1523>
    9a7a:	7a 65                	jp     9ae1 <portrng_empty+0x1521>
    9a7c:	20 3d 20 25 7a 75    	and    %bh,0x757a2520
    9a82:	20 3c 20             	and    %bh,(%eax,%eiz,1)
    9a85:	73 69                	jae    9af0 <portrng_empty+0x1530>
    9a87:	7a 65                	jp     9aee <portrng_empty+0x152e>
    9a89:	6f                   	outsl  %ds:(%esi),(%dx)
    9a8a:	66 28 74 63 70       	data16 sub %dh,0x70(%ebx,%eiz,2)
    9a8f:	5f                   	pop    %edi
    9a90:	68 65 61 64 65       	push   $0x65646165
    9a95:	72 5f                	jb     9af6 <portrng_empty+0x1536>
    9a97:	74 29                	je     9ac2 <portrng_empty+0x1502>
    9a99:	20 3d 20 25 7a 75    	and    %bh,0x757a2520
    9a9f:	00 70 64             	add    %dh,0x64(%eax)
    9aa2:	75 5f                	jne    9b03 <portrng_empty+0x1543>
    9aa4:	72 61                	jb     9b07 <portrng_empty+0x1547>
    9aa6:	77 5f                	ja     9b07 <portrng_empty+0x1547>
    9aa8:	73 69                	jae    9b13 <portrng_empty+0x1553>
    9aaa:	7a 65                	jp     9b11 <portrng_empty+0x1551>
    9aac:	3d 25 7a 75 2c       	cmp    $0x2c757a25,%eax
    9ab1:	20 68 64             	and    %ch,0x64(%eax)
    9ab4:	72 5f                	jb     9b15 <portrng_empty+0x1555>
    9ab6:	73 69                	jae    9b21 <portrng_empty+0x1561>
    9ab8:	7a 65                	jp     9b1f <portrng_empty+0x155f>
    9aba:	3d 25 7a 75 00       	cmp    $0x757a25,%eax
    9abf:	00 4e 6f             	add    %cl,0x6f(%esi)
    9ac2:	74 20                	je     9ae4 <portrng_empty+0x1524>
    9ac4:	65 6e                	outsb  %gs:(%esi),(%dx)
    9ac6:	6f                   	outsl  %ds:(%esi),(%dx)
    9ac7:	75 67                	jne    9b30 <portrng_empty+0x1570>
    9ac9:	68 20 6d 65 6d       	push   $0x6d656d20
    9ace:	6f                   	outsl  %ds:(%esi),(%dx)
    9acf:	72 79                	jb     9b4a <portrng_empty+0x158a>
    9ad1:	2e 20 50 44          	and    %dl,%cs:0x44(%eax)
    9ad5:	55                   	push   %ebp
    9ad6:	20 64 72 6f          	and    %ah,0x6f(%edx,%esi,2)
    9ada:	70 70                	jo     9b4c <portrng_empty+0x158c>
    9adc:	65 64 2e 00 46 61    	gs fs add %al,%cs:0x61(%esi)
    9ae2:	69 6c 65 64 20 74 6f 	imul   $0x206f7420,0x64(%ebp,%eiz,2),%ebp
    9ae9:	20 
    9aea:	74 72                	je     9b5e <portrng_empty+0x159e>
    9aec:	61                   	popa   
    9aed:	6e                   	outsb  %ds:(%esi),(%dx)
    9aee:	73 6d                	jae    9b5d <portrng_empty+0x159d>
    9af0:	69 74 20 50 44 55 2e 	imul   $0x202e5544,0x50(%eax,%eiz,1),%esi
    9af7:	20 
    9af8:	4f                   	dec    %edi
    9af9:	75 74                	jne    9b6f <portrng_empty+0x15af>
    9afb:	20 6f 66             	and    %ch,0x66(%edi)
    9afe:	20 6d 65             	and    %ch,0x65(%ebp)
    9b01:	6d                   	insl   (%dx),%es:(%edi)
    9b02:	6f                   	outsl  %ds:(%esi),(%dx)
    9b03:	72 79                	jb     9b7e <portrng_empty+0x15be>
    9b05:	2e 00 00             	add    %al,%cs:(%eax)
    9b08:	74 63                	je     9b6d <portrng_empty+0x15ad>
    9b0a:	70 3a                	jo     9b46 <portrng_empty+0x1586>
    9b0c:	20 54 43 50          	and    %dl,0x50(%ebx,%eax,2)
    9b10:	20 28                	and    %ch,(%eax)
    9b12:	54                   	push   %esp
    9b13:	72 61                	jb     9b76 <portrng_empty+0x15b6>
    9b15:	6e                   	outsb  %ds:(%esi),(%dx)
    9b16:	73 6d                	jae    9b85 <portrng_empty+0x15c5>
    9b18:	69 73 73 69 6f 6e 20 	imul   $0x206e6f69,0x73(%ebx),%esi
    9b1f:	43                   	inc    %ebx
    9b20:	6f                   	outsl  %ds:(%esi),(%dx)
    9b21:	6e                   	outsb  %ds:(%esi),(%dx)
    9b22:	74 72                	je     9b96 <portrng_empty+0x15d6>
    9b24:	6f                   	outsl  %ds:(%esi),(%dx)
    9b25:	6c                   	insb   (%dx),%es:(%edi)
    9b26:	20 50 72             	and    %dl,0x72(%eax)
    9b29:	6f                   	outsl  %ds:(%esi),(%dx)
    9b2a:	74 6f                	je     9b9b <portrng_empty+0x15db>
    9b2c:	63 6f 6c             	arpl   %bp,0x6c(%edi)
    9b2f:	29 20                	sub    %esp,(%eax)
    9b31:	6e                   	outsb  %ds:(%esi),(%dx)
    9b32:	65 74 77             	gs je  9bac <portrng_empty+0x15ec>
    9b35:	6f                   	outsl  %ds:(%esi),(%dx)
    9b36:	72 6b                	jb     9ba3 <portrng_empty+0x15e3>
    9b38:	20 6d 6f             	and    %ch,0x6f(%ebp)
    9b3b:	64 75 6c             	fs jne 9baa <portrng_empty+0x15ea>
    9b3e:	65 0a 00             	or     %gs:(%eax),%al
    9b41:	00 00                	add    %al,(%eax)
    9b43:	00 74 63 70          	add    %dh,0x70(%ebx,%eiz,2)
    9b47:	3a 20                	cmp    (%eax),%ah
    9b49:	46                   	inc    %esi
    9b4a:	61                   	popa   
    9b4b:	69 6c 65 64 20 74 6f 	imul   $0x206f7420,0x64(%ebp,%eiz,2),%ebp
    9b52:	20 
    9b53:	69 6e 69 74 69 61 6c 	imul   $0x6c616974,0x69(%esi),%ebp
    9b5a:	69 7a 65 20 6c 6f 67 	imul   $0x676f6c20,0x65(%edx),%edi
    9b61:	2e 0a 00             	or     %cs:(%eax),%al
    9b64:	46                   	inc    %esi
    9b65:	61                   	popa   
    9b66:	69 6c 65 64 20 69 6e 	imul   $0x696e6920,0x64(%ebp,%eiz,2),%ebp
    9b6d:	69 
    9b6e:	74 69                	je     9bd9 <portrng_empty+0x1619>
    9b70:	61                   	popa   
    9b71:	6c                   	insb   (%dx),%es:(%edi)
    9b72:	69 7a 69 6e 67 20 63 	imul   $0x6320676e,0x69(%edx),%edi
    9b79:	6f                   	outsl  %ds:(%esi),(%dx)
    9b7a:	6e                   	outsb  %ds:(%esi),(%dx)
    9b7b:	6e                   	outsb  %ds:(%esi),(%dx)
    9b7c:	65 63 74 69 6f       	arpl   %si,%gs:0x6f(%ecx,%ebp,2)
    9b81:	6e                   	outsb  %ds:(%esi),(%dx)
    9b82:	73 00                	jae    9b84 <portrng_empty+0x15c4>
    9b84:	46                   	inc    %esi
    9b85:	61                   	popa   
    9b86:	69 6c 65 64 20 63 6f 	imul   $0x6e6f6320,0x64(%ebp,%eiz,2),%ebp
    9b8d:	6e 
    9b8e:	6e                   	outsb  %ds:(%esi),(%dx)
    9b8f:	65 63 74 69 6e       	arpl   %si,%gs:0x6e(%ecx,%ebp,2)
    9b94:	67 20 74 6f          	and    %dh,0x6f(%si)
    9b98:	20 69 6e             	and    %ch,0x6e(%ecx)
    9b9b:	74 65                	je     9c02 <portrng_empty+0x1642>
    9b9d:	72 6e                	jb     9c0d <portrng_empty+0x164d>
    9b9f:	65 74 20             	gs je  9bc2 <portrng_empty+0x1602>
    9ba2:	73 65                	jae    9c09 <portrng_empty+0x1649>
    9ba4:	72 76                	jb     9c1c <portrng_empty+0x165c>
    9ba6:	69 63 65 2e 00 74 63 	imul   $0x6374002e,0x65(%ebx),%esp
    9bad:	70 5f                	jo     9c0e <portrng_empty+0x164e>
    9baf:	74 65                	je     9c16 <portrng_empty+0x1656>
    9bb1:	73 74                	jae    9c27 <portrng_empty+0x1667>
    9bb3:	28 29                	sub    %ch,(%ecx)
    9bb5:	0a 00                	or     (%eax),%al
    9bb7:	90                   	nop
    9bb8:	23 23                	and    (%ebx),%esp
    9bba:	23 20                	and    (%eax),%esp
    9bbc:	25 73 3a 20 74       	and    $0x74203a73,%eax
    9bc1:	63 70 5f             	arpl   %si,0x5f(%eax)
    9bc4:	74 71                	je     9c37 <portrng_empty+0x1677>
    9bc6:	75 65                	jne    9c2d <portrng_empty+0x166d>
    9bc8:	75 65                	jne    9c2f <portrng_empty+0x166f>
    9bca:	5f                   	pop    %edi
    9bcb:	74 69                	je     9c36 <portrng_empty+0x1676>
    9bcd:	6d                   	insl   (%dx),%es:(%edi)
    9bce:	65 72 5f             	gs jb  9c30 <portrng_empty+0x1670>
    9bd1:	63 6c 65 61          	arpl   %bp,0x61(%ebp,%eiz,2)
    9bd5:	72 28                	jb     9bff <portrng_empty+0x163f>
    9bd7:	29 20                	sub    %esp,(%eax)
    9bd9:	62 65 67             	bound  %esp,0x67(%ebp)
    9bdc:	69 6e 00 00 23 23 23 	imul   $0x23232300,0x0(%esi),%ebp
    9be3:	20 25 73 3a 20 74    	and    %ah,0x74203a73
    9be9:	63 70 5f             	arpl   %si,0x5f(%eax)
    9bec:	74 71                	je     9c5f <portrng_empty+0x169f>
    9bee:	75 65                	jne    9c55 <portrng_empty+0x1695>
    9bf0:	75 65                	jne    9c57 <portrng_empty+0x1697>
    9bf2:	5f                   	pop    %edi
    9bf3:	74 69                	je     9c5e <portrng_empty+0x169e>
    9bf5:	6d                   	insl   (%dx),%es:(%edi)
    9bf6:	65 72 5f             	gs jb  9c58 <portrng_empty+0x1698>
    9bf9:	63 6c 65 61          	arpl   %bp,0x61(%ebp,%eiz,2)
    9bfd:	72 28                	jb     9c27 <portrng_empty+0x1667>
    9bff:	29 20                	sub    %esp,(%eax)
    9c01:	65 6e                	outsb  %gs:(%esi),(%dx)
    9c03:	64 00 00             	add    %al,%fs:(%eax)
    9c06:	00 00                	add    %al,(%eax)
    9c08:	23 23                	and    (%ebx),%esp
    9c0a:	23 20                	and    (%eax),%esp
    9c0c:	25 73 3a 20 74       	and    $0x74203a73,%eax
    9c11:	63 70 5f             	arpl   %si,0x5f(%eax)
    9c14:	74 71                	je     9c87 <portrng_empty+0x16c7>
    9c16:	75 65                	jne    9c7d <portrng_empty+0x16bd>
    9c18:	75 65                	jne    9c7f <portrng_empty+0x16bf>
    9c1a:	5f                   	pop    %edi
    9c1b:	74 69                	je     9c86 <portrng_empty+0x16c6>
    9c1d:	6d                   	insl   (%dx),%es:(%edi)
    9c1e:	65 72 5f             	gs jb  9c80 <portrng_empty+0x16c0>
    9c21:	73 65                	jae    9c88 <portrng_empty+0x16c8>
    9c23:	74 28                	je     9c4d <portrng_empty+0x168d>
    9c25:	29 20                	sub    %esp,(%eax)
    9c27:	62 65 67             	bound  %esp,0x67(%ebp)
    9c2a:	69 6e 00 00 00 00 23 	imul   $0x23000000,0x0(%esi),%ebp
    9c31:	23 23                	and    (%ebx),%esp
    9c33:	20 25 73 3a 20 74    	and    %ah,0x74203a73
    9c39:	63 70 5f             	arpl   %si,0x5f(%eax)
    9c3c:	74 71                	je     9caf <portrng_empty+0x16ef>
    9c3e:	75 65                	jne    9ca5 <portrng_empty+0x16e5>
    9c40:	75 65                	jne    9ca7 <portrng_empty+0x16e7>
    9c42:	5f                   	pop    %edi
    9c43:	74 69                	je     9cae <portrng_empty+0x16ee>
    9c45:	6d                   	insl   (%dx),%es:(%edi)
    9c46:	65 72 5f             	gs jb  9ca8 <portrng_empty+0x16e8>
    9c49:	73 65                	jae    9cb0 <portrng_empty+0x16f0>
    9c4b:	74 28                	je     9c75 <portrng_empty+0x16b5>
    9c4d:	29 20                	sub    %esp,(%eax)
    9c4f:	65 6e                	outsb  %gs:(%esi),(%dx)
    9c51:	64 00 00             	add    %al,%fs:(%eax)
    9c54:	25 73 3a 20 74       	and    $0x74203a73,%eax
    9c59:	63 70 5f             	arpl   %si,0x5f(%eax)
    9c5c:	63 6f 6e             	arpl   %bp,0x6e(%edi)
    9c5f:	6e                   	outsb  %ds:(%esi),(%dx)
    9c60:	5f                   	pop    %edi
    9c61:	74 72                	je     9cd5 <portrng_empty+0x1715>
    9c63:	61                   	popa   
    9c64:	6e                   	outsb  %ds:(%esi),(%dx)
    9c65:	73 6d                	jae    9cd4 <portrng_empty+0x1714>
    9c67:	69 74 5f 73 65 67 6d 	imul   $0x656d6765,0x73(%edi,%ebx,2),%esi
    9c6e:	65 
    9c6f:	6e                   	outsb  %ds:(%esi),(%dx)
    9c70:	74 28                	je     9c9a <portrng_empty+0x16da>
    9c72:	25 70 2c 20 25       	and    $0x25202c70,%eax
    9c77:	70 29                	jo     9ca2 <portrng_empty+0x16e2>
    9c79:	00 00                	add    %al,(%eax)
    9c7b:	00 74 63 70          	add    %dh,0x70(%ebx,%eiz,2)
    9c7f:	5f                   	pop    %edi
    9c80:	74 72                	je     9cf4 <portrng_empty+0x1734>
    9c82:	61                   	popa   
    9c83:	6e                   	outsb  %ds:(%esi),(%dx)
    9c84:	73 6d                	jae    9cf3 <portrng_empty+0x1733>
    9c86:	69 74 5f 73 65 67 6d 	imul   $0x656d6765,0x73(%edi,%ebx,2),%esi
    9c8d:	65 
    9c8e:	6e                   	outsb  %ds:(%esi),(%dx)
    9c8f:	74 28                	je     9cb9 <portrng_empty+0x16f9>
    9c91:	6c                   	insb   (%dx),%es:(%edi)
    9c92:	3a 28                	cmp    (%eax),%ch
    9c94:	25 75 29 2c 66       	and    $0x662c2975,%eax
    9c99:	3a 28                	cmp    (%eax),%ch
    9c9b:	25 75 29 2c 20       	and    $0x202c2975,%eax
    9ca0:	25 70 29 00 25       	and    $0x25002970,%eax
    9ca5:	73 3a                	jae    9ce1 <portrng_empty+0x1721>
    9ca7:	20 73 6e             	and    %dh,0x6e(%ebx)
    9caa:	64 5f                	fs pop %edi
    9cac:	62 75 66             	bound  %esi,0x66(%ebp)
    9caf:	5f                   	pop    %edi
    9cb0:	73 65                	jae    9d17 <portrng_empty+0x1757>
    9cb2:	71 6c                	jno    9d20 <portrng_empty+0x1760>
    9cb4:	65 6e                	outsb  %gs:(%esi),(%dx)
    9cb6:	20 3d 20 25 7a 75    	and    %bh,0x757a2520
    9cbc:	2c 20                	sub    $0x20,%al
    9cbe:	53                   	push   %ebx
    9cbf:	4e                   	dec    %esi
    9cc0:	44                   	inc    %esp
    9cc1:	2e 57                	cs push %edi
    9cc3:	4e                   	dec    %esi
    9cc4:	44                   	inc    %esp
    9cc5:	20 3d 20 25 75 2c    	and    %bh,0x2c752520
    9ccb:	20 78 66             	and    %bh,0x66(%eax)
    9cce:	65 72 5f             	gs jb  9d30 <portrng_empty+0x1770>
    9cd1:	73 65                	jae    9d38 <portrng_empty+0x1778>
    9cd3:	71 6c                	jno    9d41 <portrng_empty+0x1781>
    9cd5:	65 6e                	outsb  %gs:(%esi),(%dx)
    9cd7:	20 3d 20 25 7a 75    	and    %bh,0x757a2520
    9cdd:	00 00                	add    %al,(%eax)
    9cdf:	00 25 73 3a 20 74    	add    %ah,0x74203a73
    9ce5:	63 70 5f             	arpl   %si,0x5f(%eax)
    9ce8:	74 71                	je     9d5b <portrng_empty+0x179b>
    9cea:	75 65                	jne    9d51 <portrng_empty+0x1791>
    9cec:	75 65                	jne    9d53 <portrng_empty+0x1793>
    9cee:	5f                   	pop    %edi
    9cef:	61                   	popa   
    9cf0:	63 6b 5f             	arpl   %bp,0x5f(%ebx)
    9cf3:	72 65                	jb     9d5a <portrng_empty+0x179a>
    9cf5:	63 65 69             	arpl   %sp,0x69(%ebp)
    9cf8:	76 65                	jbe    9d5f <portrng_empty+0x179f>
    9cfa:	64 28 25 70 29 00 53 	sub    %ah,%fs:0x53002970
    9d01:	4e                   	dec    %esi
    9d02:	44                   	inc    %esp
    9d03:	2e 55                	cs push %ebp
    9d05:	4e                   	dec    %esi
    9d06:	41                   	inc    %ecx
    9d07:	3d 25 75 20 53       	cmp    $0x53207525,%eax
    9d0c:	45                   	inc    %ebp
    9d0d:	47                   	inc    %edi
    9d0e:	2e 53                	cs push %ebx
    9d10:	45                   	inc    %ebp
    9d11:	51                   	push   %ecx
    9d12:	3d 25 75 20 53       	cmp    $0x53207525,%eax
    9d17:	45                   	inc    %ebp
    9d18:	47                   	inc    %edi
    9d19:	2e 4c                	cs dec %esp
    9d1b:	45                   	inc    %ebp
    9d1c:	4e                   	dec    %esi
    9d1d:	3d 25 75 00 00       	cmp    $0x7525,%eax
    9d22:	00 00                	add    %al,(%eax)
    9d24:	23 23                	and    (%ebx),%esp
    9d26:	23 20                	and    (%eax),%esp
    9d28:	25 73 3a 20 72       	and    $0x72203a73,%eax
    9d2d:	65 74 72             	gs je  9da2 <portrng_empty+0x17e2>
    9d30:	61                   	popa   
    9d31:	6e                   	outsb  %ds:(%esi),(%dx)
    9d32:	73 6d                	jae    9da1 <portrng_empty+0x17e1>
    9d34:	69 74 5f 74 69 6d 65 	imul   $0x6f656d69,0x74(%edi,%ebx,2),%esi
    9d3b:	6f 
    9d3c:	75 74                	jne    9db2 <portrng_empty+0x17f2>
    9d3e:	5f                   	pop    %edi
    9d3f:	66 75 6e             	data16 jne 9db0 <portrng_empty+0x17f0>
    9d42:	63 28                	arpl   %bp,(%eax)
    9d44:	25 70 29 00 23       	and    $0x23002970,%eax
    9d49:	23 23                	and    (%ebx),%esp
    9d4b:	20 25 73 3a 20 72    	and    %ah,0x72203a73
    9d51:	65 74 72             	gs je  9dc6 <portrng_empty+0x1806>
    9d54:	61                   	popa   
    9d55:	6e                   	outsb  %ds:(%esi),(%dx)
    9d56:	73 6d                	jae    9dc5 <portrng_empty+0x1805>
    9d58:	69 74 74 69 6e 67 20 	imul   $0x7320676e,0x69(%esp,%esi,2),%esi
    9d5f:	73 
    9d60:	65 67 6d             	gs insl (%dx),%es:(%di)
    9d63:	65 6e                	outsb  %gs:(%esi),(%dx)
    9d65:	74 00                	je     9d67 <portrng_empty+0x17a7>
    9d67:	00 23                	add    %ah,(%ebx)
    9d69:	23 23                	and    (%ebx),%esp
    9d6b:	20 25 73 3a 20 72    	and    %ah,0x72203a73
    9d71:	65 74 72             	gs je  9de6 <portrng_empty+0x1826>
    9d74:	61                   	popa   
    9d75:	6e                   	outsb  %ds:(%esi),(%dx)
    9d76:	73 6d                	jae    9de5 <portrng_empty+0x1825>
    9d78:	69 74 5f 74 69 6d 65 	imul   $0x6f656d69,0x74(%edi,%ebx,2),%esi
    9d7f:	6f 
    9d80:	75 74                	jne    9df6 <portrng_empty+0x1836>
    9d82:	5f                   	pop    %edi
    9d83:	66 75 6e             	data16 jne 9df4 <portrng_empty+0x1834>
    9d86:	63 28                	arpl   %bp,(%eax)
    9d88:	25 70 29 20 65       	and    $0x65202970,%eax
    9d8d:	6e                   	outsb  %ds:(%esi),(%dx)
    9d8e:	64 00 25 73 3a 20 74 	add    %ah,%fs:0x74203a73
    9d95:	63 70 5f             	arpl   %si,0x5f(%eax)
    9d98:	74 71                	je     9e0b <portrng_empty+0x184b>
    9d9a:	75 65                	jne    9e01 <portrng_empty+0x1841>
    9d9c:	75 65                	jne    9e03 <portrng_empty+0x1843>
    9d9e:	5f                   	pop    %edi
    9d9f:	73 65                	jae    9e06 <portrng_empty+0x1846>
    9da1:	67 28 25             	sub    %ah,(%di)
    9da4:	70 2c                	jo     9dd2 <portrng_empty+0x1812>
    9da6:	20 25 70 29 00 4d    	and    %ah,0x4d002970
    9dac:	65 6d                	gs insl (%dx),%es:(%edi)
    9dae:	6f                   	outsl  %ds:(%esi),(%dx)
    9daf:	72 79                	jb     9e2a <portrng_empty+0x186a>
    9db1:	20 61 6c             	and    %ah,0x6c(%ecx)
    9db4:	6c                   	insb   (%dx),%es:(%edi)
    9db5:	6f                   	outsl  %ds:(%esi),(%dx)
    9db6:	63 61 74             	arpl   %sp,0x74(%ecx)
    9db9:	69 6f 6e 20 66 61 69 	imul   $0x69616620,0x6e(%edi),%ebp
    9dc0:	6c                   	insb   (%dx),%es:(%edi)
    9dc1:	65 64 2e 00 53 45    	gs fs add %dl,%cs:0x45(%ebx)
    9dc7:	47                   	inc    %edi
    9dc8:	2e 53                	cs push %ebx
    9dca:	45                   	inc    %ebp
    9dcb:	51                   	push   %ecx
    9dcc:	3d 25 75 2c 20       	cmp    $0x202c7525,%eax
    9dd1:	53                   	push   %ebx
    9dd2:	45                   	inc    %ebp
    9dd3:	47                   	inc    %edi
    9dd4:	2e 57                	cs push %edi
    9dd6:	4e                   	dec    %esi
    9dd7:	44                   	inc    %esp
    9dd8:	3d 25 75 00 74       	cmp    $0x74007525,%eax
    9ddd:	63 70 5f             	arpl   %si,0x5f(%eax)
    9de0:	74 71                	je     9e53 <portrng_empty+0x1893>
    9de2:	75 65                	jne    9e49 <portrng_empty+0x1889>
    9de4:	75 65                	jne    9e4b <portrng_empty+0x188b>
    9de6:	5f                   	pop    %edi
    9de7:	63 74 72 6c          	arpl   %si,0x6c(%edx,%esi,2)
    9deb:	5f                   	pop    %edi
    9dec:	73 65                	jae    9e53 <portrng_empty+0x1893>
    9dee:	67 28 25             	sub    %ah,(%di)
    9df1:	70 2c                	jo     9e1f <portrng_empty+0x185f>
    9df3:	20 25 75 29 00 25    	and    %ah,0x25002975
    9df9:	73 3a                	jae    9e35 <portrng_empty+0x1875>
    9dfb:	20 74 63 70          	and    %dh,0x70(%ebx,%eiz,2)
    9dff:	5f                   	pop    %edi
    9e00:	74 71                	je     9e73 <portrng_empty+0x18b3>
    9e02:	75 65                	jne    9e69 <portrng_empty+0x18a9>
    9e04:	75 65                	jne    9e6b <portrng_empty+0x18ab>
    9e06:	5f                   	pop    %edi
    9e07:	6e                   	outsb  %ds:(%esi),(%dx)
    9e08:	65 77 5f             	gs ja  9e6a <portrng_empty+0x18aa>
    9e0b:	64 61                	fs popa 
    9e0d:	74 61                	je     9e70 <portrng_empty+0x18b0>
    9e0f:	28 29                	sub    %ch,(%ecx)
    9e11:	00 4d 65             	add    %cl,0x65(%ebp)
    9e14:	6d                   	insl   (%dx),%es:(%edi)
    9e15:	6f                   	outsl  %ds:(%esi),(%dx)
    9e16:	72 79                	jb     9e91 <portrng_empty+0x18d1>
    9e18:	20 61 6c             	and    %ah,0x6c(%ecx)
    9e1b:	6c                   	insb   (%dx),%es:(%edi)
    9e1c:	6f                   	outsl  %ds:(%esi),(%dx)
    9e1d:	63 61 74             	arpl   %sp,0x74(%ecx)
    9e20:	69 6f 6e 20 66 61 69 	imul   $0x69616620,0x6e(%edi),%ebp
    9e27:	6c                   	insb   (%dx),%es:(%edi)
    9e28:	75 72                	jne    9e9c <portrng_empty+0x18dc>
    9e2a:	65 2e 00 25 73 3a 20 	gs add %ah,%cs:0x53203a73
    9e31:	53 
    9e32:	65 6e                	outsb  %gs:(%esi),(%dx)
    9e34:	64 69 6e 67 20 6f 75 	imul   $0x74756f20,%fs:0x67(%esi),%ebp
    9e3b:	74 
    9e3c:	20 46 49             	and    %al,0x49(%esi)
    9e3f:	4e                   	dec    %esi
    9e40:	2e 00 46 69          	add    %al,%cs:0x69(%esi)
    9e44:	6e                   	outsb  %ds:(%esi),(%dx)
    9e45:	20 68 61             	and    %ch,0x61(%eax)
    9e48:	73 20                	jae    9e6a <portrng_empty+0x18aa>
    9e4a:	62 65 65             	bound  %esp,0x65(%ebp)
    9e4d:	6e                   	outsb  %ds:(%esi),(%dx)
    9e4e:	20 61 63             	and    %ah,0x63(%ecx)
    9e51:	6b 65 64 00          	imul   $0x0,0x64(%ebp),%esp
    9e55:	4e                   	dec    %esi
    9e56:	6f                   	outsl  %ds:(%esi),(%dx)
    9e57:	74 68                	je     9ec1 <portrng_empty+0x1901>
    9e59:	69 6e 67 20 74 6f 20 	imul   $0x206f7420,0x67(%esi),%ebp
    9e60:	72 65                	jb     9ec7 <portrng_empty+0x1907>
    9e62:	74 72                	je     9ed6 <portrng_empty+0x1916>
    9e64:	61                   	popa   
    9e65:	6e                   	outsb  %ds:(%esi),(%dx)
    9e66:	73 6d                	jae    9ed5 <portrng_empty+0x1915>
    9e68:	69 74 00 6e 6f 6e 62 	imul   $0x6c626e6f,0x6e(%eax,%eax,1),%esi
    9e6f:	6c 
    9e70:	6f                   	outsl  %ds:(%esi),(%dx)
    9e71:	63 6b 00             	arpl   %bp,0x0(%ebx)
    9e74:	6e                   	outsb  %ds:(%esi),(%dx)
    9e75:	6f                   	outsl  %ds:(%esi),(%dx)
    9e76:	6e                   	outsb  %ds:(%esi),(%dx)
    9e77:	65 00 74 63 70       	add    %dh,%gs:0x70(%ebx,%eiz,2)
    9e7c:	5f                   	pop    %edi
    9e7d:	75 63                	jne    9ee2 <portrng_empty+0x1922>
    9e7f:	5f                   	pop    %edi
    9e80:	6f                   	outsl  %ds:(%esi),(%dx)
    9e81:	70 65                	jo     9ee8 <portrng_empty+0x1928>
    9e83:	6e                   	outsb  %ds:(%esi),(%dx)
    9e84:	20 2d 3e 20 25 70    	and    %ch,0x7025203e
    9e8a:	00 75 63             	add    %dh,0x63(%ebp)
    9e8d:	61                   	popa   
    9e8e:	6c                   	insb   (%dx),%es:(%edi)
    9e8f:	6c                   	insb   (%dx),%es:(%edi)
    9e90:	2e 63 00             	arpl   %ax,%cs:(%eax)
    9e93:	6e                   	outsb  %ds:(%esi),(%dx)
    9e94:	63 6f 6e             	arpl   %bp,0x6e(%edi)
    9e97:	6e                   	outsb  %ds:(%esi),(%dx)
    9e98:	2d 3e 63 73 74       	sub    $0x7473633e,%eax
    9e9d:	61                   	popa   
    9e9e:	74 65                	je     9f05 <portrng_empty+0x1945>
    9ea0:	20 3d 3d 20 73 74    	and    %bh,0x7473203d
    9ea6:	5f                   	pop    %edi
    9ea7:	63 6c 6f 73          	arpl   %bp,0x73(%edi,%ebp,2)
    9eab:	65 64 00 61 63       	gs add %ah,%fs:0x63(%ecx)
    9eb0:	74 69                	je     9f1b <portrng_empty+0x195b>
    9eb2:	76 65                	jbe    9f19 <portrng_empty+0x1959>
    9eb4:	00 74 63 70          	add    %dh,0x70(%ebx,%eiz,2)
    9eb8:	5f                   	pop    %edi
    9eb9:	75 63                	jne    9f1e <portrng_empty+0x195e>
    9ebb:	5f                   	pop    %edi
    9ebc:	6f                   	outsl  %ds:(%esi),(%dx)
    9ebd:	70 65                	jo     9f24 <portrng_empty+0x1964>
    9ebf:	6e                   	outsb  %ds:(%esi),(%dx)
    9ec0:	28 25 70 2c 20 25    	sub    %ah,0x25202c70
    9ec6:	73 2c                	jae    9ef4 <portrng_empty+0x1934>
    9ec8:	20 25 73 2c 20 25    	and    %ah,0x25202c73
    9ece:	70 29                	jo     9ef9 <portrng_empty+0x1939>
    9ed0:	00 70 61             	add    %dh,0x61(%eax)
    9ed3:	73 73                	jae    9f48 <portrng_empty+0x1988>
    9ed5:	69 76 65 00 25 73 3a 	imul   $0x3a732500,0x65(%esi),%esi
    9edc:	20 74 63 70          	and    %dh,0x70(%ebx,%eiz,2)
    9ee0:	5f                   	pop    %edi
    9ee1:	75 63                	jne    9f46 <portrng_empty+0x1986>
    9ee3:	5f                   	pop    %edi
    9ee4:	73 65                	jae    9f4b <portrng_empty+0x198b>
    9ee6:	6e                   	outsb  %ds:(%esi),(%dx)
    9ee7:	64 28 29             	sub    %ch,%fs:(%ecx)
    9eea:	00 25 73 3a 20 62    	add    %ah,0x62203a73
    9ef0:	75 66                	jne    9f58 <portrng_empty+0x1998>
    9ef2:	5f                   	pop    %edi
    9ef3:	66 72 65             	data16 jb 9f5b <portrng_empty+0x199b>
    9ef6:	65 20 3d 3d 20 30 2c 	and    %bh,%gs:0x2c30203d
    9efd:	20 77 61             	and    %dh,0x61(%edi)
    9f00:	69 74 69 6e 67 2e 00 	imul   $0x25002e67,0x6e(%ecx,%ebp,2),%esi
    9f07:	25 
    9f08:	73 3a                	jae    9f44 <portrng_empty+0x1984>
    9f0a:	20 74 63 70          	and    %dh,0x70(%ebx,%eiz,2)
    9f0e:	5f                   	pop    %edi
    9f0f:	75 63                	jne    9f74 <portrng_empty+0x19b4>
    9f11:	5f                   	pop    %edi
    9f12:	72 65                	jb     9f79 <portrng_empty+0x19b9>
    9f14:	63 65 69             	arpl   %sp,0x69(%ebp)
    9f17:	76 65                	jbe    9f7e <portrng_empty+0x19be>
    9f19:	28 29                	sub    %ch,(%ecx)
    9f1b:	00 25 73 3a 20 74    	add    %ah,0x74203a73
    9f21:	63 70 5f             	arpl   %si,0x5f(%eax)
    9f24:	75 63                	jne    9f89 <portrng_empty+0x19c9>
    9f26:	5f                   	pop    %edi
    9f27:	63 6c 6f 73          	arpl   %bp,0x73(%edi,%ebp,2)
    9f2b:	65 28 25 70 29 00 74 	sub    %ah,%gs:0x74002970
    9f32:	63 70 5f             	arpl   %si,0x5f(%eax)
    9f35:	75 63                	jne    9f9a <portrng_empty+0x19da>
    9f37:	5f                   	pop    %edi
    9f38:	63 6c 6f 73          	arpl   %bp,0x73(%edi,%ebp,2)
    9f3c:	65 20 2d 20 45 4e 4f 	and    %ch,%gs:0x4f4e4520
    9f43:	54                   	push   %esp
    9f44:	45                   	inc    %ebp
    9f45:	58                   	pop    %eax
    9f46:	49                   	dec    %ecx
    9f47:	53                   	push   %ebx
    9f48:	54                   	push   %esp
    9f49:	00 74 63 70          	add    %dh,0x70(%ebx,%eiz,2)
    9f4d:	5f                   	pop    %edi
    9f4e:	75 63                	jne    9fb3 <portrng_empty+0x19f3>
    9f50:	5f                   	pop    %edi
    9f51:	63 6c 6f 73          	arpl   %bp,0x73(%edi,%ebp,2)
    9f55:	65 20 2d 20 45 43 4c 	and    %ch,%gs:0x4c434520
    9f5c:	4f                   	dec    %edi
    9f5d:	53                   	push   %ebx
    9f5e:	49                   	dec    %ecx
    9f5f:	4e                   	dec    %esi
    9f60:	47                   	inc    %edi
    9f61:	00 74 63 70          	add    %dh,0x70(%ebx,%eiz,2)
    9f65:	5f                   	pop    %edi
    9f66:	75 63                	jne    9fcb <portrng_empty+0x1a0b>
    9f68:	5f                   	pop    %edi
    9f69:	61                   	popa   
    9f6a:	62 6f 72             	bound  %ebp,0x72(%edi)
    9f6d:	74 28                	je     9f97 <portrng_empty+0x19d7>
    9f6f:	29 00                	sub    %eax,(%eax)
    9f71:	74 63                	je     9fd6 <portrng_empty+0x1a16>
    9f73:	70 5f                	jo     9fd4 <portrng_empty+0x1a14>
    9f75:	75 63                	jne    9fda <portrng_empty+0x1a1a>
    9f77:	5f                   	pop    %edi
    9f78:	73 74                	jae    9fee <portrng_empty+0x1a2e>
    9f7a:	61                   	popa   
    9f7b:	74 75                	je     9ff2 <portrng_empty+0x1a32>
    9f7d:	73 28                	jae    9fa7 <portrng_empty+0x19e7>
    9f7f:	29 00                	sub    %eax,(%eax)
    9f81:	74 63                	je     9fe6 <portrng_empty+0x1a26>
    9f83:	70 5f                	jo     9fe4 <portrng_empty+0x1a24>
    9f85:	75 63                	jne    9fea <portrng_empty+0x1a2a>
    9f87:	5f                   	pop    %edi
    9f88:	64 65 6c             	fs gs insb (%dx),%es:(%edi)
    9f8b:	65 74 65             	gs je  9ff3 <portrng_empty+0x1a33>
    9f8e:	28 29                	sub    %ch,(%ecx)
    9f90:	00 74 63 70          	add    %dh,0x70(%ebx,%eiz,2)
    9f94:	5f                   	pop    %edi
    9f95:	75 63                	jne    9ffa <portrng_empty+0x1a3a>
    9f97:	5f                   	pop    %edi
    9f98:	73 65                	jae    9fff <portrng_empty+0x1a3f>
    9f9a:	74 5f                	je     9ffb <portrng_empty+0x1a3b>
    9f9c:	63 62 28             	arpl   %sp,0x28(%edx)
    9f9f:	25 70 2c 20 25       	and    $0x25202c70,%eax
    9fa4:	70 2c                	jo     9fd2 <portrng_empty+0x1a12>
    9fa6:	20 25 70 29 00 4e    	and    %ah,0x4e002970
    9fac:	6f                   	outsl  %ds:(%esi),(%dx)
    9fad:	20 63 6f             	and    %ah,0x6f(%ebx)
    9fb0:	6e                   	outsb  %ds:(%esi),(%dx)
    9fb1:	6e                   	outsb  %ds:(%esi),(%dx)
    9fb2:	65 63 74 69 6f       	arpl   %si,%gs:0x6f(%ecx,%ebp,2)
    9fb7:	6e                   	outsb  %ds:(%esi),(%dx)
    9fb8:	20 66 6f             	and    %ah,0x6f(%esi)
    9fbb:	75 6e                	jne    a02b <portrng_empty+0x1a6b>
    9fbd:	64 2e 00 74 63 70    	fs add %dh,%cs:0x70(%ebx,%eiz,2)
    9fc3:	5f                   	pop    %edi
    9fc4:	74 6f                	je     a035 <portrng_empty+0x1a75>
    9fc6:	5f                   	pop    %edi
    9fc7:	75 73                	jne    a03c <portrng_empty+0x1a7c>
    9fc9:	65 72 28             	gs jb  9ff4 <portrng_empty+0x1a34>
    9fcc:	29 00                	sub    %eax,(%eax)
    9fce:	66 90                	xchg   %ax,%ax
    9fd0:	74 63                	je     a035 <portrng_empty+0x1a75>
    9fd2:	70 5f                	jo     a033 <portrng_empty+0x1a73>
    9fd4:	75 63                	jne    a039 <portrng_empty+0x1a79>
    9fd6:	5f                   	pop    %edi
    9fd7:	6f                   	outsl  %ds:(%esi),(%dx)
    9fd8:	70 65                	jo     a03f <portrng_empty+0x1a7f>
    9fda:	6e                   	outsb  %ds:(%esi),(%dx)
    9fdb:	3a 20                	cmp    (%eax),%ah
    9fdd:	57                   	push   %edi
    9fde:	61                   	popa   
    9fdf:	69 74 20 66 6f 72 20 	imul   $0x6320726f,0x66(%eax,%eiz,1),%esi
    9fe6:	63 
    9fe7:	6f                   	outsl  %ds:(%esi),(%dx)
    9fe8:	6e                   	outsb  %ds:(%esi),(%dx)
    9fe9:	6e                   	outsb  %ds:(%esi),(%dx)
    9fea:	65 63 74 69 6f       	arpl   %si,%gs:0x6f(%ecx,%ebp,2)
    9fef:	6e                   	outsb  %ds:(%esi),(%dx)
    9ff0:	2e 00 00             	add    %al,%cs:(%eax)
    9ff3:	00 74 63 70          	add    %dh,0x70(%ebx,%eiz,2)
    9ff7:	5f                   	pop    %edi
    9ff8:	75 63                	jne    a05d <portrng_empty+0x1a9d>
    9ffa:	5f                   	pop    %edi
    9ffb:	6f                   	outsl  %ds:(%esi),(%dx)
    9ffc:	70 65                	jo     a063 <portrng_empty+0x1aa3>
    9ffe:	6e                   	outsb  %ds:(%esi),(%dx)
    9fff:	3a 20                	cmp    (%eax),%ah
    a001:	43                   	inc    %ebx
    a002:	6f                   	outsl  %ds:(%esi),(%dx)
    a003:	6e                   	outsb  %ds:(%esi),(%dx)
    a004:	6e                   	outsb  %ds:(%esi),(%dx)
    a005:	65 63 74 69 6f       	arpl   %si,%gs:0x6f(%ecx,%ebp,2)
    a00a:	6e                   	outsb  %ds:(%esi),(%dx)
    a00b:	20 77 61             	and    %dh,0x61(%edi)
    a00e:	73 20                	jae    a030 <portrng_empty+0x1a70>
    a010:	72 65                	jb     a077 <portrng_empty+0x1ab7>
    a012:	73 65                	jae    a079 <portrng_empty+0x1ab9>
    a014:	74 2e                	je     a044 <portrng_empty+0x1a84>
    a016:	00 00                	add    %al,(%eax)
    a018:	74 63                	je     a07d <portrng_empty+0x1abd>
    a01a:	70 5f                	jo     a07b <portrng_empty+0x1abb>
    a01c:	75 63                	jne    a081 <portrng_empty+0x1ac1>
    a01e:	5f                   	pop    %edi
    a01f:	6f                   	outsl  %ds:(%esi),(%dx)
    a020:	70 65                	jo     a087 <portrng_empty+0x1ac7>
    a022:	6e                   	outsb  %ds:(%esi),(%dx)
    a023:	3a 20                	cmp    (%eax),%ah
    a025:	43                   	inc    %ebx
    a026:	6f                   	outsl  %ds:(%esi),(%dx)
    a027:	6e                   	outsb  %ds:(%esi),(%dx)
    a028:	6e                   	outsb  %ds:(%esi),(%dx)
    a029:	65 63 74 69 6f       	arpl   %si,%gs:0x6f(%ecx,%ebp,2)
    a02e:	6e                   	outsb  %ds:(%esi),(%dx)
    a02f:	20 77 61             	and    %dh,0x61(%edi)
    a032:	73 20                	jae    a054 <portrng_empty+0x1a94>
    a034:	65 73 74             	gs jae a0ab <portrng_empty+0x1aeb>
    a037:	61                   	popa   
    a038:	62 6c 69 73          	bound  %ebp,0x73(%ecx,%ebp,2)
    a03c:	68 65 64 2e 00       	push   $0x2e6465
    a041:	00 00                	add    %al,(%eax)
    a043:	00 25 73 3a 20 74    	add    %ah,0x74203a73
    a049:	63 70 5f             	arpl   %si,0x5f(%eax)
    a04c:	75 63                	jne    a0b1 <portrng_empty+0x1af1>
    a04e:	5f                   	pop    %edi
    a04f:	72 65                	jb     a0b6 <portrng_empty+0x1af6>
    a051:	63 65 69             	arpl   %sp,0x69(%ebp)
    a054:	76 65                	jbe    a0bb <portrng_empty+0x1afb>
    a056:	28 29                	sub    %ch,(%ecx)
    a058:	20 2d 20 72 65 74    	and    %ch,0x74657220
    a05e:	75 72                	jne    a0d2 <portrng_empty+0x1b12>
    a060:	6e                   	outsb  %ds:(%esi),(%dx)
    a061:	69 6e 67 20 25 7a 75 	imul   $0x757a2520,0x67(%esi),%ebp
    a068:	20 62 79             	and    %ah,0x79(%edx)
    a06b:	74 65                	je     a0d2 <portrng_empty+0x1b12>
    a06d:	73 00                	jae    a06f <portrng_empty+0x1aaf>
    a06f:	00 74 63 70          	add    %dh,0x70(%ebx,%eiz,2)
    a073:	5f                   	pop    %edi
    a074:	75 63                	jne    a0d9 <portrng_empty+0x1b19>
    a076:	5f                   	pop    %edi
    a077:	63 6c 6f 73          	arpl   %bp,0x73(%edi,%ebp,2)
    a07b:	65 20 2d 20 6c 69 73 	and    %ch,%gs:0x73696c20
    a082:	74 65                	je     a0e9 <portrng_empty+0x1b29>
    a084:	6e                   	outsb  %ds:(%esi),(%dx)
    a085:	2f                   	das    
    a086:	73 79                	jae    a101 <portrng_empty+0x1b41>
    a088:	6e                   	outsb  %ds:(%esi),(%dx)
    a089:	5f                   	pop    %edi
    a08a:	73 65                	jae    a0f1 <portrng_empty+0x1b31>
    a08c:	6e                   	outsb  %ds:(%esi),(%dx)
    a08d:	74 00                	je     a08f <portrng_empty+0x1acf>
    a08f:	00 74 63 70          	add    %dh,0x70(%ebx,%eiz,2)
    a093:	5f                   	pop    %edi
    a094:	75 63                	jne    a0f9 <portrng_empty+0x1b39>
    a096:	5f                   	pop    %edi
    a097:	63 6c 6f 73          	arpl   %bp,0x73(%edi,%ebp,2)
    a09b:	65 20 2d 20 73 65 74 	and    %ch,%gs:0x74657320
    a0a2:	20 73 6e             	and    %dh,0x6e(%ebx)
    a0a5:	64 5f                	fs pop %edi
    a0a7:	62 75 66             	bound  %esi,0x66(%ebp)
    a0aa:	5f                   	pop    %edi
    a0ab:	66 69 6e 00 00 74    	imul   $0x7400,0x0(%esi),%bp
    a0b1:	63 70 5f             	arpl   %si,0x5f(%eax)
    a0b4:	61                   	popa   
    a0b5:	73 5f                	jae    a116 <portrng_empty+0x1b56>
    a0b7:	73 65                	jae    a11e <portrng_empty+0x1b5e>
    a0b9:	67 6d                	insl   (%dx),%es:(%di)
    a0bb:	65 6e                	outsb  %gs:(%esi),(%dx)
    a0bd:	74 5f                	je     a11e <portrng_empty+0x1b5e>
    a0bf:	61                   	popa   
    a0c0:	72 72                	jb     a134 <portrng_empty+0x1b74>
    a0c2:	69 76 65 64 28 66 3a 	imul   $0x3a662864,0x65(%esi),%esi
    a0c9:	28 25 75 29 2c 20    	sub    %ah,0x202c2975
    a0cf:	6c                   	insb   (%dx),%es:(%edi)
    a0d0:	3a 28                	cmp    (%eax),%ch
    a0d2:	25 75 29 29 00       	and    $0x292975,%eax
    a0d7:	90                   	nop
    a0d8:	61                   	popa   
    a0d9:	6d                   	insl   (%dx),%es:(%edi)
    a0da:	61                   	popa   
    a0db:	70 5f                	jo     a13c <portrng_empty+0x1b7c>
    a0dd:	72 65                	jb     a144 <portrng_empty+0x1b84>
    a0df:	70 6c                	jo     a14d <portrng_empty+0x1b8d>
    a0e1:	61                   	popa   
    a0e2:	5f                   	pop    %edi
    a0e3:	66 69 6e 64 28 29    	imul   $0x2928,0x64(%esi),%bp
    a0e9:	3a 20                	cmp    (%eax),%ah
    a0eb:	72 65                	jb     a152 <portrng_empty+0x1b92>
    a0ed:	70 3d                	jo     a12c <portrng_empty+0x1b6c>
    a0ef:	28 25 73 2c 25 68    	sub    %ah,0x68252c73
    a0f5:	75 29                	jne    a120 <portrng_empty+0x1b60>
    a0f7:	20 6c 61 3d          	and    %ch,0x3d(%ecx,%eiz,2)
    a0fb:	25 73 00 00 00       	and    $0x73,%eax
    a100:	61                   	popa   
    a101:	6d                   	insl   (%dx),%es:(%edi)
    a102:	61                   	popa   
    a103:	70 5f                	jo     a164 <portrng_empty+0x1ba4>
    a105:	72 65                	jb     a16c <portrng_empty+0x1bac>
    a107:	70 6c                	jo     a175 <portrng_empty+0x1bb5>
    a109:	61                   	popa   
    a10a:	5f                   	pop    %edi
    a10b:	66 69 6e 64 28 29    	imul   $0x2928,0x64(%esi),%bp
    a111:	3a 20                	cmp    (%eax),%ah
    a113:	63 6f 6d             	arpl   %bp,0x6d(%edi)
    a116:	70 61                	jo     a179 <portrng_empty+0x1bb9>
    a118:	72 65                	jb     a17f <portrng_empty+0x1bbf>
    a11a:	20 74 6f 20          	and    %dh,0x20(%edi,%ebp,2)
    a11e:	72 65                	jb     a185 <portrng_empty+0x1bc5>
    a120:	70 3d                	jo     a15f <portrng_empty+0x1b9f>
    a122:	28 25 73 2c 20 25    	sub    %ah,0x25202c73
    a128:	68 75 29 20 6c       	push   $0x6c202975
    a12d:	61                   	popa   
    a12e:	3d 25 73 00 00       	cmp    $0x7325,%eax
    a133:	00 61 6d             	add    %ah,0x6d(%ecx)
    a136:	61                   	popa   
    a137:	70 5f                	jo     a198 <portrng_empty+0x1bd8>
    a139:	69 6e 73 65 72 74 3a 	imul   $0x3a747265,0x73(%esi),%ebp
    a140:	20 64 65 74          	and    %ah,0x74(%ebp,%eiz,2)
    a144:	65 72 6d             	gs jb  a1b4 <portrng_empty+0x1bf4>
    a147:	69 6e 65 20 6c 6f 63 	imul   $0x636f6c20,0x65(%esi),%ebp
    a14e:	61                   	popa   
    a14f:	6c                   	insb   (%dx),%es:(%edi)
    a150:	20 61 64             	and    %ah,0x64(%ecx)
    a153:	64 72 65             	fs jb  a1bb <portrng_empty+0x1bfb>
    a156:	73 73                	jae    a1cb <portrng_empty+0x1c0b>
    a158:	00 00                	add    %al,(%eax)
    a15a:	00 00                	add    %al,(%eax)
    a15c:	61                   	popa   
    a15d:	6d                   	insl   (%dx),%es:(%edi)
    a15e:	61                   	popa   
    a15f:	70 5f                	jo     a1c0 <portrng_empty+0x1c00>
    a161:	69 6e 73 65 72 74 3a 	imul   $0x3a747265,0x73(%esi),%ebp
    a168:	20 63 61             	and    %ah,0x61(%ebx)
    a16b:	6e                   	outsb  %ds:(%esi),(%dx)
    a16c:	6e                   	outsb  %ds:(%esi),(%dx)
    a16d:	6f                   	outsl  %ds:(%esi),(%dx)
    a16e:	74 20                	je     a190 <portrng_empty+0x1bd0>
    a170:	64 65 74 65          	fs gs je a1d9 <portrng_empty+0x1c19>
    a174:	72 6d                	jb     a1e3 <portrng_empty+0x1c23>
    a176:	69 6e 65 20 6c 6f 63 	imul   $0x636f6c20,0x65(%esi),%ebp
    a17d:	61                   	popa   
    a17e:	6c                   	insb   (%dx),%es:(%edi)
    a17f:	20 61 64             	and    %ah,0x64(%ecx)
    a182:	64 72 65             	fs jb  a1ea <portrng_empty+0x1c2a>
    a185:	73 73                	jae    a1fa <portrng_empty+0x1c3a>
    a187:	00 61 6d             	add    %ah,0x6d(%ecx)
    a18a:	61                   	popa   
    a18b:	70 5f                	jo     a1ec <portrng_empty+0x1c2c>
    a18d:	69 6e 73 65 72 74 3a 	imul   $0x3a747265,0x73(%esi),%ebp
    a194:	20 6c 6f 63          	and    %ch,0x63(%edi,%ebp,2)
    a198:	61                   	popa   
    a199:	6c                   	insb   (%dx),%es:(%edi)
    a19a:	20 61 64             	and    %ah,0x64(%ecx)
    a19d:	64 72 65             	fs jb  a205 <portrng_empty+0x1c45>
    a1a0:	73 73                	jae    a215 <portrng_empty+0x1c55>
    a1a2:	20 73 70             	and    %dh,0x70(%ebx)
    a1a5:	65 63 69 66          	arpl   %bp,%gs:0x66(%ecx)
    a1a9:	69 65 64 20 6f 72 20 	imul   $0x20726f20,0x64(%ebp),%esp
    a1b0:	72 65                	jb     a217 <portrng_empty+0x1c57>
    a1b2:	6d                   	insl   (%dx),%es:(%edi)
    a1b3:	6f                   	outsl  %ds:(%esi),(%dx)
    a1b4:	74 65                	je     a21b <portrng_empty+0x1c5b>
    a1b6:	20 61 64             	and    %ah,0x64(%ecx)
    a1b9:	64 72 65             	fs jb  a221 <portrng_empty+0x1c61>
    a1bc:	73 73                	jae    a231 <portrng_empty+0x1c71>
    a1be:	20 6e 6f             	and    %ch,0x6f(%esi)
    a1c1:	74 20                	je     a1e3 <portrng_empty+0x1c23>
    a1c3:	73 70                	jae    a235 <portrng_empty+0x1c75>
    a1c5:	65 63 69 66          	arpl   %bp,%gs:0x66(%ecx)
    a1c9:	69 65 64 00 00 00 00 	imul   $0x0,0x64(%ebp),%esp
    a1d0:	61                   	popa   
    a1d1:	6d                   	insl   (%dx),%es:(%edi)
    a1d2:	61                   	popa   
    a1d3:	70 5f                	jo     a234 <portrng_empty+0x1c74>
    a1d5:	69 6e 73 65 72 74 3a 	imul   $0x3a747265,0x73(%esi),%ebp
    a1dc:	20 69 6e             	and    %ch,0x6e(%ecx)
    a1df:	76 61                	jbe    a242 <portrng_empty+0x1c82>
    a1e1:	6c                   	insb   (%dx),%es:(%edi)
    a1e2:	69 64 20 63 6f 6d 62 	imul   $0x69626d6f,0x63(%eax,%eiz,1),%esp
    a1e9:	69 
    a1ea:	6e                   	outsb  %ds:(%esi),(%dx)
    a1eb:	61                   	popa   
    a1ec:	74 69                	je     a257 <portrng_empty+0x1c97>
    a1ee:	6f                   	outsl  %ds:(%esi),(%dx)
    a1ef:	6e                   	outsb  %ds:(%esi),(%dx)
    a1f0:	20 6f 66             	and    %ch,0x66(%edi)
    a1f3:	20 72 61             	and    %dh,0x61(%edx)
    a1f6:	64 64 72 3d          	fs fs jb a237 <portrng_empty+0x1c77>
    a1fa:	25 64 20 72 70       	and    $0x70722064,%eax
    a1ff:	6f                   	outsl  %ds:(%esi),(%dx)
    a200:	72 74                	jb     a276 <portrng_empty+0x1cb6>
    a202:	3d 25 64 20 6c       	cmp    $0x6c206425,%eax
    a207:	61                   	popa   
    a208:	64 64 72 3d          	fs fs jb a249 <portrng_empty+0x1c89>
    a20c:	25 64 20 6c 6c       	and    $0x6c6c2064,%eax
    a211:	69 6e 6b 3d 25 64 00 	imul   $0x64253d,0x6b(%esi),%ebp
    a218:	61                   	popa   
    a219:	6d                   	insl   (%dx),%es:(%edi)
    a21a:	61                   	popa   
    a21b:	70 5f                	jo     a27c <portrng_empty+0x1cbc>
    a21d:	72 65                	jb     a284 <portrng_empty+0x1cc4>
    a21f:	6d                   	insl   (%dx),%es:(%edi)
    a220:	6f                   	outsl  %ds:(%esi),(%dx)
    a221:	76 65                	jbe    a288 <portrng_empty+0x1cc8>
    a223:	3a 20                	cmp    (%eax),%ah
    a225:	69 6e 76 61 6c 69 64 	imul   $0x64696c61,0x76(%esi),%ebp
    a22c:	20 63 6f             	and    %ah,0x6f(%ebx)
    a22f:	6d                   	insl   (%dx),%es:(%edi)
    a230:	62 69 6e             	bound  %ebp,0x6e(%ecx)
    a233:	61                   	popa   
    a234:	74 69                	je     a29f <portrng_empty+0x1cdf>
    a236:	6f                   	outsl  %ds:(%esi),(%dx)
    a237:	6e                   	outsb  %ds:(%esi),(%dx)
    a238:	20 6f 66             	and    %ch,0x66(%edi)
    a23b:	20 72 61             	and    %dh,0x61(%edx)
    a23e:	64 64 72 3d          	fs fs jb a27f <portrng_empty+0x1cbf>
    a242:	25 64 20 72 70       	and    $0x70722064,%eax
    a247:	6f                   	outsl  %ds:(%esi),(%dx)
    a248:	72 74                	jb     a2be <portrng_empty+0x1cfe>
    a24a:	3d 25 64 20 6c       	cmp    $0x6c206425,%eax
    a24f:	61                   	popa   
    a250:	64 64 72 3d          	fs fs jb a291 <portrng_empty+0x1cd1>
    a254:	25 64 20 6c 6c       	and    $0x6c6c2064,%eax
    a259:	69 6e 6b 3d 25 64 00 	imul   $0x64253d,0x6b(%esi),%ebp
    a260:	61                   	popa   
    a261:	6d                   	insl   (%dx),%es:(%edi)
    a262:	61                   	popa   
    a263:	70 5f                	jo     a2c4 <portrng_empty+0x1d04>
    a265:	63 72 65             	arpl   %si,0x65(%edx)
    a268:	61                   	popa   
    a269:	74 65                	je     a2d0 <portrng_empty+0x1d10>
    a26b:	28 29                	sub    %ch,(%ecx)
    a26d:	00 73 72             	add    %dh,0x72(%ebx)
    a270:	63 2f                	arpl   %bp,(%edi)
    a272:	61                   	popa   
    a273:	6d                   	insl   (%dx),%es:(%edi)
    a274:	61                   	popa   
    a275:	70 2e                	jo     a2a5 <portrng_empty+0x1ce5>
    a277:	63 00                	arpl   %ax,(%eax)
    a279:	61                   	popa   
    a27a:	6d                   	insl   (%dx),%es:(%edi)
    a27b:	61                   	popa   
    a27c:	70 5f                	jo     a2dd <portrng_empty+0x1d1d>
    a27e:	64 65 73 74          	fs gs jae a2f6 <portrng_empty+0x1d36>
    a282:	72 6f                	jb     a2f3 <portrng_empty+0x1d33>
    a284:	79 28                	jns    a2ae <portrng_empty+0x1cee>
    a286:	29 00                	sub    %eax,(%eax)
    a288:	61                   	popa   
    a289:	6d                   	insl   (%dx),%es:(%edi)
    a28a:	61                   	popa   
    a28b:	70 5f                	jo     a2ec <portrng_empty+0x1d2c>
    a28d:	69 6e 73 65 72 74 28 	imul   $0x28747265,0x73(%esi),%ebp
    a294:	29 00                	sub    %eax,(%eax)
    a296:	61                   	popa   
    a297:	6d                   	insl   (%dx),%es:(%edi)
    a298:	61                   	popa   
    a299:	70 5f                	jo     a2fa <portrng_empty+0x1d3a>
    a29b:	69 6e 73 65 72 74 5f 	imul   $0x5f747265,0x73(%esi),%ebp
    a2a2:	72 65                	jb     a309 <portrng_empty+0x1d49>
    a2a4:	70 6c                	jo     a312 <portrng_empty+0x1d52>
    a2a6:	61                   	popa   
    a2a7:	28 29                	sub    %ch,(%ecx)
    a2a9:	00 61 6d             	add    %ah,0x6d(%ecx)
    a2ac:	61                   	popa   
    a2ad:	70 5f                	jo     a30e <portrng_empty+0x1d4e>
    a2af:	69 6e 73 65 72 74 5f 	imul   $0x5f747265,0x73(%esi),%ebp
    a2b6:	6c                   	insb   (%dx),%es:(%edi)
    a2b7:	61                   	popa   
    a2b8:	64 64 72 28          	fs fs jb a2e4 <portrng_empty+0x1d24>
    a2bc:	29 00                	sub    %eax,(%eax)
    a2be:	61                   	popa   
    a2bf:	6d                   	insl   (%dx),%es:(%edi)
    a2c0:	61                   	popa   
    a2c1:	70 5f                	jo     a322 <portrng_empty+0x1d62>
    a2c3:	69 6e 73 65 72 74 5f 	imul   $0x5f747265,0x73(%esi),%ebp
    a2ca:	6c                   	insb   (%dx),%es:(%edi)
    a2cb:	6c                   	insb   (%dx),%es:(%edi)
    a2cc:	69 6e 6b 28 29 00 61 	imul   $0x61002928,0x6b(%esi),%ebp
    a2d3:	6d                   	insl   (%dx),%es:(%edi)
    a2d4:	61                   	popa   
    a2d5:	70 5f                	jo     a336 <portrng_empty+0x1d76>
    a2d7:	69 6e 73 65 72 74 5f 	imul   $0x5f747265,0x73(%esi),%ebp
    a2de:	75 6e                	jne    a34e <portrng_empty+0x1d8e>
    a2e0:	73 70                	jae    a352 <portrng_empty+0x1d92>
    a2e2:	65 63 28             	arpl   %bp,%gs:(%eax)
    a2e5:	29 00                	sub    %eax,(%eax)
    a2e7:	61                   	popa   
    a2e8:	6d                   	insl   (%dx),%es:(%edi)
    a2e9:	61                   	popa   
    a2ea:	70 5f                	jo     a34b <portrng_empty+0x1d8b>
    a2ec:	72 65                	jb     a353 <portrng_empty+0x1d93>
    a2ee:	6d                   	insl   (%dx),%es:(%edi)
    a2ef:	6f                   	outsl  %ds:(%esi),(%dx)
    a2f0:	76 65                	jbe    a357 <portrng_empty+0x1d97>
    a2f2:	28 29                	sub    %ch,(%ecx)
    a2f4:	00 61 6d             	add    %ah,0x6d(%ecx)
    a2f7:	61                   	popa   
    a2f8:	70 5f                	jo     a359 <portrng_empty+0x1d99>
    a2fa:	72 65                	jb     a361 <portrng_empty+0x1da1>
    a2fc:	6d                   	insl   (%dx),%es:(%edi)
    a2fd:	6f                   	outsl  %ds:(%esi),(%dx)
    a2fe:	76 65                	jbe    a365 <portrng_empty+0x1da5>
    a300:	5f                   	pop    %edi
    a301:	72 65                	jb     a368 <portrng_empty+0x1da8>
    a303:	70 6c                	jo     a371 <portrng_empty+0x1db1>
    a305:	61                   	popa   
    a306:	3a 20                	cmp    (%eax),%ah
    a308:	6e                   	outsb  %ds:(%esi),(%dx)
    a309:	6f                   	outsl  %ds:(%esi),(%dx)
    a30a:	74 20                	je     a32c <portrng_empty+0x1d6c>
    a30c:	66 6f                	outsw  %ds:(%esi),(%dx)
    a30e:	75 6e                	jne    a37e <portrng_empty+0x1dbe>
    a310:	64 00 61 6d          	add    %ah,%fs:0x6d(%ecx)
    a314:	61                   	popa   
    a315:	70 5f                	jo     a376 <portrng_empty+0x1db6>
    a317:	72 65                	jb     a37e <portrng_empty+0x1dbe>
    a319:	6d                   	insl   (%dx),%es:(%edi)
    a31a:	6f                   	outsl  %ds:(%esi),(%dx)
    a31b:	76 65                	jbe    a382 <portrng_empty+0x1dc2>
    a31d:	5f                   	pop    %edi
    a31e:	6c                   	insb   (%dx),%es:(%edi)
    a31f:	61                   	popa   
    a320:	64 64 72 3a          	fs fs jb a35e <portrng_empty+0x1d9e>
    a324:	20 6e 6f             	and    %ch,0x6f(%esi)
    a327:	74 20                	je     a349 <portrng_empty+0x1d89>
    a329:	66 6f                	outsw  %ds:(%esi),(%dx)
    a32b:	75 6e                	jne    a39b <portrng_empty+0x1ddb>
    a32d:	64 00 61 6d          	add    %ah,%fs:0x6d(%ecx)
    a331:	61                   	popa   
    a332:	70 5f                	jo     a393 <portrng_empty+0x1dd3>
    a334:	72 65                	jb     a39b <portrng_empty+0x1ddb>
    a336:	6d                   	insl   (%dx),%es:(%edi)
    a337:	6f                   	outsl  %ds:(%esi),(%dx)
    a338:	76 65                	jbe    a39f <portrng_empty+0x1ddf>
    a33a:	5f                   	pop    %edi
    a33b:	6c                   	insb   (%dx),%es:(%edi)
    a33c:	6c                   	insb   (%dx),%es:(%edi)
    a33d:	69 6e 6b 3a 20 6e 6f 	imul   $0x6f6e203a,0x6b(%esi),%ebp
    a344:	74 20                	je     a366 <portrng_empty+0x1da6>
    a346:	66 6f                	outsw  %ds:(%esi),(%dx)
    a348:	75 6e                	jne    a3b8 <portrng_empty+0x1df8>
    a34a:	64 00 61 6d          	add    %ah,%fs:0x6d(%ecx)
    a34e:	61                   	popa   
    a34f:	70 5f                	jo     a3b0 <portrng_empty+0x1df0>
    a351:	66 69 6e 64 5f 6d    	imul   $0x6d5f,0x64(%esi),%bp
    a357:	61                   	popa   
    a358:	74 63                	je     a3bd <portrng_empty+0x1dfd>
    a35a:	68 28 6c 6c 69       	push   $0x696c6c28
    a35f:	6e                   	outsb  %ds:(%esi),(%dx)
    a360:	6b 3d 25 7a 75 29 00 	imul   $0x0,0x29757a25,%edi
    a367:	4d                   	dec    %ebp
    a368:	61                   	popa   
    a369:	74 63                	je     a3ce <portrng_empty+0x1e0e>
    a36b:	68 65 64 20 72       	push   $0x72206465
    a370:	65 70 6c             	gs jo  a3df <portrng_empty+0x1e1f>
    a373:	61                   	popa   
    a374:	20 2f                	and    %ch,(%edi)
    a376:	20 70 6f             	and    %dh,0x6f(%eax)
    a379:	72 74                	jb     a3ef <portrng_empty+0x1e2f>
    a37b:	20 25 68 75 00 4d    	and    %ah,0x4d007568
    a381:	61                   	popa   
    a382:	74 63                	je     a3e7 <portrng_empty+0x1e27>
    a384:	68 65 64 20 6c       	push   $0x6c206465
    a389:	61                   	popa   
    a38a:	64 64 72 20          	fs fs jb a3ae <portrng_empty+0x1dee>
    a38e:	2f                   	das    
    a38f:	20 70 6f             	and    %dh,0x6f(%eax)
    a392:	72 74                	jb     a408 <portrng_empty+0x1e48>
    a394:	20 25 68 75 00 4d    	and    %ah,0x4d007568
    a39a:	61                   	popa   
    a39b:	74 63                	je     a400 <portrng_empty+0x1e40>
    a39d:	68 65 64 20 6c       	push   $0x6c206465
    a3a2:	6c                   	insb   (%dx),%es:(%edi)
    a3a3:	69 6e 6b 20 2f 20 70 	imul   $0x70202f20,0x6b(%esi),%ebp
    a3aa:	6f                   	outsl  %ds:(%esi),(%dx)
    a3ab:	72 74                	jb     a421 <portrng_empty+0x1e61>
    a3ad:	20 25 68 75 00 4d    	and    %ah,0x4d007568
    a3b3:	61                   	popa   
    a3b4:	74 63                	je     a419 <portrng_empty+0x1e59>
    a3b6:	68 65 64 20 75       	push   $0x75206465
    a3bb:	6e                   	outsb  %ds:(%esi),(%dx)
    a3bc:	73 70                	jae    a42e <portrng_empty+0x1e6e>
    a3be:	65 63 20             	arpl   %sp,%gs:(%eax)
    a3c1:	2f                   	das    
    a3c2:	20 70 6f             	and    %dh,0x6f(%eax)
    a3c5:	72 74                	jb     a43b <portrng_empty+0x1e7b>
    a3c7:	20 25 68 75 00 4e    	and    %ah,0x4e007568
    a3cd:	6f                   	outsl  %ds:(%esi),(%dx)
    a3ce:	20 6d 61             	and    %ch,0x61(%ebp)
    a3d1:	74 63                	je     a436 <portrng_empty+0x1e76>
    a3d3:	68 2e 00 70 6f       	push   $0x6f70002e
    a3d8:	72 74                	jb     a44e <portrng_empty+0x1e8e>
    a3da:	72 6e                	jb     a44a <portrng_empty+0x1e8a>
    a3dc:	67 5f                	addr16 pop %edi
    a3de:	63 72 65             	arpl   %si,0x65(%edx)
    a3e1:	61                   	popa   
    a3e2:	74 65                	je     a449 <portrng_empty+0x1e89>
    a3e4:	28 29                	sub    %ch,(%ecx)
    a3e6:	20 2d 20 62 65 67    	and    %ch,0x67656220
    a3ec:	69 6e 00 70 6f 72 74 	imul   $0x74726f70,0x0(%esi),%ebp
    a3f3:	72 6e                	jb     a463 <portrng_empty+0x1ea3>
    a3f5:	67 5f                	addr16 pop %edi
    a3f7:	63 72 65             	arpl   %si,0x65(%edx)
    a3fa:	61                   	popa   
    a3fb:	74 65                	je     a462 <portrng_empty+0x1ea2>
    a3fd:	28 29                	sub    %ch,(%ecx)
    a3ff:	20 2d 20 65 6e 64    	and    %ch,0x646e6520
    a405:	00 70 6f             	add    %dh,0x6f(%eax)
    a408:	72 74                	jb     a47e <portrng_empty+0x1ebe>
    a40a:	72 6e                	jb     a47a <portrng_empty+0x1eba>
    a40c:	67 5f                	addr16 pop %edi
    a40e:	64 65 73 74          	fs gs jae a486 <portrng_empty+0x1ec6>
    a412:	72 6f                	jb     a483 <portrng_empty+0x1ec3>
    a414:	79 28                	jns    a43e <portrng_empty+0x1e7e>
    a416:	29 00                	sub    %eax,(%eax)
    a418:	73 72                	jae    a48c <portrng_empty+0x1ecc>
    a41a:	63 2f                	arpl   %bp,(%edi)
    a41c:	70 6f                	jo     a48d <portrng_empty+0x1ecd>
    a41e:	72 74                	jb     a494 <portrng_empty+0x1ed4>
    a420:	72 6e                	jb     a490 <portrng_empty+0x1ed0>
    a422:	67 2e 63 00          	arpl   %ax,%cs:(%bx,%si)
    a426:	6c                   	insb   (%dx),%es:(%edi)
    a427:	69 73 74 5f 65 6d 70 	imul   $0x706d655f,0x74(%ebx),%esi
    a42e:	74 79                	je     a4a9 <portrng_empty+0x1ee9>
    a430:	28 26                	sub    %ah,(%esi)
    a432:	70 72                	jo     a4a6 <portrng_empty+0x1ee6>
    a434:	2d 3e 75 73 65       	sub    $0x6573753e,%eax
    a439:	64 29 00             	sub    %eax,%fs:(%eax)
    a43c:	70 6f                	jo     a4ad <portrng_empty+0x1eed>
    a43e:	72 74                	jb     a4b4 <portrng_empty+0x1ef4>
    a440:	72 6e                	jb     a4b0 <portrng_empty+0x1ef0>
    a442:	67 5f                	addr16 pop %edi
    a444:	61                   	popa   
    a445:	6c                   	insb   (%dx),%es:(%edi)
    a446:	6c                   	insb   (%dx),%es:(%edi)
    a447:	6f                   	outsl  %ds:(%esi),(%dx)
    a448:	63 28                	arpl   %bp,(%eax)
    a44a:	29 20                	sub    %esp,(%eax)
    a44c:	2d 20 62 65 67       	sub    $0x67656220,%eax
    a451:	69 6e 00 74 72 79 69 	imul   $0x69797274,0x0(%esi),%ebp
    a458:	6e                   	outsb  %ds:(%esi),(%dx)
    a459:	67 20 25             	and    %ah,(%di)
    a45c:	75 00                	jne    a45e <portrng_empty+0x1e9e>
    a45e:	73 65                	jae    a4c5 <portrng_empty+0x1f05>
    a460:	6c                   	insb   (%dx),%es:(%edi)
    a461:	65 63 74 65 64       	arpl   %si,%gs:0x64(%ebp,%eiz,2)
    a466:	20 25 68 75 00 75    	and    %ah,0x75007568
    a46c:	73 65                	jae    a4d3 <portrng_empty+0x1f13>
    a46e:	72 20                	jb     a490 <portrng_empty+0x1ed0>
    a470:	61                   	popa   
    a471:	73 6b                	jae    a4de <portrng_empty+0x1f1e>
    a473:	65 64 20 66 6f       	gs and %ah,%fs:0x6f(%esi)
    a478:	72 20                	jb     a49a <portrng_empty+0x1eda>
    a47a:	25 68 75 00 73       	and    $0x73007568,%eax
    a47f:	79 73                	jns    a4f4 <portrng_empty+0x1f34>
    a481:	74 65                	je     a4e8 <portrng_empty+0x1f28>
    a483:	6d                   	insl   (%dx),%es:(%edi)
    a484:	20 70 6f             	and    %dh,0x6f(%eax)
    a487:	72 74                	jb     a4fd <portrng_empty+0x1f3d>
    a489:	20 6e 6f             	and    %ch,0x6f(%esi)
    a48c:	74 20                	je     a4ae <portrng_empty+0x1eee>
    a48e:	61                   	popa   
    a48f:	6c                   	insb   (%dx),%es:(%edi)
    a490:	6c                   	insb   (%dx),%es:(%edi)
    a491:	6f                   	outsl  %ds:(%esi),(%dx)
    a492:	77 65                	ja     a4f9 <portrng_empty+0x1f39>
    a494:	64 00 70 6f          	add    %dh,%fs:0x6f(%eax)
    a498:	72 74                	jb     a50e <portrng_empty+0x1f4e>
    a49a:	20 61 6c             	and    %ah,0x6c(%ecx)
    a49d:	72 65                	jb     a504 <portrng_empty+0x1f44>
    a49f:	61                   	popa   
    a4a0:	64 79 20             	fs jns a4c3 <portrng_empty+0x1f03>
    a4a3:	75 73                	jne    a518 <portrng_empty+0x1f58>
    a4a5:	65 64 00 70 6f       	gs add %dh,%fs:0x6f(%eax)
    a4aa:	72 74                	jb     a520 <portrng_empty+0x1f60>
    a4ac:	72 6e                	jb     a51c <portrng_empty+0x1f5c>
    a4ae:	67 5f                	addr16 pop %edi
    a4b0:	66 72 65             	data16 jb a518 <portrng_empty+0x1f58>
    a4b3:	65 5f                	gs pop %edi
    a4b5:	70 6f                	jo     a526 <portrng_empty+0x1f66>
    a4b7:	72 74                	jb     a52d <portrng_empty+0x1f6d>
    a4b9:	28 29                	sub    %ch,(%ecx)
    a4bb:	20 2d 20 62 65 67    	and    %ch,0x67656220
    a4c1:	69 6e 00 70 6f 72 74 	imul   $0x74726f70,0x0(%esi),%ebp
    a4c8:	72 6e                	jb     a538 <portrng_empty+0x1f78>
    a4ca:	67 5f                	addr16 pop %edi
    a4cc:	65 6d                	gs insl (%dx),%es:(%edi)
    a4ce:	70 74                	jo     a544 <portrng_empty+0x1f84>
    a4d0:	79 28                	jns    a4fa <portrng_empty+0x1f3a>
    a4d2:	29 00                	sub    %eax,(%eax)
    a4d4:	70 6f                	jo     a545 <portrng_empty+0x1f85>
    a4d6:	72 74                	jb     a54c <portrng_empty+0x1f8c>
    a4d8:	72 6e                	jb     a548 <portrng_empty+0x1f88>
    a4da:	67 5f                	addr16 pop %edi
    a4dc:	61                   	popa   
    a4dd:	6c                   	insb   (%dx),%es:(%edi)
    a4de:	6c                   	insb   (%dx),%es:(%edi)
    a4df:	6f                   	outsl  %ds:(%esi),(%dx)
    a4e0:	63 28                	arpl   %bp,(%eax)
    a4e2:	29 20                	sub    %esp,(%eax)
    a4e4:	2d 20 65 6e 64       	sub    $0x646e6520,%eax
    a4e9:	20 4f 4b             	and    %cl,0x4b(%edi)
    a4ec:	20 70 6e             	and    %dh,0x6e(%eax)
    a4ef:	3d 25 68 75 00       	cmp    $0x756825,%eax

Disassembly of section .plt:

0000a6d0 <__main@plt-0x10>:
    a6d0:	ff 35 f8 c4 00 00    	pushl  0xc4f8
    a6d6:	ff 25 fc c4 00 00    	jmp    *0xc4fc
    a6dc:	00 00                	add    %al,(%eax)
	...

0000a6e0 <__main@plt>:
    a6e0:	ff 25 00 c5 00 00    	jmp    *0xc500
    a6e6:	68 00 00 00 00       	push   $0x0
    a6eb:	e9 e0 ff ff ff       	jmp    a6d0 <portrng_empty+0x2110>

0000a6f0 <task_retval@plt>:
    a6f0:	ff 25 04 c5 00 00    	jmp    *0xc504
    a6f6:	68 08 00 00 00       	push   $0x8
    a6fb:	e9 d0 ff ff ff       	jmp    a6d0 <portrng_empty+0x2110>

0000a700 <printf@plt>:
    a700:	ff 25 08 c5 00 00    	jmp    *0xc508
    a706:	68 10 00 00 00       	push   $0x10
    a70b:	e9 c0 ff ff ff       	jmp    a6d0 <portrng_empty+0x2110>

0000a710 <async_hangup@plt>:
    a710:	ff 25 0c c5 00 00    	jmp    *0xc50c
    a716:	68 18 00 00 00       	push   $0x18
    a71b:	e9 b0 ff ff ff       	jmp    a6d0 <portrng_empty+0x2110>

0000a720 <memmove@plt>:
    a720:	ff 25 10 c5 00 00    	jmp    *0xc510
    a726:	68 20 00 00 00       	push   $0x20
    a72b:	e9 a0 ff ff ff       	jmp    a6d0 <portrng_empty+0x2110>

0000a730 <log_init@plt>:
    a730:	ff 25 14 c5 00 00    	jmp    *0xc514
    a736:	68 28 00 00 00       	push   $0x28
    a73b:	e9 90 ff ff ff       	jmp    a6d0 <portrng_empty+0x2110>

0000a740 <loc_service_register@plt>:
    a740:	ff 25 18 c5 00 00    	jmp    *0xc518
    a746:	68 30 00 00 00       	push   $0x30
    a74b:	e9 80 ff ff ff       	jmp    a6d0 <portrng_empty+0x2110>

0000a750 <async_data_read_finalize@plt>:
    a750:	ff 25 1c c5 00 00    	jmp    *0xc51c
    a756:	68 38 00 00 00       	push   $0x38
    a75b:	e9 70 ff ff ff       	jmp    a6d0 <portrng_empty+0x2110>

0000a760 <inet_get_srcaddr@plt>:
    a760:	ff 25 20 c5 00 00    	jmp    *0xc520
    a766:	68 40 00 00 00       	push   $0x40
    a76b:	e9 60 ff ff ff       	jmp    a6d0 <portrng_empty+0x2110>

0000a770 <memcpy@plt>:
    a770:	ff 25 24 c5 00 00    	jmp    *0xc524
    a776:	68 48 00 00 00       	push   $0x48
    a77b:	e9 50 ff ff ff       	jmp    a6d0 <portrng_empty+0x2110>

0000a780 <malloc@plt>:
    a780:	ff 25 28 c5 00 00    	jmp    *0xc528
    a786:	68 50 00 00 00       	push   $0x50
    a78b:	e9 40 ff ff ff       	jmp    a6d0 <portrng_empty+0x2110>

0000a790 <host2addr128_t_be@plt>:
    a790:	ff 25 2c c5 00 00    	jmp    *0xc52c
    a796:	68 58 00 00 00       	push   $0x58
    a79b:	e9 30 ff ff ff       	jmp    a6d0 <portrng_empty+0x2110>

0000a7a0 <async_answer_0@plt>:
    a7a0:	ff 25 30 c5 00 00    	jmp    *0xc530
    a7a6:	68 60 00 00 00       	push   $0x60
    a7ab:	e9 20 ff ff ff       	jmp    a6d0 <portrng_empty+0x2110>

0000a7b0 <fibril_condvar_wait@plt>:
    a7b0:	ff 25 34 c5 00 00    	jmp    *0xc534
    a7b6:	68 68 00 00 00       	push   $0x68
    a7bb:	e9 10 ff ff ff       	jmp    a6d0 <portrng_empty+0x2110>

0000a7c0 <async_send_fast@plt>:
    a7c0:	ff 25 38 c5 00 00    	jmp    *0xc538
    a7c6:	68 70 00 00 00       	push   $0x70
    a7cb:	e9 00 ff ff ff       	jmp    a6d0 <portrng_empty+0x2110>

0000a7d0 <log_msg@plt>:
    a7d0:	ff 25 3c c5 00 00    	jmp    *0xc53c
    a7d6:	68 78 00 00 00       	push   $0x78
    a7db:	e9 f0 fe ff ff       	jmp    a6d0 <portrng_empty+0x2110>

0000a7e0 <inet_init@plt>:
    a7e0:	ff 25 40 c5 00 00    	jmp    *0xc540
    a7e6:	68 80 00 00 00       	push   $0x80
    a7eb:	e9 e0 fe ff ff       	jmp    a6d0 <portrng_empty+0x2110>

0000a7f0 <fibril_timer_set_locked@plt>:
    a7f0:	ff 25 44 c5 00 00    	jmp    *0xc544
    a7f6:	68 88 00 00 00       	push   $0x88
    a7fb:	e9 d0 fe ff ff       	jmp    a6d0 <portrng_empty+0x2110>

0000a800 <inet_send@plt>:
    a800:	ff 25 48 c5 00 00    	jmp    *0xc548
    a806:	68 90 00 00 00       	push   $0x90
    a80b:	e9 c0 fe ff ff       	jmp    a6d0 <portrng_empty+0x2110>

0000a810 <fibril_timer_destroy@plt>:
    a810:	ff 25 4c c5 00 00    	jmp    *0xc54c
    a816:	68 98 00 00 00       	push   $0x98
    a81b:	e9 b0 fe ff ff       	jmp    a6d0 <portrng_empty+0x2110>

0000a820 <async_exchange_end@plt>:
    a820:	ff 25 50 c5 00 00    	jmp    *0xc550
    a826:	68 a0 00 00 00       	push   $0xa0
    a82b:	e9 a0 fe ff ff       	jmp    a6d0 <portrng_empty+0x2110>

0000a830 <assert_abort@plt>:
    a830:	ff 25 54 c5 00 00    	jmp    *0xc554
    a836:	68 a8 00 00 00       	push   $0xa8
    a83b:	e9 90 fe ff ff       	jmp    a6d0 <portrng_empty+0x2110>

0000a840 <calloc@plt>:
    a840:	ff 25 58 c5 00 00    	jmp    *0xc558
    a846:	68 b0 00 00 00       	push   $0xb0
    a84b:	e9 80 fe ff ff       	jmp    a6d0 <portrng_empty+0x2110>

0000a850 <fibril_condvar_wait_timeout@plt>:
    a850:	ff 25 5c c5 00 00    	jmp    *0xc55c
    a856:	68 b8 00 00 00       	push   $0xb8
    a85b:	e9 70 fe ff ff       	jmp    a6d0 <portrng_empty+0x2110>

0000a860 <fibril_condvar_initialize@plt>:
    a860:	ff 25 60 c5 00 00    	jmp    *0xc560
    a866:	68 c0 00 00 00       	push   $0xc0
    a86b:	e9 60 fe ff ff       	jmp    a6d0 <portrng_empty+0x2110>

0000a870 <inet_addr_format@plt>:
    a870:	ff 25 64 c5 00 00    	jmp    *0xc564
    a876:	68 c8 00 00 00       	push   $0xc8
    a87b:	e9 50 fe ff ff       	jmp    a6d0 <portrng_empty+0x2110>

0000a880 <inet_ep2_init@plt>:
    a880:	ff 25 68 c5 00 00    	jmp    *0xc568
    a886:	68 d0 00 00 00       	push   $0xd0
    a88b:	e9 40 fe ff ff       	jmp    a6d0 <portrng_empty+0x2110>

0000a890 <fibril_condvar_broadcast@plt>:
    a890:	ff 25 6c c5 00 00    	jmp    *0xc56c
    a896:	68 d8 00 00 00       	push   $0xd8
    a89b:	e9 30 fe ff ff       	jmp    a6d0 <portrng_empty+0x2110>

0000a8a0 <fibril_mutex_unlock@plt>:
    a8a0:	ff 25 70 c5 00 00    	jmp    *0xc570
    a8a6:	68 e0 00 00 00       	push   $0xe0
    a8ab:	e9 20 fe ff ff       	jmp    a6d0 <portrng_empty+0x2110>

0000a8b0 <fibril_mutex_initialize@plt>:
    a8b0:	ff 25 74 c5 00 00    	jmp    *0xc574
    a8b6:	68 e8 00 00 00       	push   $0xe8
    a8bb:	e9 10 fe ff ff       	jmp    a6d0 <portrng_empty+0x2110>

0000a8c0 <prodcons_initialize@plt>:
    a8c0:	ff 25 78 c5 00 00    	jmp    *0xc578
    a8c6:	68 f0 00 00 00       	push   $0xf0
    a8cb:	e9 00 fe ff ff       	jmp    a6d0 <portrng_empty+0x2110>

0000a8d0 <inet_addr_get@plt>:
    a8d0:	ff 25 7c c5 00 00    	jmp    *0xc57c
    a8d6:	68 f8 00 00 00       	push   $0xf8
    a8db:	e9 f0 fd ff ff       	jmp    a6d0 <portrng_empty+0x2110>

0000a8e0 <prodcons_consume@plt>:
    a8e0:	ff 25 80 c5 00 00    	jmp    *0xc580
    a8e6:	68 00 01 00 00       	push   $0x100
    a8eb:	e9 e0 fd ff ff       	jmp    a6d0 <portrng_empty+0x2110>

0000a8f0 <memset@plt>:
    a8f0:	ff 25 84 c5 00 00    	jmp    *0xc584
    a8f6:	68 08 01 00 00       	push   $0x108
    a8fb:	e9 d0 fd ff ff       	jmp    a6d0 <portrng_empty+0x2110>

0000a900 <async_data_read_receive@plt>:
    a900:	ff 25 88 c5 00 00    	jmp    *0xc588
    a906:	68 10 01 00 00       	push   $0x110
    a90b:	e9 c0 fd ff ff       	jmp    a6d0 <portrng_empty+0x2110>

0000a910 <async_usleep@plt>:
    a910:	ff 25 8c c5 00 00    	jmp    *0xc58c
    a916:	68 18 01 00 00       	push   $0x118
    a91b:	e9 b0 fd ff ff       	jmp    a6d0 <portrng_empty+0x2110>

0000a920 <loc_server_register@plt>:
    a920:	ff 25 90 c5 00 00    	jmp    *0xc590
    a926:	68 20 01 00 00       	push   $0x120
    a92b:	e9 a0 fd ff ff       	jmp    a6d0 <portrng_empty+0x2110>

0000a930 <inet_addr_compare@plt>:
    a930:	ff 25 94 c5 00 00    	jmp    *0xc594
    a936:	68 28 01 00 00       	push   $0x128
    a93b:	e9 90 fd ff ff       	jmp    a6d0 <portrng_empty+0x2110>

0000a940 <async_get_call_timeout@plt>:
    a940:	ff 25 98 c5 00 00    	jmp    *0xc598
    a946:	68 30 01 00 00       	push   $0x130
    a94b:	e9 80 fd ff ff       	jmp    a6d0 <portrng_empty+0x2110>

0000a950 <list_count@plt>:
    a950:	ff 25 9c c5 00 00    	jmp    *0xc59c
    a956:	68 38 01 00 00       	push   $0x138
    a95b:	e9 70 fd ff ff       	jmp    a6d0 <portrng_empty+0x2110>

0000a960 <async_answer_1@plt>:
    a960:	ff 25 a0 c5 00 00    	jmp    *0xc5a0
    a966:	68 40 01 00 00       	push   $0x140
    a96b:	e9 60 fd ff ff       	jmp    a6d0 <portrng_empty+0x2110>

0000a970 <async_exchange_begin@plt>:
    a970:	ff 25 a4 c5 00 00    	jmp    *0xc5a4
    a976:	68 48 01 00 00       	push   $0x148
    a97b:	e9 50 fd ff ff       	jmp    a6d0 <portrng_empty+0x2110>

0000a980 <async_data_write_finalize@plt>:
    a980:	ff 25 a8 c5 00 00    	jmp    *0xc5a8
    a986:	68 50 01 00 00       	push   $0x150
    a98b:	e9 40 fd ff ff       	jmp    a6d0 <portrng_empty+0x2110>

0000a990 <prodcons_produce@plt>:
    a990:	ff 25 ac c5 00 00    	jmp    *0xc5ac
    a996:	68 58 01 00 00       	push   $0x158
    a99b:	e9 30 fd ff ff       	jmp    a6d0 <portrng_empty+0x2110>

0000a9a0 <async_forget@plt>:
    a9a0:	ff 25 b0 c5 00 00    	jmp    *0xc5b0
    a9a6:	68 60 01 00 00       	push   $0x160
    a9ab:	e9 20 fd ff ff       	jmp    a6d0 <portrng_empty+0x2110>

0000a9b0 <fibril_create_generic@plt>:
    a9b0:	ff 25 b4 c5 00 00    	jmp    *0xc5b4
    a9b6:	68 68 01 00 00       	push   $0x168
    a9bb:	e9 10 fd ff ff       	jmp    a6d0 <portrng_empty+0x2110>

0000a9c0 <fibril_add_ready@plt>:
    a9c0:	ff 25 b8 c5 00 00    	jmp    *0xc5b8
    a9c6:	68 70 01 00 00       	push   $0x170
    a9cb:	e9 00 fd ff ff       	jmp    a6d0 <portrng_empty+0x2110>

0000a9d0 <fibril_switch@plt>:
    a9d0:	ff 25 bc c5 00 00    	jmp    *0xc5bc
    a9d6:	68 78 01 00 00       	push   $0x178
    a9db:	e9 f0 fc ff ff       	jmp    a6d0 <portrng_empty+0x2110>

0000a9e0 <__syscall_fast@plt>:
    a9e0:	ff 25 c0 c5 00 00    	jmp    *0xc5c0
    a9e6:	68 80 01 00 00       	push   $0x180
    a9eb:	e9 e0 fc ff ff       	jmp    a6d0 <portrng_empty+0x2110>

0000a9f0 <inet_addr_is_any@plt>:
    a9f0:	ff 25 c4 c5 00 00    	jmp    *0xc5c4
    a9f6:	68 88 01 00 00       	push   $0x188
    a9fb:	e9 d0 fc ff ff       	jmp    a6d0 <portrng_empty+0x2110>

0000aa00 <fibril_timer_create@plt>:
    aa00:	ff 25 c8 c5 00 00    	jmp    *0xc5c8
    aa06:	68 90 01 00 00       	push   $0x190
    aa0b:	e9 c0 fc ff ff       	jmp    a6d0 <portrng_empty+0x2110>

0000aa10 <async_set_fallback_port_handler@plt>:
    aa10:	ff 25 cc c5 00 00    	jmp    *0xc5cc
    aa16:	68 98 01 00 00       	push   $0x198
    aa1b:	e9 b0 fc ff ff       	jmp    a6d0 <portrng_empty+0x2110>

0000aa20 <async_data_write_receive@plt>:
    aa20:	ff 25 d0 c5 00 00    	jmp    *0xc5d0
    aa26:	68 a0 01 00 00       	push   $0x1a0
    aa2b:	e9 a0 fc ff ff       	jmp    a6d0 <portrng_empty+0x2110>

0000aa30 <fibril_timer_clear_locked@plt>:
    aa30:	ff 25 d4 c5 00 00    	jmp    *0xc5d4
    aa36:	68 a8 01 00 00       	push   $0x1a8
    aa3b:	e9 90 fc ff ff       	jmp    a6d0 <portrng_empty+0x2110>

0000aa40 <async_callback_receive@plt>:
    aa40:	ff 25 d8 c5 00 00    	jmp    *0xc5d8
    aa46:	68 b0 01 00 00       	push   $0x1b0
    aa4b:	e9 80 fc ff ff       	jmp    a6d0 <portrng_empty+0x2110>

0000aa50 <free@plt>:
    aa50:	ff 25 dc c5 00 00    	jmp    *0xc5dc
    aa56:	68 b8 01 00 00       	push   $0x1b8
    aa5b:	e9 70 fc ff ff       	jmp    a6d0 <portrng_empty+0x2110>

0000aa60 <fibril_mutex_lock@plt>:
    aa60:	ff 25 e0 c5 00 00    	jmp    *0xc5e0
    aa66:	68 c0 01 00 00       	push   $0x1c0
    aa6b:	e9 60 fc ff ff       	jmp    a6d0 <portrng_empty+0x2110>
