
tcp:     file format elf32-i386


Disassembly of section .init:

000010f4 <__entry>:
    10f4:	66 8c d0             	mov    %ss,%ax
    10f7:	8e d8                	mov    %eax,%ds
    10f9:	8e c0                	mov    %eax,%es
    10fb:	8e e0                	mov    %eax,%fs
    10fd:	b8 01 00 00 00       	mov    $0x1,%eax
    1102:	0f a2                	cpuid  
    1104:	0f ba e2 0b          	bt     $0xb,%edx
    1108:	73 0c                	jae    1116 <__entry+0x22>
    110a:	8d 05 00 c6 00 00    	lea    0xc600,%eax
    1110:	c7 00 e0 a9 00 00    	movl   $0xa9e0,(%eax)
    1116:	6a 00                	push   $0x0
    1118:	6a 00                	push   $0x0
    111a:	89 e5                	mov    %esp,%ebp
    111c:	57                   	push   %edi
    111d:	e8 be 95 00 00       	call   a6e0 <__main@plt>

Disassembly of section .text:

00001130 <tcp_conn_seg_proc_ack_est>:
    1130:	55                   	push   %ebp
    1131:	89 e5                	mov    %esp,%ebp
    1133:	56                   	push   %esi
    1134:	53                   	push   %ebx
    1135:	89 c3                	mov    %eax,%ebx
    1137:	83 ec 0c             	sub    $0xc,%esp
    113a:	89 d6                	mov    %edx,%esi
    113c:	52                   	push   %edx
    113d:	50                   	push   %eax
    113e:	68 e8 85 00 00       	push   $0x85e8
    1143:	6a 04                	push   $0x4
    1145:	6a ff                	push   $0xffffffff
    1147:	e8 84 96 00 00       	call   a7d0 <log_msg@plt>
    114c:	83 c4 18             	add    $0x18,%esp
    114f:	8b 83 c8 00 00 00    	mov    0xc8(%ebx),%eax
    1155:	50                   	push   %eax
    1156:	8b 83 c4 00 00 00    	mov    0xc4(%ebx),%eax
    115c:	50                   	push   %eax
    115d:	8b 46 08             	mov    0x8(%esi),%eax
    1160:	50                   	push   %eax
    1161:	68 0c 86 00 00       	push   $0x860c
    1166:	6a 04                	push   $0x4
    1168:	6a ff                	push   $0xffffffff
    116a:	e8 61 96 00 00       	call   a7d0 <log_msg@plt>
    116f:	83 c4 18             	add    $0x18,%esp
    1172:	8b 46 08             	mov    0x8(%esi),%eax
    1175:	50                   	push   %eax
    1176:	53                   	push   %ebx
    1177:	e8 64 47 00 00       	call   58e0 <seq_no_ack_acceptable>
    117c:	83 c4 10             	add    $0x10,%esp
    117f:	84 c0                	test   %al,%al
    1181:	74 35                	je     11b8 <tcp_conn_seg_proc_ack_est+0x88>
    1183:	8b 46 08             	mov    0x8(%esi),%eax
    1186:	89 83 c4 00 00 00    	mov    %eax,0xc4(%ebx)
    118c:	50                   	push   %eax
    118d:	50                   	push   %eax
    118e:	56                   	push   %esi
    118f:	53                   	push   %ebx
    1190:	e8 eb 47 00 00       	call   5980 <seq_no_new_wnd_update>
    1195:	83 c4 10             	add    $0x10,%esp
    1198:	84 c0                	test   %al,%al
    119a:	75 64                	jne    1200 <tcp_conn_seg_proc_ack_est+0xd0>
    119c:	83 ec 0c             	sub    $0xc,%esp
    119f:	53                   	push   %ebx
    11a0:	e8 db 59 00 00       	call   6b80 <tcp_tqueue_ack_received>
    11a5:	83 c4 10             	add    $0x10,%esp
    11a8:	8d 65 f8             	lea    -0x8(%ebp),%esp
    11ab:	31 c0                	xor    %eax,%eax
    11ad:	5b                   	pop    %ebx
    11ae:	5e                   	pop    %esi
    11af:	5d                   	pop    %ebp
    11b0:	c3                   	ret    
    11b1:	8d b4 26 00 00 00 00 	lea    0x0(%esi,%eiz,1),%esi
    11b8:	51                   	push   %ecx
    11b9:	68 c6 8a 00 00       	push   $0x8ac6
    11be:	6a 04                	push   $0x4
    11c0:	6a ff                	push   $0xffffffff
    11c2:	e8 09 96 00 00       	call   a7d0 <log_msg@plt>
    11c7:	8b 4e 08             	mov    0x8(%esi),%ecx
    11ca:	58                   	pop    %eax
    11cb:	5a                   	pop    %edx
    11cc:	51                   	push   %ecx
    11cd:	53                   	push   %ebx
    11ce:	e8 4d 47 00 00       	call   5920 <seq_no_ack_duplicate>
    11d3:	83 c4 10             	add    $0x10,%esp
    11d6:	84 c0                	test   %al,%al
    11d8:	74 5e                	je     1238 <tcp_conn_seg_proc_ack_est+0x108>
    11da:	50                   	push   %eax
    11db:	68 da 8a 00 00       	push   $0x8ada
    11e0:	6a 04                	push   $0x4
    11e2:	6a ff                	push   $0xffffffff
    11e4:	e8 e7 95 00 00       	call   a7d0 <log_msg@plt>
    11e9:	83 c4 10             	add    $0x10,%esp
    11ec:	50                   	push   %eax
    11ed:	50                   	push   %eax
    11ee:	56                   	push   %esi
    11ef:	53                   	push   %ebx
    11f0:	e8 8b 47 00 00       	call   5980 <seq_no_new_wnd_update>
    11f5:	83 c4 10             	add    $0x10,%esp
    11f8:	84 c0                	test   %al,%al
    11fa:	74 a0                	je     119c <tcp_conn_seg_proc_ack_est+0x6c>
    11fc:	8d 74 26 00          	lea    0x0(%esi,%eiz,1),%esi
    1200:	8b 46 10             	mov    0x10(%esi),%eax
    1203:	8b 56 04             	mov    0x4(%esi),%edx
    1206:	8b 4e 08             	mov    0x8(%esi),%ecx
    1209:	89 83 cc 00 00 00    	mov    %eax,0xcc(%ebx)
    120f:	89 93 d4 00 00 00    	mov    %edx,0xd4(%ebx)
    1215:	56                   	push   %esi
    1216:	89 8b d8 00 00 00    	mov    %ecx,0xd8(%ebx)
    121c:	56                   	push   %esi
    121d:	51                   	push   %ecx
    121e:	52                   	push   %edx
    121f:	50                   	push   %eax
    1220:	68 64 86 00 00       	push   $0x8664
    1225:	6a 04                	push   $0x4
    1227:	6a ff                	push   $0xffffffff
    1229:	e8 a2 95 00 00       	call   a7d0 <log_msg@plt>
    122e:	83 c4 20             	add    $0x20,%esp
    1231:	e9 66 ff ff ff       	jmp    119c <tcp_conn_seg_proc_ack_est+0x6c>
    1236:	66 90                	xchg   %ax,%ax
    1238:	50                   	push   %eax
    1239:	68 30 86 00 00       	push   $0x8630
    123e:	6a 02                	push   $0x2
    1240:	6a ff                	push   $0xffffffff
    1242:	e8 89 95 00 00       	call   a7d0 <log_msg@plt>
    1247:	58                   	pop    %eax
    1248:	5a                   	pop    %edx
    1249:	6a 08                	push   $0x8
    124b:	53                   	push   %ebx
    124c:	e8 3f 56 00 00       	call   6890 <tcp_tqueue_ctrl_seg>
    1251:	89 34 24             	mov    %esi,(%esp)
    1254:	e8 d7 30 00 00       	call   4330 <tcp_segment_delete>
    1259:	83 c4 10             	add    $0x10,%esp
    125c:	8d 65 f8             	lea    -0x8(%ebp),%esp
    125f:	b8 01 00 00 00       	mov    $0x1,%eax
    1264:	5b                   	pop    %ebx
    1265:	5e                   	pop    %esi
    1266:	5d                   	pop    %ebp
    1267:	c3                   	ret    
    1268:	90                   	nop
    1269:	8d b4 26 00 00 00 00 	lea    0x0(%esi,%eiz,1),%esi

00001270 <tcp_conn_state_set>:
    1270:	55                   	push   %ebp
    1271:	89 e5                	mov    %esp,%ebp
    1273:	57                   	push   %edi
    1274:	56                   	push   %esi
    1275:	53                   	push   %ebx
    1276:	83 ec 0c             	sub    $0xc,%esp
    1279:	89 c3                	mov    %eax,%ebx
    127b:	89 d6                	mov    %edx,%esi
    127d:	50                   	push   %eax
    127e:	68 f2 8a 00 00       	push   $0x8af2
    1283:	6a 04                	push   $0x4
    1285:	6a ff                	push   $0xffffffff
    1287:	e8 44 95 00 00       	call   a7d0 <log_msg@plt>
    128c:	8d 43 68             	lea    0x68(%ebx),%eax
    128f:	8b 7b 60             	mov    0x60(%ebx),%edi
    1292:	89 73 60             	mov    %esi,0x60(%ebx)
    1295:	89 04 24             	mov    %eax,(%esp)
    1298:	e8 f3 95 00 00       	call   a890 <fibril_condvar_broadcast@plt>
    129d:	8b 43 0c             	mov    0xc(%ebx),%eax
    12a0:	83 c4 10             	add    $0x10,%esp
    12a3:	85 c0                	test   %eax,%eax
    12a5:	74 41                	je     12e8 <tcp_conn_state_set+0x78>
    12a7:	8b 08                	mov    (%eax),%ecx
    12a9:	85 c9                	test   %ecx,%ecx
    12ab:	74 3b                	je     12e8 <tcp_conn_state_set+0x78>
    12ad:	50                   	push   %eax
    12ae:	68 a0 86 00 00       	push   $0x86a0
    12b3:	6a 04                	push   $0x4
    12b5:	6a ff                	push   $0xffffffff
    12b7:	e8 14 95 00 00       	call   a7d0 <log_msg@plt>
    12bc:	83 c4 0c             	add    $0xc,%esp
    12bf:	8b 53 10             	mov    0x10(%ebx),%edx
    12c2:	8b 43 0c             	mov    0xc(%ebx),%eax
    12c5:	57                   	push   %edi
    12c6:	52                   	push   %edx
    12c7:	53                   	push   %ebx
    12c8:	ff 10                	call   *(%eax)
    12ca:	83 c4 10             	add    $0x10,%esp
    12cd:	83 ff 0a             	cmp    $0xa,%edi
    12d0:	0f 84 c4 01 00 00    	je     149a <tcp_conn_state_set+0x22a>
    12d6:	83 fe 0a             	cmp    $0xa,%esi
    12d9:	74 25                	je     1300 <tcp_conn_state_set+0x90>
    12db:	8d 65 f4             	lea    -0xc(%ebp),%esp
    12de:	5b                   	pop    %ebx
    12df:	5e                   	pop    %esi
    12e0:	5f                   	pop    %edi
    12e1:	5d                   	pop    %ebp
    12e2:	c3                   	ret    
    12e3:	90                   	nop
    12e4:	8d 74 26 00          	lea    0x0(%esi,%eiz,1),%esi
    12e8:	50                   	push   %eax
    12e9:	68 c4 86 00 00       	push   $0x86c4
    12ee:	6a 04                	push   $0x4
    12f0:	6a ff                	push   $0xffffffff
    12f2:	e8 d9 94 00 00       	call   a7d0 <log_msg@plt>
    12f7:	83 c4 10             	add    $0x10,%esp
    12fa:	eb d1                	jmp    12cd <tcp_conn_state_set+0x5d>
    12fc:	8d 74 26 00          	lea    0x0(%esi,%eiz,1),%esi
    1300:	83 ec 0c             	sub    $0xc,%esp
    1303:	68 c8 c4 00 00       	push   $0xc4c8
    1308:	e8 53 97 00 00       	call   aa60 <fibril_mutex_lock@plt>
    130d:	8d 43 14             	lea    0x14(%ebx),%eax
    1310:	5e                   	pop    %esi
    1311:	5f                   	pop    %edi
    1312:	50                   	push   %eax
    1313:	a1 08 c6 00 00       	mov    0xc608,%eax
    1318:	50                   	push   %eax
    1319:	e8 e2 6a 00 00       	call   7e00 <amap_remove>
    131e:	8b 53 04             	mov    0x4(%ebx),%edx
    1321:	83 c4 10             	add    $0x10,%esp
    1324:	85 d2                	test   %edx,%edx
    1326:	74 0f                	je     1337 <tcp_conn_state_set+0xc7>
    1328:	8b 43 08             	mov    0x8(%ebx),%eax
    132b:	85 c0                	test   %eax,%eax
    132d:	74 08                	je     1337 <tcp_conn_state_set+0xc7>
    132f:	89 10                	mov    %edx,(%eax)
    1331:	8b 53 04             	mov    0x4(%ebx),%edx
    1334:	89 42 04             	mov    %eax,0x4(%edx)
    1337:	83 ec 0c             	sub    $0xc,%esp
    133a:	c7 43 04 00 00 00 00 	movl   $0x0,0x4(%ebx)
    1341:	c7 43 08 00 00 00 00 	movl   $0x0,0x8(%ebx)
    1348:	68 c8 c4 00 00       	push   $0xc4c8
    134d:	e8 4e 95 00 00       	call   a8a0 <fibril_mutex_unlock@plt>
    1352:	8b 43 5c             	mov    0x5c(%ebx),%eax
    1355:	8b 0b                	mov    (%ebx),%ecx
    1357:	5f                   	pop    %edi
    1358:	5a                   	pop    %edx
    1359:	50                   	push   %eax
    135a:	53                   	push   %ebx
    135b:	51                   	push   %ecx
    135c:	68 e8 86 00 00       	push   $0x86e8
    1361:	6a 05                	push   $0x5
    1363:	6a ff                	push   $0xffffffff
    1365:	e8 66 94 00 00       	call   a7d0 <log_msg@plt>
    136a:	83 c8 ff             	or     $0xffffffff,%eax
    136d:	f0 0f c1 43 5c       	lock xadd %eax,0x5c(%ebx)
    1372:	83 c4 20             	add    $0x20,%esp
    1375:	48                   	dec    %eax
    1376:	0f 84 a4 00 00 00    	je     1420 <tcp_conn_state_set+0x1b0>
    137c:	8b 43 5c             	mov    0x5c(%ebx),%eax
    137f:	8b 0b                	mov    (%ebx),%ecx
    1381:	52                   	push   %edx
    1382:	52                   	push   %edx
    1383:	50                   	push   %eax
    1384:	53                   	push   %ebx
    1385:	51                   	push   %ecx
    1386:	68 e8 86 00 00       	push   $0x86e8
    138b:	6a 05                	push   $0x5
    138d:	6a ff                	push   $0xffffffff
    138f:	e8 3c 94 00 00       	call   a7d0 <log_msg@plt>
    1394:	83 c8 ff             	or     $0xffffffff,%eax
    1397:	f0 0f c1 43 5c       	lock xadd %eax,0x5c(%ebx)
    139c:	83 c4 20             	add    $0x20,%esp
    139f:	48                   	dec    %eax
    13a0:	0f 85 35 ff ff ff    	jne    12db <tcp_conn_state_set+0x6b>
    13a6:	83 ec 0c             	sub    $0xc,%esp
    13a9:	8b 03                	mov    (%ebx),%eax
    13ab:	53                   	push   %ebx
    13ac:	50                   	push   %eax
    13ad:	68 27 8b 00 00       	push   $0x8b27
    13b2:	6a 04                	push   $0x4
    13b4:	6a ff                	push   $0xffffffff
    13b6:	e8 15 94 00 00       	call   a7d0 <log_msg@plt>
    13bb:	83 c4 14             	add    $0x14,%esp
    13be:	8d 83 80 00 00 00    	lea    0x80(%ebx),%eax
    13c4:	50                   	push   %eax
    13c5:	e8 56 52 00 00       	call   6620 <tcp_tqueue_fini>
    13ca:	8b 83 94 00 00 00    	mov    0x94(%ebx),%eax
    13d0:	83 c4 10             	add    $0x10,%esp
    13d3:	85 c0                	test   %eax,%eax
    13d5:	74 0c                	je     13e3 <tcp_conn_state_set+0x173>
    13d7:	83 ec 0c             	sub    $0xc,%esp
    13da:	50                   	push   %eax
    13db:	e8 70 96 00 00       	call   aa50 <free@plt>
    13e0:	83 c4 10             	add    $0x10,%esp
    13e3:	8b 83 ac 00 00 00    	mov    0xac(%ebx),%eax
    13e9:	85 c0                	test   %eax,%eax
    13eb:	74 0c                	je     13f9 <tcp_conn_state_set+0x189>
    13ed:	83 ec 0c             	sub    $0xc,%esp
    13f0:	50                   	push   %eax
    13f1:	e8 5a 96 00 00       	call   aa50 <free@plt>
    13f6:	83 c4 10             	add    $0x10,%esp
    13f9:	8b 83 90 00 00 00    	mov    0x90(%ebx),%eax
    13ff:	85 c0                	test   %eax,%eax
    1401:	74 0c                	je     140f <tcp_conn_state_set+0x19f>
    1403:	83 ec 0c             	sub    $0xc,%esp
    1406:	50                   	push   %eax
    1407:	e8 04 94 00 00       	call   a810 <fibril_timer_destroy@plt>
    140c:	83 c4 10             	add    $0x10,%esp
    140f:	83 ec 0c             	sub    $0xc,%esp
    1412:	53                   	push   %ebx
    1413:	e8 38 96 00 00       	call   aa50 <free@plt>
    1418:	83 c4 10             	add    $0x10,%esp
    141b:	e9 bb fe ff ff       	jmp    12db <tcp_conn_state_set+0x6b>
    1420:	83 ec 0c             	sub    $0xc,%esp
    1423:	8b 33                	mov    (%ebx),%esi
    1425:	53                   	push   %ebx
    1426:	56                   	push   %esi
    1427:	68 27 8b 00 00       	push   $0x8b27
    142c:	6a 04                	push   $0x4
    142e:	6a ff                	push   $0xffffffff
    1430:	e8 9b 93 00 00       	call   a7d0 <log_msg@plt>
    1435:	83 c4 14             	add    $0x14,%esp
    1438:	8d 83 80 00 00 00    	lea    0x80(%ebx),%eax
    143e:	50                   	push   %eax
    143f:	e8 dc 51 00 00       	call   6620 <tcp_tqueue_fini>
    1444:	8b 83 94 00 00 00    	mov    0x94(%ebx),%eax
    144a:	83 c4 10             	add    $0x10,%esp
    144d:	85 c0                	test   %eax,%eax
    144f:	74 0c                	je     145d <tcp_conn_state_set+0x1ed>
    1451:	83 ec 0c             	sub    $0xc,%esp
    1454:	50                   	push   %eax
    1455:	e8 f6 95 00 00       	call   aa50 <free@plt>
    145a:	83 c4 10             	add    $0x10,%esp
    145d:	8b 83 ac 00 00 00    	mov    0xac(%ebx),%eax
    1463:	85 c0                	test   %eax,%eax
    1465:	74 0c                	je     1473 <tcp_conn_state_set+0x203>
    1467:	83 ec 0c             	sub    $0xc,%esp
    146a:	50                   	push   %eax
    146b:	e8 e0 95 00 00       	call   aa50 <free@plt>
    1470:	83 c4 10             	add    $0x10,%esp
    1473:	8b 83 90 00 00 00    	mov    0x90(%ebx),%eax
    1479:	85 c0                	test   %eax,%eax
    147b:	74 0c                	je     1489 <tcp_conn_state_set+0x219>
    147d:	83 ec 0c             	sub    $0xc,%esp
    1480:	50                   	push   %eax
    1481:	e8 8a 93 00 00       	call   a810 <fibril_timer_destroy@plt>
    1486:	83 c4 10             	add    $0x10,%esp
    1489:	83 ec 0c             	sub    $0xc,%esp
    148c:	53                   	push   %ebx
    148d:	e8 be 95 00 00       	call   aa50 <free@plt>
    1492:	83 c4 10             	add    $0x10,%esp
    1495:	e9 e2 fe ff ff       	jmp    137c <tcp_conn_state_set+0x10c>
    149a:	50                   	push   %eax
    149b:	68 42 01 00 00       	push   $0x142
    14a0:	68 09 8b 00 00       	push   $0x8b09
    14a5:	68 10 8b 00 00       	push   $0x8b10
    14aa:	e8 81 93 00 00       	call   a830 <assert_abort@plt>
    14af:	90                   	nop

000014b0 <tw_timeout_func>:
    14b0:	55                   	push   %ebp
    14b1:	89 e5                	mov    %esp,%ebp
    14b3:	56                   	push   %esi
    14b4:	53                   	push   %ebx
    14b5:	8b 5d 08             	mov    0x8(%ebp),%ebx
    14b8:	53                   	push   %ebx
    14b9:	68 3d 8b 00 00       	push   $0x8b3d
    14be:	8d 73 4c             	lea    0x4c(%ebx),%esi
    14c1:	6a 04                	push   $0x4
    14c3:	6a ff                	push   $0xffffffff
    14c5:	e8 06 93 00 00       	call   a7d0 <log_msg@plt>
    14ca:	89 34 24             	mov    %esi,(%esp)
    14cd:	e8 8e 95 00 00       	call   aa60 <fibril_mutex_lock@plt>
    14d2:	83 c4 10             	add    $0x10,%esp
    14d5:	83 7b 60 0a          	cmpl   $0xa,0x60(%ebx)
    14d9:	74 6d                	je     1548 <tw_timeout_func+0x98>
    14db:	8b 13                	mov    (%ebx),%edx
    14dd:	52                   	push   %edx
    14de:	68 6c 8b 00 00       	push   $0x8b6c
    14e3:	6a 04                	push   $0x4
    14e5:	6a ff                	push   $0xffffffff
    14e7:	e8 e4 92 00 00       	call   a7d0 <log_msg@plt>
    14ec:	ba 0a 00 00 00       	mov    $0xa,%edx
    14f1:	89 d8                	mov    %ebx,%eax
    14f3:	e8 78 fd ff ff       	call   1270 <tcp_conn_state_set>
    14f8:	89 34 24             	mov    %esi,(%esp)
    14fb:	e8 a0 93 00 00       	call   a8a0 <fibril_mutex_unlock@plt>
    1500:	8b 43 5c             	mov    0x5c(%ebx),%eax
    1503:	59                   	pop    %ecx
    1504:	5e                   	pop    %esi
    1505:	50                   	push   %eax
    1506:	53                   	push   %ebx
    1507:	8b 03                	mov    (%ebx),%eax
    1509:	50                   	push   %eax
    150a:	68 e8 86 00 00       	push   $0x86e8
    150f:	6a 05                	push   $0x5
    1511:	6a ff                	push   $0xffffffff
    1513:	e8 b8 92 00 00       	call   a7d0 <log_msg@plt>
    1518:	83 c8 ff             	or     $0xffffffff,%eax
    151b:	f0 0f c1 43 5c       	lock xadd %eax,0x5c(%ebx)
    1520:	83 c4 20             	add    $0x20,%esp
    1523:	48                   	dec    %eax
    1524:	0f 84 d6 00 00 00    	je     1600 <tw_timeout_func+0x150>
    152a:	53                   	push   %ebx
    152b:	68 85 8b 00 00       	push   $0x8b85
    1530:	6a 04                	push   $0x4
    1532:	6a ff                	push   $0xffffffff
    1534:	e8 97 92 00 00       	call   a7d0 <log_msg@plt>
    1539:	83 c4 10             	add    $0x10,%esp
    153c:	8d 65 f8             	lea    -0x8(%ebp),%esp
    153f:	5b                   	pop    %ebx
    1540:	5e                   	pop    %esi
    1541:	5d                   	pop    %ebp
    1542:	c3                   	ret    
    1543:	90                   	nop
    1544:	8d 74 26 00          	lea    0x0(%esi,%eiz,1),%esi
    1548:	50                   	push   %eax
    1549:	68 51 8b 00 00       	push   $0x8b51
    154e:	6a 04                	push   $0x4
    1550:	6a ff                	push   $0xffffffff
    1552:	e8 79 92 00 00       	call   a7d0 <log_msg@plt>
    1557:	89 34 24             	mov    %esi,(%esp)
    155a:	e8 41 93 00 00       	call   a8a0 <fibril_mutex_unlock@plt>
    155f:	8b 43 5c             	mov    0x5c(%ebx),%eax
    1562:	5a                   	pop    %edx
    1563:	59                   	pop    %ecx
    1564:	50                   	push   %eax
    1565:	53                   	push   %ebx
    1566:	8b 33                	mov    (%ebx),%esi
    1568:	56                   	push   %esi
    1569:	68 e8 86 00 00       	push   $0x86e8
    156e:	6a 05                	push   $0x5
    1570:	6a ff                	push   $0xffffffff
    1572:	e8 59 92 00 00       	call   a7d0 <log_msg@plt>
    1577:	83 c8 ff             	or     $0xffffffff,%eax
    157a:	f0 0f c1 43 5c       	lock xadd %eax,0x5c(%ebx)
    157f:	83 c4 20             	add    $0x20,%esp
    1582:	48                   	dec    %eax
    1583:	75 b7                	jne    153c <tw_timeout_func+0x8c>
    1585:	83 ec 0c             	sub    $0xc,%esp
    1588:	53                   	push   %ebx
    1589:	8b 03                	mov    (%ebx),%eax
    158b:	50                   	push   %eax
    158c:	68 27 8b 00 00       	push   $0x8b27
    1591:	6a 04                	push   $0x4
    1593:	6a ff                	push   $0xffffffff
    1595:	e8 36 92 00 00       	call   a7d0 <log_msg@plt>
    159a:	83 c4 14             	add    $0x14,%esp
    159d:	8d 83 80 00 00 00    	lea    0x80(%ebx),%eax
    15a3:	50                   	push   %eax
    15a4:	e8 77 50 00 00       	call   6620 <tcp_tqueue_fini>
    15a9:	8b 83 94 00 00 00    	mov    0x94(%ebx),%eax
    15af:	83 c4 10             	add    $0x10,%esp
    15b2:	85 c0                	test   %eax,%eax
    15b4:	74 0c                	je     15c2 <tw_timeout_func+0x112>
    15b6:	83 ec 0c             	sub    $0xc,%esp
    15b9:	50                   	push   %eax
    15ba:	e8 91 94 00 00       	call   aa50 <free@plt>
    15bf:	83 c4 10             	add    $0x10,%esp
    15c2:	8b 83 ac 00 00 00    	mov    0xac(%ebx),%eax
    15c8:	85 c0                	test   %eax,%eax
    15ca:	74 0c                	je     15d8 <tw_timeout_func+0x128>
    15cc:	83 ec 0c             	sub    $0xc,%esp
    15cf:	50                   	push   %eax
    15d0:	e8 7b 94 00 00       	call   aa50 <free@plt>
    15d5:	83 c4 10             	add    $0x10,%esp
    15d8:	8b 83 90 00 00 00    	mov    0x90(%ebx),%eax
    15de:	85 c0                	test   %eax,%eax
    15e0:	74 0c                	je     15ee <tw_timeout_func+0x13e>
    15e2:	83 ec 0c             	sub    $0xc,%esp
    15e5:	50                   	push   %eax
    15e6:	e8 25 92 00 00       	call   a810 <fibril_timer_destroy@plt>
    15eb:	83 c4 10             	add    $0x10,%esp
    15ee:	89 5d 08             	mov    %ebx,0x8(%ebp)
    15f1:	8d 65 f8             	lea    -0x8(%ebp),%esp
    15f4:	5b                   	pop    %ebx
    15f5:	5e                   	pop    %esi
    15f6:	5d                   	pop    %ebp
    15f7:	e9 54 94 00 00       	jmp    aa50 <free@plt>
    15fc:	8d 74 26 00          	lea    0x0(%esi,%eiz,1),%esi
    1600:	83 ec 0c             	sub    $0xc,%esp
    1603:	53                   	push   %ebx
    1604:	8b 03                	mov    (%ebx),%eax
    1606:	50                   	push   %eax
    1607:	68 27 8b 00 00       	push   $0x8b27
    160c:	6a 04                	push   $0x4
    160e:	6a ff                	push   $0xffffffff
    1610:	e8 bb 91 00 00       	call   a7d0 <log_msg@plt>
    1615:	83 c4 14             	add    $0x14,%esp
    1618:	8d 83 80 00 00 00    	lea    0x80(%ebx),%eax
    161e:	50                   	push   %eax
    161f:	e8 fc 4f 00 00       	call   6620 <tcp_tqueue_fini>
    1624:	8b 83 94 00 00 00    	mov    0x94(%ebx),%eax
    162a:	83 c4 10             	add    $0x10,%esp
    162d:	85 c0                	test   %eax,%eax
    162f:	74 0c                	je     163d <tw_timeout_func+0x18d>
    1631:	83 ec 0c             	sub    $0xc,%esp
    1634:	50                   	push   %eax
    1635:	e8 16 94 00 00       	call   aa50 <free@plt>
    163a:	83 c4 10             	add    $0x10,%esp
    163d:	8b 83 ac 00 00 00    	mov    0xac(%ebx),%eax
    1643:	85 c0                	test   %eax,%eax
    1645:	74 0c                	je     1653 <tw_timeout_func+0x1a3>
    1647:	83 ec 0c             	sub    $0xc,%esp
    164a:	50                   	push   %eax
    164b:	e8 00 94 00 00       	call   aa50 <free@plt>
    1650:	83 c4 10             	add    $0x10,%esp
    1653:	8b 83 90 00 00 00    	mov    0x90(%ebx),%eax
    1659:	85 c0                	test   %eax,%eax
    165b:	74 0c                	je     1669 <tw_timeout_func+0x1b9>
    165d:	83 ec 0c             	sub    $0xc,%esp
    1660:	50                   	push   %eax
    1661:	e8 aa 91 00 00       	call   a810 <fibril_timer_destroy@plt>
    1666:	83 c4 10             	add    $0x10,%esp
    1669:	83 ec 0c             	sub    $0xc,%esp
    166c:	53                   	push   %ebx
    166d:	e8 de 93 00 00       	call   aa50 <free@plt>
    1672:	83 c4 10             	add    $0x10,%esp
    1675:	e9 b0 fe ff ff       	jmp    152a <tw_timeout_func+0x7a>
    167a:	8d b6 00 00 00 00    	lea    0x0(%esi),%esi

00001680 <tcp_conns_init>:
    1680:	55                   	push   %ebp
    1681:	89 e5                	mov    %esp,%ebp
    1683:	83 ec 14             	sub    $0x14,%esp
    1686:	68 08 c6 00 00       	push   $0xc608
    168b:	e8 f0 61 00 00       	call   7880 <amap_create>
    1690:	83 c4 10             	add    $0x10,%esp
    1693:	85 c0                	test   %eax,%eax
    1695:	74 05                	je     169c <tcp_conns_init+0x1c>
    1697:	83 f8 fe             	cmp    $0xfffffffe,%eax
    169a:	75 02                	jne    169e <tcp_conns_init+0x1e>
    169c:	c9                   	leave  
    169d:	c3                   	ret    
    169e:	50                   	push   %eax
    169f:	6a 4b                	push   $0x4b
    16a1:	68 09 8b 00 00       	push   $0x8b09
    16a6:	68 9d 8b 00 00       	push   $0x8b9d
    16ab:	e8 80 91 00 00       	call   a830 <assert_abort@plt>

000016b0 <tcp_conn_new>:
    16b0:	55                   	push   %ebp
    16b1:	89 e5                	mov    %esp,%ebp
    16b3:	57                   	push   %edi
    16b4:	56                   	push   %esi
    16b5:	53                   	push   %ebx
    16b6:	83 ec 14             	sub    $0x14,%esp
    16b9:	68 f0 00 00 00       	push   $0xf0
    16be:	6a 01                	push   $0x1
    16c0:	e8 7b 91 00 00       	call   a840 <calloc@plt>
    16c5:	83 c4 10             	add    $0x10,%esp
    16c8:	89 c3                	mov    %eax,%ebx
    16ca:	85 c0                	test   %eax,%eax
    16cc:	0f 84 3c 01 00 00    	je     180e <tcp_conn_new+0x15e>
    16d2:	83 ec 0c             	sub    $0xc,%esp
    16d5:	8d 70 4c             	lea    0x4c(%eax),%esi
    16d8:	56                   	push   %esi
    16d9:	e8 d2 91 00 00       	call   a8b0 <fibril_mutex_initialize@plt>
    16de:	89 34 24             	mov    %esi,(%esp)
    16e1:	e8 1a 93 00 00       	call   aa00 <fibril_timer_create@plt>
    16e6:	83 c4 10             	add    $0x10,%esp
    16e9:	89 83 90 00 00 00    	mov    %eax,0x90(%ebx)
    16ef:	85 c0                	test   %eax,%eax
    16f1:	0f 84 c7 00 00 00    	je     17be <tcp_conn_new+0x10e>
    16f7:	83 ec 0c             	sub    $0xc,%esp
    16fa:	8d 83 a4 00 00 00    	lea    0xa4(%ebx),%eax
    1700:	c7 43 5c 02 00 00 00 	movl   $0x2,0x5c(%ebx)
    1707:	50                   	push   %eax
    1708:	e8 53 91 00 00       	call   a860 <fibril_condvar_initialize@plt>
    170d:	c7 83 98 00 00 00 00 	movl   $0x1000,0x98(%ebx)
    1714:	10 00 00 
    1717:	c7 83 9c 00 00 00 00 	movl   $0x0,0x9c(%ebx)
    171e:	00 00 00 
    1721:	c6 83 a0 00 00 00 00 	movb   $0x0,0xa0(%ebx)
    1728:	58                   	pop    %eax
    1729:	5a                   	pop    %edx
    172a:	68 00 10 00 00       	push   $0x1000
    172f:	6a 01                	push   $0x1
    1731:	e8 0a 91 00 00       	call   a840 <calloc@plt>
    1736:	83 c4 10             	add    $0x10,%esp
    1739:	89 83 94 00 00 00    	mov    %eax,0x94(%ebx)
    173f:	85 c0                	test   %eax,%eax
    1741:	0f 84 8d 00 00 00    	je     17d4 <tcp_conn_new+0x124>
    1747:	83 ec 0c             	sub    $0xc,%esp
    174a:	8d 83 bc 00 00 00    	lea    0xbc(%ebx),%eax
    1750:	50                   	push   %eax
    1751:	e8 0a 91 00 00       	call   a860 <fibril_condvar_initialize@plt>
    1756:	c7 83 b0 00 00 00 00 	movl   $0x1000,0xb0(%ebx)
    175d:	10 00 00 
    1760:	c7 83 b4 00 00 00 00 	movl   $0x0,0xb4(%ebx)
    1767:	00 00 00 
    176a:	c6 83 b8 00 00 00 00 	movb   $0x0,0xb8(%ebx)
    1771:	5f                   	pop    %edi
    1772:	58                   	pop    %eax
    1773:	68 00 10 00 00       	push   $0x1000
    1778:	6a 01                	push   $0x1
    177a:	e8 c1 90 00 00       	call   a840 <calloc@plt>
    177f:	83 c4 10             	add    $0x10,%esp
    1782:	89 83 ac 00 00 00    	mov    %eax,0xac(%ebx)
    1788:	85 c0                	test   %eax,%eax
    178a:	0f 84 d0 00 00 00    	je     1860 <tcp_conn_new+0x1b0>
    1790:	8b 83 98 00 00 00    	mov    0x98(%ebx),%eax
    1796:	89 83 e4 00 00 00    	mov    %eax,0xe4(%ebx)
    179c:	8d 43 74             	lea    0x74(%ebx),%eax
    179f:	52                   	push   %edx
    17a0:	52                   	push   %edx
    17a1:	53                   	push   %ebx
    17a2:	50                   	push   %eax
    17a3:	e8 68 1e 00 00       	call   3610 <tcp_iqueue_init>
    17a8:	8d 83 80 00 00 00    	lea    0x80(%ebx),%eax
    17ae:	59                   	pop    %ecx
    17af:	5e                   	pop    %esi
    17b0:	53                   	push   %ebx
    17b1:	50                   	push   %eax
    17b2:	e8 c9 4d 00 00       	call   6580 <tcp_tqueue_init>
    17b7:	83 c4 10             	add    $0x10,%esp
    17ba:	85 c0                	test   %eax,%eax
    17bc:	74 5a                	je     1818 <tcp_conn_new+0x168>
    17be:	8b 83 94 00 00 00    	mov    0x94(%ebx),%eax
    17c4:	85 c0                	test   %eax,%eax
    17c6:	74 0c                	je     17d4 <tcp_conn_new+0x124>
    17c8:	83 ec 0c             	sub    $0xc,%esp
    17cb:	50                   	push   %eax
    17cc:	e8 7f 92 00 00       	call   aa50 <free@plt>
    17d1:	83 c4 10             	add    $0x10,%esp
    17d4:	8b 83 ac 00 00 00    	mov    0xac(%ebx),%eax
    17da:	85 c0                	test   %eax,%eax
    17dc:	74 0c                	je     17ea <tcp_conn_new+0x13a>
    17de:	83 ec 0c             	sub    $0xc,%esp
    17e1:	50                   	push   %eax
    17e2:	e8 69 92 00 00       	call   aa50 <free@plt>
    17e7:	83 c4 10             	add    $0x10,%esp
    17ea:	8b 83 90 00 00 00    	mov    0x90(%ebx),%eax
    17f0:	85 c0                	test   %eax,%eax
    17f2:	74 0c                	je     1800 <tcp_conn_new+0x150>
    17f4:	83 ec 0c             	sub    $0xc,%esp
    17f7:	50                   	push   %eax
    17f8:	e8 13 90 00 00       	call   a810 <fibril_timer_destroy@plt>
    17fd:	83 c4 10             	add    $0x10,%esp
    1800:	83 ec 0c             	sub    $0xc,%esp
    1803:	53                   	push   %ebx
    1804:	31 db                	xor    %ebx,%ebx
    1806:	e8 45 92 00 00       	call   aa50 <free@plt>
    180b:	83 c4 10             	add    $0x10,%esp
    180e:	8d 65 f4             	lea    -0xc(%ebp),%esp
    1811:	89 d8                	mov    %ebx,%eax
    1813:	5b                   	pop    %ebx
    1814:	5e                   	pop    %esi
    1815:	5f                   	pop    %edi
    1816:	5d                   	pop    %ebp
    1817:	c3                   	ret    
    1818:	83 ec 0c             	sub    $0xc,%esp
    181b:	8d 43 68             	lea    0x68(%ebx),%eax
    181e:	50                   	push   %eax
    181f:	e8 3c 90 00 00       	call   a860 <fibril_condvar_initialize@plt>
    1824:	8b 45 08             	mov    0x8(%ebp),%eax
    1827:	83 c4 10             	add    $0x10,%esp
    182a:	c7 43 0c 00 00 00 00 	movl   $0x0,0xc(%ebx)
    1831:	c7 43 60 00 00 00 00 	movl   $0x0,0x60(%ebx)
    1838:	c6 43 64 00          	movb   $0x0,0x64(%ebx)
    183c:	c6 43 65 00          	movb   $0x0,0x65(%ebx)
    1840:	c7 43 48 01 00 00 00 	movl   $0x1,0x48(%ebx)
    1847:	c6 43 70 00          	movb   $0x0,0x70(%ebx)
    184b:	85 c0                	test   %eax,%eax
    184d:	74 bf                	je     180e <tcp_conn_new+0x15e>
    184f:	8d 7b 14             	lea    0x14(%ebx),%edi
    1852:	b9 0d 00 00 00       	mov    $0xd,%ecx
    1857:	8b 75 08             	mov    0x8(%ebp),%esi
    185a:	f3 a5                	rep movsl %ds:(%esi),%es:(%edi)
    185c:	eb b0                	jmp    180e <tcp_conn_new+0x15e>
    185e:	66 90                	xchg   %ax,%ax
    1860:	8b 83 94 00 00 00    	mov    0x94(%ebx),%eax
    1866:	85 c0                	test   %eax,%eax
    1868:	0f 85 5a ff ff ff    	jne    17c8 <tcp_conn_new+0x118>
    186e:	e9 77 ff ff ff       	jmp    17ea <tcp_conn_new+0x13a>
    1873:	8d b6 00 00 00 00    	lea    0x0(%esi),%esi
    1879:	8d bc 27 00 00 00 00 	lea    0x0(%edi,%eiz,1),%edi

00001880 <tcp_conn_addref>:
    1880:	55                   	push   %ebp
    1881:	89 e5                	mov    %esp,%ebp
    1883:	53                   	push   %ebx
    1884:	83 ec 0c             	sub    $0xc,%esp
    1887:	8b 5d 08             	mov    0x8(%ebp),%ebx
    188a:	8b 43 5c             	mov    0x5c(%ebx),%eax
    188d:	50                   	push   %eax
    188e:	8b 03                	mov    (%ebx),%eax
    1890:	53                   	push   %ebx
    1891:	50                   	push   %eax
    1892:	68 0c 87 00 00       	push   $0x870c
    1897:	6a 05                	push   $0x5
    1899:	6a ff                	push   $0xffffffff
    189b:	e8 30 8f 00 00       	call   a7d0 <log_msg@plt>
    18a0:	f0 ff 43 5c          	lock incl 0x5c(%ebx)
    18a4:	83 c4 20             	add    $0x20,%esp
    18a7:	8b 5d fc             	mov    -0x4(%ebp),%ebx
    18aa:	c9                   	leave  
    18ab:	c3                   	ret    
    18ac:	8d 74 26 00          	lea    0x0(%esi,%eiz,1),%esi

000018b0 <tcp_conn_delref>:
    18b0:	55                   	push   %ebp
    18b1:	89 e5                	mov    %esp,%ebp
    18b3:	53                   	push   %ebx
    18b4:	83 ec 0c             	sub    $0xc,%esp
    18b7:	8b 5d 08             	mov    0x8(%ebp),%ebx
    18ba:	8b 43 5c             	mov    0x5c(%ebx),%eax
    18bd:	50                   	push   %eax
    18be:	53                   	push   %ebx
    18bf:	8b 13                	mov    (%ebx),%edx
    18c1:	52                   	push   %edx
    18c2:	68 e8 86 00 00       	push   $0x86e8
    18c7:	6a 05                	push   $0x5
    18c9:	6a ff                	push   $0xffffffff
    18cb:	e8 00 8f 00 00       	call   a7d0 <log_msg@plt>
    18d0:	83 c8 ff             	or     $0xffffffff,%eax
    18d3:	f0 0f c1 43 5c       	lock xadd %eax,0x5c(%ebx)
    18d8:	83 c4 20             	add    $0x20,%esp
    18db:	48                   	dec    %eax
    18dc:	74 0a                	je     18e8 <tcp_conn_delref+0x38>
    18de:	8b 5d fc             	mov    -0x4(%ebp),%ebx
    18e1:	c9                   	leave  
    18e2:	c3                   	ret    
    18e3:	90                   	nop
    18e4:	8d 74 26 00          	lea    0x0(%esi,%eiz,1),%esi
    18e8:	83 ec 0c             	sub    $0xc,%esp
    18eb:	53                   	push   %ebx
    18ec:	8b 03                	mov    (%ebx),%eax
    18ee:	50                   	push   %eax
    18ef:	68 27 8b 00 00       	push   $0x8b27
    18f4:	6a 04                	push   $0x4
    18f6:	6a ff                	push   $0xffffffff
    18f8:	e8 d3 8e 00 00       	call   a7d0 <log_msg@plt>
    18fd:	83 c4 14             	add    $0x14,%esp
    1900:	8d 83 80 00 00 00    	lea    0x80(%ebx),%eax
    1906:	50                   	push   %eax
    1907:	e8 14 4d 00 00       	call   6620 <tcp_tqueue_fini>
    190c:	8b 83 94 00 00 00    	mov    0x94(%ebx),%eax
    1912:	83 c4 10             	add    $0x10,%esp
    1915:	85 c0                	test   %eax,%eax
    1917:	74 0c                	je     1925 <tcp_conn_delref+0x75>
    1919:	83 ec 0c             	sub    $0xc,%esp
    191c:	50                   	push   %eax
    191d:	e8 2e 91 00 00       	call   aa50 <free@plt>
    1922:	83 c4 10             	add    $0x10,%esp
    1925:	8b 83 ac 00 00 00    	mov    0xac(%ebx),%eax
    192b:	85 c0                	test   %eax,%eax
    192d:	74 0c                	je     193b <tcp_conn_delref+0x8b>
    192f:	83 ec 0c             	sub    $0xc,%esp
    1932:	50                   	push   %eax
    1933:	e8 18 91 00 00       	call   aa50 <free@plt>
    1938:	83 c4 10             	add    $0x10,%esp
    193b:	8b 83 90 00 00 00    	mov    0x90(%ebx),%eax
    1941:	85 c0                	test   %eax,%eax
    1943:	74 0c                	je     1951 <tcp_conn_delref+0xa1>
    1945:	83 ec 0c             	sub    $0xc,%esp
    1948:	50                   	push   %eax
    1949:	e8 c2 8e 00 00       	call   a810 <fibril_timer_destroy@plt>
    194e:	83 c4 10             	add    $0x10,%esp
    1951:	89 5d 08             	mov    %ebx,0x8(%ebp)
    1954:	8b 5d fc             	mov    -0x4(%ebp),%ebx
    1957:	c9                   	leave  
    1958:	e9 f3 90 00 00       	jmp    aa50 <free@plt>
    195d:	8d 76 00             	lea    0x0(%esi),%esi

00001960 <tcp_conn_lock>:
    1960:	55                   	push   %ebp
    1961:	89 e5                	mov    %esp,%ebp
    1963:	8b 45 08             	mov    0x8(%ebp),%eax
    1966:	83 c0 4c             	add    $0x4c,%eax
    1969:	89 45 08             	mov    %eax,0x8(%ebp)
    196c:	5d                   	pop    %ebp
    196d:	e9 ee 90 00 00       	jmp    aa60 <fibril_mutex_lock@plt>
    1972:	8d b4 26 00 00 00 00 	lea    0x0(%esi,%eiz,1),%esi
    1979:	8d bc 27 00 00 00 00 	lea    0x0(%edi,%eiz,1),%edi

00001980 <tcp_conn_unlock>:
    1980:	55                   	push   %ebp
    1981:	89 e5                	mov    %esp,%ebp
    1983:	8b 45 08             	mov    0x8(%ebp),%eax
    1986:	83 c0 4c             	add    $0x4c,%eax
    1989:	89 45 08             	mov    %eax,0x8(%ebp)
    198c:	5d                   	pop    %ebp
    198d:	e9 0e 8f 00 00       	jmp    a8a0 <fibril_mutex_unlock@plt>
    1992:	8d b4 26 00 00 00 00 	lea    0x0(%esi,%eiz,1),%esi
    1999:	8d bc 27 00 00 00 00 	lea    0x0(%edi,%eiz,1),%edi

000019a0 <tcp_conn_delete>:
    19a0:	55                   	push   %ebp
    19a1:	89 e5                	mov    %esp,%ebp
    19a3:	53                   	push   %ebx
    19a4:	83 ec 10             	sub    $0x10,%esp
    19a7:	8b 5d 08             	mov    0x8(%ebp),%ebx
    19aa:	53                   	push   %ebx
    19ab:	8b 03                	mov    (%ebx),%eax
    19ad:	50                   	push   %eax
    19ae:	68 aa 8b 00 00       	push   $0x8baa
    19b3:	6a 04                	push   $0x4
    19b5:	6a ff                	push   $0xffffffff
    19b7:	e8 14 8e 00 00       	call   a7d0 <log_msg@plt>
    19bc:	83 c4 20             	add    $0x20,%esp
    19bf:	80 7b 65 00          	cmpb   $0x0,0x65(%ebx)
    19c3:	0f 85 b4 00 00 00    	jne    1a7d <tcp_conn_delete+0xdd>
    19c9:	8b 43 5c             	mov    0x5c(%ebx),%eax
    19cc:	c6 43 65 01          	movb   $0x1,0x65(%ebx)
    19d0:	c7 43 0c 00 00 00 00 	movl   $0x0,0xc(%ebx)
    19d7:	c7 43 10 00 00 00 00 	movl   $0x0,0x10(%ebx)
    19de:	52                   	push   %edx
    19df:	52                   	push   %edx
    19e0:	50                   	push   %eax
    19e1:	53                   	push   %ebx
    19e2:	8b 0b                	mov    (%ebx),%ecx
    19e4:	51                   	push   %ecx
    19e5:	68 e8 86 00 00       	push   $0x86e8
    19ea:	6a 05                	push   $0x5
    19ec:	6a ff                	push   $0xffffffff
    19ee:	e8 dd 8d 00 00       	call   a7d0 <log_msg@plt>
    19f3:	83 c8 ff             	or     $0xffffffff,%eax
    19f6:	f0 0f c1 43 5c       	lock xadd %eax,0x5c(%ebx)
    19fb:	83 c4 20             	add    $0x20,%esp
    19fe:	48                   	dec    %eax
    19ff:	74 07                	je     1a08 <tcp_conn_delete+0x68>
    1a01:	8b 5d fc             	mov    -0x4(%ebp),%ebx
    1a04:	c9                   	leave  
    1a05:	c3                   	ret    
    1a06:	66 90                	xchg   %ax,%ax
    1a08:	83 ec 0c             	sub    $0xc,%esp
    1a0b:	53                   	push   %ebx
    1a0c:	8b 03                	mov    (%ebx),%eax
    1a0e:	50                   	push   %eax
    1a0f:	68 27 8b 00 00       	push   $0x8b27
    1a14:	6a 04                	push   $0x4
    1a16:	6a ff                	push   $0xffffffff
    1a18:	e8 b3 8d 00 00       	call   a7d0 <log_msg@plt>
    1a1d:	83 c4 14             	add    $0x14,%esp
    1a20:	8d 83 80 00 00 00    	lea    0x80(%ebx),%eax
    1a26:	50                   	push   %eax
    1a27:	e8 f4 4b 00 00       	call   6620 <tcp_tqueue_fini>
    1a2c:	8b 83 94 00 00 00    	mov    0x94(%ebx),%eax
    1a32:	83 c4 10             	add    $0x10,%esp
    1a35:	85 c0                	test   %eax,%eax
    1a37:	74 0c                	je     1a45 <tcp_conn_delete+0xa5>
    1a39:	83 ec 0c             	sub    $0xc,%esp
    1a3c:	50                   	push   %eax
    1a3d:	e8 0e 90 00 00       	call   aa50 <free@plt>
    1a42:	83 c4 10             	add    $0x10,%esp
    1a45:	8b 83 ac 00 00 00    	mov    0xac(%ebx),%eax
    1a4b:	85 c0                	test   %eax,%eax
    1a4d:	74 0c                	je     1a5b <tcp_conn_delete+0xbb>
    1a4f:	83 ec 0c             	sub    $0xc,%esp
    1a52:	50                   	push   %eax
    1a53:	e8 f8 8f 00 00       	call   aa50 <free@plt>
    1a58:	83 c4 10             	add    $0x10,%esp
    1a5b:	8b 83 90 00 00 00    	mov    0x90(%ebx),%eax
    1a61:	85 c0                	test   %eax,%eax
    1a63:	74 0c                	je     1a71 <tcp_conn_delete+0xd1>
    1a65:	83 ec 0c             	sub    $0xc,%esp
    1a68:	50                   	push   %eax
    1a69:	e8 a2 8d 00 00       	call   a810 <fibril_timer_destroy@plt>
    1a6e:	83 c4 10             	add    $0x10,%esp
    1a71:	89 5d 08             	mov    %ebx,0x8(%ebp)
    1a74:	8b 5d fc             	mov    -0x4(%ebp),%ebx
    1a77:	c9                   	leave  
    1a78:	e9 d3 8f 00 00       	jmp    aa50 <free@plt>
    1a7d:	53                   	push   %ebx
    1a7e:	68 00 01 00 00       	push   $0x100
    1a83:	68 09 8b 00 00       	push   $0x8b09
    1a88:	68 c2 8b 00 00       	push   $0x8bc2
    1a8d:	e8 9e 8d 00 00       	call   a830 <assert_abort@plt>
    1a92:	8d b4 26 00 00 00 00 	lea    0x0(%esi,%eiz,1),%esi
    1a99:	8d bc 27 00 00 00 00 	lea    0x0(%edi,%eiz,1),%edi

00001aa0 <tcp_conn_add>:
    1aa0:	55                   	push   %ebp
    1aa1:	89 e5                	mov    %esp,%ebp
    1aa3:	57                   	push   %edi
    1aa4:	56                   	push   %esi
    1aa5:	53                   	push   %ebx
    1aa6:	83 ec 64             	sub    $0x64,%esp
    1aa9:	8b 5d 08             	mov    0x8(%ebp),%ebx
    1aac:	8b 43 5c             	mov    0x5c(%ebx),%eax
    1aaf:	8b 33                	mov    (%ebx),%esi
    1ab1:	50                   	push   %eax
    1ab2:	53                   	push   %ebx
    1ab3:	56                   	push   %esi
    1ab4:	68 0c 87 00 00       	push   $0x870c
    1ab9:	6a 05                	push   $0x5
    1abb:	6a ff                	push   $0xffffffff
    1abd:	e8 0e 8d 00 00       	call   a7d0 <log_msg@plt>
    1ac2:	f0 ff 43 5c          	lock incl 0x5c(%ebx)
    1ac6:	83 c4 14             	add    $0x14,%esp
    1ac9:	8d 75 b4             	lea    -0x4c(%ebp),%esi
    1acc:	68 c8 c4 00 00       	push   $0xc4c8
    1ad1:	e8 8a 8f 00 00       	call   aa60 <fibril_mutex_lock@plt>
    1ad6:	53                   	push   %ebx
    1ad7:	68 d9 8b 00 00       	push   $0x8bd9
    1adc:	6a 04                	push   $0x4
    1ade:	6a ff                	push   $0xffffffff
    1ae0:	e8 eb 8c 00 00       	call   a7d0 <log_msg@plt>
    1ae5:	83 c4 14             	add    $0x14,%esp
    1ae8:	8d 53 14             	lea    0x14(%ebx),%edx
    1aeb:	8b 3d 08 c6 00 00    	mov    0xc608,%edi
    1af1:	56                   	push   %esi
    1af2:	89 55 a4             	mov    %edx,-0x5c(%ebp)
    1af5:	6a 01                	push   $0x1
    1af7:	53                   	push   %ebx
    1af8:	52                   	push   %edx
    1af9:	57                   	push   %edi
    1afa:	e8 51 5e 00 00       	call   7950 <amap_insert>
    1aff:	83 c4 20             	add    $0x20,%esp
    1b02:	8b 55 a4             	mov    -0x5c(%ebp),%edx
    1b05:	85 c0                	test   %eax,%eax
    1b07:	89 45 a4             	mov    %eax,-0x5c(%ebp)
    1b0a:	75 44                	jne    1b50 <tcp_conn_add+0xb0>
    1b0c:	89 d7                	mov    %edx,%edi
    1b0e:	b9 0d 00 00 00       	mov    $0xd,%ecx
    1b13:	8b 15 d8 c4 00 00    	mov    0xc4d8,%edx
    1b19:	f3 a5                	rep movsl %ds:(%esi),%es:(%edi)
    1b1b:	8d 4b 04             	lea    0x4(%ebx),%ecx
    1b1e:	c7 43 08 d8 c4 00 00 	movl   $0xc4d8,0x8(%ebx)
    1b25:	89 53 04             	mov    %edx,0x4(%ebx)
    1b28:	89 0d d8 c4 00 00    	mov    %ecx,0xc4d8
    1b2e:	89 4a 04             	mov    %ecx,0x4(%edx)
    1b31:	83 ec 0c             	sub    $0xc,%esp
    1b34:	68 c8 c4 00 00       	push   $0xc4c8
    1b39:	e8 62 8d 00 00       	call   a8a0 <fibril_mutex_unlock@plt>
    1b3e:	8b 45 a4             	mov    -0x5c(%ebp),%eax
    1b41:	83 c4 10             	add    $0x10,%esp
    1b44:	8d 65 f4             	lea    -0xc(%ebp),%esp
    1b47:	5b                   	pop    %ebx
    1b48:	5e                   	pop    %esi
    1b49:	5f                   	pop    %edi
    1b4a:	5d                   	pop    %ebp
    1b4b:	c3                   	ret    
    1b4c:	8d 74 26 00          	lea    0x0(%esi,%eiz,1),%esi
    1b50:	8b 4b 5c             	mov    0x5c(%ebx),%ecx
    1b53:	52                   	push   %edx
    1b54:	52                   	push   %edx
    1b55:	51                   	push   %ecx
    1b56:	8b 0b                	mov    (%ebx),%ecx
    1b58:	53                   	push   %ebx
    1b59:	51                   	push   %ecx
    1b5a:	68 e8 86 00 00       	push   $0x86e8
    1b5f:	6a 05                	push   $0x5
    1b61:	6a ff                	push   $0xffffffff
    1b63:	e8 68 8c 00 00       	call   a7d0 <log_msg@plt>
    1b68:	83 c9 ff             	or     $0xffffffff,%ecx
    1b6b:	f0 0f c1 4b 5c       	lock xadd %ecx,0x5c(%ebx)
    1b70:	83 c4 20             	add    $0x20,%esp
    1b73:	8b 45 a4             	mov    -0x5c(%ebp),%eax
    1b76:	49                   	dec    %ecx
    1b77:	74 07                	je     1b80 <tcp_conn_add+0xe0>
    1b79:	89 45 a4             	mov    %eax,-0x5c(%ebp)
    1b7c:	eb b3                	jmp    1b31 <tcp_conn_add+0x91>
    1b7e:	66 90                	xchg   %ax,%ax
    1b80:	83 ec 0c             	sub    $0xc,%esp
    1b83:	8b 03                	mov    (%ebx),%eax
    1b85:	53                   	push   %ebx
    1b86:	50                   	push   %eax
    1b87:	68 27 8b 00 00       	push   $0x8b27
    1b8c:	6a 04                	push   $0x4
    1b8e:	6a ff                	push   $0xffffffff
    1b90:	e8 3b 8c 00 00       	call   a7d0 <log_msg@plt>
    1b95:	83 c4 14             	add    $0x14,%esp
    1b98:	8d 8b 80 00 00 00    	lea    0x80(%ebx),%ecx
    1b9e:	51                   	push   %ecx
    1b9f:	e8 7c 4a 00 00       	call   6620 <tcp_tqueue_fini>
    1ba4:	8b 8b 94 00 00 00    	mov    0x94(%ebx),%ecx
    1baa:	83 c4 10             	add    $0x10,%esp
    1bad:	8b 45 a4             	mov    -0x5c(%ebp),%eax
    1bb0:	85 c9                	test   %ecx,%ecx
    1bb2:	74 0f                	je     1bc3 <tcp_conn_add+0x123>
    1bb4:	83 ec 0c             	sub    $0xc,%esp
    1bb7:	51                   	push   %ecx
    1bb8:	e8 93 8e 00 00       	call   aa50 <free@plt>
    1bbd:	83 c4 10             	add    $0x10,%esp
    1bc0:	8b 45 a4             	mov    -0x5c(%ebp),%eax
    1bc3:	8b 8b ac 00 00 00    	mov    0xac(%ebx),%ecx
    1bc9:	85 c9                	test   %ecx,%ecx
    1bcb:	74 12                	je     1bdf <tcp_conn_add+0x13f>
    1bcd:	83 ec 0c             	sub    $0xc,%esp
    1bd0:	89 45 a4             	mov    %eax,-0x5c(%ebp)
    1bd3:	51                   	push   %ecx
    1bd4:	e8 77 8e 00 00       	call   aa50 <free@plt>
    1bd9:	83 c4 10             	add    $0x10,%esp
    1bdc:	8b 45 a4             	mov    -0x5c(%ebp),%eax
    1bdf:	8b 8b 90 00 00 00    	mov    0x90(%ebx),%ecx
    1be5:	85 c9                	test   %ecx,%ecx
    1be7:	74 12                	je     1bfb <tcp_conn_add+0x15b>
    1be9:	83 ec 0c             	sub    $0xc,%esp
    1bec:	89 45 a4             	mov    %eax,-0x5c(%ebp)
    1bef:	51                   	push   %ecx
    1bf0:	e8 1b 8c 00 00       	call   a810 <fibril_timer_destroy@plt>
    1bf5:	83 c4 10             	add    $0x10,%esp
    1bf8:	8b 45 a4             	mov    -0x5c(%ebp),%eax
    1bfb:	83 ec 0c             	sub    $0xc,%esp
    1bfe:	89 45 a4             	mov    %eax,-0x5c(%ebp)
    1c01:	53                   	push   %ebx
    1c02:	e8 49 8e 00 00       	call   aa50 <free@plt>
    1c07:	83 c4 10             	add    $0x10,%esp
    1c0a:	8b 45 a4             	mov    -0x5c(%ebp),%eax
    1c0d:	e9 67 ff ff ff       	jmp    1b79 <tcp_conn_add+0xd9>
    1c12:	8d b4 26 00 00 00 00 	lea    0x0(%esi,%eiz,1),%esi
    1c19:	8d bc 27 00 00 00 00 	lea    0x0(%edi,%eiz,1),%edi

00001c20 <tcp_conn_remove>:
    1c20:	55                   	push   %ebp
    1c21:	89 e5                	mov    %esp,%ebp
    1c23:	53                   	push   %ebx
    1c24:	83 ec 10             	sub    $0x10,%esp
    1c27:	8b 5d 08             	mov    0x8(%ebp),%ebx
    1c2a:	68 c8 c4 00 00       	push   $0xc4c8
    1c2f:	e8 2c 8e 00 00       	call   aa60 <fibril_mutex_lock@plt>
    1c34:	58                   	pop    %eax
    1c35:	8b 0d 08 c6 00 00    	mov    0xc608,%ecx
    1c3b:	8d 43 14             	lea    0x14(%ebx),%eax
    1c3e:	5a                   	pop    %edx
    1c3f:	50                   	push   %eax
    1c40:	51                   	push   %ecx
    1c41:	e8 ba 61 00 00       	call   7e00 <amap_remove>
    1c46:	8b 53 04             	mov    0x4(%ebx),%edx
    1c49:	83 c4 10             	add    $0x10,%esp
    1c4c:	85 d2                	test   %edx,%edx
    1c4e:	74 0f                	je     1c5f <tcp_conn_remove+0x3f>
    1c50:	8b 43 08             	mov    0x8(%ebx),%eax
    1c53:	85 c0                	test   %eax,%eax
    1c55:	74 08                	je     1c5f <tcp_conn_remove+0x3f>
    1c57:	89 10                	mov    %edx,(%eax)
    1c59:	8b 53 04             	mov    0x4(%ebx),%edx
    1c5c:	89 42 04             	mov    %eax,0x4(%edx)
    1c5f:	83 ec 0c             	sub    $0xc,%esp
    1c62:	c7 43 04 00 00 00 00 	movl   $0x0,0x4(%ebx)
    1c69:	c7 43 08 00 00 00 00 	movl   $0x0,0x8(%ebx)
    1c70:	68 c8 c4 00 00       	push   $0xc4c8
    1c75:	e8 26 8c 00 00       	call   a8a0 <fibril_mutex_unlock@plt>
    1c7a:	8b 43 5c             	mov    0x5c(%ebx),%eax
    1c7d:	5a                   	pop    %edx
    1c7e:	59                   	pop    %ecx
    1c7f:	50                   	push   %eax
    1c80:	53                   	push   %ebx
    1c81:	8b 03                	mov    (%ebx),%eax
    1c83:	50                   	push   %eax
    1c84:	68 e8 86 00 00       	push   $0x86e8
    1c89:	6a 05                	push   $0x5
    1c8b:	6a ff                	push   $0xffffffff
    1c8d:	e8 3e 8b 00 00       	call   a7d0 <log_msg@plt>
    1c92:	83 c8 ff             	or     $0xffffffff,%eax
    1c95:	f0 0f c1 43 5c       	lock xadd %eax,0x5c(%ebx)
    1c9a:	83 c4 20             	add    $0x20,%esp
    1c9d:	48                   	dec    %eax
    1c9e:	74 08                	je     1ca8 <tcp_conn_remove+0x88>
    1ca0:	8b 5d fc             	mov    -0x4(%ebp),%ebx
    1ca3:	c9                   	leave  
    1ca4:	c3                   	ret    
    1ca5:	8d 76 00             	lea    0x0(%esi),%esi
    1ca8:	83 ec 0c             	sub    $0xc,%esp
    1cab:	53                   	push   %ebx
    1cac:	8b 03                	mov    (%ebx),%eax
    1cae:	50                   	push   %eax
    1caf:	68 27 8b 00 00       	push   $0x8b27
    1cb4:	6a 04                	push   $0x4
    1cb6:	6a ff                	push   $0xffffffff
    1cb8:	e8 13 8b 00 00       	call   a7d0 <log_msg@plt>
    1cbd:	83 c4 14             	add    $0x14,%esp
    1cc0:	8d 83 80 00 00 00    	lea    0x80(%ebx),%eax
    1cc6:	50                   	push   %eax
    1cc7:	e8 54 49 00 00       	call   6620 <tcp_tqueue_fini>
    1ccc:	8b 83 94 00 00 00    	mov    0x94(%ebx),%eax
    1cd2:	83 c4 10             	add    $0x10,%esp
    1cd5:	85 c0                	test   %eax,%eax
    1cd7:	74 0c                	je     1ce5 <tcp_conn_remove+0xc5>
    1cd9:	83 ec 0c             	sub    $0xc,%esp
    1cdc:	50                   	push   %eax
    1cdd:	e8 6e 8d 00 00       	call   aa50 <free@plt>
    1ce2:	83 c4 10             	add    $0x10,%esp
    1ce5:	8b 83 ac 00 00 00    	mov    0xac(%ebx),%eax
    1ceb:	85 c0                	test   %eax,%eax
    1ced:	74 0c                	je     1cfb <tcp_conn_remove+0xdb>
    1cef:	83 ec 0c             	sub    $0xc,%esp
    1cf2:	50                   	push   %eax
    1cf3:	e8 58 8d 00 00       	call   aa50 <free@plt>
    1cf8:	83 c4 10             	add    $0x10,%esp
    1cfb:	8b 83 90 00 00 00    	mov    0x90(%ebx),%eax
    1d01:	85 c0                	test   %eax,%eax
    1d03:	74 0c                	je     1d11 <tcp_conn_remove+0xf1>
    1d05:	83 ec 0c             	sub    $0xc,%esp
    1d08:	50                   	push   %eax
    1d09:	e8 02 8b 00 00       	call   a810 <fibril_timer_destroy@plt>
    1d0e:	83 c4 10             	add    $0x10,%esp
    1d11:	89 5d 08             	mov    %ebx,0x8(%ebp)
    1d14:	8b 5d fc             	mov    -0x4(%ebp),%ebx
    1d17:	c9                   	leave  
    1d18:	e9 33 8d 00 00       	jmp    aa50 <free@plt>
    1d1d:	8d 76 00             	lea    0x0(%esi),%esi

00001d20 <tcp_conn_sync>:
    1d20:	55                   	push   %ebp
    1d21:	89 e5                	mov    %esp,%ebp
    1d23:	56                   	push   %esi
    1d24:	53                   	push   %ebx
    1d25:	8b 5d 08             	mov    0x8(%ebp),%ebx
    1d28:	c7 83 dc 00 00 00 01 	movl   $0x1,0xdc(%ebx)
    1d2f:	00 00 00 
    1d32:	c7 83 c8 00 00 00 01 	movl   $0x1,0xc8(%ebx)
    1d39:	00 00 00 
    1d3c:	c7 83 c4 00 00 00 01 	movl   $0x1,0xc4(%ebx)
    1d43:	00 00 00 
    1d46:	c7 43 48 00 00 00 00 	movl   $0x0,0x48(%ebx)
    1d4d:	56                   	push   %esi
    1d4e:	56                   	push   %esi
    1d4f:	6a 01                	push   $0x1
    1d51:	53                   	push   %ebx
    1d52:	e8 39 4b 00 00       	call   6890 <tcp_tqueue_ctrl_seg>
    1d57:	53                   	push   %ebx
    1d58:	68 f2 8a 00 00       	push   $0x8af2
    1d5d:	6a 04                	push   $0x4
    1d5f:	6a ff                	push   $0xffffffff
    1d61:	e8 6a 8a 00 00       	call   a7d0 <log_msg@plt>
    1d66:	83 c4 14             	add    $0x14,%esp
    1d69:	8b 73 60             	mov    0x60(%ebx),%esi
    1d6c:	8d 43 68             	lea    0x68(%ebx),%eax
    1d6f:	c7 43 60 01 00 00 00 	movl   $0x1,0x60(%ebx)
    1d76:	50                   	push   %eax
    1d77:	e8 14 8b 00 00       	call   a890 <fibril_condvar_broadcast@plt>
    1d7c:	8b 43 0c             	mov    0xc(%ebx),%eax
    1d7f:	83 c4 10             	add    $0x10,%esp
    1d82:	85 c0                	test   %eax,%eax
    1d84:	74 32                	je     1db8 <tcp_conn_sync+0x98>
    1d86:	8b 08                	mov    (%eax),%ecx
    1d88:	85 c9                	test   %ecx,%ecx
    1d8a:	74 2c                	je     1db8 <tcp_conn_sync+0x98>
    1d8c:	51                   	push   %ecx
    1d8d:	68 a0 86 00 00       	push   $0x86a0
    1d92:	6a 04                	push   $0x4
    1d94:	6a ff                	push   $0xffffffff
    1d96:	e8 35 8a 00 00       	call   a7d0 <log_msg@plt>
    1d9b:	83 c4 0c             	add    $0xc,%esp
    1d9e:	8b 43 0c             	mov    0xc(%ebx),%eax
    1da1:	8b 53 10             	mov    0x10(%ebx),%edx
    1da4:	56                   	push   %esi
    1da5:	52                   	push   %edx
    1da6:	53                   	push   %ebx
    1da7:	ff 10                	call   *(%eax)
    1da9:	83 c4 10             	add    $0x10,%esp
    1dac:	83 fe 0a             	cmp    $0xa,%esi
    1daf:	74 1b                	je     1dcc <tcp_conn_sync+0xac>
    1db1:	8d 65 f8             	lea    -0x8(%ebp),%esp
    1db4:	5b                   	pop    %ebx
    1db5:	5e                   	pop    %esi
    1db6:	5d                   	pop    %ebp
    1db7:	c3                   	ret    
    1db8:	52                   	push   %edx
    1db9:	68 c4 86 00 00       	push   $0x86c4
    1dbe:	6a 04                	push   $0x4
    1dc0:	6a ff                	push   $0xffffffff
    1dc2:	e8 09 8a 00 00       	call   a7d0 <log_msg@plt>
    1dc7:	83 c4 10             	add    $0x10,%esp
    1dca:	eb e0                	jmp    1dac <tcp_conn_sync+0x8c>
    1dcc:	50                   	push   %eax
    1dcd:	68 42 01 00 00       	push   $0x142
    1dd2:	68 09 8b 00 00       	push   $0x8b09
    1dd7:	68 10 8b 00 00       	push   $0x8b10
    1ddc:	e8 4f 8a 00 00       	call   a830 <assert_abort@plt>
    1de1:	eb 0d                	jmp    1df0 <tcp_conn_fin_sent>
    1de3:	90                   	nop
    1de4:	90                   	nop
    1de5:	90                   	nop
    1de6:	90                   	nop
    1de7:	90                   	nop
    1de8:	90                   	nop
    1de9:	90                   	nop
    1dea:	90                   	nop
    1deb:	90                   	nop
    1dec:	90                   	nop
    1ded:	90                   	nop
    1dee:	90                   	nop
    1def:	90                   	nop

00001df0 <tcp_conn_fin_sent>:
    1df0:	55                   	push   %ebp
    1df1:	89 e5                	mov    %esp,%ebp
    1df3:	56                   	push   %esi
    1df4:	53                   	push   %ebx
    1df5:	8b 5d 08             	mov    0x8(%ebp),%ebx
    1df8:	8b 43 60             	mov    0x60(%ebx),%eax
    1dfb:	83 f8 02             	cmp    $0x2,%eax
    1dfe:	0f 82 94 00 00 00    	jb     1e98 <tcp_conn_fin_sent+0xa8>
    1e04:	83 f8 03             	cmp    $0x3,%eax
    1e07:	0f 86 bb 00 00 00    	jbe    1ec8 <tcp_conn_fin_sent+0xd8>
    1e0d:	83 f8 06             	cmp    $0x6,%eax
    1e10:	0f 85 82 00 00 00    	jne    1e98 <tcp_conn_fin_sent+0xa8>
    1e16:	8b 03                	mov    (%ebx),%eax
    1e18:	50                   	push   %eax
    1e19:	68 0a 8c 00 00       	push   $0x8c0a
    1e1e:	6a 04                	push   $0x4
    1e20:	6a ff                	push   $0xffffffff
    1e22:	e8 a9 89 00 00       	call   a7d0 <log_msg@plt>
    1e27:	53                   	push   %ebx
    1e28:	68 f2 8a 00 00       	push   $0x8af2
    1e2d:	6a 04                	push   $0x4
    1e2f:	6a ff                	push   $0xffffffff
    1e31:	e8 9a 89 00 00       	call   a7d0 <log_msg@plt>
    1e36:	8b 73 60             	mov    0x60(%ebx),%esi
    1e39:	c7 43 60 08 00 00 00 	movl   $0x8,0x60(%ebx)
    1e40:	83 c4 14             	add    $0x14,%esp
    1e43:	8d 43 68             	lea    0x68(%ebx),%eax
    1e46:	50                   	push   %eax
    1e47:	e8 44 8a 00 00       	call   a890 <fibril_condvar_broadcast@plt>
    1e4c:	8b 43 0c             	mov    0xc(%ebx),%eax
    1e4f:	83 c4 10             	add    $0x10,%esp
    1e52:	85 c0                	test   %eax,%eax
    1e54:	0f 84 9e 00 00 00    	je     1ef8 <tcp_conn_fin_sent+0x108>
    1e5a:	8b 00                	mov    (%eax),%eax
    1e5c:	85 c0                	test   %eax,%eax
    1e5e:	0f 84 94 00 00 00    	je     1ef8 <tcp_conn_fin_sent+0x108>
    1e64:	52                   	push   %edx
    1e65:	68 a0 86 00 00       	push   $0x86a0
    1e6a:	6a 04                	push   $0x4
    1e6c:	6a ff                	push   $0xffffffff
    1e6e:	e8 5d 89 00 00       	call   a7d0 <log_msg@plt>
    1e73:	83 c4 0c             	add    $0xc,%esp
    1e76:	8b 43 0c             	mov    0xc(%ebx),%eax
    1e79:	8b 4b 10             	mov    0x10(%ebx),%ecx
    1e7c:	56                   	push   %esi
    1e7d:	51                   	push   %ecx
    1e7e:	53                   	push   %ebx
    1e7f:	ff 10                	call   *(%eax)
    1e81:	83 c4 10             	add    $0x10,%esp
    1e84:	83 fe 0a             	cmp    $0xa,%esi
    1e87:	0f 84 82 00 00 00    	je     1f0f <tcp_conn_fin_sent+0x11f>
    1e8d:	c6 43 70 00          	movb   $0x0,0x70(%ebx)
    1e91:	8d 65 f8             	lea    -0x8(%ebp),%esp
    1e94:	5b                   	pop    %ebx
    1e95:	5e                   	pop    %esi
    1e96:	5d                   	pop    %ebp
    1e97:	c3                   	ret    
    1e98:	83 ec 0c             	sub    $0xc,%esp
    1e9b:	50                   	push   %eax
    1e9c:	8b 03                	mov    (%ebx),%eax
    1e9e:	50                   	push   %eax
    1e9f:	68 23 8c 00 00       	push   $0x8c23
    1ea4:	6a 01                	push   $0x1
    1ea6:	6a ff                	push   $0xffffffff
    1ea8:	e8 23 89 00 00       	call   a7d0 <log_msg@plt>
    1ead:	83 c4 1c             	add    $0x1c,%esp
    1eb0:	68 6f 01 00 00       	push   $0x16f
    1eb5:	68 09 8b 00 00       	push   $0x8b09
    1eba:	68 d3 8b 00 00       	push   $0x8bd3
    1ebf:	e8 6c 89 00 00       	call   a830 <assert_abort@plt>
    1ec4:	8d 74 26 00          	lea    0x0(%esi,%eiz,1),%esi
    1ec8:	8b 03                	mov    (%ebx),%eax
    1eca:	50                   	push   %eax
    1ecb:	68 ef 8b 00 00       	push   $0x8bef
    1ed0:	6a 04                	push   $0x4
    1ed2:	6a ff                	push   $0xffffffff
    1ed4:	e8 f7 88 00 00       	call   a7d0 <log_msg@plt>
    1ed9:	53                   	push   %ebx
    1eda:	68 f2 8a 00 00       	push   $0x8af2
    1edf:	6a 04                	push   $0x4
    1ee1:	6a ff                	push   $0xffffffff
    1ee3:	e8 e8 88 00 00       	call   a7d0 <log_msg@plt>
    1ee8:	8b 73 60             	mov    0x60(%ebx),%esi
    1eeb:	c7 43 60 04 00 00 00 	movl   $0x4,0x60(%ebx)
    1ef2:	e9 49 ff ff ff       	jmp    1e40 <tcp_conn_fin_sent+0x50>
    1ef7:	90                   	nop
    1ef8:	50                   	push   %eax
    1ef9:	68 c4 86 00 00       	push   $0x86c4
    1efe:	6a 04                	push   $0x4
    1f00:	6a ff                	push   $0xffffffff
    1f02:	e8 c9 88 00 00       	call   a7d0 <log_msg@plt>
    1f07:	83 c4 10             	add    $0x10,%esp
    1f0a:	e9 75 ff ff ff       	jmp    1e84 <tcp_conn_fin_sent+0x94>
    1f0f:	50                   	push   %eax
    1f10:	68 42 01 00 00       	push   $0x142
    1f15:	68 09 8b 00 00       	push   $0x8b09
    1f1a:	68 10 8b 00 00       	push   $0x8b10
    1f1f:	e8 0c 89 00 00       	call   a830 <assert_abort@plt>
    1f24:	8d b6 00 00 00 00    	lea    0x0(%esi),%esi
    1f2a:	8d bf 00 00 00 00    	lea    0x0(%edi),%edi

00001f30 <tcp_conn_find_ref>:
    1f30:	55                   	push   %ebp
    1f31:	89 e5                	mov    %esp,%ebp
    1f33:	53                   	push   %ebx
    1f34:	83 ec 14             	sub    $0x14,%esp
    1f37:	8b 5d 08             	mov    0x8(%ebp),%ebx
    1f3a:	53                   	push   %ebx
    1f3b:	68 3b 8c 00 00       	push   $0x8c3b
    1f40:	6a 04                	push   $0x4
    1f42:	6a ff                	push   $0xffffffff
    1f44:	e8 87 88 00 00       	call   a7d0 <log_msg@plt>
    1f49:	c7 04 24 c8 c4 00 00 	movl   $0xc4c8,(%esp)
    1f50:	e8 0b 8b 00 00       	call   aa60 <fibril_mutex_lock@plt>
    1f55:	83 c4 0c             	add    $0xc,%esp
    1f58:	8d 45 f4             	lea    -0xc(%ebp),%eax
    1f5b:	50                   	push   %eax
    1f5c:	a1 08 c6 00 00       	mov    0xc608,%eax
    1f61:	53                   	push   %ebx
    1f62:	50                   	push   %eax
    1f63:	e8 b8 61 00 00       	call   8120 <amap_find_match>
    1f68:	83 c4 10             	add    $0x10,%esp
    1f6b:	85 c0                	test   %eax,%eax
    1f6d:	74 21                	je     1f90 <tcp_conn_find_ref+0x60>
    1f6f:	40                   	inc    %eax
    1f70:	75 63                	jne    1fd5 <tcp_conn_find_ref+0xa5>
    1f72:	83 ec 0c             	sub    $0xc,%esp
    1f75:	31 db                	xor    %ebx,%ebx
    1f77:	68 c8 c4 00 00       	push   $0xc4c8
    1f7c:	e8 1f 89 00 00       	call   a8a0 <fibril_mutex_unlock@plt>
    1f81:	89 d8                	mov    %ebx,%eax
    1f83:	83 c4 10             	add    $0x10,%esp
    1f86:	8b 5d fc             	mov    -0x4(%ebp),%ebx
    1f89:	c9                   	leave  
    1f8a:	c3                   	ret    
    1f8b:	90                   	nop
    1f8c:	8d 74 26 00          	lea    0x0(%esi,%eiz,1),%esi
    1f90:	8b 5d f4             	mov    -0xc(%ebp),%ebx
    1f93:	8b 43 5c             	mov    0x5c(%ebx),%eax
    1f96:	52                   	push   %edx
    1f97:	52                   	push   %edx
    1f98:	50                   	push   %eax
    1f99:	8b 0b                	mov    (%ebx),%ecx
    1f9b:	53                   	push   %ebx
    1f9c:	51                   	push   %ecx
    1f9d:	68 0c 87 00 00       	push   $0x870c
    1fa2:	6a 05                	push   $0x5
    1fa4:	6a ff                	push   $0xffffffff
    1fa6:	e8 25 88 00 00       	call   a7d0 <log_msg@plt>
    1fab:	f0 ff 43 5c          	lock incl 0x5c(%ebx)
    1faf:	83 c4 14             	add    $0x14,%esp
    1fb2:	68 c8 c4 00 00       	push   $0xc4c8
    1fb7:	e8 e4 88 00 00       	call   a8a0 <fibril_mutex_unlock@plt>
    1fbc:	53                   	push   %ebx
    1fbd:	68 30 87 00 00       	push   $0x8730
    1fc2:	6a 04                	push   $0x4
    1fc4:	6a ff                	push   $0xffffffff
    1fc6:	e8 05 88 00 00       	call   a7d0 <log_msg@plt>
    1fcb:	89 d8                	mov    %ebx,%eax
    1fcd:	83 c4 20             	add    $0x20,%esp
    1fd0:	8b 5d fc             	mov    -0x4(%ebp),%ebx
    1fd3:	c9                   	leave  
    1fd4:	c3                   	ret    
    1fd5:	53                   	push   %ebx
    1fd6:	68 8a 01 00 00       	push   $0x18a
    1fdb:	68 09 8b 00 00       	push   $0x8b09
    1fe0:	68 51 8c 00 00       	push   $0x8c51
    1fe5:	e8 46 88 00 00       	call   a830 <assert_abort@plt>
    1fea:	8d b6 00 00 00 00    	lea    0x0(%esi),%esi

00001ff0 <tcp_conn_reset>:
    1ff0:	55                   	push   %ebp
    1ff1:	89 e5                	mov    %esp,%ebp
    1ff3:	56                   	push   %esi
    1ff4:	53                   	push   %ebx
    1ff5:	8b 5d 08             	mov    0x8(%ebp),%ebx
    1ff8:	8b 03                	mov    (%ebx),%eax
    1ffa:	50                   	push   %eax
    1ffb:	68 5e 8c 00 00       	push   $0x8c5e
    2000:	6a 04                	push   $0x4
    2002:	6a ff                	push   $0xffffffff
    2004:	e8 c7 87 00 00       	call   a7d0 <log_msg@plt>
    2009:	ba 0a 00 00 00       	mov    $0xa,%edx
    200e:	89 d8                	mov    %ebx,%eax
    2010:	c6 43 64 01          	movb   $0x1,0x64(%ebx)
    2014:	e8 57 f2 ff ff       	call   1270 <tcp_conn_state_set>
    2019:	83 c4 0c             	add    $0xc,%esp
    201c:	68 50 87 00 00       	push   $0x8750
    2021:	6a 05                	push   $0x5
    2023:	6a ff                	push   $0xffffffff
    2025:	e8 a6 87 00 00       	call   a7d0 <log_msg@plt>
    202a:	58                   	pop    %eax
    202b:	8b 83 90 00 00 00    	mov    0x90(%ebx),%eax
    2031:	50                   	push   %eax
    2032:	e8 f9 89 00 00       	call   aa30 <fibril_timer_clear_locked@plt>
    2037:	83 c4 10             	add    $0x10,%esp
    203a:	48                   	dec    %eax
    203b:	74 43                	je     2080 <tcp_conn_reset+0x90>
    203d:	8d b3 80 00 00 00    	lea    0x80(%ebx),%esi
    2043:	50                   	push   %eax
    2044:	68 73 8c 00 00       	push   $0x8c73
    2049:	6a 05                	push   $0x5
    204b:	6a ff                	push   $0xffffffff
    204d:	e8 7e 87 00 00       	call   a7d0 <log_msg@plt>
    2052:	89 34 24             	mov    %esi,(%esp)
    2055:	e8 66 45 00 00       	call   65c0 <tcp_tqueue_clear>
    205a:	8d 83 a4 00 00 00    	lea    0xa4(%ebx),%eax
    2060:	89 04 24             	mov    %eax,(%esp)
    2063:	e8 28 88 00 00       	call   a890 <fibril_condvar_broadcast@plt>
    2068:	81 c3 bc 00 00 00    	add    $0xbc,%ebx
    206e:	83 c4 10             	add    $0x10,%esp
    2071:	89 5d 08             	mov    %ebx,0x8(%ebp)
    2074:	8d 65 f8             	lea    -0x8(%ebp),%esp
    2077:	5b                   	pop    %ebx
    2078:	5e                   	pop    %esi
    2079:	5d                   	pop    %ebp
    207a:	e9 11 88 00 00       	jmp    a890 <fibril_condvar_broadcast@plt>
    207f:	90                   	nop
    2080:	8b 43 5c             	mov    0x5c(%ebx),%eax
    2083:	51                   	push   %ecx
    2084:	51                   	push   %ecx
    2085:	50                   	push   %eax
    2086:	53                   	push   %ebx
    2087:	8b 33                	mov    (%ebx),%esi
    2089:	56                   	push   %esi
    208a:	68 e8 86 00 00       	push   $0x86e8
    208f:	6a 05                	push   $0x5
    2091:	6a ff                	push   $0xffffffff
    2093:	e8 38 87 00 00       	call   a7d0 <log_msg@plt>
    2098:	83 c8 ff             	or     $0xffffffff,%eax
    209b:	f0 0f c1 43 5c       	lock xadd %eax,0x5c(%ebx)
    20a0:	83 c4 20             	add    $0x20,%esp
    20a3:	48                   	dec    %eax
    20a4:	75 97                	jne    203d <tcp_conn_reset+0x4d>
    20a6:	83 ec 0c             	sub    $0xc,%esp
    20a9:	8d b3 80 00 00 00    	lea    0x80(%ebx),%esi
    20af:	53                   	push   %ebx
    20b0:	8b 13                	mov    (%ebx),%edx
    20b2:	52                   	push   %edx
    20b3:	68 27 8b 00 00       	push   $0x8b27
    20b8:	6a 04                	push   $0x4
    20ba:	6a ff                	push   $0xffffffff
    20bc:	e8 0f 87 00 00       	call   a7d0 <log_msg@plt>
    20c1:	83 c4 14             	add    $0x14,%esp
    20c4:	56                   	push   %esi
    20c5:	e8 56 45 00 00       	call   6620 <tcp_tqueue_fini>
    20ca:	8b 83 94 00 00 00    	mov    0x94(%ebx),%eax
    20d0:	83 c4 10             	add    $0x10,%esp
    20d3:	85 c0                	test   %eax,%eax
    20d5:	74 0c                	je     20e3 <tcp_conn_reset+0xf3>
    20d7:	83 ec 0c             	sub    $0xc,%esp
    20da:	50                   	push   %eax
    20db:	e8 70 89 00 00       	call   aa50 <free@plt>
    20e0:	83 c4 10             	add    $0x10,%esp
    20e3:	8b 83 ac 00 00 00    	mov    0xac(%ebx),%eax
    20e9:	85 c0                	test   %eax,%eax
    20eb:	74 0c                	je     20f9 <tcp_conn_reset+0x109>
    20ed:	83 ec 0c             	sub    $0xc,%esp
    20f0:	50                   	push   %eax
    20f1:	e8 5a 89 00 00       	call   aa50 <free@plt>
    20f6:	83 c4 10             	add    $0x10,%esp
    20f9:	8b 83 90 00 00 00    	mov    0x90(%ebx),%eax
    20ff:	85 c0                	test   %eax,%eax
    2101:	74 0c                	je     210f <tcp_conn_reset+0x11f>
    2103:	83 ec 0c             	sub    $0xc,%esp
    2106:	50                   	push   %eax
    2107:	e8 04 87 00 00       	call   a810 <fibril_timer_destroy@plt>
    210c:	83 c4 10             	add    $0x10,%esp
    210f:	83 ec 0c             	sub    $0xc,%esp
    2112:	53                   	push   %ebx
    2113:	e8 38 89 00 00       	call   aa50 <free@plt>
    2118:	83 c4 10             	add    $0x10,%esp
    211b:	e9 23 ff ff ff       	jmp    2043 <tcp_conn_reset+0x53>

00002120 <tcp_conn_got_syn>:
    2120:	55                   	push   %ebp
    2121:	89 e5                	mov    %esp,%ebp
    2123:	83 ec 08             	sub    $0x8,%esp
    2126:	8b 45 08             	mov    0x8(%ebp),%eax
    2129:	83 78 60 0a          	cmpl   $0xa,0x60(%eax)
    212d:	77 49                	ja     2178 <tcp_conn_got_syn+0x58>
    212f:	8b 40 60             	mov    0x60(%eax),%eax
    2132:	ff 24 85 7c 8f 00 00 	jmp    *0x8f7c(,%eax,4)
    2139:	8d b4 26 00 00 00 00 	lea    0x0(%esi,%eiz,1),%esi
    2140:	31 c0                	xor    %eax,%eax
    2142:	c9                   	leave  
    2143:	c3                   	ret    
    2144:	8d 74 26 00          	lea    0x0(%esi,%eiz,1),%esi
    2148:	6a 0a                	push   $0xa
    214a:	68 91 8c 00 00       	push   $0x8c91
    214f:	6a 02                	push   $0x2
    2151:	6a ff                	push   $0xffffffff
    2153:	e8 78 86 00 00       	call   a7d0 <log_msg@plt>
    2158:	83 c4 0c             	add    $0xc,%esp
    215b:	68 c9 01 00 00       	push   $0x1c9
    2160:	68 09 8b 00 00       	push   $0x8b09
    2165:	68 d3 8b 00 00       	push   $0x8bd3
    216a:	e8 c1 86 00 00       	call   a830 <assert_abort@plt>
    216f:	90                   	nop
    2170:	b0 01                	mov    $0x1,%al
    2172:	c9                   	leave  
    2173:	c3                   	ret    
    2174:	8d 74 26 00          	lea    0x0(%esi,%eiz,1),%esi
    2178:	50                   	push   %eax
    2179:	68 cc 01 00 00       	push   $0x1cc
    217e:	68 09 8b 00 00       	push   $0x8b09
    2183:	68 d3 8b 00 00       	push   $0x8bd3
    2188:	e8 a3 86 00 00       	call   a830 <assert_abort@plt>
    218d:	8d 76 00             	lea    0x0(%esi),%esi

00002190 <tcp_conn_segment_arrived>:
    2190:	55                   	push   %ebp
    2191:	89 e5                	mov    %esp,%ebp
    2193:	57                   	push   %edi
    2194:	56                   	push   %esi
    2195:	53                   	push   %ebx
    2196:	81 ec a8 00 00 00    	sub    $0xa8,%esp
    219c:	8b 5d 08             	mov    0x8(%ebp),%ebx
    219f:	8b 45 10             	mov    0x10(%ebp),%eax
    21a2:	50                   	push   %eax
    21a3:	8b 03                	mov    (%ebx),%eax
    21a5:	50                   	push   %eax
    21a6:	68 70 87 00 00       	push   $0x8770
    21ab:	6a 04                	push   $0x4
    21ad:	6a ff                	push   $0xffffffff
    21af:	e8 1c 86 00 00       	call   a7d0 <log_msg@plt>
    21b4:	83 c4 14             	add    $0x14,%esp
    21b7:	8d 43 4c             	lea    0x4c(%ebx),%eax
    21ba:	50                   	push   %eax
    21bb:	89 85 64 ff ff ff    	mov    %eax,-0x9c(%ebp)
    21c1:	e8 9a 88 00 00       	call   aa60 <fibril_mutex_lock@plt>
    21c6:	83 c4 10             	add    $0x10,%esp
    21c9:	83 7b 60 0a          	cmpl   $0xa,0x60(%ebx)
    21cd:	0f 84 5d 01 00 00    	je     2330 <tcp_conn_segment_arrived+0x1a0>
    21d3:	83 ec 0c             	sub    $0xc,%esp
    21d6:	8d 43 30             	lea    0x30(%ebx),%eax
    21d9:	89 85 5c ff ff ff    	mov    %eax,-0xa4(%ebp)
    21df:	50                   	push   %eax
    21e0:	e8 0b 88 00 00       	call   a9f0 <inet_addr_is_any@plt>
    21e5:	83 c4 10             	add    $0x10,%esp
    21e8:	85 c0                	test   %eax,%eax
    21ea:	8d 43 18             	lea    0x18(%ebx),%eax
    21ed:	89 85 60 ff ff ff    	mov    %eax,-0xa0(%ebp)
    21f3:	75 0b                	jne    2200 <tcp_conn_segment_arrived+0x70>
    21f5:	66 83 7b 44 00       	cmpw   $0x0,0x44(%ebx)
    21fa:	0f 85 b8 01 00 00    	jne    23b8 <tcp_conn_segment_arrived+0x228>
    2200:	8d 73 14             	lea    0x14(%ebx),%esi
    2203:	50                   	push   %eax
    2204:	8d 7d b4             	lea    -0x4c(%ebp),%edi
    2207:	68 b4 87 00 00       	push   $0x87b4
    220c:	6a 05                	push   $0x5
    220e:	6a ff                	push   $0xffffffff
    2210:	e8 bb 85 00 00       	call   a7d0 <log_msg@plt>
    2215:	b9 0d 00 00 00       	mov    $0xd,%ecx
    221a:	89 b5 58 ff ff ff    	mov    %esi,-0xa8(%ebp)
    2220:	f3 a5                	rep movsl %ds:(%esi),%es:(%edi)
    2222:	c7 04 24 c8 c4 00 00 	movl   $0xc4c8,(%esp)
    2229:	e8 32 88 00 00       	call   aa60 <fibril_mutex_lock@plt>
    222e:	58                   	pop    %eax
    222f:	8b 85 5c ff ff ff    	mov    -0xa4(%ebp),%eax
    2235:	50                   	push   %eax
    2236:	e8 b5 87 00 00       	call   a9f0 <inet_addr_is_any@plt>
    223b:	83 c4 10             	add    $0x10,%esp
    223e:	85 c0                	test   %eax,%eax
    2240:	74 2d                	je     226f <tcp_conn_segment_arrived+0xdf>
    2242:	8b 45 0c             	mov    0xc(%ebp),%eax
    2245:	8b 40 1c             	mov    0x1c(%eax),%eax
    2248:	89 43 30             	mov    %eax,0x30(%ebx)
    224b:	8b 45 0c             	mov    0xc(%ebp),%eax
    224e:	8b 40 20             	mov    0x20(%eax),%eax
    2251:	89 43 34             	mov    %eax,0x34(%ebx)
    2254:	8b 45 0c             	mov    0xc(%ebp),%eax
    2257:	8b 40 24             	mov    0x24(%eax),%eax
    225a:	89 43 38             	mov    %eax,0x38(%ebx)
    225d:	8b 45 0c             	mov    0xc(%ebp),%eax
    2260:	8b 40 28             	mov    0x28(%eax),%eax
    2263:	89 43 3c             	mov    %eax,0x3c(%ebx)
    2266:	8b 45 0c             	mov    0xc(%ebp),%eax
    2269:	8b 40 2c             	mov    0x2c(%eax),%eax
    226c:	89 43 40             	mov    %eax,0x40(%ebx)
    226f:	66 83 7b 44 00       	cmpw   $0x0,0x44(%ebx)
    2274:	75 0a                	jne    2280 <tcp_conn_segment_arrived+0xf0>
    2276:	8b 45 0c             	mov    0xc(%ebp),%eax
    2279:	8b 40 30             	mov    0x30(%eax),%eax
    227c:	66 89 43 44          	mov    %ax,0x44(%ebx)
    2280:	83 ec 0c             	sub    $0xc,%esp
    2283:	8b 85 60 ff ff ff    	mov    -0xa0(%ebp),%eax
    2289:	50                   	push   %eax
    228a:	e8 61 87 00 00       	call   a9f0 <inet_addr_is_any@plt>
    228f:	83 c4 10             	add    $0x10,%esp
    2292:	85 c0                	test   %eax,%eax
    2294:	74 2d                	je     22c3 <tcp_conn_segment_arrived+0x133>
    2296:	8b 45 0c             	mov    0xc(%ebp),%eax
    2299:	8b 40 04             	mov    0x4(%eax),%eax
    229c:	89 43 18             	mov    %eax,0x18(%ebx)
    229f:	8b 45 0c             	mov    0xc(%ebp),%eax
    22a2:	8b 40 08             	mov    0x8(%eax),%eax
    22a5:	89 43 1c             	mov    %eax,0x1c(%ebx)
    22a8:	8b 45 0c             	mov    0xc(%ebp),%eax
    22ab:	8b 40 0c             	mov    0xc(%eax),%eax
    22ae:	89 43 20             	mov    %eax,0x20(%ebx)
    22b1:	8b 45 0c             	mov    0xc(%ebp),%eax
    22b4:	8b 40 10             	mov    0x10(%eax),%eax
    22b7:	89 43 24             	mov    %eax,0x24(%ebx)
    22ba:	8b 45 0c             	mov    0xc(%ebp),%eax
    22bd:	8b 40 14             	mov    0x14(%eax),%eax
    22c0:	89 43 28             	mov    %eax,0x28(%ebx)
    22c3:	83 ec 0c             	sub    $0xc,%esp
    22c6:	8d 45 80             	lea    -0x80(%ebp),%eax
    22c9:	50                   	push   %eax
    22ca:	8b 85 58 ff ff ff    	mov    -0xa8(%ebp),%eax
    22d0:	6a 01                	push   $0x1
    22d2:	53                   	push   %ebx
    22d3:	50                   	push   %eax
    22d4:	a1 08 c6 00 00       	mov    0xc608,%eax
    22d9:	50                   	push   %eax
    22da:	e8 71 56 00 00       	call   7950 <amap_insert>
    22df:	83 c4 20             	add    $0x20,%esp
    22e2:	85 c0                	test   %eax,%eax
    22e4:	0f 84 96 00 00 00    	je     2380 <tcp_conn_segment_arrived+0x1f0>
    22ea:	83 f8 f7             	cmp    $0xfffffff7,%eax
    22ed:	0f 84 5d 11 00 00    	je     3450 <tcp_conn_segment_arrived+0x12c0>
    22f3:	83 f8 fe             	cmp    $0xfffffffe,%eax
    22f6:	0f 85 69 11 00 00    	jne    3465 <tcp_conn_segment_arrived+0x12d5>
    22fc:	52                   	push   %edx
    22fd:	68 d3 8c 00 00       	push   $0x8cd3
    2302:	6a 01                	push   $0x1
    2304:	6a ff                	push   $0xffffffff
    2306:	e8 c5 84 00 00       	call   a7d0 <log_msg@plt>
    230b:	c7 04 24 c8 c4 00 00 	movl   $0xc4c8,(%esp)
    2312:	e8 89 85 00 00       	call   a8a0 <fibril_mutex_unlock@plt>
    2317:	8b 9d 64 ff ff ff    	mov    -0x9c(%ebp),%ebx
    231d:	59                   	pop    %ecx
    231e:	53                   	push   %ebx
    231f:	e8 7c 85 00 00       	call   a8a0 <fibril_mutex_unlock@plt>
    2324:	83 c4 10             	add    $0x10,%esp
    2327:	8d 65 f4             	lea    -0xc(%ebp),%esp
    232a:	5b                   	pop    %ebx
    232b:	5e                   	pop    %esi
    232c:	5f                   	pop    %edi
    232d:	5d                   	pop    %ebp
    232e:	c3                   	ret    
    232f:	90                   	nop
    2330:	50                   	push   %eax
    2331:	68 9a 8c 00 00       	push   $0x8c9a
    2336:	6a 02                	push   $0x2
    2338:	6a ff                	push   $0xffffffff
    233a:	e8 91 84 00 00       	call   a7d0 <log_msg@plt>
    233f:	58                   	pop    %eax
    2340:	8b 45 10             	mov    0x10(%ebp),%eax
    2343:	50                   	push   %eax
    2344:	8b 45 0c             	mov    0xc(%ebp),%eax
    2347:	50                   	push   %eax
    2348:	68 94 87 00 00       	push   $0x8794
    234d:	6a 04                	push   $0x4
    234f:	6a ff                	push   $0xffffffff
    2351:	e8 7a 84 00 00       	call   a7d0 <log_msg@plt>
    2356:	8b 45 10             	mov    0x10(%ebp),%eax
    2359:	83 c4 20             	add    $0x20,%esp
    235c:	f6 00 04             	testb  $0x4,(%eax)
    235f:	74 6f                	je     23d0 <tcp_conn_segment_arrived+0x240>
    2361:	83 ec 0c             	sub    $0xc,%esp
    2364:	8b 85 64 ff ff ff    	mov    -0x9c(%ebp),%eax
    236a:	50                   	push   %eax
    236b:	e8 30 85 00 00       	call   a8a0 <fibril_mutex_unlock@plt>
    2370:	83 c4 10             	add    $0x10,%esp
    2373:	8d 65 f4             	lea    -0xc(%ebp),%esp
    2376:	5b                   	pop    %ebx
    2377:	5e                   	pop    %esi
    2378:	5f                   	pop    %edi
    2379:	5d                   	pop    %ebp
    237a:	c3                   	ret    
    237b:	90                   	nop
    237c:	8d 74 26 00          	lea    0x0(%esi,%eiz,1),%esi
    2380:	50                   	push   %eax
    2381:	50                   	push   %eax
    2382:	8d 45 b4             	lea    -0x4c(%ebp),%eax
    2385:	50                   	push   %eax
    2386:	a1 08 c6 00 00       	mov    0xc608,%eax
    238b:	50                   	push   %eax
    238c:	e8 6f 5a 00 00       	call   7e00 <amap_remove>
    2391:	c7 04 24 c8 c4 00 00 	movl   $0xc4c8,(%esp)
    2398:	e8 03 85 00 00       	call   a8a0 <fibril_mutex_unlock@plt>
    239d:	c7 03 e2 8c 00 00    	movl   $0x8ce2,(%ebx)
    23a3:	83 c4 10             	add    $0x10,%esp
    23a6:	83 7b 60 0a          	cmpl   $0xa,0x60(%ebx)
    23aa:	77 b5                	ja     2361 <tcp_conn_segment_arrived+0x1d1>
    23ac:	8b 43 60             	mov    0x60(%ebx),%eax
    23af:	ff 24 85 a8 8f 00 00 	jmp    *0x8fa8(,%eax,4)
    23b6:	66 90                	xchg   %ax,%ax
    23b8:	83 ec 0c             	sub    $0xc,%esp
    23bb:	50                   	push   %eax
    23bc:	e8 2f 86 00 00       	call   a9f0 <inet_addr_is_any@plt>
    23c1:	83 c4 10             	add    $0x10,%esp
    23c4:	85 c0                	test   %eax,%eax
    23c6:	0f 85 34 fe ff ff    	jne    2200 <tcp_conn_segment_arrived+0x70>
    23cc:	eb d8                	jmp    23a6 <tcp_conn_segment_arrived+0x216>
    23ce:	66 90                	xchg   %ax,%ax
    23d0:	83 ec 0c             	sub    $0xc,%esp
    23d3:	8b 55 0c             	mov    0xc(%ebp),%edx
    23d6:	50                   	push   %eax
    23d7:	52                   	push   %edx
    23d8:	68 b0 8c 00 00       	push   $0x8cb0
    23dd:	6a 04                	push   $0x4
    23df:	6a ff                	push   $0xffffffff
    23e1:	e8 ea 83 00 00       	call   a7d0 <log_msg@plt>
    23e6:	83 c4 14             	add    $0x14,%esp
    23e9:	8b 4d 10             	mov    0x10(%ebp),%ecx
    23ec:	51                   	push   %ecx
    23ed:	e8 3e 20 00 00       	call   4430 <tcp_segment_make_rst>
    23f2:	8b 7d 0c             	mov    0xc(%ebp),%edi
    23f5:	5b                   	pop    %ebx
    23f6:	5e                   	pop    %esi
    23f7:	50                   	push   %eax
    23f8:	57                   	push   %edi
    23f9:	e8 62 4b 00 00       	call   6f60 <tcp_transmit_segment>
    23fe:	83 c4 10             	add    $0x10,%esp
    2401:	e9 5b ff ff ff       	jmp    2361 <tcp_conn_segment_arrived+0x1d1>
    2406:	66 90                	xchg   %ax,%ax
    2408:	83 ec 0c             	sub    $0xc,%esp
    240b:	8b 4d 10             	mov    0x10(%ebp),%ecx
    240e:	51                   	push   %ecx
    240f:	53                   	push   %ebx
    2410:	68 fb 8d 00 00       	push   $0x8dfb
    2415:	6a 04                	push   $0x4
    2417:	6a ff                	push   $0xffffffff
    2419:	e8 b2 83 00 00       	call   a7d0 <log_msg@plt>
    241e:	83 c4 18             	add    $0x18,%esp
    2421:	8b 75 10             	mov    0x10(%ebp),%esi
    2424:	56                   	push   %esi
    2425:	53                   	push   %ebx
    2426:	e8 75 38 00 00       	call   5ca0 <seq_no_segment_acceptable>
    242b:	83 c4 10             	add    $0x10,%esp
    242e:	84 c0                	test   %al,%al
    2430:	0f 84 42 03 00 00    	je     2778 <tcp_conn_segment_arrived+0x5e8>
    2436:	8b 45 10             	mov    0x10(%ebp),%eax
    2439:	8d 73 74             	lea    0x74(%ebx),%esi
    243c:	57                   	push   %edi
    243d:	57                   	push   %edi
    243e:	50                   	push   %eax
    243f:	56                   	push   %esi
    2440:	e8 eb 11 00 00       	call   3630 <tcp_iqueue_insert_seg>
    2445:	8d 83 80 00 00 00    	lea    0x80(%ebx),%eax
    244b:	83 c4 10             	add    $0x10,%esp
    244e:	89 85 5c ff ff ff    	mov    %eax,-0xa4(%ebp)
    2454:	8d 83 a4 00 00 00    	lea    0xa4(%ebx),%eax
    245a:	89 85 60 ff ff ff    	mov    %eax,-0xa0(%ebp)
    2460:	50                   	push   %eax
    2461:	50                   	push   %eax
    2462:	8d 85 74 ff ff ff    	lea    -0x8c(%ebp),%eax
    2468:	50                   	push   %eax
    2469:	56                   	push   %esi
    246a:	e8 71 12 00 00       	call   36e0 <tcp_iqueue_get_ready_seg>
    246f:	83 c4 10             	add    $0x10,%esp
    2472:	85 c0                	test   %eax,%eax
    2474:	0f 85 e7 fe ff ff    	jne    2361 <tcp_conn_segment_arrived+0x1d1>
    247a:	83 ec 0c             	sub    $0xc,%esp
    247d:	8b bd 74 ff ff ff    	mov    -0x8c(%ebp),%edi
    2483:	57                   	push   %edi
    2484:	53                   	push   %ebx
    2485:	68 13 8e 00 00       	push   $0x8e13
    248a:	6a 04                	push   $0x4
    248c:	6a ff                	push   $0xffffffff
    248e:	e8 3d 83 00 00       	call   a7d0 <log_msg@plt>
    2493:	83 c4 14             	add    $0x14,%esp
    2496:	57                   	push   %edi
    2497:	e8 04 22 00 00       	call   46a0 <tcp_segment_dump>
    249c:	8b 07                	mov    (%edi),%eax
    249e:	83 c4 10             	add    $0x10,%esp
    24a1:	a8 04                	test   $0x4,%al
    24a3:	0f 84 2f 05 00 00    	je     29d8 <tcp_conn_segment_arrived+0x848>
    24a9:	83 7b 60 0a          	cmpl   $0xa,0x60(%ebx)
    24ad:	77 b1                	ja     2460 <tcp_conn_segment_arrived+0x2d0>
    24af:	8b 43 60             	mov    0x60(%ebx),%eax
    24b2:	ff 24 85 d4 8f 00 00 	jmp    *0x8fd4(,%eax,4)
    24b9:	8d b4 26 00 00 00 00 	lea    0x0(%esi,%eiz,1),%esi
    24c0:	83 ec 0c             	sub    $0xc,%esp
    24c3:	8b 45 10             	mov    0x10(%ebp),%eax
    24c6:	50                   	push   %eax
    24c7:	53                   	push   %ebx
    24c8:	68 3c 8d 00 00       	push   $0x8d3c
    24cd:	6a 04                	push   $0x4
    24cf:	6a ff                	push   $0xffffffff
    24d1:	e8 fa 82 00 00       	call   a7d0 <log_msg@plt>
    24d6:	8b 45 10             	mov    0x10(%ebp),%eax
    24d9:	83 c4 20             	add    $0x20,%esp
    24dc:	8b 00                	mov    (%eax),%eax
    24de:	a8 08                	test   $0x8,%al
    24e0:	0f 85 aa 02 00 00    	jne    2790 <tcp_conn_segment_arrived+0x600>
    24e6:	a8 04                	test   $0x4,%al
    24e8:	0f 85 02 09 00 00    	jne    2df0 <tcp_conn_segment_arrived+0xc60>
    24ee:	a8 01                	test   $0x1,%al
    24f0:	0f 84 ba 0a 00 00    	je     2fb0 <tcp_conn_segment_arrived+0xe20>
    24f6:	8b 45 10             	mov    0x10(%ebp),%eax
    24f9:	8b 40 04             	mov    0x4(%eax),%eax
    24fc:	89 83 ec 00 00 00    	mov    %eax,0xec(%ebx)
    2502:	8d 50 01             	lea    0x1(%eax),%edx
    2505:	89 93 e0 00 00 00    	mov    %edx,0xe0(%ebx)
    250b:	57                   	push   %edi
    250c:	68 cb 8d 00 00       	push   $0x8dcb
    2511:	6a 04                	push   $0x4
    2513:	6a ff                	push   $0xffffffff
    2515:	e8 b6 82 00 00       	call   a7d0 <log_msg@plt>
    251a:	8b 45 10             	mov    0x10(%ebp),%eax
    251d:	8b 40 04             	mov    0x4(%eax),%eax
    2520:	5a                   	pop    %edx
    2521:	59                   	pop    %ecx
    2522:	50                   	push   %eax
    2523:	50                   	push   %eax
    2524:	8b 45 10             	mov    0x10(%ebp),%eax
    2527:	8b 70 10             	mov    0x10(%eax),%esi
    252a:	56                   	push   %esi
    252b:	68 ac 88 00 00       	push   $0x88ac
    2530:	6a 04                	push   $0x4
    2532:	6a ff                	push   $0xffffffff
    2534:	e8 97 82 00 00       	call   a7d0 <log_msg@plt>
    2539:	8b 45 10             	mov    0x10(%ebp),%eax
    253c:	8b 40 10             	mov    0x10(%eax),%eax
    253f:	83 c4 14             	add    $0x14,%esp
    2542:	89 83 cc 00 00 00    	mov    %eax,0xcc(%ebx)
    2548:	8b 45 10             	mov    0x10(%ebp),%eax
    254b:	8b 40 04             	mov    0x4(%eax),%eax
    254e:	89 83 d4 00 00 00    	mov    %eax,0xd4(%ebx)
    2554:	89 83 d8 00 00 00    	mov    %eax,0xd8(%ebx)
    255a:	53                   	push   %ebx
    255b:	e8 00 37 00 00       	call   5c60 <seq_no_syn_acked>
    2560:	83 c4 10             	add    $0x10,%esp
    2563:	84 c0                	test   %al,%al
    2565:	0f 84 9e 08 00 00    	je     2e09 <tcp_conn_segment_arrived+0xc79>
    256b:	8b 33                	mov    (%ebx),%esi
    256d:	56                   	push   %esi
    256e:	68 de 8d 00 00       	push   $0x8dde
    2573:	6a 04                	push   $0x4
    2575:	6a ff                	push   $0xffffffff
    2577:	e8 54 82 00 00       	call   a7d0 <log_msg@plt>
    257c:	53                   	push   %ebx
    257d:	68 f2 8a 00 00       	push   $0x8af2
    2582:	6a 04                	push   $0x4
    2584:	6a ff                	push   $0xffffffff
    2586:	e8 45 82 00 00       	call   a7d0 <log_msg@plt>
    258b:	83 c4 14             	add    $0x14,%esp
    258e:	8b 73 60             	mov    0x60(%ebx),%esi
    2591:	8d 43 68             	lea    0x68(%ebx),%eax
    2594:	c7 43 60 03 00 00 00 	movl   $0x3,0x60(%ebx)
    259b:	50                   	push   %eax
    259c:	e8 ef 82 00 00       	call   a890 <fibril_condvar_broadcast@plt>
    25a1:	8b 43 0c             	mov    0xc(%ebx),%eax
    25a4:	83 c4 10             	add    $0x10,%esp
    25a7:	85 c0                	test   %eax,%eax
    25a9:	0f 84 2f 0a 00 00    	je     2fde <tcp_conn_segment_arrived+0xe4e>
    25af:	8b 08                	mov    (%eax),%ecx
    25b1:	85 c9                	test   %ecx,%ecx
    25b3:	0f 84 25 0a 00 00    	je     2fde <tcp_conn_segment_arrived+0xe4e>
    25b9:	50                   	push   %eax
    25ba:	68 a0 86 00 00       	push   $0x86a0
    25bf:	6a 04                	push   $0x4
    25c1:	6a ff                	push   $0xffffffff
    25c3:	e8 08 82 00 00       	call   a7d0 <log_msg@plt>
    25c8:	83 c4 0c             	add    $0xc,%esp
    25cb:	8b 43 0c             	mov    0xc(%ebx),%eax
    25ce:	8b 53 10             	mov    0x10(%ebx),%edx
    25d1:	56                   	push   %esi
    25d2:	52                   	push   %edx
    25d3:	53                   	push   %ebx
    25d4:	ff 10                	call   *(%eax)
    25d6:	83 c4 10             	add    $0x10,%esp
    25d9:	83 fe 0a             	cmp    $0xa,%esi
    25dc:	0f 84 ae 06 00 00    	je     2c90 <tcp_conn_segment_arrived+0xb00>
    25e2:	57                   	push   %edi
    25e3:	57                   	push   %edi
    25e4:	6a 08                	push   $0x8
    25e6:	53                   	push   %ebx
    25e7:	e8 a4 42 00 00       	call   6890 <tcp_tqueue_ctrl_seg>
    25ec:	83 c4 10             	add    $0x10,%esp
    25ef:	83 ec 0c             	sub    $0xc,%esp
    25f2:	8b 7d 10             	mov    0x10(%ebp),%edi
    25f5:	57                   	push   %edi
    25f6:	e8 35 1d 00 00       	call   4330 <tcp_segment_delete>
    25fb:	83 c4 10             	add    $0x10,%esp
    25fe:	e9 5e fd ff ff       	jmp    2361 <tcp_conn_segment_arrived+0x1d1>
    2603:	90                   	nop
    2604:	8d 74 26 00          	lea    0x0(%esi,%eiz,1),%esi
    2608:	83 ec 0c             	sub    $0xc,%esp
    260b:	8b 45 10             	mov    0x10(%ebp),%eax
    260e:	50                   	push   %eax
    260f:	53                   	push   %ebx
    2610:	68 e4 8c 00 00       	push   $0x8ce4
    2615:	6a 04                	push   $0x4
    2617:	6a ff                	push   $0xffffffff
    2619:	e8 b2 81 00 00       	call   a7d0 <log_msg@plt>
    261e:	8b 45 10             	mov    0x10(%ebp),%eax
    2621:	83 c4 20             	add    $0x20,%esp
    2624:	8b 00                	mov    (%eax),%eax
    2626:	a8 04                	test   $0x4,%al
    2628:	0f 85 92 03 00 00    	jne    29c0 <tcp_conn_segment_arrived+0x830>
    262e:	a8 08                	test   $0x8,%al
    2630:	0f 85 5c 08 00 00    	jne    2e92 <tcp_conn_segment_arrived+0xd02>
    2636:	a8 01                	test   $0x1,%al
    2638:	0f 84 9a 07 00 00    	je     2dd8 <tcp_conn_segment_arrived+0xc48>
    263e:	57                   	push   %edi
    263f:	68 16 8d 00 00       	push   $0x8d16
    2644:	6a 04                	push   $0x4
    2646:	6a ff                	push   $0xffffffff
    2648:	e8 83 81 00 00       	call   a7d0 <log_msg@plt>
    264d:	8b 45 10             	mov    0x10(%ebp),%eax
    2650:	8b 50 04             	mov    0x4(%eax),%edx
    2653:	89 93 ec 00 00 00    	mov    %edx,0xec(%ebx)
    2659:	8d 42 01             	lea    0x1(%edx),%eax
    265c:	89 83 e0 00 00 00    	mov    %eax,0xe0(%ebx)
    2662:	50                   	push   %eax
    2663:	68 31 8d 00 00       	push   $0x8d31
    2668:	6a 04                	push   $0x4
    266a:	6a ff                	push   $0xffffffff
    266c:	e8 5f 81 00 00       	call   a7d0 <log_msg@plt>
    2671:	8b 45 10             	mov    0x10(%ebp),%eax
    2674:	83 c4 20             	add    $0x20,%esp
    2677:	83 78 0c 01          	cmpl   $0x1,0xc(%eax)
    267b:	76 15                	jbe    2692 <tcp_conn_segment_arrived+0x502>
    267d:	56                   	push   %esi
    267e:	68 40 88 00 00       	push   $0x8840
    2683:	6a 02                	push   $0x2
    2685:	6a ff                	push   $0xffffffff
    2687:	e8 44 81 00 00       	call   a7d0 <log_msg@plt>
    268c:	83 c4 10             	add    $0x10,%esp
    268f:	8b 45 10             	mov    0x10(%ebp),%eax
    2692:	8b 40 10             	mov    0x10(%eax),%eax
    2695:	c7 83 dc 00 00 00 01 	movl   $0x1,0xdc(%ebx)
    269c:	00 00 00 
    269f:	89 83 cc 00 00 00    	mov    %eax,0xcc(%ebx)
    26a5:	8b 45 10             	mov    0x10(%ebp),%eax
    26a8:	c7 83 c8 00 00 00 01 	movl   $0x1,0xc8(%ebx)
    26af:	00 00 00 
    26b2:	c7 83 c4 00 00 00 01 	movl   $0x1,0xc4(%ebx)
    26b9:	00 00 00 
    26bc:	8b 40 04             	mov    0x4(%eax),%eax
    26bf:	89 83 d4 00 00 00    	mov    %eax,0xd4(%ebx)
    26c5:	89 83 d8 00 00 00    	mov    %eax,0xd8(%ebx)
    26cb:	53                   	push   %ebx
    26cc:	68 f2 8a 00 00       	push   $0x8af2
    26d1:	6a 04                	push   $0x4
    26d3:	6a ff                	push   $0xffffffff
    26d5:	e8 f6 80 00 00       	call   a7d0 <log_msg@plt>
    26da:	8b 73 60             	mov    0x60(%ebx),%esi
    26dd:	8d 43 68             	lea    0x68(%ebx),%eax
    26e0:	c7 43 60 02 00 00 00 	movl   $0x2,0x60(%ebx)
    26e7:	89 04 24             	mov    %eax,(%esp)
    26ea:	e8 a1 81 00 00       	call   a890 <fibril_condvar_broadcast@plt>
    26ef:	8b 43 0c             	mov    0xc(%ebx),%eax
    26f2:	83 c4 10             	add    $0x10,%esp
    26f5:	85 c0                	test   %eax,%eax
    26f7:	0f 84 d5 07 00 00    	je     2ed2 <tcp_conn_segment_arrived+0xd42>
    26fd:	8b 08                	mov    (%eax),%ecx
    26ff:	85 c9                	test   %ecx,%ecx
    2701:	0f 84 cb 07 00 00    	je     2ed2 <tcp_conn_segment_arrived+0xd42>
    2707:	57                   	push   %edi
    2708:	68 a0 86 00 00       	push   $0x86a0
    270d:	6a 04                	push   $0x4
    270f:	6a ff                	push   $0xffffffff
    2711:	e8 ba 80 00 00       	call   a7d0 <log_msg@plt>
    2716:	83 c4 0c             	add    $0xc,%esp
    2719:	8b 43 0c             	mov    0xc(%ebx),%eax
    271c:	8b 53 10             	mov    0x10(%ebx),%edx
    271f:	56                   	push   %esi
    2720:	52                   	push   %edx
    2721:	53                   	push   %ebx
    2722:	ff 10                	call   *(%eax)
    2724:	83 c4 10             	add    $0x10,%esp
    2727:	83 fe 0a             	cmp    $0xa,%esi
    272a:	0f 84 60 05 00 00    	je     2c90 <tcp_conn_segment_arrived+0xb00>
    2730:	50                   	push   %eax
    2731:	50                   	push   %eax
    2732:	6a 09                	push   $0x9
    2734:	53                   	push   %ebx
    2735:	e8 56 41 00 00       	call   6890 <tcp_tqueue_ctrl_seg>
    273a:	58                   	pop    %eax
    273b:	8b 45 10             	mov    0x10(%ebp),%eax
    273e:	50                   	push   %eax
    273f:	e8 ec 1b 00 00       	call   4330 <tcp_segment_delete>
    2744:	83 c4 10             	add    $0x10,%esp
    2747:	e9 15 fc ff ff       	jmp    2361 <tcp_conn_segment_arrived+0x1d1>
    274c:	8d 74 26 00          	lea    0x0(%esi,%eiz,1),%esi
    2750:	6a 0a                	push   $0xa
    2752:	68 91 8c 00 00       	push   $0x8c91
    2757:	6a 04                	push   $0x4
    2759:	6a ff                	push   $0xffffffff
    275b:	e8 70 80 00 00       	call   a7d0 <log_msg@plt>
    2760:	83 c4 0c             	add    $0xc,%esp
    2763:	68 eb 04 00 00       	push   $0x4eb
    2768:	68 09 8b 00 00       	push   $0x8b09
    276d:	68 d3 8b 00 00       	push   $0x8bd3
    2772:	e8 b9 80 00 00       	call   a830 <assert_abort@plt>
    2777:	90                   	nop
    2778:	50                   	push   %eax
    2779:	68 fc 88 00 00       	push   $0x88fc
    277e:	6a 04                	push   $0x4
    2780:	6a ff                	push   $0xffffffff
    2782:	e8 49 80 00 00       	call   a7d0 <log_msg@plt>
    2787:	58                   	pop    %eax
    2788:	5a                   	pop    %edx
    2789:	6a 08                	push   $0x8
    278b:	eb a7                	jmp    2734 <tcp_conn_segment_arrived+0x5a4>
    278d:	8d 76 00             	lea    0x0(%esi),%esi
    2790:	57                   	push   %edi
    2791:	57                   	push   %edi
    2792:	8b 83 c8 00 00 00    	mov    0xc8(%ebx),%eax
    2798:	50                   	push   %eax
    2799:	8b 45 10             	mov    0x10(%ebp),%eax
    279c:	8b 40 08             	mov    0x8(%eax),%eax
    279f:	50                   	push   %eax
    27a0:	8b 83 c4 00 00 00    	mov    0xc4(%ebx),%eax
    27a6:	50                   	push   %eax
    27a7:	68 68 88 00 00       	push   $0x8868
    27ac:	6a 04                	push   $0x4
    27ae:	6a ff                	push   $0xffffffff
    27b0:	e8 1b 80 00 00       	call   a7d0 <log_msg@plt>
    27b5:	8b 45 10             	mov    0x10(%ebp),%eax
    27b8:	83 c4 18             	add    $0x18,%esp
    27bb:	8b 40 08             	mov    0x8(%eax),%eax
    27be:	50                   	push   %eax
    27bf:	53                   	push   %ebx
    27c0:	e8 1b 31 00 00       	call   58e0 <seq_no_ack_acceptable>
    27c5:	83 c4 10             	add    $0x10,%esp
    27c8:	84 c0                	test   %al,%al
    27ca:	8b 45 10             	mov    0x10(%ebp),%eax
    27cd:	0f 85 cc 06 00 00    	jne    2e9f <tcp_conn_segment_arrived+0xd0f>
    27d3:	f6 00 04             	testb  $0x4,(%eax)
    27d6:	0f 85 eb 07 00 00    	jne    2fc7 <tcp_conn_segment_arrived+0xe37>
    27dc:	56                   	push   %esi
    27dd:	68 59 8d 00 00       	push   $0x8d59
    27e2:	6a 02                	push   $0x2
    27e4:	6a ff                	push   $0xffffffff
    27e6:	83 c3 14             	add    $0x14,%ebx
    27e9:	e8 e2 7f 00 00       	call   a7d0 <log_msg@plt>
    27ee:	58                   	pop    %eax
    27ef:	8b 45 10             	mov    0x10(%ebp),%eax
    27f2:	50                   	push   %eax
    27f3:	53                   	push   %ebx
    27f4:	68 b0 8c 00 00       	push   $0x8cb0
    27f9:	6a 04                	push   $0x4
    27fb:	6a ff                	push   $0xffffffff
    27fd:	e8 ce 7f 00 00       	call   a7d0 <log_msg@plt>
    2802:	83 c4 14             	add    $0x14,%esp
    2805:	8b 45 10             	mov    0x10(%ebp),%eax
    2808:	50                   	push   %eax
    2809:	e8 22 1c 00 00       	call   4430 <tcp_segment_make_rst>
    280e:	5a                   	pop    %edx
    280f:	59                   	pop    %ecx
    2810:	50                   	push   %eax
    2811:	53                   	push   %ebx
    2812:	e8 49 47 00 00       	call   6f60 <tcp_transmit_segment>
    2817:	83 c4 10             	add    $0x10,%esp
    281a:	e9 42 fb ff ff       	jmp    2361 <tcp_conn_segment_arrived+0x1d1>
    281f:	90                   	nop
    2820:	8b 03                	mov    (%ebx),%eax
    2822:	50                   	push   %eax
    2823:	68 5e 8c 00 00       	push   $0x8c5e
    2828:	6a 04                	push   $0x4
    282a:	6a ff                	push   $0xffffffff
    282c:	e8 9f 7f 00 00       	call   a7d0 <log_msg@plt>
    2831:	c6 43 64 01          	movb   $0x1,0x64(%ebx)
    2835:	ba 0a 00 00 00       	mov    $0xa,%edx
    283a:	89 d8                	mov    %ebx,%eax
    283c:	e8 2f ea ff ff       	call   1270 <tcp_conn_state_set>
    2841:	83 c4 0c             	add    $0xc,%esp
    2844:	68 50 87 00 00       	push   $0x8750
    2849:	6a 05                	push   $0x5
    284b:	6a ff                	push   $0xffffffff
    284d:	e8 7e 7f 00 00       	call   a7d0 <log_msg@plt>
    2852:	8b 83 90 00 00 00    	mov    0x90(%ebx),%eax
    2858:	5f                   	pop    %edi
    2859:	50                   	push   %eax
    285a:	e8 d1 81 00 00       	call   aa30 <fibril_timer_clear_locked@plt>
    285f:	83 c4 10             	add    $0x10,%esp
    2862:	48                   	dec    %eax
    2863:	0f 84 9f 06 00 00    	je     2f08 <tcp_conn_segment_arrived+0xd78>
    2869:	50                   	push   %eax
    286a:	68 73 8c 00 00       	push   $0x8c73
    286f:	6a 05                	push   $0x5
    2871:	6a ff                	push   $0xffffffff
    2873:	e8 58 7f 00 00       	call   a7d0 <log_msg@plt>
    2878:	58                   	pop    %eax
    2879:	8b 85 5c ff ff ff    	mov    -0xa4(%ebp),%eax
    287f:	50                   	push   %eax
    2880:	e8 3b 3d 00 00       	call   65c0 <tcp_tqueue_clear>
    2885:	8b 95 60 ff ff ff    	mov    -0xa0(%ebp),%edx
    288b:	58                   	pop    %eax
    288c:	52                   	push   %edx
    288d:	e8 fe 7f 00 00       	call   a890 <fibril_condvar_broadcast@plt>
    2892:	8d 83 bc 00 00 00    	lea    0xbc(%ebx),%eax
    2898:	89 04 24             	mov    %eax,(%esp)
    289b:	e8 f0 7f 00 00       	call   a890 <fibril_condvar_broadcast@plt>
    28a0:	83 c4 10             	add    $0x10,%esp
    28a3:	e9 b8 fb ff ff       	jmp    2460 <tcp_conn_segment_arrived+0x2d0>
    28a8:	8b 3b                	mov    (%ebx),%edi
    28aa:	57                   	push   %edi
    28ab:	68 30 8e 00 00       	push   $0x8e30
    28b0:	6a 04                	push   $0x4
    28b2:	6a ff                	push   $0xffffffff
    28b4:	e8 17 7f 00 00       	call   a7d0 <log_msg@plt>
    28b9:	8b 03                	mov    (%ebx),%eax
    28bb:	50                   	push   %eax
    28bc:	68 5e 8c 00 00       	push   $0x8c5e
    28c1:	6a 04                	push   $0x4
    28c3:	6a ff                	push   $0xffffffff
    28c5:	e8 06 7f 00 00       	call   a7d0 <log_msg@plt>
    28ca:	89 d8                	mov    %ebx,%eax
    28cc:	83 c4 20             	add    $0x20,%esp
    28cf:	c6 43 64 01          	movb   $0x1,0x64(%ebx)
    28d3:	ba 0a 00 00 00       	mov    $0xa,%edx
    28d8:	e8 93 e9 ff ff       	call   1270 <tcp_conn_state_set>
    28dd:	50                   	push   %eax
    28de:	e9 61 ff ff ff       	jmp    2844 <tcp_conn_segment_arrived+0x6b4>
    28e3:	90                   	nop
    28e4:	8d 74 26 00          	lea    0x0(%esi,%eiz,1),%esi
    28e8:	83 7b 48 01          	cmpl   $0x1,0x48(%ebx)
    28ec:	0f 85 2e ff ff ff    	jne    2820 <tcp_conn_segment_arrived+0x690>
    28f2:	53                   	push   %ebx
    28f3:	68 f2 8a 00 00       	push   $0x8af2
    28f8:	6a 04                	push   $0x4
    28fa:	6a ff                	push   $0xffffffff
    28fc:	e8 cf 7e 00 00       	call   a7d0 <log_msg@plt>
    2901:	8b 7b 60             	mov    0x60(%ebx),%edi
    2904:	8d 43 68             	lea    0x68(%ebx),%eax
    2907:	c7 43 60 00 00 00 00 	movl   $0x0,0x60(%ebx)
    290e:	89 04 24             	mov    %eax,(%esp)
    2911:	e8 7a 7f 00 00       	call   a890 <fibril_condvar_broadcast@plt>
    2916:	8b 43 0c             	mov    0xc(%ebx),%eax
    2919:	83 c4 10             	add    $0x10,%esp
    291c:	85 c0                	test   %eax,%eax
    291e:	0f 84 dd 09 00 00    	je     3301 <tcp_conn_segment_arrived+0x1171>
    2924:	8b 08                	mov    (%eax),%ecx
    2926:	85 c9                	test   %ecx,%ecx
    2928:	0f 84 d3 09 00 00    	je     3301 <tcp_conn_segment_arrived+0x1171>
    292e:	50                   	push   %eax
    292f:	68 a0 86 00 00       	push   $0x86a0
    2934:	6a 04                	push   $0x4
    2936:	6a ff                	push   $0xffffffff
    2938:	e8 93 7e 00 00       	call   a7d0 <log_msg@plt>
    293d:	83 c4 0c             	add    $0xc,%esp
    2940:	8b 43 0c             	mov    0xc(%ebx),%eax
    2943:	8b 53 10             	mov    0x10(%ebx),%edx
    2946:	57                   	push   %edi
    2947:	52                   	push   %edx
    2948:	53                   	push   %ebx
    2949:	ff 10                	call   *(%eax)
    294b:	83 c4 10             	add    $0x10,%esp
    294e:	83 ff 0a             	cmp    $0xa,%edi
    2951:	0f 84 39 03 00 00    	je     2c90 <tcp_conn_segment_arrived+0xb00>
    2957:	51                   	push   %ecx
    2958:	68 50 87 00 00       	push   $0x8750
    295d:	6a 05                	push   $0x5
    295f:	6a ff                	push   $0xffffffff
    2961:	e8 6a 7e 00 00       	call   a7d0 <log_msg@plt>
    2966:	8b 83 90 00 00 00    	mov    0x90(%ebx),%eax
    296c:	5f                   	pop    %edi
    296d:	50                   	push   %eax
    296e:	e8 bd 80 00 00       	call   aa30 <fibril_timer_clear_locked@plt>
    2973:	83 c4 10             	add    $0x10,%esp
    2976:	48                   	dec    %eax
    2977:	0f 84 ed 09 00 00    	je     336a <tcp_conn_segment_arrived+0x11da>
    297d:	50                   	push   %eax
    297e:	68 73 8c 00 00       	push   $0x8c73
    2983:	6a 05                	push   $0x5
    2985:	6a ff                	push   $0xffffffff
    2987:	e8 44 7e 00 00       	call   a7d0 <log_msg@plt>
    298c:	58                   	pop    %eax
    298d:	8b 85 5c ff ff ff    	mov    -0xa4(%ebp),%eax
    2993:	50                   	push   %eax
    2994:	e8 27 3c 00 00       	call   65c0 <tcp_tqueue_clear>
    2999:	83 c4 10             	add    $0x10,%esp
    299c:	e9 bf fa ff ff       	jmp    2460 <tcp_conn_segment_arrived+0x2d0>
    29a1:	8d b4 26 00 00 00 00 	lea    0x0(%esi,%eiz,1),%esi
    29a8:	51                   	push   %ecx
    29a9:	68 a7 02 00 00       	push   $0x2a7
    29ae:	68 09 8b 00 00       	push   $0x8b09
    29b3:	68 d3 8b 00 00       	push   $0x8bd3
    29b8:	e8 73 7e 00 00       	call   a830 <assert_abort@plt>
    29bd:	8d 76 00             	lea    0x0(%esi),%esi
    29c0:	50                   	push   %eax
    29c1:	68 ff 8c 00 00       	push   $0x8cff
    29c6:	6a 04                	push   $0x4
    29c8:	6a ff                	push   $0xffffffff
    29ca:	e8 01 7e 00 00       	call   a7d0 <log_msg@plt>
    29cf:	83 c4 10             	add    $0x10,%esp
    29d2:	e9 8a f9 ff ff       	jmp    2361 <tcp_conn_segment_arrived+0x1d1>
    29d7:	90                   	nop
    29d8:	a8 01                	test   $0x1,%al
    29da:	0f 85 c8 03 00 00    	jne    2da8 <tcp_conn_segment_arrived+0xc18>
    29e0:	51                   	push   %ecx
    29e1:	51                   	push   %ecx
    29e2:	8b 03                	mov    (%ebx),%eax
    29e4:	57                   	push   %edi
    29e5:	53                   	push   %ebx
    29e6:	50                   	push   %eax
    29e7:	68 80 8a 00 00       	push   $0x8a80
    29ec:	6a 04                	push   $0x4
    29ee:	6a ff                	push   $0xffffffff
    29f0:	e8 db 7d 00 00       	call   a7d0 <log_msg@plt>
    29f5:	83 c4 20             	add    $0x20,%esp
    29f8:	f6 07 08             	testb  $0x8,(%edi)
    29fb:	0f 84 e8 04 00 00    	je     2ee9 <tcp_conn_segment_arrived+0xd59>
    2a01:	83 7b 60 0a          	cmpl   $0xa,0x60(%ebx)
    2a05:	0f 87 01 06 00 00    	ja     300c <tcp_conn_segment_arrived+0xe7c>
    2a0b:	8b 43 60             	mov    0x60(%ebx),%eax
    2a0e:	ff 24 85 00 90 00 00 	jmp    *0x9000(,%eax,4)
    2a15:	89 fa                	mov    %edi,%edx
    2a17:	89 d8                	mov    %ebx,%eax
    2a19:	e8 12 e7 ff ff       	call   1130 <tcp_conn_seg_proc_ack_est>
    2a1e:	48                   	dec    %eax
    2a1f:	0f 84 2f fa ff ff    	je     2454 <tcp_conn_segment_arrived+0x2c4>
    2a25:	50                   	push   %eax
    2a26:	50                   	push   %eax
    2a27:	8b 03                	mov    (%ebx),%eax
    2a29:	57                   	push   %edi
    2a2a:	53                   	push   %ebx
    2a2b:	50                   	push   %eax
    2a2c:	68 a8 89 00 00       	push   $0x89a8
    2a31:	6a 04                	push   $0x4
    2a33:	6a ff                	push   $0xffffffff
    2a35:	e8 96 7d 00 00       	call   a7d0 <log_msg@plt>
    2a3a:	83 c4 20             	add    $0x20,%esp
    2a3d:	83 7b 60 0a          	cmpl   $0xa,0x60(%ebx)
    2a41:	0f 87 c5 00 00 00    	ja     2b0c <tcp_conn_segment_arrived+0x97c>
    2a47:	8b 43 60             	mov    0x60(%ebx),%eax
    2a4a:	ff 24 85 2c 90 00 00 	jmp    *0x902c(,%eax,4)
    2a51:	8d 85 7c ff ff ff    	lea    -0x84(%ebp),%eax
    2a57:	50                   	push   %eax
    2a58:	8d 85 78 ff ff ff    	lea    -0x88(%ebp),%eax
    2a5e:	50                   	push   %eax
    2a5f:	57                   	push   %edi
    2a60:	53                   	push   %ebx
    2a61:	e8 1a 33 00 00       	call   5d80 <seq_no_seg_trim_calc>
    2a66:	83 c4 0c             	add    $0xc,%esp
    2a69:	8b 85 7c ff ff ff    	mov    -0x84(%ebp),%eax
    2a6f:	50                   	push   %eax
    2a70:	8b 85 78 ff ff ff    	mov    -0x88(%ebp),%eax
    2a76:	50                   	push   %eax
    2a77:	57                   	push   %edi
    2a78:	e8 73 1a 00 00       	call   44f0 <tcp_segment_trim>
    2a7d:	83 c4 10             	add    $0x10,%esp
    2a80:	50                   	push   %eax
    2a81:	50                   	push   %eax
    2a82:	8b 13                	mov    (%ebx),%edx
    2a84:	57                   	push   %edi
    2a85:	53                   	push   %ebx
    2a86:	52                   	push   %edx
    2a87:	68 a4 8a 00 00       	push   $0x8aa4
    2a8c:	6a 04                	push   $0x4
    2a8e:	6a ff                	push   $0xffffffff
    2a90:	e8 3b 7d 00 00       	call   a7d0 <log_msg@plt>
    2a95:	83 c4 14             	add    $0x14,%esp
    2a98:	8b 0f                	mov    (%edi),%ecx
    2a9a:	8b 47 0c             	mov    0xc(%edi),%eax
    2a9d:	51                   	push   %ecx
    2a9e:	50                   	push   %eax
    2a9f:	68 5f 8f 00 00       	push   $0x8f5f
    2aa4:	6a 04                	push   $0x4
    2aa6:	6a ff                	push   $0xffffffff
    2aa8:	e8 23 7d 00 00       	call   a7d0 <log_msg@plt>
    2aad:	83 c4 14             	add    $0x14,%esp
    2ab0:	57                   	push   %edi
    2ab1:	e8 ca 1b 00 00       	call   4680 <tcp_segment_text_size>
    2ab6:	83 c4 10             	add    $0x10,%esp
    2ab9:	85 c0                	test   %eax,%eax
    2abb:	75 09                	jne    2ac6 <tcp_conn_segment_arrived+0x936>
    2abd:	f6 07 02             	testb  $0x2,(%edi)
    2ac0:	0f 85 80 05 00 00    	jne    3046 <tcp_conn_segment_arrived+0xeb6>
    2ac6:	8b 47 0c             	mov    0xc(%edi),%eax
    2ac9:	85 c0                	test   %eax,%eax
    2acb:	0f 85 50 05 00 00    	jne    3021 <tcp_conn_segment_arrived+0xe91>
    2ad1:	83 ec 0c             	sub    $0xc,%esp
    2ad4:	57                   	push   %edi
    2ad5:	e8 56 18 00 00       	call   4330 <tcp_segment_delete>
    2ada:	83 c4 10             	add    $0x10,%esp
    2add:	e9 72 f9 ff ff       	jmp    2454 <tcp_conn_segment_arrived+0x2c4>
    2ae2:	51                   	push   %ecx
    2ae3:	68 e0 03 00 00       	push   $0x3e0
    2ae8:	68 09 8b 00 00       	push   $0x8b09
    2aed:	68 d3 8b 00 00       	push   $0x8bd3
    2af2:	e8 39 7d 00 00       	call   a830 <assert_abort@plt>
    2af7:	89 fa                	mov    %edi,%edx
    2af9:	89 d8                	mov    %ebx,%eax
    2afb:	e8 30 e6 ff ff       	call   1130 <tcp_conn_seg_proc_ack_est>
    2b00:	48                   	dec    %eax
    2b01:	0f 85 1e ff ff ff    	jne    2a25 <tcp_conn_segment_arrived+0x895>
    2b07:	e9 48 f9 ff ff       	jmp    2454 <tcp_conn_segment_arrived+0x2c4>
    2b0c:	52                   	push   %edx
    2b0d:	52                   	push   %edx
    2b0e:	57                   	push   %edi
    2b0f:	53                   	push   %ebx
    2b10:	e8 db 2f 00 00       	call   5af0 <seq_no_segment_ready>
    2b15:	83 c4 10             	add    $0x10,%esp
    2b18:	84 c0                	test   %al,%al
    2b1a:	0f 84 71 09 00 00    	je     3491 <tcp_conn_segment_arrived+0x1301>
    2b20:	8d 85 7c ff ff ff    	lea    -0x84(%ebp),%eax
    2b26:	50                   	push   %eax
    2b27:	8d 85 78 ff ff ff    	lea    -0x88(%ebp),%eax
    2b2d:	50                   	push   %eax
    2b2e:	57                   	push   %edi
    2b2f:	53                   	push   %ebx
    2b30:	e8 4b 32 00 00       	call   5d80 <seq_no_seg_trim_calc>
    2b35:	83 c4 0c             	add    $0xc,%esp
    2b38:	8b 85 7c ff ff ff    	mov    -0x84(%ebp),%eax
    2b3e:	50                   	push   %eax
    2b3f:	8b 85 78 ff ff ff    	mov    -0x88(%ebp),%eax
    2b45:	50                   	push   %eax
    2b46:	57                   	push   %edi
    2b47:	e8 a4 19 00 00       	call   44f0 <tcp_segment_trim>
    2b4c:	89 3c 24             	mov    %edi,(%esp)
    2b4f:	e8 2c 1b 00 00       	call   4680 <tcp_segment_text_size>
    2b54:	8b 8b 9c 00 00 00    	mov    0x9c(%ebx),%ecx
    2b5a:	8b 93 98 00 00 00    	mov    0x98(%ebx),%edx
    2b60:	83 c4 10             	add    $0x10,%esp
    2b63:	29 ca                	sub    %ecx,%edx
    2b65:	39 c2                	cmp    %eax,%edx
    2b67:	76 02                	jbe    2b6b <tcp_conn_segment_arrived+0x9db>
    2b69:	89 c2                	mov    %eax,%edx
    2b6b:	50                   	push   %eax
    2b6c:	89 95 60 ff ff ff    	mov    %edx,-0xa0(%ebp)
    2b72:	8b 83 94 00 00 00    	mov    0x94(%ebx),%eax
    2b78:	52                   	push   %edx
    2b79:	01 c1                	add    %eax,%ecx
    2b7b:	51                   	push   %ecx
    2b7c:	57                   	push   %edi
    2b7d:	e8 9e 1a 00 00       	call   4620 <tcp_segment_text_copy>
    2b82:	8b 95 60 ff ff ff    	mov    -0xa0(%ebp),%edx
    2b88:	8b 83 9c 00 00 00    	mov    0x9c(%ebx),%eax
    2b8e:	83 c4 10             	add    $0x10,%esp
    2b91:	01 d0                	add    %edx,%eax
    2b93:	85 d2                	test   %edx,%edx
    2b95:	89 83 9c 00 00 00    	mov    %eax,0x9c(%ebx)
    2b9b:	0f 85 d9 06 00 00    	jne    327a <tcp_conn_segment_arrived+0x10ea>
    2ba1:	6a 00                	push   $0x0
    2ba3:	68 43 8f 00 00       	push   $0x8f43
    2ba8:	6a 04                	push   $0x4
    2baa:	6a ff                	push   $0xffffffff
    2bac:	89 95 60 ff ff ff    	mov    %edx,-0xa0(%ebp)
    2bb2:	e8 19 7c 00 00       	call   a7d0 <log_msg@plt>
    2bb7:	83 c4 10             	add    $0x10,%esp
    2bba:	8b 95 60 ff ff ff    	mov    -0xa0(%ebp),%edx
    2bc0:	8b 47 0c             	mov    0xc(%edi),%eax
    2bc3:	39 c2                	cmp    %eax,%edx
    2bc5:	0f 82 86 fe ff ff    	jb     2a51 <tcp_conn_segment_arrived+0x8c1>
    2bcb:	51                   	push   %ecx
    2bcc:	8b 0f                	mov    (%edi),%ecx
    2bce:	51                   	push   %ecx
    2bcf:	50                   	push   %eax
    2bd0:	8b 03                	mov    (%ebx),%eax
    2bd2:	52                   	push   %edx
    2bd3:	50                   	push   %eax
    2bd4:	68 ec 89 00 00       	push   $0x89ec
    2bd9:	6a 04                	push   $0x4
    2bdb:	6a ff                	push   $0xffffffff
    2bdd:	e8 ee 7b 00 00       	call   a7d0 <log_msg@plt>
    2be2:	83 c4 14             	add    $0x14,%esp
    2be5:	57                   	push   %edi
    2be6:	e8 45 17 00 00       	call   4330 <tcp_segment_delete>
    2beb:	83 c4 10             	add    $0x10,%esp
    2bee:	e9 61 f8 ff ff       	jmp    2454 <tcp_conn_segment_arrived+0x2c4>
    2bf3:	89 fa                	mov    %edi,%edx
    2bf5:	89 d8                	mov    %ebx,%eax
    2bf7:	e8 34 e5 ff ff       	call   1130 <tcp_conn_seg_proc_ack_est>
    2bfc:	48                   	dec    %eax
    2bfd:	0f 84 51 f8 ff ff    	je     2454 <tcp_conn_segment_arrived+0x2c4>
    2c03:	80 7b 70 00          	cmpb   $0x0,0x70(%ebx)
    2c07:	0f 84 18 fe ff ff    	je     2a25 <tcp_conn_segment_arrived+0x895>
    2c0d:	ff 33                	pushl  (%ebx)
    2c0f:	68 82 8e 00 00       	push   $0x8e82
    2c14:	6a 04                	push   $0x4
    2c16:	6a ff                	push   $0xffffffff
    2c18:	e8 b3 7b 00 00       	call   a7d0 <log_msg@plt>
    2c1d:	53                   	push   %ebx
    2c1e:	68 f2 8a 00 00       	push   $0x8af2
    2c23:	6a 04                	push   $0x4
    2c25:	6a ff                	push   $0xffffffff
    2c27:	e8 a4 7b 00 00       	call   a7d0 <log_msg@plt>
    2c2c:	8b 43 60             	mov    0x60(%ebx),%eax
    2c2f:	83 c4 14             	add    $0x14,%esp
    2c32:	89 85 60 ff ff ff    	mov    %eax,-0xa0(%ebp)
    2c38:	c7 43 60 05 00 00 00 	movl   $0x5,0x60(%ebx)
    2c3f:	8d 43 68             	lea    0x68(%ebx),%eax
    2c42:	50                   	push   %eax
    2c43:	e8 48 7c 00 00       	call   a890 <fibril_condvar_broadcast@plt>
    2c48:	8b 43 0c             	mov    0xc(%ebx),%eax
    2c4b:	83 c4 10             	add    $0x10,%esp
    2c4e:	85 c0                	test   %eax,%eax
    2c50:	0f 84 cc 07 00 00    	je     3422 <tcp_conn_segment_arrived+0x1292>
    2c56:	83 38 00             	cmpl   $0x0,(%eax)
    2c59:	0f 84 c3 07 00 00    	je     3422 <tcp_conn_segment_arrived+0x1292>
    2c5f:	50                   	push   %eax
    2c60:	68 a0 86 00 00       	push   $0x86a0
    2c65:	6a 04                	push   $0x4
    2c67:	6a ff                	push   $0xffffffff
    2c69:	e8 62 7b 00 00       	call   a7d0 <log_msg@plt>
    2c6e:	83 c4 0c             	add    $0xc,%esp
    2c71:	8b 43 0c             	mov    0xc(%ebx),%eax
    2c74:	ff b5 60 ff ff ff    	pushl  -0xa0(%ebp)
    2c7a:	ff 73 10             	pushl  0x10(%ebx)
    2c7d:	53                   	push   %ebx
    2c7e:	ff 10                	call   *(%eax)
    2c80:	83 c4 10             	add    $0x10,%esp
    2c83:	83 bd 60 ff ff ff 0a 	cmpl   $0xa,-0xa0(%ebp)
    2c8a:	0f 85 95 fd ff ff    	jne    2a25 <tcp_conn_segment_arrived+0x895>
    2c90:	52                   	push   %edx
    2c91:	68 42 01 00 00       	push   $0x142
    2c96:	68 09 8b 00 00       	push   $0x8b09
    2c9b:	68 10 8b 00 00       	push   $0x8b10
    2ca0:	e8 8b 7b 00 00       	call   a830 <assert_abort@plt>
    2ca5:	8d 76 00             	lea    0x0(%esi),%esi
    2ca8:	50                   	push   %eax
    2ca9:	68 af 03 00 00       	push   $0x3af
    2cae:	68 09 8b 00 00       	push   $0x8b09
    2cb3:	68 d3 8b 00 00       	push   $0x8bd3
    2cb8:	e8 73 7b 00 00       	call   a830 <assert_abort@plt>
    2cbd:	89 fa                	mov    %edi,%edx
    2cbf:	89 d8                	mov    %ebx,%eax
    2cc1:	e8 6a e4 ff ff       	call   1130 <tcp_conn_seg_proc_ack_est>
    2cc6:	48                   	dec    %eax
    2cc7:	0f 84 87 f7 ff ff    	je     2454 <tcp_conn_segment_arrived+0x2c4>
    2ccd:	80 7b 70 00          	cmpb   $0x0,0x70(%ebx)
    2cd1:	0f 84 4e fd ff ff    	je     2a25 <tcp_conn_segment_arrived+0x895>
    2cd7:	ff 33                	pushl  (%ebx)
    2cd9:	68 9e 8e 00 00       	push   $0x8e9e
    2cde:	6a 04                	push   $0x4
    2ce0:	6a ff                	push   $0xffffffff
    2ce2:	e8 e9 7a 00 00       	call   a7d0 <log_msg@plt>
    2ce7:	ba 0a 00 00 00       	mov    $0xa,%edx
    2cec:	89 d8                	mov    %ebx,%eax
    2cee:	e8 7d e5 ff ff       	call   1270 <tcp_conn_state_set>
    2cf3:	83 c4 10             	add    $0x10,%esp
    2cf6:	e9 59 f7 ff ff       	jmp    2454 <tcp_conn_segment_arrived+0x2c4>
    2cfb:	50                   	push   %eax
    2cfc:	50                   	push   %eax
    2cfd:	8b 47 08             	mov    0x8(%edi),%eax
    2d00:	50                   	push   %eax
    2d01:	53                   	push   %ebx
    2d02:	e8 d9 2b 00 00       	call   58e0 <seq_no_ack_acceptable>
    2d07:	83 c4 10             	add    $0x10,%esp
    2d0a:	84 c0                	test   %al,%al
    2d0c:	0f 84 06 06 00 00    	je     3318 <tcp_conn_segment_arrived+0x1188>
    2d12:	8b 03                	mov    (%ebx),%eax
    2d14:	50                   	push   %eax
    2d15:	68 65 8e 00 00       	push   $0x8e65
    2d1a:	6a 04                	push   $0x4
    2d1c:	6a ff                	push   $0xffffffff
    2d1e:	e8 ad 7a 00 00       	call   a7d0 <log_msg@plt>
    2d23:	53                   	push   %ebx
    2d24:	68 f2 8a 00 00       	push   $0x8af2
    2d29:	6a 04                	push   $0x4
    2d2b:	6a ff                	push   $0xffffffff
    2d2d:	e8 9e 7a 00 00       	call   a7d0 <log_msg@plt>
    2d32:	8b 43 60             	mov    0x60(%ebx),%eax
    2d35:	83 c4 14             	add    $0x14,%esp
    2d38:	89 85 60 ff ff ff    	mov    %eax,-0xa0(%ebp)
    2d3e:	c7 43 60 03 00 00 00 	movl   $0x3,0x60(%ebx)
    2d45:	8d 43 68             	lea    0x68(%ebx),%eax
    2d48:	50                   	push   %eax
    2d49:	e8 42 7b 00 00       	call   a890 <fibril_condvar_broadcast@plt>
    2d4e:	8b 43 0c             	mov    0xc(%ebx),%eax
    2d51:	83 c4 10             	add    $0x10,%esp
    2d54:	85 c0                	test   %eax,%eax
    2d56:	0f 84 af 06 00 00    	je     340b <tcp_conn_segment_arrived+0x127b>
    2d5c:	8b 00                	mov    (%eax),%eax
    2d5e:	85 c0                	test   %eax,%eax
    2d60:	0f 84 a5 06 00 00    	je     340b <tcp_conn_segment_arrived+0x127b>
    2d66:	51                   	push   %ecx
    2d67:	68 a0 86 00 00       	push   $0x86a0
    2d6c:	6a 04                	push   $0x4
    2d6e:	6a ff                	push   $0xffffffff
    2d70:	e8 5b 7a 00 00       	call   a7d0 <log_msg@plt>
    2d75:	83 c4 0c             	add    $0xc,%esp
    2d78:	8b 43 0c             	mov    0xc(%ebx),%eax
    2d7b:	8b 4b 10             	mov    0x10(%ebx),%ecx
    2d7e:	8b 95 60 ff ff ff    	mov    -0xa0(%ebp),%edx
    2d84:	52                   	push   %edx
    2d85:	51                   	push   %ecx
    2d86:	53                   	push   %ebx
    2d87:	ff 10                	call   *(%eax)
    2d89:	83 c4 10             	add    $0x10,%esp
    2d8c:	83 bd 60 ff ff ff 0a 	cmpl   $0xa,-0xa0(%ebp)
    2d93:	0f 84 f7 fe ff ff    	je     2c90 <tcp_conn_segment_arrived+0xb00>
    2d99:	8b 47 08             	mov    0x8(%edi),%eax
    2d9c:	89 83 c4 00 00 00    	mov    %eax,0xc4(%ebx)
    2da2:	e9 7e fc ff ff       	jmp    2a25 <tcp_conn_segment_arrived+0x895>
    2da7:	90                   	nop
    2da8:	50                   	push   %eax
    2da9:	50                   	push   %eax
    2daa:	8b 57 04             	mov    0x4(%edi),%edx
    2dad:	52                   	push   %edx
    2dae:	53                   	push   %ebx
    2daf:	e8 8c 2b 00 00       	call   5940 <seq_no_in_rcv_wnd>
    2db4:	83 c4 10             	add    $0x10,%esp
    2db7:	84 c0                	test   %al,%al
    2db9:	0f 84 29 07 00 00    	je     34e8 <tcp_conn_segment_arrived+0x1358>
    2dbf:	50                   	push   %eax
    2dc0:	68 48 89 00 00       	push   $0x8948
    2dc5:	6a 02                	push   $0x2
    2dc7:	6a ff                	push   $0xffffffff
    2dc9:	e8 02 7a 00 00       	call   a7d0 <log_msg@plt>
    2dce:	83 c4 10             	add    $0x10,%esp
    2dd1:	e9 7e f6 ff ff       	jmp    2454 <tcp_conn_segment_arrived+0x2c4>
    2dd6:	66 90                	xchg   %ax,%ax
    2dd8:	50                   	push   %eax
    2dd9:	68 1c 88 00 00       	push   $0x881c
    2dde:	6a 04                	push   $0x4
    2de0:	6a ff                	push   $0xffffffff
    2de2:	e8 e9 79 00 00       	call   a7d0 <log_msg@plt>
    2de7:	83 c4 10             	add    $0x10,%esp
    2dea:	e9 72 f5 ff ff       	jmp    2361 <tcp_conn_segment_arrived+0x1d1>
    2def:	90                   	nop
    2df0:	8b 03                	mov    (%ebx),%eax
    2df2:	50                   	push   %eax
    2df3:	68 93 8d 00 00       	push   $0x8d93
    2df8:	6a 04                	push   $0x4
    2dfa:	6a ff                	push   $0xffffffff
    2dfc:	e8 cf 79 00 00       	call   a7d0 <log_msg@plt>
    2e01:	83 c4 10             	add    $0x10,%esp
    2e04:	e9 58 f5 ff ff       	jmp    2361 <tcp_conn_segment_arrived+0x1d1>
    2e09:	8b 33                	mov    (%ebx),%esi
    2e0b:	56                   	push   %esi
    2e0c:	68 d8 88 00 00       	push   $0x88d8
    2e11:	6a 04                	push   $0x4
    2e13:	6a ff                	push   $0xffffffff
    2e15:	e8 b6 79 00 00       	call   a7d0 <log_msg@plt>
    2e1a:	53                   	push   %ebx
    2e1b:	68 f2 8a 00 00       	push   $0x8af2
    2e20:	6a 04                	push   $0x4
    2e22:	6a ff                	push   $0xffffffff
    2e24:	e8 a7 79 00 00       	call   a7d0 <log_msg@plt>
    2e29:	83 c4 14             	add    $0x14,%esp
    2e2c:	8b 73 60             	mov    0x60(%ebx),%esi
    2e2f:	8d 43 68             	lea    0x68(%ebx),%eax
    2e32:	c7 43 60 02 00 00 00 	movl   $0x2,0x60(%ebx)
    2e39:	50                   	push   %eax
    2e3a:	e8 51 7a 00 00       	call   a890 <fibril_condvar_broadcast@plt>
    2e3f:	8b 43 0c             	mov    0xc(%ebx),%eax
    2e42:	83 c4 10             	add    $0x10,%esp
    2e45:	85 c0                	test   %eax,%eax
    2e47:	0f 84 a8 01 00 00    	je     2ff5 <tcp_conn_segment_arrived+0xe65>
    2e4d:	8b 08                	mov    (%eax),%ecx
    2e4f:	85 c9                	test   %ecx,%ecx
    2e51:	0f 84 9e 01 00 00    	je     2ff5 <tcp_conn_segment_arrived+0xe65>
    2e57:	50                   	push   %eax
    2e58:	68 a0 86 00 00       	push   $0x86a0
    2e5d:	6a 04                	push   $0x4
    2e5f:	6a ff                	push   $0xffffffff
    2e61:	e8 6a 79 00 00       	call   a7d0 <log_msg@plt>
    2e66:	83 c4 0c             	add    $0xc,%esp
    2e69:	8b 43 0c             	mov    0xc(%ebx),%eax
    2e6c:	8b 53 10             	mov    0x10(%ebx),%edx
    2e6f:	56                   	push   %esi
    2e70:	52                   	push   %edx
    2e71:	53                   	push   %ebx
    2e72:	ff 10                	call   *(%eax)
    2e74:	83 c4 10             	add    $0x10,%esp
    2e77:	83 fe 0a             	cmp    $0xa,%esi
    2e7a:	0f 84 10 fe ff ff    	je     2c90 <tcp_conn_segment_arrived+0xb00>
    2e80:	50                   	push   %eax
    2e81:	50                   	push   %eax
    2e82:	6a 09                	push   $0x9
    2e84:	53                   	push   %ebx
    2e85:	e8 06 3a 00 00       	call   6890 <tcp_tqueue_ctrl_seg>
    2e8a:	83 c4 10             	add    $0x10,%esp
    2e8d:	e9 5d f7 ff ff       	jmp    25ef <tcp_conn_segment_arrived+0x45f>
    2e92:	50                   	push   %eax
    2e93:	68 f8 87 00 00       	push   $0x87f8
    2e98:	6a 04                	push   $0x4
    2e9a:	e9 45 f9 ff ff       	jmp    27e4 <tcp_conn_segment_arrived+0x654>
    2e9f:	8b 00                	mov    (%eax),%eax
    2ea1:	a8 04                	test   $0x4,%al
    2ea3:	0f 84 fd 05 00 00    	je     34a6 <tcp_conn_segment_arrived+0x1316>
    2ea9:	a8 08                	test   $0x8,%al
    2eab:	0f 84 3f ff ff ff    	je     2df0 <tcp_conn_segment_arrived+0xc60>
    2eb1:	8b 03                	mov    (%ebx),%eax
    2eb3:	50                   	push   %eax
    2eb4:	68 8c 88 00 00       	push   $0x888c
    2eb9:	6a 04                	push   $0x4
    2ebb:	6a ff                	push   $0xffffffff
    2ebd:	e8 0e 79 00 00       	call   a7d0 <log_msg@plt>
    2ec2:	89 1c 24             	mov    %ebx,(%esp)
    2ec5:	e8 26 f1 ff ff       	call   1ff0 <tcp_conn_reset>
    2eca:	83 c4 10             	add    $0x10,%esp
    2ecd:	e9 8f f4 ff ff       	jmp    2361 <tcp_conn_segment_arrived+0x1d1>
    2ed2:	51                   	push   %ecx
    2ed3:	68 c4 86 00 00       	push   $0x86c4
    2ed8:	6a 04                	push   $0x4
    2eda:	6a ff                	push   $0xffffffff
    2edc:	e8 ef 78 00 00       	call   a7d0 <log_msg@plt>
    2ee1:	83 c4 10             	add    $0x10,%esp
    2ee4:	e9 3e f8 ff ff       	jmp    2727 <tcp_conn_segment_arrived+0x597>
    2ee9:	50                   	push   %eax
    2eea:	68 47 8e 00 00       	push   $0x8e47
    2eef:	6a 02                	push   $0x2
    2ef1:	6a ff                	push   $0xffffffff
    2ef3:	e8 d8 78 00 00       	call   a7d0 <log_msg@plt>
    2ef8:	89 3c 24             	mov    %edi,(%esp)
    2efb:	e8 30 14 00 00       	call   4330 <tcp_segment_delete>
    2f00:	83 c4 10             	add    $0x10,%esp
    2f03:	e9 4c f5 ff ff       	jmp    2454 <tcp_conn_segment_arrived+0x2c4>
    2f08:	8b 43 5c             	mov    0x5c(%ebx),%eax
    2f0b:	52                   	push   %edx
    2f0c:	52                   	push   %edx
    2f0d:	50                   	push   %eax
    2f0e:	8b 0b                	mov    (%ebx),%ecx
    2f10:	53                   	push   %ebx
    2f11:	51                   	push   %ecx
    2f12:	68 e8 86 00 00       	push   $0x86e8
    2f17:	6a 05                	push   $0x5
    2f19:	6a ff                	push   $0xffffffff
    2f1b:	e8 b0 78 00 00       	call   a7d0 <log_msg@plt>
    2f20:	83 c8 ff             	or     $0xffffffff,%eax
    2f23:	f0 0f c1 43 5c       	lock xadd %eax,0x5c(%ebx)
    2f28:	83 c4 20             	add    $0x20,%esp
    2f2b:	48                   	dec    %eax
    2f2c:	0f 85 37 f9 ff ff    	jne    2869 <tcp_conn_segment_arrived+0x6d9>
    2f32:	83 ec 0c             	sub    $0xc,%esp
    2f35:	8b 0b                	mov    (%ebx),%ecx
    2f37:	53                   	push   %ebx
    2f38:	51                   	push   %ecx
    2f39:	68 27 8b 00 00       	push   $0x8b27
    2f3e:	6a 04                	push   $0x4
    2f40:	6a ff                	push   $0xffffffff
    2f42:	e8 89 78 00 00       	call   a7d0 <log_msg@plt>
    2f47:	83 c4 14             	add    $0x14,%esp
    2f4a:	8b bd 5c ff ff ff    	mov    -0xa4(%ebp),%edi
    2f50:	57                   	push   %edi
    2f51:	e8 ca 36 00 00       	call   6620 <tcp_tqueue_fini>
    2f56:	8b 83 94 00 00 00    	mov    0x94(%ebx),%eax
    2f5c:	83 c4 10             	add    $0x10,%esp
    2f5f:	85 c0                	test   %eax,%eax
    2f61:	74 0c                	je     2f6f <tcp_conn_segment_arrived+0xddf>
    2f63:	83 ec 0c             	sub    $0xc,%esp
    2f66:	50                   	push   %eax
    2f67:	e8 e4 7a 00 00       	call   aa50 <free@plt>
    2f6c:	83 c4 10             	add    $0x10,%esp
    2f6f:	8b 83 ac 00 00 00    	mov    0xac(%ebx),%eax
    2f75:	85 c0                	test   %eax,%eax
    2f77:	74 0c                	je     2f85 <tcp_conn_segment_arrived+0xdf5>
    2f79:	83 ec 0c             	sub    $0xc,%esp
    2f7c:	50                   	push   %eax
    2f7d:	e8 ce 7a 00 00       	call   aa50 <free@plt>
    2f82:	83 c4 10             	add    $0x10,%esp
    2f85:	8b 83 90 00 00 00    	mov    0x90(%ebx),%eax
    2f8b:	85 c0                	test   %eax,%eax
    2f8d:	74 0c                	je     2f9b <tcp_conn_segment_arrived+0xe0b>
    2f8f:	83 ec 0c             	sub    $0xc,%esp
    2f92:	50                   	push   %eax
    2f93:	e8 78 78 00 00       	call   a810 <fibril_timer_destroy@plt>
    2f98:	83 c4 10             	add    $0x10,%esp
    2f9b:	83 ec 0c             	sub    $0xc,%esp
    2f9e:	53                   	push   %ebx
    2f9f:	e8 ac 7a 00 00       	call   aa50 <free@plt>
    2fa4:	83 c4 10             	add    $0x10,%esp
    2fa7:	e9 bd f8 ff ff       	jmp    2869 <tcp_conn_segment_arrived+0x6d9>
    2fac:	8d 74 26 00          	lea    0x0(%esi,%eiz,1),%esi
    2fb0:	57                   	push   %edi
    2fb1:	68 ad 8d 00 00       	push   $0x8dad
    2fb6:	6a 04                	push   $0x4
    2fb8:	6a ff                	push   $0xffffffff
    2fba:	e8 11 78 00 00       	call   a7d0 <log_msg@plt>
    2fbf:	83 c4 10             	add    $0x10,%esp
    2fc2:	e9 9a f3 ff ff       	jmp    2361 <tcp_conn_segment_arrived+0x1d1>
    2fc7:	50                   	push   %eax
    2fc8:	68 76 8d 00 00       	push   $0x8d76
    2fcd:	6a 02                	push   $0x2
    2fcf:	6a ff                	push   $0xffffffff
    2fd1:	e8 fa 77 00 00       	call   a7d0 <log_msg@plt>
    2fd6:	83 c4 10             	add    $0x10,%esp
    2fd9:	e9 83 f3 ff ff       	jmp    2361 <tcp_conn_segment_arrived+0x1d1>
    2fde:	50                   	push   %eax
    2fdf:	68 c4 86 00 00       	push   $0x86c4
    2fe4:	6a 04                	push   $0x4
    2fe6:	6a ff                	push   $0xffffffff
    2fe8:	e8 e3 77 00 00       	call   a7d0 <log_msg@plt>
    2fed:	83 c4 10             	add    $0x10,%esp
    2ff0:	e9 e4 f5 ff ff       	jmp    25d9 <tcp_conn_segment_arrived+0x449>
    2ff5:	50                   	push   %eax
    2ff6:	68 c4 86 00 00       	push   $0x86c4
    2ffb:	6a 04                	push   $0x4
    2ffd:	6a ff                	push   $0xffffffff
    2fff:	e8 cc 77 00 00       	call   a7d0 <log_msg@plt>
    3004:	83 c4 10             	add    $0x10,%esp
    3007:	e9 6b fe ff ff       	jmp    2e77 <tcp_conn_segment_arrived+0xce7>
    300c:	50                   	push   %eax
    300d:	68 b2 03 00 00       	push   $0x3b2
    3012:	68 09 8b 00 00       	push   $0x8b09
    3017:	68 d3 8b 00 00       	push   $0x8bd3
    301c:	e8 0f 78 00 00       	call   a830 <assert_abort@plt>
    3021:	83 ec 0c             	sub    $0xc,%esp
    3024:	50                   	push   %eax
    3025:	57                   	push   %edi
    3026:	68 5c 8a 00 00       	push   $0x8a5c
    302b:	6a 04                	push   $0x4
    302d:	6a ff                	push   $0xffffffff
    302f:	e8 9c 77 00 00       	call   a7d0 <log_msg@plt>
    3034:	83 c4 18             	add    $0x18,%esp
    3037:	57                   	push   %edi
    3038:	56                   	push   %esi
    3039:	e8 f2 05 00 00       	call   3630 <tcp_iqueue_insert_seg>
    303e:	83 c4 10             	add    $0x10,%esp
    3041:	e9 0e f4 ff ff       	jmp    2454 <tcp_conn_segment_arrived+0x2c4>
    3046:	50                   	push   %eax
    3047:	68 b6 8e 00 00       	push   $0x8eb6
    304c:	6a 04                	push   $0x4
    304e:	6a ff                	push   $0xffffffff
    3050:	e8 7b 77 00 00       	call   a7d0 <log_msg@plt>
    3055:	5a                   	pop    %edx
    3056:	59                   	pop    %ecx
    3057:	6a 08                	push   $0x8
    3059:	53                   	push   %ebx
    305a:	e8 31 38 00 00       	call   6890 <tcp_tqueue_ctrl_seg>
    305f:	8b 83 e0 00 00 00    	mov    0xe0(%ebx),%eax
    3065:	83 c4 10             	add    $0x10,%esp
    3068:	40                   	inc    %eax
    3069:	89 83 e0 00 00 00    	mov    %eax,0xe0(%ebx)
    306f:	8b 83 e4 00 00 00    	mov    0xe4(%ebx),%eax
    3075:	48                   	dec    %eax
    3076:	89 83 e4 00 00 00    	mov    %eax,0xe4(%ebx)
    307c:	83 7b 60 0a          	cmpl   $0xa,0x60(%ebx)
    3080:	0f 87 e4 00 00 00    	ja     316a <tcp_conn_segment_arrived+0xfda>
    3086:	8b 43 60             	mov    0x60(%ebx),%eax
    3089:	ff 24 85 58 90 00 00 	jmp    *0x9058(,%eax,4)
    3090:	ff 33                	pushl  (%ebx)
    3092:	68 eb 8e 00 00       	push   $0x8eeb
    3097:	6a 04                	push   $0x4
    3099:	6a ff                	push   $0xffffffff
    309b:	e8 30 77 00 00       	call   a7d0 <log_msg@plt>
    30a0:	53                   	push   %ebx
    30a1:	68 f2 8a 00 00       	push   $0x8af2
    30a6:	6a 04                	push   $0x4
    30a8:	6a ff                	push   $0xffffffff
    30aa:	e8 21 77 00 00       	call   a7d0 <log_msg@plt>
    30af:	8b 43 60             	mov    0x60(%ebx),%eax
    30b2:	83 c4 14             	add    $0x14,%esp
    30b5:	89 85 60 ff ff ff    	mov    %eax,-0xa0(%ebp)
    30bb:	c7 43 60 09 00 00 00 	movl   $0x9,0x60(%ebx)
    30c2:	8d 43 68             	lea    0x68(%ebx),%eax
    30c5:	50                   	push   %eax
    30c6:	e8 c5 77 00 00       	call   a890 <fibril_condvar_broadcast@plt>
    30cb:	8b 43 0c             	mov    0xc(%ebx),%eax
    30ce:	83 c4 10             	add    $0x10,%esp
    30d1:	85 c0                	test   %eax,%eax
    30d3:	0f 84 a1 03 00 00    	je     347a <tcp_conn_segment_arrived+0x12ea>
    30d9:	83 38 00             	cmpl   $0x0,(%eax)
    30dc:	0f 84 98 03 00 00    	je     347a <tcp_conn_segment_arrived+0x12ea>
    30e2:	50                   	push   %eax
    30e3:	68 a0 86 00 00       	push   $0x86a0
    30e8:	6a 04                	push   $0x4
    30ea:	6a ff                	push   $0xffffffff
    30ec:	e8 df 76 00 00       	call   a7d0 <log_msg@plt>
    30f1:	83 c4 0c             	add    $0xc,%esp
    30f4:	8b 43 0c             	mov    0xc(%ebx),%eax
    30f7:	ff b5 60 ff ff ff    	pushl  -0xa0(%ebp)
    30fd:	ff 73 10             	pushl  0x10(%ebx)
    3100:	53                   	push   %ebx
    3101:	ff 10                	call   *(%eax)
    3103:	83 c4 10             	add    $0x10,%esp
    3106:	83 bd 60 ff ff ff 0a 	cmpl   $0xa,-0xa0(%ebp)
    310d:	0f 84 7d fb ff ff    	je     2c90 <tcp_conn_segment_arrived+0xb00>
    3113:	51                   	push   %ecx
    3114:	68 09 8f 00 00       	push   $0x8f09
    3119:	6a 05                	push   $0x5
    311b:	6a ff                	push   $0xffffffff
    311d:	e8 ae 76 00 00       	call   a7d0 <log_msg@plt>
    3122:	8b 43 5c             	mov    0x5c(%ebx),%eax
    3125:	5a                   	pop    %edx
    3126:	59                   	pop    %ecx
    3127:	50                   	push   %eax
    3128:	53                   	push   %ebx
    3129:	ff 33                	pushl  (%ebx)
    312b:	68 0c 87 00 00       	push   $0x870c
    3130:	6a 05                	push   $0x5
    3132:	6a ff                	push   $0xffffffff
    3134:	e8 97 76 00 00       	call   a7d0 <log_msg@plt>
    3139:	f0 ff 43 5c          	lock incl 0x5c(%ebx)
    313d:	83 c4 20             	add    $0x20,%esp
    3140:	53                   	push   %ebx
    3141:	68 b0 14 00 00       	push   $0x14b0
    3146:	68 80 c3 c9 01       	push   $0x1c9c380
    314b:	ff b3 90 00 00 00    	pushl  0x90(%ebx)
    3151:	e8 9a 76 00 00       	call   a7f0 <fibril_timer_set_locked@plt>
    3156:	83 c4 0c             	add    $0xc,%esp
    3159:	68 27 8f 00 00       	push   $0x8f27
    315e:	6a 05                	push   $0x5
    3160:	6a ff                	push   $0xffffffff
    3162:	e8 69 76 00 00       	call   a7d0 <log_msg@plt>
    3167:	83 c4 10             	add    $0x10,%esp
    316a:	83 ec 0c             	sub    $0xc,%esp
    316d:	8d 83 a4 00 00 00    	lea    0xa4(%ebx),%eax
    3173:	c6 83 a0 00 00 00 01 	movb   $0x1,0xa0(%ebx)
    317a:	50                   	push   %eax
    317b:	e8 10 77 00 00       	call   a890 <fibril_condvar_broadcast@plt>
    3180:	8b 43 0c             	mov    0xc(%ebx),%eax
    3183:	83 c4 10             	add    $0x10,%esp
    3186:	85 c0                	test   %eax,%eax
    3188:	0f 84 43 f9 ff ff    	je     2ad1 <tcp_conn_segment_arrived+0x941>
    318e:	8b 40 04             	mov    0x4(%eax),%eax
    3191:	85 c0                	test   %eax,%eax
    3193:	0f 84 38 f9 ff ff    	je     2ad1 <tcp_conn_segment_arrived+0x941>
    3199:	52                   	push   %edx
    319a:	52                   	push   %edx
    319b:	ff 73 10             	pushl  0x10(%ebx)
    319e:	53                   	push   %ebx
    319f:	ff d0                	call   *%eax
    31a1:	83 c4 10             	add    $0x10,%esp
    31a4:	e9 28 f9 ff ff       	jmp    2ad1 <tcp_conn_segment_arrived+0x941>
    31a9:	ff 33                	pushl  (%ebx)
    31ab:	68 cf 8e 00 00       	push   $0x8ecf
    31b0:	6a 04                	push   $0x4
    31b2:	6a ff                	push   $0xffffffff
    31b4:	e8 17 76 00 00       	call   a7d0 <log_msg@plt>
    31b9:	53                   	push   %ebx
    31ba:	68 f2 8a 00 00       	push   $0x8af2
    31bf:	6a 04                	push   $0x4
    31c1:	6a ff                	push   $0xffffffff
    31c3:	e8 08 76 00 00       	call   a7d0 <log_msg@plt>
    31c8:	8b 43 60             	mov    0x60(%ebx),%eax
    31cb:	89 85 60 ff ff ff    	mov    %eax,-0xa0(%ebp)
    31d1:	c7 43 60 07 00 00 00 	movl   $0x7,0x60(%ebx)
    31d8:	83 c4 14             	add    $0x14,%esp
    31db:	8d 43 68             	lea    0x68(%ebx),%eax
    31de:	50                   	push   %eax
    31df:	e8 ac 76 00 00       	call   a890 <fibril_condvar_broadcast@plt>
    31e4:	8b 43 0c             	mov    0xc(%ebx),%eax
    31e7:	83 c4 10             	add    $0x10,%esp
    31ea:	85 c0                	test   %eax,%eax
    31ec:	0f 84 47 02 00 00    	je     3439 <tcp_conn_segment_arrived+0x12a9>
    31f2:	83 38 00             	cmpl   $0x0,(%eax)
    31f5:	0f 84 3e 02 00 00    	je     3439 <tcp_conn_segment_arrived+0x12a9>
    31fb:	50                   	push   %eax
    31fc:	68 a0 86 00 00       	push   $0x86a0
    3201:	6a 04                	push   $0x4
    3203:	6a ff                	push   $0xffffffff
    3205:	e8 c6 75 00 00       	call   a7d0 <log_msg@plt>
    320a:	83 c4 0c             	add    $0xc,%esp
    320d:	8b 43 0c             	mov    0xc(%ebx),%eax
    3210:	ff b5 60 ff ff ff    	pushl  -0xa0(%ebp)
    3216:	ff 73 10             	pushl  0x10(%ebx)
    3219:	53                   	push   %ebx
    321a:	ff 10                	call   *(%eax)
    321c:	83 c4 10             	add    $0x10,%esp
    321f:	83 bd 60 ff ff ff 0a 	cmpl   $0xa,-0xa0(%ebp)
    3226:	0f 85 3e ff ff ff    	jne    316a <tcp_conn_segment_arrived+0xfda>
    322c:	e9 5f fa ff ff       	jmp    2c90 <tcp_conn_segment_arrived+0xb00>
    3231:	ff 33                	pushl  (%ebx)
    3233:	68 3c 8a 00 00       	push   $0x8a3c
    3238:	6a 04                	push   $0x4
    323a:	6a ff                	push   $0xffffffff
    323c:	e8 8f 75 00 00       	call   a7d0 <log_msg@plt>
    3241:	53                   	push   %ebx
    3242:	68 f2 8a 00 00       	push   $0x8af2
    3247:	6a 04                	push   $0x4
    3249:	6a ff                	push   $0xffffffff
    324b:	e8 80 75 00 00       	call   a7d0 <log_msg@plt>
    3250:	8b 43 60             	mov    0x60(%ebx),%eax
    3253:	89 85 60 ff ff ff    	mov    %eax,-0xa0(%ebp)
    3259:	c7 43 60 06 00 00 00 	movl   $0x6,0x60(%ebx)
    3260:	e9 73 ff ff ff       	jmp    31d8 <tcp_conn_segment_arrived+0x1048>
    3265:	50                   	push   %eax
    3266:	68 34 04 00 00       	push   $0x434
    326b:	68 09 8b 00 00       	push   $0x8b09
    3270:	68 d3 8b 00 00       	push   $0x8bd3
    3275:	e8 b6 75 00 00       	call   a830 <assert_abort@plt>
    327a:	83 ec 0c             	sub    $0xc,%esp
    327d:	8d 83 a4 00 00 00    	lea    0xa4(%ebx),%eax
    3283:	50                   	push   %eax
    3284:	e8 07 76 00 00       	call   a890 <fibril_condvar_broadcast@plt>
    3289:	8b 43 0c             	mov    0xc(%ebx),%eax
    328c:	83 c4 10             	add    $0x10,%esp
    328f:	8b 95 60 ff ff ff    	mov    -0xa0(%ebp),%edx
    3295:	85 c0                	test   %eax,%eax
    3297:	74 19                	je     32b2 <tcp_conn_segment_arrived+0x1122>
    3299:	8b 40 04             	mov    0x4(%eax),%eax
    329c:	85 c0                	test   %eax,%eax
    329e:	74 12                	je     32b2 <tcp_conn_segment_arrived+0x1122>
    32a0:	52                   	push   %edx
    32a1:	52                   	push   %edx
    32a2:	8b 4b 10             	mov    0x10(%ebx),%ecx
    32a5:	51                   	push   %ecx
    32a6:	53                   	push   %ebx
    32a7:	ff d0                	call   *%eax
    32a9:	83 c4 10             	add    $0x10,%esp
    32ac:	8b 95 60 ff ff ff    	mov    -0xa0(%ebp),%edx
    32b2:	52                   	push   %edx
    32b3:	89 95 60 ff ff ff    	mov    %edx,-0xa0(%ebp)
    32b9:	68 43 8f 00 00       	push   $0x8f43
    32be:	6a 04                	push   $0x4
    32c0:	6a ff                	push   $0xffffffff
    32c2:	e8 09 75 00 00       	call   a7d0 <log_msg@plt>
    32c7:	8b 83 e0 00 00 00    	mov    0xe0(%ebx),%eax
    32cd:	8b 95 60 ff ff ff    	mov    -0xa0(%ebp),%edx
    32d3:	01 d0                	add    %edx,%eax
    32d5:	89 83 e0 00 00 00    	mov    %eax,0xe0(%ebx)
    32db:	8b 83 e4 00 00 00    	mov    0xe4(%ebx),%eax
    32e1:	29 d0                	sub    %edx,%eax
    32e3:	89 83 e4 00 00 00    	mov    %eax,0xe4(%ebx)
    32e9:	58                   	pop    %eax
    32ea:	5a                   	pop    %edx
    32eb:	6a 08                	push   $0x8
    32ed:	53                   	push   %ebx
    32ee:	e8 9d 35 00 00       	call   6890 <tcp_tqueue_ctrl_seg>
    32f3:	83 c4 10             	add    $0x10,%esp
    32f6:	8b 95 60 ff ff ff    	mov    -0xa0(%ebp),%edx
    32fc:	e9 bf f8 ff ff       	jmp    2bc0 <tcp_conn_segment_arrived+0xa30>
    3301:	50                   	push   %eax
    3302:	68 c4 86 00 00       	push   $0x86c4
    3307:	6a 04                	push   $0x4
    3309:	6a ff                	push   $0xffffffff
    330b:	e8 c0 74 00 00       	call   a7d0 <log_msg@plt>
    3310:	83 c4 10             	add    $0x10,%esp
    3313:	e9 36 f6 ff ff       	jmp    294e <tcp_conn_segment_arrived+0x7be>
    3318:	50                   	push   %eax
    3319:	68 7c 89 00 00       	push   $0x897c
    331e:	6a 02                	push   $0x2
    3320:	6a ff                	push   $0xffffffff
    3322:	e8 a9 74 00 00       	call   a7d0 <log_msg@plt>
    3327:	8d 53 14             	lea    0x14(%ebx),%edx
    332a:	89 3c 24             	mov    %edi,(%esp)
    332d:	52                   	push   %edx
    332e:	68 b0 8c 00 00       	push   $0x8cb0
    3333:	6a 04                	push   $0x4
    3335:	6a ff                	push   $0xffffffff
    3337:	89 95 60 ff ff ff    	mov    %edx,-0xa0(%ebp)
    333d:	e8 8e 74 00 00       	call   a7d0 <log_msg@plt>
    3342:	83 c4 14             	add    $0x14,%esp
    3345:	57                   	push   %edi
    3346:	e8 e5 10 00 00       	call   4430 <tcp_segment_make_rst>
    334b:	5a                   	pop    %edx
    334c:	8b 95 60 ff ff ff    	mov    -0xa0(%ebp),%edx
    3352:	59                   	pop    %ecx
    3353:	50                   	push   %eax
    3354:	52                   	push   %edx
    3355:	e8 06 3c 00 00       	call   6f60 <tcp_transmit_segment>
    335a:	89 3c 24             	mov    %edi,(%esp)
    335d:	e8 ce 0f 00 00       	call   4330 <tcp_segment_delete>
    3362:	83 c4 10             	add    $0x10,%esp
    3365:	e9 ea f0 ff ff       	jmp    2454 <tcp_conn_segment_arrived+0x2c4>
    336a:	8b 43 5c             	mov    0x5c(%ebx),%eax
    336d:	52                   	push   %edx
    336e:	52                   	push   %edx
    336f:	50                   	push   %eax
    3370:	53                   	push   %ebx
    3371:	ff 33                	pushl  (%ebx)
    3373:	68 e8 86 00 00       	push   $0x86e8
    3378:	6a 05                	push   $0x5
    337a:	6a ff                	push   $0xffffffff
    337c:	e8 4f 74 00 00       	call   a7d0 <log_msg@plt>
    3381:	83 c8 ff             	or     $0xffffffff,%eax
    3384:	f0 0f c1 43 5c       	lock xadd %eax,0x5c(%ebx)
    3389:	83 c4 20             	add    $0x20,%esp
    338c:	48                   	dec    %eax
    338d:	0f 85 ea f5 ff ff    	jne    297d <tcp_conn_segment_arrived+0x7ed>
    3393:	83 ec 0c             	sub    $0xc,%esp
    3396:	53                   	push   %ebx
    3397:	ff 33                	pushl  (%ebx)
    3399:	68 27 8b 00 00       	push   $0x8b27
    339e:	6a 04                	push   $0x4
    33a0:	6a ff                	push   $0xffffffff
    33a2:	e8 29 74 00 00       	call   a7d0 <log_msg@plt>
    33a7:	83 c4 14             	add    $0x14,%esp
    33aa:	ff b5 5c ff ff ff    	pushl  -0xa4(%ebp)
    33b0:	e8 6b 32 00 00       	call   6620 <tcp_tqueue_fini>
    33b5:	8b 83 94 00 00 00    	mov    0x94(%ebx),%eax
    33bb:	83 c4 10             	add    $0x10,%esp
    33be:	85 c0                	test   %eax,%eax
    33c0:	74 0c                	je     33ce <tcp_conn_segment_arrived+0x123e>
    33c2:	83 ec 0c             	sub    $0xc,%esp
    33c5:	50                   	push   %eax
    33c6:	e8 85 76 00 00       	call   aa50 <free@plt>
    33cb:	83 c4 10             	add    $0x10,%esp
    33ce:	8b 83 ac 00 00 00    	mov    0xac(%ebx),%eax
    33d4:	85 c0                	test   %eax,%eax
    33d6:	74 0c                	je     33e4 <tcp_conn_segment_arrived+0x1254>
    33d8:	83 ec 0c             	sub    $0xc,%esp
    33db:	50                   	push   %eax
    33dc:	e8 6f 76 00 00       	call   aa50 <free@plt>
    33e1:	83 c4 10             	add    $0x10,%esp
    33e4:	8b 83 90 00 00 00    	mov    0x90(%ebx),%eax
    33ea:	85 c0                	test   %eax,%eax
    33ec:	74 0c                	je     33fa <tcp_conn_segment_arrived+0x126a>
    33ee:	83 ec 0c             	sub    $0xc,%esp
    33f1:	50                   	push   %eax
    33f2:	e8 19 74 00 00       	call   a810 <fibril_timer_destroy@plt>
    33f7:	83 c4 10             	add    $0x10,%esp
    33fa:	83 ec 0c             	sub    $0xc,%esp
    33fd:	53                   	push   %ebx
    33fe:	e8 4d 76 00 00       	call   aa50 <free@plt>
    3403:	83 c4 10             	add    $0x10,%esp
    3406:	e9 72 f5 ff ff       	jmp    297d <tcp_conn_segment_arrived+0x7ed>
    340b:	52                   	push   %edx
    340c:	68 c4 86 00 00       	push   $0x86c4
    3411:	6a 04                	push   $0x4
    3413:	6a ff                	push   $0xffffffff
    3415:	e8 b6 73 00 00       	call   a7d0 <log_msg@plt>
    341a:	83 c4 10             	add    $0x10,%esp
    341d:	e9 6a f9 ff ff       	jmp    2d8c <tcp_conn_segment_arrived+0xbfc>
    3422:	50                   	push   %eax
    3423:	68 c4 86 00 00       	push   $0x86c4
    3428:	6a 04                	push   $0x4
    342a:	6a ff                	push   $0xffffffff
    342c:	e8 9f 73 00 00       	call   a7d0 <log_msg@plt>
    3431:	83 c4 10             	add    $0x10,%esp
    3434:	e9 4a f8 ff ff       	jmp    2c83 <tcp_conn_segment_arrived+0xaf3>
    3439:	50                   	push   %eax
    343a:	68 c4 86 00 00       	push   $0x86c4
    343f:	6a 04                	push   $0x4
    3441:	6a ff                	push   $0xffffffff
    3443:	e8 88 73 00 00       	call   a7d0 <log_msg@plt>
    3448:	83 c4 10             	add    $0x10,%esp
    344b:	e9 cf fd ff ff       	jmp    321f <tcp_conn_segment_arrived+0x108f>
    3450:	57                   	push   %edi
    3451:	68 c9 04 00 00       	push   $0x4c9
    3456:	68 09 8b 00 00       	push   $0x8b09
    345b:	68 c6 8c 00 00       	push   $0x8cc6
    3460:	e8 cb 73 00 00       	call   a830 <assert_abort@plt>
    3465:	56                   	push   %esi
    3466:	68 ca 04 00 00       	push   $0x4ca
    346b:	68 09 8b 00 00       	push   $0x8b09
    3470:	68 9d 8b 00 00       	push   $0x8b9d
    3475:	e8 b6 73 00 00       	call   a830 <assert_abort@plt>
    347a:	50                   	push   %eax
    347b:	68 c4 86 00 00       	push   $0x86c4
    3480:	6a 04                	push   $0x4
    3482:	6a ff                	push   $0xffffffff
    3484:	e8 47 73 00 00       	call   a7d0 <log_msg@plt>
    3489:	83 c4 10             	add    $0x10,%esp
    348c:	e9 75 fc ff ff       	jmp    3106 <tcp_conn_segment_arrived+0xf76>
    3491:	50                   	push   %eax
    3492:	68 e6 03 00 00       	push   $0x3e6
    3497:	68 09 8b 00 00       	push   $0x8b09
    349c:	68 cc 89 00 00       	push   $0x89cc
    34a1:	e8 8a 73 00 00       	call   a830 <assert_abort@plt>
    34a6:	a8 01                	test   $0x1,%al
    34a8:	0f 84 02 fb ff ff    	je     2fb0 <tcp_conn_segment_arrived+0xe20>
    34ae:	8b 55 10             	mov    0x10(%ebp),%edx
    34b1:	a8 08                	test   $0x8,%al
    34b3:	8b 52 04             	mov    0x4(%edx),%edx
    34b6:	89 93 ec 00 00 00    	mov    %edx,0xec(%ebx)
    34bc:	8d 4a 01             	lea    0x1(%edx),%ecx
    34bf:	89 8b e0 00 00 00    	mov    %ecx,0xe0(%ebx)
    34c5:	0f 84 40 f0 ff ff    	je     250b <tcp_conn_segment_arrived+0x37b>
    34cb:	8b 45 10             	mov    0x10(%ebp),%eax
    34ce:	83 ec 0c             	sub    $0xc,%esp
    34d1:	8b 40 08             	mov    0x8(%eax),%eax
    34d4:	89 83 c4 00 00 00    	mov    %eax,0xc4(%ebx)
    34da:	53                   	push   %ebx
    34db:	e8 a0 36 00 00       	call   6b80 <tcp_tqueue_ack_received>
    34e0:	83 c4 10             	add    $0x10,%esp
    34e3:	e9 23 f0 ff ff       	jmp    250b <tcp_conn_segment_arrived+0x37b>
    34e8:	50                   	push   %eax
    34e9:	68 ca 02 00 00       	push   $0x2ca
    34ee:	68 09 8b 00 00       	push   $0x8b09
    34f3:	68 24 89 00 00       	push   $0x8924
    34f8:	e8 33 73 00 00       	call   a830 <assert_abort@plt>
    34fd:	8d 76 00             	lea    0x0(%esi),%esi

00003500 <tcp_conn_trim_seg_to_wnd>:
    3500:	55                   	push   %ebp
    3501:	89 e5                	mov    %esp,%ebp
    3503:	53                   	push   %ebx
    3504:	83 ec 14             	sub    $0x14,%esp
    3507:	8d 45 f4             	lea    -0xc(%ebp),%eax
    350a:	8b 5d 0c             	mov    0xc(%ebp),%ebx
    350d:	50                   	push   %eax
    350e:	8d 45 f0             	lea    -0x10(%ebp),%eax
    3511:	50                   	push   %eax
    3512:	8b 45 08             	mov    0x8(%ebp),%eax
    3515:	53                   	push   %ebx
    3516:	50                   	push   %eax
    3517:	e8 64 28 00 00       	call   5d80 <seq_no_seg_trim_calc>
    351c:	83 c4 0c             	add    $0xc,%esp
    351f:	8b 55 f4             	mov    -0xc(%ebp),%edx
    3522:	8b 4d f0             	mov    -0x10(%ebp),%ecx
    3525:	52                   	push   %edx
    3526:	51                   	push   %ecx
    3527:	53                   	push   %ebx
    3528:	e8 c3 0f 00 00       	call   44f0 <tcp_segment_trim>
    352d:	83 c4 10             	add    $0x10,%esp
    3530:	8b 5d fc             	mov    -0x4(%ebp),%ebx
    3533:	c9                   	leave  
    3534:	c3                   	ret    
    3535:	8d 74 26 00          	lea    0x0(%esi,%eiz,1),%esi
    3539:	8d bc 27 00 00 00 00 	lea    0x0(%edi,%eiz,1),%edi

00003540 <tcp_unexpected_segment>:
    3540:	55                   	push   %ebp
    3541:	89 e5                	mov    %esp,%ebp
    3543:	56                   	push   %esi
    3544:	53                   	push   %ebx
    3545:	83 ec 0c             	sub    $0xc,%esp
    3548:	8b 5d 0c             	mov    0xc(%ebp),%ebx
    354b:	8b 75 08             	mov    0x8(%ebp),%esi
    354e:	53                   	push   %ebx
    354f:	56                   	push   %esi
    3550:	68 94 87 00 00       	push   $0x8794
    3555:	6a 04                	push   $0x4
    3557:	6a ff                	push   $0xffffffff
    3559:	e8 72 72 00 00       	call   a7d0 <log_msg@plt>
    355e:	83 c4 20             	add    $0x20,%esp
    3561:	f6 03 04             	testb  $0x4,(%ebx)
    3564:	74 0a                	je     3570 <tcp_unexpected_segment+0x30>
    3566:	8d 65 f8             	lea    -0x8(%ebp),%esp
    3569:	5b                   	pop    %ebx
    356a:	5e                   	pop    %esi
    356b:	5d                   	pop    %ebp
    356c:	c3                   	ret    
    356d:	8d 76 00             	lea    0x0(%esi),%esi
    3570:	83 ec 0c             	sub    $0xc,%esp
    3573:	53                   	push   %ebx
    3574:	56                   	push   %esi
    3575:	68 b0 8c 00 00       	push   $0x8cb0
    357a:	6a 04                	push   $0x4
    357c:	6a ff                	push   $0xffffffff
    357e:	e8 4d 72 00 00       	call   a7d0 <log_msg@plt>
    3583:	83 c4 14             	add    $0x14,%esp
    3586:	53                   	push   %ebx
    3587:	e8 a4 0e 00 00       	call   4430 <tcp_segment_make_rst>
    358c:	89 75 08             	mov    %esi,0x8(%ebp)
    358f:	89 45 0c             	mov    %eax,0xc(%ebp)
    3592:	83 c4 10             	add    $0x10,%esp
    3595:	8d 65 f8             	lea    -0x8(%ebp),%esp
    3598:	5b                   	pop    %ebx
    3599:	5e                   	pop    %esi
    359a:	5d                   	pop    %ebp
    359b:	e9 c0 39 00 00       	jmp    6f60 <tcp_transmit_segment>

000035a0 <tcp_ep2_flipped>:
    35a0:	55                   	push   %ebp
    35a1:	b9 06 00 00 00       	mov    $0x6,%ecx
    35a6:	89 e5                	mov    %esp,%ebp
    35a8:	57                   	push   %edi
    35a9:	56                   	push   %esi
    35aa:	8b 55 08             	mov    0x8(%ebp),%edx
    35ad:	8b 45 0c             	mov    0xc(%ebp),%eax
    35b0:	8d 72 1c             	lea    0x1c(%edx),%esi
    35b3:	8d 78 04             	lea    0x4(%eax),%edi
    35b6:	f3 a5                	rep movsl %ds:(%esi),%es:(%edi)
    35b8:	8d 78 1c             	lea    0x1c(%eax),%edi
    35bb:	8d 72 04             	lea    0x4(%edx),%esi
    35be:	b9 06 00 00 00       	mov    $0x6,%ecx
    35c3:	f3 a5                	rep movsl %ds:(%esi),%es:(%edi)
    35c5:	5e                   	pop    %esi
    35c6:	5f                   	pop    %edi
    35c7:	5d                   	pop    %ebp
    35c8:	c3                   	ret    
    35c9:	8d b4 26 00 00 00 00 	lea    0x0(%esi,%eiz,1),%esi

000035d0 <tcp_reply_rst>:
    35d0:	55                   	push   %ebp
    35d1:	89 e5                	mov    %esp,%ebp
    35d3:	56                   	push   %esi
    35d4:	53                   	push   %ebx
    35d5:	83 ec 0c             	sub    $0xc,%esp
    35d8:	8b 5d 08             	mov    0x8(%ebp),%ebx
    35db:	8b 75 0c             	mov    0xc(%ebp),%esi
    35de:	56                   	push   %esi
    35df:	53                   	push   %ebx
    35e0:	68 b0 8c 00 00       	push   $0x8cb0
    35e5:	6a 04                	push   $0x4
    35e7:	6a ff                	push   $0xffffffff
    35e9:	e8 e2 71 00 00       	call   a7d0 <log_msg@plt>
    35ee:	83 c4 14             	add    $0x14,%esp
    35f1:	56                   	push   %esi
    35f2:	e8 39 0e 00 00       	call   4430 <tcp_segment_make_rst>
    35f7:	89 5d 08             	mov    %ebx,0x8(%ebp)
    35fa:	89 45 0c             	mov    %eax,0xc(%ebp)
    35fd:	83 c4 10             	add    $0x10,%esp
    3600:	8d 65 f8             	lea    -0x8(%ebp),%esp
    3603:	5b                   	pop    %ebx
    3604:	5e                   	pop    %esi
    3605:	5d                   	pop    %ebp
    3606:	e9 55 39 00 00       	jmp    6f60 <tcp_transmit_segment>
    360b:	66 90                	xchg   %ax,%ax
    360d:	66 90                	xchg   %ax,%ax
    360f:	90                   	nop

00003610 <tcp_iqueue_init>:
    3610:	55                   	push   %ebp
    3611:	89 e5                	mov    %esp,%ebp
    3613:	8b 45 08             	mov    0x8(%ebp),%eax
    3616:	8d 50 04             	lea    0x4(%eax),%edx
    3619:	89 50 04             	mov    %edx,0x4(%eax)
    361c:	89 50 08             	mov    %edx,0x8(%eax)
    361f:	8b 55 0c             	mov    0xc(%ebp),%edx
    3622:	89 10                	mov    %edx,(%eax)
    3624:	5d                   	pop    %ebp
    3625:	c3                   	ret    
    3626:	8d 76 00             	lea    0x0(%esi),%esi
    3629:	8d bc 27 00 00 00 00 	lea    0x0(%edi,%eiz,1),%edi

00003630 <tcp_iqueue_insert_seg>:
    3630:	55                   	push   %ebp
    3631:	89 e5                	mov    %esp,%ebp
    3633:	57                   	push   %edi
    3634:	56                   	push   %esi
    3635:	53                   	push   %ebx
    3636:	83 ec 20             	sub    $0x20,%esp
    3639:	8b 55 0c             	mov    0xc(%ebp),%edx
    363c:	8b 7d 08             	mov    0x8(%ebp),%edi
    363f:	68 84 90 00 00       	push   $0x9084
    3644:	89 55 e4             	mov    %edx,-0x1c(%ebp)
    3647:	6a 04                	push   $0x4
    3649:	6a ff                	push   $0xffffffff
    364b:	e8 80 71 00 00       	call   a7d0 <log_msg@plt>
    3650:	58                   	pop    %eax
    3651:	5a                   	pop    %edx
    3652:	6a 0c                	push   $0xc
    3654:	6a 01                	push   $0x1
    3656:	e8 e5 71 00 00       	call   a840 <calloc@plt>
    365b:	83 c4 10             	add    $0x10,%esp
    365e:	8b 55 e4             	mov    -0x1c(%ebp),%edx
    3661:	85 c0                	test   %eax,%eax
    3663:	74 61                	je     36c6 <tcp_iqueue_insert_seg+0x96>
    3665:	89 c3                	mov    %eax,%ebx
    3667:	89 50 08             	mov    %edx,0x8(%eax)
    366a:	8b 77 08             	mov    0x8(%edi),%esi
    366d:	8d 47 04             	lea    0x4(%edi),%eax
    3670:	39 f0                	cmp    %esi,%eax
    3672:	74 3c                	je     36b0 <tcp_iqueue_insert_seg+0x80>
    3674:	85 f6                	test   %esi,%esi
    3676:	75 0b                	jne    3683 <tcp_iqueue_insert_seg+0x53>
    3678:	eb 36                	jmp    36b0 <tcp_iqueue_insert_seg+0x80>
    367a:	8d b6 00 00 00 00    	lea    0x0(%esi),%esi
    3680:	8b 53 08             	mov    0x8(%ebx),%edx
    3683:	50                   	push   %eax
    3684:	8b 4e 08             	mov    0x8(%esi),%ecx
    3687:	51                   	push   %ecx
    3688:	52                   	push   %edx
    3689:	8b 07                	mov    (%edi),%eax
    368b:	50                   	push   %eax
    368c:	e8 6f 28 00 00       	call   5f00 <seq_no_seg_cmp>
    3691:	83 c4 10             	add    $0x10,%esp
    3694:	85 c0                	test   %eax,%eax
    3696:	78 e8                	js     3680 <tcp_iqueue_insert_seg+0x50>
    3698:	8b 06                	mov    (%esi),%eax
    369a:	89 73 04             	mov    %esi,0x4(%ebx)
    369d:	89 03                	mov    %eax,(%ebx)
    369f:	8b 06                	mov    (%esi),%eax
    36a1:	89 58 04             	mov    %ebx,0x4(%eax)
    36a4:	89 1e                	mov    %ebx,(%esi)
    36a6:	8d 65 f4             	lea    -0xc(%ebp),%esp
    36a9:	5b                   	pop    %ebx
    36aa:	5e                   	pop    %esi
    36ab:	5f                   	pop    %edi
    36ac:	5d                   	pop    %ebp
    36ad:	c3                   	ret    
    36ae:	66 90                	xchg   %ax,%ax
    36b0:	89 43 04             	mov    %eax,0x4(%ebx)
    36b3:	8b 47 04             	mov    0x4(%edi),%eax
    36b6:	89 03                	mov    %eax,(%ebx)
    36b8:	89 58 04             	mov    %ebx,0x4(%eax)
    36bb:	89 5f 04             	mov    %ebx,0x4(%edi)
    36be:	8d 65 f4             	lea    -0xc(%ebp),%esp
    36c1:	5b                   	pop    %ebx
    36c2:	5e                   	pop    %esi
    36c3:	5f                   	pop    %edi
    36c4:	5d                   	pop    %ebp
    36c5:	c3                   	ret    
    36c6:	50                   	push   %eax
    36c7:	68 9c 90 00 00       	push   $0x909c
    36cc:	6a 01                	push   $0x1
    36ce:	6a ff                	push   $0xffffffff
    36d0:	e8 fb 70 00 00       	call   a7d0 <log_msg@plt>
    36d5:	83 c4 10             	add    $0x10,%esp
    36d8:	eb cc                	jmp    36a6 <tcp_iqueue_insert_seg+0x76>
    36da:	8d b6 00 00 00 00    	lea    0x0(%esi),%esi

000036e0 <tcp_iqueue_get_ready_seg>:
    36e0:	55                   	push   %ebp
    36e1:	89 e5                	mov    %esp,%ebp
    36e3:	57                   	push   %edi
    36e4:	56                   	push   %esi
    36e5:	53                   	push   %ebx
    36e6:	83 ec 10             	sub    $0x10,%esp
    36e9:	8b 75 08             	mov    0x8(%ebp),%esi
    36ec:	68 b3 90 00 00       	push   $0x90b3
    36f1:	6a 04                	push   $0x4
    36f3:	6a ff                	push   $0xffffffff
    36f5:	e8 d6 70 00 00       	call   a7d0 <log_msg@plt>
    36fa:	8b 5e 08             	mov    0x8(%esi),%ebx
    36fd:	83 c4 10             	add    $0x10,%esp
    3700:	85 db                	test   %ebx,%ebx
    3702:	0f 84 08 01 00 00    	je     3810 <tcp_iqueue_get_ready_seg+0x130>
    3708:	8d 7e 04             	lea    0x4(%esi),%edi
    370b:	39 df                	cmp    %ebx,%edi
    370d:	75 7c                	jne    378b <tcp_iqueue_get_ready_seg+0xab>
    370f:	e9 fc 00 00 00       	jmp    3810 <tcp_iqueue_get_ready_seg+0x130>
    3714:	8d 74 26 00          	lea    0x0(%esi,%eiz,1),%esi
    3718:	8b 16                	mov    (%esi),%edx
    371a:	8b 4b 08             	mov    0x8(%ebx),%ecx
    371d:	83 ec 04             	sub    $0x4,%esp
    3720:	8b 82 e0 00 00 00    	mov    0xe0(%edx),%eax
    3726:	ff 71 0c             	pushl  0xc(%ecx)
    3729:	8b 49 04             	mov    0x4(%ecx),%ecx
    372c:	51                   	push   %ecx
    372d:	8b 8a e4 00 00 00    	mov    0xe4(%edx),%ecx
    3733:	01 c1                	add    %eax,%ecx
    3735:	51                   	push   %ecx
    3736:	50                   	push   %eax
    3737:	68 f4 90 00 00       	push   $0x90f4
    373c:	6a 04                	push   $0x4
    373e:	6a ff                	push   $0xffffffff
    3740:	e8 8b 70 00 00       	call   a7d0 <log_msg@plt>
    3745:	8b 13                	mov    (%ebx),%edx
    3747:	83 c4 20             	add    $0x20,%esp
    374a:	85 d2                	test   %edx,%edx
    374c:	74 0e                	je     375c <tcp_iqueue_get_ready_seg+0x7c>
    374e:	8b 43 04             	mov    0x4(%ebx),%eax
    3751:	85 c0                	test   %eax,%eax
    3753:	74 07                	je     375c <tcp_iqueue_get_ready_seg+0x7c>
    3755:	89 10                	mov    %edx,(%eax)
    3757:	8b 13                	mov    (%ebx),%edx
    3759:	89 42 04             	mov    %eax,0x4(%edx)
    375c:	83 ec 0c             	sub    $0xc,%esp
    375f:	c7 03 00 00 00 00    	movl   $0x0,(%ebx)
    3765:	c7 43 04 00 00 00 00 	movl   $0x0,0x4(%ebx)
    376c:	8b 43 08             	mov    0x8(%ebx),%eax
    376f:	50                   	push   %eax
    3770:	e8 bb 0b 00 00       	call   4330 <tcp_segment_delete>
    3775:	8b 5e 08             	mov    0x8(%esi),%ebx
    3778:	83 c4 10             	add    $0x10,%esp
    377b:	85 db                	test   %ebx,%ebx
    377d:	0f 84 8d 00 00 00    	je     3810 <tcp_iqueue_get_ready_seg+0x130>
    3783:	39 fb                	cmp    %edi,%ebx
    3785:	0f 84 85 00 00 00    	je     3810 <tcp_iqueue_get_ready_seg+0x130>
    378b:	50                   	push   %eax
    378c:	50                   	push   %eax
    378d:	8b 43 08             	mov    0x8(%ebx),%eax
    3790:	50                   	push   %eax
    3791:	8b 06                	mov    (%esi),%eax
    3793:	50                   	push   %eax
    3794:	e8 07 25 00 00       	call   5ca0 <seq_no_segment_acceptable>
    3799:	83 c4 10             	add    $0x10,%esp
    379c:	84 c0                	test   %al,%al
    379e:	0f 84 74 ff ff ff    	je     3718 <tcp_iqueue_get_ready_seg+0x38>
    37a4:	57                   	push   %edi
    37a5:	57                   	push   %edi
    37a6:	8b 43 08             	mov    0x8(%ebx),%eax
    37a9:	50                   	push   %eax
    37aa:	8b 06                	mov    (%esi),%eax
    37ac:	50                   	push   %eax
    37ad:	e8 3e 23 00 00       	call   5af0 <seq_no_segment_ready>
    37b2:	83 c4 10             	add    $0x10,%esp
    37b5:	84 c0                	test   %al,%al
    37b7:	74 74                	je     382d <tcp_iqueue_get_ready_seg+0x14d>
    37b9:	8b 43 08             	mov    0x8(%ebx),%eax
    37bc:	50                   	push   %eax
    37bd:	68 d7 90 00 00       	push   $0x90d7
    37c2:	6a 04                	push   $0x4
    37c4:	6a ff                	push   $0xffffffff
    37c6:	e8 05 70 00 00       	call   a7d0 <log_msg@plt>
    37cb:	8b 13                	mov    (%ebx),%edx
    37cd:	83 c4 10             	add    $0x10,%esp
    37d0:	85 d2                	test   %edx,%edx
    37d2:	74 0e                	je     37e2 <tcp_iqueue_get_ready_seg+0x102>
    37d4:	8b 43 04             	mov    0x4(%ebx),%eax
    37d7:	85 c0                	test   %eax,%eax
    37d9:	74 07                	je     37e2 <tcp_iqueue_get_ready_seg+0x102>
    37db:	89 10                	mov    %edx,(%eax)
    37dd:	8b 13                	mov    (%ebx),%edx
    37df:	89 42 04             	mov    %eax,0x4(%edx)
    37e2:	8b 45 0c             	mov    0xc(%ebp),%eax
    37e5:	83 ec 0c             	sub    $0xc,%esp
    37e8:	8b 53 08             	mov    0x8(%ebx),%edx
    37eb:	c7 03 00 00 00 00    	movl   $0x0,(%ebx)
    37f1:	c7 43 04 00 00 00 00 	movl   $0x0,0x4(%ebx)
    37f8:	89 10                	mov    %edx,(%eax)
    37fa:	53                   	push   %ebx
    37fb:	e8 50 72 00 00       	call   aa50 <free@plt>
    3800:	83 c4 10             	add    $0x10,%esp
    3803:	31 c0                	xor    %eax,%eax
    3805:	8d 65 f4             	lea    -0xc(%ebp),%esp
    3808:	5b                   	pop    %ebx
    3809:	5e                   	pop    %esi
    380a:	5f                   	pop    %edi
    380b:	5d                   	pop    %ebp
    380c:	c3                   	ret    
    380d:	8d 76 00             	lea    0x0(%esi),%esi
    3810:	53                   	push   %ebx
    3811:	68 c7 90 00 00       	push   $0x90c7
    3816:	6a 04                	push   $0x4
    3818:	6a ff                	push   $0xffffffff
    381a:	e8 b1 6f 00 00       	call   a7d0 <log_msg@plt>
    381f:	83 c4 10             	add    $0x10,%esp
    3822:	8d 65 f4             	lea    -0xc(%ebp),%esp
    3825:	83 c8 ff             	or     $0xffffffff,%eax
    3828:	5b                   	pop    %ebx
    3829:	5e                   	pop    %esi
    382a:	5f                   	pop    %edi
    382b:	5d                   	pop    %ebp
    382c:	c3                   	ret    
    382d:	8b 43 08             	mov    0x8(%ebx),%eax
    3830:	52                   	push   %edx
    3831:	52                   	push   %edx
    3832:	8b 48 0c             	mov    0xc(%eax),%ecx
    3835:	8b 16                	mov    (%esi),%edx
    3837:	51                   	push   %ecx
    3838:	8b 9a e0 00 00 00    	mov    0xe0(%edx),%ebx
    383e:	53                   	push   %ebx
    383f:	8b 70 04             	mov    0x4(%eax),%esi
    3842:	56                   	push   %esi
    3843:	68 4c 91 00 00       	push   $0x914c
    3848:	6a 04                	push   $0x4
    384a:	6a ff                	push   $0xffffffff
    384c:	e8 7f 6f 00 00       	call   a7d0 <log_msg@plt>
    3851:	83 c4 20             	add    $0x20,%esp
    3854:	83 c8 ff             	or     $0xffffffff,%eax
    3857:	eb ac                	jmp    3805 <tcp_iqueue_get_ready_seg+0x125>
    3859:	66 90                	xchg   %ax,%ax
    385b:	66 90                	xchg   %ax,%ax
    385d:	66 90                	xchg   %ax,%ax
    385f:	90                   	nop

00003860 <tcp_ncsim_fibril>:
    3860:	55                   	push   %ebp
    3861:	89 e5                	mov    %esp,%ebp
    3863:	53                   	push   %ebx
    3864:	83 ec 08             	sub    $0x8,%esp
    3867:	68 87 91 00 00       	push   $0x9187
    386c:	6a 04                	push   $0x4
    386e:	6a ff                	push   $0xffffffff
    3870:	e8 5b 6f 00 00       	call   a7d0 <log_msg@plt>
    3875:	83 c4 10             	add    $0x10,%esp
    3878:	83 ec 0c             	sub    $0xc,%esp
    387b:	68 14 c6 00 00       	push   $0xc614
    3880:	e8 db 71 00 00       	call   aa60 <fibril_mutex_lock@plt>
    3885:	8b 1d 28 c6 00 00    	mov    0xc628,%ebx
    388b:	83 c4 10             	add    $0x10,%esp
    388e:	81 fb 24 c6 00 00    	cmp    $0xc624,%ebx
    3894:	75 2a                	jne    38c0 <tcp_ncsim_fibril+0x60>
    3896:	66 90                	xchg   %ax,%ax
    3898:	50                   	push   %eax
    3899:	50                   	push   %eax
    389a:	68 14 c6 00 00       	push   $0xc614
    389f:	68 0c c6 00 00       	push   $0xc60c
    38a4:	e8 07 6f 00 00       	call   a7b0 <fibril_condvar_wait@plt>
    38a9:	8b 1d 28 c6 00 00    	mov    0xc628,%ebx
    38af:	83 c4 10             	add    $0x10,%esp
    38b2:	81 fb 24 c6 00 00    	cmp    $0xc624,%ebx
    38b8:	74 de                	je     3898 <tcp_ncsim_fibril+0x38>
    38ba:	8d b6 00 00 00 00    	lea    0x0(%esi),%esi
    38c0:	50                   	push   %eax
    38c1:	68 9a 91 00 00       	push   $0x919a
    38c6:	6a 04                	push   $0x4
    38c8:	6a ff                	push   $0xffffffff
    38ca:	e8 01 6f 00 00       	call   a7d0 <log_msg@plt>
    38cf:	83 c4 0c             	add    $0xc,%esp
    38d2:	8b 43 08             	mov    0x8(%ebx),%eax
    38d5:	50                   	push   %eax
    38d6:	68 14 c6 00 00       	push   $0xc614
    38db:	68 0c c6 00 00       	push   $0xc60c
    38e0:	e8 6b 6f 00 00       	call   a850 <fibril_condvar_wait_timeout@plt>
    38e5:	83 c4 10             	add    $0x10,%esp
    38e8:	83 f8 f3             	cmp    $0xfffffff3,%eax
    38eb:	74 2b                	je     3918 <tcp_ncsim_fibril+0xb8>
    38ed:	8b 1d 28 c6 00 00    	mov    0xc628,%ebx
    38f3:	81 fb 24 c6 00 00    	cmp    $0xc624,%ebx
    38f9:	75 c5                	jne    38c0 <tcp_ncsim_fibril+0x60>
    38fb:	50                   	push   %eax
    38fc:	68 9a 91 00 00       	push   $0x919a
    3901:	6a 04                	push   $0x4
    3903:	6a ff                	push   $0xffffffff
    3905:	e8 c6 6e 00 00       	call   a7d0 <log_msg@plt>
    390a:	a1 08 00 00 00       	mov    0x8,%eax
    390f:	0f 0b                	ud2    
    3911:	8d b4 26 00 00 00 00 	lea    0x0(%esi,%eiz,1),%esi
    3918:	8b 13                	mov    (%ebx),%edx
    391a:	85 d2                	test   %edx,%edx
    391c:	74 0e                	je     392c <tcp_ncsim_fibril+0xcc>
    391e:	8b 43 04             	mov    0x4(%ebx),%eax
    3921:	85 c0                	test   %eax,%eax
    3923:	74 07                	je     392c <tcp_ncsim_fibril+0xcc>
    3925:	89 10                	mov    %edx,(%eax)
    3927:	8b 13                	mov    (%ebx),%edx
    3929:	89 42 04             	mov    %eax,0x4(%edx)
    392c:	83 ec 0c             	sub    $0xc,%esp
    392f:	c7 03 00 00 00 00    	movl   $0x0,(%ebx)
    3935:	c7 43 04 00 00 00 00 	movl   $0x0,0x4(%ebx)
    393c:	68 14 c6 00 00       	push   $0xc614
    3941:	e8 5a 6f 00 00       	call   a8a0 <fibril_mutex_unlock@plt>
    3946:	83 c4 0c             	add    $0xc,%esp
    3949:	68 a8 91 00 00       	push   $0x91a8
    394e:	6a 04                	push   $0x4
    3950:	6a ff                	push   $0xffffffff
    3952:	e8 79 6e 00 00       	call   a7d0 <log_msg@plt>
    3957:	8b 43 40             	mov    0x40(%ebx),%eax
    395a:	5a                   	pop    %edx
    395b:	59                   	pop    %ecx
    395c:	50                   	push   %eax
    395d:	8d 43 0c             	lea    0xc(%ebx),%eax
    3960:	50                   	push   %eax
    3961:	e8 da 07 00 00       	call   4140 <tcp_rqueue_bounce_seg>
    3966:	89 1c 24             	mov    %ebx,(%esp)
    3969:	e8 e2 70 00 00       	call   aa50 <free@plt>
    396e:	83 c4 10             	add    $0x10,%esp
    3971:	e9 02 ff ff ff       	jmp    3878 <tcp_ncsim_fibril+0x18>
    3976:	8d 76 00             	lea    0x0(%esi),%esi
    3979:	8d bc 27 00 00 00 00 	lea    0x0(%edi,%eiz,1),%edi

00003980 <tcp_ncsim_init>:
    3980:	55                   	push   %ebp
    3981:	89 e5                	mov    %esp,%ebp
    3983:	83 ec 14             	sub    $0x14,%esp
    3986:	c7 05 24 c6 00 00 24 	movl   $0xc624,0xc624
    398d:	c6 00 00 
    3990:	c7 05 28 c6 00 00 24 	movl   $0xc624,0xc628
    3997:	c6 00 00 
    399a:	68 14 c6 00 00       	push   $0xc614
    399f:	e8 0c 6f 00 00       	call   a8b0 <fibril_mutex_initialize@plt>
    39a4:	c7 04 24 0c c6 00 00 	movl   $0xc60c,(%esp)
    39ab:	e8 b0 6e 00 00       	call   a860 <fibril_condvar_initialize@plt>
    39b0:	83 c4 10             	add    $0x10,%esp
    39b3:	c9                   	leave  
    39b4:	c3                   	ret    
    39b5:	8d 74 26 00          	lea    0x0(%esi,%eiz,1),%esi
    39b9:	8d bc 27 00 00 00 00 	lea    0x0(%edi,%eiz,1),%edi

000039c0 <tcp_ncsim_bounce_seg>:
    39c0:	55                   	push   %ebp
    39c1:	89 e5                	mov    %esp,%ebp
    39c3:	56                   	push   %esi
    39c4:	53                   	push   %ebx
    39c5:	50                   	push   %eax
    39c6:	8b 5d 08             	mov    0x8(%ebp),%ebx
    39c9:	8b 75 0c             	mov    0xc(%ebp),%esi
    39cc:	68 ba 91 00 00       	push   $0x91ba
    39d1:	6a 04                	push   $0x4
    39d3:	6a ff                	push   $0xffffffff
    39d5:	e8 f6 6d 00 00       	call   a7d0 <log_msg@plt>
    39da:	89 75 0c             	mov    %esi,0xc(%ebp)
    39dd:	89 5d 08             	mov    %ebx,0x8(%ebp)
    39e0:	83 c4 10             	add    $0x10,%esp
    39e3:	8d 65 f8             	lea    -0x8(%ebp),%esp
    39e6:	5b                   	pop    %ebx
    39e7:	5e                   	pop    %esi
    39e8:	5d                   	pop    %ebp
    39e9:	e9 52 07 00 00       	jmp    4140 <tcp_rqueue_bounce_seg>
    39ee:	66 90                	xchg   %ax,%ax

000039f0 <tcp_ncsim_fibril_start>:
    39f0:	55                   	push   %ebp
    39f1:	89 e5                	mov    %esp,%ebp
    39f3:	83 ec 0c             	sub    $0xc,%esp
    39f6:	68 d1 91 00 00       	push   $0x91d1
    39fb:	6a 04                	push   $0x4
    39fd:	6a ff                	push   $0xffffffff
    39ff:	e8 cc 6d 00 00       	call   a7d0 <log_msg@plt>
    3a04:	83 c4 0c             	add    $0xc,%esp
    3a07:	6a 00                	push   $0x0
    3a09:	6a 00                	push   $0x0
    3a0b:	68 60 38 00 00       	push   $0x3860
    3a10:	e8 9b 6f 00 00       	call   a9b0 <fibril_create_generic@plt>
    3a15:	83 c4 10             	add    $0x10,%esp
    3a18:	85 c0                	test   %eax,%eax
    3a1a:	74 14                	je     3a30 <tcp_ncsim_fibril_start+0x40>
    3a1c:	83 ec 0c             	sub    $0xc,%esp
    3a1f:	50                   	push   %eax
    3a20:	e8 9b 6f 00 00       	call   a9c0 <fibril_add_ready@plt>
    3a25:	83 c4 10             	add    $0x10,%esp
    3a28:	c9                   	leave  
    3a29:	c3                   	ret    
    3a2a:	8d b6 00 00 00 00    	lea    0x0(%esi),%esi
    3a30:	50                   	push   %eax
    3a31:	68 ea 91 00 00       	push   $0x91ea
    3a36:	6a 01                	push   $0x1
    3a38:	6a ff                	push   $0xffffffff
    3a3a:	e8 91 6d 00 00       	call   a7d0 <log_msg@plt>
    3a3f:	83 c4 10             	add    $0x10,%esp
    3a42:	c9                   	leave  
    3a43:	c3                   	ret    
    3a44:	66 90                	xchg   %ax,%ax
    3a46:	66 90                	xchg   %ax,%ax
    3a48:	66 90                	xchg   %ax,%ax
    3a4a:	66 90                	xchg   %ax,%ax
    3a4c:	66 90                	xchg   %ax,%ax
    3a4e:	66 90                	xchg   %ax,%ax

00003a50 <tcp_pdu_create>:
    3a50:	55                   	push   %ebp
    3a51:	89 e5                	mov    %esp,%ebp
    3a53:	57                   	push   %edi
    3a54:	56                   	push   %esi
    3a55:	53                   	push   %ebx
    3a56:	83 ec 14             	sub    $0x14,%esp
    3a59:	8b 7d 0c             	mov    0xc(%ebp),%edi
    3a5c:	8b 75 14             	mov    0x14(%ebp),%esi
    3a5f:	6a 38                	push   $0x38
    3a61:	6a 01                	push   $0x1
    3a63:	e8 d8 6d 00 00       	call   a840 <calloc@plt>
    3a68:	83 c4 10             	add    $0x10,%esp
    3a6b:	89 c3                	mov    %eax,%ebx
    3a6d:	85 c0                	test   %eax,%eax
    3a6f:	74 4b                	je     3abc <tcp_pdu_create+0x6c>
    3a71:	83 ec 0c             	sub    $0xc,%esp
    3a74:	57                   	push   %edi
    3a75:	e8 06 6d 00 00       	call   a780 <malloc@plt>
    3a7a:	89 43 28             	mov    %eax,0x28(%ebx)
    3a7d:	89 34 24             	mov    %esi,(%esp)
    3a80:	e8 fb 6c 00 00       	call   a780 <malloc@plt>
    3a85:	8b 53 28             	mov    0x28(%ebx),%edx
    3a88:	83 c4 10             	add    $0x10,%esp
    3a8b:	89 43 30             	mov    %eax,0x30(%ebx)
    3a8e:	85 d2                	test   %edx,%edx
    3a90:	74 45                	je     3ad7 <tcp_pdu_create+0x87>
    3a92:	85 c0                	test   %eax,%eax
    3a94:	74 32                	je     3ac8 <tcp_pdu_create+0x78>
    3a96:	8b 4d 08             	mov    0x8(%ebp),%ecx
    3a99:	50                   	push   %eax
    3a9a:	57                   	push   %edi
    3a9b:	51                   	push   %ecx
    3a9c:	52                   	push   %edx
    3a9d:	e8 ce 6c 00 00       	call   a770 <memcpy@plt>
    3aa2:	83 c4 0c             	add    $0xc,%esp
    3aa5:	8b 45 10             	mov    0x10(%ebp),%eax
    3aa8:	56                   	push   %esi
    3aa9:	50                   	push   %eax
    3aaa:	8b 43 30             	mov    0x30(%ebx),%eax
    3aad:	50                   	push   %eax
    3aae:	e8 bd 6c 00 00       	call   a770 <memcpy@plt>
    3ab3:	89 7b 2c             	mov    %edi,0x2c(%ebx)
    3ab6:	89 73 34             	mov    %esi,0x34(%ebx)
    3ab9:	83 c4 10             	add    $0x10,%esp
    3abc:	8d 65 f4             	lea    -0xc(%ebp),%esp
    3abf:	89 d8                	mov    %ebx,%eax
    3ac1:	5b                   	pop    %ebx
    3ac2:	5e                   	pop    %esi
    3ac3:	5f                   	pop    %edi
    3ac4:	5d                   	pop    %ebp
    3ac5:	c3                   	ret    
    3ac6:	66 90                	xchg   %ax,%ax
    3ac8:	83 ec 0c             	sub    $0xc,%esp
    3acb:	52                   	push   %edx
    3acc:	e8 7f 6f 00 00       	call   aa50 <free@plt>
    3ad1:	8b 43 30             	mov    0x30(%ebx),%eax
    3ad4:	83 c4 10             	add    $0x10,%esp
    3ad7:	85 c0                	test   %eax,%eax
    3ad9:	74 0c                	je     3ae7 <tcp_pdu_create+0x97>
    3adb:	83 ec 0c             	sub    $0xc,%esp
    3ade:	50                   	push   %eax
    3adf:	e8 6c 6f 00 00       	call   aa50 <free@plt>
    3ae4:	83 c4 10             	add    $0x10,%esp
    3ae7:	83 ec 0c             	sub    $0xc,%esp
    3aea:	53                   	push   %ebx
    3aeb:	31 db                	xor    %ebx,%ebx
    3aed:	e8 5e 6f 00 00       	call   aa50 <free@plt>
    3af2:	83 c4 10             	add    $0x10,%esp
    3af5:	eb c5                	jmp    3abc <tcp_pdu_create+0x6c>
    3af7:	89 f6                	mov    %esi,%esi
    3af9:	8d bc 27 00 00 00 00 	lea    0x0(%edi,%eiz,1),%edi

00003b00 <tcp_pdu_delete>:
    3b00:	55                   	push   %ebp
    3b01:	89 e5                	mov    %esp,%ebp
    3b03:	53                   	push   %ebx
    3b04:	83 ec 10             	sub    $0x10,%esp
    3b07:	8b 5d 08             	mov    0x8(%ebp),%ebx
    3b0a:	8b 43 28             	mov    0x28(%ebx),%eax
    3b0d:	50                   	push   %eax
    3b0e:	e8 3d 6f 00 00       	call   aa50 <free@plt>
    3b13:	8b 4b 30             	mov    0x30(%ebx),%ecx
    3b16:	5a                   	pop    %edx
    3b17:	51                   	push   %ecx
    3b18:	e8 33 6f 00 00       	call   aa50 <free@plt>
    3b1d:	89 5d 08             	mov    %ebx,0x8(%ebp)
    3b20:	83 c4 10             	add    $0x10,%esp
    3b23:	8b 5d fc             	mov    -0x4(%ebp),%ebx
    3b26:	c9                   	leave  
    3b27:	e9 24 6f 00 00       	jmp    aa50 <free@plt>
    3b2c:	8d 74 26 00          	lea    0x0(%esi,%eiz,1),%esi

00003b30 <tcp_pdu_decode>:
    3b30:	55                   	push   %ebp
    3b31:	89 e5                	mov    %esp,%ebp
    3b33:	57                   	push   %edi
    3b34:	56                   	push   %esi
    3b35:	53                   	push   %ebx
    3b36:	83 ec 20             	sub    $0x20,%esp
    3b39:	8b 5d 08             	mov    0x8(%ebp),%ebx
    3b3c:	8b 75 0c             	mov    0xc(%ebp),%esi
    3b3f:	8b 4b 34             	mov    0x34(%ebx),%ecx
    3b42:	8b 7b 30             	mov    0x30(%ebx),%edi
    3b45:	51                   	push   %ecx
    3b46:	57                   	push   %edi
    3b47:	6a 00                	push   $0x0
    3b49:	e8 32 09 00 00       	call   4480 <tcp_segment_make_data>
    3b4e:	83 c4 10             	add    $0x10,%esp
    3b51:	85 c0                	test   %eax,%eax
    3b53:	0f 84 07 01 00 00    	je     3c60 <tcp_pdu_decode+0x130>
    3b59:	8b 4b 28             	mov    0x28(%ebx),%ecx
    3b5c:	89 c7                	mov    %eax,%edi
    3b5e:	8b 51 0c             	mov    0xc(%ecx),%edx
    3b61:	66 c1 c2 08          	rol    $0x8,%dx
    3b65:	89 d0                	mov    %edx,%eax
    3b67:	83 e0 10             	and    $0x10,%eax
    3b6a:	66 83 f8 01          	cmp    $0x1,%ax
    3b6e:	66 89 45 e6          	mov    %ax,-0x1a(%ebp)
    3b72:	19 c0                	sbb    %eax,%eax
    3b74:	83 e0 f8             	and    $0xfffffff8,%eax
    3b77:	83 c0 0c             	add    $0xc,%eax
    3b7a:	66 83 7d e6 01       	cmpw   $0x1,-0x1a(%ebp)
    3b7f:	89 45 e0             	mov    %eax,-0x20(%ebp)
    3b82:	19 c0                	sbb    %eax,%eax
    3b84:	83 f0 ff             	xor    $0xffffffff,%eax
    3b87:	83 e0 08             	and    $0x8,%eax
    3b8a:	f6 c2 04             	test   $0x4,%dl
    3b8d:	74 03                	je     3b92 <tcp_pdu_decode+0x62>
    3b8f:	8b 45 e0             	mov    -0x20(%ebp),%eax
    3b92:	f6 c2 02             	test   $0x2,%dl
    3b95:	0f 85 bd 00 00 00    	jne    3c58 <tcp_pdu_decode+0x128>
    3b9b:	83 e2 01             	and    $0x1,%edx
    3b9e:	74 03                	je     3ba3 <tcp_pdu_decode+0x73>
    3ba0:	83 c8 02             	or     $0x2,%eax
    3ba3:	8b 51 04             	mov    0x4(%ecx),%edx
    3ba6:	83 ec 0c             	sub    $0xc,%esp
    3ba9:	0f ca                	bswap  %edx
    3bab:	89 57 04             	mov    %edx,0x4(%edi)
    3bae:	89 07                	mov    %eax,(%edi)
    3bb0:	8b 51 08             	mov    0x8(%ecx),%edx
    3bb3:	0f ca                	bswap  %edx
    3bb5:	89 57 08             	mov    %edx,0x8(%edi)
    3bb8:	66 8b 51 0e          	mov    0xe(%ecx),%dx
    3bbc:	66 c1 c2 08          	rol    $0x8,%dx
    3bc0:	66 89 55 e6          	mov    %dx,-0x1a(%ebp)
    3bc4:	31 d2                	xor    %edx,%edx
    3bc6:	66 8b 55 e6          	mov    -0x1a(%ebp),%dx
    3bca:	89 57 10             	mov    %edx,0x10(%edi)
    3bcd:	66 8b 51 12          	mov    0x12(%ecx),%dx
    3bd1:	89 d1                	mov    %edx,%ecx
    3bd3:	31 d2                	xor    %edx,%edx
    3bd5:	66 c1 c1 08          	rol    $0x8,%cx
    3bd9:	66 89 ca             	mov    %cx,%dx
    3bdc:	89 57 14             	mov    %edx,0x14(%edi)
    3bdf:	50                   	push   %eax
    3be0:	e8 7b 21 00 00       	call   5d60 <seq_no_control_len>
    3be5:	8b 57 0c             	mov    0xc(%edi),%edx
    3be8:	01 c2                	add    %eax,%edx
    3bea:	83 c4 10             	add    $0x10,%esp
    3bed:	89 57 0c             	mov    %edx,0xc(%edi)
    3bf0:	8b 53 28             	mov    0x28(%ebx),%edx
    3bf3:	66 8b 42 02          	mov    0x2(%edx),%ax
    3bf7:	66 c1 c0 08          	rol    $0x8,%ax
    3bfb:	66 89 46 18          	mov    %ax,0x18(%esi)
    3bff:	8b 43 14             	mov    0x14(%ebx),%eax
    3c02:	89 46 04             	mov    %eax,0x4(%esi)
    3c05:	8b 43 18             	mov    0x18(%ebx),%eax
    3c08:	89 46 08             	mov    %eax,0x8(%esi)
    3c0b:	8b 43 1c             	mov    0x1c(%ebx),%eax
    3c0e:	89 46 0c             	mov    %eax,0xc(%esi)
    3c11:	8b 43 20             	mov    0x20(%ebx),%eax
    3c14:	89 46 10             	mov    %eax,0x10(%esi)
    3c17:	8b 43 24             	mov    0x24(%ebx),%eax
    3c1a:	89 46 14             	mov    %eax,0x14(%esi)
    3c1d:	8b 02                	mov    (%edx),%eax
    3c1f:	66 c1 c0 08          	rol    $0x8,%ax
    3c23:	66 89 46 30          	mov    %ax,0x30(%esi)
    3c27:	8b 03                	mov    (%ebx),%eax
    3c29:	89 46 1c             	mov    %eax,0x1c(%esi)
    3c2c:	8b 43 04             	mov    0x4(%ebx),%eax
    3c2f:	89 46 20             	mov    %eax,0x20(%esi)
    3c32:	8b 43 08             	mov    0x8(%ebx),%eax
    3c35:	89 46 24             	mov    %eax,0x24(%esi)
    3c38:	8b 43 0c             	mov    0xc(%ebx),%eax
    3c3b:	89 46 28             	mov    %eax,0x28(%esi)
    3c3e:	8b 43 10             	mov    0x10(%ebx),%eax
    3c41:	89 46 2c             	mov    %eax,0x2c(%esi)
    3c44:	8b 45 10             	mov    0x10(%ebp),%eax
    3c47:	89 38                	mov    %edi,(%eax)
    3c49:	31 c0                	xor    %eax,%eax
    3c4b:	8d 65 f4             	lea    -0xc(%ebp),%esp
    3c4e:	5b                   	pop    %ebx
    3c4f:	5e                   	pop    %esi
    3c50:	5f                   	pop    %edi
    3c51:	5d                   	pop    %ebp
    3c52:	c3                   	ret    
    3c53:	90                   	nop
    3c54:	8d 74 26 00          	lea    0x0(%esi,%eiz,1),%esi
    3c58:	83 c8 01             	or     $0x1,%eax
    3c5b:	e9 3b ff ff ff       	jmp    3b9b <tcp_pdu_decode+0x6b>
    3c60:	b8 fe ff ff ff       	mov    $0xfffffffe,%eax
    3c65:	eb e4                	jmp    3c4b <tcp_pdu_decode+0x11b>
    3c67:	89 f6                	mov    %esi,%esi
    3c69:	8d bc 27 00 00 00 00 	lea    0x0(%edi,%eiz,1),%edi

00003c70 <tcp_pdu_encode>:
    3c70:	55                   	push   %ebp
    3c71:	89 e5                	mov    %esp,%ebp
    3c73:	57                   	push   %edi
    3c74:	56                   	push   %esi
    3c75:	53                   	push   %ebx
    3c76:	81 ec 84 00 00 00    	sub    $0x84,%esp
    3c7c:	8b 75 08             	mov    0x8(%ebp),%esi
    3c7f:	8b 7d 0c             	mov    0xc(%ebp),%edi
    3c82:	6a 38                	push   $0x38
    3c84:	6a 01                	push   $0x1
    3c86:	e8 b5 6b 00 00       	call   a840 <calloc@plt>
    3c8b:	83 c4 10             	add    $0x10,%esp
    3c8e:	85 c0                	test   %eax,%eax
    3c90:	0f 84 1d 03 00 00    	je     3fb3 <tcp_pdu_encode+0x343>
    3c96:	89 c3                	mov    %eax,%ebx
    3c98:	8b 46 04             	mov    0x4(%esi),%eax
    3c9b:	89 03                	mov    %eax,(%ebx)
    3c9d:	8b 46 08             	mov    0x8(%esi),%eax
    3ca0:	89 43 04             	mov    %eax,0x4(%ebx)
    3ca3:	8b 46 0c             	mov    0xc(%esi),%eax
    3ca6:	89 43 08             	mov    %eax,0x8(%ebx)
    3ca9:	8b 46 10             	mov    0x10(%esi),%eax
    3cac:	89 43 0c             	mov    %eax,0xc(%ebx)
    3caf:	8b 46 14             	mov    0x14(%esi),%eax
    3cb2:	89 43 10             	mov    %eax,0x10(%ebx)
    3cb5:	8b 46 1c             	mov    0x1c(%esi),%eax
    3cb8:	89 43 14             	mov    %eax,0x14(%ebx)
    3cbb:	8b 46 20             	mov    0x20(%esi),%eax
    3cbe:	89 43 18             	mov    %eax,0x18(%ebx)
    3cc1:	8b 46 24             	mov    0x24(%esi),%eax
    3cc4:	89 43 1c             	mov    %eax,0x1c(%ebx)
    3cc7:	8b 46 28             	mov    0x28(%esi),%eax
    3cca:	89 43 20             	mov    %eax,0x20(%ebx)
    3ccd:	8b 46 2c             	mov    0x2c(%esi),%eax
    3cd0:	89 43 24             	mov    %eax,0x24(%ebx)
    3cd3:	51                   	push   %ecx
    3cd4:	51                   	push   %ecx
    3cd5:	6a 14                	push   $0x14
    3cd7:	6a 01                	push   $0x1
    3cd9:	e8 62 6b 00 00       	call   a840 <calloc@plt>
    3cde:	83 c4 10             	add    $0x10,%esp
    3ce1:	85 c0                	test   %eax,%eax
    3ce3:	0f 84 be 02 00 00    	je     3fa7 <tcp_pdu_encode+0x337>
    3ce9:	66 8b 56 30          	mov    0x30(%esi),%dx
    3ced:	66 8b 4e 18          	mov    0x18(%esi),%cx
    3cf1:	66 c1 c2 08          	rol    $0x8,%dx
    3cf5:	66 89 50 02          	mov    %dx,0x2(%eax)
    3cf9:	8b 57 04             	mov    0x4(%edi),%edx
    3cfc:	0f ca                	bswap  %edx
    3cfe:	66 c1 c1 08          	rol    $0x8,%cx
    3d02:	89 50 04             	mov    %edx,0x4(%eax)
    3d05:	8b 57 08             	mov    0x8(%edi),%edx
    3d08:	66 89 08             	mov    %cx,(%eax)
    3d0b:	8b 0f                	mov    (%edi),%ecx
    3d0d:	0f ca                	bswap  %edx
    3d0f:	89 50 08             	mov    %edx,0x8(%eax)
    3d12:	f6 c1 08             	test   $0x8,%cl
    3d15:	0f 85 7d 02 00 00    	jne    3f98 <tcp_pdu_encode+0x328>
    3d1b:	be 04 50 00 00       	mov    $0x5004,%esi
    3d20:	ba 00 50 00 00       	mov    $0x5000,%edx
    3d25:	f6 c1 04             	test   $0x4,%cl
    3d28:	74 02                	je     3d2c <tcp_pdu_encode+0xbc>
    3d2a:	89 f2                	mov    %esi,%edx
    3d2c:	f6 c1 01             	test   $0x1,%cl
    3d2f:	74 03                	je     3d34 <tcp_pdu_encode+0xc4>
    3d31:	83 ca 02             	or     $0x2,%edx
    3d34:	83 e1 02             	and    $0x2,%ecx
    3d37:	74 03                	je     3d3c <tcp_pdu_encode+0xcc>
    3d39:	83 ca 01             	or     $0x1,%edx
    3d3c:	c1 e2 08             	shl    $0x8,%edx
    3d3f:	83 ec 0c             	sub    $0xc,%esp
    3d42:	83 ca 50             	or     $0x50,%edx
    3d45:	66 c7 40 10 00 00    	movw   $0x0,0x10(%eax)
    3d4b:	66 89 50 0c          	mov    %dx,0xc(%eax)
    3d4f:	8b 57 10             	mov    0x10(%edi),%edx
    3d52:	66 c1 c2 08          	rol    $0x8,%dx
    3d56:	66 89 50 0e          	mov    %dx,0xe(%eax)
    3d5a:	8b 57 14             	mov    0x14(%edi),%edx
    3d5d:	66 c1 c2 08          	rol    $0x8,%dx
    3d61:	66 89 50 12          	mov    %dx,0x12(%eax)
    3d65:	89 43 28             	mov    %eax,0x28(%ebx)
    3d68:	c7 43 2c 14 00 00 00 	movl   $0x14,0x2c(%ebx)
    3d6f:	57                   	push   %edi
    3d70:	e8 0b 09 00 00       	call   4680 <tcp_segment_text_size>
    3d75:	89 c6                	mov    %eax,%esi
    3d77:	58                   	pop    %eax
    3d78:	5a                   	pop    %edx
    3d79:	56                   	push   %esi
    3d7a:	6a 01                	push   $0x1
    3d7c:	e8 bf 6a 00 00       	call   a840 <calloc@plt>
    3d81:	83 c4 10             	add    $0x10,%esp
    3d84:	89 43 30             	mov    %eax,0x30(%ebx)
    3d87:	85 c0                	test   %eax,%eax
    3d89:	0f 84 09 03 00 00    	je     4098 <tcp_pdu_encode+0x428>
    3d8f:	89 73 34             	mov    %esi,0x34(%ebx)
    3d92:	52                   	push   %edx
    3d93:	8b 4f 18             	mov    0x18(%edi),%ecx
    3d96:	56                   	push   %esi
    3d97:	51                   	push   %ecx
    3d98:	50                   	push   %eax
    3d99:	e8 d2 69 00 00       	call   a770 <memcpy@plt>
    3d9e:	83 c4 0c             	add    $0xc,%esp
    3da1:	8d 55 a0             	lea    -0x60(%ebp),%edx
    3da4:	8d 45 8c             	lea    -0x74(%ebp),%eax
    3da7:	52                   	push   %edx
    3da8:	89 55 84             	mov    %edx,-0x7c(%ebp)
    3dab:	50                   	push   %eax
    3dac:	53                   	push   %ebx
    3dad:	e8 1e 6b 00 00       	call   a8d0 <inet_addr_get@plt>
    3db2:	83 c4 0c             	add    $0xc,%esp
    3db5:	89 c6                	mov    %eax,%esi
    3db7:	8d 7d b0             	lea    -0x50(%ebp),%edi
    3dba:	8d 45 90             	lea    -0x70(%ebp),%eax
    3dbd:	57                   	push   %edi
    3dbe:	50                   	push   %eax
    3dbf:	8d 43 14             	lea    0x14(%ebx),%eax
    3dc2:	50                   	push   %eax
    3dc3:	e8 08 6b 00 00       	call   a8d0 <inet_addr_get@plt>
    3dc8:	83 c4 10             	add    $0x10,%esp
    3dcb:	8b 55 84             	mov    -0x7c(%ebp),%edx
    3dce:	66 39 c6             	cmp    %ax,%si
    3dd1:	0f 85 e2 02 00 00    	jne    40b9 <tcp_pdu_encode+0x449>
    3dd7:	81 e6 ff ff 00 00    	and    $0xffff,%esi
    3ddd:	83 fe 01             	cmp    $0x1,%esi
    3de0:	0f 84 f2 01 00 00    	je     3fd8 <tcp_pdu_encode+0x368>
    3de6:	83 fe 02             	cmp    $0x2,%esi
    3de9:	0f 85 d1 01 00 00    	jne    3fc0 <tcp_pdu_encode+0x350>
    3def:	8d 75 c0             	lea    -0x40(%ebp),%esi
    3df2:	51                   	push   %ecx
    3df3:	51                   	push   %ecx
    3df4:	56                   	push   %esi
    3df5:	52                   	push   %edx
    3df6:	e8 95 69 00 00       	call   a790 <host2addr128_t_be@plt>
    3dfb:	58                   	pop    %eax
    3dfc:	8d 45 d0             	lea    -0x30(%ebp),%eax
    3dff:	5a                   	pop    %edx
    3e00:	50                   	push   %eax
    3e01:	57                   	push   %edi
    3e02:	e8 89 69 00 00       	call   a790 <host2addr128_t_be@plt>
    3e07:	8b 4b 2c             	mov    0x2c(%ebx),%ecx
    3e0a:	8b 43 34             	mov    0x34(%ebx),%eax
    3e0d:	01 c8                	add    %ecx,%eax
    3e0f:	83 c4 0c             	add    $0xc,%esp
    3e12:	0f c8                	bswap  %eax
    3e14:	89 45 e0             	mov    %eax,-0x20(%ebp)
    3e17:	8d 45 e4             	lea    -0x1c(%ebp),%eax
    3e1a:	6a 03                	push   $0x3
    3e1c:	6a 00                	push   $0x0
    3e1e:	50                   	push   %eax
    3e1f:	e8 cc 6a 00 00       	call   a8f0 <memset@plt>
    3e24:	89 f1                	mov    %esi,%ecx
    3e26:	c6 45 e7 06          	movb   $0x6,-0x19(%ebp)
    3e2a:	8d 75 e8             	lea    -0x18(%ebp),%esi
    3e2d:	83 c4 10             	add    $0x10,%esp
    3e30:	31 d2                	xor    %edx,%edx
    3e32:	8d b6 00 00 00 00    	lea    0x0(%esi),%esi
    3e38:	31 c0                	xor    %eax,%eax
    3e3a:	81 e2 ff ff 00 00    	and    $0xffff,%edx
    3e40:	8a 01                	mov    (%ecx),%al
    3e42:	83 c1 02             	add    $0x2,%ecx
    3e45:	c1 e0 08             	shl    $0x8,%eax
    3e48:	89 c7                	mov    %eax,%edi
    3e4a:	31 c0                	xor    %eax,%eax
    3e4c:	8a 41 ff             	mov    -0x1(%ecx),%al
    3e4f:	09 f8                	or     %edi,%eax
    3e51:	25 ff ff 00 00       	and    $0xffff,%eax
    3e56:	01 d0                	add    %edx,%eax
    3e58:	89 c2                	mov    %eax,%edx
    3e5a:	c1 ea 10             	shr    $0x10,%edx
    3e5d:	01 c2                	add    %eax,%edx
    3e5f:	39 ce                	cmp    %ecx,%esi
    3e61:	75 d5                	jne    3e38 <tcp_pdu_encode+0x1c8>
    3e63:	8b 7b 2c             	mov    0x2c(%ebx),%edi
    3e66:	89 d0                	mov    %edx,%eax
    3e68:	89 7d 84             	mov    %edi,-0x7c(%ebp)
    3e6b:	8b 7b 34             	mov    0x34(%ebx),%edi
    3e6e:	83 f0 ff             	xor    $0xffffffff,%eax
    3e71:	89 7d 80             	mov    %edi,-0x80(%ebp)
    3e74:	8b 55 84             	mov    -0x7c(%ebp),%edx
    3e77:	8b 7b 28             	mov    0x28(%ebx),%edi
    3e7a:	83 f0 ff             	xor    $0xffffffff,%eax
    3e7d:	89 bd 7c ff ff ff    	mov    %edi,-0x84(%ebp)
    3e83:	d1 ea                	shr    %edx
    3e85:	74 37                	je     3ebe <tcp_pdu_encode+0x24e>
    3e87:	89 fe                	mov    %edi,%esi
    3e89:	89 c1                	mov    %eax,%ecx
    3e8b:	8d 3c 57             	lea    (%edi,%edx,2),%edi
    3e8e:	66 90                	xchg   %ax,%ax
    3e90:	31 d2                	xor    %edx,%edx
    3e92:	83 c6 02             	add    $0x2,%esi
    3e95:	8a 56 fe             	mov    -0x2(%esi),%dl
    3e98:	89 d0                	mov    %edx,%eax
    3e9a:	31 d2                	xor    %edx,%edx
    3e9c:	c1 e0 08             	shl    $0x8,%eax
    3e9f:	8a 56 ff             	mov    -0x1(%esi),%dl
    3ea2:	09 c2                	or     %eax,%edx
    3ea4:	31 c0                	xor    %eax,%eax
    3ea6:	81 e2 ff ff 00 00    	and    $0xffff,%edx
    3eac:	66 89 c8             	mov    %cx,%ax
    3eaf:	01 d0                	add    %edx,%eax
    3eb1:	89 c1                	mov    %eax,%ecx
    3eb3:	c1 e9 10             	shr    $0x10,%ecx
    3eb6:	01 c1                	add    %eax,%ecx
    3eb8:	39 f7                	cmp    %esi,%edi
    3eba:	75 d4                	jne    3e90 <tcp_pdu_encode+0x220>
    3ebc:	89 c8                	mov    %ecx,%eax
    3ebe:	8b 7d 84             	mov    -0x7c(%ebp),%edi
    3ec1:	f7 c7 01 00 00 00    	test   $0x1,%edi
    3ec7:	74 2e                	je     3ef7 <tcp_pdu_encode+0x287>
    3ec9:	89 fa                	mov    %edi,%edx
    3ecb:	8b b5 7c ff ff ff    	mov    -0x84(%ebp),%esi
    3ed1:	83 e2 fe             	and    $0xfffffffe,%edx
    3ed4:	25 ff ff 00 00       	and    $0xffff,%eax
    3ed9:	0f b6 3c 16          	movzbl (%esi,%edx,1),%edi
    3edd:	81 e7 ff 00 00 00    	and    $0xff,%edi
    3ee3:	89 fa                	mov    %edi,%edx
    3ee5:	c1 e2 08             	shl    $0x8,%edx
    3ee8:	81 e2 ff ff 00 00    	and    $0xffff,%edx
    3eee:	01 d0                	add    %edx,%eax
    3ef0:	89 c2                	mov    %eax,%edx
    3ef2:	c1 ea 10             	shr    $0x10,%edx
    3ef5:	01 d0                	add    %edx,%eax
    3ef7:	8b 55 80             	mov    -0x80(%ebp),%edx
    3efa:	8b 7b 30             	mov    0x30(%ebx),%edi
    3efd:	d1 ea                	shr    %edx
    3eff:	89 7d 84             	mov    %edi,-0x7c(%ebp)
    3f02:	74 3a                	je     3f3e <tcp_pdu_encode+0x2ce>
    3f04:	89 fe                	mov    %edi,%esi
    3f06:	89 c1                	mov    %eax,%ecx
    3f08:	8d 3c 57             	lea    (%edi,%edx,2),%edi
    3f0b:	90                   	nop
    3f0c:	8d 74 26 00          	lea    0x0(%esi,%eiz,1),%esi
    3f10:	31 d2                	xor    %edx,%edx
    3f12:	83 c6 02             	add    $0x2,%esi
    3f15:	8a 56 fe             	mov    -0x2(%esi),%dl
    3f18:	89 d0                	mov    %edx,%eax
    3f1a:	31 d2                	xor    %edx,%edx
    3f1c:	c1 e0 08             	shl    $0x8,%eax
    3f1f:	8a 56 ff             	mov    -0x1(%esi),%dl
    3f22:	09 c2                	or     %eax,%edx
    3f24:	31 c0                	xor    %eax,%eax
    3f26:	81 e2 ff ff 00 00    	and    $0xffff,%edx
    3f2c:	66 89 c8             	mov    %cx,%ax
    3f2f:	01 d0                	add    %edx,%eax
    3f31:	89 c1                	mov    %eax,%ecx
    3f33:	c1 e9 10             	shr    $0x10,%ecx
    3f36:	01 c1                	add    %eax,%ecx
    3f38:	39 f7                	cmp    %esi,%edi
    3f3a:	75 d4                	jne    3f10 <tcp_pdu_encode+0x2a0>
    3f3c:	89 c8                	mov    %ecx,%eax
    3f3e:	8b 7d 80             	mov    -0x80(%ebp),%edi
    3f41:	f7 c7 01 00 00 00    	test   $0x1,%edi
    3f47:	74 2b                	je     3f74 <tcp_pdu_encode+0x304>
    3f49:	89 fa                	mov    %edi,%edx
    3f4b:	8b 75 84             	mov    -0x7c(%ebp),%esi
    3f4e:	83 e2 fe             	and    $0xfffffffe,%edx
    3f51:	25 ff ff 00 00       	and    $0xffff,%eax
    3f56:	0f b6 3c 16          	movzbl (%esi,%edx,1),%edi
    3f5a:	81 e7 ff 00 00 00    	and    $0xff,%edi
    3f60:	89 fa                	mov    %edi,%edx
    3f62:	c1 e2 08             	shl    $0x8,%edx
    3f65:	81 e2 ff ff 00 00    	and    $0xffff,%edx
    3f6b:	01 d0                	add    %edx,%eax
    3f6d:	89 c2                	mov    %eax,%edx
    3f6f:	c1 ea 10             	shr    $0x10,%edx
    3f72:	01 d0                	add    %edx,%eax
    3f74:	8b bd 7c ff ff ff    	mov    -0x84(%ebp),%edi
    3f7a:	83 f0 ff             	xor    $0xffffffff,%eax
    3f7d:	66 c1 c0 08          	rol    $0x8,%ax
    3f81:	66 89 47 10          	mov    %ax,0x10(%edi)
    3f85:	8b 45 10             	mov    0x10(%ebp),%eax
    3f88:	89 18                	mov    %ebx,(%eax)
    3f8a:	8d 65 f4             	lea    -0xc(%ebp),%esp
    3f8d:	31 c0                	xor    %eax,%eax
    3f8f:	5b                   	pop    %ebx
    3f90:	5e                   	pop    %esi
    3f91:	5f                   	pop    %edi
    3f92:	5d                   	pop    %ebp
    3f93:	c3                   	ret    
    3f94:	8d 74 26 00          	lea    0x0(%esi,%eiz,1),%esi
    3f98:	be 14 50 00 00       	mov    $0x5014,%esi
    3f9d:	ba 10 50 00 00       	mov    $0x5010,%edx
    3fa2:	e9 7e fd ff ff       	jmp    3d25 <tcp_pdu_encode+0xb5>
    3fa7:	83 ec 0c             	sub    $0xc,%esp
    3faa:	53                   	push   %ebx
    3fab:	e8 a0 6a 00 00       	call   aa50 <free@plt>
    3fb0:	83 c4 10             	add    $0x10,%esp
    3fb3:	b8 fe ff ff ff       	mov    $0xfffffffe,%eax
    3fb8:	8d 65 f4             	lea    -0xc(%ebp),%esp
    3fbb:	5b                   	pop    %ebx
    3fbc:	5e                   	pop    %esi
    3fbd:	5f                   	pop    %edi
    3fbe:	5d                   	pop    %ebp
    3fbf:	c3                   	ret    
    3fc0:	50                   	push   %eax
    3fc1:	68 b2 00 00 00       	push   $0xb2
    3fc6:	68 08 92 00 00       	push   $0x9208
    3fcb:	68 d3 8b 00 00       	push   $0x8bd3
    3fd0:	e8 5b 68 00 00       	call   a830 <assert_abort@plt>
    3fd5:	8d 76 00             	lea    0x0(%esi),%esi
    3fd8:	8b 55 8c             	mov    -0x74(%ebp),%edx
    3fdb:	8b 7b 2c             	mov    0x2c(%ebx),%edi
    3fde:	0f ca                	bswap  %edx
    3fe0:	89 f9                	mov    %edi,%ecx
    3fe2:	89 7d 84             	mov    %edi,-0x7c(%ebp)
    3fe5:	89 d7                	mov    %edx,%edi
    3fe7:	8b 73 34             	mov    0x34(%ebx),%esi
    3fea:	c1 ef 08             	shr    $0x8,%edi
    3fed:	01 f1                	add    %esi,%ecx
    3fef:	81 e7 00 ff 00 00    	and    $0xff00,%edi
    3ff5:	89 55 94             	mov    %edx,-0x6c(%ebp)
    3ff8:	89 75 80             	mov    %esi,-0x80(%ebp)
    3ffb:	89 d6                	mov    %edx,%esi
    3ffd:	c1 ea 18             	shr    $0x18,%edx
    4000:	8b 45 90             	mov    -0x70(%ebp),%eax
    4003:	66 c1 c6 08          	rol    $0x8,%si
    4007:	09 fa                	or     %edi,%edx
    4009:	81 e6 ff ff 00 00    	and    $0xffff,%esi
    400f:	81 e2 ff ff 00 00    	and    $0xffff,%edx
    4015:	01 d6                	add    %edx,%esi
    4017:	89 f2                	mov    %esi,%edx
    4019:	c1 ea 10             	shr    $0x10,%edx
    401c:	0f c8                	bswap  %eax
    401e:	01 d6                	add    %edx,%esi
    4020:	31 d2                	xor    %edx,%edx
    4022:	66 89 f2             	mov    %si,%dx
    4025:	89 c6                	mov    %eax,%esi
    4027:	66 c1 c6 08          	rol    $0x8,%si
    402b:	81 e6 ff ff 00 00    	and    $0xffff,%esi
    4031:	89 45 98             	mov    %eax,-0x68(%ebp)
    4034:	01 d6                	add    %edx,%esi
    4036:	89 f2                	mov    %esi,%edx
    4038:	c1 ea 10             	shr    $0x10,%edx
    403b:	01 f2                	add    %esi,%edx
    403d:	89 c6                	mov    %eax,%esi
    403f:	c1 ee 08             	shr    $0x8,%esi
    4042:	81 e2 ff ff 00 00    	and    $0xffff,%edx
    4048:	c1 e8 18             	shr    $0x18,%eax
    404b:	81 e6 00 ff 00 00    	and    $0xff00,%esi
    4051:	09 f0                	or     %esi,%eax
    4053:	25 ff ff 00 00       	and    $0xffff,%eax
    4058:	01 c2                	add    %eax,%edx
    405a:	89 d0                	mov    %edx,%eax
    405c:	c1 e8 10             	shr    $0x10,%eax
    405f:	01 d0                	add    %edx,%eax
    4061:	25 ff ff 00 00       	and    $0xffff,%eax
    4066:	83 c0 06             	add    $0x6,%eax
    4069:	89 c6                	mov    %eax,%esi
    406b:	c1 ee 10             	shr    $0x10,%esi
    406e:	01 f0                	add    %esi,%eax
    4070:	31 f6                	xor    %esi,%esi
    4072:	66 c1 c1 08          	rol    $0x8,%cx
    4076:	66 89 c6             	mov    %ax,%si
    4079:	66 89 4d 9e          	mov    %cx,-0x62(%ebp)
    407d:	66 c1 c1 08          	rol    $0x8,%cx
    4081:	31 c0                	xor    %eax,%eax
    4083:	66 89 c8             	mov    %cx,%ax
    4086:	8d 14 30             	lea    (%eax,%esi,1),%edx
    4089:	89 d0                	mov    %edx,%eax
    408b:	c1 e8 10             	shr    $0x10,%eax
    408e:	01 d0                	add    %edx,%eax
    4090:	83 f0 ff             	xor    $0xffffffff,%eax
    4093:	e9 dc fd ff ff       	jmp    3e74 <tcp_pdu_encode+0x204>
    4098:	83 ec 0c             	sub    $0xc,%esp
    409b:	8b 73 28             	mov    0x28(%ebx),%esi
    409e:	56                   	push   %esi
    409f:	e8 ac 69 00 00       	call   aa50 <free@plt>
    40a4:	89 1c 24             	mov    %ebx,(%esp)
    40a7:	e8 a4 69 00 00       	call   aa50 <free@plt>
    40ac:	83 c4 10             	add    $0x10,%esp
    40af:	b8 fe ff ff ff       	mov    $0xfffffffe,%eax
    40b4:	e9 ff fe ff ff       	jmp    3fb8 <tcp_pdu_encode+0x348>
    40b9:	53                   	push   %ebx
    40ba:	68 9e 00 00 00       	push   $0x9e
    40bf:	68 08 92 00 00       	push   $0x9208
    40c4:	68 0e 92 00 00       	push   $0x920e
    40c9:	e8 62 67 00 00       	call   a830 <assert_abort@plt>
    40ce:	66 90                	xchg   %ax,%ax

000040d0 <tcp_rqueue_fibril>:
    40d0:	55                   	push   %ebp
    40d1:	89 e5                	mov    %esp,%ebp
    40d3:	53                   	push   %ebx
    40d4:	83 ec 08             	sub    $0x8,%esp
    40d7:	68 22 92 00 00       	push   $0x9222
    40dc:	6a 04                	push   $0x4
    40de:	6a ff                	push   $0xffffffff
    40e0:	e8 eb 66 00 00       	call   a7d0 <log_msg@plt>
    40e5:	83 c4 10             	add    $0x10,%esp
    40e8:	83 ec 0c             	sub    $0xc,%esp
    40eb:	68 40 c6 00 00       	push   $0xc640
    40f0:	e8 eb 67 00 00       	call   a8e0 <prodcons_consume@plt>
    40f5:	89 c3                	mov    %eax,%ebx
    40f7:	58                   	pop    %eax
    40f8:	5a                   	pop    %edx
    40f9:	8b 4b 3c             	mov    0x3c(%ebx),%ecx
    40fc:	8d 43 08             	lea    0x8(%ebx),%eax
    40ff:	51                   	push   %ecx
    4100:	50                   	push   %eax
    4101:	e8 9a 35 00 00       	call   76a0 <tcp_as_segment_arrived>
    4106:	89 1c 24             	mov    %ebx,(%esp)
    4109:	e8 42 69 00 00       	call   aa50 <free@plt>
    410e:	83 c4 10             	add    $0x10,%esp
    4111:	eb d5                	jmp    40e8 <tcp_rqueue_fibril+0x18>
    4113:	8d b6 00 00 00 00    	lea    0x0(%esi),%esi
    4119:	8d bc 27 00 00 00 00 	lea    0x0(%edi,%eiz,1),%edi

00004120 <tcp_rqueue_init>:
    4120:	55                   	push   %ebp
    4121:	89 e5                	mov    %esp,%ebp
    4123:	83 ec 14             	sub    $0x14,%esp
    4126:	68 40 c6 00 00       	push   $0xc640
    412b:	e8 90 67 00 00       	call   a8c0 <prodcons_initialize@plt>
    4130:	83 c4 10             	add    $0x10,%esp
    4133:	c9                   	leave  
    4134:	c3                   	ret    
    4135:	8d 74 26 00          	lea    0x0(%esi,%eiz,1),%esi
    4139:	8d bc 27 00 00 00 00 	lea    0x0(%edi,%eiz,1),%edi

00004140 <tcp_rqueue_bounce_seg>:
    4140:	55                   	push   %ebp
    4141:	89 e5                	mov    %esp,%ebp
    4143:	57                   	push   %edi
    4144:	56                   	push   %esi
    4145:	53                   	push   %ebx
    4146:	83 ec 50             	sub    $0x50,%esp
    4149:	68 36 92 00 00       	push   $0x9236
    414e:	6a 04                	push   $0x4
    4150:	6a ff                	push   $0xffffffff
    4152:	e8 79 66 00 00       	call   a7d0 <log_msg@plt>
    4157:	83 c4 0c             	add    $0xc,%esp
    415a:	8d 45 ac             	lea    -0x54(%ebp),%eax
    415d:	50                   	push   %eax
    415e:	8b 45 0c             	mov    0xc(%ebp),%eax
    4161:	50                   	push   %eax
    4162:	8b 45 08             	mov    0x8(%ebp),%eax
    4165:	50                   	push   %eax
    4166:	e8 05 fb ff ff       	call   3c70 <tcp_pdu_encode>
    416b:	83 c4 10             	add    $0x10,%esp
    416e:	85 c0                	test   %eax,%eax
    4170:	75 19                	jne    418b <tcp_rqueue_bounce_seg+0x4b>
    4172:	50                   	push   %eax
    4173:	8d 45 b0             	lea    -0x50(%ebp),%eax
    4176:	50                   	push   %eax
    4177:	8d 75 b4             	lea    -0x4c(%ebp),%esi
    417a:	8b 45 ac             	mov    -0x54(%ebp),%eax
    417d:	56                   	push   %esi
    417e:	50                   	push   %eax
    417f:	e8 ac f9 ff ff       	call   3b30 <tcp_pdu_decode>
    4184:	83 c4 10             	add    $0x10,%esp
    4187:	85 c0                	test   %eax,%eax
    4189:	74 1d                	je     41a8 <tcp_rqueue_bounce_seg+0x68>
    418b:	50                   	push   %eax
    418c:	68 98 92 00 00       	push   $0x9298
    4191:	6a 02                	push   $0x2
    4193:	6a ff                	push   $0xffffffff
    4195:	e8 36 66 00 00       	call   a7d0 <log_msg@plt>
    419a:	83 c4 10             	add    $0x10,%esp
    419d:	8d 65 f4             	lea    -0xc(%ebp),%esp
    41a0:	5b                   	pop    %ebx
    41a1:	5e                   	pop    %esi
    41a2:	5f                   	pop    %edi
    41a3:	5d                   	pop    %ebp
    41a4:	c3                   	ret    
    41a5:	8d 76 00             	lea    0x0(%esi),%esi
    41a8:	83 ec 0c             	sub    $0xc,%esp
    41ab:	8b 5d ac             	mov    -0x54(%ebp),%ebx
    41ae:	53                   	push   %ebx
    41af:	e8 4c f9 ff ff       	call   3b00 <tcp_pdu_delete>
    41b4:	83 c4 0c             	add    $0xc,%esp
    41b7:	8b 5d b0             	mov    -0x50(%ebp),%ebx
    41ba:	68 4e 92 00 00       	push   $0x924e
    41bf:	6a 04                	push   $0x4
    41c1:	6a ff                	push   $0xffffffff
    41c3:	e8 08 66 00 00       	call   a7d0 <log_msg@plt>
    41c8:	89 1c 24             	mov    %ebx,(%esp)
    41cb:	e8 d0 04 00 00       	call   46a0 <tcp_segment_dump>
    41d0:	5f                   	pop    %edi
    41d1:	58                   	pop    %eax
    41d2:	6a 40                	push   $0x40
    41d4:	6a 01                	push   $0x1
    41d6:	e8 65 66 00 00       	call   a840 <calloc@plt>
    41db:	83 c4 10             	add    $0x10,%esp
    41de:	85 c0                	test   %eax,%eax
    41e0:	74 36                	je     4218 <tcp_rqueue_bounce_seg+0xd8>
    41e2:	8d 78 08             	lea    0x8(%eax),%edi
    41e5:	b9 0d 00 00 00       	mov    $0xd,%ecx
    41ea:	f3 a5                	rep movsl %ds:(%esi),%es:(%edi)
    41ec:	89 58 3c             	mov    %ebx,0x3c(%eax)
    41ef:	52                   	push   %edx
    41f0:	52                   	push   %edx
    41f1:	50                   	push   %eax
    41f2:	68 40 c6 00 00       	push   $0xc640
    41f7:	e8 94 67 00 00       	call   a990 <prodcons_produce@plt>
    41fc:	83 c4 10             	add    $0x10,%esp
    41ff:	83 ec 0c             	sub    $0xc,%esp
    4202:	8b 45 0c             	mov    0xc(%ebp),%eax
    4205:	50                   	push   %eax
    4206:	e8 25 01 00 00       	call   4330 <tcp_segment_delete>
    420b:	83 c4 10             	add    $0x10,%esp
    420e:	8d 65 f4             	lea    -0xc(%ebp),%esp
    4211:	5b                   	pop    %ebx
    4212:	5e                   	pop    %esi
    4213:	5f                   	pop    %edi
    4214:	5d                   	pop    %ebp
    4215:	c3                   	ret    
    4216:	66 90                	xchg   %ax,%ax
    4218:	51                   	push   %ecx
    4219:	68 66 92 00 00       	push   $0x9266
    421e:	6a 01                	push   $0x1
    4220:	6a ff                	push   $0xffffffff
    4222:	e8 a9 65 00 00       	call   a7d0 <log_msg@plt>
    4227:	83 c4 10             	add    $0x10,%esp
    422a:	eb d3                	jmp    41ff <tcp_rqueue_bounce_seg+0xbf>
    422c:	8d 74 26 00          	lea    0x0(%esi,%eiz,1),%esi

00004230 <tcp_rqueue_insert_seg>:
    4230:	55                   	push   %ebp
    4231:	89 e5                	mov    %esp,%ebp
    4233:	57                   	push   %edi
    4234:	56                   	push   %esi
    4235:	53                   	push   %ebx
    4236:	83 ec 10             	sub    $0x10,%esp
    4239:	8b 5d 0c             	mov    0xc(%ebp),%ebx
    423c:	8b 75 08             	mov    0x8(%ebp),%esi
    423f:	68 4e 92 00 00       	push   $0x924e
    4244:	6a 04                	push   $0x4
    4246:	6a ff                	push   $0xffffffff
    4248:	e8 83 65 00 00       	call   a7d0 <log_msg@plt>
    424d:	89 1c 24             	mov    %ebx,(%esp)
    4250:	e8 4b 04 00 00       	call   46a0 <tcp_segment_dump>
    4255:	5a                   	pop    %edx
    4256:	59                   	pop    %ecx
    4257:	6a 40                	push   $0x40
    4259:	6a 01                	push   $0x1
    425b:	e8 e0 65 00 00       	call   a840 <calloc@plt>
    4260:	83 c4 10             	add    $0x10,%esp
    4263:	85 c0                	test   %eax,%eax
    4265:	74 29                	je     4290 <tcp_rqueue_insert_seg+0x60>
    4267:	8d 78 08             	lea    0x8(%eax),%edi
    426a:	b9 0d 00 00 00       	mov    $0xd,%ecx
    426f:	f3 a5                	rep movsl %ds:(%esi),%es:(%edi)
    4271:	89 58 3c             	mov    %ebx,0x3c(%eax)
    4274:	89 45 0c             	mov    %eax,0xc(%ebp)
    4277:	c7 45 08 40 c6 00 00 	movl   $0xc640,0x8(%ebp)
    427e:	8d 65 f4             	lea    -0xc(%ebp),%esp
    4281:	5b                   	pop    %ebx
    4282:	5e                   	pop    %esi
    4283:	5f                   	pop    %edi
    4284:	5d                   	pop    %ebp
    4285:	e9 06 67 00 00       	jmp    a990 <prodcons_produce@plt>
    428a:	8d b6 00 00 00 00    	lea    0x0(%esi),%esi
    4290:	50                   	push   %eax
    4291:	68 66 92 00 00       	push   $0x9266
    4296:	6a 01                	push   $0x1
    4298:	6a ff                	push   $0xffffffff
    429a:	e8 31 65 00 00       	call   a7d0 <log_msg@plt>
    429f:	83 c4 10             	add    $0x10,%esp
    42a2:	8d 65 f4             	lea    -0xc(%ebp),%esp
    42a5:	5b                   	pop    %ebx
    42a6:	5e                   	pop    %esi
    42a7:	5f                   	pop    %edi
    42a8:	5d                   	pop    %ebp
    42a9:	c3                   	ret    
    42aa:	8d b6 00 00 00 00    	lea    0x0(%esi),%esi

000042b0 <tcp_rqueue_fibril_start>:
    42b0:	55                   	push   %ebp
    42b1:	89 e5                	mov    %esp,%ebp
    42b3:	83 ec 0c             	sub    $0xc,%esp
    42b6:	68 7d 92 00 00       	push   $0x927d
    42bb:	6a 04                	push   $0x4
    42bd:	6a ff                	push   $0xffffffff
    42bf:	e8 0c 65 00 00       	call   a7d0 <log_msg@plt>
    42c4:	83 c4 0c             	add    $0xc,%esp
    42c7:	6a 00                	push   $0x0
    42c9:	6a 00                	push   $0x0
    42cb:	68 d0 40 00 00       	push   $0x40d0
    42d0:	e8 db 66 00 00       	call   a9b0 <fibril_create_generic@plt>
    42d5:	83 c4 10             	add    $0x10,%esp
    42d8:	85 c0                	test   %eax,%eax
    42da:	74 14                	je     42f0 <tcp_rqueue_fibril_start+0x40>
    42dc:	83 ec 0c             	sub    $0xc,%esp
    42df:	50                   	push   %eax
    42e0:	e8 db 66 00 00       	call   a9c0 <fibril_add_ready@plt>
    42e5:	83 c4 10             	add    $0x10,%esp
    42e8:	c9                   	leave  
    42e9:	c3                   	ret    
    42ea:	8d b6 00 00 00 00    	lea    0x0(%esi),%esi
    42f0:	50                   	push   %eax
    42f1:	68 bc 92 00 00       	push   $0x92bc
    42f6:	6a 01                	push   $0x1
    42f8:	6a ff                	push   $0xffffffff
    42fa:	e8 d1 64 00 00       	call   a7d0 <log_msg@plt>
    42ff:	83 c4 10             	add    $0x10,%esp
    4302:	c9                   	leave  
    4303:	c3                   	ret    
    4304:	66 90                	xchg   %ax,%ax
    4306:	66 90                	xchg   %ax,%ax
    4308:	66 90                	xchg   %ax,%ax
    430a:	66 90                	xchg   %ax,%ax
    430c:	66 90                	xchg   %ax,%ax
    430e:	66 90                	xchg   %ax,%ax

00004310 <tcp_segment_new>:
    4310:	55                   	push   %ebp
    4311:	89 e5                	mov    %esp,%ebp
    4313:	83 ec 10             	sub    $0x10,%esp
    4316:	6a 20                	push   $0x20
    4318:	6a 01                	push   $0x1
    431a:	e8 21 65 00 00       	call   a840 <calloc@plt>
    431f:	c9                   	leave  
    4320:	c3                   	ret    
    4321:	eb 0d                	jmp    4330 <tcp_segment_delete>
    4323:	90                   	nop
    4324:	90                   	nop
    4325:	90                   	nop
    4326:	90                   	nop
    4327:	90                   	nop
    4328:	90                   	nop
    4329:	90                   	nop
    432a:	90                   	nop
    432b:	90                   	nop
    432c:	90                   	nop
    432d:	90                   	nop
    432e:	90                   	nop
    432f:	90                   	nop

00004330 <tcp_segment_delete>:
    4330:	55                   	push   %ebp
    4331:	89 e5                	mov    %esp,%ebp
    4333:	53                   	push   %ebx
    4334:	83 ec 10             	sub    $0x10,%esp
    4337:	8b 5d 08             	mov    0x8(%ebp),%ebx
    433a:	8b 43 1c             	mov    0x1c(%ebx),%eax
    433d:	50                   	push   %eax
    433e:	e8 0d 67 00 00       	call   aa50 <free@plt>
    4343:	89 5d 08             	mov    %ebx,0x8(%ebp)
    4346:	83 c4 10             	add    $0x10,%esp
    4349:	8b 5d fc             	mov    -0x4(%ebp),%ebx
    434c:	c9                   	leave  
    434d:	e9 fe 66 00 00       	jmp    aa50 <free@plt>
    4352:	8d b4 26 00 00 00 00 	lea    0x0(%esi,%eiz,1),%esi
    4359:	8d bc 27 00 00 00 00 	lea    0x0(%edi,%eiz,1),%edi

00004360 <tcp_segment_dup>:
    4360:	55                   	push   %ebp
    4361:	89 e5                	mov    %esp,%ebp
    4363:	57                   	push   %edi
    4364:	56                   	push   %esi
    4365:	53                   	push   %ebx
    4366:	83 ec 14             	sub    $0x14,%esp
    4369:	8b 75 08             	mov    0x8(%ebp),%esi
    436c:	6a 20                	push   $0x20
    436e:	6a 01                	push   $0x1
    4370:	e8 cb 64 00 00       	call   a840 <calloc@plt>
    4375:	83 c4 10             	add    $0x10,%esp
    4378:	89 c3                	mov    %eax,%ebx
    437a:	85 c0                	test   %eax,%eax
    437c:	74 56                	je     43d4 <tcp_segment_dup+0x74>
    437e:	8b 56 04             	mov    0x4(%esi),%edx
    4381:	83 ec 0c             	sub    $0xc,%esp
    4384:	89 53 04             	mov    %edx,0x4(%ebx)
    4387:	8b 56 08             	mov    0x8(%esi),%edx
    438a:	89 53 08             	mov    %edx,0x8(%ebx)
    438d:	8b 56 10             	mov    0x10(%esi),%edx
    4390:	8b 7e 0c             	mov    0xc(%esi),%edi
    4393:	8b 06                	mov    (%esi),%eax
    4395:	89 53 10             	mov    %edx,0x10(%ebx)
    4398:	8b 56 14             	mov    0x14(%esi),%edx
    439b:	89 7b 0c             	mov    %edi,0xc(%ebx)
    439e:	89 53 14             	mov    %edx,0x14(%ebx)
    43a1:	89 03                	mov    %eax,(%ebx)
    43a3:	50                   	push   %eax
    43a4:	e8 b7 19 00 00       	call   5d60 <seq_no_control_len>
    43a9:	29 c7                	sub    %eax,%edi
    43ab:	58                   	pop    %eax
    43ac:	5a                   	pop    %edx
    43ad:	6a 01                	push   $0x1
    43af:	57                   	push   %edi
    43b0:	e8 8b 64 00 00       	call   a840 <calloc@plt>
    43b5:	83 c4 10             	add    $0x10,%esp
    43b8:	89 43 18             	mov    %eax,0x18(%ebx)
    43bb:	85 c0                	test   %eax,%eax
    43bd:	74 21                	je     43e0 <tcp_segment_dup+0x80>
    43bf:	52                   	push   %edx
    43c0:	57                   	push   %edi
    43c1:	8b 4e 18             	mov    0x18(%esi),%ecx
    43c4:	51                   	push   %ecx
    43c5:	50                   	push   %eax
    43c6:	e8 a5 63 00 00       	call   a770 <memcpy@plt>
    43cb:	8b 43 18             	mov    0x18(%ebx),%eax
    43ce:	89 43 1c             	mov    %eax,0x1c(%ebx)
    43d1:	83 c4 10             	add    $0x10,%esp
    43d4:	8d 65 f4             	lea    -0xc(%ebp),%esp
    43d7:	89 d8                	mov    %ebx,%eax
    43d9:	5b                   	pop    %ebx
    43da:	5e                   	pop    %esi
    43db:	5f                   	pop    %edi
    43dc:	5d                   	pop    %ebp
    43dd:	c3                   	ret    
    43de:	66 90                	xchg   %ax,%ax
    43e0:	83 ec 0c             	sub    $0xc,%esp
    43e3:	53                   	push   %ebx
    43e4:	31 db                	xor    %ebx,%ebx
    43e6:	e8 65 66 00 00       	call   aa50 <free@plt>
    43eb:	83 c4 10             	add    $0x10,%esp
    43ee:	eb e4                	jmp    43d4 <tcp_segment_dup+0x74>

000043f0 <tcp_segment_make_ctrl>:
    43f0:	55                   	push   %ebp
    43f1:	89 e5                	mov    %esp,%ebp
    43f3:	56                   	push   %esi
    43f4:	53                   	push   %ebx
    43f5:	50                   	push   %eax
    43f6:	8b 75 08             	mov    0x8(%ebp),%esi
    43f9:	50                   	push   %eax
    43fa:	6a 20                	push   $0x20
    43fc:	6a 01                	push   $0x1
    43fe:	e8 3d 64 00 00       	call   a840 <calloc@plt>
    4403:	83 c4 10             	add    $0x10,%esp
    4406:	89 c3                	mov    %eax,%ebx
    4408:	85 c0                	test   %eax,%eax
    440a:	74 11                	je     441d <tcp_segment_make_ctrl+0x2d>
    440c:	83 ec 0c             	sub    $0xc,%esp
    440f:	89 30                	mov    %esi,(%eax)
    4411:	56                   	push   %esi
    4412:	e8 49 19 00 00       	call   5d60 <seq_no_control_len>
    4417:	83 c4 10             	add    $0x10,%esp
    441a:	89 43 0c             	mov    %eax,0xc(%ebx)
    441d:	8d 65 f8             	lea    -0x8(%ebp),%esp
    4420:	89 d8                	mov    %ebx,%eax
    4422:	5b                   	pop    %ebx
    4423:	5e                   	pop    %esi
    4424:	5d                   	pop    %ebp
    4425:	c3                   	ret    
    4426:	8d 76 00             	lea    0x0(%esi),%esi
    4429:	8d bc 27 00 00 00 00 	lea    0x0(%edi,%eiz,1),%edi

00004430 <tcp_segment_make_rst>:
    4430:	55                   	push   %ebp
    4431:	89 e5                	mov    %esp,%ebp
    4433:	53                   	push   %ebx
    4434:	83 ec 0c             	sub    $0xc,%esp
    4437:	8b 5d 08             	mov    0x8(%ebp),%ebx
    443a:	6a 20                	push   $0x20
    443c:	6a 01                	push   $0x1
    443e:	e8 fd 63 00 00       	call   a840 <calloc@plt>
    4443:	83 c4 10             	add    $0x10,%esp
    4446:	85 c0                	test   %eax,%eax
    4448:	74 11                	je     445b <tcp_segment_make_rst+0x2b>
    444a:	f6 03 08             	testb  $0x8,(%ebx)
    444d:	74 11                	je     4460 <tcp_segment_make_rst+0x30>
    444f:	8b 53 08             	mov    0x8(%ebx),%edx
    4452:	c7 00 04 00 00 00    	movl   $0x4,(%eax)
    4458:	89 50 04             	mov    %edx,0x4(%eax)
    445b:	8b 5d fc             	mov    -0x4(%ebp),%ebx
    445e:	c9                   	leave  
    445f:	c3                   	ret    
    4460:	8b 53 0c             	mov    0xc(%ebx),%edx
    4463:	8b 4b 04             	mov    0x4(%ebx),%ecx
    4466:	01 ca                	add    %ecx,%edx
    4468:	c7 00 0c 00 00 00    	movl   $0xc,(%eax)
    446e:	c7 40 04 00 00 00 00 	movl   $0x0,0x4(%eax)
    4475:	89 50 08             	mov    %edx,0x8(%eax)
    4478:	8b 5d fc             	mov    -0x4(%ebp),%ebx
    447b:	c9                   	leave  
    447c:	c3                   	ret    
    447d:	8d 76 00             	lea    0x0(%esi),%esi

00004480 <tcp_segment_make_data>:
    4480:	55                   	push   %ebp
    4481:	89 e5                	mov    %esp,%ebp
    4483:	57                   	push   %edi
    4484:	56                   	push   %esi
    4485:	53                   	push   %ebx
    4486:	83 ec 14             	sub    $0x14,%esp
    4489:	8b 7d 08             	mov    0x8(%ebp),%edi
    448c:	8b 75 10             	mov    0x10(%ebp),%esi
    448f:	6a 20                	push   $0x20
    4491:	6a 01                	push   $0x1
    4493:	e8 a8 63 00 00       	call   a840 <calloc@plt>
    4498:	83 c4 10             	add    $0x10,%esp
    449b:	89 c3                	mov    %eax,%ebx
    449d:	85 c0                	test   %eax,%eax
    449f:	74 34                	je     44d5 <tcp_segment_make_data+0x55>
    44a1:	83 ec 0c             	sub    $0xc,%esp
    44a4:	89 38                	mov    %edi,(%eax)
    44a6:	57                   	push   %edi
    44a7:	e8 b4 18 00 00       	call   5d60 <seq_no_control_len>
    44ac:	01 f0                	add    %esi,%eax
    44ae:	89 43 0c             	mov    %eax,0xc(%ebx)
    44b1:	89 34 24             	mov    %esi,(%esp)
    44b4:	e8 c7 62 00 00       	call   a780 <malloc@plt>
    44b9:	83 c4 10             	add    $0x10,%esp
    44bc:	89 43 18             	mov    %eax,0x18(%ebx)
    44bf:	89 43 1c             	mov    %eax,0x1c(%ebx)
    44c2:	85 c0                	test   %eax,%eax
    44c4:	74 1a                	je     44e0 <tcp_segment_make_data+0x60>
    44c6:	8b 4d 0c             	mov    0xc(%ebp),%ecx
    44c9:	52                   	push   %edx
    44ca:	56                   	push   %esi
    44cb:	51                   	push   %ecx
    44cc:	50                   	push   %eax
    44cd:	e8 9e 62 00 00       	call   a770 <memcpy@plt>
    44d2:	83 c4 10             	add    $0x10,%esp
    44d5:	8d 65 f4             	lea    -0xc(%ebp),%esp
    44d8:	89 d8                	mov    %ebx,%eax
    44da:	5b                   	pop    %ebx
    44db:	5e                   	pop    %esi
    44dc:	5f                   	pop    %edi
    44dd:	5d                   	pop    %ebp
    44de:	c3                   	ret    
    44df:	90                   	nop
    44e0:	83 ec 0c             	sub    $0xc,%esp
    44e3:	53                   	push   %ebx
    44e4:	31 db                	xor    %ebx,%ebx
    44e6:	e8 65 65 00 00       	call   aa50 <free@plt>
    44eb:	83 c4 10             	add    $0x10,%esp
    44ee:	eb e5                	jmp    44d5 <tcp_segment_make_data+0x55>

000044f0 <tcp_segment_trim>:
    44f0:	55                   	push   %ebp
    44f1:	89 e5                	mov    %esp,%ebp
    44f3:	57                   	push   %edi
    44f4:	56                   	push   %esi
    44f5:	53                   	push   %ebx
    44f6:	83 ec 1c             	sub    $0x1c,%esp
    44f9:	8b 5d 08             	mov    0x8(%ebp),%ebx
    44fc:	8b 7d 0c             	mov    0xc(%ebp),%edi
    44ff:	8b 55 10             	mov    0x10(%ebp),%edx
    4502:	8b 73 0c             	mov    0xc(%ebx),%esi
    4505:	01 fa                	add    %edi,%edx
    4507:	39 f2                	cmp    %esi,%edx
    4509:	0f 87 d8 00 00 00    	ja     45e7 <tcp_segment_trim+0xf7>
    450f:	39 f7                	cmp    %esi,%edi
    4511:	0f 84 b9 00 00 00    	je     45d0 <tcp_segment_trim+0xe0>
    4517:	39 75 10             	cmp    %esi,0x10(%ebp)
    451a:	74 4c                	je     4568 <tcp_segment_trim+0x78>
    451c:	83 ec 0c             	sub    $0xc,%esp
    451f:	8b 0b                	mov    (%ebx),%ecx
    4521:	89 55 e4             	mov    %edx,-0x1c(%ebp)
    4524:	51                   	push   %ecx
    4525:	e8 36 18 00 00       	call   5d60 <seq_no_control_len>
    452a:	83 c4 10             	add    $0x10,%esp
    452d:	8b 55 e4             	mov    -0x1c(%ebp),%edx
    4530:	85 ff                	test   %edi,%edi
    4532:	74 44                	je     4578 <tcp_segment_trim+0x88>
    4534:	8b 0b                	mov    (%ebx),%ecx
    4536:	f6 c1 01             	test   $0x1,%cl
    4539:	0f 84 89 00 00 00    	je     45c8 <tcp_segment_trim+0xd8>
    453f:	8b 53 04             	mov    0x4(%ebx),%edx
    4542:	83 e1 fe             	and    $0xfffffffe,%ecx
    4545:	42                   	inc    %edx
    4546:	4f                   	dec    %edi
    4547:	89 53 04             	mov    %edx,0x4(%ebx)
    454a:	8b 53 0c             	mov    0xc(%ebx),%edx
    454d:	4a                   	dec    %edx
    454e:	89 0b                	mov    %ecx,(%ebx)
    4550:	89 53 0c             	mov    %edx,0xc(%ebx)
    4553:	8b 55 10             	mov    0x10(%ebp),%edx
    4556:	85 d2                	test   %edx,%edx
    4558:	74 3f                	je     4599 <tcp_segment_trim+0xa9>
    455a:	f6 c1 02             	test   $0x2,%cl
    455d:	74 3a                	je     4599 <tcp_segment_trim+0xa9>
    455f:	eb 25                	jmp    4586 <tcp_segment_trim+0x96>
    4561:	8d b4 26 00 00 00 00 	lea    0x0(%esi,%eiz,1),%esi
    4568:	c7 43 0c 00 00 00 00 	movl   $0x0,0xc(%ebx)
    456f:	8d 65 f4             	lea    -0xc(%ebp),%esp
    4572:	5b                   	pop    %ebx
    4573:	5e                   	pop    %esi
    4574:	5f                   	pop    %edi
    4575:	5d                   	pop    %ebp
    4576:	c3                   	ret    
    4577:	90                   	nop
    4578:	8b 4d 10             	mov    0x10(%ebp),%ecx
    457b:	85 c9                	test   %ecx,%ecx
    457d:	74 f0                	je     456f <tcp_segment_trim+0x7f>
    457f:	8b 0b                	mov    (%ebx),%ecx
    4581:	f6 c1 02             	test   $0x2,%cl
    4584:	74 20                	je     45a6 <tcp_segment_trim+0xb6>
    4586:	83 e1 fd             	and    $0xfffffffd,%ecx
    4589:	8b 53 0c             	mov    0xc(%ebx),%edx
    458c:	89 0b                	mov    %ecx,(%ebx)
    458e:	8b 4d 10             	mov    0x10(%ebp),%ecx
    4591:	4a                   	dec    %edx
    4592:	49                   	dec    %ecx
    4593:	89 53 0c             	mov    %edx,0xc(%ebx)
    4596:	89 4d 10             	mov    %ecx,0x10(%ebp)
    4599:	8b 4d 10             	mov    0x10(%ebp),%ecx
    459c:	8d 14 0f             	lea    (%edi,%ecx,1),%edx
    459f:	89 f9                	mov    %edi,%ecx
    45a1:	0b 4d 10             	or     0x10(%ebp),%ecx
    45a4:	74 c9                	je     456f <tcp_segment_trim+0x7f>
    45a6:	29 c6                	sub    %eax,%esi
    45a8:	39 f2                	cmp    %esi,%edx
    45aa:	77 50                	ja     45fc <tcp_segment_trim+0x10c>
    45ac:	8b 43 18             	mov    0x18(%ebx),%eax
    45af:	8b 4b 0c             	mov    0xc(%ebx),%ecx
    45b2:	01 f8                	add    %edi,%eax
    45b4:	29 d1                	sub    %edx,%ecx
    45b6:	89 43 18             	mov    %eax,0x18(%ebx)
    45b9:	89 4b 0c             	mov    %ecx,0xc(%ebx)
    45bc:	8d 65 f4             	lea    -0xc(%ebp),%esp
    45bf:	5b                   	pop    %ebx
    45c0:	5e                   	pop    %esi
    45c1:	5f                   	pop    %edi
    45c2:	5d                   	pop    %ebp
    45c3:	c3                   	ret    
    45c4:	8d 74 26 00          	lea    0x0(%esi,%eiz,1),%esi
    45c8:	83 7d 10 00          	cmpl   $0x0,0x10(%ebp)
    45cc:	74 d8                	je     45a6 <tcp_segment_trim+0xb6>
    45ce:	eb 8a                	jmp    455a <tcp_segment_trim+0x6a>
    45d0:	8b 73 04             	mov    0x4(%ebx),%esi
    45d3:	c7 43 0c 00 00 00 00 	movl   $0x0,0xc(%ebx)
    45da:	01 fe                	add    %edi,%esi
    45dc:	89 73 04             	mov    %esi,0x4(%ebx)
    45df:	8d 65 f4             	lea    -0xc(%ebp),%esp
    45e2:	5b                   	pop    %ebx
    45e3:	5e                   	pop    %esi
    45e4:	5f                   	pop    %edi
    45e5:	5d                   	pop    %ebp
    45e6:	c3                   	ret    
    45e7:	57                   	push   %edi
    45e8:	68 b0 00 00 00       	push   $0xb0
    45ed:	68 db 92 00 00       	push   $0x92db
    45f2:	68 e5 92 00 00       	push   $0x92e5
    45f7:	e8 34 62 00 00       	call   a830 <assert_abort@plt>
    45fc:	53                   	push   %ebx
    45fd:	68 d4 00 00 00       	push   $0xd4
    4602:	68 db 92 00 00       	push   $0x92db
    4607:	68 fe 92 00 00       	push   $0x92fe
    460c:	e8 1f 62 00 00       	call   a830 <assert_abort@plt>
    4611:	eb 0d                	jmp    4620 <tcp_segment_text_copy>
    4613:	90                   	nop
    4614:	90                   	nop
    4615:	90                   	nop
    4616:	90                   	nop
    4617:	90                   	nop
    4618:	90                   	nop
    4619:	90                   	nop
    461a:	90                   	nop
    461b:	90                   	nop
    461c:	90                   	nop
    461d:	90                   	nop
    461e:	90                   	nop
    461f:	90                   	nop

00004620 <tcp_segment_text_copy>:
    4620:	55                   	push   %ebp
    4621:	89 e5                	mov    %esp,%ebp
    4623:	57                   	push   %edi
    4624:	56                   	push   %esi
    4625:	53                   	push   %ebx
    4626:	83 ec 28             	sub    $0x28,%esp
    4629:	8b 7d 08             	mov    0x8(%ebp),%edi
    462c:	8b 45 0c             	mov    0xc(%ebp),%eax
    462f:	8b 75 10             	mov    0x10(%ebp),%esi
    4632:	89 45 e4             	mov    %eax,-0x1c(%ebp)
    4635:	8b 17                	mov    (%edi),%edx
    4637:	8b 5f 0c             	mov    0xc(%edi),%ebx
    463a:	52                   	push   %edx
    463b:	e8 20 17 00 00       	call   5d60 <seq_no_control_len>
    4640:	29 c3                	sub    %eax,%ebx
    4642:	83 c4 10             	add    $0x10,%esp
    4645:	39 de                	cmp    %ebx,%esi
    4647:	77 1b                	ja     4664 <tcp_segment_text_copy+0x44>
    4649:	89 75 10             	mov    %esi,0x10(%ebp)
    464c:	8b 47 18             	mov    0x18(%edi),%eax
    464f:	89 45 0c             	mov    %eax,0xc(%ebp)
    4652:	8b 45 e4             	mov    -0x1c(%ebp),%eax
    4655:	89 45 08             	mov    %eax,0x8(%ebp)
    4658:	8d 65 f4             	lea    -0xc(%ebp),%esp
    465b:	5b                   	pop    %ebx
    465c:	5e                   	pop    %esi
    465d:	5f                   	pop    %edi
    465e:	5d                   	pop    %ebp
    465f:	e9 0c 61 00 00       	jmp    a770 <memcpy@plt>
    4664:	50                   	push   %eax
    4665:	68 e7 00 00 00       	push   $0xe7
    466a:	68 db 92 00 00       	push   $0x92db
    466f:	68 6c 93 00 00       	push   $0x936c
    4674:	e8 b7 61 00 00       	call   a830 <assert_abort@plt>
    4679:	8d b4 26 00 00 00 00 	lea    0x0(%esi,%eiz,1),%esi

00004680 <tcp_segment_text_size>:
    4680:	55                   	push   %ebp
    4681:	89 e5                	mov    %esp,%ebp
    4683:	53                   	push   %ebx
    4684:	83 ec 10             	sub    $0x10,%esp
    4687:	8b 45 08             	mov    0x8(%ebp),%eax
    468a:	8b 58 0c             	mov    0xc(%eax),%ebx
    468d:	8b 00                	mov    (%eax),%eax
    468f:	50                   	push   %eax
    4690:	e8 cb 16 00 00       	call   5d60 <seq_no_control_len>
    4695:	29 c3                	sub    %eax,%ebx
    4697:	89 d8                	mov    %ebx,%eax
    4699:	8b 5d fc             	mov    -0x4(%ebp),%ebx
    469c:	c9                   	leave  
    469d:	c3                   	ret    
    469e:	66 90                	xchg   %ax,%ax

000046a0 <tcp_segment_dump>:
    46a0:	55                   	push   %ebp
    46a1:	89 e5                	mov    %esp,%ebp
    46a3:	53                   	push   %ebx
    46a4:	83 ec 08             	sub    $0x8,%esp
    46a7:	8b 5d 08             	mov    0x8(%ebp),%ebx
    46aa:	68 15 93 00 00       	push   $0x9315
    46af:	6a 05                	push   $0x5
    46b1:	6a ff                	push   $0xffffffff
    46b3:	e8 18 61 00 00       	call   a7d0 <log_msg@plt>
    46b8:	8b 13                	mov    (%ebx),%edx
    46ba:	52                   	push   %edx
    46bb:	68 23 93 00 00       	push   $0x9323
    46c0:	6a 05                	push   $0x5
    46c2:	6a ff                	push   $0xffffffff
    46c4:	e8 07 61 00 00       	call   a7d0 <log_msg@plt>
    46c9:	83 c4 20             	add    $0x20,%esp
    46cc:	8b 4b 04             	mov    0x4(%ebx),%ecx
    46cf:	51                   	push   %ecx
    46d0:	68 30 93 00 00       	push   $0x9330
    46d5:	6a 05                	push   $0x5
    46d7:	6a ff                	push   $0xffffffff
    46d9:	e8 f2 60 00 00       	call   a7d0 <log_msg@plt>
    46de:	8b 43 08             	mov    0x8(%ebx),%eax
    46e1:	50                   	push   %eax
    46e2:	68 3c 93 00 00       	push   $0x933c
    46e7:	6a 05                	push   $0x5
    46e9:	6a ff                	push   $0xffffffff
    46eb:	e8 e0 60 00 00       	call   a7d0 <log_msg@plt>
    46f0:	83 c4 20             	add    $0x20,%esp
    46f3:	8b 43 0c             	mov    0xc(%ebx),%eax
    46f6:	50                   	push   %eax
    46f7:	68 48 93 00 00       	push   $0x9348
    46fc:	6a 05                	push   $0x5
    46fe:	6a ff                	push   $0xffffffff
    4700:	e8 cb 60 00 00       	call   a7d0 <log_msg@plt>
    4705:	8b 43 10             	mov    0x10(%ebx),%eax
    4708:	50                   	push   %eax
    4709:	68 54 93 00 00       	push   $0x9354
    470e:	6a 05                	push   $0x5
    4710:	6a ff                	push   $0xffffffff
    4712:	e8 b9 60 00 00       	call   a7d0 <log_msg@plt>
    4717:	83 c4 20             	add    $0x20,%esp
    471a:	8b 43 14             	mov    0x14(%ebx),%eax
    471d:	50                   	push   %eax
    471e:	68 60 93 00 00       	push   $0x9360
    4723:	6a 05                	push   $0x5
    4725:	6a ff                	push   $0xffffffff
    4727:	e8 a4 60 00 00       	call   a7d0 <log_msg@plt>
    472c:	83 c4 10             	add    $0x10,%esp
    472f:	8b 5d fc             	mov    -0x4(%ebp),%ebx
    4732:	c9                   	leave  
    4733:	c3                   	ret    
    4734:	66 90                	xchg   %ax,%ax
    4736:	66 90                	xchg   %ax,%ax
    4738:	66 90                	xchg   %ax,%ax
    473a:	66 90                	xchg   %ax,%ax
    473c:	66 90                	xchg   %ax,%ax
    473e:	66 90                	xchg   %ax,%ax

00004740 <tcp_service_recv_data>:
    4740:	55                   	push   %ebp
    4741:	89 e5                	mov    %esp,%ebp
    4743:	56                   	push   %esi
    4744:	53                   	push   %ebx
    4745:	50                   	push   %eax
    4746:	8b 5d 0c             	mov    0xc(%ebp),%ebx
    4749:	68 8f 93 00 00       	push   $0x938f
    474e:	6a 04                	push   $0x4
    4750:	6a ff                	push   $0xffffffff
    4752:	e8 79 60 00 00       	call   a7d0 <log_msg@plt>
    4757:	8b 53 08             	mov    0x8(%ebx),%edx
    475a:	52                   	push   %edx
    475b:	68 9d 93 00 00       	push   $0x939d
    4760:	6a 04                	push   $0x4
    4762:	6a ff                	push   $0xffffffff
    4764:	e8 67 60 00 00       	call   a7d0 <log_msg@plt>
    4769:	8b 43 08             	mov    0x8(%ebx),%eax
    476c:	83 c4 20             	add    $0x20,%esp
    476f:	8b 08                	mov    (%eax),%ecx
    4771:	51                   	push   %ecx
    4772:	68 a8 93 00 00       	push   $0x93a8
    4777:	6a 04                	push   $0x4
    4779:	6a ff                	push   $0xffffffff
    477b:	e8 50 60 00 00       	call   a7d0 <log_msg@plt>
    4780:	8b 43 08             	mov    0x8(%ebx),%eax
    4783:	8b 00                	mov    (%eax),%eax
    4785:	5e                   	pop    %esi
    4786:	50                   	push   %eax
    4787:	e8 e4 61 00 00       	call   a970 <async_exchange_begin@plt>
    478c:	83 c4 0c             	add    $0xc,%esp
    478f:	89 c6                	mov    %eax,%esi
    4791:	6a 00                	push   $0x0
    4793:	6a 00                	push   $0x0
    4795:	6a 00                	push   $0x0
    4797:	6a 00                	push   $0x0
    4799:	8b 43 04             	mov    0x4(%ebx),%eax
    479c:	50                   	push   %eax
    479d:	68 03 04 00 00       	push   $0x403
    47a2:	56                   	push   %esi
    47a3:	e8 18 60 00 00       	call   a7c0 <async_send_fast@plt>
    47a8:	83 c4 14             	add    $0x14,%esp
    47ab:	89 c3                	mov    %eax,%ebx
    47ad:	56                   	push   %esi
    47ae:	e8 6d 60 00 00       	call   a820 <async_exchange_end@plt>
    47b3:	89 5d 08             	mov    %ebx,0x8(%ebp)
    47b6:	83 c4 10             	add    $0x10,%esp
    47b9:	8d 65 f8             	lea    -0x8(%ebp),%esp
    47bc:	5b                   	pop    %ebx
    47bd:	5e                   	pop    %esi
    47be:	5d                   	pop    %ebp
    47bf:	e9 dc 61 00 00       	jmp    a9a0 <async_forget@plt>
    47c4:	8d b6 00 00 00 00    	lea    0x0(%esi),%esi
    47ca:	8d bf 00 00 00 00    	lea    0x0(%edi),%edi

000047d0 <tcp_service_cstate_change>:
    47d0:	55                   	push   %ebp
    47d1:	89 e5                	mov    %esp,%ebp
    47d3:	57                   	push   %edi
    47d4:	56                   	push   %esi
    47d5:	53                   	push   %ebx
    47d6:	83 ec 20             	sub    $0x20,%esp
    47d9:	8b 5d 08             	mov    0x8(%ebp),%ebx
    47dc:	8b 75 10             	mov    0x10(%ebp),%esi
    47df:	68 b1 93 00 00       	push   $0x93b1
    47e4:	6a 04                	push   $0x4
    47e6:	6a ff                	push   $0xffffffff
    47e8:	e8 e3 5f 00 00       	call   a7d0 <log_msg@plt>
    47ed:	8b 7b 60             	mov    0x60(%ebx),%edi
    47f0:	89 1c 24             	mov    %ebx,(%esp)
    47f3:	e8 98 2e 00 00       	call   7690 <tcp_uc_get_userptr>
    47f8:	83 c4 10             	add    $0x10,%esp
    47fb:	89 c2                	mov    %eax,%edx
    47fd:	8d 46 ff             	lea    -0x1(%esi),%eax
    4800:	83 f8 01             	cmp    $0x1,%eax
    4803:	77 09                	ja     480e <tcp_service_cstate_change+0x3e>
    4805:	83 ff 03             	cmp    $0x3,%edi
    4808:	0f 84 aa 00 00 00    	je     48b8 <tcp_service_cstate_change+0xe8>
    480e:	8a 43 64             	mov    0x64(%ebx),%al
    4811:	83 fe 0a             	cmp    $0xa,%esi
    4814:	74 09                	je     481f <tcp_service_cstate_change+0x4f>
    4816:	83 ff 0a             	cmp    $0xa,%edi
    4819:	75 04                	jne    481f <tcp_service_cstate_change+0x4f>
    481b:	84 c0                	test   %al,%al
    481d:	75 29                	jne    4848 <tcp_service_cstate_change+0x78>
    481f:	25 ff 00 00 00       	and    $0xff,%eax
    4824:	52                   	push   %edx
    4825:	52                   	push   %edx
    4826:	50                   	push   %eax
    4827:	57                   	push   %edi
    4828:	56                   	push   %esi
    4829:	68 94 96 00 00       	push   $0x9694
    482e:	6a 04                	push   $0x4
    4830:	6a ff                	push   $0xffffffff
    4832:	e8 99 5f 00 00       	call   a7d0 <log_msg@plt>
    4837:	83 c4 20             	add    $0x20,%esp
    483a:	8d 65 f4             	lea    -0xc(%ebp),%esp
    483d:	5b                   	pop    %ebx
    483e:	5e                   	pop    %esi
    483f:	5f                   	pop    %edi
    4840:	5d                   	pop    %ebp
    4841:	c3                   	ret    
    4842:	8d b6 00 00 00 00    	lea    0x0(%esi),%esi
    4848:	51                   	push   %ecx
    4849:	68 68 96 00 00       	push   $0x9668
    484e:	6a 04                	push   $0x4
    4850:	6a ff                	push   $0xffffffff
    4852:	89 55 e4             	mov    %edx,-0x1c(%ebp)
    4855:	e8 76 5f 00 00       	call   a7d0 <log_msg@plt>
    485a:	83 c4 0c             	add    $0xc,%esp
    485d:	68 e0 93 00 00       	push   $0x93e0
    4862:	6a 04                	push   $0x4
    4864:	6a ff                	push   $0xffffffff
    4866:	e8 65 5f 00 00       	call   a7d0 <log_msg@plt>
    486b:	8b 55 e4             	mov    -0x1c(%ebp),%edx
    486e:	5b                   	pop    %ebx
    486f:	8b 42 08             	mov    0x8(%edx),%eax
