
ext4fs:     file format elf32-i386


Disassembly of section .init:

000010b4 <__entry>:
    10b4:	66 8c d0             	mov    %ss,%ax
    10b7:	8e d8                	mov    %eax,%ds
    10b9:	8e c0                	mov    %eax,%es
    10bb:	8e e0                	mov    %eax,%fs
    10bd:	b8 01 00 00 00       	mov    $0x1,%eax
    10c2:	0f a2                	cpuid  
    10c4:	0f ba e2 0b          	bt     $0xb,%edx
    10c8:	73 0c                	jae    10d6 <__entry+0x22>
    10ca:	8d 05 78 41 03 00    	lea    0x34178,%eax
    10d0:	c7 00 6d cf 02 00    	movl   $0x2cf6d,(%eax)
    10d6:	6a 00                	push   $0x0
    10d8:	6a 00                	push   $0x0
    10da:	89 e5                	mov    %esp,%ebp
    10dc:	57                   	push   %edi
    10dd:	e8 be ca 00 00       	call   dba0 <__main>

Disassembly of section .text:

00001100 <main>:
    1100:	8d 4c 24 04          	lea    0x4(%esp),%ecx
    1104:	83 e4 f0             	and    $0xfffffff0,%esp
    1107:	ff 71 fc             	pushl  -0x4(%ecx)
    110a:	55                   	push   %ebp
    110b:	89 e5                	mov    %esp,%ebp
    110d:	56                   	push   %esi
    110e:	53                   	push   %ebx
    110f:	51                   	push   %ecx
    1110:	83 ec 14             	sub    $0x14,%esp
    1113:	8b 19                	mov    (%ecx),%ebx
    1115:	8b 71 04             	mov    0x4(%ecx),%esi
    1118:	68 76 00 03 00       	push   $0x30076
    111d:	68 e0 00 03 00       	push   $0x300e0
    1122:	e8 d9 9c 01 00       	call   1ae00 <printf>
    1127:	83 c4 10             	add    $0x10,%esp
    112a:	83 fb 03             	cmp    $0x3,%ebx
    112d:	0f 84 ae 00 00 00    	je     11e1 <main+0xe1>
    1133:	50                   	push   %eax
    1134:	6a 00                	push   $0x0
    1136:	68 61 37 cf c9       	push   $0xc9cf3761
    113b:	68 76 66 73 20       	push   $0x20736676
    1140:	e8 2b fd 01 00       	call   20e70 <service_connect_blocking>
    1145:	83 c4 10             	add    $0x10,%esp
    1148:	89 c6                	mov    %eax,%esi
    114a:	85 c0                	test   %eax,%eax
    114c:	0f 84 bf 00 00 00    	je     1211 <main+0x111>
    1152:	e8 b9 20 00 00       	call   3210 <ext4fs_global_init>
    1157:	89 c3                	mov    %eax,%ebx
    1159:	85 c0                	test   %eax,%eax
    115b:	75 63                	jne    11c0 <main+0xc0>
    115d:	68 80 3e 03 00       	push   $0x33e80
    1162:	68 60 3e 03 00       	push   $0x33e60
    1167:	68 40 3e 03 00       	push   $0x33e40
    116c:	56                   	push   %esi
    116d:	e8 5e 4b 00 00       	call   5cd0 <fs_register>
    1172:	83 c4 10             	add    $0x10,%esp
    1175:	89 c3                	mov    %eax,%ebx
    1177:	85 c0                	test   %eax,%eax
    1179:	0f 85 c8 00 00 00    	jne    1247 <main+0x147>
    117f:	52                   	push   %edx
    1180:	52                   	push   %edx
    1181:	68 76 00 03 00       	push   $0x30076
    1186:	68 c3 00 03 00       	push   $0x300c3
    118b:	e8 70 9c 01 00       	call   1ae00 <printf>
    1190:	c7 04 24 00 00 00 00 	movl   $0x0,(%esp)
    1197:	e8 b4 6f 01 00       	call   18150 <task_retval>
    119c:	83 c8 ff             	or     $0xffffffff,%eax
    119f:	f0 0f c1 05 4c 41 03 	lock xadd %eax,0x3414c
    11a6:	00 
    11a7:	83 c4 10             	add    $0x10,%esp
    11aa:	48                   	dec    %eax
    11ab:	0f 88 af 00 00 00    	js     1260 <main+0x160>
    11b1:	83 ec 0c             	sub    $0xc,%esp
    11b4:	6a 03                	push   $0x3
    11b6:	e8 95 39 01 00       	call   14b50 <fibril_switch>
    11bb:	83 c4 10             	add    $0x10,%esp
    11be:	eb 14                	jmp    11d4 <main+0xd4>
    11c0:	56                   	push   %esi
    11c1:	56                   	push   %esi
    11c2:	68 76 00 03 00       	push   $0x30076
    11c7:	68 08 01 03 00       	push   $0x30108
    11cc:	e8 2f 9c 01 00       	call   1ae00 <printf>
    11d1:	83 c4 10             	add    $0x10,%esp
    11d4:	8d 65 f4             	lea    -0xc(%ebp),%esp
    11d7:	89 d8                	mov    %ebx,%eax
    11d9:	59                   	pop    %ecx
    11da:	5b                   	pop    %ebx
    11db:	5e                   	pop    %esi
    11dc:	5d                   	pop    %ebp
    11dd:	8d 61 fc             	lea    -0x4(%ecx),%esp
    11e0:	c3                   	ret    
    11e1:	50                   	push   %eax
    11e2:	50                   	push   %eax
    11e3:	68 7d 00 03 00       	push   $0x3007d
    11e8:	ff 76 04             	pushl  0x4(%esi)
    11eb:	e8 70 fd 00 00       	call   10f60 <str_cmp>
    11f0:	83 c4 10             	add    $0x10,%esp
    11f3:	85 c0                	test   %eax,%eax
    11f5:	75 35                	jne    122c <main+0x12c>
    11f7:	50                   	push   %eax
    11f8:	6a 0a                	push   $0xa
    11fa:	6a 00                	push   $0x0
    11fc:	ff 76 08             	pushl  0x8(%esi)
    11ff:	e8 ec 1d 01 00       	call   12ff0 <strtol>
    1204:	83 c4 10             	add    $0x10,%esp
    1207:	a3 58 3e 03 00       	mov    %eax,0x33e58
    120c:	e9 22 ff ff ff       	jmp    1133 <main+0x33>
    1211:	50                   	push   %eax
    1212:	50                   	push   %eax
    1213:	68 76 00 03 00       	push   $0x30076
    1218:	68 a5 00 03 00       	push   $0x300a5
    121d:	bb 02 00 00 00       	mov    $0x2,%ebx
    1222:	e8 d9 9b 01 00       	call   1ae00 <printf>
    1227:	83 c4 10             	add    $0x10,%esp
    122a:	eb a8                	jmp    11d4 <main+0xd4>
    122c:	50                   	push   %eax
    122d:	50                   	push   %eax
    122e:	68 76 00 03 00       	push   $0x30076
    1233:	68 88 00 03 00       	push   $0x30088
    1238:	bb 01 00 00 00       	mov    $0x1,%ebx
    123d:	e8 be 9b 01 00       	call   1ae00 <printf>
    1242:	83 c4 10             	add    $0x10,%esp
    1245:	eb 8d                	jmp    11d4 <main+0xd4>
    1247:	51                   	push   %ecx
    1248:	51                   	push   %ecx
    1249:	68 76 00 03 00       	push   $0x30076
    124e:	68 2c 01 03 00       	push   $0x3012c
    1253:	e8 a8 9b 01 00       	call   1ae00 <printf>
    1258:	83 c4 10             	add    $0x10,%esp
    125b:	e9 74 ff ff ff       	jmp    11d4 <main+0xd4>
    1260:	50                   	push   %eax
    1261:	6a 0b                	push   $0xb
    1263:	6a 00                	push   $0x0
    1265:	6a 00                	push   $0x0
    1267:	6a 00                	push   $0x0
    1269:	6a 00                	push   $0x0
    126b:	6a 00                	push   $0x0
    126d:	68 4c 41 03 00       	push   $0x3414c
    1272:	ff 15 78 41 03 00    	call   *0x34178
    1278:	83 c4 20             	add    $0x20,%esp
    127b:	e9 31 ff ff ff       	jmp    11b1 <main+0xb1>

00001280 <open_nodes_key_hash>:
    1280:	55                   	push   %ebp
    1281:	89 e5                	mov    %esp,%ebp
    1283:	8b 45 08             	mov    0x8(%ebp),%eax
    1286:	5d                   	pop    %ebp
    1287:	8b 10                	mov    (%eax),%edx
    1289:	8b 48 04             	mov    0x4(%eax),%ecx
    128c:	89 d0                	mov    %edx,%eax
    128e:	c1 c0 05             	rol    $0x5,%eax
    1291:	8d 84 01 b9 79 37 9e 	lea    -0x61c88647(%ecx,%eax,1),%eax
    1298:	31 d0                	xor    %edx,%eax
    129a:	c3                   	ret    
    129b:	90                   	nop
    129c:	8d 74 26 00          	lea    0x0(%esi,%eiz,1),%esi

000012a0 <open_nodes_hash>:
    12a0:	55                   	push   %ebp
    12a1:	89 e5                	mov    %esp,%ebp
    12a3:	8b 45 08             	mov    0x8(%ebp),%eax
    12a6:	5d                   	pop    %ebp
    12a7:	8b 50 f4             	mov    -0xc(%eax),%edx
    12aa:	8b 40 f8             	mov    -0x8(%eax),%eax
    12ad:	8b 52 08             	mov    0x8(%edx),%edx
    12b0:	8b 48 0c             	mov    0xc(%eax),%ecx
    12b3:	89 d0                	mov    %edx,%eax
    12b5:	c1 c0 05             	rol    $0x5,%eax
    12b8:	8d 84 01 b9 79 37 9e 	lea    -0x61c88647(%ecx,%eax,1),%eax
    12bf:	31 d0                	xor    %edx,%eax
    12c1:	c3                   	ret    
    12c2:	8d b4 26 00 00 00 00 	lea    0x0(%esi,%eiz,1),%esi
    12c9:	8d bc 27 00 00 00 00 	lea    0x0(%edi,%eiz,1),%edi

000012d0 <open_nodes_key_equal>:
    12d0:	55                   	push   %ebp
    12d1:	89 e5                	mov    %esp,%ebp
    12d3:	53                   	push   %ebx
    12d4:	8b 45 0c             	mov    0xc(%ebp),%eax
    12d7:	8b 55 08             	mov    0x8(%ebp),%edx
    12da:	8b 48 f4             	mov    -0xc(%eax),%ecx
    12dd:	8b 49 08             	mov    0x8(%ecx),%ecx
    12e0:	39 0a                	cmp    %ecx,(%edx)
    12e2:	74 0c                	je     12f0 <open_nodes_key_equal+0x20>
    12e4:	31 c0                	xor    %eax,%eax
    12e6:	5b                   	pop    %ebx
    12e7:	5d                   	pop    %ebp
    12e8:	c3                   	ret    
    12e9:	8d b4 26 00 00 00 00 	lea    0x0(%esi,%eiz,1),%esi
    12f0:	8d 58 f4             	lea    -0xc(%eax),%ebx
    12f3:	8b 43 04             	mov    0x4(%ebx),%eax
    12f6:	8b 5a 04             	mov    0x4(%edx),%ebx
    12f9:	39 58 0c             	cmp    %ebx,0xc(%eax)
    12fc:	5b                   	pop    %ebx
    12fd:	0f 94 c0             	sete   %al
    1300:	5d                   	pop    %ebp
    1301:	c3                   	ret    
    1302:	8d b4 26 00 00 00 00 	lea    0x0(%esi,%eiz,1),%esi
    1309:	8d bc 27 00 00 00 00 	lea    0x0(%edi,%eiz,1),%edi

00001310 <ext4fs_node_open>:
    1310:	55                   	push   %ebp
    1311:	31 c0                	xor    %eax,%eax
    1313:	89 e5                	mov    %esp,%ebp
    1315:	5d                   	pop    %ebp
    1316:	c3                   	ret    
    1317:	89 f6                	mov    %esi,%esi
    1319:	8d bc 27 00 00 00 00 	lea    0x0(%edi,%eiz,1),%edi

00001320 <ext4fs_index_get>:
    1320:	55                   	push   %ebp
    1321:	89 e5                	mov    %esp,%ebp
    1323:	8b 45 08             	mov    0x8(%ebp),%eax
    1326:	85 c0                	test   %eax,%eax
    1328:	74 0e                	je     1338 <ext4fs_index_get+0x18>
    132a:	8b 40 10             	mov    0x10(%eax),%eax
    132d:	5d                   	pop    %ebp
    132e:	8b 40 04             	mov    0x4(%eax),%eax
    1331:	8b 40 0c             	mov    0xc(%eax),%eax
    1334:	c3                   	ret    
    1335:	8d 76 00             	lea    0x0(%esi),%esi
    1338:	a1 04 00 00 00       	mov    0x4,%eax
    133d:	0f 0b                	ud2    
    133f:	90                   	nop

00001340 <ext4fs_service_get>:
    1340:	55                   	push   %ebp
    1341:	89 e5                	mov    %esp,%ebp
    1343:	8b 45 08             	mov    0x8(%ebp),%eax
    1346:	85 c0                	test   %eax,%eax
    1348:	74 0e                	je     1358 <ext4fs_service_get+0x18>
    134a:	8b 40 10             	mov    0x10(%eax),%eax
    134d:	5d                   	pop    %ebp
    134e:	8b 00                	mov    (%eax),%eax
    1350:	8b 40 08             	mov    0x8(%eax),%eax
    1353:	c3                   	ret    
    1354:	8d 74 26 00          	lea    0x0(%esi,%eiz,1),%esi
    1358:	a1 00 00 00 00       	mov    0x0,%eax
    135d:	0f 0b                	ud2    
    135f:	90                   	nop

00001360 <ext4fs_close>:
    1360:	55                   	push   %ebp
    1361:	31 c0                	xor    %eax,%eax
    1363:	89 e5                	mov    %esp,%ebp
    1365:	5d                   	pop    %ebp
    1366:	c3                   	ret    
    1367:	89 f6                	mov    %esi,%esi
    1369:	8d bc 27 00 00 00 00 	lea    0x0(%edi,%eiz,1),%edi

00001370 <ext4fs_is_file>:
    1370:	55                   	push   %ebp
    1371:	89 e5                	mov    %esp,%ebp
    1373:	83 ec 08             	sub    $0x8,%esp
    1376:	8b 45 08             	mov    0x8(%ebp),%eax
    1379:	85 c0                	test   %eax,%eax
    137b:	74 23                	je     13a0 <ext4fs_is_file+0x30>
    137d:	8b 40 10             	mov    0x10(%eax),%eax
    1380:	52                   	push   %edx
    1381:	68 00 80 00 00       	push   $0x8000
    1386:	8b 50 04             	mov    0x4(%eax),%edx
    1389:	8b 4a 04             	mov    0x4(%edx),%ecx
    138c:	51                   	push   %ecx
    138d:	8b 00                	mov    (%eax),%eax
    138f:	8b 40 0c             	mov    0xc(%eax),%eax
    1392:	8b 40 04             	mov    0x4(%eax),%eax
    1395:	50                   	push   %eax
    1396:	e8 35 bc 00 00       	call   cfd0 <ext4_inode_is_type>
    139b:	c9                   	leave  
    139c:	c3                   	ret    
    139d:	8d 76 00             	lea    0x0(%esi),%esi
    13a0:	a1 00 00 00 00       	mov    0x0,%eax
    13a5:	0f 0b                	ud2    
    13a7:	89 f6                	mov    %esi,%esi
    13a9:	8d bc 27 00 00 00 00 	lea    0x0(%edi,%eiz,1),%edi

000013b0 <ext4fs_is_directory>:
    13b0:	55                   	push   %ebp
    13b1:	89 e5                	mov    %esp,%ebp
    13b3:	83 ec 08             	sub    $0x8,%esp
    13b6:	8b 45 08             	mov    0x8(%ebp),%eax
    13b9:	85 c0                	test   %eax,%eax
    13bb:	74 23                	je     13e0 <ext4fs_is_directory+0x30>
    13bd:	8b 40 10             	mov    0x10(%eax),%eax
    13c0:	52                   	push   %edx
    13c1:	68 00 40 00 00       	push   $0x4000
    13c6:	8b 50 04             	mov    0x4(%eax),%edx
    13c9:	8b 4a 04             	mov    0x4(%edx),%ecx
    13cc:	51                   	push   %ecx
    13cd:	8b 00                	mov    (%eax),%eax
    13cf:	8b 40 0c             	mov    0xc(%eax),%eax
    13d2:	8b 40 04             	mov    0x4(%eax),%eax
    13d5:	50                   	push   %eax
    13d6:	e8 f5 bb 00 00       	call   cfd0 <ext4_inode_is_type>
    13db:	c9                   	leave  
    13dc:	c3                   	ret    
    13dd:	8d 76 00             	lea    0x0(%esi),%esi
    13e0:	a1 00 00 00 00       	mov    0x0,%eax
    13e5:	0f 0b                	ud2    
    13e7:	89 f6                	mov    %esi,%esi
    13e9:	8d bc 27 00 00 00 00 	lea    0x0(%edi,%eiz,1),%edi

000013f0 <ext4fs_size_get>:
    13f0:	55                   	push   %ebp
    13f1:	89 e5                	mov    %esp,%ebp
    13f3:	83 ec 08             	sub    $0x8,%esp
    13f6:	8b 45 08             	mov    0x8(%ebp),%eax
    13f9:	85 c0                	test   %eax,%eax
    13fb:	74 23                	je     1420 <ext4fs_size_get+0x30>
    13fd:	8b 40 10             	mov    0x10(%eax),%eax
    1400:	52                   	push   %edx
    1401:	52                   	push   %edx
    1402:	8b 50 04             	mov    0x4(%eax),%edx
    1405:	8b 4a 04             	mov    0x4(%edx),%ecx
    1408:	51                   	push   %ecx
    1409:	8b 00                	mov    (%eax),%eax
    140b:	8b 40 0c             	mov    0xc(%eax),%eax
    140e:	8b 40 04             	mov    0x4(%eax),%eax
    1411:	50                   	push   %eax
    1412:	e8 a9 b7 00 00       	call   cbc0 <ext4_inode_get_size>
    1417:	c9                   	leave  
    1418:	c3                   	ret    
    1419:	8d b4 26 00 00 00 00 	lea    0x0(%esi,%eiz,1),%esi
    1420:	a1 00 00 00 00       	mov    0x0,%eax
    1425:	0f 0b                	ud2    
    1427:	89 f6                	mov    %esi,%esi
    1429:	8d bc 27 00 00 00 00 	lea    0x0(%edi,%eiz,1),%edi

00001430 <ext4fs_has_children>:
    1430:	55                   	push   %ebp
    1431:	89 e5                	mov    %esp,%ebp
    1433:	57                   	push   %edi
    1434:	56                   	push   %esi
    1435:	53                   	push   %ebx
    1436:	83 ec 3c             	sub    $0x3c,%esp
    1439:	8b 45 0c             	mov    0xc(%ebp),%eax
    143c:	85 c0                	test   %eax,%eax
    143e:	74 40                	je     1480 <ext4fs_has_children+0x50>
    1440:	8b 58 10             	mov    0x10(%eax),%ebx
    1443:	8b 03                	mov    (%ebx),%eax
    1445:	8b 70 0c             	mov    0xc(%eax),%esi
    1448:	57                   	push   %edi
    1449:	8b 43 04             	mov    0x4(%ebx),%eax
    144c:	68 00 40 00 00       	push   $0x4000
    1451:	8b 40 04             	mov    0x4(%eax),%eax
    1454:	50                   	push   %eax
    1455:	8b 46 04             	mov    0x4(%esi),%eax
    1458:	50                   	push   %eax
    1459:	e8 72 bb 00 00       	call   cfd0 <ext4_inode_is_type>
    145e:	83 c4 10             	add    $0x10,%esp
    1461:	89 c7                	mov    %eax,%edi
    1463:	84 c0                	test   %al,%al
    1465:	75 21                	jne    1488 <ext4fs_has_children+0x58>
    1467:	8b 45 08             	mov    0x8(%ebp),%eax
    146a:	31 d2                	xor    %edx,%edx
    146c:	c6 00 00             	movb   $0x0,(%eax)
    146f:	8d 65 f4             	lea    -0xc(%ebp),%esp
    1472:	89 d0                	mov    %edx,%eax
    1474:	5b                   	pop    %ebx
    1475:	5e                   	pop    %esi
    1476:	5f                   	pop    %edi
    1477:	5d                   	pop    %ebp
    1478:	c3                   	ret    
    1479:	8d b4 26 00 00 00 00 	lea    0x0(%esi,%eiz,1),%esi
    1480:	a1 00 00 00 00       	mov    0x0,%eax
    1485:	0f 0b                	ud2    
    1487:	90                   	nop
    1488:	8b 4b 04             	mov    0x4(%ebx),%ecx
    148b:	8d 5d d4             	lea    -0x2c(%ebp),%ebx
    148e:	6a 00                	push   $0x0
    1490:	6a 00                	push   $0x0
    1492:	51                   	push   %ecx
    1493:	53                   	push   %ebx
    1494:	e8 d7 64 00 00       	call   7970 <ext4_directory_iterator_init>
    1499:	83 c4 10             	add    $0x10,%esp
    149c:	89 c2                	mov    %eax,%edx
    149e:	85 c0                	test   %eax,%eax
    14a0:	75 cd                	jne    146f <ext4fs_has_children+0x3f>
    14a2:	8d b6 00 00 00 00    	lea    0x0(%esi),%esi
    14a8:	8b 45 e4             	mov    -0x1c(%ebp),%eax
    14ab:	85 c0                	test   %eax,%eax
    14ad:	0f 84 a5 00 00 00    	je     1558 <ext4fs_has_children+0x128>
    14b3:	8b 10                	mov    (%eax),%edx
    14b5:	85 d2                	test   %edx,%edx
    14b7:	74 57                	je     1510 <ext4fs_has_children+0xe0>
    14b9:	52                   	push   %edx
    14ba:	52                   	push   %edx
    14bb:	8b 4e 04             	mov    0x4(%esi),%ecx
    14be:	50                   	push   %eax
    14bf:	51                   	push   %ecx
    14c0:	e8 4b 63 00 00       	call   7810 <ext4_directory_entry_ll_get_name_length>
    14c5:	25 ff ff 00 00       	and    $0xffff,%eax
    14ca:	83 c4 10             	add    $0x10,%esp
    14cd:	8b 55 e4             	mov    -0x1c(%ebp),%edx
    14d0:	83 f8 01             	cmp    $0x1,%eax
    14d3:	74 33                	je     1508 <ext4fs_has_children+0xd8>
    14d5:	83 f8 02             	cmp    $0x2,%eax
    14d8:	75 06                	jne    14e0 <ext4fs_has_children+0xb0>
    14da:	80 7a 08 2e          	cmpb   $0x2e,0x8(%edx)
    14de:	74 58                	je     1538 <ext4fs_has_children+0x108>
    14e0:	83 ec 0c             	sub    $0xc,%esp
    14e3:	53                   	push   %ebx
    14e4:	e8 d7 65 00 00       	call   7ac0 <ext4_directory_iterator_fini>
    14e9:	83 c4 10             	add    $0x10,%esp
    14ec:	89 c2                	mov    %eax,%edx
    14ee:	85 c0                	test   %eax,%eax
    14f0:	0f 85 79 ff ff ff    	jne    146f <ext4fs_has_children+0x3f>
    14f6:	8b 4d 08             	mov    0x8(%ebp),%ecx
    14f9:	89 f8                	mov    %edi,%eax
    14fb:	88 01                	mov    %al,(%ecx)
    14fd:	e9 6d ff ff ff       	jmp    146f <ext4fs_has_children+0x3f>
    1502:	8d b6 00 00 00 00    	lea    0x0(%esi),%esi
    1508:	80 7a 08 2e          	cmpb   $0x2e,0x8(%edx)
    150c:	75 d2                	jne    14e0 <ext4fs_has_children+0xb0>
    150e:	66 90                	xchg   %ax,%ax
    1510:	83 ec 0c             	sub    $0xc,%esp
    1513:	53                   	push   %ebx
    1514:	e8 07 65 00 00       	call   7a20 <ext4_directory_iterator_next>
    1519:	83 c4 10             	add    $0x10,%esp
    151c:	85 c0                	test   %eax,%eax
    151e:	74 88                	je     14a8 <ext4fs_has_children+0x78>
    1520:	83 ec 0c             	sub    $0xc,%esp
    1523:	89 45 c4             	mov    %eax,-0x3c(%ebp)
    1526:	53                   	push   %ebx
    1527:	e8 94 65 00 00       	call   7ac0 <ext4_directory_iterator_fini>
    152c:	83 c4 10             	add    $0x10,%esp
    152f:	8b 55 c4             	mov    -0x3c(%ebp),%edx
    1532:	e9 38 ff ff ff       	jmp    146f <ext4fs_has_children+0x3f>
    1537:	90                   	nop
    1538:	80 7a 09 2e          	cmpb   $0x2e,0x9(%edx)
    153c:	75 a2                	jne    14e0 <ext4fs_has_children+0xb0>
    153e:	83 ec 0c             	sub    $0xc,%esp
    1541:	53                   	push   %ebx
    1542:	e8 d9 64 00 00       	call   7a20 <ext4_directory_iterator_next>
    1547:	83 c4 10             	add    $0x10,%esp
    154a:	85 c0                	test   %eax,%eax
    154c:	0f 84 56 ff ff ff    	je     14a8 <ext4fs_has_children+0x78>
    1552:	eb cc                	jmp    1520 <ext4fs_has_children+0xf0>
    1554:	8d 74 26 00          	lea    0x0(%esi,%eiz,1),%esi
    1558:	31 ff                	xor    %edi,%edi
    155a:	eb 84                	jmp    14e0 <ext4fs_has_children+0xb0>
    155c:	8d 74 26 00          	lea    0x0(%esi,%eiz,1),%esi

00001560 <ext4fs_link>:
    1560:	55                   	push   %ebp
    1561:	89 e5                	mov    %esp,%ebp
    1563:	57                   	push   %edi
    1564:	56                   	push   %esi
    1565:	53                   	push   %ebx
    1566:	83 ec 28             	sub    $0x28,%esp
    1569:	8b 55 10             	mov    0x10(%ebp),%edx
    156c:	8b 7d 08             	mov    0x8(%ebp),%edi
    156f:	52                   	push   %edx
    1570:	8b 5d 0c             	mov    0xc(%ebp),%ebx
    1573:	e8 08 f5 00 00       	call   10a80 <str_size>
    1578:	83 c4 10             	add    $0x10,%esp
    157b:	3d ff 00 00 00       	cmp    $0xff,%eax
    1580:	0f 87 ba 01 00 00    	ja     1740 <ext4fs_link+0x1e0>
    1586:	85 ff                	test   %edi,%edi
    1588:	0f 84 5a 01 00 00    	je     16e8 <ext4fs_link+0x188>
    158e:	8b 7f 10             	mov    0x10(%edi),%edi
    1591:	85 db                	test   %ebx,%ebx
    1593:	74 33                	je     15c8 <ext4fs_link+0x68>
    1595:	8b 07                	mov    (%edi),%eax
    1597:	8b 5b 10             	mov    0x10(%ebx),%ebx
    159a:	8b 40 0c             	mov    0xc(%eax),%eax
    159d:	89 45 e4             	mov    %eax,-0x1c(%ebp)
    15a0:	50                   	push   %eax
    15a1:	8b 43 04             	mov    0x4(%ebx),%eax
    15a4:	50                   	push   %eax
    15a5:	8b 45 10             	mov    0x10(%ebp),%eax
    15a8:	50                   	push   %eax
    15a9:	8b 47 04             	mov    0x4(%edi),%eax
    15ac:	50                   	push   %eax
    15ad:	e8 ce 6a 00 00       	call   8080 <ext4_directory_add_entry>
    15b2:	83 c4 10             	add    $0x10,%esp
    15b5:	89 c6                	mov    %eax,%esi
    15b7:	85 c0                	test   %eax,%eax
    15b9:	74 15                	je     15d0 <ext4fs_link+0x70>
    15bb:	8d 65 f4             	lea    -0xc(%ebp),%esp
    15be:	89 f0                	mov    %esi,%eax
    15c0:	5b                   	pop    %ebx
    15c1:	5e                   	pop    %esi
    15c2:	5f                   	pop    %edi
    15c3:	5d                   	pop    %ebp
    15c4:	c3                   	ret    
    15c5:	8d 76 00             	lea    0x0(%esi),%esi
    15c8:	a1 04 00 00 00       	mov    0x4,%eax
    15cd:	0f 0b                	ud2    
    15cf:	90                   	nop
    15d0:	51                   	push   %ecx
    15d1:	68 00 40 00 00       	push   $0x4000
    15d6:	8b 43 04             	mov    0x4(%ebx),%eax
    15d9:	8b 40 04             	mov    0x4(%eax),%eax
    15dc:	50                   	push   %eax
    15dd:	8b 45 e4             	mov    -0x1c(%ebp),%eax
    15e0:	8b 40 04             	mov    0x4(%eax),%eax
    15e3:	50                   	push   %eax
    15e4:	e8 e7 b9 00 00       	call   cfd0 <ext4_inode_is_type>
    15e9:	83 c4 10             	add    $0x10,%esp
    15ec:	84 c0                	test   %al,%al
    15ee:	0f 84 b7 00 00 00    	je     16ab <ext4fs_link+0x14b>
    15f4:	8b 43 04             	mov    0x4(%ebx),%eax
    15f7:	52                   	push   %edx
    15f8:	50                   	push   %eax
    15f9:	68 51 01 03 00       	push   $0x30151
    15fe:	50                   	push   %eax
    15ff:	e8 7c 6a 00 00       	call   8080 <ext4_directory_add_entry>
    1604:	83 c4 10             	add    $0x10,%esp
    1607:	85 c0                	test   %eax,%eax
    1609:	0f 85 e1 00 00 00    	jne    16f0 <ext4fs_link+0x190>
    160f:	50                   	push   %eax
    1610:	8b 47 04             	mov    0x4(%edi),%eax
    1613:	50                   	push   %eax
    1614:	68 50 01 03 00       	push   $0x30150
    1619:	8b 43 04             	mov    0x4(%ebx),%eax
    161c:	50                   	push   %eax
    161d:	e8 5e 6a 00 00       	call   8080 <ext4_directory_add_entry>
    1622:	83 c4 10             	add    $0x10,%esp
    1625:	85 c0                	test   %eax,%eax
    1627:	0f 85 e3 00 00 00    	jne    1710 <ext4fs_link+0x1b0>
    162d:	50                   	push   %eax
    162e:	50                   	push   %eax
    162f:	8b 45 e4             	mov    -0x1c(%ebp),%eax
    1632:	6a 20                	push   $0x20
    1634:	8b 40 04             	mov    0x4(%eax),%eax
    1637:	50                   	push   %eax
    1638:	e8 53 c1 00 00       	call   d790 <ext4_superblock_has_feature_compatible>
    163d:	83 c4 10             	add    $0x10,%esp
    1640:	84 c0                	test   %al,%al
    1642:	74 39                	je     167d <ext4fs_link+0x11d>
    1644:	83 ec 0c             	sub    $0xc,%esp
    1647:	8b 43 04             	mov    0x4(%ebx),%eax
    164a:	50                   	push   %eax
    164b:	e8 c0 6f 00 00       	call   8610 <ext4_directory_dx_init>
    1650:	83 c4 10             	add    $0x10,%esp
    1653:	85 c0                	test   %eax,%eax
    1655:	74 09                	je     1660 <ext4fs_link+0x100>
    1657:	89 c6                	mov    %eax,%esi
    1659:	e9 5d ff ff ff       	jmp    15bb <ext4fs_link+0x5b>
    165e:	66 90                	xchg   %ax,%ax
    1660:	50                   	push   %eax
    1661:	50                   	push   %eax
    1662:	8b 43 04             	mov    0x4(%ebx),%eax
    1665:	68 00 10 00 00       	push   $0x1000
    166a:	8b 40 04             	mov    0x4(%eax),%eax
    166d:	50                   	push   %eax
    166e:	e8 fd b9 00 00       	call   d070 <ext4_inode_set_flag>
    1673:	8b 43 04             	mov    0x4(%ebx),%eax
    1676:	83 c4 10             	add    $0x10,%esp
    1679:	c6 40 10 01          	movb   $0x1,0x10(%eax)
    167d:	8b 47 04             	mov    0x4(%edi),%eax
    1680:	83 ec 0c             	sub    $0xc,%esp
    1683:	8b 40 04             	mov    0x4(%eax),%eax
    1686:	50                   	push   %eax
    1687:	e8 74 b6 00 00       	call   cd00 <ext4_inode_get_links_count>
    168c:	40                   	inc    %eax
    168d:	5a                   	pop    %edx
    168e:	25 ff ff 00 00       	and    $0xffff,%eax
    1693:	59                   	pop    %ecx
    1694:	50                   	push   %eax
    1695:	8b 47 04             	mov    0x4(%edi),%eax
    1698:	8b 40 04             	mov    0x4(%eax),%eax
    169b:	50                   	push   %eax
    169c:	e8 6f b6 00 00       	call   cd10 <ext4_inode_set_links_count>
    16a1:	8b 47 04             	mov    0x4(%edi),%eax
    16a4:	83 c4 10             	add    $0x10,%esp
    16a7:	c6 40 10 01          	movb   $0x1,0x10(%eax)
    16ab:	8b 43 04             	mov    0x4(%ebx),%eax
    16ae:	83 ec 0c             	sub    $0xc,%esp
    16b1:	8b 40 04             	mov    0x4(%eax),%eax
    16b4:	50                   	push   %eax
    16b5:	e8 46 b6 00 00       	call   cd00 <ext4_inode_get_links_count>
    16ba:	40                   	inc    %eax
    16bb:	5a                   	pop    %edx
    16bc:	25 ff ff 00 00       	and    $0xffff,%eax
    16c1:	59                   	pop    %ecx
    16c2:	50                   	push   %eax
    16c3:	8b 43 04             	mov    0x4(%ebx),%eax
    16c6:	8b 78 04             	mov    0x4(%eax),%edi
    16c9:	57                   	push   %edi
    16ca:	e8 41 b6 00 00       	call   cd10 <ext4_inode_set_links_count>
    16cf:	8b 43 04             	mov    0x4(%ebx),%eax
    16d2:	83 c4 10             	add    $0x10,%esp
    16d5:	c6 40 10 01          	movb   $0x1,0x10(%eax)
    16d9:	8d 65 f4             	lea    -0xc(%ebp),%esp
    16dc:	89 f0                	mov    %esi,%eax
    16de:	5b                   	pop    %ebx
    16df:	5e                   	pop    %esi
    16e0:	5f                   	pop    %edi
    16e1:	5d                   	pop    %ebp
    16e2:	c3                   	ret    
    16e3:	90                   	nop
    16e4:	8d 74 26 00          	lea    0x0(%esi,%eiz,1),%esi
    16e8:	31 ff                	xor    %edi,%edi
    16ea:	e9 a2 fe ff ff       	jmp    1591 <ext4fs_link+0x31>
    16ef:	90                   	nop
    16f0:	89 45 e4             	mov    %eax,-0x1c(%ebp)
    16f3:	50                   	push   %eax
    16f4:	50                   	push   %eax
    16f5:	8b 55 10             	mov    0x10(%ebp),%edx
    16f8:	8b 4f 04             	mov    0x4(%edi),%ecx
    16fb:	52                   	push   %edx
    16fc:	51                   	push   %ecx
    16fd:	e8 6e 67 00 00       	call   7e70 <ext4_directory_remove_entry>
    1702:	8b 55 e4             	mov    -0x1c(%ebp),%edx
    1705:	83 c4 10             	add    $0x10,%esp
    1708:	89 d6                	mov    %edx,%esi
    170a:	e9 ac fe ff ff       	jmp    15bb <ext4fs_link+0x5b>
    170f:	90                   	nop
    1710:	52                   	push   %edx
    1711:	52                   	push   %edx
    1712:	8b 77 04             	mov    0x4(%edi),%esi
    1715:	8b 4d 10             	mov    0x10(%ebp),%ecx
    1718:	51                   	push   %ecx
    1719:	89 45 e4             	mov    %eax,-0x1c(%ebp)
    171c:	56                   	push   %esi
    171d:	e8 4e 67 00 00       	call   7e70 <ext4_directory_remove_entry>
    1722:	5f                   	pop    %edi
    1723:	58                   	pop    %eax
    1724:	8b 43 04             	mov    0x4(%ebx),%eax
    1727:	68 51 01 03 00       	push   $0x30151
    172c:	50                   	push   %eax
    172d:	e8 3e 67 00 00       	call   7e70 <ext4_directory_remove_entry>
    1732:	8b 55 e4             	mov    -0x1c(%ebp),%edx
    1735:	83 c4 10             	add    $0x10,%esp
    1738:	89 d6                	mov    %edx,%esi
    173a:	e9 7c fe ff ff       	jmp    15bb <ext4fs_link+0x5b>
    173f:	90                   	nop
    1740:	be 00 ff ff ff       	mov    $0xffffff00,%esi
    1745:	e9 71 fe ff ff       	jmp    15bb <ext4fs_link+0x5b>
    174a:	8d b6 00 00 00 00    	lea    0x0(%esi),%esi

00001750 <ext4fs_node_put>:
    1750:	55                   	push   %ebp
    1751:	89 e5                	mov    %esp,%ebp
    1753:	53                   	push   %ebx
    1754:	83 ec 20             	sub    $0x20,%esp
    1757:	8b 5d 08             	mov    0x8(%ebp),%ebx
    175a:	68 e0 3e 03 00       	push   $0x33ee0
    175f:	e8 dc 3e 01 00       	call   15640 <fibril_mutex_lock>
    1764:	83 c4 10             	add    $0x10,%esp
    1767:	85 db                	test   %ebx,%ebx
    1769:	0f 84 99 00 00 00    	je     1808 <ext4fs_node_put+0xb8>
    176f:	8b 5b 10             	mov    0x10(%ebx),%ebx
    1772:	8b 43 14             	mov    0x14(%ebx),%eax
    1775:	85 c0                	test   %eax,%eax
    1777:	0f 84 92 00 00 00    	je     180f <ext4fs_node_put+0xbf>
    177d:	48                   	dec    %eax
    177e:	89 43 14             	mov    %eax,0x14(%ebx)
    1781:	85 c0                	test   %eax,%eax
    1783:	75 6a                	jne    17ef <ext4fs_node_put+0x9f>
    1785:	50                   	push   %eax
    1786:	50                   	push   %eax
    1787:	8d 43 0c             	lea    0xc(%ebx),%eax
    178a:	50                   	push   %eax
    178b:	68 cc 41 03 00       	push   $0x341cc
    1790:	e8 1b 5e 02 00       	call   275b0 <hash_table_remove_item>
    1795:	8b 13                	mov    (%ebx),%edx
    1797:	8b 42 10             	mov    0x10(%edx),%eax
    179a:	83 c4 10             	add    $0x10,%esp
    179d:	85 c0                	test   %eax,%eax
    179f:	0f 84 7f 00 00 00    	je     1824 <ext4fs_node_put+0xd4>
    17a5:	83 ec 0c             	sub    $0xc,%esp
    17a8:	48                   	dec    %eax
    17a9:	89 42 10             	mov    %eax,0x10(%edx)
    17ac:	8b 53 04             	mov    0x4(%ebx),%edx
    17af:	52                   	push   %edx
    17b0:	e8 fb 9d 00 00       	call   b5b0 <ext4_filesystem_put_inode_ref>
    17b5:	83 c4 10             	add    $0x10,%esp
    17b8:	85 c0                	test   %eax,%eax
    17ba:	74 1c                	je     17d8 <ext4fs_node_put+0x88>
    17bc:	83 ec 0c             	sub    $0xc,%esp
    17bf:	89 45 f4             	mov    %eax,-0xc(%ebp)
    17c2:	68 e0 3e 03 00       	push   $0x33ee0
    17c7:	e8 f4 3f 01 00       	call   157c0 <fibril_mutex_unlock>
    17cc:	8b 45 f4             	mov    -0xc(%ebp),%eax
    17cf:	83 c4 10             	add    $0x10,%esp
    17d2:	8b 5d fc             	mov    -0x4(%ebp),%ebx
    17d5:	c9                   	leave  
    17d6:	c3                   	ret    
    17d7:	90                   	nop
    17d8:	83 ec 0c             	sub    $0xc,%esp
    17db:	8b 43 08             	mov    0x8(%ebx),%eax
    17de:	50                   	push   %eax
    17df:	e8 ec e5 01 00       	call   1fdd0 <free>
    17e4:	89 1c 24             	mov    %ebx,(%esp)
    17e7:	e8 e4 e5 01 00       	call   1fdd0 <free>
    17ec:	83 c4 10             	add    $0x10,%esp
    17ef:	83 ec 0c             	sub    $0xc,%esp
    17f2:	68 e0 3e 03 00       	push   $0x33ee0
    17f7:	e8 c4 3f 01 00       	call   157c0 <fibril_mutex_unlock>
    17fc:	83 c4 10             	add    $0x10,%esp
    17ff:	31 c0                	xor    %eax,%eax
    1801:	8b 5d fc             	mov    -0x4(%ebp),%ebx
    1804:	c9                   	leave  
    1805:	c3                   	ret    
    1806:	66 90                	xchg   %ax,%ax
    1808:	a1 14 00 00 00       	mov    0x14,%eax
    180d:	0f 0b                	ud2    
    180f:	50                   	push   %eax
    1810:	68 a5 01 00 00       	push   $0x1a5
    1815:	68 53 01 03 00       	push   $0x30153
    181a:	68 60 01 03 00       	push   $0x30160
    181f:	e8 bc a8 02 00       	call   2c0e0 <assert_abort>
    1824:	51                   	push   %ecx
    1825:	68 7a 01 00 00       	push   $0x17a
    182a:	68 53 01 03 00       	push   $0x30153
    182f:	68 90 01 03 00       	push   $0x30190
    1834:	e8 a7 a8 02 00       	call   2c0e0 <assert_abort>
    1839:	8d b4 26 00 00 00 00 	lea    0x0(%esi,%eiz,1),%esi

00001840 <ext4fs_destroy_node>:
    1840:	55                   	push   %ebp
    1841:	89 e5                	mov    %esp,%ebp
    1843:	57                   	push   %edi
    1844:	56                   	push   %esi
    1845:	53                   	push   %ebx
    1846:	83 ec 24             	sub    $0x24,%esp
    1849:	8d 45 e7             	lea    -0x19(%ebp),%eax
    184c:	8b 75 08             	mov    0x8(%ebp),%esi
    184f:	56                   	push   %esi
    1850:	50                   	push   %eax
    1851:	e8 da fb ff ff       	call   1430 <ext4fs_has_children>
    1856:	83 c4 10             	add    $0x10,%esp
    1859:	85 c0                	test   %eax,%eax
    185b:	0f 85 87 00 00 00    	jne    18e8 <ext4fs_destroy_node+0xa8>
    1861:	80 7d e7 00          	cmpb   $0x0,-0x19(%ebp)
    1865:	0f 85 95 00 00 00    	jne    1900 <ext4fs_destroy_node+0xc0>
    186b:	85 f6                	test   %esi,%esi
    186d:	74 59                	je     18c8 <ext4fs_destroy_node+0x88>
    186f:	8b 46 10             	mov    0x10(%esi),%eax
    1872:	8b 78 04             	mov    0x4(%eax),%edi
    1875:	51                   	push   %ecx
    1876:	6a 00                	push   $0x0
    1878:	6a 00                	push   $0x0
    187a:	57                   	push   %edi
    187b:	e8 50 ab 00 00       	call   c3d0 <ext4_filesystem_truncate_inode>
    1880:	83 c4 10             	add    $0x10,%esp
    1883:	89 c3                	mov    %eax,%ebx
    1885:	85 c0                	test   %eax,%eax
    1887:	75 47                	jne    18d0 <ext4fs_destroy_node+0x90>
    1889:	50                   	push   %eax
    188a:	50                   	push   %eax
    188b:	8b 57 04             	mov    0x4(%edi),%edx
    188e:	68 ef be ad de       	push   $0xdeadbeef
    1893:	52                   	push   %edx
    1894:	e8 27 b4 00 00       	call   ccc0 <ext4_inode_set_deletion_time>
    1899:	c6 47 10 01          	movb   $0x1,0x10(%edi)
    189d:	89 3c 24             	mov    %edi,(%esp)
    18a0:	e8 6b 9f 00 00       	call   b810 <ext4_filesystem_free_inode>
    18a5:	83 c4 10             	add    $0x10,%esp
    18a8:	89 c3                	mov    %eax,%ebx
    18aa:	85 c0                	test   %eax,%eax
    18ac:	75 22                	jne    18d0 <ext4fs_destroy_node+0x90>
    18ae:	83 ec 0c             	sub    $0xc,%esp
    18b1:	56                   	push   %esi
    18b2:	e8 99 fe ff ff       	call   1750 <ext4fs_node_put>
    18b7:	83 c4 10             	add    $0x10,%esp
    18ba:	89 c3                	mov    %eax,%ebx
    18bc:	8d 65 f4             	lea    -0xc(%ebp),%esp
    18bf:	89 d8                	mov    %ebx,%eax
    18c1:	5b                   	pop    %ebx
    18c2:	5e                   	pop    %esi
    18c3:	5f                   	pop    %edi
    18c4:	5d                   	pop    %ebp
    18c5:	c3                   	ret    
    18c6:	66 90                	xchg   %ax,%ax
    18c8:	a1 04 00 00 00       	mov    0x4,%eax
    18cd:	0f 0b                	ud2    
    18cf:	90                   	nop
    18d0:	83 ec 0c             	sub    $0xc,%esp
    18d3:	56                   	push   %esi
    18d4:	e8 77 fe ff ff       	call   1750 <ext4fs_node_put>
    18d9:	83 c4 10             	add    $0x10,%esp
    18dc:	8d 65 f4             	lea    -0xc(%ebp),%esp
    18df:	89 d8                	mov    %ebx,%eax
    18e1:	5b                   	pop    %ebx
    18e2:	5e                   	pop    %esi
    18e3:	5f                   	pop    %edi
    18e4:	5d                   	pop    %ebp
    18e5:	c3                   	ret    
    18e6:	66 90                	xchg   %ax,%ax
    18e8:	83 ec 0c             	sub    $0xc,%esp
    18eb:	89 c3                	mov    %eax,%ebx
    18ed:	56                   	push   %esi
    18ee:	e8 5d fe ff ff       	call   1750 <ext4fs_node_put>
    18f3:	83 c4 10             	add    $0x10,%esp
    18f6:	8d 65 f4             	lea    -0xc(%ebp),%esp
    18f9:	89 d8                	mov    %ebx,%eax
    18fb:	5b                   	pop    %ebx
    18fc:	5e                   	pop    %esi
    18fd:	5f                   	pop    %edi
    18fe:	5d                   	pop    %ebp
    18ff:	c3                   	ret    
    1900:	83 ec 0c             	sub    $0xc,%esp
    1903:	bb f2 ff ff ff       	mov    $0xfffffff2,%ebx
    1908:	56                   	push   %esi
    1909:	e8 42 fe ff ff       	call   1750 <ext4fs_node_put>
    190e:	83 c4 10             	add    $0x10,%esp
    1911:	eb a9                	jmp    18bc <ext4fs_destroy_node+0x7c>
    1913:	8d b6 00 00 00 00    	lea    0x0(%esi),%esi
    1919:	8d bc 27 00 00 00 00 	lea    0x0(%edi,%eiz,1),%edi

00001920 <ext4fs_node_get_core.part.2>:
    1920:	55                   	push   %ebp
    1921:	89 e5                	mov    %esp,%ebp
    1923:	57                   	push   %edi
    1924:	56                   	push   %esi
    1925:	53                   	push   %ebx
    1926:	83 ec 38             	sub    $0x38,%esp
    1929:	89 d3                	mov    %edx,%ebx
    192b:	89 45 d0             	mov    %eax,-0x30(%ebp)
    192e:	89 4d d4             	mov    %ecx,-0x2c(%ebp)
    1931:	6a 18                	push   $0x18
    1933:	e8 e8 e2 01 00       	call   1fc20 <malloc>
    1938:	83 c4 10             	add    $0x10,%esp
    193b:	85 c0                	test   %eax,%eax
    193d:	0f 84 bb 00 00 00    	je     19fe <ext4fs_node_get_core.part.2+0xde>
    1943:	83 ec 0c             	sub    $0xc,%esp
    1946:	89 c7                	mov    %eax,%edi
    1948:	6a 14                	push   $0x14
    194a:	e8 d1 e2 01 00       	call   1fc20 <malloc>
    194f:	83 c4 10             	add    $0x10,%esp
    1952:	89 c6                	mov    %eax,%esi
    1954:	85 c0                	test   %eax,%eax
    1956:	0f 84 b9 00 00 00    	je     1a15 <ext4fs_node_get_core.part.2+0xf5>
    195c:	83 ec 0c             	sub    $0xc,%esp
    195f:	50                   	push   %eax
    1960:	e8 ab 44 00 00       	call   5e10 <fs_node_initialize>
    1965:	83 c4 0c             	add    $0xc,%esp
    1968:	8d 45 e4             	lea    -0x1c(%ebp),%eax
    196b:	8b 4d d4             	mov    -0x2c(%ebp),%ecx
    196e:	50                   	push   %eax
    196f:	8b 43 0c             	mov    0xc(%ebx),%eax
    1972:	51                   	push   %ecx
    1973:	50                   	push   %eax
    1974:	e8 27 9b 00 00       	call   b4a0 <ext4_filesystem_get_inode_ref>
    1979:	83 c4 10             	add    $0x10,%esp
    197c:	85 c0                	test   %eax,%eax
    197e:	75 50                	jne    19d0 <ext4fs_node_get_core.part.2+0xb0>
    1980:	89 45 d4             	mov    %eax,-0x2c(%ebp)
    1983:	8b 45 d0             	mov    -0x30(%ebp),%eax
    1986:	8b 55 e4             	mov    -0x1c(%ebp),%edx
    1989:	89 1f                	mov    %ebx,(%edi)
    198b:	89 30                	mov    %esi,(%eax)
    198d:	89 57 04             	mov    %edx,0x4(%edi)
    1990:	c7 47 14 01 00 00 00 	movl   $0x1,0x14(%edi)
    1997:	89 77 08             	mov    %esi,0x8(%edi)
    199a:	8d 57 0c             	lea    0xc(%edi),%edx
    199d:	89 7e 10             	mov    %edi,0x10(%esi)
    19a0:	50                   	push   %eax
    19a1:	50                   	push   %eax
    19a2:	52                   	push   %edx
    19a3:	68 cc 41 03 00       	push   $0x341cc
    19a8:	e8 a3 57 02 00       	call   27150 <hash_table_insert>
    19ad:	8b 53 10             	mov    0x10(%ebx),%edx
    19b0:	42                   	inc    %edx
    19b1:	c7 04 24 e0 3e 03 00 	movl   $0x33ee0,(%esp)
    19b8:	89 53 10             	mov    %edx,0x10(%ebx)
    19bb:	e8 00 3e 01 00       	call   157c0 <fibril_mutex_unlock>
    19c0:	83 c4 10             	add    $0x10,%esp
    19c3:	8b 45 d4             	mov    -0x2c(%ebp),%eax
    19c6:	8d 65 f4             	lea    -0xc(%ebp),%esp
    19c9:	5b                   	pop    %ebx
    19ca:	5e                   	pop    %esi
    19cb:	5f                   	pop    %edi
    19cc:	5d                   	pop    %ebp
    19cd:	c3                   	ret    
    19ce:	66 90                	xchg   %ax,%ax
    19d0:	83 ec 0c             	sub    $0xc,%esp
    19d3:	89 45 d4             	mov    %eax,-0x2c(%ebp)
    19d6:	57                   	push   %edi
    19d7:	e8 f4 e3 01 00       	call   1fdd0 <free>
    19dc:	89 34 24             	mov    %esi,(%esp)
    19df:	e8 ec e3 01 00       	call   1fdd0 <free>
    19e4:	c7 04 24 e0 3e 03 00 	movl   $0x33ee0,(%esp)
    19eb:	e8 d0 3d 01 00       	call   157c0 <fibril_mutex_unlock>
    19f0:	8b 45 d4             	mov    -0x2c(%ebp),%eax
    19f3:	83 c4 10             	add    $0x10,%esp
    19f6:	8d 65 f4             	lea    -0xc(%ebp),%esp
    19f9:	5b                   	pop    %ebx
    19fa:	5e                   	pop    %esi
    19fb:	5f                   	pop    %edi
    19fc:	5d                   	pop    %ebp
    19fd:	c3                   	ret    
    19fe:	83 ec 0c             	sub    $0xc,%esp
    1a01:	68 e0 3e 03 00       	push   $0x33ee0
    1a06:	e8 b5 3d 01 00       	call   157c0 <fibril_mutex_unlock>
    1a0b:	83 c4 10             	add    $0x10,%esp
    1a0e:	b8 fe ff ff ff       	mov    $0xfffffffe,%eax
    1a13:	eb b1                	jmp    19c6 <ext4fs_node_get_core.part.2+0xa6>
    1a15:	83 ec 0c             	sub    $0xc,%esp
    1a18:	57                   	push   %edi
    1a19:	e8 b2 e3 01 00       	call   1fdd0 <free>
    1a1e:	c7 04 24 e0 3e 03 00 	movl   $0x33ee0,(%esp)
    1a25:	e8 96 3d 01 00       	call   157c0 <fibril_mutex_unlock>
    1a2a:	83 c4 10             	add    $0x10,%esp
    1a2d:	b8 fe ff ff ff       	mov    $0xfffffffe,%eax
    1a32:	eb 92                	jmp    19c6 <ext4fs_node_get_core.part.2+0xa6>
    1a34:	8d b6 00 00 00 00    	lea    0x0(%esi),%esi
    1a3a:	8d bf 00 00 00 00    	lea    0x0(%edi),%edi

00001a40 <ext4fs_mounted>:
    1a40:	55                   	push   %ebp
    1a41:	89 e5                	mov    %esp,%ebp
    1a43:	57                   	push   %edi
    1a44:	56                   	push   %esi
    1a45:	53                   	push   %ebx
    1a46:	83 ec 28             	sub    $0x28,%esp
    1a49:	6a 48                	push   $0x48
    1a4b:	e8 d0 e1 01 00       	call   1fc20 <malloc>
    1a50:	83 c4 10             	add    $0x10,%esp
    1a53:	85 c0                	test   %eax,%eax
    1a55:	0f 84 ed 01 00 00    	je     1c48 <ext4fs_mounted+0x208>
    1a5b:	83 ec 0c             	sub    $0xc,%esp
    1a5e:	89 c3                	mov    %eax,%ebx
    1a60:	6a 14                	push   $0x14
    1a62:	e8 b9 e1 01 00       	call   1fc20 <malloc>
    1a67:	83 c4 10             	add    $0x10,%esp
    1a6a:	89 c6                	mov    %eax,%esi
    1a6c:	85 c0                	test   %eax,%eax
    1a6e:	0f 84 db 01 00 00    	je     1c4f <ext4fs_mounted+0x20f>
    1a74:	50                   	push   %eax
    1a75:	50                   	push   %eax
    1a76:	8b 45 0c             	mov    0xc(%ebp),%eax
    1a79:	68 76 01 03 00       	push   $0x30176
    1a7e:	50                   	push   %eax
    1a7f:	e8 dc f4 00 00       	call   10f60 <str_cmp>
    1a84:	83 c4 0c             	add    $0xc,%esp
    1a87:	85 c0                	test   %eax,%eax
    1a89:	0f 95 c0             	setne  %al
    1a8c:	25 ff 00 00 00       	and    $0xff,%eax
    1a91:	50                   	push   %eax
    1a92:	8b 45 08             	mov    0x8(%ebp),%eax
    1a95:	50                   	push   %eax
    1a96:	53                   	push   %ebx
    1a97:	e8 04 8c 00 00       	call   a6a0 <ext4_filesystem_init>
    1a9c:	83 c4 10             	add    $0x10,%esp
    1a9f:	89 c7                	mov    %eax,%edi
    1aa1:	85 c0                	test   %eax,%eax
    1aa3:	0f 85 6f 01 00 00    	jne    1c18 <ext4fs_mounted+0x1d8>
    1aa9:	83 ec 0c             	sub    $0xc,%esp
    1aac:	53                   	push   %ebx
    1aad:	e8 ee 8d 00 00       	call   a8a0 <ext4_filesystem_check_sanity>
    1ab2:	83 c4 10             	add    $0x10,%esp
    1ab5:	89 c7                	mov    %eax,%edi
    1ab7:	85 c0                	test   %eax,%eax
    1ab9:	0f 85 31 01 00 00    	jne    1bf0 <ext4fs_mounted+0x1b0>
    1abf:	50                   	push   %eax
    1ac0:	50                   	push   %eax
    1ac1:	8d 45 db             	lea    -0x25(%ebp),%eax
    1ac4:	50                   	push   %eax
    1ac5:	53                   	push   %ebx
    1ac6:	e8 f5 8d 00 00       	call   a8c0 <ext4_filesystem_check_features>
    1acb:	83 c4 10             	add    $0x10,%esp
    1ace:	89 c7                	mov    %eax,%edi
    1ad0:	85 c0                	test   %eax,%eax
    1ad2:	0f 85 18 01 00 00    	jne    1bf0 <ext4fs_mounted+0x1b0>
    1ad8:	83 ec 0c             	sub    $0xc,%esp
    1adb:	8b 45 08             	mov    0x8(%ebp),%eax
    1ade:	89 46 08             	mov    %eax,0x8(%esi)
    1ae1:	c7 06 00 00 00 00    	movl   $0x0,(%esi)
    1ae7:	c7 46 04 00 00 00 00 	movl   $0x0,0x4(%esi)
    1aee:	89 5e 0c             	mov    %ebx,0xc(%esi)
    1af1:	c7 46 10 00 00 00 00 	movl   $0x0,0x10(%esi)
    1af8:	68 e0 3e 03 00       	push   $0x33ee0
    1afd:	e8 3e 3b 01 00       	call   15640 <fibril_mutex_lock>
    1b02:	8b 46 08             	mov    0x8(%esi),%eax
    1b05:	89 45 e0             	mov    %eax,-0x20(%ebp)
    1b08:	8d 45 e0             	lea    -0x20(%ebp),%eax
    1b0b:	59                   	pop    %ecx
    1b0c:	c7 45 e4 02 00 00 00 	movl   $0x2,-0x1c(%ebp)
    1b13:	5f                   	pop    %edi
    1b14:	50                   	push   %eax
    1b15:	68 cc 41 03 00       	push   $0x341cc
    1b1a:	e8 21 58 02 00       	call   27340 <hash_table_find>
    1b1f:	83 c4 10             	add    $0x10,%esp
    1b22:	85 c0                	test   %eax,%eax
    1b24:	0f 84 a6 00 00 00    	je     1bd0 <ext4fs_mounted+0x190>
    1b2a:	8b 50 fc             	mov    -0x4(%eax),%edx
    1b2d:	83 e8 0c             	sub    $0xc,%eax
    1b30:	83 ec 0c             	sub    $0xc,%esp
    1b33:	89 55 dc             	mov    %edx,-0x24(%ebp)
    1b36:	8b 50 14             	mov    0x14(%eax),%edx
    1b39:	42                   	inc    %edx
    1b3a:	89 50 14             	mov    %edx,0x14(%eax)
    1b3d:	68 e0 3e 03 00       	push   $0x33ee0
    1b42:	e8 79 3c 01 00       	call   157c0 <fibril_mutex_unlock>
    1b47:	83 c4 10             	add    $0x10,%esp
    1b4a:	83 ec 0c             	sub    $0xc,%esp
    1b4d:	68 f0 3e 03 00       	push   $0x33ef0
    1b52:	e8 e9 3a 01 00       	call   15640 <fibril_mutex_lock>
    1b57:	a1 00 3f 03 00       	mov    0x33f00,%eax
    1b5c:	c7 46 04 00 3f 03 00 	movl   $0x33f00,0x4(%esi)
    1b63:	89 06                	mov    %eax,(%esi)
    1b65:	89 35 00 3f 03 00    	mov    %esi,0x33f00
    1b6b:	89 70 04             	mov    %esi,0x4(%eax)
    1b6e:	c7 04 24 f0 3e 03 00 	movl   $0x33ef0,(%esp)
    1b75:	e8 46 3c 01 00       	call   157c0 <fibril_mutex_unlock>
    1b7a:	8b 45 dc             	mov    -0x24(%ebp),%eax
    1b7d:	83 c4 10             	add    $0x10,%esp
    1b80:	85 c0                	test   %eax,%eax
    1b82:	0f 84 b0 00 00 00    	je     1c38 <ext4fs_mounted+0x1f8>
    1b88:	8b 4d 10             	mov    0x10(%ebp),%ecx
    1b8b:	8b 40 10             	mov    0x10(%eax),%eax
    1b8e:	c7 01 02 00 00 00    	movl   $0x2,(%ecx)
    1b94:	52                   	push   %edx
    1b95:	52                   	push   %edx
    1b96:	8b 40 04             	mov    0x4(%eax),%eax
    1b99:	8b 5b 04             	mov    0x4(%ebx),%ebx
    1b9c:	8b 48 04             	mov    0x4(%eax),%ecx
    1b9f:	51                   	push   %ecx
    1ba0:	53                   	push   %ebx
    1ba1:	e8 1a b0 00 00       	call   cbc0 <ext4_inode_get_size>
    1ba6:	8b 4d 14             	mov    0x14(%ebp),%ecx
    1ba9:	8b 7d dc             	mov    -0x24(%ebp),%edi
    1bac:	89 01                	mov    %eax,(%ecx)
    1bae:	8b 45 18             	mov    0x18(%ebp),%eax
    1bb1:	89 51 04             	mov    %edx,0x4(%ecx)
    1bb4:	c7 00 01 00 00 00    	movl   $0x1,(%eax)
    1bba:	5e                   	pop    %esi
    1bbb:	57                   	push   %edi
    1bbc:	e8 8f fb ff ff       	call   1750 <ext4fs_node_put>
    1bc1:	83 c4 10             	add    $0x10,%esp
    1bc4:	8d 65 f4             	lea    -0xc(%ebp),%esp
    1bc7:	89 c7                	mov    %eax,%edi
    1bc9:	89 f8                	mov    %edi,%eax
    1bcb:	5b                   	pop    %ebx
    1bcc:	5e                   	pop    %esi
    1bcd:	5f                   	pop    %edi
    1bce:	5d                   	pop    %ebp
    1bcf:	c3                   	ret    
    1bd0:	b9 02 00 00 00       	mov    $0x2,%ecx
    1bd5:	89 f2                	mov    %esi,%edx
    1bd7:	8d 45 dc             	lea    -0x24(%ebp),%eax
    1bda:	e8 41 fd ff ff       	call   1920 <ext4fs_node_get_core.part.2>
    1bdf:	89 c7                	mov    %eax,%edi
    1be1:	85 c0                	test   %eax,%eax
    1be3:	0f 84 61 ff ff ff    	je     1b4a <ext4fs_mounted+0x10a>
    1be9:	8d b4 26 00 00 00 00 	lea    0x0(%esi,%eiz,1),%esi
    1bf0:	83 ec 0c             	sub    $0xc,%esp
    1bf3:	53                   	push   %ebx
    1bf4:	e8 57 8c 00 00       	call   a850 <ext4_filesystem_fini>
    1bf9:	89 1c 24             	mov    %ebx,(%esp)
    1bfc:	e8 cf e1 01 00       	call   1fdd0 <free>
    1c01:	89 34 24             	mov    %esi,(%esp)
    1c04:	e8 c7 e1 01 00       	call   1fdd0 <free>
    1c09:	83 c4 10             	add    $0x10,%esp
    1c0c:	8d 65 f4             	lea    -0xc(%ebp),%esp
    1c0f:	89 f8                	mov    %edi,%eax
    1c11:	5b                   	pop    %ebx
    1c12:	5e                   	pop    %esi
    1c13:	5f                   	pop    %edi
    1c14:	5d                   	pop    %ebp
    1c15:	c3                   	ret    
    1c16:	66 90                	xchg   %ax,%ax
    1c18:	83 ec 0c             	sub    $0xc,%esp
    1c1b:	53                   	push   %ebx
    1c1c:	e8 af e1 01 00       	call   1fdd0 <free>
    1c21:	89 34 24             	mov    %esi,(%esp)
    1c24:	e8 a7 e1 01 00       	call   1fdd0 <free>
    1c29:	83 c4 10             	add    $0x10,%esp
    1c2c:	8d 65 f4             	lea    -0xc(%ebp),%esp
    1c2f:	89 f8                	mov    %edi,%eax
    1c31:	5b                   	pop    %ebx
    1c32:	5e                   	pop    %esi
    1c33:	5f                   	pop    %edi
    1c34:	5d                   	pop    %ebp
    1c35:	c3                   	ret    
    1c36:	66 90                	xchg   %ax,%ax
    1c38:	8b 45 10             	mov    0x10(%ebp),%eax
    1c3b:	c7 00 02 00 00 00    	movl   $0x2,(%eax)
    1c41:	a1 04 00 00 00       	mov    0x4,%eax
    1c46:	0f 0b                	ud2    
    1c48:	bf fe ff ff ff       	mov    $0xfffffffe,%edi
    1c4d:	eb bd                	jmp    1c0c <ext4fs_mounted+0x1cc>
    1c4f:	83 ec 0c             	sub    $0xc,%esp
    1c52:	bf fe ff ff ff       	mov    $0xfffffffe,%edi
    1c57:	53                   	push   %ebx
    1c58:	e8 73 e1 01 00       	call   1fdd0 <free>
    1c5d:	83 c4 10             	add    $0x10,%esp
    1c60:	eb aa                	jmp    1c0c <ext4fs_mounted+0x1cc>
    1c62:	8d b4 26 00 00 00 00 	lea    0x0(%esi,%eiz,1),%esi
    1c69:	8d bc 27 00 00 00 00 	lea    0x0(%edi,%eiz,1),%edi

00001c70 <ext4fs_read>:
    1c70:	55                   	push   %ebp
    1c71:	89 e5                	mov    %esp,%ebp
    1c73:	57                   	push   %edi
    1c74:	56                   	push   %esi
    1c75:	53                   	push   %ebx
    1c76:	83 ec 74             	sub    $0x74,%esp
    1c79:	8b 45 10             	mov    0x10(%ebp),%eax
    1c7c:	8b 55 14             	mov    0x14(%ebp),%edx
    1c7f:	89 45 b0             	mov    %eax,-0x50(%ebp)
    1c82:	8d 45 c8             	lea    -0x38(%ebp),%eax
    1c85:	50                   	push   %eax
    1c86:	8d 45 c4             	lea    -0x3c(%ebp),%eax
    1c89:	50                   	push   %eax
    1c8a:	8b 75 08             	mov    0x8(%ebp),%esi
    1c8d:	89 55 b4             	mov    %edx,-0x4c(%ebp)
    1c90:	e8 3b 39 02 00       	call   255d0 <async_data_read_receive>
    1c95:	83 c4 10             	add    $0x10,%esp
    1c98:	84 c0                	test   %al,%al
    1c9a:	0f 84 6c 04 00 00    	je     210c <ext4fs_read+0x49c>
    1ca0:	83 ec 0c             	sub    $0xc,%esp
    1ca3:	68 f0 3e 03 00       	push   $0x33ef0
    1ca8:	e8 93 39 01 00       	call   15640 <fibril_mutex_lock>
    1cad:	8b 1d 04 3f 03 00    	mov    0x33f04,%ebx
    1cb3:	83 c4 10             	add    $0x10,%esp
    1cb6:	81 fb 00 3f 03 00    	cmp    $0x33f00,%ebx
    1cbc:	74 12                	je     1cd0 <ext4fs_read+0x60>
    1cbe:	66 90                	xchg   %ax,%ax
    1cc0:	3b 73 08             	cmp    0x8(%ebx),%esi
    1cc3:	74 3b                	je     1d00 <ext4fs_read+0x90>
    1cc5:	8b 5b 04             	mov    0x4(%ebx),%ebx
    1cc8:	81 fb 00 3f 03 00    	cmp    $0x33f00,%ebx
    1cce:	75 f0                	jne    1cc0 <ext4fs_read+0x50>
    1cd0:	83 ec 0c             	sub    $0xc,%esp
    1cd3:	68 f0 3e 03 00       	push   $0x33ef0
    1cd8:	e8 e3 3a 01 00       	call   157c0 <fibril_mutex_unlock>
    1cdd:	5e                   	pop    %esi
    1cde:	5f                   	pop    %edi
    1cdf:	8b 5d c4             	mov    -0x3c(%ebp),%ebx
    1ce2:	6a f2                	push   $0xfffffff2
    1ce4:	53                   	push   %ebx
    1ce5:	be f2 ff ff ff       	mov    $0xfffffff2,%esi
    1cea:	e8 81 21 02 00       	call   23e70 <async_answer_0>
    1cef:	83 c4 10             	add    $0x10,%esp
    1cf2:	8d 65 f4             	lea    -0xc(%ebp),%esp
    1cf5:	89 f0                	mov    %esi,%eax
    1cf7:	5b                   	pop    %ebx
    1cf8:	5e                   	pop    %esi
    1cf9:	5f                   	pop    %edi
    1cfa:	5d                   	pop    %ebp
    1cfb:	c3                   	ret    
    1cfc:	8d 74 26 00          	lea    0x0(%esi,%eiz,1),%esi
    1d00:	83 ec 0c             	sub    $0xc,%esp
    1d03:	68 f0 3e 03 00       	push   $0x33ef0
    1d08:	e8 b3 3a 01 00       	call   157c0 <fibril_mutex_unlock>
    1d0d:	83 c4 0c             	add    $0xc,%esp
    1d10:	8d 45 cc             	lea    -0x34(%ebp),%eax
    1d13:	8b 55 0c             	mov    0xc(%ebp),%edx
    1d16:	8b 4b 0c             	mov    0xc(%ebx),%ecx
    1d19:	50                   	push   %eax
    1d1a:	52                   	push   %edx
    1d1b:	51                   	push   %ecx
    1d1c:	e8 7f 97 00 00       	call   b4a0 <ext4_filesystem_get_inode_ref>
    1d21:	83 c4 10             	add    $0x10,%esp
    1d24:	89 c6                	mov    %eax,%esi
    1d26:	85 c0                	test   %eax,%eax
    1d28:	0f 85 4a 01 00 00    	jne    1e78 <ext4fs_read+0x208>
    1d2e:	50                   	push   %eax
    1d2f:	8b 45 cc             	mov    -0x34(%ebp),%eax
    1d32:	68 00 80 00 00       	push   $0x8000
    1d37:	8b 40 04             	mov    0x4(%eax),%eax
    1d3a:	50                   	push   %eax
    1d3b:	8b 43 0c             	mov    0xc(%ebx),%eax
    1d3e:	8b 40 04             	mov    0x4(%eax),%eax
    1d41:	50                   	push   %eax
    1d42:	e8 89 b2 00 00       	call   cfd0 <ext4_inode_is_type>
    1d47:	83 c4 10             	add    $0x10,%esp
    1d4a:	84 c0                	test   %al,%al
    1d4c:	0f 85 3f 01 00 00    	jne    1e91 <ext4fs_read+0x221>
    1d52:	50                   	push   %eax
    1d53:	8b 45 cc             	mov    -0x34(%ebp),%eax
    1d56:	68 00 40 00 00       	push   $0x4000
    1d5b:	8b 40 04             	mov    0x4(%eax),%eax
    1d5e:	50                   	push   %eax
    1d5f:	8b 43 0c             	mov    0xc(%ebx),%eax
    1d62:	8b 40 04             	mov    0x4(%eax),%eax
    1d65:	50                   	push   %eax
    1d66:	e8 65 b2 00 00       	call   cfd0 <ext4_inode_is_type>
    1d6b:	83 c4 10             	add    $0x10,%esp
    1d6e:	84 c0                	test   %al,%al
    1d70:	0f 84 0b 03 00 00    	je     2081 <ext4fs_read+0x411>
    1d76:	8b 45 c4             	mov    -0x3c(%ebp),%eax
    1d79:	8b 75 b4             	mov    -0x4c(%ebp),%esi
    1d7c:	8b 7d b0             	mov    -0x50(%ebp),%edi
    1d7f:	56                   	push   %esi
    1d80:	89 45 ac             	mov    %eax,-0x54(%ebp)
    1d83:	57                   	push   %edi
    1d84:	8b 45 cc             	mov    -0x34(%ebp),%eax
    1d87:	8d 7d d4             	lea    -0x2c(%ebp),%edi
    1d8a:	50                   	push   %eax
    1d8b:	57                   	push   %edi
    1d8c:	e8 df 5b 00 00       	call   7970 <ext4_directory_iterator_init>
    1d91:	83 c4 10             	add    $0x10,%esp
    1d94:	89 c6                	mov    %eax,%esi
    1d96:	85 c0                	test   %eax,%eax
    1d98:	0f 85 07 03 00 00    	jne    20a5 <ext4fs_read+0x435>
    1d9e:	66 90                	xchg   %ax,%ax
    1da0:	8b 45 e4             	mov    -0x1c(%ebp),%eax
    1da3:	85 c0                	test   %eax,%eax
    1da5:	0f 84 68 03 00 00    	je     2113 <ext4fs_read+0x4a3>
    1dab:	8b 10                	mov    (%eax),%edx
    1dad:	85 d2                	test   %edx,%edx
    1daf:	0f 84 73 01 00 00    	je     1f28 <ext4fs_read+0x2b8>
    1db5:	51                   	push   %ecx
    1db6:	51                   	push   %ecx
    1db7:	50                   	push   %eax
    1db8:	8b 43 0c             	mov    0xc(%ebx),%eax
    1dbb:	8b 70 04             	mov    0x4(%eax),%esi
    1dbe:	56                   	push   %esi
    1dbf:	e8 4c 5a 00 00       	call   7810 <ext4_directory_entry_ll_get_name_length>
    1dc4:	31 f6                	xor    %esi,%esi
    1dc6:	83 c4 10             	add    $0x10,%esp
    1dc9:	66 89 c6             	mov    %ax,%si
    1dcc:	8b 55 e4             	mov    -0x1c(%ebp),%edx
    1dcf:	83 fe 01             	cmp    $0x1,%esi
    1dd2:	0f 84 80 01 00 00    	je     1f58 <ext4fs_read+0x2e8>
    1dd8:	83 fe 02             	cmp    $0x2,%esi
    1ddb:	75 0f                	jne    1dec <ext4fs_read+0x17c>
    1ddd:	80 7a 08 2e          	cmpb   $0x2e,0x8(%edx)
    1de1:	0f 84 30 01 00 00    	je     1f17 <ext4fs_read+0x2a7>
    1de7:	b8 02 00 00 00       	mov    $0x2,%eax
    1dec:	25 ff ff 00 00       	and    $0xffff,%eax
    1df1:	83 ec 0c             	sub    $0xc,%esp
    1df4:	8d 58 01             	lea    0x1(%eax),%ebx
    1df7:	53                   	push   %ebx
    1df8:	e8 23 de 01 00       	call   1fc20 <malloc>
    1dfd:	83 c4 10             	add    $0x10,%esp
    1e00:	89 c2                	mov    %eax,%edx
    1e02:	85 c0                	test   %eax,%eax
    1e04:	0f 84 81 03 00 00    	je     218b <ext4fs_read+0x51b>
    1e0a:	50                   	push   %eax
    1e0b:	8b 45 e4             	mov    -0x1c(%ebp),%eax
    1e0e:	83 c0 08             	add    $0x8,%eax
    1e11:	56                   	push   %esi
    1e12:	89 55 a8             	mov    %edx,-0x58(%ebp)
    1e15:	50                   	push   %eax
    1e16:	52                   	push   %edx
    1e17:	e8 f4 e3 00 00       	call   10210 <memcpy>
    1e1c:	8b 55 a8             	mov    -0x58(%ebp),%edx
    1e1f:	83 c4 0c             	add    $0xc,%esp
    1e22:	8b 45 ac             	mov    -0x54(%ebp),%eax
    1e25:	c6 04 32 00          	movb   $0x0,(%edx,%esi,1)
    1e29:	53                   	push   %ebx
    1e2a:	52                   	push   %edx
    1e2b:	50                   	push   %eax
    1e2c:	e8 7f 38 02 00       	call   256b0 <async_data_read_finalize>
    1e31:	8b 55 a8             	mov    -0x58(%ebp),%edx
    1e34:	89 14 24             	mov    %edx,(%esp)
    1e37:	e8 94 df 01 00       	call   1fdd0 <free>
    1e3c:	89 3c 24             	mov    %edi,(%esp)
    1e3f:	e8 dc 5b 00 00       	call   7a20 <ext4_directory_iterator_next>
    1e44:	83 c4 10             	add    $0x10,%esp
    1e47:	89 c6                	mov    %eax,%esi
    1e49:	85 c0                	test   %eax,%eax
    1e4b:	0f 85 a3 00 00 00    	jne    1ef4 <ext4fs_read+0x284>
    1e51:	83 ec 0c             	sub    $0xc,%esp
    1e54:	8b 5d dc             	mov    -0x24(%ebp),%ebx
    1e57:	57                   	push   %edi
    1e58:	e8 63 5c 00 00       	call   7ac0 <ext4_directory_iterator_fini>
    1e5d:	83 c4 10             	add    $0x10,%esp
    1e60:	89 c6                	mov    %eax,%esi
    1e62:	85 c0                	test   %eax,%eax
    1e64:	0f 85 8a 00 00 00    	jne    1ef4 <ext4fs_read+0x284>
    1e6a:	8b 45 b0             	mov    -0x50(%ebp),%eax
    1e6d:	29 c3                	sub    %eax,%ebx
    1e6f:	8b 45 18             	mov    0x18(%ebp),%eax
    1e72:	89 18                	mov    %ebx,(%eax)
    1e74:	eb 7e                	jmp    1ef4 <ext4fs_read+0x284>
    1e76:	66 90                	xchg   %ax,%ax
    1e78:	50                   	push   %eax
    1e79:	50                   	push   %eax
    1e7a:	8b 45 c4             	mov    -0x3c(%ebp),%eax
    1e7d:	56                   	push   %esi
    1e7e:	50                   	push   %eax
    1e7f:	e8 ec 1f 02 00       	call   23e70 <async_answer_0>
    1e84:	83 c4 10             	add    $0x10,%esp
    1e87:	8d 65 f4             	lea    -0xc(%ebp),%esp
    1e8a:	89 f0                	mov    %esi,%eax
    1e8c:	5b                   	pop    %ebx
    1e8d:	5e                   	pop    %esi
    1e8e:	5f                   	pop    %edi
    1e8f:	5d                   	pop    %ebp
    1e90:	c3                   	ret    
    1e91:	8b 45 cc             	mov    -0x34(%ebp),%eax
    1e94:	89 c1                	mov    %eax,%ecx
    1e96:	89 45 a8             	mov    %eax,-0x58(%ebp)
    1e99:	8b 45 c8             	mov    -0x38(%ebp),%eax
    1e9c:	89 45 a4             	mov    %eax,-0x5c(%ebp)
    1e9f:	8b 45 c4             	mov    -0x3c(%ebp),%eax
    1ea2:	89 45 ac             	mov    %eax,-0x54(%ebp)
    1ea5:	8b 43 0c             	mov    0xc(%ebx),%eax
    1ea8:	8b 40 04             	mov    0x4(%eax),%eax
    1eab:	57                   	push   %edi
    1eac:	57                   	push   %edi
    1ead:	89 c2                	mov    %eax,%edx
    1eaf:	89 45 a0             	mov    %eax,-0x60(%ebp)
    1eb2:	8b 41 04             	mov    0x4(%ecx),%eax
    1eb5:	50                   	push   %eax
    1eb6:	52                   	push   %edx
    1eb7:	e8 04 ad 00 00       	call   cbc0 <ext4_inode_get_size>
    1ebc:	83 c4 10             	add    $0x10,%esp
    1ebf:	89 d1                	mov    %edx,%ecx
    1ec1:	8b 55 b4             	mov    -0x4c(%ebp),%edx
    1ec4:	89 c7                	mov    %eax,%edi
    1ec6:	89 45 9c             	mov    %eax,-0x64(%ebp)
    1ec9:	39 ca                	cmp    %ecx,%edx
    1ecb:	8b 45 b0             	mov    -0x50(%ebp),%eax
    1ece:	0f 82 9c 00 00 00    	jb     1f70 <ext4fs_read+0x300>
    1ed4:	0f 86 8e 00 00 00    	jbe    1f68 <ext4fs_read+0x2f8>
    1eda:	50                   	push   %eax
    1edb:	8b 45 ac             	mov    -0x54(%ebp),%eax
    1ede:	6a 00                	push   $0x0
    1ee0:	6a 00                	push   $0x0
    1ee2:	50                   	push   %eax
    1ee3:	e8 c8 37 02 00       	call   256b0 <async_data_read_finalize>
    1ee8:	8b 45 18             	mov    0x18(%ebp),%eax
    1eeb:	83 c4 10             	add    $0x10,%esp
    1eee:	c7 00 00 00 00 00    	movl   $0x0,(%eax)
    1ef4:	83 ec 0c             	sub    $0xc,%esp
    1ef7:	8b 45 cc             	mov    -0x34(%ebp),%eax
    1efa:	50                   	push   %eax
    1efb:	e8 b0 96 00 00       	call   b5b0 <ext4_filesystem_put_inode_ref>
    1f00:	83 c4 10             	add    $0x10,%esp
    1f03:	85 f6                	test   %esi,%esi
    1f05:	0f 85 e7 fd ff ff    	jne    1cf2 <ext4fs_read+0x82>
    1f0b:	8d 65 f4             	lea    -0xc(%ebp),%esp
    1f0e:	89 c6                	mov    %eax,%esi
    1f10:	89 f0                	mov    %esi,%eax
    1f12:	5b                   	pop    %ebx
    1f13:	5e                   	pop    %esi
    1f14:	5f                   	pop    %edi
    1f15:	5d                   	pop    %ebp
    1f16:	c3                   	ret    
    1f17:	80 7a 09 2e          	cmpb   $0x2e,0x9(%edx)
    1f1b:	0f 85 c6 fe ff ff    	jne    1de7 <ext4fs_read+0x177>
    1f21:	8d b4 26 00 00 00 00 	lea    0x0(%esi,%eiz,1),%esi
    1f28:	83 ec 0c             	sub    $0xc,%esp
    1f2b:	57                   	push   %edi
    1f2c:	e8 ef 5a 00 00       	call   7a20 <ext4_directory_iterator_next>
    1f31:	83 c4 10             	add    $0x10,%esp
    1f34:	85 c0                	test   %eax,%eax
    1f36:	0f 84 64 fe ff ff    	je     1da0 <ext4fs_read+0x130>
    1f3c:	83 ec 0c             	sub    $0xc,%esp
    1f3f:	89 c6                	mov    %eax,%esi
    1f41:	57                   	push   %edi
    1f42:	e8 79 5b 00 00       	call   7ac0 <ext4_directory_iterator_fini>
    1f47:	8b 4d ac             	mov    -0x54(%ebp),%ecx
    1f4a:	58                   	pop    %eax
    1f4b:	5a                   	pop    %edx
    1f4c:	56                   	push   %esi
    1f4d:	51                   	push   %ecx
    1f4e:	e8 1d 1f 02 00       	call   23e70 <async_answer_0>
    1f53:	83 c4 10             	add    $0x10,%esp
    1f56:	eb 9c                	jmp    1ef4 <ext4fs_read+0x284>
    1f58:	80 7a 08 2e          	cmpb   $0x2e,0x8(%edx)
    1f5c:	74 ca                	je     1f28 <ext4fs_read+0x2b8>
    1f5e:	b8 01 00 00 00       	mov    $0x1,%eax
    1f63:	e9 84 fe ff ff       	jmp    1dec <ext4fs_read+0x17c>
    1f68:	39 f8                	cmp    %edi,%eax
    1f6a:	0f 83 6a ff ff ff    	jae    1eda <ext4fs_read+0x26a>
    1f70:	83 ec 0c             	sub    $0xc,%esp
    1f73:	8b 75 a0             	mov    -0x60(%ebp),%esi
    1f76:	89 4d 98             	mov    %ecx,-0x68(%ebp)
    1f79:	31 ff                	xor    %edi,%edi
    1f7b:	56                   	push   %esi
    1f7c:	e8 cf b2 00 00       	call   d250 <ext4_superblock_get_block_size>
    1f81:	57                   	push   %edi
    1f82:	89 45 a0             	mov    %eax,-0x60(%ebp)
    1f85:	50                   	push   %eax
    1f86:	89 c6                	mov    %eax,%esi
    1f88:	8b 45 b4             	mov    -0x4c(%ebp),%eax
    1f8b:	50                   	push   %eax
    1f8c:	8b 45 b0             	mov    -0x50(%ebp),%eax
    1f8f:	50                   	push   %eax
    1f90:	e8 fb d9 02 00       	call   2f990 <__udivdi3>
    1f95:	83 c4 10             	add    $0x10,%esp
    1f98:	89 45 90             	mov    %eax,-0x70(%ebp)
    1f9b:	8b 45 b4             	mov    -0x4c(%ebp),%eax
    1f9e:	89 55 94             	mov    %edx,-0x6c(%ebp)
    1fa1:	57                   	push   %edi
    1fa2:	56                   	push   %esi
    1fa3:	50                   	push   %eax
    1fa4:	8b 45 b0             	mov    -0x50(%ebp),%eax
    1fa7:	50                   	push   %eax
    1fa8:	e8 73 dc 02 00       	call   2fc20 <__umoddi3>
    1fad:	8b 7d a0             	mov    -0x60(%ebp),%edi
    1fb0:	89 45 8c             	mov    %eax,-0x74(%ebp)
    1fb3:	29 c7                	sub    %eax,%edi
    1fb5:	8b 45 a4             	mov    -0x5c(%ebp),%eax
    1fb8:	83 c4 20             	add    $0x20,%esp
    1fbb:	8b 4d 98             	mov    -0x68(%ebp),%ecx
    1fbe:	39 c7                	cmp    %eax,%edi
    1fc0:	76 02                	jbe    1fc4 <ext4fs_read+0x354>
    1fc2:	89 c7                	mov    %eax,%edi
    1fc4:	89 f8                	mov    %edi,%eax
    1fc6:	31 d2                	xor    %edx,%edx
    1fc8:	03 45 b0             	add    -0x50(%ebp),%eax
    1fcb:	13 55 b4             	adc    -0x4c(%ebp),%edx
    1fce:	39 d1                	cmp    %edx,%ecx
    1fd0:	77 0e                	ja     1fe0 <ext4fs_read+0x370>
    1fd2:	0f 83 26 01 00 00    	jae    20fe <ext4fs_read+0x48e>
    1fd8:	8b 7d 9c             	mov    -0x64(%ebp),%edi
    1fdb:	8b 4d b0             	mov    -0x50(%ebp),%ecx
    1fde:	29 cf                	sub    %ecx,%edi
    1fe0:	8d 45 d0             	lea    -0x30(%ebp),%eax
    1fe3:	8b 55 a8             	mov    -0x58(%ebp),%edx
    1fe6:	50                   	push   %eax
    1fe7:	8b 45 94             	mov    -0x6c(%ebp),%eax
    1fea:	50                   	push   %eax
    1feb:	8b 45 90             	mov    -0x70(%ebp),%eax
    1fee:	50                   	push   %eax
    1fef:	52                   	push   %edx
    1ff0:	e8 9b 9b 00 00       	call   bb90 <ext4_filesystem_get_inode_data_block_index>
    1ff5:	83 c4 10             	add    $0x10,%esp
    1ff8:	89 c6                	mov    %eax,%esi
    1ffa:	85 c0                	test   %eax,%eax
    1ffc:	0f 85 a3 00 00 00    	jne    20a5 <ext4fs_read+0x435>
    2002:	8b 45 d0             	mov    -0x30(%ebp),%eax
    2005:	85 c0                	test   %eax,%eax
    2007:	0f 84 ac 00 00 00    	je     20b9 <ext4fs_read+0x449>
    200d:	83 ec 0c             	sub    $0xc,%esp
    2010:	31 d2                	xor    %edx,%edx
    2012:	6a 00                	push   $0x0
    2014:	52                   	push   %edx
    2015:	50                   	push   %eax
    2016:	8b 43 08             	mov    0x8(%ebx),%eax
    2019:	50                   	push   %eax
    201a:	8d 45 d4             	lea    -0x2c(%ebp),%eax
    201d:	50                   	push   %eax
    201e:	e8 2d 1d 00 00       	call   3d50 <block_get>
    2023:	83 c4 20             	add    $0x20,%esp
    2026:	89 c6                	mov    %eax,%esi
    2028:	85 c0                	test   %eax,%eax
    202a:	75 79                	jne    20a5 <ext4fs_read+0x435>
    202c:	8b 45 8c             	mov    -0x74(%ebp),%eax
    202f:	01 f8                	add    %edi,%eax
    2031:	39 45 a0             	cmp    %eax,-0x60(%ebp)
    2034:	0f 82 22 01 00 00    	jb     215c <ext4fs_read+0x4ec>
    203a:	8b 45 d4             	mov    -0x2c(%ebp),%eax
    203d:	52                   	push   %edx
    203e:	8b 4d 8c             	mov    -0x74(%ebp),%ecx
    2041:	8b 75 ac             	mov    -0x54(%ebp),%esi
    2044:	8b 58 58             	mov    0x58(%eax),%ebx
    2047:	57                   	push   %edi
    2048:	01 d9                	add    %ebx,%ecx
    204a:	51                   	push   %ecx
    204b:	56                   	push   %esi
    204c:	e8 5f 36 02 00       	call   256b0 <async_data_read_finalize>
    2051:	83 c4 10             	add    $0x10,%esp
    2054:	89 c6                	mov    %eax,%esi
    2056:	85 c0                	test   %eax,%eax
    2058:	0f 85 ea 00 00 00    	jne    2148 <ext4fs_read+0x4d8>
    205e:	83 ec 0c             	sub    $0xc,%esp
    2061:	8b 45 d4             	mov    -0x2c(%ebp),%eax
    2064:	50                   	push   %eax
    2065:	e8 e6 19 00 00       	call   3a50 <block_put>
    206a:	83 c4 10             	add    $0x10,%esp
    206d:	89 c6                	mov    %eax,%esi
    206f:	85 c0                	test   %eax,%eax
    2071:	0f 85 7d fe ff ff    	jne    1ef4 <ext4fs_read+0x284>
    2077:	8b 45 18             	mov    0x18(%ebp),%eax
    207a:	89 38                	mov    %edi,(%eax)
    207c:	e9 73 fe ff ff       	jmp    1ef4 <ext4fs_read+0x284>
    2081:	8b 4d c4             	mov    -0x3c(%ebp),%ecx
    2084:	52                   	push   %edx
    2085:	52                   	push   %edx
    2086:	6a f5                	push   $0xfffffff5
    2088:	51                   	push   %ecx
    2089:	e8 e2 1d 02 00       	call   23e70 <async_answer_0>
    208e:	8b 75 cc             	mov    -0x34(%ebp),%esi
    2091:	5b                   	pop    %ebx
    2092:	56                   	push   %esi
    2093:	be f5 ff ff ff       	mov    $0xfffffff5,%esi
    2098:	e8 13 95 00 00       	call   b5b0 <ext4_filesystem_put_inode_ref>
    209d:	83 c4 10             	add    $0x10,%esp
    20a0:	e9 4d fc ff ff       	jmp    1cf2 <ext4fs_read+0x82>
    20a5:	8b 5d ac             	mov    -0x54(%ebp),%ebx
    20a8:	51                   	push   %ecx
    20a9:	51                   	push   %ecx
    20aa:	56                   	push   %esi
    20ab:	53                   	push   %ebx
    20ac:	e8 bf 1d 02 00       	call   23e70 <async_answer_0>
    20b1:	83 c4 10             	add    $0x10,%esp
    20b4:	e9 3b fe ff ff       	jmp    1ef4 <ext4fs_read+0x284>
    20b9:	83 ec 0c             	sub    $0xc,%esp
    20bc:	57                   	push   %edi
    20bd:	e8 5e db 01 00       	call   1fc20 <malloc>
    20c2:	83 c4 10             	add    $0x10,%esp
    20c5:	89 c3                	mov    %eax,%ebx
    20c7:	85 c0                	test   %eax,%eax
    20c9:	0f 84 a2 00 00 00    	je     2171 <ext4fs_read+0x501>
    20cf:	50                   	push   %eax
    20d0:	57                   	push   %edi
    20d1:	6a 00                	push   $0x0
    20d3:	53                   	push   %ebx
    20d4:	e8 87 e0 00 00       	call   10160 <memset>
    20d9:	83 c4 0c             	add    $0xc,%esp
    20dc:	8b 45 ac             	mov    -0x54(%ebp),%eax
    20df:	57                   	push   %edi
    20e0:	53                   	push   %ebx
    20e1:	50                   	push   %eax
    20e2:	e8 c9 35 02 00       	call   256b0 <async_data_read_finalize>
    20e7:	89 c6                	mov    %eax,%esi
    20e9:	8b 45 18             	mov    0x18(%ebp),%eax
    20ec:	89 38                	mov    %edi,(%eax)
    20ee:	89 1c 24             	mov    %ebx,(%esp)
    20f1:	e8 da dc 01 00       	call   1fdd0 <free>
    20f6:	83 c4 10             	add    $0x10,%esp
    20f9:	e9 f6 fd ff ff       	jmp    1ef4 <ext4fs_read+0x284>
    20fe:	39 45 9c             	cmp    %eax,-0x64(%ebp)
    2101:	0f 83 d9 fe ff ff    	jae    1fe0 <ext4fs_read+0x370>
    2107:	e9 cc fe ff ff       	jmp    1fd8 <ext4fs_read+0x368>
    210c:	50                   	push   %eax
    210d:	50                   	push   %eax
    210e:	e9 cc fb ff ff       	jmp    1cdf <ext4fs_read+0x6f>
    2113:	83 ec 0c             	sub    $0xc,%esp
    2116:	57                   	push   %edi
    2117:	e8 a4 59 00 00       	call   7ac0 <ext4_directory_iterator_fini>
    211c:	83 c4 10             	add    $0x10,%esp
    211f:	89 c6                	mov    %eax,%esi
    2121:	85 c0                	test   %eax,%eax
    2123:	0f 85 cb fd ff ff    	jne    1ef4 <ext4fs_read+0x284>
    2129:	8b 45 ac             	mov    -0x54(%ebp),%eax
    212c:	57                   	push   %edi
    212d:	57                   	push   %edi
    212e:	6a ff                	push   $0xffffffff
    2130:	50                   	push   %eax
    2131:	83 ce ff             	or     $0xffffffff,%esi
    2134:	e8 37 1d 02 00       	call   23e70 <async_answer_0>
    2139:	83 c4 10             	add    $0x10,%esp
    213c:	e9 b3 fd ff ff       	jmp    1ef4 <ext4fs_read+0x284>
    2141:	8d b4 26 00 00 00 00 	lea    0x0(%esi,%eiz,1),%esi
    2148:	83 ec 0c             	sub    $0xc,%esp
    214b:	8b 45 d4             	mov    -0x2c(%ebp),%eax
    214e:	50                   	push   %eax
    214f:	e8 fc 18 00 00       	call   3a50 <block_put>
    2154:	83 c4 10             	add    $0x10,%esp
    2157:	e9 98 fd ff ff       	jmp    1ef4 <ext4fs_read+0x284>
    215c:	57                   	push   %edi
    215d:	68 07 05 00 00       	push   $0x507
    2162:	68 53 01 03 00       	push   $0x30153
    2167:	68 b8 01 03 00       	push   $0x301b8
    216c:	e8 6f 9f 02 00       	call   2c0e0 <assert_abort>
    2171:	50                   	push   %eax
    2172:	50                   	push   %eax
    2173:	8b 45 ac             	mov    -0x54(%ebp),%eax
    2176:	6a fe                	push   $0xfffffffe
    2178:	50                   	push   %eax
    2179:	be fe ff ff ff       	mov    $0xfffffffe,%esi
    217e:	e8 ed 1c 02 00       	call   23e70 <async_answer_0>
    2183:	83 c4 10             	add    $0x10,%esp
    2186:	e9 69 fd ff ff       	jmp    1ef4 <ext4fs_read+0x284>
    218b:	83 ec 0c             	sub    $0xc,%esp
    218e:	57                   	push   %edi
    218f:	e8 2c 59 00 00       	call   7ac0 <ext4_directory_iterator_fini>
    2194:	58                   	pop    %eax
    2195:	5a                   	pop    %edx
    2196:	eb db                	jmp    2173 <ext4fs_read+0x503>
    2198:	90                   	nop
    2199:	8d b4 26 00 00 00 00 	lea    0x0(%esi,%eiz,1),%esi

000021a0 <ext4fs_lnkcnt_get>:
    21a0:	55                   	push   %ebp
    21a1:	89 e5                	mov    %esp,%ebp
    21a3:	56                   	push   %esi
    21a4:	53                   	push   %ebx
    21a5:	8b 75 08             	mov    0x8(%ebp),%esi
    21a8:	85 f6                	test   %esi,%esi
    21aa:	74 54                	je     2200 <ext4fs_lnkcnt_get+0x60>
    21ac:	8b 46 10             	mov    0x10(%esi),%eax
    21af:	83 ec 0c             	sub    $0xc,%esp
    21b2:	31 db                	xor    %ebx,%ebx
    21b4:	8b 40 04             	mov    0x4(%eax),%eax
    21b7:	8b 40 04             	mov    0x4(%eax),%eax
    21ba:	50                   	push   %eax
    21bb:	e8 40 ab 00 00       	call   cd00 <ext4_inode_get_links_count>
    21c0:	66 89 c3             	mov    %ax,%bx
    21c3:	8b 46 10             	mov    0x10(%esi),%eax
    21c6:	83 c4 0c             	add    $0xc,%esp
    21c9:	8b 50 04             	mov    0x4(%eax),%edx
    21cc:	8b 00                	mov    (%eax),%eax
    21ce:	68 00 40 00 00       	push   $0x4000
    21d3:	8b 40 0c             	mov    0xc(%eax),%eax
    21d6:	8b 52 04             	mov    0x4(%edx),%edx
    21d9:	52                   	push   %edx
    21da:	8b 48 04             	mov    0x4(%eax),%ecx
    21dd:	51                   	push   %ecx
    21de:	e8 ed ad 00 00       	call   cfd0 <ext4_inode_is_type>
    21e3:	83 c4 10             	add    $0x10,%esp
    21e6:	84 c0                	test   %al,%al
    21e8:	74 0c                	je     21f6 <ext4fs_lnkcnt_get+0x56>
    21ea:	83 fb 01             	cmp    $0x1,%ebx
    21ed:	0f 97 c3             	seta   %bl
    21f0:	81 e3 ff 00 00 00    	and    $0xff,%ebx
    21f6:	8d 65 f8             	lea    -0x8(%ebp),%esp
    21f9:	89 d8                	mov    %ebx,%eax
    21fb:	5b                   	pop    %ebx
    21fc:	5e                   	pop    %esi
    21fd:	5d                   	pop    %ebp
    21fe:	c3                   	ret    
    21ff:	90                   	nop
    2200:	a1 04 00 00 00       	mov    0x4,%eax
    2205:	0f 0b                	ud2    
    2207:	89 f6                	mov    %esi,%esi
    2209:	8d bc 27 00 00 00 00 	lea    0x0(%edi,%eiz,1),%edi

00002210 <ext4fs_unlink>:
    2210:	55                   	push   %ebp
    2211:	89 e5                	mov    %esp,%ebp
    2213:	57                   	push   %edi
    2214:	56                   	push   %esi
    2215:	53                   	push   %ebx
    2216:	83 ec 34             	sub    $0x34,%esp
    2219:	8d 45 e7             	lea    -0x19(%ebp),%eax
    221c:	8b 55 0c             	mov    0xc(%ebp),%edx
    221f:	52                   	push   %edx
    2220:	50                   	push   %eax
    2221:	e8 0a f2 ff ff       	call   1430 <ext4fs_has_children>
    2226:	83 c4 10             	add    $0x10,%esp
    2229:	89 c3                	mov    %eax,%ebx
    222b:	85 c0                	test   %eax,%eax
    222d:	75 73                	jne    22a2 <ext4fs_unlink+0x92>
    222f:	80 7d e7 00          	cmpb   $0x0,-0x19(%ebp)
    2233:	0f 85 f7 00 00 00    	jne    2330 <ext4fs_unlink+0x120>
    2239:	8b 45 08             	mov    0x8(%ebp),%eax
    223c:	85 c0                	test   %eax,%eax
    223e:	74 70                	je     22b0 <ext4fs_unlink+0xa0>
    2240:	8b 45 08             	mov    0x8(%ebp),%eax
    2243:	8b 40 10             	mov    0x10(%eax),%eax
    2246:	8b 78 04             	mov    0x4(%eax),%edi
    2249:	50                   	push   %eax
    224a:	50                   	push   %eax
    224b:	8b 45 10             	mov    0x10(%ebp),%eax
    224e:	50                   	push   %eax
    224f:	57                   	push   %edi
    2250:	e8 1b 5c 00 00       	call   7e70 <ext4_directory_remove_entry>
    2255:	83 c4 10             	add    $0x10,%esp
    2258:	89 c3                	mov    %eax,%ebx
    225a:	85 c0                	test   %eax,%eax
    225c:	75 44                	jne    22a2 <ext4fs_unlink+0x92>
    225e:	8b 45 0c             	mov    0xc(%ebp),%eax
    2261:	85 c0                	test   %eax,%eax
    2263:	74 4b                	je     22b0 <ext4fs_unlink+0xa0>
    2265:	8b 45 0c             	mov    0xc(%ebp),%eax
    2268:	83 ec 0c             	sub    $0xc,%esp
    226b:	8b 40 10             	mov    0x10(%eax),%eax
    226e:	8b 70 04             	mov    0x4(%eax),%esi
    2271:	8b 46 04             	mov    0x4(%esi),%eax
    2274:	50                   	push   %eax
    2275:	e8 86 aa 00 00       	call   cd00 <ext4_inode_get_links_count>
    227a:	25 ff ff 00 00       	and    $0xffff,%eax
    227f:	83 c4 10             	add    $0x10,%esp
    2282:	8d 50 ff             	lea    -0x1(%eax),%edx
    2285:	83 fa 01             	cmp    $0x1,%edx
    2288:	76 2e                	jbe    22b8 <ext4fs_unlink+0xa8>
    228a:	31 c0                	xor    %eax,%eax
    228c:	66 89 d0             	mov    %dx,%ax
    228f:	52                   	push   %edx
    2290:	52                   	push   %edx
    2291:	8b 4e 04             	mov    0x4(%esi),%ecx
    2294:	50                   	push   %eax
    2295:	51                   	push   %ecx
    2296:	e8 75 aa 00 00       	call   cd10 <ext4_inode_set_links_count>
    229b:	c6 46 10 01          	movb   $0x1,0x10(%esi)
    229f:	83 c4 10             	add    $0x10,%esp
    22a2:	8d 65 f4             	lea    -0xc(%ebp),%esp
    22a5:	89 d8                	mov    %ebx,%eax
    22a7:	5b                   	pop    %ebx
    22a8:	5e                   	pop    %esi
    22a9:	5f                   	pop    %edi
    22aa:	5d                   	pop    %ebp
    22ab:	c3                   	ret    
    22ac:	8d 74 26 00          	lea    0x0(%esi,%eiz,1),%esi
    22b0:	a1 04 00 00 00       	mov    0x4,%eax
    22b5:	0f 0b                	ud2    
    22b7:	90                   	nop
    22b8:	8b 45 0c             	mov    0xc(%ebp),%eax
    22bb:	89 55 d4             	mov    %edx,-0x2c(%ebp)
    22be:	8b 40 10             	mov    0x10(%eax),%eax
    22c1:	52                   	push   %edx
    22c2:	68 00 40 00 00       	push   $0x4000
    22c7:	8b 48 04             	mov    0x4(%eax),%ecx
    22ca:	8b 00                	mov    (%eax),%eax
    22cc:	8b 40 0c             	mov    0xc(%eax),%eax
    22cf:	8b 49 04             	mov    0x4(%ecx),%ecx
    22d2:	51                   	push   %ecx
    22d3:	8b 40 04             	mov    0x4(%eax),%eax
    22d6:	50                   	push   %eax
    22d7:	e8 f4 ac 00 00       	call   cfd0 <ext4_inode_is_type>
    22dc:	83 c4 10             	add    $0x10,%esp
    22df:	8b 55 d4             	mov    -0x2c(%ebp),%edx
    22e2:	84 c0                	test   %al,%al
    22e4:	74 42                	je     2328 <ext4fs_unlink+0x118>
    22e6:	4a                   	dec    %edx
    22e7:	75 51                	jne    233a <ext4fs_unlink+0x12a>
    22e9:	8b 45 08             	mov    0x8(%ebp),%eax
    22ec:	83 ec 0c             	sub    $0xc,%esp
    22ef:	8b 40 10             	mov    0x10(%eax),%eax
    22f2:	8b 50 04             	mov    0x4(%eax),%edx
    22f5:	89 55 d4             	mov    %edx,-0x2c(%ebp)
    22f8:	8b 42 04             	mov    0x4(%edx),%eax
    22fb:	50                   	push   %eax
    22fc:	e8 ff a9 00 00       	call   cd00 <ext4_inode_get_links_count>
    2301:	5a                   	pop    %edx
    2302:	48                   	dec    %eax
    2303:	8b 55 d4             	mov    -0x2c(%ebp),%edx
    2306:	25 ff ff 00 00       	and    $0xffff,%eax
    230b:	59                   	pop    %ecx
    230c:	50                   	push   %eax
    230d:	8b 42 04             	mov    0x4(%edx),%eax
    2310:	50                   	push   %eax
    2311:	e8 fa a9 00 00       	call   cd10 <ext4_inode_set_links_count>
    2316:	c6 47 10 01          	movb   $0x1,0x10(%edi)
    231a:	83 c4 10             	add    $0x10,%esp
    231d:	31 c0                	xor    %eax,%eax
    231f:	e9 6b ff ff ff       	jmp    228f <ext4fs_unlink+0x7f>
    2324:	8d 74 26 00          	lea    0x0(%esi,%eiz,1),%esi
    2328:	89 d0                	mov    %edx,%eax
    232a:	e9 60 ff ff ff       	jmp    228f <ext4fs_unlink+0x7f>
    232f:	90                   	nop
    2330:	bb fb fe ff ff       	mov    $0xfffffefb,%ebx
    2335:	e9 68 ff ff ff       	jmp    22a2 <ext4fs_unlink+0x92>
    233a:	50                   	push   %eax
    233b:	68 90 02 00 00       	push   $0x290
    2340:	68 53 01 03 00       	push   $0x30153
    2345:	68 7e 01 03 00       	push   $0x3017e
    234a:	e8 91 9d 02 00       	call   2c0e0 <assert_abort>
    234f:	90                   	nop

00002350 <ext4fs_match>:
    2350:	55                   	push   %ebp
    2351:	89 e5                	mov    %esp,%ebp
    2353:	57                   	push   %edi
    2354:	56                   	push   %esi
    2355:	53                   	push   %ebx
    2356:	83 ec 1c             	sub    $0x1c,%esp
    2359:	8b 45 0c             	mov    0xc(%ebp),%eax
    235c:	85 c0                	test   %eax,%eax
    235e:	74 58                	je     23b8 <ext4fs_match+0x68>
    2360:	8b 70 10             	mov    0x10(%eax),%esi
    2363:	50                   	push   %eax
    2364:	68 00 40 00 00       	push   $0x4000
    2369:	8b 46 04             	mov    0x4(%esi),%eax
    236c:	8b 40 04             	mov    0x4(%eax),%eax
    236f:	50                   	push   %eax
    2370:	8b 06                	mov    (%esi),%eax
    2372:	8b 40 0c             	mov    0xc(%eax),%eax
    2375:	8b 40 04             	mov    0x4(%eax),%eax
    2378:	50                   	push   %eax
    2379:	e8 52 ac 00 00       	call   cfd0 <ext4_inode_is_type>
    237e:	83 c4 10             	add    $0x10,%esp
    2381:	84 c0                	test   %al,%al
    2383:	0f 84 c7 00 00 00    	je     2450 <ext4fs_match+0x100>
    2389:	51                   	push   %ecx
    238a:	8b 5d 10             	mov    0x10(%ebp),%ebx
    238d:	8b 7e 04             	mov    0x4(%esi),%edi
    2390:	53                   	push   %ebx
    2391:	57                   	push   %edi
    2392:	8d 7d d8             	lea    -0x28(%ebp),%edi
    2395:	57                   	push   %edi
    2396:	e8 85 58 00 00       	call   7c20 <ext4_directory_find_entry>
    239b:	83 c4 10             	add    $0x10,%esp
    239e:	89 c3                	mov    %eax,%ebx
    23a0:	85 c0                	test   %eax,%eax
    23a2:	74 1c                	je     23c0 <ext4fs_match+0x70>
    23a4:	83 f8 ff             	cmp    $0xffffffff,%eax
    23a7:	0f 84 8b 00 00 00    	je     2438 <ext4fs_match+0xe8>
    23ad:	8d 65 f4             	lea    -0xc(%ebp),%esp
    23b0:	89 d8                	mov    %ebx,%eax
    23b2:	5b                   	pop    %ebx
    23b3:	5e                   	pop    %esi
    23b4:	5f                   	pop    %edi
    23b5:	5d                   	pop    %ebp
    23b6:	c3                   	ret    
    23b7:	90                   	nop
    23b8:	a1 00 00 00 00       	mov    0x0,%eax
    23bd:	0f 0b                	ud2    
    23bf:	90                   	nop
    23c0:	83 ec 0c             	sub    $0xc,%esp
    23c3:	8b 4d dc             	mov    -0x24(%ebp),%ecx
    23c6:	51                   	push   %ecx
    23c7:	e8 04 54 00 00       	call   77d0 <ext4_directory_entry_ll_get_inode>
    23cc:	8b 36                	mov    (%esi),%esi
    23ce:	89 c3                	mov    %eax,%ebx
    23d0:	c7 04 24 e0 3e 03 00 	movl   $0x33ee0,(%esp)
    23d7:	e8 64 32 01 00       	call   15640 <fibril_mutex_lock>
    23dc:	8b 46 08             	mov    0x8(%esi),%eax
    23df:	89 5d e4             	mov    %ebx,-0x1c(%ebp)
    23e2:	89 45 e0             	mov    %eax,-0x20(%ebp)
    23e5:	58                   	pop    %eax
    23e6:	8d 45 e0             	lea    -0x20(%ebp),%eax
    23e9:	5a                   	pop    %edx
    23ea:	50                   	push   %eax
    23eb:	68 cc 41 03 00       	push   $0x341cc
    23f0:	e8 4b 4f 02 00       	call   27340 <hash_table_find>
    23f5:	83 c4 10             	add    $0x10,%esp
    23f8:	85 c0                	test   %eax,%eax
    23fa:	74 64                	je     2460 <ext4fs_match+0x110>
    23fc:	8b 50 fc             	mov    -0x4(%eax),%edx
    23ff:	8b 4d 08             	mov    0x8(%ebp),%ecx
    2402:	83 e8 0c             	sub    $0xc,%eax
    2405:	83 ec 0c             	sub    $0xc,%esp
    2408:	89 11                	mov    %edx,(%ecx)
    240a:	8b 50 14             	mov    0x14(%eax),%edx
    240d:	42                   	inc    %edx
    240e:	89 50 14             	mov    %edx,0x14(%eax)
    2411:	68 e0 3e 03 00       	push   $0x33ee0
    2416:	e8 a5 33 01 00       	call   157c0 <fibril_mutex_unlock>
    241b:	89 3c 24             	mov    %edi,(%esp)
    241e:	e8 4d 5f 00 00       	call   8370 <ext4_directory_destroy_result>
    2423:	83 c4 10             	add    $0x10,%esp
    2426:	8d 65 f4             	lea    -0xc(%ebp),%esp
    2429:	89 c3                	mov    %eax,%ebx
    242b:	89 d8                	mov    %ebx,%eax
    242d:	5b                   	pop    %ebx
    242e:	5e                   	pop    %esi
    242f:	5f                   	pop    %edi
    2430:	5d                   	pop    %ebp
    2431:	c3                   	ret    
    2432:	8d b6 00 00 00 00    	lea    0x0(%esi),%esi
    2438:	8b 45 08             	mov    0x8(%ebp),%eax
    243b:	31 db                	xor    %ebx,%ebx
    243d:	c7 00 00 00 00 00    	movl   $0x0,(%eax)
    2443:	8d 65 f4             	lea    -0xc(%ebp),%esp
    2446:	89 d8                	mov    %ebx,%eax
    2448:	5b                   	pop    %ebx
    2449:	5e                   	pop    %esi
    244a:	5f                   	pop    %edi
    244b:	5d                   	pop    %ebp
    244c:	c3                   	ret    
    244d:	8d 76 00             	lea    0x0(%esi),%esi
    2450:	bb fe fe ff ff       	mov    $0xfffffefe,%ebx
    2455:	e9 53 ff ff ff       	jmp    23ad <ext4fs_match+0x5d>
    245a:	8d b6 00 00 00 00    	lea    0x0(%esi),%esi
    2460:	89 d9                	mov    %ebx,%ecx
    2462:	89 f2                	mov    %esi,%edx
    2464:	8b 45 08             	mov    0x8(%ebp),%eax
    2467:	e8 b4 f4 ff ff       	call   1920 <ext4fs_node_get_core.part.2>
    246c:	83 ec 0c             	sub    $0xc,%esp
    246f:	89 c3                	mov    %eax,%ebx
    2471:	57                   	push   %edi
    2472:	e8 f9 5e 00 00       	call   8370 <ext4_directory_destroy_result>
    2477:	83 c4 10             	add    $0x10,%esp
    247a:	85 db                	test   %ebx,%ebx
    247c:	0f 85 2b ff ff ff    	jne    23ad <ext4fs_match+0x5d>
    2482:	89 c3                	mov    %eax,%ebx
    2484:	e9 24 ff ff ff       	jmp    23ad <ext4fs_match+0x5d>
    2489:	8d b4 26 00 00 00 00 	lea    0x0(%esi,%eiz,1),%esi

00002490 <ext4fs_root_get>:
    2490:	55                   	push   %ebp
    2491:	89 e5                	mov    %esp,%ebp
    2493:	56                   	push   %esi
    2494:	53                   	push   %ebx
    2495:	83 ec 1c             	sub    $0x1c,%esp
    2498:	8b 75 0c             	mov    0xc(%ebp),%esi
    249b:	68 f0 3e 03 00       	push   $0x33ef0
    24a0:	e8 9b 31 01 00       	call   15640 <fibril_mutex_lock>
    24a5:	8b 1d 04 3f 03 00    	mov    0x33f04,%ebx
    24ab:	83 c4 10             	add    $0x10,%esp
    24ae:	81 fb 00 3f 03 00    	cmp    $0x33f00,%ebx
    24b4:	74 12                	je     24c8 <ext4fs_root_get+0x38>
    24b6:	66 90                	xchg   %ax,%ax
    24b8:	3b 73 08             	cmp    0x8(%ebx),%esi
    24bb:	74 2b                	je     24e8 <ext4fs_root_get+0x58>
    24bd:	8b 5b 04             	mov    0x4(%ebx),%ebx
    24c0:	81 fb 00 3f 03 00    	cmp    $0x33f00,%ebx
    24c6:	75 f0                	jne    24b8 <ext4fs_root_get+0x28>
    24c8:	83 ec 0c             	sub    $0xc,%esp
    24cb:	68 f0 3e 03 00       	push   $0x33ef0
    24d0:	e8 eb 32 01 00       	call   157c0 <fibril_mutex_unlock>
    24d5:	83 c4 10             	add    $0x10,%esp
    24d8:	b8 f2 ff ff ff       	mov    $0xfffffff2,%eax
    24dd:	8d 65 f8             	lea    -0x8(%ebp),%esp
    24e0:	5b                   	pop    %ebx
    24e1:	5e                   	pop    %esi
    24e2:	5d                   	pop    %ebp
    24e3:	c3                   	ret    
    24e4:	8d 74 26 00          	lea    0x0(%esi,%eiz,1),%esi
    24e8:	83 ec 0c             	sub    $0xc,%esp
    24eb:	68 f0 3e 03 00       	push   $0x33ef0
    24f0:	e8 cb 32 01 00       	call   157c0 <fibril_mutex_unlock>
    24f5:	c7 04 24 e0 3e 03 00 	movl   $0x33ee0,(%esp)
    24fc:	e8 3f 31 01 00       	call   15640 <fibril_mutex_lock>
    2501:	8b 43 08             	mov    0x8(%ebx),%eax
    2504:	59                   	pop    %ecx
    2505:	89 45 f0             	mov    %eax,-0x10(%ebp)
    2508:	8d 45 f0             	lea    -0x10(%ebp),%eax
    250b:	5e                   	pop    %esi
    250c:	c7 45 f4 02 00 00 00 	movl   $0x2,-0xc(%ebp)
    2513:	50                   	push   %eax
    2514:	68 cc 41 03 00       	push   $0x341cc
    2519:	e8 22 4e 02 00       	call   27340 <hash_table_find>
    251e:	83 c4 10             	add    $0x10,%esp
    2521:	85 c0                	test   %eax,%eax
    2523:	74 2b                	je     2550 <ext4fs_root_get+0xc0>
    2525:	8b 50 fc             	mov    -0x4(%eax),%edx
    2528:	8b 4d 08             	mov    0x8(%ebp),%ecx
    252b:	83 e8 0c             	sub    $0xc,%eax
    252e:	83 ec 0c             	sub    $0xc,%esp
    2531:	89 11                	mov    %edx,(%ecx)
    2533:	8b 50 14             	mov    0x14(%eax),%edx
    2536:	42                   	inc    %edx
    2537:	89 50 14             	mov    %edx,0x14(%eax)
    253a:	68 e0 3e 03 00       	push   $0x33ee0
    253f:	e8 7c 32 01 00       	call   157c0 <fibril_mutex_unlock>
    2544:	83 c4 10             	add    $0x10,%esp
    2547:	8d 65 f8             	lea    -0x8(%ebp),%esp
    254a:	31 c0                	xor    %eax,%eax
    254c:	5b                   	pop    %ebx
    254d:	5e                   	pop    %esi
    254e:	5d                   	pop    %ebp
    254f:	c3                   	ret    
    2550:	b9 02 00 00 00       	mov    $0x2,%ecx
    2555:	89 da                	mov    %ebx,%edx
    2557:	8b 45 08             	mov    0x8(%ebp),%eax
    255a:	e8 c1 f3 ff ff       	call   1920 <ext4fs_node_get_core.part.2>
    255f:	e9 79 ff ff ff       	jmp    24dd <ext4fs_root_get+0x4d>
    2564:	8d b6 00 00 00 00    	lea    0x0(%esi),%esi
    256a:	8d bf 00 00 00 00    	lea    0x0(%edi),%edi

00002570 <ext4fs_node_get>:
    2570:	55                   	push   %ebp
    2571:	89 e5                	mov    %esp,%ebp
    2573:	56                   	push   %esi
    2574:	53                   	push   %ebx
    2575:	83 ec 1c             	sub    $0x1c,%esp
    2578:	8b 75 0c             	mov    0xc(%ebp),%esi
    257b:	68 f0 3e 03 00       	push   $0x33ef0
    2580:	e8 bb 30 01 00       	call   15640 <fibril_mutex_lock>
    2585:	8b 1d 04 3f 03 00    	mov    0x33f04,%ebx
    258b:	83 c4 10             	add    $0x10,%esp
    258e:	81 fb 00 3f 03 00    	cmp    $0x33f00,%ebx
    2594:	74 12                	je     25a8 <ext4fs_node_get+0x38>
    2596:	66 90                	xchg   %ax,%ax
    2598:	3b 73 08             	cmp    0x8(%ebx),%esi
    259b:	74 2b                	je     25c8 <ext4fs_node_get+0x58>
    259d:	8b 5b 04             	mov    0x4(%ebx),%ebx
    25a0:	81 fb 00 3f 03 00    	cmp    $0x33f00,%ebx
    25a6:	75 f0                	jne    2598 <ext4fs_node_get+0x28>
    25a8:	83 ec 0c             	sub    $0xc,%esp
    25ab:	68 f0 3e 03 00       	push   $0x33ef0
    25b0:	e8 0b 32 01 00       	call   157c0 <fibril_mutex_unlock>
    25b5:	83 c4 10             	add    $0x10,%esp
    25b8:	b8 f2 ff ff ff       	mov    $0xfffffff2,%eax
    25bd:	8d 65 f8             	lea    -0x8(%ebp),%esp
    25c0:	5b                   	pop    %ebx
    25c1:	5e                   	pop    %esi
    25c2:	5d                   	pop    %ebp
    25c3:	c3                   	ret    
    25c4:	8d 74 26 00          	lea    0x0(%esi,%eiz,1),%esi
    25c8:	83 ec 0c             	sub    $0xc,%esp
    25cb:	68 f0 3e 03 00       	push   $0x33ef0
    25d0:	e8 eb 31 01 00       	call   157c0 <fibril_mutex_unlock>
    25d5:	c7 04 24 e0 3e 03 00 	movl   $0x33ee0,(%esp)
    25dc:	e8 5f 30 01 00       	call   15640 <fibril_mutex_lock>
    25e1:	8b 43 08             	mov    0x8(%ebx),%eax
    25e4:	59                   	pop    %ecx
    25e5:	89 45 f0             	mov    %eax,-0x10(%ebp)
    25e8:	8b 45 10             	mov    0x10(%ebp),%eax
    25eb:	89 45 f4             	mov    %eax,-0xc(%ebp)
    25ee:	8d 45 f0             	lea    -0x10(%ebp),%eax
    25f1:	5e                   	pop    %esi
    25f2:	50                   	push   %eax
    25f3:	68 cc 41 03 00       	push   $0x341cc
    25f8:	e8 43 4d 02 00       	call   27340 <hash_table_find>
    25fd:	83 c4 10             	add    $0x10,%esp
    2600:	85 c0                	test   %eax,%eax
    2602:	74 2b                	je     262f <ext4fs_node_get+0xbf>
    2604:	8b 50 fc             	mov    -0x4(%eax),%edx
    2607:	8b 4d 08             	mov    0x8(%ebp),%ecx
    260a:	83 e8 0c             	sub    $0xc,%eax
    260d:	83 ec 0c             	sub    $0xc,%esp
    2610:	89 11                	mov    %edx,(%ecx)
    2612:	8b 50 14             	mov    0x14(%eax),%edx
    2615:	42                   	inc    %edx
    2616:	89 50 14             	mov    %edx,0x14(%eax)
    2619:	68 e0 3e 03 00       	push   $0x33ee0
    261e:	e8 9d 31 01 00       	call   157c0 <fibril_mutex_unlock>
    2623:	83 c4 10             	add    $0x10,%esp
    2626:	8d 65 f8             	lea    -0x8(%ebp),%esp
    2629:	31 c0                	xor    %eax,%eax
    262b:	5b                   	pop    %ebx
    262c:	5e                   	pop    %esi
    262d:	5d                   	pop    %ebp
    262e:	c3                   	ret    
    262f:	8b 4d 10             	mov    0x10(%ebp),%ecx
    2632:	89 da                	mov    %ebx,%edx
    2634:	8b 45 08             	mov    0x8(%ebp),%eax
    2637:	e8 e4 f2 ff ff       	call   1920 <ext4fs_node_get_core.part.2>
    263c:	e9 7c ff ff ff       	jmp    25bd <ext4fs_node_get+0x4d>
    2641:	eb 0d                	jmp    2650 <ext4fs_write>
    2643:	90                   	nop
    2644:	90                   	nop
    2645:	90                   	nop
    2646:	90                   	nop
    2647:	90                   	nop
    2648:	90                   	nop
    2649:	90                   	nop
    264a:	90                   	nop
    264b:	90                   	nop
    264c:	90                   	nop
    264d:	90                   	nop
    264e:	90                   	nop
    264f:	90                   	nop

00002650 <ext4fs_write>:
    2650:	55                   	push   %ebp
    2651:	89 e5                	mov    %esp,%ebp
    2653:	57                   	push   %edi
    2654:	56                   	push   %esi
    2655:	53                   	push   %ebx
    2656:	83 ec 70             	sub    $0x70,%esp
    2659:	8b 45 10             	mov    0x10(%ebp),%eax
    265c:	8b 55 14             	mov    0x14(%ebp),%edx
    265f:	89 45 c0             	mov    %eax,-0x40(%ebp)
    2662:	8b 45 0c             	mov    0xc(%ebp),%eax
    2665:	50                   	push   %eax
    2666:	8b 45 08             	mov    0x8(%ebp),%eax
    2669:	50                   	push   %eax
    266a:	8d 45 d4             	lea    -0x2c(%ebp),%eax
    266d:	50                   	push   %eax
    266e:	89 55 c4             	mov    %edx,-0x3c(%ebp)
    2671:	e8 fa fe ff ff       	call   2570 <ext4fs_node_get>
    2676:	83 c4 10             	add    $0x10,%esp
    2679:	89 c6                	mov    %eax,%esi
    267b:	85 c0                	test   %eax,%eax
    267d:	74 11                	je     2690 <ext4fs_write+0x40>
    267f:	8d 65 f4             	lea    -0xc(%ebp),%esp
    2682:	89 f0                	mov    %esi,%eax
    2684:	5b                   	pop    %ebx
    2685:	5e                   	pop    %esi
    2686:	5f                   	pop    %edi
    2687:	5d                   	pop    %ebp
    2688:	c3                   	ret    
    2689:	8d b4 26 00 00 00 00 	lea    0x0(%esi,%eiz,1),%esi
    2690:	50                   	push   %eax
    2691:	50                   	push   %eax
    2692:	8d 45 dc             	lea    -0x24(%ebp),%eax
    2695:	50                   	push   %eax
    2696:	8d 45 d8             	lea    -0x28(%ebp),%eax
    2699:	50                   	push   %eax
    269a:	e8 41 33 02 00       	call   259e0 <async_data_write_receive>
    269f:	83 c4 10             	add    $0x10,%esp
    26a2:	84 c0                	test   %al,%al
    26a4:	0f 84 26 02 00 00    	je     28d0 <ext4fs_write+0x280>
    26aa:	8b 45 d4             	mov    -0x2c(%ebp),%eax
    26ad:	85 c0                	test   %eax,%eax
    26af:	0f 84 8b 01 00 00    	je     2840 <ext4fs_write+0x1f0>
    26b5:	8b 58 10             	mov    0x10(%eax),%ebx
    26b8:	83 ec 0c             	sub    $0xc,%esp
    26bb:	8b 03                	mov    (%ebx),%eax
    26bd:	8b 40 0c             	mov    0xc(%eax),%eax
    26c0:	89 45 8c             	mov    %eax,-0x74(%ebp)
    26c3:	8b 40 04             	mov    0x4(%eax),%eax
    26c6:	50                   	push   %eax
    26c7:	e8 84 ab 00 00       	call   d250 <ext4_superblock_get_block_size>
    26cc:	31 d2                	xor    %edx,%edx
    26ce:	8b 7d dc             	mov    -0x24(%ebp),%edi
    26d1:	52                   	push   %edx
    26d2:	8b 4d c0             	mov    -0x40(%ebp),%ecx
    26d5:	89 55 ac             	mov    %edx,-0x54(%ebp)
    26d8:	8b 55 c4             	mov    -0x3c(%ebp),%edx
    26db:	50                   	push   %eax
    26dc:	89 7d b4             	mov    %edi,-0x4c(%ebp)
    26df:	52                   	push   %edx
    26e0:	89 45 94             	mov    %eax,-0x6c(%ebp)
    26e3:	51                   	push   %ecx
    26e4:	89 45 a8             	mov    %eax,-0x58(%ebp)
    26e7:	e8 a4 d2 02 00       	call   2f990 <__udivdi3>
    26ec:	83 c4 10             	add    $0x10,%esp
    26ef:	89 45 b8             	mov    %eax,-0x48(%ebp)
    26f2:	c7 45 bc 00 00 00 00 	movl   $0x0,-0x44(%ebp)
    26f9:	8b 7b 04             	mov    0x4(%ebx),%edi
    26fc:	8b 75 b8             	mov    -0x48(%ebp),%esi
    26ff:	89 45 90             	mov    %eax,-0x70(%ebp)
    2702:	8b 5d bc             	mov    -0x44(%ebp),%ebx
    2705:	8d 45 e0             	lea    -0x20(%ebp),%eax
    2708:	50                   	push   %eax
    2709:	89 45 b0             	mov    %eax,-0x50(%ebp)
    270c:	53                   	push   %ebx
    270d:	56                   	push   %esi
    270e:	57                   	push   %edi
    270f:	e8 7c 94 00 00       	call   bb90 <ext4_filesystem_get_inode_data_block_index>
    2714:	83 c4 20             	add    $0x20,%esp
    2717:	89 c6                	mov    %eax,%esi
    2719:	85 c0                	test   %eax,%eax
    271b:	0f 85 f7 00 00 00    	jne    2818 <ext4fs_write+0x1c8>
    2721:	8b 5d a8             	mov    -0x58(%ebp),%ebx
    2724:	8b 75 ac             	mov    -0x54(%ebp),%esi
    2727:	8b 45 c4             	mov    -0x3c(%ebp),%eax
    272a:	56                   	push   %esi
    272b:	53                   	push   %ebx
    272c:	50                   	push   %eax
    272d:	8b 45 c0             	mov    -0x40(%ebp),%eax
    2730:	50                   	push   %eax
    2731:	e8 ea d4 02 00       	call   2fc20 <__umoddi3>
    2736:	89 d9                	mov    %ebx,%ecx
    2738:	89 45 a0             	mov    %eax,-0x60(%ebp)
    273b:	89 55 a4             	mov    %edx,-0x5c(%ebp)
    273e:	83 c4 10             	add    $0x10,%esp
    2741:	31 d2                	xor    %edx,%edx
    2743:	2b 4d a0             	sub    -0x60(%ebp),%ecx
    2746:	89 f3                	mov    %esi,%ebx
    2748:	8b 45 b4             	mov    -0x4c(%ebp),%eax
    274b:	1b 5d a4             	sbb    -0x5c(%ebp),%ebx
    274e:	89 4d 98             	mov    %ecx,-0x68(%ebp)
    2751:	89 5d 9c             	mov    %ebx,-0x64(%ebp)
    2754:	83 fb 00             	cmp    $0x0,%ebx
    2757:	0f 87 63 01 00 00    	ja     28c0 <ext4fs_write+0x270>
    275d:	8b 75 b4             	mov    -0x4c(%ebp),%esi
    2760:	39 f1                	cmp    %esi,%ecx
    2762:	0f 87 58 01 00 00    	ja     28c0 <ext4fs_write+0x270>
    2768:	8b 45 98             	mov    -0x68(%ebp),%eax
    276b:	89 45 b4             	mov    %eax,-0x4c(%ebp)
    276e:	8b 45 e0             	mov    -0x20(%ebp),%eax
    2771:	85 c0                	test   %eax,%eax
    2773:	0f 85 77 01 00 00    	jne    28f0 <ext4fs_write+0x2a0>
    2779:	50                   	push   %eax
    277a:	50                   	push   %eax
    277b:	8b 45 8c             	mov    -0x74(%ebp),%eax
    277e:	6a 40                	push   $0x40
    2780:	8b 40 04             	mov    0x4(%eax),%eax
    2783:	50                   	push   %eax
    2784:	e8 27 b0 00 00       	call   d7b0 <ext4_superblock_has_feature_incompatible>
    2789:	83 c4 10             	add    $0x10,%esp
    278c:	84 c0                	test   %al,%al
    278e:	0f 84 b4 00 00 00    	je     2848 <ext4fs_write+0x1f8>
    2794:	56                   	push   %esi
    2795:	56                   	push   %esi
    2796:	8b 47 04             	mov    0x4(%edi),%eax
    2799:	68 00 00 08 00       	push   $0x80000
    279e:	50                   	push   %eax
    279f:	e8 8c a8 00 00       	call   d030 <ext4_inode_has_flag>
    27a4:	83 c4 10             	add    $0x10,%esp
    27a7:	84 c0                	test   %al,%al
    27a9:	0f 84 99 00 00 00    	je     2848 <ext4fs_write+0x1f8>
    27af:	8b 45 8c             	mov    -0x74(%ebp),%eax
    27b2:	53                   	push   %ebx
    27b3:	53                   	push   %ebx
    27b4:	8b 77 04             	mov    0x4(%edi),%esi
    27b7:	8b 40 04             	mov    0x4(%eax),%eax
    27ba:	56                   	push   %esi
    27bb:	50                   	push   %eax
    27bc:	e8 ff a3 00 00       	call   cbc0 <ext4_inode_get_size>
    27c1:	8b 4d ac             	mov    -0x54(%ebp),%ecx
    27c4:	8b 5d a8             	mov    -0x58(%ebp),%ebx
    27c7:	51                   	push   %ecx
    27c8:	53                   	push   %ebx
    27c9:	52                   	push   %edx
    27ca:	50                   	push   %eax
    27cb:	e8 c0 d1 02 00       	call   2f990 <__udivdi3>
    27d0:	8d 4d e4             	lea    -0x1c(%ebp),%ecx
    27d3:	89 45 e4             	mov    %eax,-0x1c(%ebp)
    27d6:	83 c4 20             	add    $0x20,%esp
    27d9:	89 cb                	mov    %ecx,%ebx
    27db:	89 ce                	mov    %ecx,%esi
    27dd:	eb 1c                	jmp    27fb <ext4fs_write+0x1ab>
    27df:	90                   	nop
    27e0:	8b 4d b0             	mov    -0x50(%ebp),%ecx
    27e3:	6a 01                	push   $0x1
    27e5:	51                   	push   %ecx
    27e6:	56                   	push   %esi
    27e7:	57                   	push   %edi
    27e8:	e8 a3 77 00 00       	call   9f90 <ext4_extent_append_block>
    27ed:	83 c4 10             	add    $0x10,%esp
    27f0:	85 c0                	test   %eax,%eax
    27f2:	0f 85 28 02 00 00    	jne    2a20 <ext4fs_write+0x3d0>
    27f8:	8b 45 e4             	mov    -0x1c(%ebp),%eax
    27fb:	3b 45 90             	cmp    -0x70(%ebp),%eax
    27fe:	72 e0                	jb     27e0 <ext4fs_write+0x190>
    2800:	8b 55 b0             	mov    -0x50(%ebp),%edx
    2803:	6a 00                	push   $0x0
    2805:	52                   	push   %edx
    2806:	53                   	push   %ebx
    2807:	57                   	push   %edi
    2808:	e8 83 77 00 00       	call   9f90 <ext4_extent_append_block>
    280d:	83 c4 10             	add    $0x10,%esp
    2810:	89 c6                	mov    %eax,%esi
    2812:	85 c0                	test   %eax,%eax
    2814:	74 6b                	je     2881 <ext4fs_write+0x231>
    2816:	66 90                	xchg   %ax,%ax
    2818:	8b 45 d8             	mov    -0x28(%ebp),%eax
    281b:	57                   	push   %edi
    281c:	57                   	push   %edi
    281d:	56                   	push   %esi
    281e:	50                   	push   %eax
    281f:	e8 4c 16 02 00       	call   23e70 <async_answer_0>
    2824:	83 c4 10             	add    $0x10,%esp
    2827:	83 ec 0c             	sub    $0xc,%esp
    282a:	8b 45 d4             	mov    -0x2c(%ebp),%eax
    282d:	50                   	push   %eax
    282e:	e8 1d ef ff ff       	call   1750 <ext4fs_node_put>
    2833:	83 c4 10             	add    $0x10,%esp
    2836:	8d 65 f4             	lea    -0xc(%ebp),%esp
    2839:	89 f0                	mov    %esi,%eax
    283b:	5b                   	pop    %ebx
    283c:	5e                   	pop    %esi
    283d:	5f                   	pop    %edi
    283e:	5d                   	pop    %ebp
    283f:	c3                   	ret    
    2840:	a1 00 00 00 00       	mov    0x0,%eax
    2845:	0f 0b                	ud2    
    2847:	90                   	nop
    2848:	50                   	push   %eax
    2849:	50                   	push   %eax
    284a:	8b 45 b0             	mov    -0x50(%ebp),%eax
    284d:	50                   	push   %eax
    284e:	57                   	push   %edi
    284f:	e8 5c 3e 00 00       	call   66b0 <ext4_balloc_alloc_block>
    2854:	83 c4 10             	add    $0x10,%esp
    2857:	89 c6                	mov    %eax,%esi
    2859:	85 c0                	test   %eax,%eax
    285b:	75 bb                	jne    2818 <ext4fs_write+0x1c8>
    285d:	8b 45 e0             	mov    -0x20(%ebp),%eax
    2860:	50                   	push   %eax
    2861:	8b 45 bc             	mov    -0x44(%ebp),%eax
    2864:	50                   	push   %eax
    2865:	8b 45 b8             	mov    -0x48(%ebp),%eax
    2868:	50                   	push   %eax
    2869:	57                   	push   %edi
    286a:	e8 51 95 00 00       	call   bdc0 <ext4_filesystem_set_inode_data_block_index>
    286f:	83 c4 10             	add    $0x10,%esp
    2872:	89 c6                	mov    %eax,%esi
    2874:	8d 45 e4             	lea    -0x1c(%ebp),%eax
    2877:	89 c3                	mov    %eax,%ebx
    2879:	85 f6                	test   %esi,%esi
    287b:	0f 85 7f 01 00 00    	jne    2a00 <ext4fs_write+0x3b0>
    2881:	83 ec 0c             	sub    $0xc,%esp
    2884:	8b 45 e0             	mov    -0x20(%ebp),%eax
    2887:	31 d2                	xor    %edx,%edx
    2889:	c6 47 10 01          	movb   $0x1,0x10(%edi)
    288d:	6a 01                	push   $0x1
    288f:	52                   	push   %edx
    2890:	50                   	push   %eax
    2891:	8b 45 08             	mov    0x8(%ebp),%eax
    2894:	50                   	push   %eax
    2895:	53                   	push   %ebx
    2896:	e8 b5 14 00 00       	call   3d50 <block_get>
    289b:	83 c4 20             	add    $0x20,%esp
    289e:	89 c6                	mov    %eax,%esi
    28a0:	85 c0                	test   %eax,%eax
    28a2:	0f 85 70 ff ff ff    	jne    2818 <ext4fs_write+0x1c8>
    28a8:	50                   	push   %eax
    28a9:	8b 45 94             	mov    -0x6c(%ebp),%eax
    28ac:	50                   	push   %eax
    28ad:	8b 45 e4             	mov    -0x1c(%ebp),%eax
    28b0:	6a 00                	push   $0x0
    28b2:	8b 40 58             	mov    0x58(%eax),%eax
    28b5:	50                   	push   %eax
    28b6:	e8 a5 d8 00 00       	call   10160 <memset>
    28bb:	83 c4 10             	add    $0x10,%esp
    28be:	eb 6d                	jmp    292d <ext4fs_write+0x2dd>
    28c0:	89 45 98             	mov    %eax,-0x68(%ebp)
    28c3:	89 55 9c             	mov    %edx,-0x64(%ebp)
    28c6:	e9 9d fe ff ff       	jmp    2768 <ext4fs_write+0x118>
    28cb:	90                   	nop
    28cc:	8d 74 26 00          	lea    0x0(%esi,%eiz,1),%esi
    28d0:	8b 45 d8             	mov    -0x28(%ebp),%eax
    28d3:	57                   	push   %edi
    28d4:	57                   	push   %edi
    28d5:	6a f2                	push   $0xfffffff2
    28d7:	50                   	push   %eax
    28d8:	be f2 ff ff ff       	mov    $0xfffffff2,%esi
    28dd:	e8 8e 15 02 00       	call   23e70 <async_answer_0>
    28e2:	83 c4 10             	add    $0x10,%esp
    28e5:	e9 3d ff ff ff       	jmp    2827 <ext4fs_write+0x1d7>
    28ea:	8d b6 00 00 00 00    	lea    0x0(%esi),%esi
    28f0:	8b 55 b4             	mov    -0x4c(%ebp),%edx
    28f3:	83 ec 0c             	sub    $0xc,%esp
    28f6:	39 55 94             	cmp    %edx,-0x6c(%ebp)
    28f9:	0f 94 c2             	sete   %dl
    28fc:	81 e2 ff 00 00 00    	and    $0xff,%edx
    2902:	52                   	push   %edx
    2903:	31 d2                	xor    %edx,%edx
    2905:	52                   	push   %edx
    2906:	50                   	push   %eax
    2907:	8b 45 08             	mov    0x8(%ebp),%eax
    290a:	50                   	push   %eax
    290b:	8d 45 e4             	lea    -0x1c(%ebp),%eax
    290e:	50                   	push   %eax
    290f:	e8 3c 14 00 00       	call   3d50 <block_get>
    2914:	83 c4 20             	add    $0x20,%esp
    2917:	89 c6                	mov    %eax,%esi
    2919:	85 c0                	test   %eax,%eax
    291b:	0f 85 f7 fe ff ff    	jne    2818 <ext4fs_write+0x1c8>
    2921:	8b 4d b4             	mov    -0x4c(%ebp),%ecx
    2924:	39 4d 94             	cmp    %ecx,-0x6c(%ebp)
    2927:	0f 84 7b ff ff ff    	je     28a8 <ext4fs_write+0x258>
    292d:	8b 45 e4             	mov    -0x1c(%ebp),%eax
    2930:	52                   	push   %edx
    2931:	8b 4d b4             	mov    -0x4c(%ebp),%ecx
    2934:	8b 75 d8             	mov    -0x28(%ebp),%esi
    2937:	51                   	push   %ecx
    2938:	8b 58 58             	mov    0x58(%eax),%ebx
    293b:	8b 4d a0             	mov    -0x60(%ebp),%ecx
    293e:	01 d9                	add    %ebx,%ecx
    2940:	51                   	push   %ecx
    2941:	56                   	push   %esi
    2942:	e8 79 31 02 00       	call   25ac0 <async_data_write_finalize>
    2947:	83 c4 10             	add    $0x10,%esp
    294a:	89 c6                	mov    %eax,%esi
    294c:	85 c0                	test   %eax,%eax
    294e:	0f 85 94 00 00 00    	jne    29e8 <ext4fs_write+0x398>
    2954:	8b 45 e4             	mov    -0x1c(%ebp),%eax
    2957:	83 ec 0c             	sub    $0xc,%esp
    295a:	c6 40 14 01          	movb   $0x1,0x14(%eax)
    295e:	50                   	push   %eax
    295f:	e8 ec 10 00 00       	call   3a50 <block_put>
    2964:	83 c4 10             	add    $0x10,%esp
    2967:	89 c6                	mov    %eax,%esi
    2969:	85 c0                	test   %eax,%eax
    296b:	0f 85 b6 fe ff ff    	jne    2827 <ext4fs_write+0x1d7>
    2971:	50                   	push   %eax
    2972:	50                   	push   %eax
    2973:	8b 47 04             	mov    0x4(%edi),%eax
    2976:	50                   	push   %eax
    2977:	8b 45 8c             	mov    -0x74(%ebp),%eax
    297a:	8b 40 04             	mov    0x4(%eax),%eax
    297d:	50                   	push   %eax
    297e:	e8 3d a2 00 00       	call   cbc0 <ext4_inode_get_size>
    2983:	8b 4d c0             	mov    -0x40(%ebp),%ecx
    2986:	8b 5d c4             	mov    -0x3c(%ebp),%ebx
    2989:	03 4d 98             	add    -0x68(%ebp),%ecx
    298c:	13 5d 9c             	adc    -0x64(%ebp),%ebx
    298f:	83 c4 10             	add    $0x10,%esp
    2992:	39 de                	cmp    %ebx,%esi
    2994:	72 04                	jb     299a <ext4fs_write+0x34a>
    2996:	39 c8                	cmp    %ecx,%eax
    2998:	73 13                	jae    29ad <ext4fs_write+0x35d>
    299a:	50                   	push   %eax
    299b:	53                   	push   %ebx
    299c:	8b 47 04             	mov    0x4(%edi),%eax
    299f:	51                   	push   %ecx
    29a0:	50                   	push   %eax
    29a1:	e8 8a a2 00 00       	call   cc30 <ext4_inode_set_size>
    29a6:	c6 47 10 01          	movb   $0x1,0x10(%edi)
    29aa:	83 c4 10             	add    $0x10,%esp
    29ad:	8b 45 8c             	mov    -0x74(%ebp),%eax
    29b0:	52                   	push   %edx
    29b1:	52                   	push   %edx
    29b2:	8b 4f 04             	mov    0x4(%edi),%ecx
    29b5:	8b 58 04             	mov    0x4(%eax),%ebx
    29b8:	51                   	push   %ecx
    29b9:	53                   	push   %ebx
    29ba:	e8 01 a2 00 00       	call   cbc0 <ext4_inode_get_size>
    29bf:	8b 4d 1c             	mov    0x1c(%ebp),%ecx
    29c2:	8b 7d b4             	mov    -0x4c(%ebp),%edi
    29c5:	89 01                	mov    %eax,(%ecx)
    29c7:	8b 45 18             	mov    0x18(%ebp),%eax
    29ca:	89 51 04             	mov    %edx,0x4(%ecx)
    29cd:	89 38                	mov    %edi,(%eax)
    29cf:	8b 7d d4             	mov    -0x2c(%ebp),%edi
    29d2:	5e                   	pop    %esi
    29d3:	57                   	push   %edi
    29d4:	e8 77 ed ff ff       	call   1750 <ext4fs_node_put>
    29d9:	83 c4 10             	add    $0x10,%esp
    29dc:	89 c6                	mov    %eax,%esi
    29de:	e9 9c fc ff ff       	jmp    267f <ext4fs_write+0x2f>
    29e3:	90                   	nop
    29e4:	8d 74 26 00          	lea    0x0(%esi,%eiz,1),%esi
    29e8:	83 ec 0c             	sub    $0xc,%esp
    29eb:	8b 45 e4             	mov    -0x1c(%ebp),%eax
    29ee:	50                   	push   %eax
    29ef:	e8 5c 10 00 00       	call   3a50 <block_put>
    29f4:	83 c4 10             	add    $0x10,%esp
    29f7:	e9 2b fe ff ff       	jmp    2827 <ext4fs_write+0x1d7>
    29fc:	8d 74 26 00          	lea    0x0(%esi,%eiz,1),%esi
    2a00:	8b 4d e0             	mov    -0x20(%ebp),%ecx
    2a03:	52                   	push   %edx
    2a04:	52                   	push   %edx
    2a05:	51                   	push   %ecx
    2a06:	57                   	push   %edi
    2a07:	e8 54 36 00 00       	call   6060 <ext4_balloc_free_block>
    2a0c:	8b 45 d8             	mov    -0x28(%ebp),%eax
    2a0f:	5b                   	pop    %ebx
    2a10:	5f                   	pop    %edi
    2a11:	56                   	push   %esi
    2a12:	50                   	push   %eax
    2a13:	e8 58 14 02 00       	call   23e70 <async_answer_0>
    2a18:	83 c4 10             	add    $0x10,%esp
    2a1b:	e9 07 fe ff ff       	jmp    2827 <ext4fs_write+0x1d7>
    2a20:	89 c6                	mov    %eax,%esi
    2a22:	e9 f1 fd ff ff       	jmp    2818 <ext4fs_write+0x1c8>
    2a27:	89 f6                	mov    %esi,%esi
    2a29:	8d bc 27 00 00 00 00 	lea    0x0(%edi,%eiz,1),%edi

00002a30 <ext4fs_size_block>:
    2a30:	55                   	push   %ebp
    2a31:	89 e5                	mov    %esp,%ebp
    2a33:	56                   	push   %esi
    2a34:	53                   	push   %ebx
    2a35:	83 ec 0c             	sub    $0xc,%esp
    2a38:	8b 75 08             	mov    0x8(%ebp),%esi
    2a3b:	68 f0 3e 03 00       	push   $0x33ef0
    2a40:	e8 fb 2b 01 00       	call   15640 <fibril_mutex_lock>
    2a45:	8b 1d 04 3f 03 00    	mov    0x33f04,%ebx
    2a4b:	83 c4 10             	add    $0x10,%esp
    2a4e:	81 fb 00 3f 03 00    	cmp    $0x33f00,%ebx
    2a54:	74 12                	je     2a68 <ext4fs_size_block+0x38>
    2a56:	66 90                	xchg   %ax,%ax
    2a58:	3b 73 08             	cmp    0x8(%ebx),%esi
    2a5b:	74 2b                	je     2a88 <ext4fs_size_block+0x58>
    2a5d:	8b 5b 04             	mov    0x4(%ebx),%ebx
    2a60:	81 fb 00 3f 03 00    	cmp    $0x33f00,%ebx
    2a66:	75 f0                	jne    2a58 <ext4fs_size_block+0x28>
    2a68:	83 ec 0c             	sub    $0xc,%esp
    2a6b:	68 f0 3e 03 00       	push   $0x33ef0
    2a70:	e8 4b 2d 01 00       	call   157c0 <fibril_mutex_unlock>
    2a75:	83 c4 10             	add    $0x10,%esp
    2a78:	8d 65 f8             	lea    -0x8(%ebp),%esp
    2a7b:	b8 f2 ff ff ff       	mov    $0xfffffff2,%eax
    2a80:	5b                   	pop    %ebx
    2a81:	5e                   	pop    %esi
    2a82:	5d                   	pop    %ebp
    2a83:	c3                   	ret    
    2a84:	8d 74 26 00          	lea    0x0(%esi,%eiz,1),%esi
    2a88:	83 ec 0c             	sub    $0xc,%esp
    2a8b:	68 f0 3e 03 00       	push   $0x33ef0
    2a90:	e8 2b 2d 01 00       	call   157c0 <fibril_mutex_unlock>
    2a95:	58                   	pop    %eax
    2a96:	8b 43 0c             	mov    0xc(%ebx),%eax
    2a99:	8b 50 04             	mov    0x4(%eax),%edx
    2a9c:	52                   	push   %edx
    2a9d:	e8 ae a7 00 00       	call   d250 <ext4_superblock_get_block_size>
    2aa2:	8b 55 0c             	mov    0xc(%ebp),%edx
    2aa5:	83 c4 10             	add    $0x10,%esp
    2aa8:	89 02                	mov    %eax,(%edx)
    2aaa:	8d 65 f8             	lea    -0x8(%ebp),%esp
    2aad:	31 c0                	xor    %eax,%eax
    2aaf:	5b                   	pop    %ebx
    2ab0:	5e                   	pop    %esi
    2ab1:	5d                   	pop    %ebp
    2ab2:	c3                   	ret    
    2ab3:	8d b6 00 00 00 00    	lea    0x0(%esi),%esi
    2ab9:	8d bc 27 00 00 00 00 	lea    0x0(%edi,%eiz,1),%edi

00002ac0 <ext4fs_free_block_count>:
    2ac0:	55                   	push   %ebp
    2ac1:	89 e5                	mov    %esp,%ebp
    2ac3:	56                   	push   %esi
    2ac4:	53                   	push   %ebx
    2ac5:	83 ec 0c             	sub    $0xc,%esp
    2ac8:	8b 75 08             	mov    0x8(%ebp),%esi
    2acb:	68 f0 3e 03 00       	push   $0x33ef0
    2ad0:	e8 6b 2b 01 00       	call   15640 <fibril_mutex_lock>
    2ad5:	8b 1d 04 3f 03 00    	mov    0x33f04,%ebx
    2adb:	83 c4 10             	add    $0x10,%esp
    2ade:	81 fb 00 3f 03 00    	cmp    $0x33f00,%ebx
    2ae4:	74 12                	je     2af8 <ext4fs_free_block_count+0x38>
    2ae6:	66 90                	xchg   %ax,%ax
    2ae8:	3b 73 08             	cmp    0x8(%ebx),%esi
    2aeb:	74 2b                	je     2b18 <ext4fs_free_block_count+0x58>
    2aed:	8b 5b 04             	mov    0x4(%ebx),%ebx
    2af0:	81 fb 00 3f 03 00    	cmp    $0x33f00,%ebx
    2af6:	75 f0                	jne    2ae8 <ext4fs_free_block_count+0x28>
    2af8:	83 ec 0c             	sub    $0xc,%esp
    2afb:	68 f0 3e 03 00       	push   $0x33ef0
    2b00:	e8 bb 2c 01 00       	call   157c0 <fibril_mutex_unlock>
    2b05:	83 c4 10             	add    $0x10,%esp
    2b08:	8d 65 f8             	lea    -0x8(%ebp),%esp
    2b0b:	b8 f2 ff ff ff       	mov    $0xfffffff2,%eax
    2b10:	5b                   	pop    %ebx
    2b11:	5e                   	pop    %esi
    2b12:	5d                   	pop    %ebp
    2b13:	c3                   	ret    
    2b14:	8d 74 26 00          	lea    0x0(%esi,%eiz,1),%esi
    2b18:	83 ec 0c             	sub    $0xc,%esp
    2b1b:	68 f0 3e 03 00       	push   $0x33ef0
    2b20:	e8 9b 2c 01 00       	call   157c0 <fibril_mutex_unlock>
    2b25:	58                   	pop    %eax
    2b26:	8b 43 0c             	mov    0xc(%ebx),%eax
    2b29:	8b 50 04             	mov    0x4(%eax),%edx
    2b2c:	52                   	push   %edx
    2b2d:	e8 7e a6 00 00       	call   d1b0 <ext4_superblock_get_free_blocks_count>
    2b32:	8b 4d 0c             	mov    0xc(%ebp),%ecx
    2b35:	83 c4 10             	add    $0x10,%esp
    2b38:	89 01                	mov    %eax,(%ecx)
    2b3a:	89 51 04             	mov    %edx,0x4(%ecx)
    2b3d:	8d 65 f8             	lea    -0x8(%ebp),%esp
    2b40:	31 c0                	xor    %eax,%eax
    2b42:	5b                   	pop    %ebx
    2b43:	5e                   	pop    %esi
    2b44:	5d                   	pop    %ebp
    2b45:	c3                   	ret    
    2b46:	8d 76 00             	lea    0x0(%esi),%esi
    2b49:	8d bc 27 00 00 00 00 	lea    0x0(%edi,%eiz,1),%edi

00002b50 <ext4fs_sync>:
    2b50:	55                   	push   %ebp
    2b51:	89 e5                	mov    %esp,%ebp
    2b53:	56                   	push   %esi
    2b54:	53                   	push   %ebx
    2b55:	83 ec 1c             	sub    $0x1c,%esp
    2b58:	8b 75 08             	mov    0x8(%ebp),%esi
    2b5b:	68 f0 3e 03 00       	push   $0x33ef0
    2b60:	e8 db 2a 01 00       	call   15640 <fibril_mutex_lock>
    2b65:	8b 1d 04 3f 03 00    	mov    0x33f04,%ebx
    2b6b:	83 c4 10             	add    $0x10,%esp
    2b6e:	81 fb 00 3f 03 00    	cmp    $0x33f00,%ebx
    2b74:	74 12                	je     2b88 <ext4fs_sync+0x38>
    2b76:	66 90                	xchg   %ax,%ax
    2b78:	3b 73 08             	cmp    0x8(%ebx),%esi
    2b7b:	74 2b                	je     2ba8 <ext4fs_sync+0x58>
    2b7d:	8b 5b 04             	mov    0x4(%ebx),%ebx
    2b80:	81 fb 00 3f 03 00    	cmp    $0x33f00,%ebx
    2b86:	75 f0                	jne    2b78 <ext4fs_sync+0x28>
    2b88:	83 ec 0c             	sub    $0xc,%esp
    2b8b:	68 f0 3e 03 00       	push   $0x33ef0
    2b90:	e8 2b 2c 01 00       	call   157c0 <fibril_mutex_unlock>
    2b95:	83 c4 10             	add    $0x10,%esp
    2b98:	b8 f2 ff ff ff       	mov    $0xfffffff2,%eax
    2b9d:	8d 65 f8             	lea    -0x8(%ebp),%esp
    2ba0:	5b                   	pop    %ebx
    2ba1:	5e                   	pop    %esi
    2ba2:	5d                   	pop    %ebp
    2ba3:	c3                   	ret    
    2ba4:	8d 74 26 00          	lea    0x0(%esi,%eiz,1),%esi
    2ba8:	83 ec 0c             	sub    $0xc,%esp
    2bab:	68 f0 3e 03 00       	push   $0x33ef0
    2bb0:	e8 0b 2c 01 00       	call   157c0 <fibril_mutex_unlock>
    2bb5:	c7 04 24 e0 3e 03 00 	movl   $0x33ee0,(%esp)
    2bbc:	e8 7f 2a 01 00       	call   15640 <fibril_mutex_lock>
    2bc1:	8b 43 08             	mov    0x8(%ebx),%eax
    2bc4:	59                   	pop    %ecx
    2bc5:	89 45 f0             	mov    %eax,-0x10(%ebp)
    2bc8:	8b 45 0c             	mov    0xc(%ebp),%eax
    2bcb:	89 45 f4             	mov    %eax,-0xc(%ebp)
    2bce:	8d 45 f0             	lea    -0x10(%ebp),%eax
    2bd1:	5e                   	pop    %esi
    2bd2:	50                   	push   %eax
    2bd3:	68 cc 41 03 00       	push   $0x341cc
    2bd8:	e8 63 47 02 00       	call   27340 <hash_table_find>
    2bdd:	83 c4 10             	add    $0x10,%esp
    2be0:	85 c0                	test   %eax,%eax
    2be2:	74 4b                	je     2c2f <ext4fs_sync+0xdf>
    2be4:	8b 50 fc             	mov    -0x4(%eax),%edx
    2be7:	83 e8 0c             	sub    $0xc,%eax
    2bea:	83 ec 0c             	sub    $0xc,%esp
    2bed:	89 55 ec             	mov    %edx,-0x14(%ebp)
    2bf0:	8b 50 14             	mov    0x14(%eax),%edx
    2bf3:	42                   	inc    %edx
    2bf4:	89 50 14             	mov    %edx,0x14(%eax)
    2bf7:	68 e0 3e 03 00       	push   $0x33ee0
    2bfc:	e8 bf 2b 01 00       	call   157c0 <fibril_mutex_unlock>
    2c01:	83 c4 10             	add    $0x10,%esp
    2c04:	8b 45 ec             	mov    -0x14(%ebp),%eax
    2c07:	85 c0                	test   %eax,%eax
    2c09:	74 1d                	je     2c28 <ext4fs_sync+0xd8>
    2c0b:	8b 50 10             	mov    0x10(%eax),%edx
    2c0e:	83 ec 0c             	sub    $0xc,%esp
    2c11:	8b 52 04             	mov    0x4(%edx),%edx
    2c14:	c6 42 10 01          	movb   $0x1,0x10(%edx)
    2c18:	50                   	push   %eax
    2c19:	e8 32 eb ff ff       	call   1750 <ext4fs_node_put>
    2c1e:	83 c4 10             	add    $0x10,%esp
    2c21:	8d 65 f8             	lea    -0x8(%ebp),%esp
    2c24:	5b                   	pop    %ebx
    2c25:	5e                   	pop    %esi
    2c26:	5d                   	pop    %ebp
    2c27:	c3                   	ret    
    2c28:	a1 04 00 00 00       	mov    0x4,%eax
    2c2d:	0f 0b                	ud2    
    2c2f:	8b 4d 0c             	mov    0xc(%ebp),%ecx
    2c32:	89 da                	mov    %ebx,%edx
    2c34:	8d 45 ec             	lea    -0x14(%ebp),%eax
    2c37:	e8 e4 ec ff ff       	call   1920 <ext4fs_node_get_core.part.2>
    2c3c:	85 c0                	test   %eax,%eax
    2c3e:	74 c4                	je     2c04 <ext4fs_sync+0xb4>
    2c40:	e9 58 ff ff ff       	jmp    2b9d <ext4fs_sync+0x4d>
    2c45:	8d 74 26 00          	lea    0x0(%esi,%eiz,1),%esi
    2c49:	8d bc 27 00 00 00 00 	lea    0x0(%edi,%eiz,1),%edi

00002c50 <ext4fs_total_block_count>:
    2c50:	55                   	push   %ebp
    2c51:	89 e5                	mov    %esp,%ebp
    2c53:	56                   	push   %esi
    2c54:	53                   	push   %ebx
    2c55:	83 ec 0c             	sub    $0xc,%esp
    2c58:	8b 75 08             	mov    0x8(%ebp),%esi
    2c5b:	68 f0 3e 03 00       	push   $0x33ef0
    2c60:	e8 db 29 01 00       	call   15640 <fibril_mutex_lock>
    2c65:	8b 1d 04 3f 03 00    	mov    0x33f04,%ebx
    2c6b:	83 c4 10             	add    $0x10,%esp
    2c6e:	81 fb 00 3f 03 00    	cmp    $0x33f00,%ebx
    2c74:	74 12                	je     2c88 <ext4fs_total_block_count+0x38>
    2c76:	66 90                	xchg   %ax,%ax
    2c78:	3b 73 08             	cmp    0x8(%ebx),%esi
    2c7b:	74 2b                	je     2ca8 <ext4fs_total_block_count+0x58>
    2c7d:	8b 5b 04             	mov    0x4(%ebx),%ebx
    2c80:	81 fb 00 3f 03 00    	cmp    $0x33f00,%ebx
    2c86:	75 f0                	jne    2c78 <ext4fs_total_block_count+0x28>
    2c88:	83 ec 0c             	sub    $0xc,%esp
    2c8b:	68 f0 3e 03 00       	push   $0x33ef0
    2c90:	e8 2b 2b 01 00       	call   157c0 <fibril_mutex_unlock>
    2c95:	83 c4 10             	add    $0x10,%esp
    2c98:	8d 65 f8             	lea    -0x8(%ebp),%esp
    2c9b:	b8 f2 ff ff ff       	mov    $0xfffffff2,%eax
    2ca0:	5b                   	pop    %ebx
    2ca1:	5e                   	pop    %esi
    2ca2:	5d                   	pop    %ebp
    2ca3:	c3                   	ret    
    2ca4:	8d 74 26 00          	lea    0x0(%esi,%eiz,1),%esi
    2ca8:	83 ec 0c             	sub    $0xc,%esp
    2cab:	68 f0 3e 03 00       	push   $0x33ef0
    2cb0:	e8 0b 2b 01 00       	call   157c0 <fibril_mutex_unlock>
    2cb5:	58                   	pop    %eax
    2cb6:	8b 43 0c             	mov    0xc(%ebx),%eax
    2cb9:	8b 50 04             	mov    0x4(%eax),%edx
    2cbc:	52                   	push   %edx
    2cbd:	e8 6e a4 00 00       	call   d130 <ext4_superblock_get_blocks_count>
    2cc2:	8b 4d 0c             	mov    0xc(%ebp),%ecx
    2cc5:	83 c4 10             	add    $0x10,%esp
    2cc8:	89 01                	mov    %eax,(%ecx)
    2cca:	89 51 04             	mov    %edx,0x4(%ecx)
    2ccd:	8d 65 f8             	lea    -0x8(%ebp),%esp
    2cd0:	31 c0                	xor    %eax,%eax
    2cd2:	5b                   	pop    %ebx
    2cd3:	5e                   	pop    %esi
    2cd4:	5d                   	pop    %ebp
    2cd5:	c3                   	ret    
    2cd6:	8d 76 00             	lea    0x0(%esi),%esi
    2cd9:	8d bc 27 00 00 00 00 	lea    0x0(%edi,%eiz,1),%edi

00002ce0 <ext4fs_truncate>:
    2ce0:	55                   	push   %ebp
    2ce1:	89 e5                	mov    %esp,%ebp
    2ce3:	57                   	push   %edi
    2ce4:	56                   	push   %esi
    2ce5:	53                   	push   %ebx
    2ce6:	83 ec 38             	sub    $0x38,%esp
    2ce9:	8b 45 08             	mov    0x8(%ebp),%eax
    2cec:	8b 75 10             	mov    0x10(%ebp),%esi
    2cef:	89 45 d4             	mov    %eax,-0x2c(%ebp)
    2cf2:	68 f0 3e 03 00       	push   $0x33ef0
    2cf7:	8b 7d 14             	mov    0x14(%ebp),%edi
    2cfa:	e8 41 29 01 00       	call   15640 <fibril_mutex_lock>
    2cff:	8b 1d 04 3f 03 00    	mov    0x33f04,%ebx
    2d05:	83 c4 10             	add    $0x10,%esp
    2d08:	8b 45 d4             	mov    -0x2c(%ebp),%eax
    2d0b:	81 fb 00 3f 03 00    	cmp    $0x33f00,%ebx
    2d11:	74 15                	je     2d28 <ext4fs_truncate+0x48>
    2d13:	90                   	nop
    2d14:	8d 74 26 00          	lea    0x0(%esi,%eiz,1),%esi
    2d18:	3b 43 08             	cmp    0x8(%ebx),%eax
    2d1b:	74 2b                	je     2d48 <ext4fs_truncate+0x68>
    2d1d:	8b 5b 04             	mov    0x4(%ebx),%ebx
    2d20:	81 fb 00 3f 03 00    	cmp    $0x33f00,%ebx
    2d26:	75 f0                	jne    2d18 <ext4fs_truncate+0x38>
    2d28:	83 ec 0c             	sub    $0xc,%esp
    2d2b:	bb f2 ff ff ff       	mov    $0xfffffff2,%ebx
    2d30:	68 f0 3e 03 00       	push   $0x33ef0
    2d35:	e8 86 2a 01 00       	call   157c0 <fibril_mutex_unlock>
    2d3a:	83 c4 10             	add    $0x10,%esp
    2d3d:	8d 65 f4             	lea    -0xc(%ebp),%esp
    2d40:	89 d8                	mov    %ebx,%eax
    2d42:	5b                   	pop    %ebx
    2d43:	5e                   	pop    %esi
    2d44:	5f                   	pop    %edi
    2d45:	5d                   	pop    %ebp
    2d46:	c3                   	ret    
    2d47:	90                   	nop
    2d48:	83 ec 0c             	sub    $0xc,%esp
    2d4b:	68 f0 3e 03 00       	push   $0x33ef0
    2d50:	e8 6b 2a 01 00       	call   157c0 <fibril_mutex_unlock>
    2d55:	c7 04 24 e0 3e 03 00 	movl   $0x33ee0,(%esp)
    2d5c:	e8 df 28 01 00       	call   15640 <fibril_mutex_lock>
    2d61:	8b 43 08             	mov    0x8(%ebx),%eax
    2d64:	59                   	pop    %ecx
    2d65:	89 45 e0             	mov    %eax,-0x20(%ebp)
    2d68:	8b 45 0c             	mov    0xc(%ebp),%eax
    2d6b:	89 45 e4             	mov    %eax,-0x1c(%ebp)
    2d6e:	58                   	pop    %eax
    2d6f:	8d 45 e0             	lea    -0x20(%ebp),%eax
    2d72:	50                   	push   %eax
    2d73:	68 cc 41 03 00       	push   $0x341cc
    2d78:	e8 c3 45 02 00       	call   27340 <hash_table_find>
    2d7d:	83 c4 10             	add    $0x10,%esp
    2d80:	85 c0                	test   %eax,%eax
    2d82:	74 60                	je     2de4 <ext4fs_truncate+0x104>
    2d84:	8b 50 fc             	mov    -0x4(%eax),%edx
    2d87:	83 e8 0c             	sub    $0xc,%eax
    2d8a:	83 ec 0c             	sub    $0xc,%esp
    2d8d:	89 55 dc             	mov    %edx,-0x24(%ebp)
    2d90:	8b 50 14             	mov    0x14(%eax),%edx
    2d93:	42                   	inc    %edx
    2d94:	89 50 14             	mov    %edx,0x14(%eax)
    2d97:	68 e0 3e 03 00       	push   $0x33ee0
    2d9c:	e8 1f 2a 01 00       	call   157c0 <fibril_mutex_unlock>
    2da1:	83 c4 10             	add    $0x10,%esp
    2da4:	8b 45 dc             	mov    -0x24(%ebp),%eax
    2da7:	85 c0                	test   %eax,%eax
    2da9:	74 32                	je     2ddd <ext4fs_truncate+0xfd>
    2dab:	52                   	push   %edx
    2dac:	57                   	push   %edi
    2dad:	8b 40 10             	mov    0x10(%eax),%eax
    2db0:	56                   	push   %esi
    2db1:	8b 48 04             	mov    0x4(%eax),%ecx
    2db4:	51                   	push   %ecx
    2db5:	e8 16 96 00 00       	call   c3d0 <ext4_filesystem_truncate_inode>
    2dba:	8b 7d dc             	mov    -0x24(%ebp),%edi
    2dbd:	5e                   	pop    %esi
    2dbe:	89 c3                	mov    %eax,%ebx
    2dc0:	57                   	push   %edi
    2dc1:	e8 8a e9 ff ff       	call   1750 <ext4fs_node_put>
    2dc6:	83 c4 10             	add    $0x10,%esp
    2dc9:	85 db                	test   %ebx,%ebx
    2dcb:	0f 85 6c ff ff ff    	jne    2d3d <ext4fs_truncate+0x5d>
    2dd1:	8d 65 f4             	lea    -0xc(%ebp),%esp
    2dd4:	89 c3                	mov    %eax,%ebx
    2dd6:	89 d8                	mov    %ebx,%eax
    2dd8:	5b                   	pop    %ebx
    2dd9:	5e                   	pop    %esi
    2dda:	5f                   	pop    %edi
    2ddb:	5d                   	pop    %ebp
    2ddc:	c3                   	ret    
    2ddd:	a1 04 00 00 00       	mov    0x4,%eax
    2de2:	0f 0b                	ud2    
    2de4:	89 da                	mov    %ebx,%edx
    2de6:	8b 4d 0c             	mov    0xc(%ebp),%ecx
    2de9:	8d 45 dc             	lea    -0x24(%ebp),%eax
    2dec:	e8 2f eb ff ff       	call   1920 <ext4fs_node_get_core.part.2>
    2df1:	89 c3                	mov    %eax,%ebx
    2df3:	85 c0                	test   %eax,%eax
    2df5:	74 ad                	je     2da4 <ext4fs_truncate+0xc4>
    2df7:	e9 41 ff ff ff       	jmp    2d3d <ext4fs_truncate+0x5d>
    2dfc:	8d 74 26 00          	lea    0x0(%esi,%eiz,1),%esi

00002e00 <ext4fs_unmounted>:
    2e00:	55                   	push   %ebp
    2e01:	89 e5                	mov    %esp,%ebp
    2e03:	56                   	push   %esi
    2e04:	53                   	push   %ebx
    2e05:	83 ec 0c             	sub    $0xc,%esp
    2e08:	8b 75 08             	mov    0x8(%ebp),%esi
    2e0b:	68 f0 3e 03 00       	push   $0x33ef0
    2e10:	e8 2b 28 01 00       	call   15640 <fibril_mutex_lock>
    2e15:	8b 1d 04 3f 03 00    	mov    0x33f04,%ebx
    2e1b:	83 c4 10             	add    $0x10,%esp
    2e1e:	81 fb 00 3f 03 00    	cmp    $0x33f00,%ebx
    2e24:	74 12                	je     2e38 <ext4fs_unmounted+0x38>
    2e26:	66 90                	xchg   %ax,%ax
    2e28:	3b 73 08             	cmp    0x8(%ebx),%esi
    2e2b:	74 2b                	je     2e58 <ext4fs_unmounted+0x58>
    2e2d:	8b 5b 04             	mov    0x4(%ebx),%ebx
    2e30:	81 fb 00 3f 03 00    	cmp    $0x33f00,%ebx
    2e36:	75 f0                	jne    2e28 <ext4fs_unmounted+0x28>
    2e38:	83 ec 0c             	sub    $0xc,%esp
    2e3b:	68 f0 3e 03 00       	push   $0x33ef0
    2e40:	e8 7b 29 01 00       	call   157c0 <fibril_mutex_unlock>
    2e45:	83 c4 10             	add    $0x10,%esp
    2e48:	b8 f2 ff ff ff       	mov    $0xfffffff2,%eax
    2e4d:	8d 65 f8             	lea    -0x8(%ebp),%esp
    2e50:	5b                   	pop    %ebx
    2e51:	5e                   	pop    %esi
    2e52:	5d                   	pop    %ebp
    2e53:	c3                   	ret    
    2e54:	8d 74 26 00          	lea    0x0(%esi,%eiz,1),%esi
    2e58:	83 ec 0c             	sub    $0xc,%esp
    2e5b:	68 f0 3e 03 00       	push   $0x33ef0
    2e60:	e8 5b 29 01 00       	call   157c0 <fibril_mutex_unlock>
    2e65:	c7 04 24 e0 3e 03 00 	movl   $0x33ee0,(%esp)
    2e6c:	e8 cf 27 01 00       	call   15640 <fibril_mutex_lock>
    2e71:	8b 43 10             	mov    0x10(%ebx),%eax
    2e74:	83 c4 10             	add    $0x10,%esp
    2e77:	85 c0                	test   %eax,%eax
    2e79:	75 5e                	jne    2ed9 <ext4fs_unmounted+0xd9>
    2e7b:	83 ec 0c             	sub    $0xc,%esp
    2e7e:	68 f0 3e 03 00       	push   $0x33ef0
    2e83:	e8 b8 27 01 00       	call   15640 <fibril_mutex_lock>
    2e88:	8b 13                	mov    (%ebx),%edx
    2e8a:	83 c4 10             	add    $0x10,%esp
    2e8d:	85 d2                	test   %edx,%edx
    2e8f:	74 0e                	je     2e9f <ext4fs_unmounted+0x9f>
    2e91:	8b 43 04             	mov    0x4(%ebx),%eax
    2e94:	85 c0                	test   %eax,%eax
    2e96:	74 07                	je     2e9f <ext4fs_unmounted+0x9f>
    2e98:	89 10                	mov    %edx,(%eax)
    2e9a:	8b 13                	mov    (%ebx),%edx
    2e9c:	89 42 04             	mov    %eax,0x4(%edx)
    2e9f:	83 ec 0c             	sub    $0xc,%esp
    2ea2:	c7 03 00 00 00 00    	movl   $0x0,(%ebx)
    2ea8:	c7 43 04 00 00 00 00 	movl   $0x0,0x4(%ebx)
    2eaf:	68 f0 3e 03 00       	push   $0x33ef0
    2eb4:	e8 07 29 01 00       	call   157c0 <fibril_mutex_unlock>
    2eb9:	c7 04 24 e0 3e 03 00 	movl   $0x33ee0,(%esp)
    2ec0:	e8 fb 28 01 00       	call   157c0 <fibril_mutex_unlock>
    2ec5:	8b 43 0c             	mov    0xc(%ebx),%eax
    2ec8:	83 c4 10             	add    $0x10,%esp
    2ecb:	89 45 08             	mov    %eax,0x8(%ebp)
    2ece:	8d 65 f8             	lea    -0x8(%ebp),%esp
    2ed1:	5b                   	pop    %ebx
    2ed2:	5e                   	pop    %esi
    2ed3:	5d                   	pop    %ebp
    2ed4:	e9 77 79 00 00       	jmp    a850 <ext4_filesystem_fini>
    2ed9:	83 ec 0c             	sub    $0xc,%esp
    2edc:	68 e0 3e 03 00       	push   $0x33ee0
    2ee1:	e8 da 28 01 00       	call   157c0 <fibril_mutex_unlock>
    2ee6:	83 c4 10             	add    $0x10,%esp
    2ee9:	b8 f1 ff ff ff       	mov    $0xfffffff1,%eax
    2eee:	e9 5a ff ff ff       	jmp    2e4d <ext4fs_unmounted+0x4d>
    2ef3:	8d b6 00 00 00 00    	lea    0x0(%esi),%esi
    2ef9:	8d bc 27 00 00 00 00 	lea    0x0(%edi,%eiz,1),%edi

00002f00 <ext4fs_destroy>:
    2f00:	55                   	push   %ebp
    2f01:	89 e5                	mov    %esp,%ebp
    2f03:	57                   	push   %edi
    2f04:	56                   	push   %esi
    2f05:	53                   	push   %ebx
    2f06:	83 ec 28             	sub    $0x28,%esp
    2f09:	8b 75 08             	mov    0x8(%ebp),%esi
    2f0c:	68 f0 3e 03 00       	push   $0x33ef0
    2f11:	e8 2a 27 01 00       	call   15640 <fibril_mutex_lock>
    2f16:	8b 1d 04 3f 03 00    	mov    0x33f04,%ebx
    2f1c:	83 c4 10             	add    $0x10,%esp
    2f1f:	81 fb 00 3f 03 00    	cmp    $0x33f00,%ebx
    2f25:	74 11                	je     2f38 <ext4fs_destroy+0x38>
    2f27:	90                   	nop
    2f28:	3b 73 08             	cmp    0x8(%ebx),%esi
    2f2b:	74 2b                	je     2f58 <ext4fs_destroy+0x58>
    2f2d:	8b 5b 04             	mov    0x4(%ebx),%ebx
    2f30:	81 fb 00 3f 03 00    	cmp    $0x33f00,%ebx
    2f36:	75 f0                	jne    2f28 <ext4fs_destroy+0x28>
    2f38:	83 ec 0c             	sub    $0xc,%esp
    2f3b:	bb f2 ff ff ff       	mov    $0xfffffff2,%ebx
    2f40:	68 f0 3e 03 00       	push   $0x33ef0
    2f45:	e8 76 28 01 00       	call   157c0 <fibril_mutex_unlock>
    2f4a:	83 c4 10             	add    $0x10,%esp
    2f4d:	8d 65 f4             	lea    -0xc(%ebp),%esp
    2f50:	89 d8                	mov    %ebx,%eax
    2f52:	5b                   	pop    %ebx
    2f53:	5e                   	pop    %esi
    2f54:	5f                   	pop    %edi
    2f55:	5d                   	pop    %ebp
    2f56:	c3                   	ret    
    2f57:	90                   	nop
    2f58:	83 ec 0c             	sub    $0xc,%esp
    2f5b:	8d 75 e0             	lea    -0x20(%ebp),%esi
    2f5e:	68 f0 3e 03 00       	push   $0x33ef0
    2f63:	e8 58 28 01 00       	call   157c0 <fibril_mutex_unlock>
    2f68:	c7 04 24 e0 3e 03 00 	movl   $0x33ee0,(%esp)
    2f6f:	e8 cc 26 01 00       	call   15640 <fibril_mutex_lock>
    2f74:	8b 43 08             	mov    0x8(%ebx),%eax
    2f77:	89 45 e0             	mov    %eax,-0x20(%ebp)
    2f7a:	8b 45 0c             	mov    0xc(%ebp),%eax
    2f7d:	89 45 e4             	mov    %eax,-0x1c(%ebp)
    2f80:	58                   	pop    %eax
    2f81:	5a                   	pop    %edx
    2f82:	56                   	push   %esi
    2f83:	68 cc 41 03 00       	push   $0x341cc
    2f88:	e8 b3 43 02 00       	call   27340 <hash_table_find>
    2f8d:	83 c4 10             	add    $0x10,%esp
    2f90:	85 c0                	test   %eax,%eax
    2f92:	0f 84 bd 00 00 00    	je     3055 <ext4fs_destroy+0x155>
    2f98:	8b 50 fc             	mov    -0x4(%eax),%edx
    2f9b:	83 e8 0c             	sub    $0xc,%eax
    2f9e:	83 ec 0c             	sub    $0xc,%esp
    2fa1:	8b 78 14             	mov    0x14(%eax),%edi
    2fa4:	47                   	inc    %edi
    2fa5:	89 55 dc             	mov    %edx,-0x24(%ebp)
    2fa8:	89 78 14             	mov    %edi,0x14(%eax)
    2fab:	68 e0 3e 03 00       	push   $0x33ee0
    2fb0:	e8 0b 28 01 00       	call   157c0 <fibril_mutex_unlock>
    2fb5:	83 c4 10             	add    $0x10,%esp
    2fb8:	8b 7d dc             	mov    -0x24(%ebp),%edi
    2fbb:	53                   	push   %ebx
    2fbc:	53                   	push   %ebx
    2fbd:	57                   	push   %edi
    2fbe:	56                   	push   %esi
    2fbf:	e8 6c e4 ff ff       	call   1430 <ext4fs_has_children>
    2fc4:	83 c4 10             	add    $0x10,%esp
    2fc7:	89 c3                	mov    %eax,%ebx
    2fc9:	85 c0                	test   %eax,%eax
    2fcb:	75 6b                	jne    3038 <ext4fs_destroy+0x138>
    2fcd:	80 7d e0 00          	cmpb   $0x0,-0x20(%ebp)
    2fd1:	0f 85 a1 00 00 00    	jne    3078 <ext4fs_destroy+0x178>
    2fd7:	85 ff                	test   %edi,%edi
    2fd9:	74 73                	je     304e <ext4fs_destroy+0x14e>
    2fdb:	8b 47 10             	mov    0x10(%edi),%eax
    2fde:	8b 70 04             	mov    0x4(%eax),%esi
    2fe1:	51                   	push   %ecx
    2fe2:	6a 00                	push   $0x0
    2fe4:	6a 00                	push   $0x0
    2fe6:	56                   	push   %esi
    2fe7:	e8 e4 93 00 00       	call   c3d0 <ext4_filesystem_truncate_inode>
    2fec:	83 c4 10             	add    $0x10,%esp
    2fef:	89 c3                	mov    %eax,%ebx
    2ff1:	85 c0                	test   %eax,%eax
    2ff3:	75 43                	jne    3038 <ext4fs_destroy+0x138>
    2ff5:	50                   	push   %eax
    2ff6:	50                   	push   %eax
    2ff7:	8b 56 04             	mov    0x4(%esi),%edx
    2ffa:	68 ef be ad de       	push   $0xdeadbeef
    2fff:	52                   	push   %edx
    3000:	e8 bb 9c 00 00       	call   ccc0 <ext4_inode_set_deletion_time>
    3005:	c6 46 10 01          	movb   $0x1,0x10(%esi)
    3009:	89 34 24             	mov    %esi,(%esp)
    300c:	e8 ff 87 00 00       	call   b810 <ext4_filesystem_free_inode>
    3011:	83 c4 10             	add    $0x10,%esp
    3014:	89 c3                	mov    %eax,%ebx
    3016:	85 c0                	test   %eax,%eax
    3018:	75 1e                	jne    3038 <ext4fs_destroy+0x138>
    301a:	83 ec 0c             	sub    $0xc,%esp
    301d:	57                   	push   %edi
    301e:	e8 2d e7 ff ff       	call   1750 <ext4fs_node_put>
    3023:	83 c4 10             	add    $0x10,%esp
    3026:	8d 65 f4             	lea    -0xc(%ebp),%esp
    3029:	89 c3                	mov    %eax,%ebx
    302b:	89 d8                	mov    %ebx,%eax
    302d:	5b                   	pop    %ebx
    302e:	5e                   	pop    %esi
    302f:	5f                   	pop    %edi
    3030:	5d                   	pop    %ebp
    3031:	c3                   	ret    
    3032:	8d b6 00 00 00 00    	lea    0x0(%esi),%esi
    3038:	83 ec 0c             	sub    $0xc,%esp
    303b:	57                   	push   %edi
    303c:	e8 0f e7 ff ff       	call   1750 <ext4fs_node_put>
    3041:	83 c4 10             	add    $0x10,%esp
    3044:	8d 65 f4             	lea    -0xc(%ebp),%esp
    3047:	89 d8                	mov    %ebx,%eax
    3049:	5b                   	pop    %ebx
    304a:	5e                   	pop    %esi
    304b:	5f                   	pop    %edi
    304c:	5d                   	pop    %ebp
    304d:	c3                   	ret    
    304e:	a1 04 00 00 00       	mov    0x4,%eax
    3053:	0f 0b                	ud2    
    3055:	89 da                	mov    %ebx,%edx
    3057:	8b 4d 0c             	mov    0xc(%ebp),%ecx
    305a:	8d 45 dc             	lea    -0x24(%ebp),%eax
    305d:	e8 be e8 ff ff       	call   1920 <ext4fs_node_get_core.part.2>
    3062:	89 c3                	mov    %eax,%ebx
    3064:	85 c0                	test   %eax,%eax
    3066:	0f 84 4c ff ff ff    	je     2fb8 <ext4fs_destroy+0xb8>
    306c:	e9 dc fe ff ff       	jmp    2f4d <ext4fs_destroy+0x4d>
    3071:	8d b4 26 00 00 00 00 	lea    0x0(%esi,%eiz,1),%esi
    3078:	83 ec 0c             	sub    $0xc,%esp
    307b:	bb f2 ff ff ff       	mov    $0xfffffff2,%ebx
    3080:	57                   	push   %edi
    3081:	e8 ca e6 ff ff       	call   1750 <ext4fs_node_put>
    3086:	83 c4 10             	add    $0x10,%esp
    3089:	e9 bf fe ff ff       	jmp    2f4d <ext4fs_destroy+0x4d>
    308e:	66 90                	xchg   %ax,%ax

00003090 <ext4fs_create_node>:
    3090:	55                   	push   %ebp
    3091:	89 e5                	mov    %esp,%ebp
    3093:	57                   	push   %edi
    3094:	56                   	push   %esi
    3095:	53                   	push   %ebx
    3096:	83 ec 38             	sub    $0x38,%esp
    3099:	8b 7d 0c             	mov    0xc(%ebp),%edi
    309c:	6a 18                	push   $0x18
    309e:	e8 7d cb 01 00       	call   1fc20 <malloc>
    30a3:	83 c4 10             	add    $0x10,%esp
    30a6:	85 c0                	test   %eax,%eax
    30a8:	0f 84 36 01 00 00    	je     31e4 <ext4fs_create_node+0x154>
    30ae:	83 ec 0c             	sub    $0xc,%esp
    30b1:	89 c6                	mov    %eax,%esi
    30b3:	6a 14                	push   $0x14
    30b5:	e8 66 cb 01 00       	call   1fc20 <malloc>
    30ba:	83 c4 10             	add    $0x10,%esp
    30bd:	89 45 d4             	mov    %eax,-0x2c(%ebp)
    30c0:	85 c0                	test   %eax,%eax
    30c2:	0f 84 26 01 00 00    	je     31ee <ext4fs_create_node+0x15e>
    30c8:	83 ec 0c             	sub    $0xc,%esp
    30cb:	68 f0 3e 03 00       	push   $0x33ef0
    30d0:	e8 6b 25 01 00       	call   15640 <fibril_mutex_lock>
    30d5:	8b 1d 04 3f 03 00    	mov    0x33f04,%ebx
    30db:	83 c4 10             	add    $0x10,%esp
    30de:	81 fb 00 3f 03 00    	cmp    $0x33f00,%ebx
    30e4:	74 12                	je     30f8 <ext4fs_create_node+0x68>
    30e6:	66 90                	xchg   %ax,%ax
    30e8:	3b 7b 08             	cmp    0x8(%ebx),%edi
    30eb:	74 3b                	je     3128 <ext4fs_create_node+0x98>
    30ed:	8b 5b 04             	mov    0x4(%ebx),%ebx
    30f0:	81 fb 00 3f 03 00    	cmp    $0x33f00,%ebx
    30f6:	75 f0                	jne    30e8 <ext4fs_create_node+0x58>
    30f8:	83 ec 0c             	sub    $0xc,%esp
    30fb:	68 f0 3e 03 00       	push   $0x33ef0
    3100:	e8 bb 26 01 00       	call   157c0 <fibril_mutex_unlock>
    3105:	89 34 24             	mov    %esi,(%esp)
    3108:	e8 c3 cc 01 00       	call   1fdd0 <free>
    310d:	58                   	pop    %eax
    310e:	8b 45 d4             	mov    -0x2c(%ebp),%eax
    3111:	50                   	push   %eax
    3112:	e8 b9 cc 01 00       	call   1fdd0 <free>
    3117:	83 c4 10             	add    $0x10,%esp
    311a:	b8 f2 ff ff ff       	mov    $0xfffffff2,%eax
    311f:	8d 65 f4             	lea    -0xc(%ebp),%esp
    3122:	5b                   	pop    %ebx
    3123:	5e                   	pop    %esi
    3124:	5f                   	pop    %edi
    3125:	5d                   	pop    %ebp
    3126:	c3                   	ret    
    3127:	90                   	nop
    3128:	83 ec 0c             	sub    $0xc,%esp
    312b:	68 f0 3e 03 00       	push   $0x33ef0
    3130:	e8 8b 26 01 00       	call   157c0 <fibril_mutex_unlock>
    3135:	83 c4 0c             	add    $0xc,%esp
    3138:	8b 7d 10             	mov    0x10(%ebp),%edi
    313b:	8d 45 e4             	lea    -0x1c(%ebp),%eax
    313e:	57                   	push   %edi
    313f:	50                   	push   %eax
    3140:	8b 43 0c             	mov    0xc(%ebx),%eax
    3143:	50                   	push   %eax
    3144:	e8 a7 84 00 00       	call   b5f0 <ext4_filesystem_alloc_inode>
    3149:	83 c4 10             	add    $0x10,%esp
    314c:	85 c0                	test   %eax,%eax
    314e:	75 70                	jne    31c0 <ext4fs_create_node+0x130>
    3150:	83 ec 0c             	sub    $0xc,%esp
    3153:	8b 55 e4             	mov    -0x1c(%ebp),%edx
    3156:	89 56 04             	mov    %edx,0x4(%esi)
    3159:	89 1e                	mov    %ebx,(%esi)
    315b:	c7 46 14 01 00 00 00 	movl   $0x1,0x14(%esi)
    3162:	89 45 d0             	mov    %eax,-0x30(%ebp)
    3165:	68 e0 3e 03 00       	push   $0x33ee0
    316a:	e8 d1 24 01 00       	call   15640 <fibril_mutex_lock>
    316f:	58                   	pop    %eax
    3170:	5a                   	pop    %edx
    3171:	8d 56 0c             	lea    0xc(%esi),%edx
    3174:	52                   	push   %edx
    3175:	68 cc 41 03 00       	push   $0x341cc
    317a:	e8 d1 3f 02 00       	call   27150 <hash_table_insert>
    317f:	c7 04 24 e0 3e 03 00 	movl   $0x33ee0,(%esp)
    3186:	e8 35 26 01 00       	call   157c0 <fibril_mutex_unlock>
    318b:	8b 4b 10             	mov    0x10(%ebx),%ecx
    318e:	8b 56 04             	mov    0x4(%esi),%edx
    3191:	41                   	inc    %ecx
    3192:	8b 7d d4             	mov    -0x2c(%ebp),%edi
    3195:	89 4b 10             	mov    %ecx,0x10(%ebx)
    3198:	c6 42 10 01          	movb   $0x1,0x10(%edx)
    319c:	89 3c 24             	mov    %edi,(%esp)
    319f:	e8 6c 2c 00 00       	call   5e10 <fs_node_initialize>
    31a4:	8b 55 08             	mov    0x8(%ebp),%edx
    31a7:	89 77 10             	mov    %esi,0x10(%edi)
    31aa:	89 7e 08             	mov    %edi,0x8(%esi)
    31ad:	89 3a                	mov    %edi,(%edx)
    31af:	8b 45 d0             	mov    -0x30(%ebp),%eax
    31b2:	83 c4 10             	add    $0x10,%esp
    31b5:	8d 65 f4             	lea    -0xc(%ebp),%esp
    31b8:	5b                   	pop    %ebx
    31b9:	5e                   	pop    %esi
    31ba:	5f                   	pop    %edi
    31bb:	5d                   	pop    %ebp
    31bc:	c3                   	ret    
    31bd:	8d 76 00             	lea    0x0(%esi),%esi
    31c0:	83 ec 0c             	sub    $0xc,%esp
    31c3:	89 45 d0             	mov    %eax,-0x30(%ebp)
    31c6:	56                   	push   %esi
    31c7:	e8 04 cc 01 00       	call   1fdd0 <free>
    31cc:	8b 75 d4             	mov    -0x2c(%ebp),%esi
    31cf:	5b                   	pop    %ebx
    31d0:	56                   	push   %esi
    31d1:	e8 fa cb 01 00       	call   1fdd0 <free>
    31d6:	8b 45 d0             	mov    -0x30(%ebp),%eax
    31d9:	83 c4 10             	add    $0x10,%esp
    31dc:	8d 65 f4             	lea    -0xc(%ebp),%esp
    31df:	5b                   	pop    %ebx
    31e0:	5e                   	pop    %esi
    31e1:	5f                   	pop    %edi
    31e2:	5d                   	pop    %ebp
    31e3:	c3                   	ret    
    31e4:	b8 fe ff ff ff       	mov    $0xfffffffe,%eax
    31e9:	e9 31 ff ff ff       	jmp    311f <ext4fs_create_node+0x8f>
    31ee:	83 ec 0c             	sub    $0xc,%esp
    31f1:	56                   	push   %esi
    31f2:	e8 d9 cb 01 00       	call   1fdd0 <free>
    31f7:	83 c4 10             	add    $0x10,%esp
    31fa:	b8 fe ff ff ff       	mov    $0xfffffffe,%eax
    31ff:	e9 1b ff ff ff       	jmp    311f <ext4fs_create_node+0x8f>
    3204:	8d b6 00 00 00 00    	lea    0x0(%esi),%esi
    320a:	8d bf 00 00 00 00    	lea    0x0(%edi),%edi

00003210 <ext4fs_global_init>:
    3210:	55                   	push   %ebp
    3211:	89 e5                	mov    %esp,%ebp
    3213:	83 ec 08             	sub    $0x8,%esp
    3216:	68 cc 3e 03 00       	push   $0x33ecc
    321b:	6a 00                	push   $0x0
    321d:	6a 00                	push   $0x0
    321f:	68 cc 41 03 00       	push   $0x341cc
    3224:	e8 77 3b 02 00       	call   26da0 <hash_table_create>
    3229:	83 c4 10             	add    $0x10,%esp
    322c:	3c 01                	cmp    $0x1,%al
    322e:	c9                   	leave  
    322f:	19 c0                	sbb    %eax,%eax
    3231:	83 e0 fe             	and    $0xfffffffe,%eax
    3234:	c3                   	ret    
    3235:	8d 74 26 00          	lea    0x0(%esi,%eiz,1),%esi
    3239:	8d bc 27 00 00 00 00 	lea    0x0(%edi,%eiz,1),%edi

00003240 <ext4fs_global_fini>:
    3240:	55                   	push   %ebp
    3241:	89 e5                	mov    %esp,%ebp
    3243:	83 ec 14             	sub    $0x14,%esp
    3246:	68 cc 41 03 00       	push   $0x341cc
    324b:	e8 70 3c 02 00       	call   26ec0 <hash_table_destroy>
    3250:	31 c0                	xor    %eax,%eax
    3252:	c9                   	leave  
    3253:	c3                   	ret    
    3254:	66 90                	xchg   %ax,%ax
    3256:	66 90                	xchg   %ax,%ax
    3258:	66 90                	xchg   %ax,%ax
    325a:	66 90                	xchg   %ax,%ax
    325c:	66 90                	xchg   %ax,%ax
    325e:	66 90                	xchg   %ax,%ax

00003260 <cache_key_hash>:
    3260:	55                   	push   %ebp
    3261:	89 e5                	mov    %esp,%ebp
    3263:	8b 45 08             	mov    0x8(%ebp),%eax
    3266:	5d                   	pop    %ebp
    3267:	8b 00                	mov    (%eax),%eax
    3269:	c3                   	ret    
    326a:	8d b6 00 00 00 00    	lea    0x0(%esi),%esi

00003270 <cache_hash>:
    3270:	55                   	push   %ebp
    3271:	89 e5                	mov    %esp,%ebp
    3273:	8b 45 08             	mov    0x8(%ebp),%eax
    3276:	5d                   	pop    %ebp
    3277:	8b 40 e0             	mov    -0x20(%eax),%eax
    327a:	c3                   	ret    
    327b:	90                   	nop
    327c:	8d 74 26 00          	lea    0x0(%esi,%eiz,1),%esi

00003280 <cache_key_equal>:
    3280:	55                   	push   %ebp
    3281:	89 e5                	mov    %esp,%ebp
    3283:	8b 45 0c             	mov    0xc(%ebp),%eax
    3286:	8b 4d 08             	mov    0x8(%ebp),%ecx
    3289:	5d                   	pop    %ebp
    328a:	8b 50 e0             	mov    -0x20(%eax),%edx
    328d:	8b 40 e4             	mov    -0x1c(%eax),%eax
    3290:	33 41 04             	xor    0x4(%ecx),%eax
    3293:	33 11                	xor    (%ecx),%edx
    3295:	09 c2                	or     %eax,%edx
    3297:	0f 94 c0             	sete   %al
    329a:	c3                   	ret    
    329b:	90                   	nop
    329c:	8d 74 26 00          	lea    0x0(%esi,%eiz,1),%esi

000032a0 <block_init>:
    32a0:	55                   	push   %ebp
    32a1:	89 e5                	mov    %esp,%ebp
    32a3:	57                   	push   %edi
    32a4:	56                   	push   %esi
    32a5:	53                   	push   %ebx
    32a6:	83 ec 30             	sub    $0x30,%esp
    32a9:	8b 5d 08             	mov    0x8(%ebp),%ebx
    32ac:	6a 01                	push   $0x1
    32ae:	68 21 66 93 ed       	push   $0xed936621
    32b3:	53                   	push   %ebx
    32b4:	e8 17 c2 00 00       	call   f4d0 <loc_service_connect>
    32b9:	83 c4 10             	add    $0x10,%esp
    32bc:	85 c0                	test   %eax,%eax
    32be:	0f 84 95 01 00 00    	je     3459 <block_init+0x1b9>
    32c4:	89 c7                	mov    %eax,%edi
    32c6:	50                   	push   %eax
    32c7:	50                   	push   %eax
    32c8:	8d 45 d8             	lea    -0x28(%ebp),%eax
    32cb:	50                   	push   %eax
    32cc:	57                   	push   %edi
    32cd:	e8 ae a9 00 00       	call   dc80 <bd_open>
    32d2:	83 c4 10             	add    $0x10,%esp
    32d5:	89 c6                	mov    %eax,%esi
    32d7:	85 c0                	test   %eax,%eax
    32d9:	0f 85 31 01 00 00    	jne    3410 <block_init+0x170>
    32df:	8d 45 dc             	lea    -0x24(%ebp),%eax
    32e2:	56                   	push   %esi
    32e3:	56                   	push   %esi
    32e4:	50                   	push   %eax
    32e5:	8b 45 d8             	mov    -0x28(%ebp),%eax
    32e8:	50                   	push   %eax
    32e9:	e8 72 ac 00 00       	call   df60 <bd_get_block_size>
    32ee:	83 c4 10             	add    $0x10,%esp
    32f1:	89 c6                	mov    %eax,%esi
    32f3:	85 c0                	test   %eax,%eax
    32f5:	0f 85 f0 00 00 00    	jne    33eb <block_init+0x14b>
    32fb:	8d 45 e0             	lea    -0x20(%ebp),%eax
    32fe:	8b 4d d8             	mov    -0x28(%ebp),%ecx
    3301:	52                   	push   %edx
    3302:	52                   	push   %edx
    3303:	50                   	push   %eax
    3304:	51                   	push   %ecx
    3305:	e8 b6 ac 00 00       	call   dfc0 <bd_get_num_blocks>
    330a:	83 c4 10             	add    $0x10,%esp
    330d:	89 c6                	mov    %eax,%esi
    330f:	85 c0                	test   %eax,%eax
    3311:	0f 85 d4 00 00 00    	jne    33eb <block_init+0x14b>
    3317:	83 ec 0c             	sub    $0xc,%esp
    331a:	8b 55 e4             	mov    -0x1c(%ebp),%edx
    331d:	8b 4d d8             	mov    -0x28(%ebp),%ecx
    3320:	8b 45 e0             	mov    -0x20(%ebp),%eax
    3323:	89 55 d4             	mov    %edx,-0x2c(%ebp)
    3326:	8b 55 dc             	mov    -0x24(%ebp),%edx
    3329:	6a 30                	push   $0x30
    332b:	89 4d c8             	mov    %ecx,-0x38(%ebp)
    332e:	89 45 d0             	mov    %eax,-0x30(%ebp)
    3331:	89 55 cc             	mov    %edx,-0x34(%ebp)
    3334:	e8 e7 c8 01 00       	call   1fc20 <malloc>
    3339:	83 c4 10             	add    $0x10,%esp
    333c:	85 c0                	test   %eax,%eax
    333e:	0f 84 1a 01 00 00    	je     345e <block_init+0x1be>
    3344:	8b 4d c8             	mov    -0x38(%ebp),%ecx
    3347:	8b 55 cc             	mov    -0x34(%ebp),%edx
    334a:	89 48 10             	mov    %ecx,0x10(%eax)
    334d:	89 50 28             	mov    %edx,0x28(%eax)
    3350:	83 ec 0c             	sub    $0xc,%esp
    3353:	8b 55 d0             	mov    -0x30(%ebp),%edx
    3356:	8b 4d d4             	mov    -0x2c(%ebp),%ecx
    3359:	89 50 20             	mov    %edx,0x20(%eax)
    335c:	c7 00 00 00 00 00    	movl   $0x0,(%eax)
    3362:	c7 40 04 00 00 00 00 	movl   $0x0,0x4(%eax)
    3369:	89 58 08             	mov    %ebx,0x8(%eax)
    336c:	89 78 0c             	mov    %edi,0xc(%eax)
    336f:	c7 40 14 00 00 00 00 	movl   $0x0,0x14(%eax)
    3376:	c7 40 18 00 00 00 00 	movl   $0x0,0x18(%eax)
    337d:	c7 40 1c 00 00 00 00 	movl   $0x0,0x1c(%eax)
    3384:	89 48 24             	mov    %ecx,0x24(%eax)
    3387:	c7 40 2c 00 00 00 00 	movl   $0x0,0x2c(%eax)
    338e:	89 45 d0             	mov    %eax,-0x30(%ebp)
    3391:	68 24 3f 03 00       	push   $0x33f24
    3396:	e8 a5 22 01 00       	call   15640 <fibril_mutex_lock>
    339b:	8b 15 20 3f 03 00    	mov    0x33f20,%edx
    33a1:	83 c4 10             	add    $0x10,%esp
    33a4:	8b 45 d0             	mov    -0x30(%ebp),%eax
    33a7:	81 fa 1c 3f 03 00    	cmp    $0x33f1c,%edx
    33ad:	75 14                	jne    33c3 <block_init+0x123>
    33af:	eb 77                	jmp    3428 <block_init+0x188>
    33b1:	8d b4 26 00 00 00 00 	lea    0x0(%esi,%eiz,1),%esi
    33b8:	8b 52 04             	mov    0x4(%edx),%edx
    33bb:	81 fa 1c 3f 03 00    	cmp    $0x33f1c,%edx
    33c1:	74 65                	je     3428 <block_init+0x188>
    33c3:	3b 5a 08             	cmp    0x8(%edx),%ebx
    33c6:	75 f0                	jne    33b8 <block_init+0x118>
    33c8:	83 ec 0c             	sub    $0xc,%esp
    33cb:	89 45 d0             	mov    %eax,-0x30(%ebp)
    33ce:	be f7 ff ff ff       	mov    $0xfffffff7,%esi
    33d3:	68 24 3f 03 00       	push   $0x33f24
    33d8:	e8 e3 23 01 00       	call   157c0 <fibril_mutex_unlock>
    33dd:	8b 45 d0             	mov    -0x30(%ebp),%eax
    33e0:	89 04 24             	mov    %eax,(%esp)
    33e3:	e8 e8 c9 01 00       	call   1fdd0 <free>
    33e8:	83 c4 10             	add    $0x10,%esp
    33eb:	83 ec 0c             	sub    $0xc,%esp
    33ee:	8b 45 d8             	mov    -0x28(%ebp),%eax
    33f1:	50                   	push   %eax
    33f2:	e8 19 a9 00 00       	call   dd10 <bd_close>
    33f7:	89 3c 24             	mov    %edi,(%esp)
    33fa:	e8 c1 15 02 00       	call   249c0 <async_hangup>
    33ff:	83 c4 10             	add    $0x10,%esp
    3402:	8d 65 f4             	lea    -0xc(%ebp),%esp
    3405:	89 f0                	mov    %esi,%eax
    3407:	5b                   	pop    %ebx
    3408:	5e                   	pop    %esi
    3409:	5f                   	pop    %edi
    340a:	5d                   	pop    %ebp
    340b:	c3                   	ret    
    340c:	8d 74 26 00          	lea    0x0(%esi,%eiz,1),%esi
    3410:	83 ec 0c             	sub    $0xc,%esp
    3413:	57                   	push   %edi
    3414:	e8 a7 15 02 00       	call   249c0 <async_hangup>
    3419:	83 c4 10             	add    $0x10,%esp
    341c:	8d 65 f4             	lea    -0xc(%ebp),%esp
    341f:	89 f0                	mov    %esi,%eax
    3421:	5b                   	pop    %ebx
    3422:	5e                   	pop    %esi
    3423:	5f                   	pop    %edi
    3424:	5d                   	pop    %ebp
    3425:	c3                   	ret    
    3426:	66 90                	xchg   %ax,%ax
    3428:	8b 15 1c 3f 03 00    	mov    0x33f1c,%edx
    342e:	83 ec 0c             	sub    $0xc,%esp
    3431:	c7 40 04 1c 3f 03 00 	movl   $0x33f1c,0x4(%eax)
    3438:	89 10                	mov    %edx,(%eax)
    343a:	89 42 04             	mov    %eax,0x4(%edx)
    343d:	68 24 3f 03 00       	push   $0x33f24
    3442:	a3 1c 3f 03 00       	mov    %eax,0x33f1c
    3447:	e8 74 23 01 00       	call   157c0 <fibril_mutex_unlock>
    344c:	83 c4 10             	add    $0x10,%esp
    344f:	8d 65 f4             	lea    -0xc(%ebp),%esp
    3452:	89 f0                	mov    %esi,%eax
    3454:	5b                   	pop    %ebx
    3455:	5e                   	pop    %esi
    3456:	5f                   	pop    %edi
    3457:	5d                   	pop    %ebp
    3458:	c3                   	ret    
    3459:	83 ce ff             	or     $0xffffffff,%esi
    345c:	eb a4                	jmp    3402 <block_init+0x162>
    345e:	be fe ff ff ff       	mov    $0xfffffffe,%esi
    3463:	eb 86                	jmp    33eb <block_init+0x14b>
    3465:	8d 74 26 00          	lea    0x0(%esi,%eiz,1),%esi
    3469:	8d bc 27 00 00 00 00 	lea    0x0(%edi,%eiz,1),%edi

00003470 <block_bb_read>:
    3470:	55                   	push   %ebp
    3471:	89 e5                	mov    %esp,%ebp
    3473:	57                   	push   %edi
    3474:	56                   	push   %esi
    3475:	53                   	push   %ebx
    3476:	83 ec 28             	sub    $0x28,%esp
    3479:	8b 45 08             	mov    0x8(%ebp),%eax
    347c:	8b 75 0c             	mov    0xc(%ebp),%esi
    347f:	68 24 3f 03 00       	push   $0x33f24
    3484:	89 45 e4             	mov    %eax,-0x1c(%ebp)
    3487:	8b 7d 10             	mov    0x10(%ebp),%edi
    348a:	e8 b1 21 01 00       	call   15640 <fibril_mutex_lock>
    348f:	8b 1d 20 3f 03 00    	mov    0x33f20,%ebx
    3495:	83 c4 10             	add    $0x10,%esp
    3498:	81 fb 1c 3f 03 00    	cmp    $0x33f1c,%ebx
    349e:	74 20                	je     34c0 <block_bb_read+0x50>
    34a0:	8b 45 e4             	mov    -0x1c(%ebp),%eax
    34a3:	3b 43 08             	cmp    0x8(%ebx),%eax
    34a6:	75 0d                	jne    34b5 <block_bb_read+0x45>
    34a8:	eb 36                	jmp    34e0 <block_bb_read+0x70>
    34aa:	8d b6 00 00 00 00    	lea    0x0(%esi),%esi
    34b0:	3b 43 08             	cmp    0x8(%ebx),%eax
    34b3:	74 2b                	je     34e0 <block_bb_read+0x70>
    34b5:	8b 5b 04             	mov    0x4(%ebx),%ebx
    34b8:	81 fb 1c 3f 03 00    	cmp    $0x33f1c,%ebx
    34be:	75 f0                	jne    34b0 <block_bb_read+0x40>
    34c0:	83 ec 0c             	sub    $0xc,%esp
    34c3:	68 24 3f 03 00       	push   $0x33f24
    34c8:	e8 f3 22 01 00       	call   157c0 <fibril_mutex_unlock>
    34cd:	83 c4 10             	add    $0x10,%esp
    34d0:	83 ca ff             	or     $0xffffffff,%edx
    34d3:	8d 65 f4             	lea    -0xc(%ebp),%esp
    34d6:	89 d0                	mov    %edx,%eax
    34d8:	5b                   	pop    %ebx
    34d9:	5e                   	pop    %esi
    34da:	5f                   	pop    %edi
    34db:	5d                   	pop    %ebp
    34dc:	c3                   	ret    
    34dd:	8d 76 00             	lea    0x0(%esi),%esi
    34e0:	83 ec 0c             	sub    $0xc,%esp
    34e3:	68 24 3f 03 00       	push   $0x33f24
    34e8:	e8 d3 22 01 00       	call   157c0 <fibril_mutex_unlock>
    34ed:	8b 43 14             	mov    0x14(%ebx),%eax
    34f0:	83 c4 10             	add    $0x10,%esp
    34f3:	85 c0                	test   %eax,%eax
    34f5:	0f 85 9d 00 00 00    	jne    3598 <block_bb_read+0x128>
    34fb:	83 ec 0c             	sub    $0xc,%esp
    34fe:	8b 43 28             	mov    0x28(%ebx),%eax
    3501:	50                   	push   %eax
    3502:	e8 19 c7 01 00       	call   1fc20 <malloc>
    3507:	83 c4 10             	add    $0x10,%esp
    350a:	89 c1                	mov    %eax,%ecx
    350c:	85 c0                	test   %eax,%eax
    350e:	0f 84 93 00 00 00    	je     35a7 <block_bb_read+0x137>
    3514:	50                   	push   %eax
    3515:	50                   	push   %eax
    3516:	8b 43 28             	mov    0x28(%ebx),%eax
    3519:	89 4d e4             	mov    %ecx,-0x1c(%ebp)
    351c:	50                   	push   %eax
    351d:	51                   	push   %ecx
    351e:	8b 43 10             	mov    0x10(%ebx),%eax
    3521:	6a 01                	push   $0x1
    3523:	6a 00                	push   $0x0
    3525:	6a 00                	push   $0x0
    3527:	50                   	push   %eax
    3528:	e8 f3 a7 00 00       	call   dd20 <bd_read_blocks>
    352d:	83 c4 20             	add    $0x20,%esp
    3530:	89 c2                	mov    %eax,%edx
    3532:	85 c0                	test   %eax,%eax
    3534:	8b 4d e4             	mov    -0x1c(%ebp),%ecx
    3537:	75 17                	jne    3550 <block_bb_read+0xe0>
    3539:	89 4b 14             	mov    %ecx,0x14(%ebx)
    353c:	89 73 18             	mov    %esi,0x18(%ebx)
    353f:	89 7b 1c             	mov    %edi,0x1c(%ebx)
    3542:	8d 65 f4             	lea    -0xc(%ebp),%esp
    3545:	89 d0                	mov    %edx,%eax
    3547:	5b                   	pop    %ebx
    3548:	5e                   	pop    %esi
    3549:	5f                   	pop    %edi
    354a:	5d                   	pop    %ebp
    354b:	c3                   	ret    
    354c:	8d 74 26 00          	lea    0x0(%esi,%eiz,1),%esi
    3550:	50                   	push   %eax
    3551:	50                   	push   %eax
    3552:	89 4d e0             	mov    %ecx,-0x20(%ebp)
    3555:	8b 4b 08             	mov    0x8(%ebx),%ecx
    3558:	51                   	push   %ecx
    3559:	6a 00                	push   $0x0
    355b:	6a 00                	push   $0x0
    355d:	6a 01                	push   $0x1
    355f:	52                   	push   %edx
    3560:	68 30 02 03 00       	push   $0x30230
    3565:	89 55 e4             	mov    %edx,-0x1c(%ebp)
    3568:	e8 93 78 01 00       	call   1ae00 <printf>
    356d:	83 c4 20             	add    $0x20,%esp
    3570:	e8 4b 87 02 00       	call   2bcc0 <stacktrace_print>
    3575:	83 ec 0c             	sub    $0xc,%esp
    3578:	8b 4d e0             	mov    -0x20(%ebp),%ecx
    357b:	51                   	push   %ecx
    357c:	e8 4f c8 01 00       	call   1fdd0 <free>
    3581:	8b 55 e4             	mov    -0x1c(%ebp),%edx
    3584:	83 c4 10             	add    $0x10,%esp
    3587:	8d 65 f4             	lea    -0xc(%ebp),%esp
    358a:	89 d0                	mov    %edx,%eax
    358c:	5b                   	pop    %ebx
    358d:	5e                   	pop    %esi
    358e:	5f                   	pop    %edi
    358f:	5d                   	pop    %ebp
    3590:	c3                   	ret    
    3591:	8d b4 26 00 00 00 00 	lea    0x0(%esi,%eiz,1),%esi
    3598:	8d 65 f4             	lea    -0xc(%ebp),%esp
    359b:	ba f7 ff ff ff       	mov    $0xfffffff7,%edx
    35a0:	89 d0                	mov    %edx,%eax
    35a2:	5b                   	pop    %ebx
    35a3:	5e                   	pop    %esi
    35a4:	5f                   	pop    %edi
    35a5:	5d                   	pop    %ebp
    35a6:	c3                   	ret    
    35a7:	ba fe ff ff ff       	mov    $0xfffffffe,%edx
    35ac:	e9 22 ff ff ff       	jmp    34d3 <block_bb_read+0x63>
    35b1:	eb 0d                	jmp    35c0 <block_bb_get>
    35b3:	90                   	nop
    35b4:	90                   	nop
    35b5:	90                   	nop
    35b6:	90                   	nop
    35b7:	90                   	nop
    35b8:	90                   	nop
    35b9:	90                   	nop
    35ba:	90                   	nop
    35bb:	90                   	nop
    35bc:	90                   	nop
    35bd:	90                   	nop
    35be:	90                   	nop
    35bf:	90                   	nop

000035c0 <block_bb_get>:
    35c0:	55                   	push   %ebp
    35c1:	89 e5                	mov    %esp,%ebp
    35c3:	56                   	push   %esi
    35c4:	53                   	push   %ebx
    35c5:	83 ec 0c             	sub    $0xc,%esp
    35c8:	8b 75 08             	mov    0x8(%ebp),%esi
    35cb:	68 24 3f 03 00       	push   $0x33f24
    35d0:	e8 6b 20 01 00       	call   15640 <fibril_mutex_lock>
    35d5:	8b 1d 20 3f 03 00    	mov    0x33f20,%ebx
    35db:	83 c4 10             	add    $0x10,%esp
    35de:	81 fb 1c 3f 03 00    	cmp    $0x33f1c,%ebx
    35e4:	75 0d                	jne    35f3 <block_bb_get+0x33>
    35e6:	eb 28                	jmp    3610 <block_bb_get+0x50>
    35e8:	8b 5b 04             	mov    0x4(%ebx),%ebx
    35eb:	81 fb 1c 3f 03 00    	cmp    $0x33f1c,%ebx
    35f1:	74 1d                	je     3610 <block_bb_get+0x50>
    35f3:	3b 73 08             	cmp    0x8(%ebx),%esi
    35f6:	75 f0                	jne    35e8 <block_bb_get+0x28>
    35f8:	83 ec 0c             	sub    $0xc,%esp
    35fb:	68 24 3f 03 00       	push   $0x33f24
    3600:	e8 bb 21 01 00       	call   157c0 <fibril_mutex_unlock>
    3605:	8b 43 14             	mov    0x14(%ebx),%eax
    3608:	8d 65 f8             	lea    -0x8(%ebp),%esp
    360b:	5b                   	pop    %ebx
    360c:	5e                   	pop    %esi
    360d:	5d                   	pop    %ebp
    360e:	c3                   	ret    
    360f:	90                   	nop
    3610:	83 ec 0c             	sub    $0xc,%esp
    3613:	68 24 3f 03 00       	push   $0x33f24
    3618:	e8 a3 21 01 00       	call   157c0 <fibril_mutex_unlock>
    361d:	83 c4 0c             	add    $0xc,%esp
    3620:	68 ee 00 00 00       	push   $0xee
    3625:	68 de 01 03 00       	push   $0x301de
    362a:	68 e6 01 03 00       	push   $0x301e6
    362f:	e8 ac 8a 02 00       	call   2c0e0 <assert_abort>
    3634:	8d b6 00 00 00 00    	lea    0x0(%esi),%esi
    363a:	8d bf 00 00 00 00    	lea    0x0(%edi),%edi

00003640 <block_cache_init>:
    3640:	55                   	push   %ebp
    3641:	89 e5                	mov    %esp,%ebp
    3643:	56                   	push   %esi
    3644:	53                   	push   %ebx
    3645:	83 ec 0c             	sub    $0xc,%esp
    3648:	8b 75 08             	mov    0x8(%ebp),%esi
    364b:	68 24 3f 03 00       	push   $0x33f24
    3650:	e8 eb 1f 01 00       	call   15640 <fibril_mutex_lock>
    3655:	8b 1d 20 3f 03 00    	mov    0x33f20,%ebx
    365b:	83 c4 10             	add    $0x10,%esp
    365e:	81 fb 1c 3f 03 00    	cmp    $0x33f1c,%ebx
    3664:	75 19                	jne    367f <block_cache_init+0x3f>
    3666:	e9 ad 00 00 00       	jmp    3718 <block_cache_init+0xd8>
    366b:	90                   	nop
    366c:	8d 74 26 00          	lea    0x0(%esi,%eiz,1),%esi
    3670:	8b 5b 04             	mov    0x4(%ebx),%ebx
    3673:	81 fb 1c 3f 03 00    	cmp    $0x33f1c,%ebx
    3679:	0f 84 99 00 00 00    	je     3718 <block_cache_init+0xd8>
    367f:	3b 73 08             	cmp    0x8(%ebx),%esi
    3682:	75 ec                	jne    3670 <block_cache_init+0x30>
    3684:	83 ec 0c             	sub    $0xc,%esp
    3687:	68 24 3f 03 00       	push   $0x33f24
    368c:	e8 2f 21 01 00       	call   157c0 <fibril_mutex_unlock>
    3691:	8b 43 2c             	mov    0x2c(%ebx),%eax
    3694:	83 c4 10             	add    $0x10,%esp
    3697:	85 c0                	test   %eax,%eax
    3699:	0f 85 99 00 00 00    	jne    3738 <block_cache_init+0xf8>
    369f:	83 ec 0c             	sub    $0xc,%esp
    36a2:	6a 48                	push   $0x48
    36a4:	e8 77 c5 01 00       	call   1fc20 <malloc>
    36a9:	83 c4 10             	add    $0x10,%esp
    36ac:	89 c6                	mov    %eax,%esi
    36ae:	85 c0                	test   %eax,%eax
    36b0:	0f 84 b4 00 00 00    	je     376a <block_cache_init+0x12a>
    36b6:	83 ec 0c             	sub    $0xc,%esp
    36b9:	50                   	push   %eax
    36ba:	e8 61 1f 01 00       	call   15620 <fibril_mutex_initialize>
    36bf:	8d 46 3c             	lea    0x3c(%esi),%eax
    36c2:	31 d2                	xor    %edx,%edx
    36c4:	89 46 3c             	mov    %eax,0x3c(%esi)
    36c7:	89 46 40             	mov    %eax,0x40(%esi)
    36ca:	8b 45 0c             	mov    0xc(%ebp),%eax
    36cd:	83 c4 10             	add    $0x10,%esp
    36d0:	89 46 10             	mov    %eax,0x10(%esi)
    36d3:	8b 45 10             	mov    0x10(%ebp),%eax
    36d6:	89 46 18             	mov    %eax,0x18(%esi)
    36d9:	8b 45 14             	mov    0x14(%ebp),%eax
    36dc:	89 46 44             	mov    %eax,0x44(%esi)
    36df:	8b 45 0c             	mov    0xc(%ebp),%eax
    36e2:	f7 73 28             	divl   0x28(%ebx)
    36e5:	c7 46 1c 00 00 00 00 	movl   $0x0,0x1c(%esi)
    36ec:	85 d2                	test   %edx,%edx
    36ee:	75 54                	jne    3744 <block_cache_init+0x104>
    36f0:	89 46 14             	mov    %eax,0x14(%esi)
    36f3:	8d 46 20             	lea    0x20(%esi),%eax
    36f6:	68 08 3f 03 00       	push   $0x33f08
    36fb:	6a 00                	push   $0x0
    36fd:	6a 00                	push   $0x0
    36ff:	50                   	push   %eax
    3700:	e8 9b 36 02 00       	call   26da0 <hash_table_create>
    3705:	83 c4 10             	add    $0x10,%esp
    3708:	84 c0                	test   %al,%al
    370a:	74 4b                	je     3757 <block_cache_init+0x117>
    370c:	89 73 2c             	mov    %esi,0x2c(%ebx)
    370f:	31 c0                	xor    %eax,%eax
    3711:	8d 65 f8             	lea    -0x8(%ebp),%esp
    3714:	5b                   	pop    %ebx
    3715:	5e                   	pop    %esi
    3716:	5d                   	pop    %ebp
    3717:	c3                   	ret    
    3718:	83 ec 0c             	sub    $0xc,%esp
    371b:	68 24 3f 03 00       	push   $0x33f24
    3720:	e8 9b 20 01 00       	call   157c0 <fibril_mutex_unlock>
    3725:	83 c4 10             	add    $0x10,%esp
    3728:	8d 65 f8             	lea    -0x8(%ebp),%esp
    372b:	83 c8 ff             	or     $0xffffffff,%eax
    372e:	5b                   	pop    %ebx
    372f:	5e                   	pop    %esi
    3730:	5d                   	pop    %ebp
    3731:	c3                   	ret    
    3732:	8d b6 00 00 00 00    	lea    0x0(%esi),%esi
    3738:	8d 65 f8             	lea    -0x8(%ebp),%esp
    373b:	b8 f7 ff ff ff       	mov    $0xfffffff7,%eax
    3740:	5b                   	pop    %ebx
    3741:	5e                   	pop    %esi
    3742:	5d                   	pop    %ebp
    3743:	c3                   	ret    
    3744:	83 ec 0c             	sub    $0xc,%esp
    3747:	56                   	push   %esi
    3748:	e8 83 c6 01 00       	call   1fdd0 <free>
    374d:	83 c4 10             	add    $0x10,%esp
    3750:	b8 f5 ff ff ff       	mov    $0xfffffff5,%eax
    3755:	eb ba                	jmp    3711 <block_cache_init+0xd1>
    3757:	83 ec 0c             	sub    $0xc,%esp
    375a:	56                   	push   %esi
    375b:	e8 70 c6 01 00       	call   1fdd0 <free>
    3760:	83 c4 10             	add    $0x10,%esp
    3763:	b8 fe ff ff ff       	mov    $0xfffffffe,%eax
    3768:	eb a7                	jmp    3711 <block_cache_init+0xd1>
    376a:	b8 fe ff ff ff       	mov    $0xfffffffe,%eax
    376f:	eb a0                	jmp    3711 <block_cache_init+0xd1>
    3771:	eb 0d                	jmp    3780 <block_cache_fini>
    3773:	90                   	nop
    3774:	90                   	nop
    3775:	90                   	nop
    3776:	90                   	nop
    3777:	90                   	nop
    3778:	90                   	nop
    3779:	90                   	nop
    377a:	90                   	nop
    377b:	90                   	nop
    377c:	90                   	nop
    377d:	90                   	nop
    377e:	90                   	nop
    377f:	90                   	nop

00003780 <block_cache_fini>:
    3780:	55                   	push   %ebp
    3781:	89 e5                	mov    %esp,%ebp
    3783:	57                   	push   %edi
    3784:	56                   	push   %esi
    3785:	53                   	push   %ebx
    3786:	83 ec 38             	sub    $0x38,%esp
    3789:	8b 5d 08             	mov    0x8(%ebp),%ebx
    378c:	68 24 3f 03 00       	push   $0x33f24
    3791:	e8 aa 1e 01 00       	call   15640 <fibril_mutex_lock>
    3796:	8b 3d 20 3f 03 00    	mov    0x33f20,%edi
    379c:	83 c4 10             	add    $0x10,%esp
    379f:	81 ff 1c 3f 03 00    	cmp    $0x33f1c,%edi
    37a5:	75 18                	jne    37bf <block_cache_fini+0x3f>
    37a7:	e9 2c 01 00 00       	jmp    38d8 <block_cache_fini+0x158>
    37ac:	8d 74 26 00          	lea    0x0(%esi,%eiz,1),%esi
    37b0:	8b 7f 04             	mov    0x4(%edi),%edi
    37b3:	81 ff 1c 3f 03 00    	cmp    $0x33f1c,%edi
    37b9:	0f 84 19 01 00 00    	je     38d8 <block_cache_fini+0x158>
    37bf:	3b 5f 08             	cmp    0x8(%edi),%ebx
    37c2:	75 ec                	jne    37b0 <block_cache_fini+0x30>
    37c4:	83 ec 0c             	sub    $0xc,%esp
    37c7:	68 24 3f 03 00       	push   $0x33f24
    37cc:	e8 ef 1f 01 00       	call   157c0 <fibril_mutex_unlock>
    37d1:	8b 47 2c             	mov    0x2c(%edi),%eax
    37d4:	83 c4 10             	add    $0x10,%esp
    37d7:	89 45 e0             	mov    %eax,-0x20(%ebp)
    37da:	85 c0                	test   %eax,%eax
    37dc:	0f 84 42 01 00 00    	je     3924 <block_cache_fini+0x1a4>
    37e2:	8b 58 40             	mov    0x40(%eax),%ebx
    37e5:	8d 70 3c             	lea    0x3c(%eax),%esi
    37e8:	83 c0 20             	add    $0x20,%eax
    37eb:	89 75 dc             	mov    %esi,-0x24(%ebp)
    37ee:	89 45 d8             	mov    %eax,-0x28(%ebp)
    37f1:	39 de                	cmp    %ebx,%esi
    37f3:	0f 84 2f 01 00 00    	je     3928 <block_cache_fini+0x1a8>
    37f9:	89 da                	mov    %ebx,%edx
    37fb:	89 7d d0             	mov    %edi,-0x30(%ebp)
    37fe:	eb 35                	jmp    3835 <block_cache_fini+0xb5>
    3800:	8b 55 d8             	mov    -0x28(%ebp),%edx
    3803:	8d 43 50             	lea    0x50(%ebx),%eax
    3806:	89 d6                	mov    %edx,%esi
    3808:	51                   	push   %ecx
    3809:	51                   	push   %ecx
    380a:	50                   	push   %eax
    380b:	52                   	push   %edx
    380c:	e8 9f 3d 02 00       	call   275b0 <hash_table_remove_item>
    3811:	8b 43 58             	mov    0x58(%ebx),%eax
    3814:	5f                   	pop    %edi
    3815:	50                   	push   %eax
    3816:	e8 b5 c5 01 00       	call   1fdd0 <free>
    381b:	89 1c 24             	mov    %ebx,(%esp)
    381e:	e8 ad c5 01 00       	call   1fdd0 <free>
    3823:	8b 45 e0             	mov    -0x20(%ebp),%eax
    3826:	83 c4 10             	add    $0x10,%esp
    3829:	8b 50 40             	mov    0x40(%eax),%edx
    382c:	3b 55 dc             	cmp    -0x24(%ebp),%edx
    382f:	0f 84 c3 00 00 00    	je     38f8 <block_cache_fini+0x178>
    3835:	8d 5a b8             	lea    -0x48(%edx),%ebx
    3838:	8b 4b 48             	mov    0x48(%ebx),%ecx
    383b:	85 c9                	test   %ecx,%ecx
    383d:	74 0f                	je     384e <block_cache_fini+0xce>
    383f:	8b 43 4c             	mov    0x4c(%ebx),%eax
    3842:	85 c0                	test   %eax,%eax
    3844:	74 08                	je     384e <block_cache_fini+0xce>
    3846:	89 08                	mov    %ecx,(%eax)
    3848:	8b 4b 48             	mov    0x48(%ebx),%ecx
    384b:	89 41 04             	mov    %eax,0x4(%ecx)
    384e:	c7 43 48 00 00 00 00 	movl   $0x0,0x48(%ebx)
    3855:	c7 43 4c 00 00 00 00 	movl   $0x0,0x4c(%ebx)
    385c:	80 7b 14 00          	cmpb   $0x0,0x14(%ebx)
    3860:	74 9e                	je     3800 <block_cache_fini+0x80>
    3862:	8b 45 e0             	mov    -0x20(%ebp),%eax
    3865:	8b 73 38             	mov    0x38(%ebx),%esi
    3868:	8b 7b 3c             	mov    0x3c(%ebx),%edi
    386b:	8b 48 14             	mov    0x14(%eax),%ecx
    386e:	50                   	push   %eax
    386f:	50                   	push   %eax
    3870:	89 4d d4             	mov    %ecx,-0x2c(%ebp)
    3873:	8b 53 40             	mov    0x40(%ebx),%edx
    3876:	8b 43 58             	mov    0x58(%ebx),%eax
    3879:	52                   	push   %edx
    387a:	50                   	push   %eax
    387b:	8b 45 d0             	mov    -0x30(%ebp),%eax
    387e:	51                   	push   %ecx
    387f:	57                   	push   %edi
    3880:	56                   	push   %esi
    3881:	8b 40 10             	mov    0x10(%eax),%eax
    3884:	50                   	push   %eax
    3885:	e8 d6 a5 00 00       	call   de60 <bd_write_blocks>
    388a:	83 c4 20             	add    $0x20,%esp
    388d:	8b 4d d4             	mov    -0x2c(%ebp),%ecx
    3890:	85 c0                	test   %eax,%eax
    3892:	0f 84 68 ff ff ff    	je     3800 <block_cache_fini+0x80>
    3898:	89 7d e4             	mov    %edi,-0x1c(%ebp)
    389b:	8b 7d d0             	mov    -0x30(%ebp),%edi
    389e:	89 75 e0             	mov    %esi,-0x20(%ebp)
    38a1:	89 ce                	mov    %ecx,%esi
    38a3:	89 c1                	mov    %eax,%ecx
    38a5:	50                   	push   %eax
    38a6:	50                   	push   %eax
    38a7:	8b 47 08             	mov    0x8(%edi),%eax
    38aa:	50                   	push   %eax
    38ab:	8b 45 e4             	mov    -0x1c(%ebp),%eax
    38ae:	50                   	push   %eax
    38af:	8b 45 e0             	mov    -0x20(%ebp),%eax
    38b2:	50                   	push   %eax
    38b3:	56                   	push   %esi
    38b4:	51                   	push   %ecx
    38b5:	68 7c 02 03 00       	push   $0x3027c
    38ba:	89 4d e0             	mov    %ecx,-0x20(%ebp)
    38bd:	e8 3e 75 01 00       	call   1ae00 <printf>
    38c2:	83 c4 20             	add    $0x20,%esp
    38c5:	e8 f6 83 02 00       	call   2bcc0 <stacktrace_print>
    38ca:	8b 4d e0             	mov    -0x20(%ebp),%ecx
    38cd:	8d 65 f4             	lea    -0xc(%ebp),%esp
    38d0:	89 c8                	mov    %ecx,%eax
    38d2:	5b                   	pop    %ebx
    38d3:	5e                   	pop    %esi
    38d4:	5f                   	pop    %edi
    38d5:	5d                   	pop    %ebp
    38d6:	c3                   	ret    
    38d7:	90                   	nop
    38d8:	83 ec 0c             	sub    $0xc,%esp
    38db:	68 24 3f 03 00       	push   $0x33f24
    38e0:	e8 db 1e 01 00       	call   157c0 <fibril_mutex_unlock>
    38e5:	83 c4 10             	add    $0x10,%esp
    38e8:	8d 65 f4             	lea    -0xc(%ebp),%esp
    38eb:	83 c9 ff             	or     $0xffffffff,%ecx
    38ee:	5b                   	pop    %ebx
    38ef:	89 c8                	mov    %ecx,%eax
    38f1:	5e                   	pop    %esi
    38f2:	5f                   	pop    %edi
    38f3:	5d                   	pop    %ebp
    38f4:	c3                   	ret    
    38f5:	8d 76 00             	lea    0x0(%esi),%esi
    38f8:	8b 7d d0             	mov    -0x30(%ebp),%edi
    38fb:	83 ec 0c             	sub    $0xc,%esp
    38fe:	56                   	push   %esi
    38ff:	e8 bc 35 02 00       	call   26ec0 <hash_table_destroy>
    3904:	c7 47 2c 00 00 00 00 	movl   $0x0,0x2c(%edi)
    390b:	8b 55 e0             	mov    -0x20(%ebp),%edx
    390e:	58                   	pop    %eax
    390f:	52                   	push   %edx
    3910:	e8 bb c4 01 00       	call   1fdd0 <free>
    3915:	83 c4 10             	add    $0x10,%esp
    3918:	8d 65 f4             	lea    -0xc(%ebp),%esp
    391b:	31 c9                	xor    %ecx,%ecx
    391d:	89 c8                	mov    %ecx,%eax
    391f:	5b                   	pop    %ebx
    3920:	5e                   	pop    %esi
    3921:	5f                   	pop    %edi
    3922:	5d                   	pop    %ebp
    3923:	c3                   	ret    
    3924:	31 c9                	xor    %ecx,%ecx
    3926:	eb a5                	jmp    38cd <block_cache_fini+0x14d>
    3928:	8b 45 e0             	mov    -0x20(%ebp),%eax
    392b:	8d 70 20             	lea    0x20(%eax),%esi
    392e:	eb cb                	jmp    38fb <block_cache_fini+0x17b>

00003930 <block_fini>:
    3930:	55                   	push   %ebp
    3931:	89 e5                	mov    %esp,%ebp
    3933:	56                   	push   %esi
    3934:	53                   	push   %ebx
    3935:	83 ec 0c             	sub    $0xc,%esp
    3938:	8b 75 08             	mov    0x8(%ebp),%esi
    393b:	68 24 3f 03 00       	push   $0x33f24
    3940:	e8 fb 1c 01 00       	call   15640 <fibril_mutex_lock>
    3945:	8b 1d 20 3f 03 00    	mov    0x33f20,%ebx
    394b:	83 c4 10             	add    $0x10,%esp
    394e:	81 fb 1c 3f 03 00    	cmp    $0x33f1c,%ebx
    3954:	75 19                	jne    396f <block_fini+0x3f>
    3956:	e9 c5 00 00 00       	jmp    3a20 <block_fini+0xf0>
    395b:	90                   	nop
    395c:	8d 74 26 00          	lea    0x0(%esi,%eiz,1),%esi
    3960:	8b 5b 04             	mov    0x4(%ebx),%ebx
    3963:	81 fb 1c 3f 03 00    	cmp    $0x33f1c,%ebx
    3969:	0f 84 b1 00 00 00    	je     3a20 <block_fini+0xf0>
    396f:	3b 73 08             	cmp    0x8(%ebx),%esi
    3972:	75 ec                	jne    3960 <block_fini+0x30>
    3974:	83 ec 0c             	sub    $0xc,%esp
    3977:	68 24 3f 03 00       	push   $0x33f24
    397c:	e8 3f 1e 01 00       	call   157c0 <fibril_mutex_unlock>
    3981:	8b 43 2c             	mov    0x2c(%ebx),%eax
    3984:	83 c4 10             	add    $0x10,%esp
    3987:	85 c0                	test   %eax,%eax
    3989:	74 0c                	je     3997 <block_fini+0x67>
    398b:	83 ec 0c             	sub    $0xc,%esp
    398e:	56                   	push   %esi
    398f:	e8 ec fd ff ff       	call   3780 <block_cache_fini>
    3994:	83 c4 10             	add    $0x10,%esp
    3997:	6a 00                	push   $0x0
    3999:	6a 00                	push   $0x0
    399b:	6a 00                	push   $0x0
    399d:	8b 73 10             	mov    0x10(%ebx),%esi
    39a0:	56                   	push   %esi
    39a1:	e8 5a a5 00 00       	call   df00 <bd_sync_cache>
    39a6:	c7 04 24 24 3f 03 00 	movl   $0x33f24,(%esp)
    39ad:	e8 8e 1c 01 00       	call   15640 <fibril_mutex_lock>
    39b2:	8b 13                	mov    (%ebx),%edx
    39b4:	83 c4 10             	add    $0x10,%esp
    39b7:	85 d2                	test   %edx,%edx
    39b9:	74 0e                	je     39c9 <block_fini+0x99>
    39bb:	8b 43 04             	mov    0x4(%ebx),%eax
    39be:	85 c0                	test   %eax,%eax
    39c0:	74 07                	je     39c9 <block_fini+0x99>
    39c2:	89 10                	mov    %edx,(%eax)
    39c4:	8b 13                	mov    (%ebx),%edx
    39c6:	89 42 04             	mov    %eax,0x4(%edx)
    39c9:	83 ec 0c             	sub    $0xc,%esp
    39cc:	c7 03 00 00 00 00    	movl   $0x0,(%ebx)
    39d2:	c7 43 04 00 00 00 00 	movl   $0x0,0x4(%ebx)
    39d9:	68 24 3f 03 00       	push   $0x33f24
    39de:	e8 dd 1d 01 00       	call   157c0 <fibril_mutex_unlock>
    39e3:	8b 43 14             	mov    0x14(%ebx),%eax
    39e6:	83 c4 10             	add    $0x10,%esp
    39e9:	85 c0                	test   %eax,%eax
    39eb:	74 0c                	je     39f9 <block_fini+0xc9>
    39ed:	83 ec 0c             	sub    $0xc,%esp
    39f0:	50                   	push   %eax
    39f1:	e8 da c3 01 00       	call   1fdd0 <free>
    39f6:	83 c4 10             	add    $0x10,%esp
    39f9:	83 ec 0c             	sub    $0xc,%esp
    39fc:	8b 43 10             	mov    0x10(%ebx),%eax
    39ff:	50                   	push   %eax
    3a00:	e8 0b a3 00 00       	call   dd10 <bd_close>
    3a05:	8b 4b 0c             	mov    0xc(%ebx),%ecx
    3a08:	5a                   	pop    %edx
    3a09:	51                   	push   %ecx
    3a0a:	e8 b1 0f 02 00       	call   249c0 <async_hangup>
    3a0f:	89 5d 08             	mov    %ebx,0x8(%ebp)
    3a12:	83 c4 10             	add    $0x10,%esp
    3a15:	8d 65 f8             	lea    -0x8(%ebp),%esp
    3a18:	5b                   	pop    %ebx
    3a19:	5e                   	pop    %esi
    3a1a:	5d                   	pop    %ebp
    3a1b:	e9 b0 c3 01 00       	jmp    1fdd0 <free>
    3a20:	83 ec 0c             	sub    $0xc,%esp
    3a23:	68 24 3f 03 00       	push   $0x33f24
    3a28:	e8 93 1d 01 00       	call   157c0 <fibril_mutex_unlock>
    3a2d:	83 c4 0c             	add    $0xc,%esp
    3a30:	68 bf 00 00 00       	push   $0xbf
    3a35:	68 de 01 03 00       	push   $0x301de
    3a3a:	68 e6 01 03 00       	push   $0x301e6
    3a3f:	e8 9c 86 02 00       	call   2c0e0 <assert_abort>
    3a44:	8d b6 00 00 00 00    	lea    0x0(%esi),%esi
    3a4a:	8d bf 00 00 00 00    	lea    0x0(%edi),%edi

00003a50 <block_put>:
    3a50:	55                   	push   %ebp
    3a51:	89 e5                	mov    %esp,%ebp
    3a53:	57                   	push   %edi
    3a54:	56                   	push   %esi
    3a55:	53                   	push   %ebx
    3a56:	83 ec 28             	sub    $0x28,%esp
    3a59:	8b 7d 08             	mov    0x8(%ebp),%edi
    3a5c:	8b 5f 2c             	mov    0x2c(%edi),%ebx
    3a5f:	68 24 3f 03 00       	push   $0x33f24
    3a64:	e8 d7 1b 01 00       	call   15640 <fibril_mutex_lock>
    3a69:	8b 35 20 3f 03 00    	mov    0x33f20,%esi
    3a6f:	83 c4 10             	add    $0x10,%esp
    3a72:	81 fe 1c 3f 03 00    	cmp    $0x33f1c,%esi
    3a78:	75 15                	jne    3a8f <block_put+0x3f>
    3a7a:	e9 c1 01 00 00       	jmp    3c40 <block_put+0x1f0>
    3a7f:	90                   	nop
    3a80:	8b 76 04             	mov    0x4(%esi),%esi
    3a83:	81 fe 1c 3f 03 00    	cmp    $0x33f1c,%esi
    3a89:	0f 84 b1 01 00 00    	je     3c40 <block_put+0x1f0>
    3a8f:	3b 5e 08             	cmp    0x8(%esi),%ebx
    3a92:	75 ec                	jne    3a80 <block_put+0x30>
    3a94:	83 ec 0c             	sub    $0xc,%esp
    3a97:	68 24 3f 03 00       	push   $0x33f24
    3a9c:	e8 1f 1d 01 00       	call   157c0 <fibril_mutex_unlock>
    3aa1:	8b 5e 2c             	mov    0x2c(%esi),%ebx
    3aa4:	83 c4 10             	add    $0x10,%esp
    3aa7:	85 db                	test   %ebx,%ebx
    3aa9:	0f 84 6b 02 00 00    	je     3d1a <block_put+0x2ca>
    3aaf:	8b 47 10             	mov    0x10(%edi),%eax
    3ab2:	85 c0                	test   %eax,%eax
    3ab4:	0f 84 75 02 00 00    	je     3d2f <block_put+0x2df>
    3aba:	c7 45 e4 00 00 00 00 	movl   $0x0,-0x1c(%ebp)
    3ac1:	89 75 e0             	mov    %esi,-0x20(%ebp)
    3ac4:	8d 74 26 00          	lea    0x0(%esi,%eiz,1),%esi
    3ac8:	83 ec 0c             	sub    $0xc,%esp
    3acb:	53                   	push   %ebx
    3acc:	e8 6f 1b 01 00       	call   15640 <fibril_mutex_lock>
    3ad1:	8b 43 44             	mov    0x44(%ebx),%eax
    3ad4:	8b 73 1c             	mov    0x1c(%ebx),%esi
    3ad7:	89 45 d8             	mov    %eax,-0x28(%ebp)
    3ada:	89 1c 24             	mov    %ebx,(%esp)
    3add:	e8 de 1c 01 00       	call   157c0 <fibril_mutex_unlock>
    3ae2:	89 3c 24             	mov    %edi,(%esp)
    3ae5:	e8 56 1b 01 00       	call   15640 <fibril_mutex_lock>
    3aea:	83 c4 10             	add    $0x10,%esp
    3aed:	80 7f 15 00          	cmpb   $0x0,0x15(%edi)
    3af1:	0f 85 39 01 00 00    	jne    3c30 <block_put+0x1e0>
    3af7:	80 7f 14 00          	cmpb   $0x0,0x14(%edi)
    3afb:	74 0a                	je     3b07 <block_put+0xb7>
    3afd:	83 7f 10 01          	cmpl   $0x1,0x10(%edi)
    3b01:	0f 84 b9 00 00 00    	je     3bc0 <block_put+0x170>
    3b07:	83 ec 0c             	sub    $0xc,%esp
    3b0a:	57                   	push   %edi
    3b0b:	e8 b0 1c 01 00       	call   157c0 <fibril_mutex_unlock>
    3b10:	89 1c 24             	mov    %ebx,(%esp)
    3b13:	e8 28 1b 01 00       	call   15640 <fibril_mutex_lock>
    3b18:	89 3c 24             	mov    %edi,(%esp)
    3b1b:	e8 20 1b 01 00       	call   15640 <fibril_mutex_lock>
    3b20:	8b 47 10             	mov    0x10(%edi),%eax
    3b23:	83 c4 10             	add    $0x10,%esp
    3b26:	48                   	dec    %eax
    3b27:	89 47 10             	mov    %eax,0x10(%edi)
    3b2a:	85 c0                	test   %eax,%eax
    3b2c:	0f 85 51 01 00 00    	jne    3c83 <block_put+0x233>
    3b32:	83 7b 1c 14          	cmpl   $0x14,0x1c(%ebx)
    3b36:	77 48                	ja     3b80 <block_put+0x130>
    3b38:	8b 45 e4             	mov    -0x1c(%ebp),%eax
    3b3b:	85 c0                	test   %eax,%eax
    3b3d:	75 41                	jne    3b80 <block_put+0x130>
    3b3f:	83 7b 44 01          	cmpl   $0x1,0x44(%ebx)
    3b43:	0f 84 1b 01 00 00    	je     3c64 <block_put+0x214>
    3b49:	80 7f 14 00          	cmpb   $0x0,0x14(%edi)
    3b4d:	0f 84 11 01 00 00    	je     3c64 <block_put+0x214>
    3b53:	83 ec 0c             	sub    $0xc,%esp
    3b56:	c7 47 10 01 00 00 00 	movl   $0x1,0x10(%edi)
    3b5d:	57                   	push   %edi
    3b5e:	e8 5d 1c 01 00       	call   157c0 <fibril_mutex_unlock>
    3b63:	89 1c 24             	mov    %ebx,(%esp)
    3b66:	e8 55 1c 01 00       	call   157c0 <fibril_mutex_unlock>
    3b6b:	83 c4 10             	add    $0x10,%esp
    3b6e:	c7 45 e4 00 00 00 00 	movl   $0x0,-0x1c(%ebp)
    3b75:	e9 4e ff ff ff       	jmp    3ac8 <block_put+0x78>
    3b7a:	8d b6 00 00 00 00    	lea    0x0(%esi),%esi
    3b80:	80 7f 14 00          	cmpb   $0x0,0x14(%edi)
    3b84:	0f 84 4a 01 00 00    	je     3cd4 <block_put+0x284>
    3b8a:	8b 47 44             	mov    0x44(%edi),%eax
    3b8d:	c7 47 10 01 00 00 00 	movl   $0x1,0x10(%edi)
    3b94:	83 f8 09             	cmp    $0x9,%eax
    3b97:	0f 8f 1b 01 00 00    	jg     3cb8 <block_put+0x268>
    3b9d:	83 ec 0c             	sub    $0xc,%esp
    3ba0:	40                   	inc    %eax
    3ba1:	89 47 44             	mov    %eax,0x44(%edi)
    3ba4:	57                   	push   %edi
    3ba5:	e8 16 1c 01 00       	call   157c0 <fibril_mutex_unlock>
    3baa:	89 1c 24             	mov    %ebx,(%esp)
    3bad:	e8 0e 1c 01 00       	call   157c0 <fibril_mutex_unlock>
    3bb2:	83 c4 10             	add    $0x10,%esp
    3bb5:	e9 0e ff ff ff       	jmp    3ac8 <block_put+0x78>
    3bba:	8d b6 00 00 00 00    	lea    0x0(%esi),%esi
    3bc0:	83 fe 14             	cmp    $0x14,%esi
    3bc3:	77 0a                	ja     3bcf <block_put+0x17f>
    3bc5:	83 7d d8 01          	cmpl   $0x1,-0x28(%ebp)
    3bc9:	0f 84 38 ff ff ff    	je     3b07 <block_put+0xb7>
    3bcf:	8b 47 38             	mov    0x38(%edi),%eax
    3bd2:	8b 57 3c             	mov    0x3c(%edi),%edx
    3bd5:	8b 73 14             	mov    0x14(%ebx),%esi
    3bd8:	51                   	push   %ecx
    3bd9:	51                   	push   %ecx
    3bda:	89 45 d8             	mov    %eax,-0x28(%ebp)
    3bdd:	8b 4f 40             	mov    0x40(%edi),%ecx
    3be0:	89 55 dc             	mov    %edx,-0x24(%ebp)
    3be3:	51                   	push   %ecx
    3be4:	8b 4f 58             	mov    0x58(%edi),%ecx
    3be7:	51                   	push   %ecx
    3be8:	56                   	push   %esi
    3be9:	52                   	push   %edx
    3bea:	50                   	push   %eax
    3beb:	8b 45 e0             	mov    -0x20(%ebp),%eax
    3bee:	8b 40 10             	mov    0x10(%eax),%eax
    3bf1:	50                   	push   %eax
    3bf2:	e8 69 a2 00 00       	call   de60 <bd_write_blocks>
    3bf7:	83 c4 20             	add    $0x20,%esp
    3bfa:	89 45 e4             	mov    %eax,-0x1c(%ebp)
    3bfd:	85 c0                	test   %eax,%eax
    3bff:	0f 84 a3 00 00 00    	je     3ca8 <block_put+0x258>
    3c05:	50                   	push   %eax
    3c06:	50                   	push   %eax
    3c07:	8b 45 e0             	mov    -0x20(%ebp),%eax
    3c0a:	8b 55 dc             	mov    -0x24(%ebp),%edx
    3c0d:	8b 4d d8             	mov    -0x28(%ebp),%ecx
    3c10:	8b 40 08             	mov    0x8(%eax),%eax
    3c13:	50                   	push   %eax
    3c14:	52                   	push   %edx
    3c15:	51                   	push   %ecx
    3c16:	56                   	push   %esi
    3c17:	8b 75 e4             	mov    -0x1c(%ebp),%esi
    3c1a:	56                   	push   %esi
    3c1b:	68 7c 02 03 00       	push   $0x3027c
    3c20:	e8 db 71 01 00       	call   1ae00 <printf>
    3c25:	83 c4 20             	add    $0x20,%esp
    3c28:	e8 93 80 02 00       	call   2bcc0 <stacktrace_print>
    3c2d:	8d 76 00             	lea    0x0(%esi),%esi
    3c30:	c6 47 14 00          	movb   $0x0,0x14(%edi)
    3c34:	e9 ce fe ff ff       	jmp    3b07 <block_put+0xb7>
    3c39:	8d b4 26 00 00 00 00 	lea    0x0(%esi,%eiz,1),%esi
    3c40:	83 ec 0c             	sub    $0xc,%esp
    3c43:	68 24 3f 03 00       	push   $0x33f24
    3c48:	e8 73 1b 01 00       	call   157c0 <fibril_mutex_unlock>
    3c4d:	83 c4 0c             	add    $0xc,%esp
    3c50:	68 4c 02 00 00       	push   $0x24c
    3c55:	68 de 01 03 00       	push   $0x301de
    3c5a:	68 e6 01 03 00       	push   $0x301e6
    3c5f:	e8 7c 84 02 00       	call   2c0e0 <assert_abort>
    3c64:	8d 4b 3c             	lea    0x3c(%ebx),%ecx
    3c67:	8d 47 48             	lea    0x48(%edi),%eax
    3c6a:	89 4f 4c             	mov    %ecx,0x4c(%edi)
    3c6d:	8b 4b 3c             	mov    0x3c(%ebx),%ecx
    3c70:	89 4f 48             	mov    %ecx,0x48(%edi)
    3c73:	c7 45 e4 00 00 00 00 	movl   $0x0,-0x1c(%ebp)
    3c7a:	8b 4b 3c             	mov    0x3c(%ebx),%ecx
    3c7d:	89 41 04             	mov    %eax,0x4(%ecx)
    3c80:	89 43 3c             	mov    %eax,0x3c(%ebx)
    3c83:	83 ec 0c             	sub    $0xc,%esp
    3c86:	57                   	push   %edi
    3c87:	e8 34 1b 01 00       	call   157c0 <fibril_mutex_unlock>
    3c8c:	89 1c 24             	mov    %ebx,(%esp)
    3c8f:	e8 2c 1b 01 00       	call   157c0 <fibril_mutex_unlock>
    3c94:	8b 45 e4             	mov    -0x1c(%ebp),%eax
    3c97:	83 c4 10             	add    $0x10,%esp
    3c9a:	8d 65 f4             	lea    -0xc(%ebp),%esp
    3c9d:	5b                   	pop    %ebx
    3c9e:	5e                   	pop    %esi
    3c9f:	5f                   	pop    %edi
    3ca0:	5d                   	pop    %ebp
    3ca1:	c3                   	ret    
    3ca2:	8d b6 00 00 00 00    	lea    0x0(%esi),%esi
    3ca8:	c7 47 44 00 00 00 00 	movl   $0x0,0x44(%edi)
    3caf:	c6 47 14 00          	movb   $0x0,0x14(%edi)
    3cb3:	e9 4f fe ff ff       	jmp    3b07 <block_put+0xb7>
    3cb8:	8b 75 e0             	mov    -0x20(%ebp),%esi
    3cbb:	8b 46 08             	mov    0x8(%esi),%eax
    3cbe:	50                   	push   %eax
    3cbf:	8b 47 34             	mov    0x34(%edi),%eax
    3cc2:	50                   	push   %eax
    3cc3:	8b 47 30             	mov    0x30(%edi),%eax
    3cc6:	50                   	push   %eax
    3cc7:	68 c4 02 03 00       	push   $0x302c4
    3ccc:	e8 2f 71 01 00       	call   1ae00 <printf>
    3cd1:	83 c4 10             	add    $0x10,%esp
    3cd4:	50                   	push   %eax
    3cd5:	50                   	push   %eax
    3cd6:	8d 47 50             	lea    0x50(%edi),%eax
    3cd9:	50                   	push   %eax
    3cda:	8d 43 20             	lea    0x20(%ebx),%eax
    3cdd:	50                   	push   %eax
    3cde:	e8 cd 38 02 00       	call   275b0 <hash_table_remove_item>
    3ce3:	89 3c 24             	mov    %edi,(%esp)
    3ce6:	e8 d5 1a 01 00       	call   157c0 <fibril_mutex_unlock>
    3ceb:	8b 4f 58             	mov    0x58(%edi),%ecx
    3cee:	5a                   	pop    %edx
    3cef:	51                   	push   %ecx
    3cf0:	e8 db c0 01 00       	call   1fdd0 <free>
    3cf5:	89 3c 24             	mov    %edi,(%esp)
    3cf8:	e8 d3 c0 01 00       	call   1fdd0 <free>
    3cfd:	8b 73 1c             	mov    0x1c(%ebx),%esi
    3d00:	4e                   	dec    %esi
    3d01:	89 73 1c             	mov    %esi,0x1c(%ebx)
    3d04:	89 1c 24             	mov    %ebx,(%esp)
    3d07:	e8 b4 1a 01 00       	call   157c0 <fibril_mutex_unlock>
    3d0c:	8b 45 e4             	mov    -0x1c(%ebp),%eax
    3d0f:	83 c4 10             	add    $0x10,%esp
    3d12:	8d 65 f4             	lea    -0xc(%ebp),%esp
    3d15:	5b                   	pop    %ebx
    3d16:	5e                   	pop    %esi
    3d17:	5f                   	pop    %edi
    3d18:	5d                   	pop    %ebp
    3d19:	c3                   	ret    
    3d1a:	50                   	push   %eax
    3d1b:	68 4d 02 00 00       	push   $0x24d
    3d20:	68 de 01 03 00       	push   $0x301de
    3d25:	68 ed 01 03 00       	push   $0x301ed
    3d2a:	e8 b1 83 02 00       	call   2c0e0 <assert_abort>
    3d2f:	50                   	push   %eax
    3d30:	68 4e 02 00 00       	push   $0x24e
    3d35:	68 de 01 03 00       	push   $0x301de
    3d3a:	68 fb 01 03 00       	push   $0x301fb
    3d3f:	e8 9c 83 02 00       	call   2c0e0 <assert_abort>
    3d44:	8d b6 00 00 00 00    	lea    0x0(%esi),%esi
    3d4a:	8d bf 00 00 00 00    	lea    0x0(%edi),%edi

00003d50 <block_get>:
    3d50:	55                   	push   %ebp
    3d51:	89 e5                	mov    %esp,%ebp
    3d53:	57                   	push   %edi
    3d54:	56                   	push   %esi
    3d55:	53                   	push   %ebx
    3d56:	83 ec 48             	sub    $0x48,%esp
    3d59:	8b 45 10             	mov    0x10(%ebp),%eax
    3d5c:	89 45 e0             	mov    %eax,-0x20(%ebp)
    3d5f:	8b 45 14             	mov    0x14(%ebp),%eax
    3d62:	68 24 3f 03 00       	push   $0x33f24
    3d67:	89 45 e4             	mov    %eax,-0x1c(%ebp)
    3d6a:	e8 d1 18 01 00       	call   15640 <fibril_mutex_lock>
    3d6f:	8b 35 20 3f 03 00    	mov    0x33f20,%esi
    3d75:	83 c4 10             	add    $0x10,%esp
    3d78:	81 fe 1c 3f 03 00    	cmp    $0x33f1c,%esi
    3d7e:	74 20                	je     3da0 <block_get+0x50>
    3d80:	8b 46 08             	mov    0x8(%esi),%eax
    3d83:	39 45 0c             	cmp    %eax,0xc(%ebp)
    3d86:	74 40                	je     3dc8 <block_get+0x78>
    3d88:	8b 45 0c             	mov    0xc(%ebp),%eax
    3d8b:	eb 08                	jmp    3d95 <block_get+0x45>
    3d8d:	8d 76 00             	lea    0x0(%esi),%esi
    3d90:	3b 46 08             	cmp    0x8(%esi),%eax
    3d93:	74 33                	je     3dc8 <block_get+0x78>
    3d95:	8b 76 04             	mov    0x4(%esi),%esi
    3d98:	81 fe 1c 3f 03 00    	cmp    $0x33f1c,%esi
    3d9e:	75 f0                	jne    3d90 <block_get+0x40>
    3da0:	83 ec 0c             	sub    $0xc,%esp
    3da3:	68 24 3f 03 00       	push   $0x33f24
    3da8:	e8 13 1a 01 00       	call   157c0 <fibril_mutex_unlock>
    3dad:	83 c4 0c             	add    $0xc,%esp
    3db0:	68 8a 01 00 00       	push   $0x18a
    3db5:	68 de 01 03 00       	push   $0x301de
    3dba:	68 e6 01 03 00       	push   $0x301e6
    3dbf:	e8 1c 83 02 00       	call   2c0e0 <assert_abort>
    3dc4:	8d 74 26 00          	lea    0x0(%esi,%eiz,1),%esi
    3dc8:	83 ec 0c             	sub    $0xc,%esp
    3dcb:	68 24 3f 03 00       	push   $0x33f24
    3dd0:	e8 eb 19 01 00       	call   157c0 <fibril_mutex_unlock>
    3dd5:	8b 5e 2c             	mov    0x2c(%esi),%ebx
    3dd8:	83 c4 10             	add    $0x10,%esp
    3ddb:	85 db                	test   %ebx,%ebx
    3ddd:	0f 84 a5 04 00 00    	je     4288 <block_get+0x538>
    3de3:	8b 43 14             	mov    0x14(%ebx),%eax
    3de6:	8b 4d e4             	mov    -0x1c(%ebp),%ecx
    3de9:	89 45 d8             	mov    %eax,-0x28(%ebp)
    3dec:	31 d2                	xor    %edx,%edx
    3dee:	0f af c8             	imul   %eax,%ecx
    3df1:	8b 45 d8             	mov    -0x28(%ebp),%eax
    3df4:	89 55 dc             	mov    %edx,-0x24(%ebp)
    3df7:	f7 65 e0             	mull   -0x20(%ebp)
    3dfa:	01 ca                	add    %ecx,%edx
    3dfc:	03 45 d8             	add    -0x28(%ebp),%eax
    3dff:	13 55 dc             	adc    -0x24(%ebp),%edx
    3e02:	3b 56 24             	cmp    0x24(%esi),%edx
    3e05:	76 19                	jbe    3e20 <block_get+0xd0>
    3e07:	c7 45 d8 f6 fe ff ff 	movl   $0xfffffef6,-0x28(%ebp)
    3e0e:	8b 45 d8             	mov    -0x28(%ebp),%eax
    3e11:	8d 65 f4             	lea    -0xc(%ebp),%esp
    3e14:	5b                   	pop    %ebx
    3e15:	5e                   	pop    %esi
    3e16:	5f                   	pop    %edi
    3e17:	5d                   	pop    %ebp
    3e18:	c3                   	ret    
    3e19:	8d b4 26 00 00 00 00 	lea    0x0(%esi,%eiz,1),%esi
    3e20:	0f 83 f2 01 00 00    	jae    4018 <block_get+0x2c8>
    3e26:	8d 43 20             	lea    0x20(%ebx),%eax
    3e29:	89 75 c8             	mov    %esi,-0x38(%ebp)
    3e2c:	89 45 d0             	mov    %eax,-0x30(%ebp)
    3e2f:	8d 43 3c             	lea    0x3c(%ebx),%eax
    3e32:	89 45 d8             	mov    %eax,-0x28(%ebp)
    3e35:	8d 76 00             	lea    0x0(%esi),%esi
    3e38:	83 ec 0c             	sub    $0xc,%esp
    3e3b:	53                   	push   %ebx
    3e3c:	e8 ff 17 01 00       	call   15640 <fibril_mutex_lock>
    3e41:	58                   	pop    %eax
    3e42:	8b 4d d0             	mov    -0x30(%ebp),%ecx
    3e45:	8d 45 e0             	lea    -0x20(%ebp),%eax
    3e48:	5a                   	pop    %edx
    3e49:	50                   	push   %eax
    3e4a:	51                   	push   %ecx
    3e4b:	e8 f0 34 02 00       	call   27340 <hash_table_find>
    3e50:	83 c4 10             	add    $0x10,%esp
    3e53:	85 c0                	test   %eax,%eax
    3e55:	0f 85 cd 01 00 00    	jne    4028 <block_get+0x2d8>
    3e5b:	83 7b 1c 09          	cmpl   $0x9,0x1c(%ebx)
    3e5f:	0f 86 d3 00 00 00    	jbe    3f38 <block_get+0x1e8>
    3e65:	8b 73 40             	mov    0x40(%ebx),%esi
    3e68:	3b 75 d8             	cmp    -0x28(%ebp),%esi
    3e6b:	0f 84 c7 00 00 00    	je     3f38 <block_get+0x1e8>
    3e71:	83 ec 0c             	sub    $0xc,%esp
    3e74:	8d 7e b8             	lea    -0x48(%esi),%edi
    3e77:	57                   	push   %edi
    3e78:	e8 c3 17 01 00       	call   15640 <fibril_mutex_lock>
    3e7d:	83 c4 10             	add    $0x10,%esp
    3e80:	80 7f 14 00          	cmpb   $0x0,0x14(%edi)
    3e84:	0f 84 1e 02 00 00    	je     40a8 <block_get+0x358>
    3e8a:	8b 4f 48             	mov    0x48(%edi),%ecx
    3e8d:	85 c9                	test   %ecx,%ecx
    3e8f:	74 0f                	je     3ea0 <block_get+0x150>
    3e91:	8b 47 4c             	mov    0x4c(%edi),%eax
    3e94:	85 c0                	test   %eax,%eax
    3e96:	74 08                	je     3ea0 <block_get+0x150>
    3e98:	89 08                	mov    %ecx,(%eax)
    3e9a:	8b 4f 48             	mov    0x48(%edi),%ecx
    3e9d:	89 41 04             	mov    %eax,0x4(%ecx)
    3ea0:	c7 47 48 00 00 00 00 	movl   $0x0,0x48(%edi)
    3ea7:	8b 45 d8             	mov    -0x28(%ebp),%eax
    3eaa:	89 47 4c             	mov    %eax,0x4c(%edi)
    3ead:	8b 43 3c             	mov    0x3c(%ebx),%eax
    3eb0:	89 47 48             	mov    %eax,0x48(%edi)
    3eb3:	83 ec 0c             	sub    $0xc,%esp
    3eb6:	8b 43 3c             	mov    0x3c(%ebx),%eax
    3eb9:	89 70 04             	mov    %esi,0x4(%eax)
    3ebc:	89 73 3c             	mov    %esi,0x3c(%ebx)
    3ebf:	53                   	push   %ebx
    3ec0:	e8 fb 18 01 00       	call   157c0 <fibril_mutex_unlock>
    3ec5:	83 c4 08             	add    $0x8,%esp
    3ec8:	8b 77 40             	mov    0x40(%edi),%esi
    3ecb:	8b 4b 14             	mov    0x14(%ebx),%ecx
    3ece:	8b 47 38             	mov    0x38(%edi),%eax
    3ed1:	8b 57 3c             	mov    0x3c(%edi),%edx
    3ed4:	56                   	push   %esi
    3ed5:	8b 77 58             	mov    0x58(%edi),%esi
    3ed8:	89 45 c0             	mov    %eax,-0x40(%ebp)
    3edb:	56                   	push   %esi
    3edc:	51                   	push   %ecx
    3edd:	52                   	push   %edx
    3ede:	50                   	push   %eax
    3edf:	8b 45 c8             	mov    -0x38(%ebp),%eax
    3ee2:	89 4d d4             	mov    %ecx,-0x2c(%ebp)
    3ee5:	89 55 c4             	mov    %edx,-0x3c(%ebp)
    3ee8:	8b 40 10             	mov    0x10(%eax),%eax
    3eeb:	50                   	push   %eax
    3eec:	e8 6f 9f 00 00       	call   de60 <bd_write_blocks>
    3ef1:	83 c4 20             	add    $0x20,%esp
    3ef4:	89 c6                	mov    %eax,%esi
    3ef6:	85 c0                	test   %eax,%eax
    3ef8:	8b 4d d4             	mov    -0x2c(%ebp),%ecx
    3efb:	0f 85 a7 00 00 00    	jne    3fa8 <block_get+0x258>
    3f01:	c7 47 44 00 00 00 00 	movl   $0x0,0x44(%edi)
    3f08:	83 ec 0c             	sub    $0xc,%esp
    3f0b:	c6 47 14 00          	movb   $0x0,0x14(%edi)
    3f0f:	53                   	push   %ebx
    3f10:	e8 0b 18 01 00       	call   15720 <fibril_mutex_trylock>
    3f15:	83 c4 10             	add    $0x10,%esp
    3f18:	84 c0                	test   %al,%al
    3f1a:	0f 85 b7 02 00 00    	jne    41d7 <block_get+0x487>
    3f20:	83 ec 0c             	sub    $0xc,%esp
    3f23:	57                   	push   %edi
    3f24:	e8 97 18 01 00       	call   157c0 <fibril_mutex_unlock>
    3f29:	83 c4 10             	add    $0x10,%esp
    3f2c:	e9 07 ff ff ff       	jmp    3e38 <block_get+0xe8>
    3f31:	8d b4 26 00 00 00 00 	lea    0x0(%esi,%eiz,1),%esi
    3f38:	83 ec 0c             	sub    $0xc,%esp
    3f3b:	6a 5c                	push   $0x5c
    3f3d:	e8 de bc 01 00       	call   1fc20 <malloc>
    3f42:	83 c4 10             	add    $0x10,%esp
    3f45:	89 c7                	mov    %eax,%edi
    3f47:	85 c0                	test   %eax,%eax
    3f49:	74 26                	je     3f71 <block_get+0x221>
    3f4b:	83 ec 0c             	sub    $0xc,%esp
    3f4e:	8b 43 10             	mov    0x10(%ebx),%eax
    3f51:	50                   	push   %eax
    3f52:	e8 c9 bc 01 00       	call   1fc20 <malloc>
    3f57:	83 c4 10             	add    $0x10,%esp
    3f5a:	89 47 58             	mov    %eax,0x58(%edi)
    3f5d:	85 c0                	test   %eax,%eax
    3f5f:	0f 85 14 03 00 00    	jne    4279 <block_get+0x529>
    3f65:	83 ec 0c             	sub    $0xc,%esp
    3f68:	57                   	push   %edi
    3f69:	e8 62 be 01 00       	call   1fdd0 <free>
    3f6e:	83 c4 10             	add    $0x10,%esp
    3f71:	8b 73 40             	mov    0x40(%ebx),%esi
    3f74:	3b 75 d8             	cmp    -0x28(%ebp),%esi
    3f77:	0f 85 f4 fe ff ff    	jne    3e71 <block_get+0x121>
    3f7d:	83 ec 0c             	sub    $0xc,%esp
    3f80:	31 ff                	xor    %edi,%edi
    3f82:	53                   	push   %ebx
    3f83:	e8 38 18 01 00       	call   157c0 <fibril_mutex_unlock>
    3f88:	83 c4 10             	add    $0x10,%esp
    3f8b:	c7 45 d8 fe ff ff ff 	movl   $0xfffffffe,-0x28(%ebp)
    3f92:	8b 45 08             	mov    0x8(%ebp),%eax
    3f95:	89 38                	mov    %edi,(%eax)
    3f97:	8b 45 d8             	mov    -0x28(%ebp),%eax
    3f9a:	8d 65 f4             	lea    -0xc(%ebp),%esp
    3f9d:	5b                   	pop    %ebx
    3f9e:	5e                   	pop    %esi
    3f9f:	5f                   	pop    %edi
    3fa0:	5d                   	pop    %ebp
    3fa1:	c3                   	ret    
    3fa2:	8d b6 00 00 00 00    	lea    0x0(%esi),%esi
    3fa8:	50                   	push   %eax
    3fa9:	50                   	push   %eax
    3faa:	8b 45 c8             	mov    -0x38(%ebp),%eax
    3fad:	8b 55 c0             	mov    -0x40(%ebp),%edx
    3fb0:	8b 40 08             	mov    0x8(%eax),%eax
    3fb3:	50                   	push   %eax
    3fb4:	8b 45 c4             	mov    -0x3c(%ebp),%eax
    3fb7:	50                   	push   %eax
    3fb8:	52                   	push   %edx
    3fb9:	51                   	push   %ecx
    3fba:	56                   	push   %esi
    3fbb:	68 7c 02 03 00       	push   $0x3027c
    3fc0:	e8 3b 6e 01 00       	call   1ae00 <printf>
    3fc5:	83 c4 20             	add    $0x20,%esp
    3fc8:	e8 f3 7c 02 00       	call   2bcc0 <stacktrace_print>
    3fcd:	8b 47 44             	mov    0x44(%edi),%eax
    3fd0:	83 f8 09             	cmp    $0x9,%eax
    3fd3:	7f 1b                	jg     3ff0 <block_get+0x2a0>
    3fd5:	83 ec 0c             	sub    $0xc,%esp
    3fd8:	40                   	inc    %eax
    3fd9:	89 47 44             	mov    %eax,0x44(%edi)
    3fdc:	57                   	push   %edi
    3fdd:	e8 de 17 01 00       	call   157c0 <fibril_mutex_unlock>
    3fe2:	83 c4 10             	add    $0x10,%esp
    3fe5:	e9 4e fe ff ff       	jmp    3e38 <block_get+0xe8>
    3fea:	8d b6 00 00 00 00    	lea    0x0(%esi),%esi
    3ff0:	8b 45 c8             	mov    -0x38(%ebp),%eax
    3ff3:	8b 40 08             	mov    0x8(%eax),%eax
    3ff6:	50                   	push   %eax
    3ff7:	8b 47 34             	mov    0x34(%edi),%eax
    3ffa:	50                   	push   %eax
    3ffb:	8b 47 30             	mov    0x30(%edi),%eax
    3ffe:	50                   	push   %eax
    3fff:	68 c4 02 03 00       	push   $0x302c4
    4004:	e8 f7 6d 01 00       	call   1ae00 <printf>
    4009:	83 c4 10             	add    $0x10,%esp
    400c:	e9 f7 fe ff ff       	jmp    3f08 <block_get+0x1b8>
    4011:	8d b4 26 00 00 00 00 	lea    0x0(%esi,%eiz,1),%esi
    4018:	3b 46 20             	cmp    0x20(%esi),%eax
    401b:	0f 83 e6 fd ff ff    	jae    3e07 <block_get+0xb7>
    4021:	e9 00 fe ff ff       	jmp    3e26 <block_get+0xd6>
    4026:	66 90                	xchg   %ax,%ax
    4028:	c7 45 d8 00 00 00 00 	movl   $0x0,-0x28(%ebp)
    402f:	8d 78 b0             	lea    -0x50(%eax),%edi
    4032:	83 ec 0c             	sub    $0xc,%esp
    4035:	57                   	push   %edi
    4036:	e8 05 16 01 00       	call   15640 <fibril_mutex_lock>
    403b:	8b 47 10             	mov    0x10(%edi),%eax
    403e:	83 c4 10             	add    $0x10,%esp
    4041:	85 c0                	test   %eax,%eax
    4043:	8d 50 01             	lea    0x1(%eax),%edx
    4046:	89 57 10             	mov    %edx,0x10(%edi)
    4049:	75 24                	jne    406f <block_get+0x31f>
    404b:	8b 57 48             	mov    0x48(%edi),%edx
    404e:	85 d2                	test   %edx,%edx
    4050:	74 0f                	je     4061 <block_get+0x311>
    4052:	8b 47 4c             	mov    0x4c(%edi),%eax
    4055:	85 c0                	test   %eax,%eax
    4057:	74 08                	je     4061 <block_get+0x311>
    4059:	89 10                	mov    %edx,(%eax)
    405b:	8b 57 48             	mov    0x48(%edi),%edx
    405e:	89 42 04             	mov    %eax,0x4(%edx)
    4061:	c7 47 48 00 00 00 00 	movl   $0x0,0x48(%edi)
    4068:	c7 47 4c 00 00 00 00 	movl   $0x0,0x4c(%edi)
    406f:	8a 47 15             	mov    0x15(%edi),%al
    4072:	84 c0                	test   %al,%al
    4074:	0f 85 51 01 00 00    	jne    41cb <block_get+0x47b>
    407a:	8b 45 d8             	mov    -0x28(%ebp),%eax
    407d:	85 c0                	test   %eax,%eax
    407f:	0f 95 c0             	setne  %al
    4082:	83 ec 0c             	sub    $0xc,%esp
    4085:	88 45 d4             	mov    %al,-0x2c(%ebp)
    4088:	57                   	push   %edi
    4089:	e8 32 17 01 00       	call   157c0 <fibril_mutex_unlock>
    408e:	89 1c 24             	mov    %ebx,(%esp)
    4091:	e8 2a 17 01 00       	call   157c0 <fibril_mutex_unlock>
    4096:	83 c4 10             	add    $0x10,%esp
    4099:	8a 45 d4             	mov    -0x2c(%ebp),%al
    409c:	e9 05 01 00 00       	jmp    41a6 <block_get+0x456>
    40a1:	8d b4 26 00 00 00 00 	lea    0x0(%esi,%eiz,1),%esi
    40a8:	8b 75 c8             	mov    -0x38(%ebp),%esi
    40ab:	83 ec 0c             	sub    $0xc,%esp
    40ae:	57                   	push   %edi
    40af:	e8 0c 17 01 00       	call   157c0 <fibril_mutex_unlock>
    40b4:	8b 57 48             	mov    0x48(%edi),%edx
    40b7:	83 c4 10             	add    $0x10,%esp
    40ba:	85 d2                	test   %edx,%edx
    40bc:	74 0f                	je     40cd <block_get+0x37d>
    40be:	8b 47 4c             	mov    0x4c(%edi),%eax
    40c1:	85 c0                	test   %eax,%eax
    40c3:	74 08                	je     40cd <block_get+0x37d>
    40c5:	89 10                	mov    %edx,(%eax)
    40c7:	8b 57 48             	mov    0x48(%edi),%edx
    40ca:	89 42 04             	mov    %eax,0x4(%edx)
    40cd:	c7 47 48 00 00 00 00 	movl   $0x0,0x48(%edi)
    40d4:	c7 47 4c 00 00 00 00 	movl   $0x0,0x4c(%edi)
    40db:	50                   	push   %eax
    40dc:	50                   	push   %eax
    40dd:	8d 47 50             	lea    0x50(%edi),%eax
    40e0:	50                   	push   %eax
    40e1:	8b 45 d0             	mov    -0x30(%ebp),%eax
    40e4:	50                   	push   %eax
    40e5:	e8 c6 34 02 00       	call   275b0 <hash_table_remove_item>
    40ea:	83 c4 10             	add    $0x10,%esp
    40ed:	83 ec 0c             	sub    $0xc,%esp
    40f0:	57                   	push   %edi
    40f1:	e8 2a 15 01 00       	call   15620 <fibril_mutex_initialize>
    40f6:	8d 47 18             	lea    0x18(%edi),%eax
    40f9:	c7 47 10 01 00 00 00 	movl   $0x1,0x10(%edi)
    4100:	c7 47 44 00 00 00 00 	movl   $0x0,0x44(%edi)
    4107:	c6 47 14 00          	movb   $0x0,0x14(%edi)
    410b:	c6 47 15 00          	movb   $0x0,0x15(%edi)
    410f:	89 04 24             	mov    %eax,(%esp)
    4112:	e8 d9 18 01 00       	call   159f0 <fibril_rwlock_initialize>
    4117:	8b 45 0c             	mov    0xc(%ebp),%eax
    411a:	89 47 2c             	mov    %eax,0x2c(%edi)
    411d:	8b 43 10             	mov    0x10(%ebx),%eax
    4120:	89 47 40             	mov    %eax,0x40(%edi)
    4123:	8b 45 e0             	mov    -0x20(%ebp),%eax
    4126:	89 45 d8             	mov    %eax,-0x28(%ebp)
    4129:	8b 4d e4             	mov    -0x1c(%ebp),%ecx
    412c:	89 47 30             	mov    %eax,0x30(%edi)
    412f:	8b 46 2c             	mov    0x2c(%esi),%eax
    4132:	83 c4 10             	add    $0x10,%esp
    4135:	c7 47 48 00 00 00 00 	movl   $0x0,0x48(%edi)
    413c:	c7 47 4c 00 00 00 00 	movl   $0x0,0x4c(%edi)
    4143:	89 4f 34             	mov    %ecx,0x34(%edi)
    4146:	85 c0                	test   %eax,%eax
    4148:	0f 84 4f 01 00 00    	je     429d <block_get+0x54d>
    414e:	8b 40 14             	mov    0x14(%eax),%eax
    4151:	0f af c8             	imul   %eax,%ecx
    4154:	f7 65 d8             	mull   -0x28(%ebp)
    4157:	01 ca                	add    %ecx,%edx
    4159:	89 47 38             	mov    %eax,0x38(%edi)
    415c:	89 57 3c             	mov    %edx,0x3c(%edi)
    415f:	50                   	push   %eax
    4160:	50                   	push   %eax
    4161:	8d 47 50             	lea    0x50(%edi),%eax
    4164:	50                   	push   %eax
    4165:	8b 45 d0             	mov    -0x30(%ebp),%eax
    4168:	50                   	push   %eax
    4169:	e8 e2 2f 02 00       	call   27150 <hash_table_insert>
    416e:	89 3c 24             	mov    %edi,(%esp)
    4171:	e8 ca 14 01 00       	call   15640 <fibril_mutex_lock>
    4176:	89 1c 24             	mov    %ebx,(%esp)
    4179:	e8 42 16 01 00       	call   157c0 <fibril_mutex_unlock>
    417e:	83 c4 10             	add    $0x10,%esp
    4181:	f6 45 18 01          	testb  $0x1,0x18(%ebp)
    4185:	0f 84 83 00 00 00    	je     420e <block_get+0x4be>
    418b:	31 c0                	xor    %eax,%eax
    418d:	c7 45 d8 00 00 00 00 	movl   $0x0,-0x28(%ebp)
    4194:	83 ec 0c             	sub    $0xc,%esp
    4197:	88 45 d4             	mov    %al,-0x2c(%ebp)
    419a:	57                   	push   %edi
    419b:	e8 20 16 01 00       	call   157c0 <fibril_mutex_unlock>
    41a0:	83 c4 10             	add    $0x10,%esp
    41a3:	8a 45 d4             	mov    -0x2c(%ebp),%al
    41a6:	84 c0                	test   %al,%al
    41a8:	0f 84 e4 fd ff ff    	je     3f92 <block_get+0x242>
    41ae:	80 7f 15 00          	cmpb   $0x0,0x15(%edi)
    41b2:	0f 84 fa 00 00 00    	je     42b2 <block_get+0x562>
    41b8:	83 ec 0c             	sub    $0xc,%esp
    41bb:	57                   	push   %edi
    41bc:	31 ff                	xor    %edi,%edi
    41be:	e8 8d f8 ff ff       	call   3a50 <block_put>
    41c3:	83 c4 10             	add    $0x10,%esp
    41c6:	e9 c7 fd ff ff       	jmp    3f92 <block_get+0x242>
    41cb:	c7 45 d8 f6 fe ff ff 	movl   $0xfffffef6,-0x28(%ebp)
    41d2:	e9 ab fe ff ff       	jmp    4082 <block_get+0x332>
    41d7:	8d 45 e0             	lea    -0x20(%ebp),%eax
    41da:	8b 4d d0             	mov    -0x30(%ebp),%ecx
    41dd:	89 75 d8             	mov    %esi,-0x28(%ebp)
    41e0:	8b 75 c8             	mov    -0x38(%ebp),%esi
    41e3:	52                   	push   %edx
    41e4:	52                   	push   %edx
    41e5:	50                   	push   %eax
    41e6:	51                   	push   %ecx
    41e7:	e8 54 31 02 00       	call   27340 <hash_table_find>
    41ec:	83 c4 10             	add    $0x10,%esp
    41ef:	89 45 d4             	mov    %eax,-0x2c(%ebp)
    41f2:	85 c0                	test   %eax,%eax
    41f4:	0f 84 b1 fe ff ff    	je     40ab <block_get+0x35b>
    41fa:	83 ec 0c             	sub    $0xc,%esp
    41fd:	57                   	push   %edi
    41fe:	e8 bd 15 01 00       	call   157c0 <fibril_mutex_unlock>
    4203:	83 c4 10             	add    $0x10,%esp
    4206:	8b 45 d4             	mov    -0x2c(%ebp),%eax
    4209:	e9 21 fe ff ff       	jmp    402f <block_get+0x2df>
    420e:	83 ec 08             	sub    $0x8,%esp
    4211:	8b 4b 14             	mov    0x14(%ebx),%ecx
    4214:	8b 5b 10             	mov    0x10(%ebx),%ebx
    4217:	8b 47 38             	mov    0x38(%edi),%eax
    421a:	8b 57 3c             	mov    0x3c(%edi),%edx
    421d:	53                   	push   %ebx
    421e:	8b 5f 58             	mov    0x58(%edi),%ebx
    4221:	89 45 c8             	mov    %eax,-0x38(%ebp)
    4224:	53                   	push   %ebx
    4225:	51                   	push   %ecx
    4226:	52                   	push   %edx
    4227:	50                   	push   %eax
    4228:	8b 46 10             	mov    0x10(%esi),%eax
    422b:	89 55 cc             	mov    %edx,-0x34(%ebp)
    422e:	89 4d d4             	mov    %ecx,-0x2c(%ebp)
    4231:	50                   	push   %eax
    4232:	e8 e9 9a 00 00       	call   dd20 <bd_read_blocks>
    4237:	83 c4 20             	add    $0x20,%esp
    423a:	89 c2                	mov    %eax,%edx
    423c:	89 45 d8             	mov    %eax,-0x28(%ebp)
    423f:	8b 4d d4             	mov    -0x2c(%ebp),%ecx
    4242:	31 c0                	xor    %eax,%eax
    4244:	85 d2                	test   %edx,%edx
    4246:	0f 84 48 ff ff ff    	je     4194 <block_get+0x444>
    424c:	53                   	push   %ebx
    424d:	53                   	push   %ebx
    424e:	8b 76 08             	mov    0x8(%esi),%esi
    4251:	8b 45 cc             	mov    -0x34(%ebp),%eax
    4254:	56                   	push   %esi
    4255:	50                   	push   %eax
    4256:	8b 45 c8             	mov    -0x38(%ebp),%eax
    4259:	50                   	push   %eax
    425a:	51                   	push   %ecx
    425b:	52                   	push   %edx
    425c:	68 30 02 03 00       	push   $0x30230
    4261:	e8 9a 6b 01 00       	call   1ae00 <printf>
    4266:	83 c4 20             	add    $0x20,%esp
    4269:	e8 52 7a 02 00       	call   2bcc0 <stacktrace_print>
    426e:	c6 47 15 01          	movb   $0x1,0x15(%edi)
    4272:	b0 01                	mov    $0x1,%al
    4274:	e9 1b ff ff ff       	jmp    4194 <block_get+0x444>
    4279:	8b 43 1c             	mov    0x1c(%ebx),%eax
    427c:	8b 75 c8             	mov    -0x38(%ebp),%esi
    427f:	40                   	inc    %eax
    4280:	89 43 1c             	mov    %eax,0x1c(%ebx)
    4283:	e9 65 fe ff ff       	jmp    40ed <block_get+0x39d>
    4288:	53                   	push   %ebx
    4289:	68 8b 01 00 00       	push   $0x18b
    428e:	68 de 01 03 00       	push   $0x301de
    4293:	68 ed 01 03 00       	push   $0x301ed
    4298:	e8 43 7e 02 00       	call   2c0e0 <assert_abort>
    429d:	50                   	push   %eax
    429e:	68 c6 03 00 00       	push   $0x3c6
    42a3:	68 de 01 03 00       	push   $0x301de
    42a8:	68 0e 02 03 00       	push   $0x3020e
    42ad:	e8 2e 7e 02 00       	call   2c0e0 <assert_abort>
    42b2:	50                   	push   %eax
    42b3:	68 34 02 00 00       	push   $0x234
    42b8:	68 de 01 03 00       	push   $0x301de
    42bd:	68 24 02 03 00       	push   $0x30224
    42c2:	e8 19 7e 02 00       	call   2c0e0 <assert_abort>
    42c7:	89 f6                	mov    %esi,%esi
    42c9:	8d bc 27 00 00 00 00 	lea    0x0(%edi,%eiz,1),%edi

000042d0 <block_seqread>:
    42d0:	55                   	push   %ebp
    42d1:	89 e5                	mov    %esp,%ebp
    42d3:	57                   	push   %edi
    42d4:	56                   	push   %esi
    42d5:	53                   	push   %ebx
    42d6:	83 ec 38             	sub    $0x38,%esp
    42d9:	8b 4d 20             	mov    0x20(%ebp),%ecx
    42dc:	8b 75 08             	mov    0x8(%ebp),%esi
    42df:	68 24 3f 03 00       	push   $0x33f24
    42e4:	89 4d e4             	mov    %ecx,-0x1c(%ebp)
    42e7:	e8 54 13 01 00       	call   15640 <fibril_mutex_lock>
    42ec:	8b 1d 20 3f 03 00    	mov    0x33f20,%ebx
    42f2:	83 c4 10             	add    $0x10,%esp
    42f5:	81 fb 1c 3f 03 00    	cmp    $0x33f1c,%ebx
    42fb:	74 1b                	je     4318 <block_seqread+0x48>
    42fd:	3b 73 08             	cmp    0x8(%ebx),%esi
    4300:	8b 4d e4             	mov    -0x1c(%ebp),%ecx
    4303:	75 08                	jne    430d <block_seqread+0x3d>
    4305:	eb 39                	jmp    4340 <block_seqread+0x70>
    4307:	90                   	nop
    4308:	3b 73 08             	cmp    0x8(%ebx),%esi
    430b:	74 33                	je     4340 <block_seqread+0x70>
    430d:	8b 5b 04             	mov    0x4(%ebx),%ebx
    4310:	81 fb 1c 3f 03 00    	cmp    $0x33f1c,%ebx
    4316:	75 f0                	jne    4308 <block_seqread+0x38>
    4318:	83 ec 0c             	sub    $0xc,%esp
    431b:	68 24 3f 03 00       	push   $0x33f24
    4320:	e8 9b 14 01 00       	call   157c0 <fibril_mutex_unlock>
    4325:	83 c4 0c             	add    $0xc,%esp
    4328:	68 c6 02 00 00       	push   $0x2c6
    432d:	68 de 01 03 00       	push   $0x301de
    4332:	68 e6 01 03 00       	push   $0x301e6
    4337:	e8 a4 7d 02 00       	call   2c0e0 <assert_abort>
    433c:	8d 74 26 00          	lea    0x0(%esi,%eiz,1),%esi
    4340:	83 ec 0c             	sub    $0xc,%esp
    4343:	89 4d e4             	mov    %ecx,-0x1c(%ebp)
    4346:	68 24 3f 03 00       	push   $0x33f24
    434b:	e8 70 14 01 00       	call   157c0 <fibril_mutex_unlock>
    4350:	8b 43 28             	mov    0x28(%ebx),%eax
    4353:	8b 4d e4             	mov    -0x1c(%ebp),%ecx
    4356:	83 c4 10             	add    $0x10,%esp
    4359:	89 45 d8             	mov    %eax,-0x28(%ebp)
    435c:	85 c9                	test   %ecx,%ecx
    435e:	0f 84 e0 00 00 00    	je     4444 <block_seqread+0x174>
    4364:	89 c6                	mov    %eax,%esi
    4366:	8b 45 14             	mov    0x14(%ebp),%eax
    4369:	89 5d dc             	mov    %ebx,-0x24(%ebp)
    436c:	c7 45 e4 00 00 00 00 	movl   $0x0,-0x1c(%ebp)
    4373:	8b 00                	mov    (%eax),%eax
    4375:	89 75 d0             	mov    %esi,-0x30(%ebp)
    4378:	c7 45 d4 00 00 00 00 	movl   $0x0,-0x2c(%ebp)
    437f:	8b 5d 10             	mov    0x10(%ebp),%ebx
    4382:	eb 1a                	jmp    439e <block_seqread+0xce>
    4384:	8d 74 26 00          	lea    0x0(%esi,%eiz,1),%esi
    4388:	89 c2                	mov    %eax,%edx
    438a:	29 fa                	sub    %edi,%edx
    438c:	0f 85 f0 00 00 00    	jne    4482 <block_seqread+0x1b2>
    4392:	39 c7                	cmp    %eax,%edi
    4394:	74 56                	je     43ec <block_seqread+0x11c>
    4396:	85 c9                	test   %ecx,%ecx
    4398:	0f 84 a6 00 00 00    	je     4444 <block_seqread+0x174>
    439e:	8b 3b                	mov    (%ebx),%edi
    43a0:	8d 14 0f             	lea    (%edi,%ecx,1),%edx
    43a3:	39 c2                	cmp    %eax,%edx
    43a5:	73 e1                	jae    4388 <block_seqread+0xb8>
    43a7:	31 f6                	xor    %esi,%esi
    43a9:	50                   	push   %eax
    43aa:	8b 45 0c             	mov    0xc(%ebp),%eax
    43ad:	01 c7                	add    %eax,%edi
    43af:	51                   	push   %ecx
    43b0:	8b 45 1c             	mov    0x1c(%ebp),%eax
    43b3:	57                   	push   %edi
    43b4:	8b 7d e4             	mov    -0x1c(%ebp),%edi
    43b7:	89 4d e0             	mov    %ecx,-0x20(%ebp)
    43ba:	01 f8                	add    %edi,%eax
    43bc:	50                   	push   %eax
    43bd:	e8 4e be 00 00       	call   10210 <memcpy>
    43c2:	8b 4d e0             	mov    -0x20(%ebp),%ecx
    43c5:	89 f8                	mov    %edi,%eax
    43c7:	01 c8                	add    %ecx,%eax
    43c9:	8b 3b                	mov    (%ebx),%edi
    43cb:	01 cf                	add    %ecx,%edi
    43cd:	89 45 e4             	mov    %eax,-0x1c(%ebp)
    43d0:	89 c8                	mov    %ecx,%eax
    43d2:	8b 4d 18             	mov    0x18(%ebp),%ecx
    43d5:	89 3b                	mov    %edi,(%ebx)
    43d7:	31 d2                	xor    %edx,%edx
    43d9:	01 01                	add    %eax,(%ecx)
    43db:	8b 45 14             	mov    0x14(%ebp),%eax
    43de:	11 51 04             	adc    %edx,0x4(%ecx)
    43e1:	8b 00                	mov    (%eax),%eax
    43e3:	83 c4 10             	add    $0x10,%esp
    43e6:	89 f1                	mov    %esi,%ecx
    43e8:	39 c7                	cmp    %eax,%edi
    43ea:	75 aa                	jne    4396 <block_seqread+0xc6>
    43ec:	8b 45 18             	mov    0x18(%ebp),%eax
    43ef:	8b 75 d4             	mov    -0x2c(%ebp),%esi
    43f2:	8b 7d d0             	mov    -0x30(%ebp),%edi
    43f5:	56                   	push   %esi
    43f6:	57                   	push   %edi
    43f7:	89 4d e0             	mov    %ecx,-0x20(%ebp)
    43fa:	8b 50 04             	mov    0x4(%eax),%edx
    43fd:	52                   	push   %edx
    43fe:	8b 08                	mov    (%eax),%ecx
    4400:	51                   	push   %ecx
    4401:	e8 8a b5 02 00       	call   2f990 <__udivdi3>
    4406:	5e                   	pop    %esi
    4407:	89 c6                	mov    %eax,%esi
    4409:	8b 45 dc             	mov    -0x24(%ebp),%eax
    440c:	5f                   	pop    %edi
    440d:	8b 4d 0c             	mov    0xc(%ebp),%ecx
    4410:	89 d7                	mov    %edx,%edi
    4412:	8b 50 28             	mov    0x28(%eax),%edx
    4415:	52                   	push   %edx
    4416:	51                   	push   %ecx
    4417:	8b 40 10             	mov    0x10(%eax),%eax
    441a:	6a 01                	push   $0x1
    441c:	57                   	push   %edi
    441d:	56                   	push   %esi
    441e:	50                   	push   %eax
    441f:	e8 fc 98 00 00       	call   dd20 <bd_read_blocks>
    4424:	83 c4 20             	add    $0x20,%esp
    4427:	8b 4d e0             	mov    -0x20(%ebp),%ecx
    442a:	85 c0                	test   %eax,%eax
    442c:	75 22                	jne    4450 <block_seqread+0x180>
    442e:	8b 75 14             	mov    0x14(%ebp),%esi
    4431:	8b 45 d8             	mov    -0x28(%ebp),%eax
    4434:	c7 03 00 00 00 00    	movl   $0x0,(%ebx)
    443a:	85 c9                	test   %ecx,%ecx
    443c:	89 06                	mov    %eax,(%esi)
    443e:	0f 85 5a ff ff ff    	jne    439e <block_seqread+0xce>
    4444:	8d 65 f4             	lea    -0xc(%ebp),%esp
    4447:	31 d2                	xor    %edx,%edx
    4449:	89 d0                	mov    %edx,%eax
    444b:	5b                   	pop    %ebx
    444c:	5e                   	pop    %esi
    444d:	5f                   	pop    %edi
    444e:	5d                   	pop    %ebp
    444f:	c3                   	ret    
    4450:	8b 5d dc             	mov    -0x24(%ebp),%ebx
    4453:	89 c2                	mov    %eax,%edx
    4455:	50                   	push   %eax
    4456:	50                   	push   %eax
    4457:	8b 4b 08             	mov    0x8(%ebx),%ecx
    445a:	89 55 e4             	mov    %edx,-0x1c(%ebp)
    445d:	51                   	push   %ecx
    445e:	57                   	push   %edi
    445f:	56                   	push   %esi
    4460:	6a 01                	push   $0x1
    4462:	52                   	push   %edx
    4463:	68 30 02 03 00       	push   $0x30230
    4468:	e8 93 69 01 00       	call   1ae00 <printf>
    446d:	83 c4 20             	add    $0x20,%esp
    4470:	e8 4b 78 02 00       	call   2bcc0 <stacktrace_print>
    4475:	8b 55 e4             	mov    -0x1c(%ebp),%edx
    4478:	8d 65 f4             	lea    -0xc(%ebp),%esp
    447b:	89 d0                	mov    %edx,%eax
    447d:	5b                   	pop    %ebx
    447e:	5e                   	pop    %esi
    447f:	5f                   	pop    %edi
    4480:	5d                   	pop    %ebp
    4481:	c3                   	ret    
    4482:	89 ce                	mov    %ecx,%esi
    4484:	89 d1                	mov    %edx,%ecx
    4486:	29 d6                	sub    %edx,%esi
    4488:	e9 1c ff ff ff       	jmp    43a9 <block_seqread+0xd9>
    448d:	8d 76 00             	lea    0x0(%esi),%esi

00004490 <block_read_direct>:
    4490:	55                   	push   %ebp
    4491:	89 e5                	mov    %esp,%ebp
    4493:	57                   	push   %edi
    4494:	56                   	push   %esi
    4495:	53                   	push   %ebx
    4496:	83 ec 28             	sub    $0x28,%esp
    4499:	8b 45 08             	mov    0x8(%ebp),%eax
    449c:	8b 75 0c             	mov    0xc(%ebp),%esi
    449f:	68 24 3f 03 00       	push   $0x33f24
    44a4:	89 45 e4             	mov    %eax,-0x1c(%ebp)
    44a7:	8b 7d 10             	mov    0x10(%ebp),%edi
    44aa:	e8 91 11 01 00       	call   15640 <fibril_mutex_lock>
    44af:	8b 1d 20 3f 03 00    	mov    0x33f20,%ebx
    44b5:	83 c4 10             	add    $0x10,%esp
    44b8:	81 fb 1c 3f 03 00    	cmp    $0x33f1c,%ebx
    44be:	74 20                	je     44e0 <block_read_direct+0x50>
    44c0:	8b 45 e4             	mov    -0x1c(%ebp),%eax
    44c3:	3b 43 08             	cmp    0x8(%ebx),%eax
    44c6:	75 0d                	jne    44d5 <block_read_direct+0x45>
    44c8:	eb 3e                	jmp    4508 <block_read_direct+0x78>
    44ca:	8d b6 00 00 00 00    	lea    0x0(%esi),%esi
    44d0:	3b 43 08             	cmp    0x8(%ebx),%eax
    44d3:	74 33                	je     4508 <block_read_direct+0x78>
    44d5:	8b 5b 04             	mov    0x4(%ebx),%ebx
    44d8:	81 fb 1c 3f 03 00    	cmp    $0x33f1c,%ebx
    44de:	75 f0                	jne    44d0 <block_read_direct+0x40>
    44e0:	83 ec 0c             	sub    $0xc,%esp
    44e3:	68 24 3f 03 00       	push   $0x33f24
    44e8:	e8 d3 12 01 00       	call   157c0 <fibril_mutex_unlock>
    44ed:	83 c4 0c             	add    $0xc,%esp
    44f0:	68 fd 02 00 00       	push   $0x2fd
    44f5:	68 de 01 03 00       	push   $0x301de
    44fa:	68 e6 01 03 00       	push   $0x301e6
    44ff:	e8 dc 7b 02 00       	call   2c0e0 <assert_abort>
    4504:	8d 74 26 00          	lea    0x0(%esi,%eiz,1),%esi
    4508:	83 ec 0c             	sub    $0xc,%esp
    450b:	68 24 3f 03 00       	push   $0x33f24
    4510:	e8 ab 12 01 00       	call   157c0 <fibril_mutex_unlock>
    4515:	58                   	pop    %eax
    4516:	8b 4b 28             	mov    0x28(%ebx),%ecx
    4519:	8b 45 14             	mov    0x14(%ebp),%eax
    451c:	5a                   	pop    %edx
    451d:	0f af c1             	imul   %ecx,%eax
    4520:	50                   	push   %eax
    4521:	8b 45 18             	mov    0x18(%ebp),%eax
    4524:	50                   	push   %eax
    4525:	8b 45 14             	mov    0x14(%ebp),%eax
    4528:	50                   	push   %eax
    4529:	8b 43 10             	mov    0x10(%ebx),%eax
    452c:	57                   	push   %edi
    452d:	56                   	push   %esi
    452e:	50                   	push   %eax
    452f:	e8 ec 97 00 00       	call   dd20 <bd_read_blocks>
    4534:	83 c4 20             	add    $0x20,%esp
    4537:	89 c1                	mov    %eax,%ecx
    4539:	85 c0                	test   %eax,%eax
    453b:	74 25                	je     4562 <block_read_direct+0xd2>
    453d:	50                   	push   %eax
    453e:	50                   	push   %eax
    453f:	8b 53 08             	mov    0x8(%ebx),%edx
    4542:	8b 5d 14             	mov    0x14(%ebp),%ebx
    4545:	52                   	push   %edx
    4546:	57                   	push   %edi
    4547:	56                   	push   %esi
    4548:	53                   	push   %ebx
    4549:	51                   	push   %ecx
    454a:	68 30 02 03 00       	push   $0x30230
    454f:	89 4d e4             	mov    %ecx,-0x1c(%ebp)
    4552:	e8 a9 68 01 00       	call   1ae00 <printf>
    4557:	83 c4 20             	add    $0x20,%esp
    455a:	e8 61 77 02 00       	call   2bcc0 <stacktrace_print>
    455f:	8b 4d e4             	mov    -0x1c(%ebp),%ecx
    4562:	8d 65 f4             	lea    -0xc(%ebp),%esp
    4565:	89 c8                	mov    %ecx,%eax
    4567:	5b                   	pop    %ebx
    4568:	5e                   	pop    %esi
    4569:	5f                   	pop    %edi
    456a:	5d                   	pop    %ebp
    456b:	c3                   	ret    
    456c:	8d 74 26 00          	lea    0x0(%esi,%eiz,1),%esi

00004570 <block_write_direct>:
    4570:	55                   	push   %ebp
    4571:	89 e5                	mov    %esp,%ebp
    4573:	57                   	push   %edi
    4574:	56                   	push   %esi
    4575:	53                   	push   %ebx
    4576:	83 ec 28             	sub    $0x28,%esp
    4579:	8b 45 08             	mov    0x8(%ebp),%eax
    457c:	8b 75 0c             	mov    0xc(%ebp),%esi
    457f:	68 24 3f 03 00       	push   $0x33f24
    4584:	89 45 e4             	mov    %eax,-0x1c(%ebp)
    4587:	8b 7d 10             	mov    0x10(%ebp),%edi
    458a:	e8 b1 10 01 00       	call   15640 <fibril_mutex_lock>
    458f:	8b 1d 20 3f 03 00    	mov    0x33f20,%ebx
    4595:	83 c4 10             	add    $0x10,%esp
    4598:	81 fb 1c 3f 03 00    	cmp    $0x33f1c,%ebx
    459e:	74 20                	je     45c0 <block_write_direct+0x50>
    45a0:	8b 45 e4             	mov    -0x1c(%ebp),%eax
    45a3:	3b 43 08             	cmp    0x8(%ebx),%eax
    45a6:	75 0d                	jne    45b5 <block_write_direct+0x45>
    45a8:	eb 3e                	jmp    45e8 <block_write_direct+0x78>
    45aa:	8d b6 00 00 00 00    	lea    0x0(%esi),%esi
    45b0:	3b 43 08             	cmp    0x8(%ebx),%eax
    45b3:	74 33                	je     45e8 <block_write_direct+0x78>
    45b5:	8b 5b 04             	mov    0x4(%ebx),%ebx
    45b8:	81 fb 1c 3f 03 00    	cmp    $0x33f1c,%ebx
    45be:	75 f0                	jne    45b0 <block_write_direct+0x40>
    45c0:	83 ec 0c             	sub    $0xc,%esp
    45c3:	68 24 3f 03 00       	push   $0x33f24
    45c8:	e8 f3 11 01 00       	call   157c0 <fibril_mutex_unlock>
    45cd:	83 c4 0c             	add    $0xc,%esp
    45d0:	68 11 03 00 00       	push   $0x311
    45d5:	68 de 01 03 00       	push   $0x301de
    45da:	68 e6 01 03 00       	push   $0x301e6
    45df:	e8 fc 7a 02 00       	call   2c0e0 <assert_abort>
    45e4:	8d 74 26 00          	lea    0x0(%esi,%eiz,1),%esi
    45e8:	83 ec 0c             	sub    $0xc,%esp
    45eb:	68 24 3f 03 00       	push   $0x33f24
    45f0:	e8 cb 11 01 00       	call   157c0 <fibril_mutex_unlock>
    45f5:	58                   	pop    %eax
    45f6:	8b 4b 28             	mov    0x28(%ebx),%ecx
    45f9:	8b 45 14             	mov    0x14(%ebp),%eax
    45fc:	5a                   	pop    %edx
    45fd:	0f af c1             	imul   %ecx,%eax
    4600:	50                   	push   %eax
    4601:	8b 45 18             	mov    0x18(%ebp),%eax
    4604:	50                   	push   %eax
    4605:	8b 45 14             	mov    0x14(%ebp),%eax
    4608:	50                   	push   %eax
    4609:	8b 43 10             	mov    0x10(%ebx),%eax
    460c:	57                   	push   %edi
    460d:	56                   	push   %esi
    460e:	50                   	push   %eax
    460f:	e8 4c 98 00 00       	call   de60 <bd_write_blocks>
    4614:	83 c4 20             	add    $0x20,%esp
    4617:	89 c1                	mov    %eax,%ecx
    4619:	85 c0                	test   %eax,%eax
    461b:	74 25                	je     4642 <block_write_direct+0xd2>
    461d:	50                   	push   %eax
    461e:	50                   	push   %eax
    461f:	8b 53 08             	mov    0x8(%ebx),%edx
    4622:	8b 5d 14             	mov    0x14(%ebp),%ebx
    4625:	52                   	push   %edx
    4626:	57                   	push   %edi
    4627:	56                   	push   %esi
    4628:	53                   	push   %ebx
    4629:	51                   	push   %ecx
    462a:	68 7c 02 03 00       	push   $0x3027c
    462f:	89 4d e4             	mov    %ecx,-0x1c(%ebp)
    4632:	e8 c9 67 01 00       	call   1ae00 <printf>
    4637:	83 c4 20             	add    $0x20,%esp
    463a:	e8 81 76 02 00       	call   2bcc0 <stacktrace_print>
    463f:	8b 4d e4             	mov    -0x1c(%ebp),%ecx
    4642:	8d 65 f4             	lea    -0xc(%ebp),%esp
    4645:	89 c8                	mov    %ecx,%eax
    4647:	5b                   	pop    %ebx
    4648:	5e                   	pop    %esi
    4649:	5f                   	pop    %edi
    464a:	5d                   	pop    %ebp
    464b:	c3                   	ret    
    464c:	8d 74 26 00          	lea    0x0(%esi,%eiz,1),%esi

00004650 <block_sync_cache>:
    4650:	55                   	push   %ebp
    4651:	89 e5                	mov    %esp,%ebp
    4653:	57                   	push   %edi
    4654:	56                   	push   %esi
    4655:	53                   	push   %ebx
    4656:	83 ec 28             	sub    $0x28,%esp
    4659:	8b 55 08             	mov    0x8(%ebp),%edx
    465c:	8b 75 0c             	mov    0xc(%ebp),%esi
    465f:	68 24 3f 03 00       	push   $0x33f24
    4664:	89 55 e4             	mov    %edx,-0x1c(%ebp)
    4667:	8b 7d 10             	mov    0x10(%ebp),%edi
    466a:	8b 5d 14             	mov    0x14(%ebp),%ebx
    466d:	e8 ce 0f 01 00       	call   15640 <fibril_mutex_lock>
    4672:	a1 20 3f 03 00       	mov    0x33f20,%eax
    4677:	83 c4 10             	add    $0x10,%esp
    467a:	3d 1c 3f 03 00       	cmp    $0x33f1c,%eax
    467f:	74 1e                	je     469f <block_sync_cache+0x4f>
    4681:	8b 55 e4             	mov    -0x1c(%ebp),%edx
    4684:	3b 50 08             	cmp    0x8(%eax),%edx
    4687:	75 0c                	jne    4695 <block_sync_cache+0x45>
    4689:	eb 3d                	jmp    46c8 <block_sync_cache+0x78>
    468b:	90                   	nop
    468c:	8d 74 26 00          	lea    0x0(%esi,%eiz,1),%esi
    4690:	3b 50 08             	cmp    0x8(%eax),%edx
    4693:	74 33                	je     46c8 <block_sync_cache+0x78>
    4695:	8b 40 04             	mov    0x4(%eax),%eax
    4698:	3d 1c 3f 03 00       	cmp    $0x33f1c,%eax
    469d:	75 f1                	jne    4690 <block_sync_cache+0x40>
    469f:	83 ec 0c             	sub    $0xc,%esp
    46a2:	68 24 3f 03 00       	push   $0x33f24
    46a7:	e8 14 11 01 00       	call   157c0 <fibril_mutex_unlock>
    46ac:	83 c4 0c             	add    $0xc,%esp
    46af:	68 23 03 00 00       	push   $0x323
    46b4:	68 de 01 03 00       	push   $0x301de
    46b9:	68 e6 01 03 00       	push   $0x301e6
    46be:	e8 1d 7a 02 00       	call   2c0e0 <assert_abort>
    46c3:	90                   	nop
