
ar9271:     file format elf32-i386


Disassembly of section .init:

000010f4 <__entry>:
    10f4:	66 8c d0             	mov    %ss,%ax
    10f7:	8e d8                	mov    %eax,%ds
    10f9:	8e c0                	mov    %eax,%es
    10fb:	8e e0                	mov    %eax,%fs
    10fd:	b8 01 00 00 00       	mov    $0x1,%eax
    1102:	0f a2                	cpuid  
    1104:	0f ba e2 0b          	bt     $0xb,%edx
    1108:	73 0c                	jae    1116 <__entry+0x22>
    110a:	8d 05 c0 0e 02 00    	lea    0x20ec0,%eax
    1110:	c7 00 d0 e7 01 00    	movl   $0x1e7d0,(%eax)
    1116:	6a 00                	push   $0x0
    1118:	6a 00                	push   $0x0
    111a:	89 e5                	mov    %esp,%ebp
    111c:	57                   	push   %edi
    111d:	e8 3e d0 01 00       	call   1e160 <__main@plt>

Disassembly of section .text:

00001140 <ath_usb_read_data_message>:
    1140:	55                   	push   %ebp
    1141:	89 e5                	mov    %esp,%ebp
    1143:	57                   	push   %edi
    1144:	56                   	push   %esi
    1145:	53                   	push   %ebx
    1146:	83 ec 14             	sub    $0x14,%esp
    1149:	8b 45 08             	mov    0x8(%ebp),%eax
    114c:	8b 5d 0c             	mov    0xc(%ebp),%ebx
    114f:	8b 75 10             	mov    0x10(%ebp),%esi
    1152:	8b 7d 14             	mov    0x14(%ebp),%edi
    1155:	8b 40 08             	mov    0x8(%eax),%eax
    1158:	0f bf 50 08          	movswl 0x8(%eax),%edx
    115c:	52                   	push   %edx
    115d:	8b 40 10             	mov    0x10(%eax),%eax
    1160:	50                   	push   %eax
    1161:	e8 fa 2f 00 00       	call   4160 <usb_device_get_mapped_ep>
    1166:	89 7d 14             	mov    %edi,0x14(%ebp)
    1169:	89 75 10             	mov    %esi,0x10(%ebp)
    116c:	89 5d 0c             	mov    %ebx,0xc(%ebp)
    116f:	89 45 08             	mov    %eax,0x8(%ebp)
    1172:	83 c4 10             	add    $0x10,%esp
    1175:	8d 65 f4             	lea    -0xc(%ebp),%esp
    1178:	5b                   	pop    %ebx
    1179:	5e                   	pop    %esi
    117a:	5f                   	pop    %edi
    117b:	5d                   	pop    %ebp
    117c:	e9 cf 3c 00 00       	jmp    4e50 <usb_pipe_read>
    1181:	eb 0d                	jmp    1190 <ath_usb_read_ctrl_message>
    1183:	90                   	nop
    1184:	90                   	nop
    1185:	90                   	nop
    1186:	90                   	nop
    1187:	90                   	nop
    1188:	90                   	nop
    1189:	90                   	nop
    118a:	90                   	nop
    118b:	90                   	nop
    118c:	90                   	nop
    118d:	90                   	nop
    118e:	90                   	nop
    118f:	90                   	nop

00001190 <ath_usb_read_ctrl_message>:
    1190:	55                   	push   %ebp
    1191:	89 e5                	mov    %esp,%ebp
    1193:	57                   	push   %edi
    1194:	56                   	push   %esi
    1195:	53                   	push   %ebx
    1196:	83 ec 14             	sub    $0x14,%esp
    1199:	8b 45 08             	mov    0x8(%ebp),%eax
    119c:	8b 5d 0c             	mov    0xc(%ebp),%ebx
    119f:	8b 75 10             	mov    0x10(%ebp),%esi
    11a2:	8b 7d 14             	mov    0x14(%ebp),%edi
    11a5:	8b 40 08             	mov    0x8(%eax),%eax
    11a8:	0f bf 10             	movswl (%eax),%edx
    11ab:	52                   	push   %edx
    11ac:	8b 40 10             	mov    0x10(%eax),%eax
    11af:	50                   	push   %eax
    11b0:	e8 ab 2f 00 00       	call   4160 <usb_device_get_mapped_ep>
    11b5:	89 7d 14             	mov    %edi,0x14(%ebp)
    11b8:	89 75 10             	mov    %esi,0x10(%ebp)
    11bb:	89 5d 0c             	mov    %ebx,0xc(%ebp)
    11be:	89 45 08             	mov    %eax,0x8(%ebp)
    11c1:	83 c4 10             	add    $0x10,%esp
    11c4:	8d 65 f4             	lea    -0xc(%ebp),%esp
    11c7:	5b                   	pop    %ebx
    11c8:	5e                   	pop    %esi
    11c9:	5f                   	pop    %edi
    11ca:	5d                   	pop    %ebp
    11cb:	e9 80 3c 00 00       	jmp    4e50 <usb_pipe_read>

000011d0 <ath_usb_send_ctrl_message>:
    11d0:	55                   	push   %ebp
    11d1:	89 e5                	mov    %esp,%ebp
    11d3:	56                   	push   %esi
    11d4:	53                   	push   %ebx
    11d5:	8b 45 08             	mov    0x8(%ebp),%eax
    11d8:	8b 5d 0c             	mov    0xc(%ebp),%ebx
    11db:	8b 75 10             	mov    0x10(%ebp),%esi
    11de:	8b 40 08             	mov    0x8(%eax),%eax
    11e1:	52                   	push   %edx
    11e2:	52                   	push   %edx
    11e3:	0f bf 50 04          	movswl 0x4(%eax),%edx
    11e7:	52                   	push   %edx
    11e8:	8b 48 10             	mov    0x10(%eax),%ecx
    11eb:	51                   	push   %ecx
    11ec:	e8 6f 2f 00 00       	call   4160 <usb_device_get_mapped_ep>
    11f1:	89 75 10             	mov    %esi,0x10(%ebp)
    11f4:	89 5d 0c             	mov    %ebx,0xc(%ebp)
    11f7:	89 45 08             	mov    %eax,0x8(%ebp)
    11fa:	83 c4 10             	add    $0x10,%esp
    11fd:	8d 65 f8             	lea    -0x8(%ebp),%esp
    1200:	5b                   	pop    %ebx
    1201:	5e                   	pop    %esi
    1202:	5d                   	pop    %ebp
    1203:	e9 28 3d 00 00       	jmp    4f30 <usb_pipe_write>
    1208:	90                   	nop
    1209:	8d b4 26 00 00 00 00 	lea    0x0(%esi,%eiz,1),%esi

00001210 <ath_usb_send_data_message>:
    1210:	55                   	push   %ebp
    1211:	89 e5                	mov    %esp,%ebp
    1213:	57                   	push   %edi
    1214:	56                   	push   %esi
    1215:	53                   	push   %ebx
    1216:	83 ec 28             	sub    $0x28,%esp
    1219:	8b 75 10             	mov    0x10(%ebp),%esi
    121c:	8d 7e 04             	lea    0x4(%esi),%edi
    121f:	57                   	push   %edi
    1220:	e8 bb d0 01 00       	call   1e2e0 <malloc@plt>
    1225:	83 c4 0c             	add    $0xc,%esp
    1228:	89 c3                	mov    %eax,%ebx
    122a:	8b 45 0c             	mov    0xc(%ebp),%eax
    122d:	56                   	push   %esi
    122e:	50                   	push   %eax
    122f:	8d 43 04             	lea    0x4(%ebx),%eax
    1232:	50                   	push   %eax
    1233:	e8 98 d0 01 00       	call   1e2d0 <memcpy@plt>
    1238:	8b 45 08             	mov    0x8(%ebp),%eax
    123b:	5a                   	pop    %edx
    123c:	66 89 33             	mov    %si,(%ebx)
    123f:	59                   	pop    %ecx
    1240:	8b 40 08             	mov    0x8(%eax),%eax
    1243:	66 c7 43 02 7e 69    	movw   $0x697e,0x2(%ebx)
    1249:	0f bf 50 0c          	movswl 0xc(%eax),%edx
    124d:	8b 70 10             	mov    0x10(%eax),%esi
    1250:	52                   	push   %edx
    1251:	56                   	push   %esi
    1252:	e8 09 2f 00 00       	call   4160 <usb_device_get_mapped_ep>
    1257:	83 c4 0c             	add    $0xc,%esp
    125a:	57                   	push   %edi
    125b:	53                   	push   %ebx
    125c:	50                   	push   %eax
    125d:	e8 ce 3c 00 00       	call   4f30 <usb_pipe_write>
    1262:	89 1c 24             	mov    %ebx,(%esp)
    1265:	89 45 e4             	mov    %eax,-0x1c(%ebp)
    1268:	e8 c3 d5 01 00       	call   1e830 <free@plt>
    126d:	8b 45 e4             	mov    -0x1c(%ebp),%eax
    1270:	8d 65 f4             	lea    -0xc(%ebp),%esp
    1273:	5b                   	pop    %ebx
    1274:	5e                   	pop    %esi
    1275:	5f                   	pop    %edi
    1276:	5d                   	pop    %ebp
    1277:	c3                   	ret    
    1278:	90                   	nop
    1279:	8d b4 26 00 00 00 00 	lea    0x0(%esi,%eiz,1),%esi

00001280 <ath_usb_init>:
    1280:	55                   	push   %ebp
    1281:	89 e5                	mov    %esp,%ebp
    1283:	53                   	push   %ebx
    1284:	83 ec 10             	sub    $0x10,%esp
    1287:	8b 5d 08             	mov    0x8(%ebp),%ebx
    128a:	6a 14                	push   $0x14
    128c:	e8 4f d0 01 00       	call   1e2e0 <malloc@plt>
    1291:	83 c4 10             	add    $0x10,%esp
    1294:	85 c0                	test   %eax,%eax
    1296:	74 3f                	je     12d7 <ath_usb_init+0x57>
    1298:	8b 55 0c             	mov    0xc(%ebp),%edx
    129b:	c7 40 0c 00 00 00 00 	movl   $0x0,0xc(%eax)
    12a2:	89 50 10             	mov    %edx,0x10(%eax)
    12a5:	c7 40 08 01 00 00 00 	movl   $0x1,0x8(%eax)
    12ac:	c7 00 02 00 00 00    	movl   $0x2,(%eax)
    12b2:	c7 40 04 03 00 00 00 	movl   $0x3,0x4(%eax)
    12b9:	89 43 08             	mov    %eax,0x8(%ebx)
    12bc:	c7 43 04 40 00 00 00 	movl   $0x40,0x4(%ebx)
    12c3:	c7 03 00 02 00 00    	movl   $0x200,(%ebx)
    12c9:	c7 43 0c a0 0b 02 00 	movl   $0x20ba0,0xc(%ebx)
    12d0:	31 c0                	xor    %eax,%eax
    12d2:	8b 5d fc             	mov    -0x4(%ebp),%ebx
    12d5:	c9                   	leave  
    12d6:	c3                   	ret    
    12d7:	50                   	push   %eax
    12d8:	68 24 98 01 00       	push   $0x19824
    12dd:	6a 01                	push   $0x1
    12df:	6a ff                	push   $0xffffffff
    12e1:	e8 7a d0 01 00       	call   1e360 <log_msg@plt>
    12e6:	83 c4 10             	add    $0x10,%esp
    12e9:	b8 fe ff ff ff       	mov    $0xfffffffe,%eax
    12ee:	eb e2                	jmp    12d2 <ath_usb_init+0x52>

000012f0 <hw_set_reset>:
    12f0:	55                   	push   %ebp
    12f1:	89 e5                	mov    %esp,%ebp
    12f3:	57                   	push   %edi
    12f4:	56                   	push   %esi
    12f5:	53                   	push   %ebx
    12f6:	83 ec 30             	sub    $0x30,%esp
    12f9:	80 fa 01             	cmp    $0x1,%dl
    12fc:	89 c6                	mov    %eax,%esi
    12fe:	c7 45 d0 4c 70 00 00 	movl   $0x704c,-0x30(%ebp)
    1305:	19 c0                	sbb    %eax,%eax
    1307:	6a 03                	push   $0x3
    1309:	83 e0 fe             	and    $0xfffffffe,%eax
    130c:	c7 45 d4 03 00 00 00 	movl   $0x3,-0x2c(%ebp)
    1313:	83 c0 03             	add    $0x3,%eax
    1316:	c7 45 d8 00 40 00 00 	movl   $0x4000,-0x28(%ebp)
    131d:	89 45 e4             	mov    %eax,-0x1c(%ebp)
    1320:	8d 45 d0             	lea    -0x30(%ebp),%eax
    1323:	50                   	push   %eax
    1324:	8b 46 24             	mov    0x24(%esi),%eax
    1327:	50                   	push   %eax
    1328:	c7 45 dc 01 00 00 00 	movl   $0x1,-0x24(%ebp)
    132f:	c7 45 e0 00 70 00 00 	movl   $0x7000,-0x20(%ebp)
    1336:	e8 55 0d 00 00       	call   2090 <wmi_reg_buffer_write>
    133b:	c7 04 24 64 00 00 00 	movl   $0x64,(%esp)
    1342:	e8 a9 d1 01 00       	call   1e4f0 <udelay@plt>
    1347:	83 c4 0c             	add    $0xc,%esp
    134a:	8b 46 24             	mov    0x24(%esi),%eax
    134d:	bb e8 03 00 00       	mov    $0x3e8,%ebx
    1352:	8d 7d cc             	lea    -0x34(%ebp),%edi
    1355:	6a 00                	push   $0x0
    1357:	68 00 70 00 00       	push   $0x7000
    135c:	50                   	push   %eax
    135d:	e8 be 0c 00 00       	call   2020 <wmi_reg_write>
    1362:	83 c4 10             	add    $0x10,%esp
    1365:	eb 04                	jmp    136b <hw_set_reset+0x7b>
    1367:	90                   	nop
    1368:	4b                   	dec    %ebx
    1369:	74 5d                	je     13c8 <hw_set_reset+0xd8>
    136b:	83 ec 0c             	sub    $0xc,%esp
    136e:	6a 0a                	push   $0xa
    1370:	e8 7b d1 01 00       	call   1e4f0 <udelay@plt>
    1375:	83 c4 0c             	add    $0xc,%esp
    1378:	8b 46 24             	mov    0x24(%esi),%eax
    137b:	57                   	push   %edi
    137c:	68 00 70 00 00       	push   $0x7000
    1381:	50                   	push   %eax
    1382:	e8 29 0c 00 00       	call   1fb0 <wmi_reg_read>
    1387:	83 c4 10             	add    $0x10,%esp
    138a:	f6 45 cc 03          	testb  $0x3,-0x34(%ebp)
    138e:	75 d8                	jne    1368 <hw_set_reset+0x78>
    1390:	8b 4e 24             	mov    0x24(%esi),%ecx
    1393:	52                   	push   %edx
    1394:	6a 00                	push   $0x0
    1396:	68 00 40 00 00       	push   $0x4000
    139b:	51                   	push   %ecx
    139c:	e8 7f 0c 00 00       	call   2020 <wmi_reg_write>
    13a1:	83 c4 0c             	add    $0xc,%esp
    13a4:	8b 5e 24             	mov    0x24(%esi),%ebx
    13a7:	68 00 00 04 00       	push   $0x40000
    13ac:	68 04 80 00 00       	push   $0x8004
    13b1:	53                   	push   %ebx
    13b2:	e8 99 0e 00 00       	call   2250 <wmi_reg_clear_bit>
    13b7:	83 c4 10             	add    $0x10,%esp
    13ba:	8d 65 f4             	lea    -0xc(%ebp),%esp
    13bd:	31 c0                	xor    %eax,%eax
    13bf:	5b                   	pop    %ebx
    13c0:	5e                   	pop    %esi
    13c1:	5f                   	pop    %edi
    13c2:	5d                   	pop    %ebp
    13c3:	c3                   	ret    
    13c4:	8d 74 26 00          	lea    0x0(%esi,%eiz,1),%esi
    13c8:	50                   	push   %eax
    13c9:	68 60 98 01 00       	push   $0x19860
    13ce:	6a 01                	push   $0x1
    13d0:	6a ff                	push   $0xffffffff
    13d2:	e8 89 cf 01 00       	call   1e360 <log_msg@plt>
    13d7:	83 c4 10             	add    $0x10,%esp
    13da:	8d 65 f4             	lea    -0xc(%ebp),%esp
    13dd:	b8 f3 ff ff ff       	mov    $0xfffffff3,%eax
    13e2:	5b                   	pop    %ebx
    13e3:	5e                   	pop    %esi
    13e4:	5f                   	pop    %edi
    13e5:	5d                   	pop    %ebp
    13e6:	c3                   	ret    
    13e7:	89 f6                	mov    %esi,%esi
    13e9:	8d bc 27 00 00 00 00 	lea    0x0(%edi,%eiz,1),%edi

000013f0 <hw_noise_floor_calibration>:
    13f0:	55                   	push   %ebp
    13f1:	89 e5                	mov    %esp,%ebp
    13f3:	57                   	push   %edi
    13f4:	56                   	push   %esi
    13f5:	53                   	push   %ebx
    13f6:	83 ec 20             	sub    $0x20,%esp
    13f9:	89 c6                	mov    %eax,%esi
    13fb:	8d 45 e0             	lea    -0x20(%ebp),%eax
    13fe:	bb e8 03 00 00       	mov    $0x3e8,%ebx
    1403:	50                   	push   %eax
    1404:	8b 46 24             	mov    0x24(%esi),%eax
    1407:	68 64 98 00 00       	push   $0x9864
    140c:	50                   	push   %eax
    140d:	e8 9e 0b 00 00       	call   1fb0 <wmi_reg_read>
    1412:	8b 45 e0             	mov    -0x20(%ebp),%eax
    1415:	83 c4 0c             	add    $0xc,%esp
    1418:	25 00 fe ff ff       	and    $0xfffffe00,%eax
    141d:	0d 14 01 00 00       	or     $0x114,%eax
    1422:	8d 7d e4             	lea    -0x1c(%ebp),%edi
    1425:	50                   	push   %eax
    1426:	89 45 e0             	mov    %eax,-0x20(%ebp)
    1429:	8b 46 24             	mov    0x24(%esi),%eax
    142c:	68 64 98 00 00       	push   $0x9864
    1431:	50                   	push   %eax
    1432:	e8 e9 0b 00 00       	call   2020 <wmi_reg_write>
    1437:	83 c4 0c             	add    $0xc,%esp
    143a:	8b 46 24             	mov    0x24(%esi),%eax
    143d:	68 00 80 00 00       	push   $0x8000
    1442:	68 60 98 00 00       	push   $0x9860
    1447:	50                   	push   %eax
    1448:	e8 03 0e 00 00       	call   2250 <wmi_reg_clear_bit>
    144d:	83 c4 0c             	add    $0xc,%esp
    1450:	8b 46 24             	mov    0x24(%esi),%eax
    1453:	68 00 00 02 00       	push   $0x20000
    1458:	68 60 98 00 00       	push   $0x9860
    145d:	50                   	push   %eax
    145e:	e8 ed 0d 00 00       	call   2250 <wmi_reg_clear_bit>
    1463:	83 c4 0c             	add    $0xc,%esp
    1466:	8b 46 24             	mov    0x24(%esi),%eax
    1469:	6a 02                	push   $0x2
    146b:	68 60 98 00 00       	push   $0x9860
    1470:	50                   	push   %eax
    1471:	e8 ca 0c 00 00       	call   2140 <wmi_reg_set_bit>
    1476:	83 c4 10             	add    $0x10,%esp
    1479:	eb 08                	jmp    1483 <hw_noise_floor_calibration+0x93>
    147b:	90                   	nop
    147c:	8d 74 26 00          	lea    0x0(%esi,%eiz,1),%esi
    1480:	4b                   	dec    %ebx
    1481:	74 75                	je     14f8 <hw_noise_floor_calibration+0x108>
    1483:	83 ec 0c             	sub    $0xc,%esp
    1486:	6a 0a                	push   $0xa
    1488:	e8 63 d0 01 00       	call   1e4f0 <udelay@plt>
    148d:	83 c4 0c             	add    $0xc,%esp
    1490:	8b 46 24             	mov    0x24(%esi),%eax
    1493:	57                   	push   %edi
    1494:	68 60 98 00 00       	push   $0x9860
    1499:	50                   	push   %eax
    149a:	e8 11 0b 00 00       	call   1fb0 <wmi_reg_read>
    149f:	83 c4 10             	add    $0x10,%esp
    14a2:	f6 45 e4 02          	testb  $0x2,-0x1c(%ebp)
    14a6:	75 d8                	jne    1480 <hw_noise_floor_calibration+0x90>
    14a8:	52                   	push   %edx
    14a9:	68 00 80 00 00       	push   $0x8000
    14ae:	8b 4e 24             	mov    0x24(%esi),%ecx
    14b1:	68 60 98 00 00       	push   $0x9860
    14b6:	51                   	push   %ecx
    14b7:	e8 84 0c 00 00       	call   2140 <wmi_reg_set_bit>
    14bc:	83 c4 0c             	add    $0xc,%esp
    14bf:	8b 5e 24             	mov    0x24(%esi),%ebx
    14c2:	68 00 00 02 00       	push   $0x20000
    14c7:	68 60 98 00 00       	push   $0x9860
    14cc:	53                   	push   %ebx
    14cd:	e8 7e 0d 00 00       	call   2250 <wmi_reg_clear_bit>
    14d2:	83 c4 0c             	add    $0xc,%esp
    14d5:	8b 76 24             	mov    0x24(%esi),%esi
    14d8:	6a 02                	push   $0x2
    14da:	68 60 98 00 00       	push   $0x9860
    14df:	56                   	push   %esi
    14e0:	e8 5b 0c 00 00       	call   2140 <wmi_reg_set_bit>
    14e5:	83 c4 10             	add    $0x10,%esp
    14e8:	8d 65 f4             	lea    -0xc(%ebp),%esp
    14eb:	31 c0                	xor    %eax,%eax
    14ed:	5b                   	pop    %ebx
    14ee:	5e                   	pop    %esi
    14ef:	5f                   	pop    %edi
    14f0:	5d                   	pop    %ebp
    14f1:	c3                   	ret    
    14f2:	8d b6 00 00 00 00    	lea    0x0(%esi),%esi
    14f8:	50                   	push   %eax
    14f9:	68 88 98 01 00       	push   $0x19888
    14fe:	6a 01                	push   $0x1
    1500:	6a ff                	push   $0xffffffff
    1502:	e8 59 ce 01 00       	call   1e360 <log_msg@plt>
    1507:	83 c4 10             	add    $0x10,%esp
    150a:	8d 65 f4             	lea    -0xc(%ebp),%esp
    150d:	b8 f3 ff ff ff       	mov    $0xfffffff3,%eax
    1512:	5b                   	pop    %ebx
    1513:	5e                   	pop    %esi
    1514:	5f                   	pop    %edi
    1515:	5d                   	pop    %ebp
    1516:	c3                   	ret    
    1517:	89 f6                	mov    %esi,%esi
    1519:	8d bc 27 00 00 00 00 	lea    0x0(%edi,%eiz,1),%edi

00001520 <hw_freq_switch>:
    1520:	55                   	push   %ebp
    1521:	89 e5                	mov    %esp,%ebp
    1523:	57                   	push   %edi
    1524:	56                   	push   %esi
    1525:	53                   	push   %ebx
    1526:	83 ec 30             	sub    $0x30,%esp
    1529:	bb e8 03 00 00       	mov    $0x3e8,%ebx
    152e:	8b 75 08             	mov    0x8(%ebp),%esi
    1531:	8b 45 0c             	mov    0xc(%ebp),%eax
    1534:	89 45 d4             	mov    %eax,-0x2c(%ebp)
    1537:	6a 01                	push   $0x1
    1539:	8b 46 24             	mov    0x24(%esi),%eax
    153c:	68 7c 99 00 00       	push   $0x997c
    1541:	50                   	push   %eax
    1542:	8d 7d e4             	lea    -0x1c(%ebp),%edi
    1545:	e8 d6 0a 00 00       	call   2020 <wmi_reg_write>
    154a:	83 c4 10             	add    $0x10,%esp
    154d:	eb 08                	jmp    1557 <hw_freq_switch+0x37>
    154f:	90                   	nop
    1550:	4b                   	dec    %ebx
    1551:	0f 84 39 01 00 00    	je     1690 <hw_freq_switch+0x170>
    1557:	83 ec 0c             	sub    $0xc,%esp
    155a:	6a 0a                	push   $0xa
    155c:	e8 8f cf 01 00       	call   1e4f0 <udelay@plt>
    1561:	83 c4 0c             	add    $0xc,%esp
    1564:	8b 46 24             	mov    0x24(%esi),%eax
    1567:	57                   	push   %edi
    1568:	68 20 9c 00 00       	push   $0x9c20
    156d:	50                   	push   %eax
    156e:	e8 3d 0a 00 00       	call   1fb0 <wmi_reg_read>
    1573:	83 c4 10             	add    $0x10,%esp
    1576:	f6 45 e4 01          	testb  $0x1,-0x1c(%ebp)
    157a:	74 d4                	je     1550 <hw_freq_switch+0x30>
    157c:	8b 45 d4             	mov    -0x2c(%ebp),%eax
    157f:	2d 6c 09 00 00       	sub    $0x96c,%eax
    1584:	66 83 f8 3c          	cmp    $0x3c,%ax
    1588:	0f 87 21 01 00 00    	ja     16af <hw_freq_switch+0x18f>
    158e:	31 db                	xor    %ebx,%ebx
    1590:	b9 05 00 00 00       	mov    $0x5,%ecx
    1595:	66 8b 5d d4          	mov    -0x2c(%ebp),%bx
    1599:	8d 83 94 f6 ff ff    	lea    -0x96c(%ebx),%eax
    159f:	89 c2                	mov    %eax,%edx
    15a1:	c1 fa 1f             	sar    $0x1f,%edx
    15a4:	f7 f9                	idiv   %ecx
    15a6:	85 d2                	test   %edx,%edx
    15a8:	0f 85 01 01 00 00    	jne    16af <hw_freq_switch+0x18f>
    15ae:	50                   	push   %eax
    15af:	8d 45 e0             	lea    -0x20(%ebp),%eax
    15b2:	50                   	push   %eax
    15b3:	8b 46 24             	mov    0x24(%esi),%eax
    15b6:	68 04 a2 00 00       	push   $0xa204
    15bb:	50                   	push   %eax
    15bc:	e8 ef 09 00 00       	call   1fb0 <wmi_reg_read>
    15c1:	83 c4 0c             	add    $0xc,%esp
    15c4:	8b 45 e0             	mov    -0x20(%ebp),%eax
    15c7:	83 e0 ef             	and    $0xffffffef,%eax
    15ca:	50                   	push   %eax
    15cb:	8b 46 24             	mov    0x24(%esi),%eax
    15ce:	68 04 a2 00 00       	push   $0xa204
    15d3:	50                   	push   %eax
    15d4:	e8 47 0a 00 00       	call   2020 <wmi_reg_write>
    15d9:	83 c4 0c             	add    $0xc,%esp
    15dc:	57                   	push   %edi
    15dd:	89 df                	mov    %ebx,%edi
    15df:	c1 e7 10             	shl    $0x10,%edi
    15e2:	8b 46 24             	mov    0x24(%esi),%eax
    15e5:	68 74 98 00 00       	push   $0x9874
    15ea:	50                   	push   %eax
    15eb:	e8 c0 09 00 00       	call   1fb0 <wmi_reg_read>
    15f0:	89 f8                	mov    %edi,%eax
    15f2:	ba 89 88 88 88       	mov    $0x88888889,%edx
    15f7:	8b 4d e4             	mov    -0x1c(%ebp),%ecx
    15fa:	f7 ea                	imul   %edx
    15fc:	01 fa                	add    %edi,%edx
    15fe:	81 e1 00 00 00 c0    	and    $0xc0000000,%ecx
    1604:	c1 ff 1f             	sar    $0x1f,%edi
    1607:	83 c4 0c             	add    $0xc,%esp
    160a:	c1 fa 03             	sar    $0x3,%edx
    160d:	81 c9 00 00 00 30    	or     $0x30000000,%ecx
    1613:	29 fa                	sub    %edi,%edx
    1615:	8b 46 24             	mov    0x24(%esi),%eax
    1618:	09 d1                	or     %edx,%ecx
    161a:	51                   	push   %ecx
    161b:	89 4d e4             	mov    %ecx,-0x1c(%ebp)
    161e:	68 74 98 00 00       	push   $0x9874
    1623:	50                   	push   %eax
    1624:	e8 f7 09 00 00       	call   2020 <wmi_reg_write>
    1629:	8b 4e 1c             	mov    0x1c(%esi),%ecx
    162c:	58                   	pop    %eax
    162d:	5a                   	pop    %edx
    162e:	53                   	push   %ebx
    162f:	51                   	push   %ecx
    1630:	e8 eb 26 01 00       	call   13d20 <ieee80211_report_current_freq>
    1635:	83 c4 0c             	add    $0xc,%esp
    1638:	8b 5e 24             	mov    0x24(%esi),%ebx
    163b:	6a 01                	push   $0x1
    163d:	68 1c 98 00 00       	push   $0x981c
    1642:	53                   	push   %ebx
    1643:	e8 d8 09 00 00       	call   2020 <wmi_reg_write>
    1648:	c7 04 24 e8 03 00 00 	movl   $0x3e8,(%esp)
    164f:	e8 9c ce 01 00       	call   1e4f0 <udelay@plt>
    1654:	c7 04 24 e8 03 00 00 	movl   $0x3e8,(%esp)
    165b:	e8 90 ce 01 00       	call   1e4f0 <udelay@plt>
    1660:	83 c4 0c             	add    $0xc,%esp
    1663:	8b 7e 24             	mov    0x24(%esi),%edi
    1666:	6a 00                	push   $0x0
    1668:	68 7c 99 00 00       	push   $0x997c
    166d:	57                   	push   %edi
    166e:	e8 ad 09 00 00       	call   2020 <wmi_reg_write>
    1673:	89 f0                	mov    %esi,%eax
    1675:	e8 76 fd ff ff       	call   13f0 <hw_noise_floor_calibration>
    167a:	83 c4 10             	add    $0x10,%esp
    167d:	85 c0                	test   %eax,%eax
    167f:	75 4f                	jne    16d0 <hw_freq_switch+0x1b0>
    1681:	8d 65 f4             	lea    -0xc(%ebp),%esp
    1684:	5b                   	pop    %ebx
    1685:	5e                   	pop    %esi
    1686:	5f                   	pop    %edi
    1687:	5d                   	pop    %ebp
    1688:	c3                   	ret    
    1689:	8d b4 26 00 00 00 00 	lea    0x0(%esi,%eiz,1),%esi
    1690:	52                   	push   %edx
    1691:	68 94 99 01 00       	push   $0x19994
    1696:	6a 01                	push   $0x1
    1698:	6a ff                	push   $0xffffffff
    169a:	e8 c1 cc 01 00       	call   1e360 <log_msg@plt>
    169f:	83 c4 10             	add    $0x10,%esp
    16a2:	8d 65 f4             	lea    -0xc(%ebp),%esp
    16a5:	b8 f3 ff ff ff       	mov    $0xfffffff3,%eax
    16aa:	5b                   	pop    %ebx
    16ab:	5e                   	pop    %esi
    16ac:	5f                   	pop    %edi
    16ad:	5d                   	pop    %ebp
    16ae:	c3                   	ret    
    16af:	50                   	push   %eax
    16b0:	68 ac 99 01 00       	push   $0x199ac
    16b5:	6a 01                	push   $0x1
    16b7:	6a ff                	push   $0xffffffff
    16b9:	e8 a2 cc 01 00       	call   1e360 <log_msg@plt>
    16be:	83 c4 10             	add    $0x10,%esp
    16c1:	8d 65 f4             	lea    -0xc(%ebp),%esp
    16c4:	b8 f2 ff ff ff       	mov    $0xfffffff2,%eax
    16c9:	5b                   	pop    %ebx
    16ca:	5e                   	pop    %esi
    16cb:	5f                   	pop    %edi
    16cc:	5d                   	pop    %ebp
    16cd:	c3                   	ret    
    16ce:	66 90                	xchg   %ax,%ax
    16d0:	51                   	push   %ecx
    16d1:	68 76 99 01 00       	push   $0x19976
    16d6:	6a 01                	push   $0x1
    16d8:	6a ff                	push   $0xffffffff
    16da:	89 45 d4             	mov    %eax,-0x2c(%ebp)
    16dd:	e8 7e cc 01 00       	call   1e360 <log_msg@plt>
    16e2:	8b 45 d4             	mov    -0x2c(%ebp),%eax
    16e5:	83 c4 10             	add    $0x10,%esp
    16e8:	8d 65 f4             	lea    -0xc(%ebp),%esp
    16eb:	5b                   	pop    %ebx
    16ec:	5e                   	pop    %esi
    16ed:	5f                   	pop    %edi
    16ee:	5d                   	pop    %ebp
    16ef:	c3                   	ret    

000016f0 <hw_set_rx_filter>:
    16f0:	55                   	push   %ebp
    16f1:	89 e5                	mov    %esp,%ebp
    16f3:	83 ec 0c             	sub    $0xc,%esp
    16f6:	80 7d 0c 01          	cmpb   $0x1,0xc(%ebp)
    16fa:	19 c0                	sbb    %eax,%eax
    16fc:	25 10 fe ff ff       	and    $0xfffffe10,%eax
    1701:	05 07 02 00 00       	add    $0x207,%eax
    1706:	50                   	push   %eax
    1707:	8b 45 08             	mov    0x8(%ebp),%eax
    170a:	68 3c 80 00 00       	push   $0x803c
    170f:	8b 40 24             	mov    0x24(%eax),%eax
    1712:	50                   	push   %eax
    1713:	e8 08 09 00 00       	call   2020 <wmi_reg_write>
    1718:	31 c0                	xor    %eax,%eax
    171a:	c9                   	leave  
    171b:	c3                   	ret    
    171c:	8d 74 26 00          	lea    0x0(%esi,%eiz,1),%esi

00001720 <hw_set_bssid>:
    1720:	55                   	push   %ebp
    1721:	89 e5                	mov    %esp,%ebp
    1723:	57                   	push   %edi
    1724:	56                   	push   %esi
    1725:	53                   	push   %ebx
    1726:	83 ec 24             	sub    $0x24,%esp
    1729:	8d 45 e2             	lea    -0x1e(%ebp),%eax
    172c:	8b 5d 08             	mov    0x8(%ebp),%ebx
    172f:	31 f6                	xor    %esi,%esi
    1731:	8b 7b 1c             	mov    0x1c(%ebx),%edi
    1734:	50                   	push   %eax
    1735:	57                   	push   %edi
    1736:	e8 a5 23 01 00       	call   13ae0 <ieee80211_query_bssid>
    173b:	83 c4 0c             	add    $0xc,%esp
    173e:	8b 53 24             	mov    0x24(%ebx),%edx
    1741:	8b 45 e2             	mov    -0x1e(%ebp),%eax
    1744:	50                   	push   %eax
    1745:	68 08 80 00 00       	push   $0x8008
    174a:	52                   	push   %edx
    174b:	e8 d0 08 00 00       	call   2020 <wmi_reg_write>
    1750:	66 8b 75 e6          	mov    -0x1a(%ebp),%si
    1754:	89 3c 24             	mov    %edi,(%esp)
    1757:	e8 04 24 01 00       	call   13b60 <ieee80211_get_aid>
    175c:	83 c4 0c             	add    $0xc,%esp
    175f:	c1 e0 10             	shl    $0x10,%eax
    1762:	8b 4b 24             	mov    0x24(%ebx),%ecx
    1765:	25 00 00 ff 3f       	and    $0x3fff0000,%eax
    176a:	09 f0                	or     %esi,%eax
    176c:	50                   	push   %eax
    176d:	68 0c 80 00 00       	push   $0x800c
    1772:	51                   	push   %ecx
    1773:	e8 a8 08 00 00       	call   2020 <wmi_reg_write>
    1778:	8d 65 f4             	lea    -0xc(%ebp),%esp
    177b:	31 c0                	xor    %eax,%eax
    177d:	5b                   	pop    %ebx
    177e:	5e                   	pop    %esi
    177f:	5f                   	pop    %edi
    1780:	5d                   	pop    %ebp
    1781:	c3                   	ret    
    1782:	8d b4 26 00 00 00 00 	lea    0x0(%esi,%eiz,1),%esi
    1789:	8d bc 27 00 00 00 00 	lea    0x0(%edi,%eiz,1),%edi

00001790 <hw_rx_init>:
    1790:	55                   	push   %ebp
    1791:	89 e5                	mov    %esp,%ebp
    1793:	53                   	push   %ebx
    1794:	83 ec 08             	sub    $0x8,%esp
    1797:	8b 5d 08             	mov    0x8(%ebp),%ebx
    179a:	6a 04                	push   $0x4
    179c:	6a 08                	push   $0x8
    179e:	8b 53 24             	mov    0x24(%ebx),%edx
    17a1:	52                   	push   %edx
    17a2:	e8 79 08 00 00       	call   2020 <wmi_reg_write>
    17a7:	83 c4 0c             	add    $0xc,%esp
    17aa:	8b 4b 24             	mov    0x24(%ebx),%ecx
    17ad:	6a 17                	push   $0x17
    17af:	68 3c 80 00 00       	push   $0x803c
    17b4:	51                   	push   %ecx
    17b5:	e8 66 08 00 00       	call   2020 <wmi_reg_write>
    17ba:	83 c4 0c             	add    $0xc,%esp
    17bd:	8b 43 24             	mov    0x24(%ebx),%eax
    17c0:	6a ff                	push   $0xffffffff
    17c2:	68 40 80 00 00       	push   $0x8040
    17c7:	50                   	push   %eax
    17c8:	e8 53 08 00 00       	call   2020 <wmi_reg_write>
    17cd:	83 c4 0c             	add    $0xc,%esp
    17d0:	8b 43 24             	mov    0x24(%ebx),%eax
    17d3:	6a ff                	push   $0xffffffff
    17d5:	68 44 80 00 00       	push   $0x8044
    17da:	50                   	push   %eax
    17db:	e8 40 08 00 00       	call   2020 <wmi_reg_write>
    17e0:	83 c4 0c             	add    $0xc,%esp
    17e3:	8b 43 24             	mov    0x24(%ebx),%eax
    17e6:	68 20 00 00 02       	push   $0x2000020
    17eb:	68 48 80 00 00       	push   $0x8048
    17f0:	50                   	push   %eax
    17f1:	e8 5a 0a 00 00       	call   2250 <wmi_reg_clear_bit>
    17f6:	31 c0                	xor    %eax,%eax
    17f8:	8b 5d fc             	mov    -0x4(%ebp),%ebx
    17fb:	c9                   	leave  
    17fc:	c3                   	ret    
    17fd:	8d 76 00             	lea    0x0(%esi),%esi

00001800 <hw_reset>:
    1800:	55                   	push   %ebp
    1801:	89 e5                	mov    %esp,%ebp
    1803:	57                   	push   %edi
    1804:	56                   	push   %esi
    1805:	53                   	push   %ebx
    1806:	83 ec 30             	sub    $0x30,%esp
    1809:	8b 75 08             	mov    0x8(%ebp),%esi
    180c:	6a 00                	push   $0x0
    180e:	68 1c 98 00 00       	push   $0x981c
    1813:	8b 46 24             	mov    0x24(%esi),%eax
    1816:	50                   	push   %eax
    1817:	e8 04 08 00 00       	call   2020 <wmi_reg_write>
    181c:	83 c4 10             	add    $0x10,%esp
    181f:	80 7e 10 00          	cmpb   $0x0,0x10(%esi)
    1823:	0f 85 34 03 00 00    	jne    1b5d <hw_reset+0x35d>
    1829:	50                   	push   %eax
    182a:	8d 45 dc             	lea    -0x24(%ebp),%eax
    182d:	50                   	push   %eax
    182e:	8b 46 24             	mov    0x24(%esi),%eax
    1831:	6a 08                	push   $0x8
    1833:	50                   	push   %eax
    1834:	e8 77 07 00 00       	call   1fb0 <wmi_reg_read>
    1839:	83 c4 10             	add    $0x10,%esp
    183c:	f6 45 dc 04          	testb  $0x4,-0x24(%ebp)
    1840:	0f 85 06 03 00 00    	jne    1b4c <hw_reset+0x34c>
    1846:	52                   	push   %edx
    1847:	68 2c 14 00 00       	push   $0x142c
    184c:	8b 4e 24             	mov    0x24(%esi),%ecx
    184f:	68 14 70 00 00       	push   $0x7014
    1854:	51                   	push   %ecx
    1855:	e8 c6 07 00 00       	call   2020 <wmi_reg_write>
    185a:	83 c4 0c             	add    $0xc,%esp
    185d:	8b 5e 24             	mov    0x24(%esi),%ebx
    1860:	6a 02                	push   $0x2
    1862:	68 48 70 00 00       	push   $0x7048
    1867:	53                   	push   %ebx
    1868:	e8 b3 07 00 00       	call   2020 <wmi_reg_write>
    186d:	83 c4 0c             	add    $0xc,%esp
    1870:	8b 7e 24             	mov    0x24(%esi),%edi
    1873:	6a 01                	push   $0x1
    1875:	68 4c 70 00 00       	push   $0x704c
    187a:	57                   	push   %edi
    187b:	e8 c0 08 00 00       	call   2140 <wmi_reg_set_bit>
    1880:	c7 04 24 f4 01 00 00 	movl   $0x1f4,(%esp)
    1887:	e8 64 cc 01 00       	call   1e4f0 <udelay@plt>
    188c:	83 c4 0c             	add    $0xc,%esp
    188f:	8b 46 24             	mov    0x24(%esi),%eax
    1892:	68 04 03 00 00       	push   $0x304
    1897:	68 40 00 05 00       	push   $0x50040
    189c:	50                   	push   %eax
    189d:	e8 7e 07 00 00       	call   2020 <wmi_reg_write>
    18a2:	c7 04 24 64 00 00 00 	movl   $0x64,(%esp)
    18a9:	e8 42 cc 01 00       	call   1e4f0 <udelay@plt>
    18ae:	83 c4 10             	add    $0x10,%esp
    18b1:	80 7e 10 00          	cmpb   $0x0,0x10(%esi)
    18b5:	0f 85 db 02 00 00    	jne    1b96 <hw_reset+0x396>
    18bb:	bb c0 a5 01 00       	mov    $0x1a5c0,%ebx
    18c0:	bf 38 af 01 00       	mov    $0x1af38,%edi
    18c5:	8d 76 00             	lea    0x0(%esi),%esi
    18c8:	50                   	push   %eax
    18c9:	83 c3 08             	add    $0x8,%ebx
    18cc:	8b 43 fc             	mov    -0x4(%ebx),%eax
    18cf:	50                   	push   %eax
    18d0:	8b 43 f8             	mov    -0x8(%ebx),%eax
    18d3:	50                   	push   %eax
    18d4:	8b 46 24             	mov    0x24(%esi),%eax
    18d7:	50                   	push   %eax
    18d8:	e8 43 07 00 00       	call   2020 <wmi_reg_write>
    18dd:	83 c4 10             	add    $0x10,%esp
    18e0:	39 df                	cmp    %ebx,%edi
    18e2:	75 e4                	jne    18c8 <hw_reset+0xc8>
    18e4:	bb a0 a4 01 00       	mov    $0x1a4a0,%ebx
    18e9:	bf a8 a5 01 00       	mov    $0x1a5a8,%edi
    18ee:	66 90                	xchg   %ax,%ax
    18f0:	50                   	push   %eax
    18f1:	83 c3 08             	add    $0x8,%ebx
    18f4:	8b 43 fc             	mov    -0x4(%ebx),%eax
    18f7:	8b 4e 24             	mov    0x24(%esi),%ecx
    18fa:	50                   	push   %eax
    18fb:	8b 53 f8             	mov    -0x8(%ebx),%edx
    18fe:	52                   	push   %edx
    18ff:	51                   	push   %ecx
    1900:	e8 1b 07 00 00       	call   2020 <wmi_reg_write>
    1905:	83 c4 10             	add    $0x10,%esp
    1908:	39 df                	cmp    %ebx,%edi
    190a:	75 e4                	jne    18f0 <hw_reset+0xf0>
    190c:	bb 80 9a 01 00       	mov    $0x19a80,%ebx
    1911:	bf 88 a4 01 00       	mov    $0x1a488,%edi
    1916:	66 90                	xchg   %ax,%ax
    1918:	50                   	push   %eax
    1919:	83 c3 08             	add    $0x8,%ebx
    191c:	8b 43 fc             	mov    -0x4(%ebx),%eax
    191f:	50                   	push   %eax
    1920:	8b 43 f8             	mov    -0x8(%ebx),%eax
    1923:	50                   	push   %eax
    1924:	8b 46 24             	mov    0x24(%esi),%eax
    1927:	50                   	push   %eax
    1928:	e8 f3 06 00 00       	call   2020 <wmi_reg_write>
    192d:	83 c4 10             	add    $0x10,%esp
    1930:	39 df                	cmp    %ebx,%edi
    1932:	75 e4                	jne    1918 <hw_reset+0x118>
    1934:	50                   	push   %eax
    1935:	6a 04                	push   $0x4
    1937:	8b 46 24             	mov    0x24(%esi),%eax
    193a:	68 00 a2 00 00       	push   $0xa200
    193f:	50                   	push   %eax
    1940:	e8 db 06 00 00       	call   2020 <wmi_reg_write>
    1945:	83 c4 0c             	add    $0xc,%esp
    1948:	8b 56 24             	mov    0x24(%esi),%edx
    194b:	6a 20                	push   $0x20
    194d:	6a 14                	push   $0x14
    194f:	52                   	push   %edx
    1950:	e8 fb 08 00 00       	call   2250 <wmi_reg_clear_bit>
    1955:	8b 4e 24             	mov    0x24(%esi),%ecx
    1958:	68 00 00 03 00       	push   $0x30000
    195d:	68 00 00 00 10       	push   $0x10000000
    1962:	68 04 80 00 00       	push   $0x8004
    1967:	51                   	push   %ecx
    1968:	e8 d3 09 00 00       	call   2340 <wmi_reg_set_clear_bit>
    196d:	83 c4 18             	add    $0x18,%esp
    1970:	8b 5e 1c             	mov    0x1c(%esi),%ebx
    1973:	6a 03                	push   $0x3
    1975:	53                   	push   %ebx
    1976:	e8 75 23 01 00       	call   13cf0 <ieee80211_report_current_op_mode>
    197b:	83 c4 0c             	add    $0xc,%esp
    197e:	8b 7e 24             	mov    0x24(%esi),%edi
    1981:	8d 45 e0             	lea    -0x20(%ebp),%eax
    1984:	50                   	push   %eax
    1985:	68 04 a2 00 00       	push   $0xa204
    198a:	57                   	push   %edi
    198b:	e8 20 06 00 00       	call   1fb0 <wmi_reg_read>
    1990:	83 c4 0c             	add    $0xc,%esp
    1993:	8b 45 e0             	mov    -0x20(%ebp),%eax
    1996:	83 e0 ef             	and    $0xffffffef,%eax
    1999:	8d 7d e4             	lea    -0x1c(%ebp),%edi
    199c:	50                   	push   %eax
    199d:	8b 46 24             	mov    0x24(%esi),%eax
    19a0:	68 04 a2 00 00       	push   $0xa204
    19a5:	50                   	push   %eax
    19a6:	e8 75 06 00 00       	call   2020 <wmi_reg_write>
    19ab:	83 c4 0c             	add    $0xc,%esp
    19ae:	8b 46 24             	mov    0x24(%esi),%eax
    19b1:	57                   	push   %edi
    19b2:	68 74 98 00 00       	push   $0x9874
    19b7:	50                   	push   %eax
    19b8:	e8 f3 05 00 00       	call   1fb0 <wmi_reg_read>
    19bd:	8b 45 e4             	mov    -0x1c(%ebp),%eax
    19c0:	83 c4 0c             	add    $0xc,%esp
    19c3:	25 00 00 00 c0       	and    $0xc0000000,%eax
    19c8:	0d cc cc a0 30       	or     $0x30a0cccc,%eax
    19cd:	bb 00 10 00 00       	mov    $0x1000,%ebx
    19d2:	50                   	push   %eax
    19d3:	89 45 e4             	mov    %eax,-0x1c(%ebp)
    19d6:	8b 46 24             	mov    0x24(%esi),%eax
    19d9:	68 74 98 00 00       	push   $0x9874
    19de:	50                   	push   %eax
    19df:	e8 3c 06 00 00       	call   2020 <wmi_reg_write>
    19e4:	8b 4e 1c             	mov    0x1c(%esi),%ecx
    19e7:	58                   	pop    %eax
    19e8:	5a                   	pop    %edx
    19e9:	68 6c 09 00 00       	push   $0x96c
    19ee:	51                   	push   %ecx
    19ef:	e8 2c 23 01 00       	call   13d20 <ieee80211_report_current_freq>
    19f4:	83 c4 10             	add    $0x10,%esp
    19f7:	31 c9                	xor    %ecx,%ecx
    19f9:	8d b4 26 00 00 00 00 	lea    0x0(%esi,%eiz,1),%esi
    1a00:	50                   	push   %eax
    1a01:	b8 01 00 00 00       	mov    $0x1,%eax
    1a06:	d3 e0                	shl    %cl,%eax
    1a08:	50                   	push   %eax
    1a09:	8b 46 24             	mov    0x24(%esi),%eax
    1a0c:	53                   	push   %ebx
    1a0d:	89 4d d4             	mov    %ecx,-0x2c(%ebp)
    1a10:	50                   	push   %eax
    1a11:	e8 0a 06 00 00       	call   2020 <wmi_reg_write>
    1a16:	8b 4d d4             	mov    -0x2c(%ebp),%ecx
    1a19:	83 c3 04             	add    $0x4,%ebx
    1a1c:	41                   	inc    %ecx
    1a1d:	83 c4 10             	add    $0x10,%esp
    1a20:	83 f9 0a             	cmp    $0xa,%ecx
    1a23:	75 db                	jne    1a00 <hw_reset+0x200>
    1a25:	50                   	push   %eax
    1a26:	6a 01                	push   $0x1
    1a28:	8b 46 24             	mov    0x24(%esi),%eax
    1a2b:	68 1c 98 00 00       	push   $0x981c
    1a30:	50                   	push   %eax
    1a31:	e8 ea 05 00 00       	call   2020 <wmi_reg_write>
    1a36:	c7 04 24 e8 03 00 00 	movl   $0x3e8,(%esp)
    1a3d:	e8 ae ca 01 00       	call   1e4f0 <udelay@plt>
    1a42:	83 c4 0c             	add    $0xc,%esp
    1a45:	8b 56 24             	mov    0x24(%esi),%edx
    1a48:	6a 02                	push   $0x2
    1a4a:	68 58 a3 00 00       	push   $0xa358
    1a4f:	52                   	push   %edx
    1a50:	e8 eb 06 00 00       	call   2140 <wmi_reg_set_bit>
    1a55:	83 c4 0c             	add    $0xc,%esp
    1a58:	8b 4e 24             	mov    0x24(%esi),%ecx
    1a5b:	68 00 80 00 00       	push   $0x8000
    1a60:	68 2c 98 00 00       	push   $0x982c
    1a65:	51                   	push   %ecx
    1a66:	e8 e5 07 00 00       	call   2250 <wmi_reg_clear_bit>
    1a6b:	83 c4 0c             	add    $0xc,%esp
    1a6e:	8b 5e 24             	mov    0x24(%esi),%ebx
    1a71:	68 00 00 01 00       	push   $0x10000
    1a76:	68 60 98 00 00       	push   $0x9860
    1a7b:	53                   	push   %ebx
    1a7c:	e8 bf 06 00 00       	call   2140 <wmi_reg_set_bit>
    1a81:	83 c4 0c             	add    $0xc,%esp
    1a84:	8b 46 24             	mov    0x24(%esi),%eax
    1a87:	bb e8 03 00 00       	mov    $0x3e8,%ebx
    1a8c:	68 00 00 40 00       	push   $0x400000
    1a91:	68 58 a2 00 00       	push   $0xa258
    1a96:	50                   	push   %eax
    1a97:	e8 a4 06 00 00       	call   2140 <wmi_reg_set_bit>
    1a9c:	83 c4 0c             	add    $0xc,%esp
    1a9f:	8b 46 24             	mov    0x24(%esi),%eax
    1aa2:	6a 01                	push   $0x1
    1aa4:	68 60 98 00 00       	push   $0x9860
    1aa9:	50                   	push   %eax
    1aaa:	e8 91 06 00 00       	call   2140 <wmi_reg_set_bit>
    1aaf:	83 c4 10             	add    $0x10,%esp
    1ab2:	eb 0b                	jmp    1abf <hw_reset+0x2bf>
    1ab4:	8d 74 26 00          	lea    0x0(%esi,%eiz,1),%esi
    1ab8:	4b                   	dec    %ebx
    1ab9:	0f 84 ff 00 00 00    	je     1bbe <hw_reset+0x3be>
    1abf:	83 ec 0c             	sub    $0xc,%esp
    1ac2:	6a 0a                	push   $0xa
    1ac4:	e8 27 ca 01 00       	call   1e4f0 <udelay@plt>
    1ac9:	83 c4 0c             	add    $0xc,%esp
    1acc:	8b 46 24             	mov    0x24(%esi),%eax
    1acf:	57                   	push   %edi
    1ad0:	68 60 98 00 00       	push   $0x9860
    1ad5:	50                   	push   %eax
    1ad6:	e8 d5 04 00 00       	call   1fb0 <wmi_reg_read>
    1adb:	83 c4 10             	add    $0x10,%esp
    1ade:	f6 45 e4 01          	testb  $0x1,-0x1c(%ebp)
    1ae2:	75 d4                	jne    1ab8 <hw_reset+0x2b8>
    1ae4:	57                   	push   %edi
    1ae5:	68 00 80 00 00       	push   $0x8000
    1aea:	8b 46 24             	mov    0x24(%esi),%eax
    1aed:	68 2c 98 00 00       	push   $0x982c
    1af2:	50                   	push   %eax
    1af3:	e8 48 06 00 00       	call   2140 <wmi_reg_set_bit>
    1af8:	83 c4 0c             	add    $0xc,%esp
    1afb:	8b 46 24             	mov    0x24(%esi),%eax
    1afe:	6a 02                	push   $0x2
    1b00:	68 58 a3 00 00       	push   $0xa358
    1b05:	50                   	push   %eax
    1b06:	e8 45 07 00 00       	call   2250 <wmi_reg_clear_bit>
    1b0b:	83 c4 0c             	add    $0xc,%esp
    1b0e:	8b 46 24             	mov    0x24(%esi),%eax
    1b11:	68 00 00 01 00       	push   $0x10000
    1b16:	68 60 98 00 00       	push   $0x9860
    1b1b:	50                   	push   %eax
    1b1c:	e8 2f 07 00 00       	call   2250 <wmi_reg_clear_bit>
    1b21:	89 f0                	mov    %esi,%eax
    1b23:	e8 c8 f8 ff ff       	call   13f0 <hw_noise_floor_calibration>
    1b28:	83 c4 10             	add    $0x10,%esp
    1b2b:	89 c3                	mov    %eax,%ebx
    1b2d:	85 c0                	test   %eax,%eax
    1b2f:	75 51                	jne    1b82 <hw_reset+0x382>
    1b31:	52                   	push   %edx
    1b32:	6a 0a                	push   $0xa
    1b34:	8b 4e 24             	mov    0x24(%esi),%ecx
    1b37:	6a 14                	push   $0x14
    1b39:	51                   	push   %ecx
    1b3a:	e8 e1 04 00 00       	call   2020 <wmi_reg_write>
    1b3f:	83 c4 10             	add    $0x10,%esp
    1b42:	8d 65 f4             	lea    -0xc(%ebp),%esp
    1b45:	89 d8                	mov    %ebx,%eax
    1b47:	5b                   	pop    %ebx
    1b48:	5e                   	pop    %esi
    1b49:	5f                   	pop    %edi
    1b4a:	5d                   	pop    %ebp
    1b4b:	c3                   	ret    
    1b4c:	ba 01 00 00 00       	mov    $0x1,%edx
    1b51:	89 f0                	mov    %esi,%eax
    1b53:	e8 98 f7 ff ff       	call   12f0 <hw_set_reset>
    1b58:	e9 e9 fc ff ff       	jmp    1846 <hw_reset+0x46>
    1b5d:	50                   	push   %eax
    1b5e:	6a 20                	push   $0x20
    1b60:	8b 46 24             	mov    0x24(%esi),%eax
    1b63:	68 44 00 05 00       	push   $0x50044
    1b68:	50                   	push   %eax
    1b69:	e8 b2 04 00 00       	call   2020 <wmi_reg_write>
    1b6e:	c7 04 24 32 00 00 00 	movl   $0x32,(%esp)
    1b75:	e8 76 c9 01 00       	call   1e4f0 <udelay@plt>
    1b7a:	83 c4 10             	add    $0x10,%esp
    1b7d:	e9 a7 fc ff ff       	jmp    1829 <hw_reset+0x29>
    1b82:	56                   	push   %esi
    1b83:	68 ac 98 01 00       	push   $0x198ac
    1b88:	6a 01                	push   $0x1
    1b8a:	6a ff                	push   $0xffffffff
    1b8c:	e8 cf c7 01 00       	call   1e360 <log_msg@plt>
    1b91:	83 c4 10             	add    $0x10,%esp
    1b94:	eb ac                	jmp    1b42 <hw_reset+0x342>
    1b96:	50                   	push   %eax
    1b97:	68 00 40 00 00       	push   $0x4000
    1b9c:	8b 46 24             	mov    0x24(%esi),%eax
    1b9f:	68 44 00 05 00       	push   $0x50044
    1ba4:	50                   	push   %eax
    1ba5:	e8 76 04 00 00       	call   2020 <wmi_reg_write>
    1baa:	c7 04 24 32 00 00 00 	movl   $0x32,(%esp)
    1bb1:	e8 3a c9 01 00       	call   1e4f0 <udelay@plt>
    1bb6:	83 c4 10             	add    $0x10,%esp
    1bb9:	e9 fd fc ff ff       	jmp    18bb <hw_reset+0xbb>
    1bbe:	50                   	push   %eax
    1bbf:	68 d0 98 01 00       	push   $0x198d0
    1bc4:	6a 01                	push   $0x1
    1bc6:	6a ff                	push   $0xffffffff
    1bc8:	e8 93 c7 01 00       	call   1e360 <log_msg@plt>
    1bcd:	83 c4 0c             	add    $0xc,%esp
    1bd0:	68 c9 99 01 00       	push   $0x199c9
    1bd5:	6a 01                	push   $0x1
    1bd7:	6a ff                	push   $0xffffffff
    1bd9:	e8 82 c7 01 00       	call   1e360 <log_msg@plt>
    1bde:	83 c4 10             	add    $0x10,%esp
    1be1:	8d 65 f4             	lea    -0xc(%ebp),%esp
    1be4:	bb f3 ff ff ff       	mov    $0xfffffff3,%ebx
    1be9:	89 d8                	mov    %ebx,%eax
    1beb:	5b                   	pop    %ebx
    1bec:	5e                   	pop    %esi
    1bed:	5f                   	pop    %edi
    1bee:	5d                   	pop    %ebp
    1bef:	c3                   	ret    

00001bf0 <hw_init>:
    1bf0:	55                   	push   %ebp
    1bf1:	b9 06 00 00 00       	mov    $0x6,%ecx
    1bf6:	89 e5                	mov    %esp,%ebp
    1bf8:	57                   	push   %edi
    1bf9:	56                   	push   %esi
    1bfa:	53                   	push   %ebx
    1bfb:	83 ec 30             	sub    $0x30,%esp
    1bfe:	8d 45 d0             	lea    -0x30(%ebp),%eax
    1c01:	8b 5d 08             	mov    0x8(%ebp),%ebx
    1c04:	8d 7d d0             	lea    -0x30(%ebp),%edi
    1c07:	be 60 9a 01 00       	mov    $0x19a60,%esi
    1c0c:	f3 a5                	rep movsl %ds:(%esi),%es:(%edi)
    1c0e:	6a 03                	push   $0x3
    1c10:	50                   	push   %eax
    1c11:	8b 43 24             	mov    0x24(%ebx),%eax
    1c14:	be e8 03 00 00       	mov    $0x3e8,%esi
    1c19:	50                   	push   %eax
    1c1a:	e8 71 04 00 00       	call   2090 <wmi_reg_buffer_write>
    1c1f:	c7 04 24 02 00 00 00 	movl   $0x2,(%esp)
    1c26:	e8 c5 c8 01 00       	call   1e4f0 <udelay@plt>
    1c2b:	83 c4 0c             	add    $0xc,%esp
    1c2e:	8b 43 24             	mov    0x24(%ebx),%eax
    1c31:	8d 7d cc             	lea    -0x34(%ebp),%edi
    1c34:	6a 00                	push   $0x0
    1c36:	68 00 40 00 00       	push   $0x4000
    1c3b:	50                   	push   %eax
    1c3c:	e8 df 03 00 00       	call   2020 <wmi_reg_write>
    1c41:	83 c4 0c             	add    $0xc,%esp
    1c44:	8b 53 24             	mov    0x24(%ebx),%edx
    1c47:	6a 01                	push   $0x1
    1c49:	68 40 70 00 00       	push   $0x7040
    1c4e:	52                   	push   %edx
    1c4f:	e8 cc 03 00 00       	call   2020 <wmi_reg_write>
    1c54:	83 c4 10             	add    $0x10,%esp
    1c57:	eb 0e                	jmp    1c67 <hw_init+0x77>
    1c59:	8d b4 26 00 00 00 00 	lea    0x0(%esi,%eiz,1),%esi
    1c60:	4e                   	dec    %esi
    1c61:	0f 84 61 01 00 00    	je     1dc8 <hw_init+0x1d8>
    1c67:	83 ec 0c             	sub    $0xc,%esp
    1c6a:	6a 0a                	push   $0xa
    1c6c:	e8 7f c8 01 00       	call   1e4f0 <udelay@plt>
    1c71:	83 c4 0c             	add    $0xc,%esp
    1c74:	8b 43 24             	mov    0x24(%ebx),%eax
    1c77:	57                   	push   %edi
    1c78:	68 44 70 00 00       	push   $0x7044
    1c7d:	50                   	push   %eax
    1c7e:	e8 2d 03 00 00       	call   1fb0 <wmi_reg_read>
    1c83:	8b 45 cc             	mov    -0x34(%ebp),%eax
    1c86:	83 c4 10             	add    $0x10,%esp
    1c89:	83 e0 0f             	and    $0xf,%eax
    1c8c:	83 f8 02             	cmp    $0x2,%eax
    1c8f:	75 cf                	jne    1c60 <hw_init+0x70>
    1c91:	31 d2                	xor    %edx,%edx
    1c93:	89 d8                	mov    %ebx,%eax
    1c95:	e8 56 f6 ff ff       	call   12f0 <hw_set_reset>
    1c9a:	89 c6                	mov    %eax,%esi
    1c9c:	85 c0                	test   %eax,%eax
    1c9e:	0f 85 f4 00 00 00    	jne    1d98 <hw_init+0x1a8>
    1ca4:	8d 55 d0             	lea    -0x30(%ebp),%edx
    1ca7:	89 5d 08             	mov    %ebx,0x8(%ebp)
    1caa:	be 18 21 00 00       	mov    $0x2118,%esi
    1caf:	89 d3                	mov    %edx,%ebx
    1cb1:	50                   	push   %eax
    1cb2:	8b 45 08             	mov    0x8(%ebp),%eax
    1cb5:	57                   	push   %edi
    1cb6:	56                   	push   %esi
    1cb7:	8b 40 24             	mov    0x24(%eax),%eax
    1cba:	83 c6 04             	add    $0x4,%esi
    1cbd:	50                   	push   %eax
    1cbe:	e8 ed 02 00 00       	call   1fb0 <wmi_reg_read>
    1cc3:	8b 45 cc             	mov    -0x34(%ebp),%eax
    1cc6:	83 c3 02             	add    $0x2,%ebx
    1cc9:	89 c1                	mov    %eax,%ecx
    1ccb:	88 43 fe             	mov    %al,-0x2(%ebx)
    1cce:	66 c1 c1 08          	rol    $0x8,%cx
    1cd2:	88 4b ff             	mov    %cl,-0x1(%ebx)
    1cd5:	83 c4 10             	add    $0x10,%esp
    1cd8:	81 fe 24 21 00 00    	cmp    $0x2124,%esi
    1cde:	75 d1                	jne    1cb1 <hw_init+0xc1>
    1ce0:	8b 5d 08             	mov    0x8(%ebp),%ebx
    1ce3:	83 ec 0c             	sub    $0xc,%esp
    1ce6:	8b 43 14             	mov    0x14(%ebx),%eax
    1ce9:	50                   	push   %eax
    1cea:	e8 61 f3 00 00       	call   11050 <nic_get_from_ddf_dev>
    1cef:	5a                   	pop    %edx
    1cf0:	8d 55 d0             	lea    -0x30(%ebp),%edx
    1cf3:	59                   	pop    %ecx
    1cf4:	52                   	push   %edx
    1cf5:	50                   	push   %eax
    1cf6:	e8 a5 e9 00 00       	call   106a0 <nic_report_address>
    1cfb:	83 c4 10             	add    $0x10,%esp
    1cfe:	89 c6                	mov    %eax,%esi
    1d00:	85 c0                	test   %eax,%eax
    1d02:	0f 85 ea 00 00 00    	jne    1df2 <hw_init+0x202>
    1d08:	52                   	push   %edx
    1d09:	8d 45 d0             	lea    -0x30(%ebp),%eax
    1d0c:	8b 4b 24             	mov    0x24(%ebx),%ecx
    1d0f:	50                   	push   %eax
    1d10:	68 68 40 00 00       	push   $0x4068
    1d15:	51                   	push   %ecx
    1d16:	e8 95 02 00 00       	call   1fb0 <wmi_reg_read>
    1d1b:	8b 55 d0             	mov    -0x30(%ebp),%edx
    1d1e:	8d 04 12             	lea    (%edx,%edx,1),%eax
    1d21:	83 c4 0c             	add    $0xc,%esp
    1d24:	81 e2 0f 7e f0 ff    	and    $0xfff07e0f,%edx
    1d2a:	25 e0 03 00 00       	and    $0x3e0,%eax
    1d2f:	09 d0                	or     %edx,%eax
    1d31:	8b 7b 24             	mov    0x24(%ebx),%edi
    1d34:	50                   	push   %eax
    1d35:	89 45 d0             	mov    %eax,-0x30(%ebp)
    1d38:	68 68 40 00 00       	push   $0x4068
    1d3d:	57                   	push   %edi
    1d3e:	e8 dd 02 00 00       	call   2020 <wmi_reg_write>
    1d43:	8b 43 24             	mov    0x24(%ebx),%eax
    1d46:	68 00 00 00 c0       	push   $0xc0000000
    1d4b:	68 00 00 00 c0       	push   $0xc0000000
    1d50:	68 4c 40 00 00       	push   $0x404c
    1d55:	50                   	push   %eax
    1d56:	e8 e5 05 00 00       	call   2340 <wmi_reg_set_clear_bit>
    1d5b:	83 c4 20             	add    $0x20,%esp
    1d5e:	8b 43 24             	mov    0x24(%ebx),%eax
    1d61:	68 00 80 00 00       	push   $0x8000
    1d66:	68 00 80 00 00       	push   $0x8000
    1d6b:	68 48 40 00 00       	push   $0x4048
    1d70:	50                   	push   %eax
    1d71:	e8 ca 05 00 00       	call   2340 <wmi_reg_set_clear_bit>
    1d76:	83 c4 0c             	add    $0xc,%esp
    1d79:	68 4c 99 01 00       	push   $0x1994c
    1d7e:	6a 03                	push   $0x3
    1d80:	6a ff                	push   $0xffffffff
    1d82:	e8 d9 c5 01 00       	call   1e360 <log_msg@plt>
    1d87:	83 c4 10             	add    $0x10,%esp
    1d8a:	8d 65 f4             	lea    -0xc(%ebp),%esp
    1d8d:	89 f0                	mov    %esi,%eax
    1d8f:	5b                   	pop    %ebx
    1d90:	5e                   	pop    %esi
    1d91:	5f                   	pop    %edi
    1d92:	5d                   	pop    %ebp
    1d93:	c3                   	ret    
    1d94:	8d 74 26 00          	lea    0x0(%esi,%eiz,1),%esi
    1d98:	50                   	push   %eax
    1d99:	68 e6 99 01 00       	push   $0x199e6
    1d9e:	6a 01                	push   $0x1
    1da0:	6a ff                	push   $0xffffffff
    1da2:	e8 b9 c5 01 00       	call   1e360 <log_msg@plt>
    1da7:	83 c4 10             	add    $0x10,%esp
    1daa:	50                   	push   %eax
    1dab:	68 37 9a 01 00       	push   $0x19a37
    1db0:	6a 01                	push   $0x1
    1db2:	6a ff                	push   $0xffffffff
    1db4:	e8 a7 c5 01 00       	call   1e360 <log_msg@plt>
    1db9:	83 c4 10             	add    $0x10,%esp
    1dbc:	8d 65 f4             	lea    -0xc(%ebp),%esp
    1dbf:	89 f0                	mov    %esi,%eax
    1dc1:	5b                   	pop    %ebx
    1dc2:	5e                   	pop    %esi
    1dc3:	5f                   	pop    %edi
    1dc4:	5d                   	pop    %ebp
    1dc5:	c3                   	ret    
    1dc6:	66 90                	xchg   %ax,%ax
    1dc8:	50                   	push   %eax
    1dc9:	68 20 99 01 00       	push   $0x19920
    1dce:	6a 01                	push   $0x1
    1dd0:	6a ff                	push   $0xffffffff
    1dd2:	e8 89 c5 01 00       	call   1e360 <log_msg@plt>
    1dd7:	83 c4 0c             	add    $0xc,%esp
    1dda:	68 19 9a 01 00       	push   $0x19a19
    1ddf:	6a 01                	push   $0x1
    1de1:	6a ff                	push   $0xffffffff
    1de3:	be f3 ff ff ff       	mov    $0xfffffff3,%esi
    1de8:	e8 73 c5 01 00       	call   1e360 <log_msg@plt>
    1ded:	83 c4 10             	add    $0x10,%esp
    1df0:	eb b8                	jmp    1daa <hw_init+0x1ba>
    1df2:	50                   	push   %eax
    1df3:	68 fc 98 01 00       	push   $0x198fc
    1df8:	6a 01                	push   $0x1
    1dfa:	6a ff                	push   $0xffffffff
    1dfc:	e8 5f c5 01 00       	call   1e360 <log_msg@plt>
    1e01:	83 c4 0c             	add    $0xc,%esp
    1e04:	68 00 9a 01 00       	push   $0x19a00
    1e09:	6a 01                	push   $0x1
    1e0b:	6a ff                	push   $0xffffffff
    1e0d:	e8 4e c5 01 00       	call   1e360 <log_msg@plt>
    1e12:	83 c4 10             	add    $0x10,%esp
    1e15:	eb 93                	jmp    1daa <hw_init+0x1ba>
    1e17:	66 90                	xchg   %ax,%ax
    1e19:	66 90                	xchg   %ax,%ax
    1e1b:	66 90                	xchg   %ax,%ax
    1e1d:	66 90                	xchg   %ax,%ax
    1e1f:	90                   	nop

00001e20 <wmi_send_command>:
    1e20:	55                   	push   %ebp
    1e21:	89 e5                	mov    %esp,%ebp
    1e23:	57                   	push   %edi
    1e24:	56                   	push   %esi
    1e25:	53                   	push   %ebx
    1e26:	83 ec 28             	sub    $0x28,%esp
    1e29:	8b 45 14             	mov    0x14(%ebp),%eax
    1e2c:	8b 7d 08             	mov    0x8(%ebp),%edi
    1e2f:	8b 5d 18             	mov    0x18(%ebp),%ebx
    1e32:	8d 70 0c             	lea    0xc(%eax),%esi
    1e35:	56                   	push   %esi
    1e36:	e8 a5 c4 01 00       	call   1e2e0 <malloc@plt>
    1e3b:	8b 4d 10             	mov    0x10(%ebp),%ecx
    1e3e:	83 c4 10             	add    $0x10,%esp
    1e41:	89 45 e4             	mov    %eax,-0x1c(%ebp)
    1e44:	85 c9                	test   %ecx,%ecx
    1e46:	74 15                	je     1e5d <wmi_send_command+0x3d>
    1e48:	8b 4d 14             	mov    0x14(%ebp),%ecx
    1e4b:	52                   	push   %edx
    1e4c:	83 c0 0c             	add    $0xc,%eax
    1e4f:	8b 55 10             	mov    0x10(%ebp),%edx
    1e52:	51                   	push   %ecx
    1e53:	52                   	push   %edx
    1e54:	50                   	push   %eax
    1e55:	e8 76 c4 01 00       	call   1e2d0 <memcpy@plt>
    1e5a:	83 c4 10             	add    $0x10,%esp
    1e5d:	8b 4d e4             	mov    -0x1c(%ebp),%ecx
    1e60:	8b 45 0c             	mov    0xc(%ebp),%eax
    1e63:	66 c1 c0 08          	rol    $0x8,%ax
    1e67:	66 89 41 08          	mov    %ax,0x8(%ecx)
    1e6b:	8b 07                	mov    (%edi),%eax
    1e6d:	40                   	inc    %eax
    1e6e:	66 89 07             	mov    %ax,(%edi)
    1e71:	66 c1 c0 08          	rol    $0x8,%ax
    1e75:	66 89 41 0a          	mov    %ax,0xa(%ecx)
    1e79:	31 c0                	xor    %eax,%eax
    1e7b:	8a 47 08             	mov    0x8(%edi),%al
    1e7e:	50                   	push   %eax
    1e7f:	56                   	push   %esi
    1e80:	51                   	push   %ecx
    1e81:	57                   	push   %edi
    1e82:	e8 89 08 00 00       	call   2710 <htc_send_control_message>
    1e87:	83 c4 10             	add    $0x10,%esp
    1e8a:	85 c0                	test   %eax,%eax
    1e8c:	0f 85 86 00 00 00    	jne    1f18 <wmi_send_command+0xf8>
    1e92:	83 ec 0c             	sub    $0xc,%esp
    1e95:	8b 4d e4             	mov    -0x1c(%ebp),%ecx
    1e98:	51                   	push   %ecx
    1e99:	e8 92 c9 01 00       	call   1e830 <free@plt>
    1e9e:	8b 47 50             	mov    0x50(%edi),%eax
    1ea1:	83 c4 10             	add    $0x10,%esp
    1ea4:	c6 45 e0 00          	movb   $0x0,-0x20(%ebp)
    1ea8:	85 db                	test   %ebx,%ebx
    1eaa:	8b 70 04             	mov    0x4(%eax),%esi
    1ead:	0f 84 e2 00 00 00    	je     1f95 <wmi_send_command+0x175>
    1eb3:	83 fe 0b             	cmp    $0xb,%esi
    1eb6:	77 19                	ja     1ed1 <wmi_send_command+0xb1>
    1eb8:	eb 7b                	jmp    1f35 <wmi_send_command+0x115>
    1eba:	8d b6 00 00 00 00    	lea    0x0(%esi),%esi
    1ec0:	66 8b 53 08          	mov    0x8(%ebx),%dx
    1ec4:	66 c1 c2 08          	rol    $0x8,%dx
    1ec8:	80 e6 10             	and    $0x10,%dh
    1ecb:	0f 84 a7 00 00 00    	je     1f78 <wmi_send_command+0x158>
    1ed1:	6a 00                	push   $0x0
    1ed3:	56                   	push   %esi
    1ed4:	53                   	push   %ebx
    1ed5:	57                   	push   %edi
    1ed6:	e8 f5 08 00 00       	call   27d0 <htc_read_control_message>
    1edb:	83 c4 10             	add    $0x10,%esp
    1ede:	85 c0                	test   %eax,%eax
    1ee0:	74 de                	je     1ec0 <wmi_send_command+0xa0>
    1ee2:	83 ec 0c             	sub    $0xc,%esp
    1ee5:	8b 55 e4             	mov    -0x1c(%ebp),%edx
    1ee8:	89 45 e0             	mov    %eax,-0x20(%ebp)
    1eeb:	52                   	push   %edx
    1eec:	e8 3f c9 01 00       	call   1e830 <free@plt>
    1ef1:	8b 45 e0             	mov    -0x20(%ebp),%eax
    1ef4:	50                   	push   %eax
    1ef5:	89 45 e4             	mov    %eax,-0x1c(%ebp)
    1ef8:	68 60 af 01 00       	push   $0x1af60
    1efd:	6a 01                	push   $0x1
    1eff:	6a ff                	push   $0xffffffff
    1f01:	e8 5a c4 01 00       	call   1e360 <log_msg@plt>
    1f06:	83 c4 20             	add    $0x20,%esp
    1f09:	8b 45 e4             	mov    -0x1c(%ebp),%eax
    1f0c:	8d 65 f4             	lea    -0xc(%ebp),%esp
    1f0f:	5b                   	pop    %ebx
    1f10:	5e                   	pop    %esi
    1f11:	5f                   	pop    %edi
    1f12:	5d                   	pop    %ebp
    1f13:	c3                   	ret    
    1f14:	8d 74 26 00          	lea    0x0(%esi,%eiz,1),%esi
    1f18:	83 ec 0c             	sub    $0xc,%esp
    1f1b:	8b 5d e4             	mov    -0x1c(%ebp),%ebx
    1f1e:	89 45 e0             	mov    %eax,-0x20(%ebp)
    1f21:	53                   	push   %ebx
    1f22:	e8 09 c9 01 00       	call   1e830 <free@plt>
    1f27:	8b 45 e0             	mov    -0x20(%ebp),%eax
    1f2a:	50                   	push   %eax
    1f2b:	89 45 e4             	mov    %eax,-0x1c(%ebp)
    1f2e:	68 38 af 01 00       	push   $0x1af38
    1f33:	eb c8                	jmp    1efd <wmi_send_command+0xdd>
    1f35:	6a 00                	push   $0x0
    1f37:	56                   	push   %esi
    1f38:	53                   	push   %ebx
    1f39:	57                   	push   %edi
    1f3a:	e8 91 08 00 00       	call   27d0 <htc_read_control_message>
    1f3f:	83 c4 10             	add    $0x10,%esp
    1f42:	85 c0                	test   %eax,%eax
    1f44:	75 9c                	jne    1ee2 <wmi_send_command+0xc2>
    1f46:	83 ec 0c             	sub    $0xc,%esp
    1f49:	8b 45 e4             	mov    -0x1c(%ebp),%eax
    1f4c:	50                   	push   %eax
    1f4d:	e8 de c8 01 00       	call   1e830 <free@plt>
    1f52:	83 c4 0c             	add    $0xc,%esp
    1f55:	68 61 b0 01 00       	push   $0x1b061
    1f5a:	6a 01                	push   $0x1
    1f5c:	6a ff                	push   $0xffffffff
    1f5e:	e8 fd c3 01 00       	call   1e360 <log_msg@plt>
    1f63:	83 c4 10             	add    $0x10,%esp
    1f66:	8d 65 f4             	lea    -0xc(%ebp),%esp
    1f69:	b8 f2 ff ff ff       	mov    $0xfffffff2,%eax
    1f6e:	5b                   	pop    %ebx
    1f6f:	5e                   	pop    %esi
    1f70:	5f                   	pop    %edi
    1f71:	5d                   	pop    %ebp
    1f72:	c3                   	ret    
    1f73:	90                   	nop
    1f74:	8d 74 26 00          	lea    0x0(%esi,%eiz,1),%esi
    1f78:	80 7d e0 00          	cmpb   $0x0,-0x20(%ebp)
    1f7c:	74 8e                	je     1f0c <wmi_send_command+0xec>
    1f7e:	83 ec 0c             	sub    $0xc,%esp
    1f81:	89 45 e4             	mov    %eax,-0x1c(%ebp)
    1f84:	53                   	push   %ebx
    1f85:	e8 a6 c8 01 00       	call   1e830 <free@plt>
    1f8a:	83 c4 10             	add    $0x10,%esp
    1f8d:	8b 45 e4             	mov    -0x1c(%ebp),%eax
    1f90:	e9 77 ff ff ff       	jmp    1f0c <wmi_send_command+0xec>
    1f95:	83 ec 0c             	sub    $0xc,%esp
    1f98:	56                   	push   %esi
    1f99:	e8 42 c3 01 00       	call   1e2e0 <malloc@plt>
    1f9e:	83 c4 10             	add    $0x10,%esp
    1fa1:	89 c3                	mov    %eax,%ebx
    1fa3:	c6 45 e0 01          	movb   $0x1,-0x20(%ebp)
    1fa7:	e9 07 ff ff ff       	jmp    1eb3 <wmi_send_command+0x93>
    1fac:	8d 74 26 00          	lea    0x0(%esi,%eiz,1),%esi

00001fb0 <wmi_reg_read>:
    1fb0:	55                   	push   %ebp
    1fb1:	89 e5                	mov    %esp,%ebp
    1fb3:	56                   	push   %esi
    1fb4:	53                   	push   %ebx
    1fb5:	83 ec 2c             	sub    $0x2c,%esp
    1fb8:	8b 5d 08             	mov    0x8(%ebp),%ebx
    1fbb:	8b 45 0c             	mov    0xc(%ebp),%eax
    1fbe:	0f c8                	bswap  %eax
    1fc0:	89 45 f4             	mov    %eax,-0xc(%ebp)
    1fc3:	8b 43 50             	mov    0x50(%ebx),%eax
    1fc6:	8b 50 04             	mov    0x4(%eax),%edx
    1fc9:	52                   	push   %edx
    1fca:	e8 11 c3 01 00       	call   1e2e0 <malloc@plt>
    1fcf:	89 04 24             	mov    %eax,(%esp)
    1fd2:	89 c6                	mov    %eax,%esi
    1fd4:	8d 45 f4             	lea    -0xc(%ebp),%eax
    1fd7:	6a 04                	push   $0x4
    1fd9:	50                   	push   %eax
    1fda:	6a 14                	push   $0x14
    1fdc:	53                   	push   %ebx
    1fdd:	e8 3e fe ff ff       	call   1e20 <wmi_send_command>
    1fe2:	83 c4 20             	add    $0x20,%esp
    1fe5:	85 c0                	test   %eax,%eax
    1fe7:	75 17                	jne    2000 <wmi_reg_read+0x50>
    1fe9:	8b 56 0c             	mov    0xc(%esi),%edx
    1fec:	8b 4d 10             	mov    0x10(%ebp),%ecx
    1fef:	0f ca                	bswap  %edx
    1ff1:	89 11                	mov    %edx,(%ecx)
    1ff3:	8d 65 f8             	lea    -0x8(%ebp),%esp
    1ff6:	5b                   	pop    %ebx
    1ff7:	5e                   	pop    %esi
    1ff8:	5d                   	pop    %ebp
    1ff9:	c3                   	ret    
    1ffa:	8d b6 00 00 00 00    	lea    0x0(%esi),%esi
    2000:	89 45 e4             	mov    %eax,-0x1c(%ebp)
    2003:	50                   	push   %eax
    2004:	68 94 af 01 00       	push   $0x1af94
    2009:	6a 01                	push   $0x1
    200b:	6a ff                	push   $0xffffffff
    200d:	e8 4e c3 01 00       	call   1e360 <log_msg@plt>
    2012:	8b 45 e4             	mov    -0x1c(%ebp),%eax
    2015:	83 c4 10             	add    $0x10,%esp
    2018:	8d 65 f8             	lea    -0x8(%ebp),%esp
    201b:	5b                   	pop    %ebx
    201c:	5e                   	pop    %esi
    201d:	5d                   	pop    %ebp
    201e:	c3                   	ret    
    201f:	90                   	nop

00002020 <wmi_reg_write>:
    2020:	55                   	push   %ebp
    2021:	89 e5                	mov    %esp,%ebp
    2023:	56                   	push   %esi
    2024:	53                   	push   %ebx
    2025:	83 ec 2c             	sub    $0x2c,%esp
    2028:	8b 45 0c             	mov    0xc(%ebp),%eax
    202b:	8b 5d 08             	mov    0x8(%ebp),%ebx
    202e:	0f c8                	bswap  %eax
    2030:	89 45 f0             	mov    %eax,-0x10(%ebp)
    2033:	8b 45 10             	mov    0x10(%ebp),%eax
    2036:	0f c8                	bswap  %eax
    2038:	89 45 f4             	mov    %eax,-0xc(%ebp)
    203b:	8b 43 50             	mov    0x50(%ebx),%eax
    203e:	8b 50 04             	mov    0x4(%eax),%edx
    2041:	52                   	push   %edx
    2042:	e8 99 c2 01 00       	call   1e2e0 <malloc@plt>
    2047:	89 04 24             	mov    %eax,(%esp)
    204a:	89 c6                	mov    %eax,%esi
    204c:	8d 45 f0             	lea    -0x10(%ebp),%eax
    204f:	6a 08                	push   $0x8
    2051:	50                   	push   %eax
    2052:	6a 15                	push   $0x15
    2054:	53                   	push   %ebx
    2055:	e8 c6 fd ff ff       	call   1e20 <wmi_send_command>
    205a:	83 c4 14             	add    $0x14,%esp
    205d:	89 45 e4             	mov    %eax,-0x1c(%ebp)
    2060:	56                   	push   %esi
    2061:	e8 ca c7 01 00       	call   1e830 <free@plt>
    2066:	8b 45 e4             	mov    -0x1c(%ebp),%eax
    2069:	83 c4 10             	add    $0x10,%esp
    206c:	85 c0                	test   %eax,%eax
    206e:	74 15                	je     2085 <wmi_reg_write+0x65>
    2070:	50                   	push   %eax
    2071:	68 b4 af 01 00       	push   $0x1afb4
    2076:	6a 01                	push   $0x1
    2078:	6a ff                	push   $0xffffffff
    207a:	e8 e1 c2 01 00       	call   1e360 <log_msg@plt>
    207f:	83 c4 10             	add    $0x10,%esp
    2082:	8b 45 e4             	mov    -0x1c(%ebp),%eax
    2085:	8d 65 f8             	lea    -0x8(%ebp),%esp
    2088:	5b                   	pop    %ebx
    2089:	5e                   	pop    %esi
    208a:	5d                   	pop    %ebp
    208b:	c3                   	ret    
    208c:	8d 74 26 00          	lea    0x0(%esi,%eiz,1),%esi

00002090 <wmi_reg_buffer_write>:
    2090:	55                   	push   %ebp
    2091:	89 e5                	mov    %esp,%ebp
    2093:	57                   	push   %edi
    2094:	56                   	push   %esi
    2095:	53                   	push   %ebx
    2096:	83 ec 28             	sub    $0x28,%esp
    2099:	8b 7d 10             	mov    0x10(%ebp),%edi
    209c:	8d 34 fd 00 00 00 00 	lea    0x0(,%edi,8),%esi
    20a3:	56                   	push   %esi
    20a4:	e8 37 c2 01 00       	call   1e2e0 <malloc@plt>
    20a9:	89 c3                	mov    %eax,%ebx
    20ab:	8b 45 08             	mov    0x8(%ebp),%eax
    20ae:	59                   	pop    %ecx
    20af:	8b 40 50             	mov    0x50(%eax),%eax
    20b2:	8b 40 04             	mov    0x4(%eax),%eax
    20b5:	50                   	push   %eax
    20b6:	e8 25 c2 01 00       	call   1e2e0 <malloc@plt>
    20bb:	83 c4 10             	add    $0x10,%esp
    20be:	89 45 e4             	mov    %eax,-0x1c(%ebp)
    20c1:	85 ff                	test   %edi,%edi
    20c3:	74 23                	je     20e8 <wmi_reg_buffer_write+0x58>
    20c5:	8b 45 0c             	mov    0xc(%ebp),%eax
    20c8:	89 da                	mov    %ebx,%edx
    20ca:	8d 3c 30             	lea    (%eax,%esi,1),%edi
    20cd:	8d 76 00             	lea    0x0(%esi),%esi
    20d0:	8b 08                	mov    (%eax),%ecx
    20d2:	83 c0 08             	add    $0x8,%eax
    20d5:	0f c9                	bswap  %ecx
    20d7:	89 0a                	mov    %ecx,(%edx)
    20d9:	8b 48 fc             	mov    -0x4(%eax),%ecx
    20dc:	0f c9                	bswap  %ecx
    20de:	89 4a 04             	mov    %ecx,0x4(%edx)
    20e1:	83 c2 08             	add    $0x8,%edx
    20e4:	39 c7                	cmp    %eax,%edi
    20e6:	75 e8                	jne    20d0 <wmi_reg_buffer_write+0x40>
    20e8:	83 ec 0c             	sub    $0xc,%esp
    20eb:	8b 55 08             	mov    0x8(%ebp),%edx
    20ee:	8b 7d e4             	mov    -0x1c(%ebp),%edi
    20f1:	57                   	push   %edi
    20f2:	56                   	push   %esi
    20f3:	53                   	push   %ebx
    20f4:	6a 15                	push   $0x15
    20f6:	52                   	push   %edx
    20f7:	e8 24 fd ff ff       	call   1e20 <wmi_send_command>
    20fc:	83 c4 14             	add    $0x14,%esp
    20ff:	89 45 e4             	mov    %eax,-0x1c(%ebp)
    2102:	53                   	push   %ebx
    2103:	e8 28 c7 01 00       	call   1e830 <free@plt>
    2108:	89 3c 24             	mov    %edi,(%esp)
    210b:	e8 20 c7 01 00       	call   1e830 <free@plt>
    2110:	8b 45 e4             	mov    -0x1c(%ebp),%eax
    2113:	83 c4 10             	add    $0x10,%esp
    2116:	85 c0                	test   %eax,%eax
    2118:	74 18                	je     2132 <wmi_reg_buffer_write+0xa2>
    211a:	89 45 e4             	mov    %eax,-0x1c(%ebp)
    211d:	50                   	push   %eax
    211e:	68 d8 af 01 00       	push   $0x1afd8
    2123:	6a 01                	push   $0x1
    2125:	6a ff                	push   $0xffffffff
    2127:	e8 34 c2 01 00       	call   1e360 <log_msg@plt>
    212c:	83 c4 10             	add    $0x10,%esp
    212f:	8b 45 e4             	mov    -0x1c(%ebp),%eax
    2132:	8d 65 f4             	lea    -0xc(%ebp),%esp
    2135:	5b                   	pop    %ebx
    2136:	5e                   	pop    %esi
    2137:	5f                   	pop    %edi
    2138:	5d                   	pop    %ebp
    2139:	c3                   	ret    
    213a:	8d b6 00 00 00 00    	lea    0x0(%esi),%esi

00002140 <wmi_reg_set_bit>:
    2140:	55                   	push   %ebp
    2141:	89 e5                	mov    %esp,%ebp
    2143:	57                   	push   %edi
    2144:	56                   	push   %esi
    2145:	53                   	push   %ebx
    2146:	83 ec 38             	sub    $0x38,%esp
    2149:	8d 75 e0             	lea    -0x20(%ebp),%esi
    214c:	8b 5d 08             	mov    0x8(%ebp),%ebx
    214f:	8b 7d 0c             	mov    0xc(%ebp),%edi
    2152:	0f cf                	bswap  %edi
    2154:	8b 43 50             	mov    0x50(%ebx),%eax
    2157:	89 7d e0             	mov    %edi,-0x20(%ebp)
    215a:	8b 40 04             	mov    0x4(%eax),%eax
    215d:	50                   	push   %eax
    215e:	e8 7d c1 01 00       	call   1e2e0 <malloc@plt>
    2163:	89 04 24             	mov    %eax,(%esp)
    2166:	89 45 d4             	mov    %eax,-0x2c(%ebp)
    2169:	6a 04                	push   $0x4
    216b:	56                   	push   %esi
    216c:	6a 14                	push   $0x14
    216e:	53                   	push   %ebx
    216f:	e8 ac fc ff ff       	call   1e20 <wmi_send_command>
    2174:	83 c4 20             	add    $0x20,%esp
    2177:	8b 55 d4             	mov    -0x2c(%ebp),%edx
    217a:	85 c0                	test   %eax,%eax
    217c:	0f 85 a6 00 00 00    	jne    2228 <wmi_reg_set_bit+0xe8>
    2182:	8b 52 0c             	mov    0xc(%edx),%edx
    2185:	83 ec 0c             	sub    $0xc,%esp
    2188:	89 d0                	mov    %edx,%eax
    218a:	89 d1                	mov    %edx,%ecx
    218c:	c1 e9 18             	shr    $0x18,%ecx
    218f:	89 7d e0             	mov    %edi,-0x20(%ebp)
    2192:	c1 e0 18             	shl    $0x18,%eax
    2195:	09 c8                	or     %ecx,%eax
    2197:	8b 4d 10             	mov    0x10(%ebp),%ecx
    219a:	09 c8                	or     %ecx,%eax
    219c:	89 d1                	mov    %edx,%ecx
    219e:	c1 e1 08             	shl    $0x8,%ecx
    21a1:	c1 ea 08             	shr    $0x8,%edx
    21a4:	81 e1 00 00 ff 00    	and    $0xff0000,%ecx
    21aa:	09 c8                	or     %ecx,%eax
    21ac:	81 e2 00 ff 00 00    	and    $0xff00,%edx
    21b2:	09 d0                	or     %edx,%eax
    21b4:	0f c8                	bswap  %eax
    21b6:	89 45 e4             	mov    %eax,-0x1c(%ebp)
    21b9:	8b 43 50             	mov    0x50(%ebx),%eax
    21bc:	8b 78 04             	mov    0x4(%eax),%edi
    21bf:	57                   	push   %edi
    21c0:	e8 1b c1 01 00       	call   1e2e0 <malloc@plt>
    21c5:	89 04 24             	mov    %eax,(%esp)
    21c8:	89 c7                	mov    %eax,%edi
    21ca:	6a 08                	push   $0x8
    21cc:	56                   	push   %esi
    21cd:	6a 15                	push   $0x15
    21cf:	53                   	push   %ebx
    21d0:	e8 4b fc ff ff       	call   1e20 <wmi_send_command>
    21d5:	83 c4 14             	add    $0x14,%esp
    21d8:	89 45 d4             	mov    %eax,-0x2c(%ebp)
    21db:	57                   	push   %edi
    21dc:	e8 4f c6 01 00       	call   1e830 <free@plt>
    21e1:	8b 45 d4             	mov    -0x2c(%ebp),%eax
    21e4:	83 c4 10             	add    $0x10,%esp
    21e7:	85 c0                	test   %eax,%eax
    21e9:	75 0d                	jne    21f8 <wmi_reg_set_bit+0xb8>
    21eb:	8d 65 f4             	lea    -0xc(%ebp),%esp
    21ee:	5b                   	pop    %ebx
    21ef:	5e                   	pop    %esi
    21f0:	5f                   	pop    %edi
    21f1:	5d                   	pop    %ebp
    21f2:	c3                   	ret    
    21f3:	90                   	nop
    21f4:	8d 74 26 00          	lea    0x0(%esi,%eiz,1),%esi
    21f8:	50                   	push   %eax
    21f9:	68 b4 af 01 00       	push   $0x1afb4
    21fe:	6a 01                	push   $0x1
    2200:	6a ff                	push   $0xffffffff
    2202:	e8 59 c1 01 00       	call   1e360 <log_msg@plt>
    2207:	83 c4 0c             	add    $0xc,%esp
    220a:	68 30 b0 01 00       	push   $0x1b030
    220f:	6a 01                	push   $0x1
    2211:	6a ff                	push   $0xffffffff
    2213:	e8 48 c1 01 00       	call   1e360 <log_msg@plt>
    2218:	8b 45 d4             	mov    -0x2c(%ebp),%eax
    221b:	83 c4 10             	add    $0x10,%esp
    221e:	8d 65 f4             	lea    -0xc(%ebp),%esp
    2221:	5b                   	pop    %ebx
    2222:	5e                   	pop    %esi
    2223:	5f                   	pop    %edi
    2224:	5d                   	pop    %ebp
    2225:	c3                   	ret    
    2226:	66 90                	xchg   %ax,%ax
    2228:	89 45 d4             	mov    %eax,-0x2c(%ebp)
    222b:	50                   	push   %eax
    222c:	68 94 af 01 00       	push   $0x1af94
    2231:	6a 01                	push   $0x1
    2233:	6a ff                	push   $0xffffffff
    2235:	e8 26 c1 01 00       	call   1e360 <log_msg@plt>
    223a:	83 c4 0c             	add    $0xc,%esp
    223d:	68 00 b0 01 00       	push   $0x1b000
    2242:	eb cb                	jmp    220f <wmi_reg_set_bit+0xcf>
    2244:	8d b6 00 00 00 00    	lea    0x0(%esi),%esi
    224a:	8d bf 00 00 00 00    	lea    0x0(%edi),%edi

00002250 <wmi_reg_clear_bit>:
    2250:	55                   	push   %ebp
    2251:	89 e5                	mov    %esp,%ebp
    2253:	57                   	push   %edi
    2254:	56                   	push   %esi
    2255:	53                   	push   %ebx
    2256:	83 ec 38             	sub    $0x38,%esp
    2259:	8b 5d 08             	mov    0x8(%ebp),%ebx
    225c:	8b 7d 0c             	mov    0xc(%ebp),%edi
    225f:	0f cf                	bswap  %edi
    2261:	8b 43 50             	mov    0x50(%ebx),%eax
    2264:	89 7d e0             	mov    %edi,-0x20(%ebp)
    2267:	8b 70 04             	mov    0x4(%eax),%esi
    226a:	56                   	push   %esi
    226b:	e8 70 c0 01 00       	call   1e2e0 <malloc@plt>
    2270:	8d 75 e0             	lea    -0x20(%ebp),%esi
    2273:	89 04 24             	mov    %eax,(%esp)
    2276:	89 45 d4             	mov    %eax,-0x2c(%ebp)
    2279:	6a 04                	push   $0x4
    227b:	56                   	push   %esi
    227c:	6a 14                	push   $0x14
    227e:	53                   	push   %ebx
    227f:	e8 9c fb ff ff       	call   1e20 <wmi_send_command>
    2284:	83 c4 20             	add    $0x20,%esp
    2287:	8b 55 d4             	mov    -0x2c(%ebp),%edx
    228a:	85 c0                	test   %eax,%eax
    228c:	0f 85 86 00 00 00    	jne    2318 <wmi_reg_clear_bit+0xc8>
    2292:	8b 45 10             	mov    0x10(%ebp),%eax
    2295:	8b 52 0c             	mov    0xc(%edx),%edx
    2298:	83 f0 ff             	xor    $0xffffffff,%eax
    229b:	83 ec 0c             	sub    $0xc,%esp
    229e:	0f c8                	bswap  %eax
    22a0:	21 d0                	and    %edx,%eax
    22a2:	89 7d e0             	mov    %edi,-0x20(%ebp)
    22a5:	89 45 e4             	mov    %eax,-0x1c(%ebp)
    22a8:	8b 43 50             	mov    0x50(%ebx),%eax
    22ab:	8b 50 04             	mov    0x4(%eax),%edx
    22ae:	52                   	push   %edx
    22af:	e8 2c c0 01 00       	call   1e2e0 <malloc@plt>
    22b4:	89 04 24             	mov    %eax,(%esp)
    22b7:	89 c7                	mov    %eax,%edi
    22b9:	6a 08                	push   $0x8
    22bb:	56                   	push   %esi
    22bc:	6a 15                	push   $0x15
    22be:	53                   	push   %ebx
    22bf:	e8 5c fb ff ff       	call   1e20 <wmi_send_command>
    22c4:	83 c4 14             	add    $0x14,%esp
    22c7:	89 45 d4             	mov    %eax,-0x2c(%ebp)
    22ca:	57                   	push   %edi
    22cb:	e8 60 c5 01 00       	call   1e830 <free@plt>
    22d0:	8b 45 d4             	mov    -0x2c(%ebp),%eax
    22d3:	83 c4 10             	add    $0x10,%esp
    22d6:	85 c0                	test   %eax,%eax
    22d8:	75 0e                	jne    22e8 <wmi_reg_clear_bit+0x98>
    22da:	8d 65 f4             	lea    -0xc(%ebp),%esp
    22dd:	5b                   	pop    %ebx
    22de:	5e                   	pop    %esi
    22df:	5f                   	pop    %edi
    22e0:	5d                   	pop    %ebp
    22e1:	c3                   	ret    
    22e2:	8d b6 00 00 00 00    	lea    0x0(%esi),%esi
    22e8:	50                   	push   %eax
    22e9:	68 b4 af 01 00       	push   $0x1afb4
    22ee:	6a 01                	push   $0x1
    22f0:	6a ff                	push   $0xffffffff
    22f2:	e8 69 c0 01 00       	call   1e360 <log_msg@plt>
    22f7:	83 c4 0c             	add    $0xc,%esp
    22fa:	68 30 b0 01 00       	push   $0x1b030
    22ff:	6a 01                	push   $0x1
    2301:	6a ff                	push   $0xffffffff
    2303:	e8 58 c0 01 00       	call   1e360 <log_msg@plt>
    2308:	8b 45 d4             	mov    -0x2c(%ebp),%eax
    230b:	83 c4 10             	add    $0x10,%esp
    230e:	8d 65 f4             	lea    -0xc(%ebp),%esp
    2311:	5b                   	pop    %ebx
    2312:	5e                   	pop    %esi
    2313:	5f                   	pop    %edi
    2314:	5d                   	pop    %ebp
    2315:	c3                   	ret    
    2316:	66 90                	xchg   %ax,%ax
    2318:	51                   	push   %ecx
    2319:	68 94 af 01 00       	push   $0x1af94
    231e:	6a 01                	push   $0x1
    2320:	6a ff                	push   $0xffffffff
    2322:	89 45 d4             	mov    %eax,-0x2c(%ebp)
    2325:	e8 36 c0 01 00       	call   1e360 <log_msg@plt>
    232a:	83 c4 0c             	add    $0xc,%esp
    232d:	68 00 b0 01 00       	push   $0x1b000
    2332:	eb cb                	jmp    22ff <wmi_reg_clear_bit+0xaf>
    2334:	8d b6 00 00 00 00    	lea    0x0(%esi),%esi
    233a:	8d bf 00 00 00 00    	lea    0x0(%edi),%edi

00002340 <wmi_reg_set_clear_bit>:
    2340:	55                   	push   %ebp
    2341:	89 e5                	mov    %esp,%ebp
    2343:	57                   	push   %edi
    2344:	56                   	push   %esi
    2345:	53                   	push   %ebx
    2346:	83 ec 38             	sub    $0x38,%esp
    2349:	8b 5d 08             	mov    0x8(%ebp),%ebx
    234c:	8b 7d 0c             	mov    0xc(%ebp),%edi
    234f:	0f cf                	bswap  %edi
    2351:	8b 43 50             	mov    0x50(%ebx),%eax
    2354:	89 7d e0             	mov    %edi,-0x20(%ebp)
    2357:	8b 70 04             	mov    0x4(%eax),%esi
    235a:	56                   	push   %esi
    235b:	e8 80 bf 01 00       	call   1e2e0 <malloc@plt>
    2360:	8d 75 e0             	lea    -0x20(%ebp),%esi
    2363:	89 04 24             	mov    %eax,(%esp)
    2366:	89 45 d4             	mov    %eax,-0x2c(%ebp)
    2369:	6a 04                	push   $0x4
    236b:	56                   	push   %esi
    236c:	6a 14                	push   $0x14
    236e:	53                   	push   %ebx
    236f:	e8 ac fa ff ff       	call   1e20 <wmi_send_command>
    2374:	83 c4 20             	add    $0x20,%esp
    2377:	8b 55 d4             	mov    -0x2c(%ebp),%edx
    237a:	85 c0                	test   %eax,%eax
    237c:	0f 85 8e 00 00 00    	jne    2410 <wmi_reg_set_clear_bit+0xd0>
    2382:	8b 42 0c             	mov    0xc(%edx),%eax
    2385:	83 ec 0c             	sub    $0xc,%esp
    2388:	0f c8                	bswap  %eax
    238a:	89 c2                	mov    %eax,%edx
    238c:	8b 45 14             	mov    0x14(%ebp),%eax
    238f:	83 f0 ff             	xor    $0xffffffff,%eax
    2392:	89 7d e0             	mov    %edi,-0x20(%ebp)
    2395:	21 d0                	and    %edx,%eax
    2397:	8b 55 10             	mov    0x10(%ebp),%edx
    239a:	09 d0                	or     %edx,%eax
    239c:	0f c8                	bswap  %eax
    239e:	89 45 e4             	mov    %eax,-0x1c(%ebp)
    23a1:	8b 43 50             	mov    0x50(%ebx),%eax
    23a4:	8b 48 04             	mov    0x4(%eax),%ecx
    23a7:	51                   	push   %ecx
    23a8:	e8 33 bf 01 00       	call   1e2e0 <malloc@plt>
    23ad:	89 04 24             	mov    %eax,(%esp)
    23b0:	89 c7                	mov    %eax,%edi
    23b2:	6a 08                	push   $0x8
    23b4:	56                   	push   %esi
    23b5:	6a 15                	push   $0x15
    23b7:	53                   	push   %ebx
    23b8:	e8 63 fa ff ff       	call   1e20 <wmi_send_command>
    23bd:	83 c4 14             	add    $0x14,%esp
    23c0:	89 45 d4             	mov    %eax,-0x2c(%ebp)
    23c3:	57                   	push   %edi
    23c4:	e8 67 c4 01 00       	call   1e830 <free@plt>
    23c9:	8b 45 d4             	mov    -0x2c(%ebp),%eax
    23cc:	83 c4 10             	add    $0x10,%esp
    23cf:	85 c0                	test   %eax,%eax
    23d1:	75 0d                	jne    23e0 <wmi_reg_set_clear_bit+0xa0>
    23d3:	8d 65 f4             	lea    -0xc(%ebp),%esp
    23d6:	5b                   	pop    %ebx
    23d7:	5e                   	pop    %esi
    23d8:	5f                   	pop    %edi
    23d9:	5d                   	pop    %ebp
    23da:	c3                   	ret    
    23db:	90                   	nop
    23dc:	8d 74 26 00          	lea    0x0(%esi,%eiz,1),%esi
    23e0:	50                   	push   %eax
    23e1:	68 b4 af 01 00       	push   $0x1afb4
    23e6:	6a 01                	push   $0x1
    23e8:	6a ff                	push   $0xffffffff
    23ea:	e8 71 bf 01 00       	call   1e360 <log_msg@plt>
    23ef:	83 c4 0c             	add    $0xc,%esp
    23f2:	68 30 b0 01 00       	push   $0x1b030
    23f7:	6a 01                	push   $0x1
    23f9:	6a ff                	push   $0xffffffff
    23fb:	e8 60 bf 01 00       	call   1e360 <log_msg@plt>
    2400:	8b 45 d4             	mov    -0x2c(%ebp),%eax
    2403:	83 c4 10             	add    $0x10,%esp
    2406:	8d 65 f4             	lea    -0xc(%ebp),%esp
    2409:	5b                   	pop    %ebx
    240a:	5e                   	pop    %esi
    240b:	5f                   	pop    %edi
    240c:	5d                   	pop    %ebp
    240d:	c3                   	ret    
    240e:	66 90                	xchg   %ax,%ax
    2410:	53                   	push   %ebx
    2411:	68 94 af 01 00       	push   $0x1af94
    2416:	6a 01                	push   $0x1
    2418:	6a ff                	push   $0xffffffff
    241a:	89 45 d4             	mov    %eax,-0x2c(%ebp)
    241d:	e8 3e bf 01 00       	call   1e360 <log_msg@plt>
    2422:	83 c4 0c             	add    $0xc,%esp
    2425:	68 00 b0 01 00       	push   $0x1b000
    242a:	eb cb                	jmp    23f7 <wmi_reg_set_clear_bit+0xb7>
    242c:	66 90                	xchg   %ax,%ax
    242e:	66 90                	xchg   %ax,%ax

00002430 <htc_connect_service>:
    2430:	55                   	push   %ebp
    2431:	89 e5                	mov    %esp,%ebp
    2433:	57                   	push   %edi
    2434:	56                   	push   %esi
    2435:	53                   	push   %ebx
    2436:	83 ec 28             	sub    $0x28,%esp
    2439:	89 c6                	mov    %eax,%esi
    243b:	89 55 e4             	mov    %edx,-0x1c(%ebp)
    243e:	89 cf                	mov    %ecx,%edi
    2440:	6a 12                	push   $0x12
    2442:	e8 99 be 01 00       	call   1e2e0 <malloc@plt>
    2447:	83 c4 0c             	add    $0xc,%esp
    244a:	89 c3                	mov    %eax,%ebx
    244c:	6a 12                	push   $0x12
    244e:	6a 00                	push   $0x0
    2450:	50                   	push   %eax
    2451:	e8 4a c1 01 00       	call   1e5a0 <memset@plt>
    2456:	8b 55 e4             	mov    -0x1c(%ebp),%edx
    2459:	83 c4 0c             	add    $0xc,%esp
    245c:	89 d0                	mov    %edx,%eax
    245e:	66 c7 43 08 00 02    	movw   $0x200,0x8(%ebx)
    2464:	66 c1 c0 08          	rol    $0x8,%ax
    2468:	81 fa 00 01 00 00    	cmp    $0x100,%edx
    246e:	66 89 43 0a          	mov    %ax,0xa(%ebx)
    2472:	0f 94 c1             	sete   %cl
    2475:	83 c1 02             	add    $0x2,%ecx
    2478:	81 fa 00 01 00 00    	cmp    $0x100,%edx
    247e:	0f 94 c0             	sete   %al
    2481:	88 4b 0e             	mov    %cl,0xe(%ebx)
    2484:	66 c7 43 0c 00 00    	movw   $0x0,0xc(%ebx)
    248a:	8d 44 40 01          	lea    0x1(%eax,%eax,2),%eax
    248e:	8b 56 04             	mov    0x4(%esi),%edx
    2491:	88 43 0f             	mov    %al,0xf(%ebx)
    2494:	89 55 e4             	mov    %edx,-0x1c(%ebp)
    2497:	6a 08                	push   $0x8
    2499:	6a 00                	push   $0x0
    249b:	53                   	push   %ebx
    249c:	e8 ff c0 01 00       	call   1e5a0 <memset@plt>
    24a1:	8b 55 e4             	mov    -0x1c(%ebp),%edx
    24a4:	8b 46 50             	mov    0x50(%esi),%eax
    24a7:	88 13                	mov    %dl,(%ebx)
    24a9:	83 c4 0c             	add    $0xc,%esp
    24ac:	8b 50 0c             	mov    0xc(%eax),%edx
    24af:	66 c7 43 02 00 0a    	movw   $0xa00,0x2(%ebx)
    24b5:	6a 12                	push   $0x12
    24b7:	53                   	push   %ebx
    24b8:	50                   	push   %eax
    24b9:	ff 12                	call   *(%edx)
    24bb:	83 c4 10             	add    $0x10,%esp
    24be:	85 c0                	test   %eax,%eax
    24c0:	75 5e                	jne    2520 <htc_connect_service+0xf0>
    24c2:	83 ec 0c             	sub    $0xc,%esp
    24c5:	53                   	push   %ebx
    24c6:	e8 65 c3 01 00       	call   1e830 <free@plt>
    24cb:	8b 46 50             	mov    0x50(%esi),%eax
    24ce:	8b 50 04             	mov    0x4(%eax),%edx
    24d1:	89 14 24             	mov    %edx,(%esp)
    24d4:	89 55 e4             	mov    %edx,-0x1c(%ebp)
    24d7:	e8 04 be 01 00       	call   1e2e0 <malloc@plt>
    24dc:	8b 55 e4             	mov    -0x1c(%ebp),%edx
    24df:	89 c3                	mov    %eax,%ebx
    24e1:	8b 46 50             	mov    0x50(%esi),%eax
    24e4:	8b 48 0c             	mov    0xc(%eax),%ecx
    24e7:	6a 00                	push   $0x0
    24e9:	52                   	push   %edx
    24ea:	53                   	push   %ebx
    24eb:	50                   	push   %eax
    24ec:	ff 51 04             	call   *0x4(%ecx)
    24ef:	83 c4 20             	add    $0x20,%esp
    24f2:	85 c0                	test   %eax,%eax
    24f4:	75 5a                	jne    2550 <htc_connect_service+0x120>
    24f6:	8a 53 0c             	mov    0xc(%ebx),%dl
    24f9:	84 d2                	test   %dl,%dl
    24fb:	75 6b                	jne    2568 <htc_connect_service+0x138>
    24fd:	31 d2                	xor    %edx,%edx
    24ff:	8a 53 0d             	mov    0xd(%ebx),%dl
    2502:	89 17                	mov    %edx,(%edi)
    2504:	83 ec 0c             	sub    $0xc,%esp
    2507:	89 45 e4             	mov    %eax,-0x1c(%ebp)
    250a:	53                   	push   %ebx
    250b:	e8 20 c3 01 00       	call   1e830 <free@plt>
    2510:	8b 45 e4             	mov    -0x1c(%ebp),%eax
    2513:	83 c4 10             	add    $0x10,%esp
    2516:	8d 65 f4             	lea    -0xc(%ebp),%esp
    2519:	5b                   	pop    %ebx
    251a:	5e                   	pop    %esi
    251b:	5f                   	pop    %edi
    251c:	5d                   	pop    %ebp
    251d:	c3                   	ret    
    251e:	66 90                	xchg   %ax,%ax
    2520:	83 ec 0c             	sub    $0xc,%esp
    2523:	89 45 e4             	mov    %eax,-0x1c(%ebp)
    2526:	53                   	push   %ebx
    2527:	e8 04 c3 01 00       	call   1e830 <free@plt>
    252c:	8b 45 e4             	mov    -0x1c(%ebp),%eax
    252f:	50                   	push   %eax
    2530:	68 80 b0 01 00       	push   $0x1b080
    2535:	6a 01                	push   $0x1
    2537:	6a ff                	push   $0xffffffff
    2539:	e8 22 be 01 00       	call   1e360 <log_msg@plt>
    253e:	8b 45 e4             	mov    -0x1c(%ebp),%eax
    2541:	83 c4 20             	add    $0x20,%esp
    2544:	8d 65 f4             	lea    -0xc(%ebp),%esp
    2547:	5b                   	pop    %ebx
    2548:	5e                   	pop    %esi
    2549:	5f                   	pop    %edi
    254a:	5d                   	pop    %ebp
    254b:	c3                   	ret    
    254c:	8d 74 26 00          	lea    0x0(%esi,%eiz,1),%esi
    2550:	83 ec 0c             	sub    $0xc,%esp
    2553:	89 45 e4             	mov    %eax,-0x1c(%ebp)
    2556:	53                   	push   %ebx
    2557:	e8 d4 c2 01 00       	call   1e830 <free@plt>
    255c:	8b 45 e4             	mov    -0x1c(%ebp),%eax
    255f:	50                   	push   %eax
    2560:	68 a8 b0 01 00       	push   $0x1b0a8
    2565:	eb ce                	jmp    2535 <htc_connect_service+0x105>
    2567:	90                   	nop
    2568:	81 e2 ff 00 00 00    	and    $0xff,%edx
    256e:	52                   	push   %edx
    256f:	68 e4 b0 01 00       	push   $0x1b0e4
    2574:	6a 01                	push   $0x1
    2576:	6a ff                	push   $0xffffffff
    2578:	e8 e3 bd 01 00       	call   1e360 <log_msg@plt>
    257d:	83 c4 10             	add    $0x10,%esp
    2580:	b8 f2 ff ff ff       	mov    $0xfffffff2,%eax
    2585:	e9 7a ff ff ff       	jmp    2504 <htc_connect_service+0xd4>
    258a:	8d b6 00 00 00 00    	lea    0x0(%esi),%esi

00002590 <htc_init_new_vif>:
    2590:	55                   	push   %ebp
    2591:	89 e5                	mov    %esp,%ebp
    2593:	57                   	push   %edi
    2594:	56                   	push   %esi
    2595:	53                   	push   %ebx
    2596:	83 ec 60             	sub    $0x60,%esp
    2599:	8d 55 c6             	lea    -0x3a(%ebp),%edx
    259c:	8b 5d 08             	mov    0x8(%ebp),%ebx
    259f:	89 55 a4             	mov    %edx,-0x5c(%ebp)
    25a2:	6a 0c                	push   $0xc
    25a4:	6a 00                	push   $0x0
    25a6:	52                   	push   %edx
    25a7:	e8 f4 bf 01 00       	call   1e5a0 <memset@plt>
    25ac:	83 c4 0c             	add    $0xc,%esp
    25af:	8d 7d d2             	lea    -0x2e(%ebp),%edi
    25b2:	6a 16                	push   $0x16
    25b4:	6a 00                	push   $0x0
    25b6:	57                   	push   %edi
    25b7:	e8 e4 bf 01 00       	call   1e5a0 <memset@plt>
    25bc:	8b 4b 4c             	mov    0x4c(%ebx),%ecx
    25bf:	5a                   	pop    %edx
    25c0:	51                   	push   %ecx
    25c1:	e8 aa 14 01 00       	call   13a70 <ieee80211_get_ddf_dev>
    25c6:	89 04 24             	mov    %eax,(%esp)
    25c9:	e8 82 ea 00 00       	call   11050 <nic_get_from_ddf_dev>
    25ce:	5e                   	pop    %esi
    25cf:	8d 75 c0             	lea    -0x40(%ebp),%esi
    25d2:	5a                   	pop    %edx
    25d3:	56                   	push   %esi
    25d4:	50                   	push   %eax
    25d5:	e8 16 e2 00 00       	call   107f0 <nic_query_address>
    25da:	83 c4 0c             	add    $0xc,%esp
    25dd:	8d 45 c8             	lea    -0x38(%ebp),%eax
    25e0:	6a 06                	push   $0x6
    25e2:	56                   	push   %esi
    25e3:	50                   	push   %eax
    25e4:	e8 e7 bc 01 00       	call   1e2d0 <memcpy@plt>
    25e9:	83 c4 0c             	add    $0xc,%esp
    25ec:	6a 06                	push   $0x6
    25ee:	56                   	push   %esi
    25ef:	57                   	push   %edi
    25f0:	e8 db bc 01 00       	call   1e2d0 <memcpy@plt>
    25f5:	8b 43 4c             	mov    0x4c(%ebx),%eax
    25f8:	59                   	pop    %ecx
    25f9:	50                   	push   %eax
    25fa:	e8 81 14 01 00       	call   13a80 <ieee80211_query_current_op_mode>
    25ff:	83 c4 10             	add    $0x10,%esp
    2602:	8b 55 a4             	mov    -0x5c(%ebp),%edx
    2605:	83 f8 01             	cmp    $0x1,%eax
    2608:	0f 84 ea 00 00 00    	je     26f8 <htc_init_new_vif+0x168>
    260e:	0f 82 d4 00 00 00    	jb     26e8 <htc_init_new_vif+0x158>
    2614:	83 f8 02             	cmp    $0x2,%eax
    2617:	0f 84 bb 00 00 00    	je     26d8 <htc_init_new_vif+0x148>
    261d:	83 f8 03             	cmp    $0x3,%eax
    2620:	75 04                	jne    2626 <htc_init_new_vif+0x96>
    2622:	c6 45 c7 01          	movb   $0x1,-0x39(%ebp)
    2626:	83 ec 0c             	sub    $0xc,%esp
    2629:	c6 45 c6 00          	movb   $0x0,-0x3a(%ebp)
    262d:	66 c7 45 cf 09 00    	movw   $0x9,-0x31(%ebp)
    2633:	6a 00                	push   $0x0
    2635:	6a 0c                	push   $0xc
    2637:	52                   	push   %edx
    2638:	6a 13                	push   $0x13
    263a:	53                   	push   %ebx
    263b:	e8 e0 f7 ff ff       	call   1e20 <wmi_send_command>
    2640:	83 c4 14             	add    $0x14,%esp
    2643:	c6 45 e0 01          	movb   $0x1,-0x20(%ebp)
    2647:	66 c7 45 e5 ff ff    	movw   $0xffff,-0x1b(%ebp)
    264d:	c6 45 de 00          	movb   $0x0,-0x22(%ebp)
    2651:	6a 00                	push   $0x0
    2653:	6a 16                	push   $0x16
    2655:	57                   	push   %edi
    2656:	6a 10                	push   $0x10
    2658:	53                   	push   %ebx
    2659:	c6 45 df 00          	movb   $0x0,-0x21(%ebp)
    265d:	e8 be f7 ff ff       	call   1e20 <wmi_send_command>
    2662:	83 c4 1c             	add    $0x1c,%esp
    2665:	8d 45 b8             	lea    -0x48(%ebp),%eax
    2668:	6a 04                	push   $0x4
    266a:	56                   	push   %esi
    266b:	50                   	push   %eax
    266c:	e8 5f bc 01 00       	call   1e2d0 <memcpy@plt>
    2671:	83 c4 0c             	add    $0xc,%esp
    2674:	8b 45 b8             	mov    -0x48(%ebp),%eax
    2677:	50                   	push   %eax
    2678:	68 00 80 00 00       	push   $0x8000
    267d:	53                   	push   %ebx
    267e:	e8 9d f9 ff ff       	call   2020 <wmi_reg_write>
    2683:	83 c4 0c             	add    $0xc,%esp
    2686:	8d 45 bc             	lea    -0x44(%ebp),%eax
    2689:	50                   	push   %eax
    268a:	68 04 80 00 00       	push   $0x8004
    268f:	53                   	push   %ebx
    2690:	e8 1b f9 ff ff       	call   1fb0 <wmi_reg_read>
    2695:	83 c4 0c             	add    $0xc,%esp
    2698:	8d 45 c4             	lea    -0x3c(%ebp),%eax
    269b:	6a 02                	push   $0x2
    269d:	50                   	push   %eax
    269e:	8d 45 b6             	lea    -0x4a(%ebp),%eax
    26a1:	50                   	push   %eax
    26a2:	e8 29 bc 01 00       	call   1e2d0 <memcpy@plt>
    26a7:	8b 45 bc             	mov    -0x44(%ebp),%eax
    26aa:	31 d2                	xor    %edx,%edx
    26ac:	83 c4 0c             	add    $0xc,%esp
    26af:	66 8b 55 b6          	mov    -0x4a(%ebp),%dx
    26b3:	25 00 00 ff ff       	and    $0xffff0000,%eax
    26b8:	09 d0                	or     %edx,%eax
    26ba:	50                   	push   %eax
    26bb:	89 45 bc             	mov    %eax,-0x44(%ebp)
    26be:	68 04 80 00 00       	push   $0x8004
    26c3:	53                   	push   %ebx
    26c4:	e8 57 f9 ff ff       	call   2020 <wmi_reg_write>
    26c9:	8d 65 f4             	lea    -0xc(%ebp),%esp
    26cc:	31 c0                	xor    %eax,%eax
    26ce:	5b                   	pop    %ebx
    26cf:	5e                   	pop    %esi
    26d0:	5f                   	pop    %edi
    26d1:	5d                   	pop    %ebp
    26d2:	c3                   	ret    
    26d3:	90                   	nop
    26d4:	8d 74 26 00          	lea    0x0(%esi,%eiz,1),%esi
    26d8:	c6 45 c7 06          	movb   $0x6,-0x39(%ebp)
    26dc:	e9 45 ff ff ff       	jmp    2626 <htc_init_new_vif+0x96>
    26e1:	8d b4 26 00 00 00 00 	lea    0x0(%esi,%eiz,1),%esi
    26e8:	c6 45 c7 00          	movb   $0x0,-0x39(%ebp)
    26ec:	e9 35 ff ff ff       	jmp    2626 <htc_init_new_vif+0x96>
    26f1:	8d b4 26 00 00 00 00 	lea    0x0(%esi,%eiz,1),%esi
    26f8:	c6 45 c7 02          	movb   $0x2,-0x39(%ebp)
    26fc:	e9 25 ff ff ff       	jmp    2626 <htc_init_new_vif+0x96>
    2701:	eb 0d                	jmp    2710 <htc_send_control_message>
    2703:	90                   	nop
    2704:	90                   	nop
    2705:	90                   	nop
    2706:	90                   	nop
    2707:	90                   	nop
    2708:	90                   	nop
    2709:	90                   	nop
    270a:	90                   	nop
    270b:	90                   	nop
    270c:	90                   	nop
    270d:	90                   	nop
    270e:	90                   	nop
    270f:	90                   	nop

00002710 <htc_send_control_message>:
    2710:	55                   	push   %ebp
    2711:	89 e5                	mov    %esp,%ebp
    2713:	57                   	push   %edi
    2714:	56                   	push   %esi
    2715:	53                   	push   %ebx
    2716:	83 ec 20             	sub    $0x20,%esp
    2719:	8b 5d 0c             	mov    0xc(%ebp),%ebx
    271c:	8b 55 14             	mov    0x14(%ebp),%edx
    271f:	8b 75 10             	mov    0x10(%ebp),%esi
    2722:	8b 7d 08             	mov    0x8(%ebp),%edi
    2725:	6a 08                	push   $0x8
    2727:	89 55 e4             	mov    %edx,-0x1c(%ebp)
    272a:	6a 00                	push   $0x0
    272c:	53                   	push   %ebx
    272d:	e8 6e be 01 00       	call   1e5a0 <memset@plt>
    2732:	8b 55 e4             	mov    -0x1c(%ebp),%edx
    2735:	8d 46 f8             	lea    -0x8(%esi),%eax
    2738:	88 13                	mov    %dl,(%ebx)
    273a:	66 c1 c0 08          	rol    $0x8,%ax
    273e:	66 89 43 02          	mov    %ax,0x2(%ebx)
    2742:	8b 47 50             	mov    0x50(%edi),%eax
    2745:	83 c4 10             	add    $0x10,%esp
    2748:	8b 50 0c             	mov    0xc(%eax),%edx
    274b:	89 75 10             	mov    %esi,0x10(%ebp)
    274e:	89 5d 0c             	mov    %ebx,0xc(%ebp)
    2751:	89 45 08             	mov    %eax,0x8(%ebp)
    2754:	8b 02                	mov    (%edx),%eax
    2756:	8d 65 f4             	lea    -0xc(%ebp),%esp
    2759:	5b                   	pop    %ebx
    275a:	5e                   	pop    %esi
    275b:	5f                   	pop    %edi
    275c:	5d                   	pop    %ebp
    275d:	ff e0                	jmp    *%eax
    275f:	90                   	nop

00002760 <htc_send_data_message>:
    2760:	55                   	push   %ebp
    2761:	89 e5                	mov    %esp,%ebp
    2763:	57                   	push   %edi
    2764:	56                   	push   %esi
    2765:	53                   	push   %ebx
    2766:	83 ec 20             	sub    $0x20,%esp
    2769:	8b 5d 0c             	mov    0xc(%ebp),%ebx
    276c:	8b 55 14             	mov    0x14(%ebp),%edx
    276f:	8b 75 10             	mov    0x10(%ebp),%esi
    2772:	8b 7d 08             	mov    0x8(%ebp),%edi
    2775:	6a 08                	push   $0x8
    2777:	89 55 e4             	mov    %edx,-0x1c(%ebp)
    277a:	6a 00                	push   $0x0
    277c:	53                   	push   %ebx
    277d:	e8 1e be 01 00       	call   1e5a0 <memset@plt>
    2782:	8b 55 e4             	mov    -0x1c(%ebp),%edx
    2785:	8d 46 f8             	lea    -0x8(%esi),%eax
    2788:	88 13                	mov    %dl,(%ebx)
    278a:	66 c1 c0 08          	rol    $0x8,%ax
    278e:	66 89 43 02          	mov    %ax,0x2(%ebx)
    2792:	8b 47 50             	mov    0x50(%edi),%eax
    2795:	83 c4 10             	add    $0x10,%esp
    2798:	8b 50 0c             	mov    0xc(%eax),%edx
    279b:	89 75 10             	mov    %esi,0x10(%ebp)
    279e:	89 5d 0c             	mov    %ebx,0xc(%ebp)
    27a1:	89 45 08             	mov    %eax,0x8(%ebp)
    27a4:	8b 42 08             	mov    0x8(%edx),%eax
    27a7:	8d 65 f4             	lea    -0xc(%ebp),%esp
    27aa:	5b                   	pop    %ebx
    27ab:	5e                   	pop    %esi
    27ac:	5f                   	pop    %edi
    27ad:	5d                   	pop    %ebp
    27ae:	ff e0                	jmp    *%eax

000027b0 <htc_read_data_message>:
    27b0:	55                   	push   %ebp
    27b1:	89 e5                	mov    %esp,%ebp
    27b3:	8b 45 08             	mov    0x8(%ebp),%eax
    27b6:	8b 40 50             	mov    0x50(%eax),%eax
    27b9:	8b 50 0c             	mov    0xc(%eax),%edx
    27bc:	89 45 08             	mov    %eax,0x8(%ebp)
    27bf:	5d                   	pop    %ebp
    27c0:	8b 42 0c             	mov    0xc(%edx),%eax
    27c3:	ff e0                	jmp    *%eax
    27c5:	8d 74 26 00          	lea    0x0(%esi,%eiz,1),%esi
    27c9:	8d bc 27 00 00 00 00 	lea    0x0(%edi,%eiz,1),%edi

000027d0 <htc_read_control_message>:
    27d0:	55                   	push   %ebp
    27d1:	89 e5                	mov    %esp,%ebp
    27d3:	8b 45 08             	mov    0x8(%ebp),%eax
    27d6:	8b 40 50             	mov    0x50(%eax),%eax
    27d9:	8b 50 0c             	mov    0xc(%eax),%edx
    27dc:	89 45 08             	mov    %eax,0x8(%ebp)
    27df:	5d                   	pop    %ebp
    27e0:	8b 42 04             	mov    0x4(%edx),%eax
    27e3:	ff e0                	jmp    *%eax
    27e5:	8d 74 26 00          	lea    0x0(%esi,%eiz,1),%esi
    27e9:	8d bc 27 00 00 00 00 	lea    0x0(%edi,%eiz,1),%edi

000027f0 <htc_device_init>:
    27f0:	55                   	push   %ebp
    27f1:	89 e5                	mov    %esp,%ebp
    27f3:	53                   	push   %ebx
    27f4:	83 ec 10             	sub    $0x10,%esp
    27f7:	8b 5d 10             	mov    0x10(%ebp),%ebx
    27fa:	8d 43 2c             	lea    0x2c(%ebx),%eax
    27fd:	50                   	push   %eax
    27fe:	e8 8d bc 01 00       	call   1e490 <fibril_mutex_initialize@plt>
    2803:	8d 43 3c             	lea    0x3c(%ebx),%eax
    2806:	89 04 24             	mov    %eax,(%esp)
    2809:	e8 82 bc 01 00       	call   1e490 <fibril_mutex_initialize@plt>
    280e:	8b 45 08             	mov    0x8(%ebp),%eax
    2811:	c7 43 04 00 00 00 00 	movl   $0x0,0x4(%ebx)
    2818:	89 43 50             	mov    %eax,0x50(%ebx)
    281b:	8b 45 0c             	mov    0xc(%ebp),%eax
    281e:	89 43 4c             	mov    %eax,0x4c(%ebx)
    2821:	31 c0                	xor    %eax,%eax
    2823:	8b 5d fc             	mov    -0x4(%ebp),%ebx
    2826:	c9                   	leave  
    2827:	c3                   	ret    
    2828:	90                   	nop
    2829:	8d b4 26 00 00 00 00 	lea    0x0(%esi,%eiz,1),%esi

00002830 <htc_init>:
    2830:	55                   	push   %ebp
    2831:	89 e5                	mov    %esp,%ebp
    2833:	57                   	push   %edi
    2834:	56                   	push   %esi
    2835:	53                   	push   %ebx
    2836:	83 ec 28             	sub    $0x28,%esp
    2839:	8b 5d 08             	mov    0x8(%ebp),%ebx
    283c:	8b 43 50             	mov    0x50(%ebx),%eax
    283f:	8b 78 04             	mov    0x4(%eax),%edi
    2842:	57                   	push   %edi
    2843:	e8 98 ba 01 00       	call   1e2e0 <malloc@plt>
    2848:	89 c6                	mov    %eax,%esi
    284a:	8b 43 50             	mov    0x50(%ebx),%eax
    284d:	8b 50 0c             	mov    0xc(%eax),%edx
    2850:	6a 00                	push   $0x0
    2852:	57                   	push   %edi
    2853:	56                   	push   %esi
    2854:	50                   	push   %eax
    2855:	ff 52 04             	call   *0x4(%edx)
    2858:	83 c4 20             	add    $0x20,%esp
    285b:	85 c0                	test   %eax,%eax
    285d:	0f 85 25 02 00 00    	jne    2a88 <htc_init+0x258>
    2863:	66 81 7e 08 00 01    	cmpw   $0x100,0x8(%esi)
    2869:	74 35                	je     28a0 <htc_init+0x70>
    286b:	83 ec 0c             	sub    $0xc,%esp
    286e:	56                   	push   %esi
    286f:	e8 bc bf 01 00       	call   1e830 <free@plt>
    2874:	83 c4 10             	add    $0x10,%esp
    2877:	b8 f2 ff ff ff       	mov    $0xfffffff2,%eax
    287c:	89 45 e4             	mov    %eax,-0x1c(%ebp)
    287f:	50                   	push   %eax
    2880:	68 50 b1 01 00       	push   $0x1b150
    2885:	6a 01                	push   $0x1
    2887:	6a ff                	push   $0xffffffff
    2889:	e8 d2 ba 01 00       	call   1e360 <log_msg@plt>
    288e:	83 c4 10             	add    $0x10,%esp
    2891:	8b 45 e4             	mov    -0x1c(%ebp),%eax
    2894:	8d 65 f4             	lea    -0xc(%ebp),%esp
    2897:	5b                   	pop    %ebx
    2898:	5e                   	pop    %esi
    2899:	5f                   	pop    %edi
    289a:	5d                   	pop    %ebp
    289b:	c3                   	ret    
    289c:	8d 74 26 00          	lea    0x0(%esi,%eiz,1),%esi
    28a0:	83 ec 0c             	sub    $0xc,%esp
    28a3:	56                   	push   %esi
    28a4:	e8 87 bf 01 00       	call   1e830 <free@plt>
    28a9:	8d 4b 08             	lea    0x8(%ebx),%ecx
    28ac:	ba 00 01 00 00       	mov    $0x100,%edx
    28b1:	89 d8                	mov    %ebx,%eax
    28b3:	e8 78 fb ff ff       	call   2430 <htc_connect_service>
    28b8:	83 c4 10             	add    $0x10,%esp
    28bb:	85 c0                	test   %eax,%eax
    28bd:	0f 85 b5 01 00 00    	jne    2a78 <htc_init+0x248>
    28c3:	8d 4b 0c             	lea    0xc(%ebx),%ecx
    28c6:	ba 01 01 00 00       	mov    $0x101,%edx
    28cb:	89 d8                	mov    %ebx,%eax
    28cd:	e8 5e fb ff ff       	call   2430 <htc_connect_service>
    28d2:	85 c0                	test   %eax,%eax
    28d4:	0f 85 ee 01 00 00    	jne    2ac8 <htc_init+0x298>
    28da:	8d 4b 10             	lea    0x10(%ebx),%ecx
    28dd:	ba 02 01 00 00       	mov    $0x102,%edx
    28e2:	89 d8                	mov    %ebx,%eax
    28e4:	e8 47 fb ff ff       	call   2430 <htc_connect_service>
    28e9:	85 c0                	test   %eax,%eax
    28eb:	0f 85 c7 01 00 00    	jne    2ab8 <htc_init+0x288>
    28f1:	8d 4b 14             	lea    0x14(%ebx),%ecx
    28f4:	ba 03 01 00 00       	mov    $0x103,%edx
    28f9:	89 d8                	mov    %ebx,%eax
    28fb:	e8 30 fb ff ff       	call   2430 <htc_connect_service>
    2900:	85 c0                	test   %eax,%eax
    2902:	0f 85 d0 01 00 00    	jne    2ad8 <htc_init+0x2a8>
    2908:	8d 4b 18             	lea    0x18(%ebx),%ecx
    290b:	ba 04 01 00 00       	mov    $0x104,%edx
    2910:	89 d8                	mov    %ebx,%eax
    2912:	e8 19 fb ff ff       	call   2430 <htc_connect_service>
    2917:	85 c0                	test   %eax,%eax
    2919:	0f 85 d9 01 00 00    	jne    2af8 <htc_init+0x2c8>
    291f:	8d 4b 1c             	lea    0x1c(%ebx),%ecx
    2922:	ba 07 01 00 00       	mov    $0x107,%edx
    2927:	89 d8                	mov    %ebx,%eax
    2929:	e8 02 fb ff ff       	call   2430 <htc_connect_service>
    292e:	85 c0                	test   %eax,%eax
    2930:	0f 85 b2 01 00 00    	jne    2ae8 <htc_init+0x2b8>
    2936:	8d 4b 20             	lea    0x20(%ebx),%ecx
    2939:	ba 08 01 00 00       	mov    $0x108,%edx
    293e:	89 d8                	mov    %ebx,%eax
    2940:	e8 eb fa ff ff       	call   2430 <htc_connect_service>
    2945:	85 c0                	test   %eax,%eax
    2947:	0f 85 bb 01 00 00    	jne    2b08 <htc_init+0x2d8>
    294d:	8d 4b 24             	lea    0x24(%ebx),%ecx
    2950:	ba 06 01 00 00       	mov    $0x106,%edx
    2955:	89 d8                	mov    %ebx,%eax
    2957:	e8 d4 fa ff ff       	call   2430 <htc_connect_service>
    295c:	85 c0                	test   %eax,%eax
    295e:	0f 85 b2 01 00 00    	jne    2b16 <htc_init+0x2e6>
    2964:	8d 4b 28             	lea    0x28(%ebx),%ecx
    2967:	ba 05 01 00 00       	mov    $0x105,%edx
    296c:	89 d8                	mov    %ebx,%eax
    296e:	e8 bd fa ff ff       	call   2430 <htc_connect_service>
    2973:	85 c0                	test   %eax,%eax
    2975:	0f 85 a9 01 00 00    	jne    2b24 <htc_init+0x2f4>
    297b:	83 ec 0c             	sub    $0xc,%esp
    297e:	6a 0c                	push   $0xc
    2980:	e8 5b b9 01 00       	call   1e2e0 <malloc@plt>
    2985:	83 c4 0c             	add    $0xc,%esp
    2988:	8b 7b 04             	mov    0x4(%ebx),%edi
    298b:	89 c6                	mov    %eax,%esi
    298d:	66 c7 40 08 00 05    	movw   $0x500,0x8(%eax)
    2993:	c6 40 0b 21          	movb   $0x21,0xb(%eax)
    2997:	c6 40 0a 01          	movb   $0x1,0xa(%eax)
    299b:	6a 08                	push   $0x8
    299d:	6a 00                	push   $0x0
    299f:	50                   	push   %eax
    29a0:	e8 fb bb 01 00       	call   1e5a0 <memset@plt>
    29a5:	89 f8                	mov    %edi,%eax
    29a7:	83 c4 0c             	add    $0xc,%esp
    29aa:	88 06                	mov    %al,(%esi)
    29ac:	8b 43 50             	mov    0x50(%ebx),%eax
    29af:	66 c7 46 02 00 04    	movw   $0x400,0x2(%esi)
    29b5:	8b 50 0c             	mov    0xc(%eax),%edx
    29b8:	6a 0c                	push   $0xc
    29ba:	56                   	push   %esi
    29bb:	50                   	push   %eax
    29bc:	ff 12                	call   *(%edx)
    29be:	83 c4 10             	add    $0x10,%esp
    29c1:	85 c0                	test   %eax,%eax
    29c3:	0f 85 69 01 00 00    	jne    2b32 <htc_init+0x302>
    29c9:	83 ec 0c             	sub    $0xc,%esp
    29cc:	56                   	push   %esi
    29cd:	e8 5e be 01 00       	call   1e830 <free@plt>
    29d2:	8b 43 50             	mov    0x50(%ebx),%eax
    29d5:	8b 78 04             	mov    0x4(%eax),%edi
    29d8:	89 3c 24             	mov    %edi,(%esp)
    29db:	e8 00 b9 01 00       	call   1e2e0 <malloc@plt>
    29e0:	89 c6                	mov    %eax,%esi
    29e2:	8b 43 50             	mov    0x50(%ebx),%eax
    29e5:	8b 50 0c             	mov    0xc(%eax),%edx
    29e8:	6a 00                	push   $0x0
    29ea:	57                   	push   %edi
    29eb:	56                   	push   %esi
    29ec:	50                   	push   %eax
    29ed:	ff 52 04             	call   *0x4(%edx)
    29f0:	83 c4 20             	add    $0x20,%esp
    29f3:	85 c0                	test   %eax,%eax
    29f5:	0f 85 90 01 00 00    	jne    2b8b <htc_init+0x35b>
    29fb:	83 ec 0c             	sub    $0xc,%esp
    29fe:	56                   	push   %esi
    29ff:	e8 2c be 01 00       	call   1e830 <free@plt>
    2a04:	c7 04 24 0a 00 00 00 	movl   $0xa,(%esp)
    2a0b:	e8 d0 b8 01 00       	call   1e2e0 <malloc@plt>
    2a10:	83 c4 0c             	add    $0xc,%esp
    2a13:	8b 7b 04             	mov    0x4(%ebx),%edi
    2a16:	89 c6                	mov    %eax,%esi
    2a18:	66 c7 40 08 00 04    	movw   $0x400,0x8(%eax)
    2a1e:	6a 08                	push   $0x8
    2a20:	6a 00                	push   $0x0
    2a22:	50                   	push   %eax
    2a23:	e8 78 bb 01 00       	call   1e5a0 <memset@plt>
    2a28:	89 f8                	mov    %edi,%eax
    2a2a:	83 c4 0c             	add    $0xc,%esp
    2a2d:	88 06                	mov    %al,(%esi)
    2a2f:	8b 43 50             	mov    0x50(%ebx),%eax
    2a32:	66 c7 46 02 00 02    	movw   $0x200,0x2(%esi)
    2a38:	8b 50 0c             	mov    0xc(%eax),%edx
    2a3b:	6a 0a                	push   $0xa
    2a3d:	56                   	push   %esi
    2a3e:	50                   	push   %eax
    2a3f:	ff 12                	call   *(%edx)
    2a41:	83 c4 10             	add    $0x10,%esp
    2a44:	85 c0                	test   %eax,%eax
    2a46:	0f 85 18 01 00 00    	jne    2b64 <htc_init+0x334>
    2a4c:	83 ec 0c             	sub    $0xc,%esp
    2a4f:	89 45 e4             	mov    %eax,-0x1c(%ebp)
    2a52:	56                   	push   %esi
    2a53:	e8 d8 bd 01 00       	call   1e830 <free@plt>
    2a58:	83 c4 0c             	add    $0xc,%esp
    2a5b:	68 10 b4 01 00       	push   $0x1b410
    2a60:	6a 03                	push   $0x3
    2a62:	6a ff                	push   $0xffffffff
    2a64:	e8 f7 b8 01 00       	call   1e360 <log_msg@plt>
    2a69:	83 c4 10             	add    $0x10,%esp
    2a6c:	8b 45 e4             	mov    -0x1c(%ebp),%eax
    2a6f:	e9 20 fe ff ff       	jmp    2894 <htc_init+0x64>
    2a74:	8d 74 26 00          	lea    0x0(%esi,%eiz,1),%esi
    2a78:	89 45 e4             	mov    %eax,-0x1c(%ebp)
    2a7b:	50                   	push   %eax
    2a7c:	68 88 b1 01 00       	push   $0x1b188
    2a81:	e9 ff fd ff ff       	jmp    2885 <htc_init+0x55>
    2a86:	66 90                	xchg   %ax,%ax
    2a88:	83 ec 0c             	sub    $0xc,%esp
    2a8b:	89 45 e4             	mov    %eax,-0x1c(%ebp)
    2a8e:	56                   	push   %esi
    2a8f:	e8 9c bd 01 00       	call   1e830 <free@plt>
    2a94:	8b 45 e4             	mov    -0x1c(%ebp),%eax
    2a97:	50                   	push   %eax
    2a98:	68 18 b1 01 00       	push   $0x1b118
    2a9d:	6a 01                	push   $0x1
    2a9f:	6a ff                	push   $0xffffffff
    2aa1:	e8 ba b8 01 00       	call   1e360 <log_msg@plt>
    2aa6:	83 c4 20             	add    $0x20,%esp
    2aa9:	8b 45 e4             	mov    -0x1c(%ebp),%eax
    2aac:	e9 cb fd ff ff       	jmp    287c <htc_init+0x4c>
    2ab1:	8d b4 26 00 00 00 00 	lea    0x0(%esi,%eiz,1),%esi
    2ab8:	89 45 e4             	mov    %eax,-0x1c(%ebp)
    2abb:	50                   	push   %eax
    2abc:	68 dc b1 01 00       	push   $0x1b1dc
    2ac1:	e9 bf fd ff ff       	jmp    2885 <htc_init+0x55>
    2ac6:	66 90                	xchg   %ax,%ax
    2ac8:	89 45 e4             	mov    %eax,-0x1c(%ebp)
    2acb:	50                   	push   %eax
    2acc:	68 b0 b1 01 00       	push   $0x1b1b0
    2ad1:	e9 af fd ff ff       	jmp    2885 <htc_init+0x55>
    2ad6:	66 90                	xchg   %ax,%ax
    2ad8:	89 45 e4             	mov    %eax,-0x1c(%ebp)
    2adb:	50                   	push   %eax
    2adc:	68 04 b2 01 00       	push   $0x1b204
    2ae1:	e9 9f fd ff ff       	jmp    2885 <htc_init+0x55>
    2ae6:	66 90                	xchg   %ax,%ax
    2ae8:	89 45 e4             	mov    %eax,-0x1c(%ebp)
    2aeb:	56                   	push   %esi
    2aec:	68 54 b2 01 00       	push   $0x1b254
    2af1:	e9 8f fd ff ff       	jmp    2885 <htc_init+0x55>
    2af6:	66 90                	xchg   %ax,%ax
    2af8:	89 45 e4             	mov    %eax,-0x1c(%ebp)
    2afb:	57                   	push   %edi
    2afc:	68 2c b2 01 00       	push   $0x1b22c
    2b01:	e9 7f fd ff ff       	jmp    2885 <htc_init+0x55>
    2b06:	66 90                	xchg   %ax,%ax
    2b08:	89 45 e4             	mov    %eax,-0x1c(%ebp)
    2b0b:	53                   	push   %ebx
    2b0c:	68 88 b2 01 00       	push   $0x1b288
    2b11:	e9 6f fd ff ff       	jmp    2885 <htc_init+0x55>
    2b16:	89 45 e4             	mov    %eax,-0x1c(%ebp)
    2b19:	51                   	push   %ecx
    2b1a:	68 bc b2 01 00       	push   $0x1b2bc
    2b1f:	e9 61 fd ff ff       	jmp    2885 <htc_init+0x55>
    2b24:	89 45 e4             	mov    %eax,-0x1c(%ebp)
    2b27:	52                   	push   %edx
    2b28:	68 ec b2 01 00       	push   $0x1b2ec
    2b2d:	e9 53 fd ff ff       	jmp    2885 <htc_init+0x55>
    2b32:	83 ec 0c             	sub    $0xc,%esp
    2b35:	89 45 e4             	mov    %eax,-0x1c(%ebp)
    2b38:	56                   	push   %esi
    2b39:	e8 f2 bc 01 00       	call   1e830 <free@plt>
    2b3e:	8b 45 e4             	mov    -0x1c(%ebp),%eax
    2b41:	50                   	push   %eax
    2b42:	68 1c b3 01 00       	push   $0x1b31c
    2b47:	6a 01                	push   $0x1
    2b49:	6a ff                	push   $0xffffffff
    2b4b:	e8 10 b8 01 00       	call   1e360 <log_msg@plt>
    2b50:	83 c4 20             	add    $0x20,%esp
    2b53:	8b 45 e4             	mov    -0x1c(%ebp),%eax
    2b56:	89 45 e4             	mov    %eax,-0x1c(%ebp)
    2b59:	50                   	push   %eax
    2b5a:	68 88 b3 01 00       	push   $0x1b388
    2b5f:	e9 21 fd ff ff       	jmp    2885 <htc_init+0x55>
    2b64:	50                   	push   %eax
    2b65:	68 ac b3 01 00       	push   $0x1b3ac
    2b6a:	6a 01                	push   $0x1
    2b6c:	6a ff                	push   $0xffffffff
    2b6e:	89 45 e4             	mov    %eax,-0x1c(%ebp)
    2b71:	e8 ea b7 01 00       	call   1e360 <log_msg@plt>
    2b76:	89 34 24             	mov    %esi,(%esp)
    2b79:	e8 b2 bc 01 00       	call   1e830 <free@plt>
    2b7e:	83 c4 0c             	add    $0xc,%esp
    2b81:	68 e4 b3 01 00       	push   $0x1b3e4
    2b86:	e9 fa fc ff ff       	jmp    2885 <htc_init+0x55>
    2b8b:	50                   	push   %eax
    2b8c:	68 4c b3 01 00       	push   $0x1b34c
    2b91:	6a 01                	push   $0x1
    2b93:	6a ff                	push   $0xffffffff
    2b95:	89 45 e4             	mov    %eax,-0x1c(%ebp)
    2b98:	e8 c3 b7 01 00       	call   1e360 <log_msg@plt>
    2b9d:	89 34 24             	mov    %esi,(%esp)
    2ba0:	e8 8b bc 01 00       	call   1e830 <free@plt>
    2ba5:	83 c4 10             	add    $0x10,%esp
    2ba8:	8b 45 e4             	mov    -0x1c(%ebp),%eax
    2bab:	eb a9                	jmp    2b56 <htc_init+0x326>
    2bad:	66 90                	xchg   %ax,%ax
    2baf:	90                   	nop

00002bb0 <ar9271_get_cable_state>:
    2bb0:	55                   	push   %ebp
    2bb1:	89 e5                	mov    %esp,%ebp
    2bb3:	8b 45 0c             	mov    0xc(%ebp),%eax
    2bb6:	c7 00 01 00 00 00    	movl   $0x1,(%eax)
    2bbc:	31 c0                	xor    %eax,%eax
    2bbe:	5d                   	pop    %ebp
    2bbf:	c3                   	ret    

00002bc0 <ar9271_get_operation_mode>:
    2bc0:	55                   	push   %ebp
    2bc1:	89 e5                	mov    %esp,%ebp
    2bc3:	8b 45 10             	mov    0x10(%ebp),%eax
    2bc6:	c7 00 01 00 00 00    	movl   $0x1,(%eax)
    2bcc:	8b 45 0c             	mov    0xc(%ebp),%eax
    2bcf:	c7 00 0a 00 00 00    	movl   $0xa,(%eax)
    2bd5:	8b 45 14             	mov    0x14(%ebp),%eax
    2bd8:	c7 00 00 00 00 00    	movl   $0x0,(%eax)
    2bde:	31 c0                	xor    %eax,%eax
    2be0:	5d                   	pop    %ebp
    2be1:	c3                   	ret    
    2be2:	8d b4 26 00 00 00 00 	lea    0x0(%esi,%eiz,1),%esi
    2be9:	8d bc 27 00 00 00 00 	lea    0x0(%edi,%eiz,1),%edi

00002bf0 <ar9271_on_multicast_mode_change>:
    2bf0:	55                   	push   %ebp
    2bf1:	89 e5                	mov    %esp,%ebp
    2bf3:	8b 45 0c             	mov    0xc(%ebp),%eax
    2bf6:	5d                   	pop    %ebp
    2bf7:	48                   	dec    %eax
    2bf8:	83 f8 03             	cmp    $0x3,%eax
    2bfb:	19 c0                	sbb    %eax,%eax
    2bfd:	83 f0 ff             	xor    $0xffffffff,%eax
    2c00:	83 e0 f5             	and    $0xfffffff5,%eax
    2c03:	c3                   	ret    
    2c04:	8d b6 00 00 00 00    	lea    0x0(%esi),%esi
    2c0a:	8d bf 00 00 00 00    	lea    0x0(%edi),%edi

00002c10 <ar9271_on_unicast_mode_change>:
    2c10:	55                   	push   %ebp
    2c11:	89 e5                	mov    %esp,%ebp
    2c13:	8b 45 0c             	mov    0xc(%ebp),%eax
    2c16:	5d                   	pop    %ebp
    2c17:	48                   	dec    %eax
    2c18:	83 f8 04             	cmp    $0x4,%eax
    2c1b:	19 c0                	sbb    %eax,%eax
    2c1d:	83 f0 ff             	xor    $0xffffffff,%eax
    2c20:	83 e0 f5             	and    $0xfffffff5,%eax
    2c23:	c3                   	ret    
    2c24:	8d b6 00 00 00 00    	lea    0x0(%esi),%esi
    2c2a:	8d bf 00 00 00 00    	lea    0x0(%edi),%edi

00002c30 <ar9271_on_broadcast_mode_change>:
    2c30:	55                   	push   %ebp
    2c31:	89 e5                	mov    %esp,%ebp
    2c33:	8b 45 0c             	mov    0xc(%ebp),%eax
    2c36:	5d                   	pop    %ebp
    2c37:	48                   	dec    %eax
    2c38:	83 f8 02             	cmp    $0x2,%eax
    2c3b:	19 c0                	sbb    %eax,%eax
    2c3d:	83 f0 ff             	xor    $0xffffffff,%eax
    2c40:	83 e0 f5             	and    $0xfffffff5,%eax
    2c43:	c3                   	ret    
    2c44:	8d b6 00 00 00 00    	lea    0x0(%esi),%esi
    2c4a:	8d bf 00 00 00 00    	lea    0x0(%edi),%edi

00002c50 <ar9271_ieee80211_key_config>:
    2c50:	55                   	push   %ebp
    2c51:	89 e5                	mov    %esp,%ebp
    2c53:	57                   	push   %edi
    2c54:	56                   	push   %esi
    2c55:	53                   	push   %ebx
    2c56:	83 ec 4c             	sub    $0x4c,%esp
    2c59:	8b 45 08             	mov    0x8(%ebp),%eax
    2c5c:	8b 7d 0c             	mov    0xc(%ebp),%edi
    2c5f:	8b 5d 10             	mov    0x10(%ebp),%ebx
    2c62:	85 c0                	test   %eax,%eax
    2c64:	0f 84 29 03 00 00    	je     2f93 <ar9271_ieee80211_key_config+0x343>
    2c6a:	83 ec 0c             	sub    $0xc,%esp
    2c6d:	8b 75 08             	mov    0x8(%ebp),%esi
    2c70:	56                   	push   %esi
    2c71:	e8 da 0d 01 00       	call   13a50 <ieee80211_get_specific>
    2c76:	83 c4 10             	add    $0x10,%esp
    2c79:	89 c6                	mov    %eax,%esi
    2c7b:	84 db                	test   %bl,%bl
    2c7d:	0f 84 fd 01 00 00    	je     2e80 <ar9271_ieee80211_key_config+0x230>
    2c83:	85 ff                	test   %edi,%edi
    2c85:	0f 84 1d 03 00 00    	je     2fa8 <ar9271_ieee80211_key_config+0x358>
    2c8b:	8d 45 e2             	lea    -0x1e(%ebp),%eax
    2c8e:	8b 4d 08             	mov    0x8(%ebp),%ecx
    2c91:	52                   	push   %edx
    2c92:	52                   	push   %edx
    2c93:	50                   	push   %eax
    2c94:	51                   	push   %ecx
    2c95:	e8 46 0e 01 00       	call   13ae0 <ieee80211_query_bssid>
    2c9a:	8b 57 04             	mov    0x4(%edi),%edx
    2c9d:	83 c4 10             	add    $0x10,%esp
    2ca0:	c7 45 d4 ff ff ff ff 	movl   $0xffffffff,-0x2c(%ebp)
    2ca7:	83 fa 03             	cmp    $0x3,%edx
    2caa:	0f 86 90 01 00 00    	jbe    2e40 <ar9271_ieee80211_key_config+0x1f0>
    2cb0:	f6 47 01 01          	testb  $0x1,0x1(%edi)
    2cb4:	0f 84 3e 01 00 00    	je     2df8 <ar9271_ieee80211_key_config+0x1a8>
    2cba:	c7 45 a8 9c 88 00 00 	movl   $0x889c,-0x58(%ebp)
    2cc1:	c7 45 ac 98 88 00 00 	movl   $0x8898,-0x54(%ebp)
    2cc8:	c7 45 b0 94 88 00 00 	movl   $0x8894,-0x50(%ebp)
    2ccf:	c7 45 b4 90 88 00 00 	movl   $0x8890,-0x4c(%ebp)
    2cd6:	c7 45 b8 8c 88 00 00 	movl   $0x888c,-0x48(%ebp)
    2cdd:	c7 45 bc 88 88 00 00 	movl   $0x8888,-0x44(%ebp)
    2ce4:	c7 45 c0 84 88 00 00 	movl   $0x8884,-0x40(%ebp)
    2ceb:	c7 45 d0 80 90 00 00 	movl   $0x9080,-0x30(%ebp)
    2cf2:	b8 80 88 00 00       	mov    $0x8880,%eax
    2cf7:	31 db                	xor    %ebx,%ebx
    2cf9:	8b 4f 08             	mov    0x8(%edi),%ecx
    2cfc:	66 8b 5f 0c          	mov    0xc(%edi),%bx
    2d00:	89 5d cc             	mov    %ebx,-0x34(%ebp)
    2d03:	8b 5f 0e             	mov    0xe(%edi),%ebx
    2d06:	89 5d c8             	mov    %ebx,-0x38(%ebp)
    2d09:	31 db                	xor    %ebx,%ebx
    2d0b:	66 8b 5f 12          	mov    0x12(%edi),%bx
    2d0f:	83 fa 01             	cmp    $0x1,%edx
    2d12:	89 5d c4             	mov    %ebx,-0x3c(%ebp)
    2d15:	8b 5f 14             	mov    0x14(%edi),%ebx
    2d18:	0f 86 6a 02 00 00    	jbe    2f88 <ar9271_ieee80211_key_config+0x338>
    2d1e:	52                   	push   %edx
    2d1f:	51                   	push   %ecx
    2d20:	8b 4e 24             	mov    0x24(%esi),%ecx
    2d23:	50                   	push   %eax
    2d24:	51                   	push   %ecx
    2d25:	e8 f6 f2 ff ff       	call   2020 <wmi_reg_write>
    2d2a:	83 c4 0c             	add    $0xc,%esp
    2d2d:	8b 45 cc             	mov    -0x34(%ebp),%eax
    2d30:	50                   	push   %eax
    2d31:	8b 45 c0             	mov    -0x40(%ebp),%eax
    2d34:	50                   	push   %eax
    2d35:	8b 46 24             	mov    0x24(%esi),%eax
    2d38:	50                   	push   %eax
    2d39:	e8 e2 f2 ff ff       	call   2020 <wmi_reg_write>
    2d3e:	83 c4 0c             	add    $0xc,%esp
    2d41:	8b 45 c8             	mov    -0x38(%ebp),%eax
    2d44:	50                   	push   %eax
    2d45:	8b 45 bc             	mov    -0x44(%ebp),%eax
    2d48:	50                   	push   %eax
    2d49:	8b 46 24             	mov    0x24(%esi),%eax
    2d4c:	50                   	push   %eax
    2d4d:	e8 ce f2 ff ff       	call   2020 <wmi_reg_write>
    2d52:	83 c4 0c             	add    $0xc,%esp
    2d55:	8b 55 c4             	mov    -0x3c(%ebp),%edx
    2d58:	8b 4d b8             	mov    -0x48(%ebp),%ecx
    2d5b:	8b 46 24             	mov    0x24(%esi),%eax
    2d5e:	52                   	push   %edx
    2d5f:	51                   	push   %ecx
    2d60:	50                   	push   %eax
    2d61:	e8 ba f2 ff ff       	call   2020 <wmi_reg_write>
    2d66:	83 c4 0c             	add    $0xc,%esp
    2d69:	8b 45 b4             	mov    -0x4c(%ebp),%eax
    2d6c:	53                   	push   %ebx
    2d6d:	50                   	push   %eax
    2d6e:	8b 46 24             	mov    0x24(%esi),%eax
    2d71:	50                   	push   %eax
    2d72:	e8 a9 f2 ff ff       	call   2020 <wmi_reg_write>
    2d77:	83 c4 0c             	add    $0xc,%esp
    2d7a:	8b 45 d4             	mov    -0x2c(%ebp),%eax
    2d7d:	50                   	push   %eax
    2d7e:	8b 45 b0             	mov    -0x50(%ebp),%eax
    2d81:	50                   	push   %eax
    2d82:	8b 46 24             	mov    0x24(%esi),%eax
    2d85:	50                   	push   %eax
    2d86:	e8 95 f2 ff ff       	call   2020 <wmi_reg_write>
    2d8b:	83 c4 10             	add    $0x10,%esp
    2d8e:	f6 47 01 01          	testb  $0x1,0x1(%edi)
    2d92:	0f 85 c0 00 00 00    	jne    2e58 <ar9271_ieee80211_key_config+0x208>
    2d98:	8d 47 08             	lea    0x8(%edi),%eax
    2d9b:	bb 00 80 00 00       	mov    $0x8000,%ebx
    2da0:	89 45 d4             	mov    %eax,-0x2c(%ebp)
    2da3:	31 c0                	xor    %eax,%eax
    2da5:	52                   	push   %edx
    2da6:	8b 4d ac             	mov    -0x54(%ebp),%ecx
    2da9:	50                   	push   %eax
    2daa:	8b 46 24             	mov    0x24(%esi),%eax
    2dad:	51                   	push   %ecx
    2dae:	50                   	push   %eax
    2daf:	e8 6c f2 ff ff       	call   2020 <wmi_reg_write>
    2db4:	83 c4 0c             	add    $0xc,%esp
    2db7:	8b 45 a8             	mov    -0x58(%ebp),%eax
    2dba:	53                   	push   %ebx
    2dbb:	50                   	push   %eax
    2dbc:	8b 46 24             	mov    0x24(%esi),%eax
    2dbf:	50                   	push   %eax
    2dc0:	e8 5b f2 ff ff       	call   2020 <wmi_reg_write>
    2dc5:	83 c4 10             	add    $0x10,%esp
    2dc8:	83 7f 04 03          	cmpl   $0x3,0x4(%edi)
    2dcc:	0f 84 ce 00 00 00    	je     2ea0 <ar9271_ieee80211_key_config+0x250>
    2dd2:	f6 47 01 02          	testb  $0x2,0x1(%edi)
    2dd6:	74 10                	je     2de8 <ar9271_ieee80211_key_config+0x198>
    2dd8:	8b 5d 08             	mov    0x8(%ebp),%ebx
    2ddb:	51                   	push   %ecx
    2ddc:	51                   	push   %ecx
    2ddd:	6a 01                	push   $0x1
    2ddf:	53                   	push   %ebx
    2de0:	e8 3b 10 01 00       	call   13e20 <ieee80211_setup_key_confirm>
    2de5:	83 c4 10             	add    $0x10,%esp
    2de8:	8d 65 f4             	lea    -0xc(%ebp),%esp
    2deb:	31 c0                	xor    %eax,%eax
    2ded:	5b                   	pop    %ebx
    2dee:	5e                   	pop    %esi
    2def:	5f                   	pop    %edi
    2df0:	5d                   	pop    %ebp
    2df1:	c3                   	ret    
    2df2:	8d b6 00 00 00 00    	lea    0x0(%esi),%esi
    2df8:	31 c0                	xor    %eax,%eax
    2dfa:	8a 07                	mov    (%edi),%al
    2dfc:	05 40 04 00 00       	add    $0x440,%eax
    2e01:	c1 e0 05             	shl    $0x5,%eax
    2e04:	8d 88 00 08 00 00    	lea    0x800(%eax),%ecx
    2e0a:	89 4d d0             	mov    %ecx,-0x30(%ebp)
    2e0d:	8d 48 04             	lea    0x4(%eax),%ecx
    2e10:	89 4d c0             	mov    %ecx,-0x40(%ebp)
    2e13:	8d 48 08             	lea    0x8(%eax),%ecx
    2e16:	89 4d bc             	mov    %ecx,-0x44(%ebp)
    2e19:	8d 48 0c             	lea    0xc(%eax),%ecx
    2e1c:	89 4d b8             	mov    %ecx,-0x48(%ebp)
    2e1f:	8d 48 10             	lea    0x10(%eax),%ecx
    2e22:	89 4d b4             	mov    %ecx,-0x4c(%ebp)
    2e25:	8d 48 14             	lea    0x14(%eax),%ecx
    2e28:	89 4d b0             	mov    %ecx,-0x50(%ebp)
    2e2b:	8d 48 18             	lea    0x18(%eax),%ecx
    2e2e:	89 4d ac             	mov    %ecx,-0x54(%ebp)
    2e31:	8d 48 1c             	lea    0x1c(%eax),%ecx
    2e34:	89 4d a8             	mov    %ecx,-0x58(%ebp)
    2e37:	e9 bb fe ff ff       	jmp    2cf7 <ar9271_ieee80211_key_config+0xa7>
    2e3c:	8d 74 26 00          	lea    0x0(%esi,%eiz,1),%esi
    2e40:	8b 04 95 bc b8 01 00 	mov    0x1b8bc(,%edx,4),%eax
    2e47:	f6 47 01 01          	testb  $0x1,0x1(%edi)
    2e4b:	89 45 d4             	mov    %eax,-0x2c(%ebp)
    2e4e:	0f 85 66 fe ff ff    	jne    2cba <ar9271_ieee80211_key_config+0x6a>
    2e54:	eb a2                	jmp    2df8 <ar9271_ieee80211_key_config+0x1a8>
    2e56:	66 90                	xchg   %ax,%ax
    2e58:	31 db                	xor    %ebx,%ebx
    2e5a:	8b 55 e2             	mov    -0x1e(%ebp),%edx
    2e5d:	d1 ea                	shr    %edx
    2e5f:	66 8b 5d e6          	mov    -0x1a(%ebp),%bx
    2e63:	89 d8                	mov    %ebx,%eax
    2e65:	c1 e0 1f             	shl    $0x1f,%eax
    2e68:	d1 eb                	shr    %ebx
    2e6a:	09 d0                	or     %edx,%eax
    2e6c:	8d 55 e2             	lea    -0x1e(%ebp),%edx
    2e6f:	80 cf 80             	or     $0x80,%bh
    2e72:	89 55 d4             	mov    %edx,-0x2c(%ebp)
    2e75:	e9 2b ff ff ff       	jmp    2da5 <ar9271_ieee80211_key_config+0x155>
    2e7a:	8d b6 00 00 00 00    	lea    0x0(%esi),%esi
    2e80:	8b 55 08             	mov    0x8(%ebp),%edx
    2e83:	50                   	push   %eax
    2e84:	50                   	push   %eax
    2e85:	6a 00                	push   $0x0
    2e87:	52                   	push   %edx
    2e88:	e8 93 0f 01 00       	call   13e20 <ieee80211_setup_key_confirm>
    2e8d:	83 c4 10             	add    $0x10,%esp
    2e90:	8d 65 f4             	lea    -0xc(%ebp),%esp
    2e93:	31 c0                	xor    %eax,%eax
    2e95:	5b                   	pop    %ebx
    2e96:	5e                   	pop    %esi
    2e97:	5f                   	pop    %edi
    2e98:	5d                   	pop    %ebp
    2e99:	c3                   	ret    
    2e9a:	8d b6 00 00 00 00    	lea    0x0(%esi),%esi
    2ea0:	8b 55 d4             	mov    -0x2c(%ebp),%edx
    2ea3:	89 d0                	mov    %edx,%eax
    2ea5:	83 c0 10             	add    $0x10,%eax
    2ea8:	f6 47 01 02          	testb  $0x2,0x1(%edi)
    2eac:	74 05                	je     2eb3 <ar9271_ieee80211_key_config+0x263>
    2eae:	89 d0                	mov    %edx,%eax
    2eb0:	83 c0 18             	add    $0x18,%eax
    2eb3:	31 d2                	xor    %edx,%edx
    2eb5:	31 c9                	xor    %ecx,%ecx
    2eb7:	66 8b 50 02          	mov    0x2(%eax),%dx
    2ebb:	66 8b 08             	mov    (%eax),%cx
    2ebe:	89 55 cc             	mov    %edx,-0x34(%ebp)
    2ec1:	8b 55 d4             	mov    -0x2c(%ebp),%edx
    2ec4:	8b 58 04             	mov    0x4(%eax),%ebx
    2ec7:	89 4d c8             	mov    %ecx,-0x38(%ebp)
    2eca:	8b 52 1c             	mov    0x1c(%edx),%edx
    2ecd:	50                   	push   %eax
    2ece:	89 55 c4             	mov    %edx,-0x3c(%ebp)
    2ed1:	8b 55 d4             	mov    -0x2c(%ebp),%edx
    2ed4:	8b 42 18             	mov    0x18(%edx),%eax
    2ed7:	50                   	push   %eax
    2ed8:	8b 45 d0             	mov    -0x30(%ebp),%eax
    2edb:	50                   	push   %eax
    2edc:	8b 46 24             	mov    0x24(%esi),%eax
    2edf:	50                   	push   %eax
    2ee0:	e8 3b f1 ff ff       	call   2020 <wmi_reg_write>
    2ee5:	83 c4 0c             	add    $0xc,%esp
    2ee8:	8b 45 cc             	mov    -0x34(%ebp),%eax
    2eeb:	50                   	push   %eax
    2eec:	8b 45 d0             	mov    -0x30(%ebp),%eax
    2eef:	83 c0 04             	add    $0x4,%eax
    2ef2:	50                   	push   %eax
    2ef3:	8b 46 24             	mov    0x24(%esi),%eax
    2ef6:	50                   	push   %eax
    2ef7:	e8 24 f1 ff ff       	call   2020 <wmi_reg_write>
    2efc:	83 c4 0c             	add    $0xc,%esp
    2eff:	8b 55 c4             	mov    -0x3c(%ebp),%edx
    2f02:	8b 45 d0             	mov    -0x30(%ebp),%eax
    2f05:	52                   	push   %edx
    2f06:	83 c0 08             	add    $0x8,%eax
    2f09:	8b 56 24             	mov    0x24(%esi),%edx
    2f0c:	50                   	push   %eax
    2f0d:	52                   	push   %edx
    2f0e:	e8 0d f1 ff ff       	call   2020 <wmi_reg_write>
    2f13:	83 c4 0c             	add    $0xc,%esp
    2f16:	8b 4d c8             	mov    -0x38(%ebp),%ecx
    2f19:	8b 45 d0             	mov    -0x30(%ebp),%eax
    2f1c:	51                   	push   %ecx
    2f1d:	83 c0 0c             	add    $0xc,%eax
    2f20:	8b 4e 24             	mov    0x24(%esi),%ecx
    2f23:	50                   	push   %eax
    2f24:	51                   	push   %ecx
    2f25:	e8 f6 f0 ff ff       	call   2020 <wmi_reg_write>
    2f2a:	83 c4 0c             	add    $0xc,%esp
    2f2d:	53                   	push   %ebx
    2f2e:	8b 5d d0             	mov    -0x30(%ebp),%ebx
    2f31:	89 d8                	mov    %ebx,%eax
    2f33:	83 c0 10             	add    $0x10,%eax
    2f36:	50                   	push   %eax
    2f37:	8b 46 24             	mov    0x24(%esi),%eax
    2f3a:	50                   	push   %eax
    2f3b:	e8 e0 f0 ff ff       	call   2020 <wmi_reg_write>
    2f40:	83 c4 0c             	add    $0xc,%esp
    2f43:	89 d8                	mov    %ebx,%eax
    2f45:	83 c0 14             	add    $0x14,%eax
    2f48:	6a 07                	push   $0x7
    2f4a:	50                   	push   %eax
    2f4b:	8b 46 24             	mov    0x24(%esi),%eax
    2f4e:	50                   	push   %eax
    2f4f:	e8 cc f0 ff ff       	call   2020 <wmi_reg_write>
    2f54:	83 c4 0c             	add    $0xc,%esp
    2f57:	89 d8                	mov    %ebx,%eax
    2f59:	83 c0 18             	add    $0x18,%eax
    2f5c:	6a 00                	push   $0x0
    2f5e:	50                   	push   %eax
    2f5f:	8b 46 24             	mov    0x24(%esi),%eax
    2f62:	50                   	push   %eax
    2f63:	e8 b8 f0 ff ff       	call   2020 <wmi_reg_write>
    2f68:	83 c4 0c             	add    $0xc,%esp
    2f6b:	89 d8                	mov    %ebx,%eax
    2f6d:	83 c0 1c             	add    $0x1c,%eax
    2f70:	6a 00                	push   $0x0
    2f72:	50                   	push   %eax
    2f73:	8b 46 24             	mov    0x24(%esi),%eax
    2f76:	50                   	push   %eax
    2f77:	e8 a4 f0 ff ff       	call   2020 <wmi_reg_write>
    2f7c:	83 c4 10             	add    $0x10,%esp
    2f7f:	e9 4e fe ff ff       	jmp    2dd2 <ar9271_ieee80211_key_config+0x182>
    2f84:	8d 74 26 00          	lea    0x0(%esi,%eiz,1),%esi
    2f88:	81 e3 ff 00 00 00    	and    $0xff,%ebx
    2f8e:	e9 8b fd ff ff       	jmp    2d1e <ar9271_ieee80211_key_config+0xce>
    2f93:	57                   	push   %edi
    2f94:	68 94 01 00 00       	push   $0x194
    2f99:	68 44 b4 01 00       	push   $0x1b444
    2f9e:	68 4d b4 01 00       	push   $0x1b44d
    2fa3:	e8 08 b4 01 00       	call   1e3b0 <assert_abort@plt>
    2fa8:	53                   	push   %ebx
    2fa9:	68 99 01 00 00       	push   $0x199
    2fae:	68 44 b4 01 00       	push   $0x1b444
    2fb3:	68 5b b4 01 00       	push   $0x1b45b
    2fb8:	e8 f3 b3 01 00       	call   1e3b0 <assert_abort@plt>
    2fbd:	8d 76 00             	lea    0x0(%esi),%esi

00002fc0 <ar9271_ieee80211_bssid_change>:
    2fc0:	55                   	push   %ebp
    2fc1:	89 e5                	mov    %esp,%ebp
    2fc3:	57                   	push   %edi
    2fc4:	56                   	push   %esi
    2fc5:	53                   	push   %ebx
    2fc6:	83 ec 5c             	sub    $0x5c,%esp
    2fc9:	8b 75 08             	mov    0x8(%ebp),%esi
    2fcc:	8b 7d 0c             	mov    0xc(%ebp),%edi
    2fcf:	85 f6                	test   %esi,%esi
    2fd1:	0f 84 f7 00 00 00    	je     30ce <ar9271_ieee80211_bssid_change+0x10e>
    2fd7:	83 ec 0c             	sub    $0xc,%esp
    2fda:	56                   	push   %esi
    2fdb:	e8 70 0a 01 00       	call   13a50 <ieee80211_get_specific>
    2fe0:	89 c3                	mov    %eax,%ebx
    2fe2:	89 f8                	mov    %edi,%eax
    2fe4:	83 c4 10             	add    $0x10,%esp
    2fe7:	84 c0                	test   %al,%al
    2fe9:	75 3d                	jne    3028 <ar9271_ieee80211_bssid_change+0x68>
    2feb:	83 ec 0c             	sub    $0xc,%esp
    2fee:	c6 45 bc 01          	movb   $0x1,-0x44(%ebp)
    2ff2:	8d 45 bc             	lea    -0x44(%ebp),%eax
    2ff5:	6a 00                	push   $0x0
    2ff7:	6a 01                	push   $0x1
    2ff9:	50                   	push   %eax
    2ffa:	8b 43 24             	mov    0x24(%ebx),%eax
    2ffd:	6a 11                	push   $0x11
    2fff:	50                   	push   %eax
    3000:	e8 1b ee ff ff       	call   1e20 <wmi_send_command>
    3005:	83 c4 18             	add    $0x18,%esp
    3008:	6a 00                	push   $0x0
    300a:	53                   	push   %ebx
    300b:	e8 e0 e6 ff ff       	call   16f0 <hw_set_rx_filter>
    3010:	83 c4 10             	add    $0x10,%esp
    3013:	83 ec 0c             	sub    $0xc,%esp
    3016:	53                   	push   %ebx
    3017:	e8 04 e7 ff ff       	call   1720 <hw_set_bssid>
    301c:	8d 65 f4             	lea    -0xc(%ebp),%esp
    301f:	31 c0                	xor    %eax,%eax
    3021:	5b                   	pop    %ebx
    3022:	5e                   	pop    %esi
    3023:	5f                   	pop    %edi
    3024:	5d                   	pop    %ebp
    3025:	c3                   	ret    
    3026:	66 90                	xchg   %ax,%ax
    3028:	8d 7d a0             	lea    -0x60(%ebp),%edi
    302b:	52                   	push   %edx
    302c:	52                   	push   %edx
    302d:	57                   	push   %edi
    302e:	56                   	push   %esi
    302f:	e8 ac 0a 01 00       	call   13ae0 <ieee80211_query_bssid>
    3034:	83 c4 0c             	add    $0xc,%esp
    3037:	8d 75 a6             	lea    -0x5a(%ebp),%esi
    303a:	6a 16                	push   $0x16
    303c:	6a 00                	push   $0x0
    303e:	56                   	push   %esi
    303f:	e8 5c b5 01 00       	call   1e5a0 <memset@plt>
    3044:	83 c4 0c             	add    $0xc,%esp
    3047:	c6 45 b4 00          	movb   $0x0,-0x4c(%ebp)
    304b:	66 c7 45 b9 20 00    	movw   $0x20,-0x47(%ebp)
    3051:	c6 45 b2 01          	movb   $0x1,-0x4e(%ebp)
    3055:	6a 06                	push   $0x6
    3057:	57                   	push   %edi
    3058:	56                   	push   %esi
    3059:	c6 45 b3 00          	movb   $0x0,-0x4d(%ebp)
    305d:	e8 6e b2 01 00       	call   1e2d0 <memcpy@plt>
    3062:	c7 04 24 00 00 00 00 	movl   $0x0,(%esp)
    3069:	8b 4b 24             	mov    0x24(%ebx),%ecx
    306c:	6a 16                	push   $0x16
    306e:	56                   	push   %esi
    306f:	6a 10                	push   $0x10
    3071:	51                   	push   %ecx
    3072:	e8 a9 ed ff ff       	call   1e20 <wmi_send_command>
    3077:	83 c4 1c             	add    $0x1c,%esp
    307a:	8d 75 bc             	lea    -0x44(%ebp),%esi
    307d:	6a 2c                	push   $0x2c
    307f:	6a 00                	push   $0x0
    3081:	56                   	push   %esi
    3082:	e8 19 b5 01 00       	call   1e5a0 <memset@plt>
    3087:	83 c4 0c             	add    $0xc,%esp
    308a:	8d 45 c5             	lea    -0x3b(%ebp),%eax
    308d:	c6 45 bc 01          	movb   $0x1,-0x44(%ebp)
    3091:	c6 45 bd 01          	movb   $0x1,-0x43(%ebp)
    3095:	6a 0c                	push   $0xc
    3097:	68 2c b9 01 00       	push   $0x1b92c
    309c:	50                   	push   %eax
    309d:	c6 45 c4 0c          	movb   $0xc,-0x3c(%ebp)
    30a1:	e8 2a b2 01 00       	call   1e2d0 <memcpy@plt>
    30a6:	c7 04 24 00 00 00 00 	movl   $0x0,(%esp)
    30ad:	6a 2c                	push   $0x2c
    30af:	56                   	push   %esi
    30b0:	8b 73 24             	mov    0x24(%ebx),%esi
    30b3:	6a 17                	push   $0x17
    30b5:	56                   	push   %esi
    30b6:	e8 65 ed ff ff       	call   1e20 <wmi_send_command>
    30bb:	83 c4 18             	add    $0x18,%esp
    30be:	6a 01                	push   $0x1
    30c0:	53                   	push   %ebx
    30c1:	e8 2a e6 ff ff       	call   16f0 <hw_set_rx_filter>
    30c6:	83 c4 10             	add    $0x10,%esp
    30c9:	e9 45 ff ff ff       	jmp    3013 <ar9271_ieee80211_bssid_change+0x53>
    30ce:	57                   	push   %edi
    30cf:	68 63 01 00 00       	push   $0x163
    30d4:	68 44 b4 01 00       	push   $0x1b444
    30d9:	68 4d b4 01 00       	push   $0x1b44d
    30de:	e8 cd b2 01 00       	call   1e3b0 <assert_abort@plt>
    30e3:	8d b6 00 00 00 00    	lea    0x0(%esi),%esi
    30e9:	8d bc 27 00 00 00 00 	lea    0x0(%edi,%eiz,1),%edi

000030f0 <ar9271_ieee80211_set_freq>:
    30f0:	55                   	push   %ebp
    30f1:	89 e5                	mov    %esp,%ebp
    30f3:	56                   	push   %esi
    30f4:	53                   	push   %ebx
    30f5:	83 ec 10             	sub    $0x10,%esp
    30f8:	8b 45 08             	mov    0x8(%ebp),%eax
    30fb:	8b 75 0c             	mov    0xc(%ebp),%esi
    30fe:	85 c0                	test   %eax,%eax
    3100:	0f 84 05 01 00 00    	je     320b <ar9271_ieee80211_set_freq+0x11b>
    3106:	83 ec 0c             	sub    $0xc,%esp
    3109:	81 e6 ff ff 00 00    	and    $0xffff,%esi
    310f:	50                   	push   %eax
    3110:	e8 3b 09 01 00       	call   13a50 <ieee80211_get_specific>
    3115:	c7 04 24 00 00 00 00 	movl   $0x0,(%esp)
    311c:	89 c3                	mov    %eax,%ebx
    311e:	8b 40 24             	mov    0x24(%eax),%eax
    3121:	6a 00                	push   $0x0
    3123:	6a 00                	push   $0x0
    3125:	6a 04                	push   $0x4
    3127:	50                   	push   %eax
    3128:	e8 f3 ec ff ff       	call   1e20 <wmi_send_command>
    312d:	83 c4 14             	add    $0x14,%esp
    3130:	6a 00                	push   $0x0
    3132:	6a 00                	push   $0x0
    3134:	8b 43 24             	mov    0x24(%ebx),%eax
    3137:	6a 00                	push   $0x0
    3139:	6a 0b                	push   $0xb
    313b:	50                   	push   %eax
    313c:	e8 df ec ff ff       	call   1e20 <wmi_send_command>
    3141:	83 c4 14             	add    $0x14,%esp
    3144:	6a 00                	push   $0x0
    3146:	6a 00                	push   $0x0
    3148:	8b 43 24             	mov    0x24(%ebx),%eax
    314b:	6a 00                	push   $0x0
    314d:	6a 0d                	push   $0xd
    314f:	50                   	push   %eax
    3150:	e8 cb ec ff ff       	call   1e20 <wmi_send_command>
    3155:	83 c4 18             	add    $0x18,%esp
    3158:	56                   	push   %esi
    3159:	53                   	push   %ebx
    315a:	e8 c1 e3 ff ff       	call   1520 <hw_freq_switch>
    315f:	83 c4 10             	add    $0x10,%esp
    3162:	89 c6                	mov    %eax,%esi
    3164:	85 c0                	test   %eax,%eax
    3166:	0f 85 84 00 00 00    	jne    31f0 <ar9271_ieee80211_set_freq+0x100>
    316c:	83 ec 0c             	sub    $0xc,%esp
    316f:	6a 00                	push   $0x0
    3171:	6a 00                	push   $0x0
    3173:	8b 73 24             	mov    0x24(%ebx),%esi
    3176:	6a 00                	push   $0x0
    3178:	6a 0c                	push   $0xc
    317a:	56                   	push   %esi
    317b:	e8 a0 ec ff ff       	call   1e20 <wmi_send_command>
    3180:	83 c4 14             	add    $0x14,%esp
    3183:	53                   	push   %ebx
    3184:	e8 07 e6 ff ff       	call   1790 <hw_rx_init>
    3189:	83 c4 10             	add    $0x10,%esp
    318c:	89 c6                	mov    %eax,%esi
    318e:	85 c0                	test   %eax,%eax
    3190:	75 3e                	jne    31d0 <ar9271_ieee80211_set_freq+0xe0>
    3192:	83 ec 0c             	sub    $0xc,%esp
    3195:	8d 45 f6             	lea    -0xa(%ebp),%eax
    3198:	66 c7 45 f6 00 01    	movw   $0x100,-0xa(%ebp)
    319e:	6a 00                	push   $0x0
    31a0:	6a 02                	push   $0x2
    31a2:	50                   	push   %eax
    31a3:	8b 43 24             	mov    0x24(%ebx),%eax
    31a6:	6a 0f                	push   $0xf
    31a8:	50                   	push   %eax
    31a9:	e8 72 ec ff ff       	call   1e20 <wmi_send_command>
    31ae:	83 c4 14             	add    $0x14,%esp
    31b1:	6a 00                	push   $0x0
    31b3:	6a 00                	push   $0x0
    31b5:	8b 53 24             	mov    0x24(%ebx),%edx
    31b8:	6a 00                	push   $0x0
    31ba:	6a 05                	push   $0x5
    31bc:	52                   	push   %edx
    31bd:	e8 5e ec ff ff       	call   1e20 <wmi_send_command>
    31c2:	83 c4 20             	add    $0x20,%esp
    31c5:	8d 65 f8             	lea    -0x8(%ebp),%esp
    31c8:	89 f0                	mov    %esi,%eax
    31ca:	5b                   	pop    %ebx
    31cb:	5e                   	pop    %esi
    31cc:	5d                   	pop    %ebp
    31cd:	c3                   	ret    
    31ce:	66 90                	xchg   %ax,%ax
    31d0:	51                   	push   %ecx
    31d1:	68 64 b4 01 00       	push   $0x1b464
    31d6:	6a 01                	push   $0x1
    31d8:	6a ff                	push   $0xffffffff
    31da:	e8 81 b1 01 00       	call   1e360 <log_msg@plt>
    31df:	83 c4 10             	add    $0x10,%esp
    31e2:	8d 65 f8             	lea    -0x8(%ebp),%esp
    31e5:	89 f0                	mov    %esi,%eax
    31e7:	5b                   	pop    %ebx
    31e8:	5e                   	pop    %esi
    31e9:	5d                   	pop    %ebp
    31ea:	c3                   	ret    
    31eb:	90                   	nop
    31ec:	8d 74 26 00          	lea    0x0(%esi,%eiz,1),%esi
    31f0:	50                   	push   %eax
    31f1:	68 50 b5 01 00       	push   $0x1b550
    31f6:	6a 01                	push   $0x1
    31f8:	6a ff                	push   $0xffffffff
    31fa:	e8 61 b1 01 00       	call   1e360 <log_msg@plt>
    31ff:	83 c4 10             	add    $0x10,%esp
    3202:	8d 65 f8             	lea    -0x8(%ebp),%esp
    3205:	89 f0                	mov    %esi,%eax
    3207:	5b                   	pop    %ebx
    3208:	5e                   	pop    %esi
    3209:	5d                   	pop    %ebp
    320a:	c3                   	ret    
    320b:	50                   	push   %eax
    320c:	68 42 01 00 00       	push   $0x142
    3211:	68 44 b4 01 00       	push   $0x1b444
    3216:	68 4d b4 01 00       	push   $0x1b44d
    321b:	e8 90 b1 01 00       	call   1e3b0 <assert_abort@plt>

00003220 <ar9271_ieee80211_tx_handler>:
    3220:	55                   	push   %ebp
    3221:	89 e5                	mov    %esp,%ebp
    3223:	57                   	push   %edi
    3224:	56                   	push   %esi
    3225:	53                   	push   %ebx
    3226:	83 ec 1c             	sub    $0x1c,%esp
    3229:	8b 75 08             	mov    0x8(%ebp),%esi
    322c:	85 f6                	test   %esi,%esi
    322e:	0f 84 4d 01 00 00    	je     3381 <ar9271_ieee80211_tx_handler+0x161>
    3234:	83 ec 0c             	sub    $0xc,%esp
    3237:	56                   	push   %esi
    3238:	e8 13 08 01 00       	call   13a50 <ieee80211_get_specific>
    323d:	8b 55 0c             	mov    0xc(%ebp),%edx
    3240:	89 c7                	mov    %eax,%edi
    3242:	31 c0                	xor    %eax,%eax
    3244:	66 8b 02             	mov    (%edx),%ax
    3247:	89 04 24             	mov    %eax,(%esp)
    324a:	e8 31 07 01 00       	call   13980 <ieee80211_is_data_frame>
    324f:	83 c4 10             	add    $0x10,%esp
    3252:	84 c0                	test   %al,%al
    3254:	74 62                	je     32b8 <ar9271_ieee80211_tx_handler+0x98>
    3256:	83 ec 0c             	sub    $0xc,%esp
    3259:	8b 45 10             	mov    0x10(%ebp),%eax
    325c:	83 c0 14             	add    $0x14,%eax
    325f:	50                   	push   %eax
    3260:	89 45 e4             	mov    %eax,-0x1c(%ebp)
    3263:	e8 78 b0 01 00       	call   1e2e0 <malloc@plt>
    3268:	83 c4 0c             	add    $0xc,%esp
    326b:	89 c3                	mov    %eax,%ebx
    326d:	8b 45 e4             	mov    -0x1c(%ebp),%eax
    3270:	50                   	push   %eax
    3271:	6a 00                	push   $0x0
    3273:	53                   	push   %ebx
    3274:	e8 27 b3 01 00       	call   1e5a0 <memset@plt>
    3279:	c6 43 08 02          	movb   $0x2,0x8(%ebx)
    327d:	c6 43 09 01          	movb   $0x1,0x9(%ebx)
    3281:	c6 43 0a 00          	movb   $0x0,0xa(%ebx)
    3285:	c6 43 12 00          	movb   $0x0,0x12(%ebx)
    3289:	89 34 24             	mov    %esi,(%esp)
    328c:	e8 4f 0b 01 00       	call   13de0 <ieee80211_query_using_key>
    3291:	83 c4 10             	add    $0x10,%esp
    3294:	84 c0                	test   %al,%al
    3296:	0f 85 9c 00 00 00    	jne    3338 <ar9271_ieee80211_tx_handler+0x118>
    329c:	c6 43 10 00          	movb   $0x0,0x10(%ebx)
    32a0:	c6 43 11 ff          	movb   $0xff,0x11(%ebx)
    32a4:	8b 47 24             	mov    0x24(%edi),%eax
    32a7:	8b 70 1c             	mov    0x1c(%eax),%esi
    32aa:	b8 14 00 00 00       	mov    $0x14,%eax
    32af:	eb 47                	jmp    32f8 <ar9271_ieee80211_tx_handler+0xd8>
    32b1:	8d b4 26 00 00 00 00 	lea    0x0(%esi,%eiz,1),%esi
    32b8:	83 ec 0c             	sub    $0xc,%esp
    32bb:	8b 45 10             	mov    0x10(%ebp),%eax
    32be:	83 c0 10             	add    $0x10,%eax
    32c1:	89 c6                	mov    %eax,%esi
    32c3:	50                   	push   %eax
    32c4:	89 45 e4             	mov    %eax,-0x1c(%ebp)
    32c7:	e8 14 b0 01 00       	call   1e2e0 <malloc@plt>
    32cc:	83 c4 0c             	add    $0xc,%esp
    32cf:	89 c3                	mov    %eax,%ebx
    32d1:	56                   	push   %esi
    32d2:	6a 00                	push   $0x0
    32d4:	50                   	push   %eax
    32d5:	e8 c6 b2 01 00       	call   1e5a0 <memset@plt>
    32da:	c6 43 08 00          	movb   $0x0,0x8(%ebx)
    32de:	c6 43 09 00          	movb   $0x0,0x9(%ebx)
    32e2:	c6 43 0e 00          	movb   $0x0,0xe(%ebx)
    32e6:	c6 43 0d ff          	movb   $0xff,0xd(%ebx)
    32ea:	8b 47 24             	mov    0x24(%edi),%eax
    32ed:	83 c4 10             	add    $0x10,%esp
    32f0:	8b 70 18             	mov    0x18(%eax),%esi
    32f3:	b8 10 00 00 00       	mov    $0x10,%eax
    32f8:	8b 4d 10             	mov    0x10(%ebp),%ecx
    32fb:	01 d8                	add    %ebx,%eax
    32fd:	52                   	push   %edx
    32fe:	8b 55 0c             	mov    0xc(%ebp),%edx
    3301:	51                   	push   %ecx
    3302:	52                   	push   %edx
    3303:	50                   	push   %eax
    3304:	e8 c7 af 01 00       	call   1e2d0 <memcpy@plt>
    3309:	89 f0                	mov    %esi,%eax
    330b:	8b 4d e4             	mov    -0x1c(%ebp),%ecx
    330e:	25 ff 00 00 00       	and    $0xff,%eax
    3313:	50                   	push   %eax
    3314:	51                   	push   %ecx
    3315:	53                   	push   %ebx
    3316:	8b 77 24             	mov    0x24(%edi),%esi
    3319:	56                   	push   %esi
    331a:	e8 41 f4 ff ff       	call   2760 <htc_send_data_message>
    331f:	83 c4 14             	add    $0x14,%esp
    3322:	53                   	push   %ebx
    3323:	e8 08 b5 01 00       	call   1e830 <free@plt>
    3328:	8d 65 f4             	lea    -0xc(%ebp),%esp
    332b:	31 c0                	xor    %eax,%eax
    332d:	5b                   	pop    %ebx
    332e:	5e                   	pop    %esi
    332f:	5f                   	pop    %edi
    3330:	5d                   	pop    %ebp
    3331:	c3                   	ret    
    3332:	8d b6 00 00 00 00    	lea    0x0(%esi),%esi
    3338:	83 ec 0c             	sub    $0xc,%esp
    333b:	c6 43 11 04          	movb   $0x4,0x11(%ebx)
    333f:	56                   	push   %esi
    3340:	e8 4b 08 01 00       	call   13b90 <ieee80211_get_pairwise_security>
    3345:	83 c4 10             	add    $0x10,%esp
    3348:	83 f8 02             	cmp    $0x2,%eax
    334b:	74 2b                	je     3378 <ar9271_ieee80211_tx_handler+0x158>
    334d:	7f 11                	jg     3360 <ar9271_ieee80211_tx_handler+0x140>
    334f:	85 c0                	test   %eax,%eax
    3351:	0f 88 4d ff ff ff    	js     32a4 <ar9271_ieee80211_tx_handler+0x84>
    3357:	c6 43 10 01          	movb   $0x1,0x10(%ebx)
    335b:	e9 44 ff ff ff       	jmp    32a4 <ar9271_ieee80211_tx_handler+0x84>
    3360:	83 f8 03             	cmp    $0x3,%eax
    3363:	0f 85 3b ff ff ff    	jne    32a4 <ar9271_ieee80211_tx_handler+0x84>
    3369:	c6 43 10 03          	movb   $0x3,0x10(%ebx)
    336d:	e9 32 ff ff ff       	jmp    32a4 <ar9271_ieee80211_tx_handler+0x84>
    3372:	8d b6 00 00 00 00    	lea    0x0(%esi),%esi
    3378:	c6 43 10 02          	movb   $0x2,0x10(%ebx)
    337c:	e9 23 ff ff ff       	jmp    32a4 <ar9271_ieee80211_tx_handler+0x84>
    3381:	50                   	push   %eax
    3382:	68 0a 02 00 00       	push   $0x20a
    3387:	68 44 b4 01 00       	push   $0x1b444
    338c:	68 4d b4 01 00       	push   $0x1b44d
    3391:	e8 1a b0 01 00       	call   1e3b0 <assert_abort@plt>
    3396:	8d 76 00             	lea    0x0(%esi),%esi
    3399:	8d bc 27 00 00 00 00 	lea    0x0(%edi,%eiz,1),%edi

000033a0 <ar9271_ieee80211_start>:
    33a0:	55                   	push   %ebp
    33a1:	89 e5                	mov    %esp,%ebp
    33a3:	57                   	push   %edi
    33a4:	56                   	push   %esi
    33a5:	53                   	push   %ebx
    33a6:	83 ec 1c             	sub    $0x1c,%esp
    33a9:	8b 7d 08             	mov    0x8(%ebp),%edi
    33ac:	85 ff                	test   %edi,%edi
    33ae:	0f 84 a3 01 00 00    	je     3557 <ar9271_ieee80211_start+0x1b7>
    33b4:	83 ec 0c             	sub    $0xc,%esp
    33b7:	57                   	push   %edi
    33b8:	e8 93 06 01 00       	call   13a50 <ieee80211_get_specific>
    33bd:	c7 04 24 00 00 00 00 	movl   $0x0,(%esp)
    33c4:	6a 00                	push   $0x0
    33c6:	8b 48 24             	mov    0x24(%eax),%ecx
    33c9:	6a 00                	push   $0x0
    33cb:	6a 0e                	push   $0xe
    33cd:	51                   	push   %ecx
    33ce:	89 c3                	mov    %eax,%ebx
    33d0:	e8 4b ea ff ff       	call   1e20 <wmi_send_command>
    33d5:	83 c4 14             	add    $0x14,%esp
    33d8:	53                   	push   %ebx
    33d9:	e8 22 e4 ff ff       	call   1800 <hw_reset>
    33de:	83 c4 10             	add    $0x10,%esp
    33e1:	89 c6                	mov    %eax,%esi
    33e3:	85 c0                	test   %eax,%eax
    33e5:	0f 85 25 01 00 00    	jne    3510 <ar9271_ieee80211_start+0x170>
    33eb:	83 ec 0c             	sub    $0xc,%esp
    33ee:	8d 45 de             	lea    -0x22(%ebp),%eax
    33f1:	66 c7 45 de 00 01    	movw   $0x100,-0x22(%ebp)
    33f7:	6a 00                	push   $0x0
    33f9:	6a 02                	push   $0x2
    33fb:	50                   	push   %eax
    33fc:	8b 43 24             	mov    0x24(%ebx),%eax
    33ff:	6a 0f                	push   $0xf
    3401:	50                   	push   %eax
    3402:	e8 19 ea ff ff       	call   1e20 <wmi_send_command>
    3407:	83 c4 14             	add    $0x14,%esp
    340a:	6a 00                	push   $0x0
    340c:	6a 00                	push   $0x0
    340e:	8b 43 24             	mov    0x24(%ebx),%eax
    3411:	6a 00                	push   $0x0
    3413:	6a 06                	push   $0x6
    3415:	50                   	push   %eax
    3416:	e8 05 ea ff ff       	call   1e20 <wmi_send_command>
    341b:	83 c4 14             	add    $0x14,%esp
    341e:	6a 00                	push   $0x0
    3420:	6a 00                	push   $0x0
    3422:	8b 43 24             	mov    0x24(%ebx),%eax
    3425:	6a 00                	push   $0x0
    3427:	6a 0c                	push   $0xc
    3429:	50                   	push   %eax
    342a:	e8 f1 e9 ff ff       	call   1e20 <wmi_send_command>
    342f:	83 c4 14             	add    $0x14,%esp
    3432:	6a 00                	push   $0x0
    3434:	6a 00                	push   $0x0
    3436:	8b 43 24             	mov    0x24(%ebx),%eax
    3439:	6a 00                	push   $0x0
    343b:	6a 05                	push   $0x5
    343d:	50                   	push   %eax
    343e:	e8 dd e9 ff ff       	call   1e20 <wmi_send_command>
    3443:	83 c4 14             	add    $0x14,%esp
    3446:	53                   	push   %ebx
    3447:	e8 44 e3 ff ff       	call   1790 <hw_rx_init>
    344c:	83 c4 10             	add    $0x10,%esp
    344f:	89 c6                	mov    %eax,%esi
    3451:	85 c0                	test   %eax,%eax
    3453:	0f 85 97 00 00 00    	jne    34f0 <ar9271_ieee80211_start+0x150>
    3459:	83 ec 0c             	sub    $0xc,%esp
    345c:	8d 45 e0             	lea    -0x20(%ebp),%eax
    345f:	c7 45 e0 00 00 ff ff 	movl   $0xffff0000,-0x20(%ebp)
    3466:	c6 45 e4 ff          	movb   $0xff,-0x1c(%ebp)
    346a:	6a 00                	push   $0x0
    346c:	6a 08                	push   $0x8
    346e:	8b 73 24             	mov    0x24(%ebx),%esi
    3471:	50                   	push   %eax
    3472:	6a 18                	push   $0x18
    3474:	56                   	push   %esi
    3475:	c6 45 e5 00          	movb   $0x0,-0x1b(%ebp)
    3479:	c6 45 e6 01          	movb   $0x1,-0x1a(%ebp)
    347d:	e8 9e e9 ff ff       	call   1e20 <wmi_send_command>
    3482:	83 c4 14             	add    $0x14,%esp
    3485:	8b 43 24             	mov    0x24(%ebx),%eax
    3488:	50                   	push   %eax
    3489:	e8 02 f1 ff ff       	call   2590 <htc_init_new_vif>
    348e:	83 c4 10             	add    $0x10,%esp
    3491:	89 c6                	mov    %eax,%esi
    3493:	85 c0                	test   %eax,%eax
    3495:	0f 85 95 00 00 00    	jne    3530 <ar9271_ieee80211_start+0x190>
    349b:	51                   	push   %ecx
    349c:	6a 00                	push   $0x0
    349e:	53                   	push   %ebx
    349f:	68 70 35 00 00       	push   $0x3570
    34a4:	e8 d7 b2 01 00       	call   1e780 <fibril_create_generic@plt>
    34a9:	83 c4 10             	add    $0x10,%esp
    34ac:	85 c0                	test   %eax,%eax
    34ae:	0f 84 9c 00 00 00    	je     3550 <ar9271_ieee80211_start+0x1b0>
    34b4:	83 ec 0c             	sub    $0xc,%esp
    34b7:	50                   	push   %eax
    34b8:	e8 e3 b2 01 00       	call   1e7a0 <fibril_add_ready@plt>
    34bd:	c6 43 10 00          	movb   $0x0,0x10(%ebx)
    34c1:	58                   	pop    %eax
    34c2:	5a                   	pop    %edx
    34c3:	6a 01                	push   $0x1
    34c5:	57                   	push   %edi
    34c6:	e8 d5 08 01 00       	call   13da0 <ieee80211_set_ready>
    34cb:	83 c4 0c             	add    $0xc,%esp
    34ce:	68 96 b4 01 00       	push   $0x1b496
    34d3:	6a 03                	push   $0x3
    34d5:	6a ff                	push   $0xffffffff
    34d7:	e8 84 ae 01 00       	call   1e360 <log_msg@plt>
    34dc:	83 c4 10             	add    $0x10,%esp
    34df:	8d 65 f4             	lea    -0xc(%ebp),%esp
    34e2:	89 f0                	mov    %esi,%eax
    34e4:	5b                   	pop    %ebx
    34e5:	5e                   	pop    %esi
    34e6:	5f                   	pop    %edi
    34e7:	5d                   	pop    %ebp
    34e8:	c3                   	ret    
    34e9:	8d b4 26 00 00 00 00 	lea    0x0(%esi,%eiz,1),%esi
    34f0:	50                   	push   %eax
    34f1:	68 64 b4 01 00       	push   $0x1b464
    34f6:	6a 01                	push   $0x1
    34f8:	6a ff                	push   $0xffffffff
    34fa:	e8 61 ae 01 00       	call   1e360 <log_msg@plt>
    34ff:	83 c4 10             	add    $0x10,%esp
    3502:	8d 65 f4             	lea    -0xc(%ebp),%esp
    3505:	89 f0                	mov    %esi,%eax
    3507:	5b                   	pop    %ebx
    3508:	5e                   	pop    %esi
    3509:	5f                   	pop    %edi
    350a:	5d                   	pop    %ebp
    350b:	c3                   	ret    
    350c:	8d 74 26 00          	lea    0x0(%esi,%eiz,1),%esi
    3510:	52                   	push   %edx
    3511:	68 7e b4 01 00       	push   $0x1b47e
    3516:	6a 01                	push   $0x1
    3518:	6a ff                	push   $0xffffffff
    351a:	e8 41 ae 01 00       	call   1e360 <log_msg@plt>
    351f:	83 c4 10             	add    $0x10,%esp
    3522:	8d 65 f4             	lea    -0xc(%ebp),%esp
    3525:	89 f0                	mov    %esi,%eax
    3527:	5b                   	pop    %ebx
    3528:	5e                   	pop    %esi
    3529:	5f                   	pop    %edi
    352a:	5d                   	pop    %ebp
    352b:	c3                   	ret    
    352c:	8d 74 26 00          	lea    0x0(%esi,%eiz,1),%esi
    3530:	53                   	push   %ebx
    3531:	68 70 b5 01 00       	push   $0x1b570
    3536:	6a 01                	push   $0x1
    3538:	6a ff                	push   $0xffffffff
    353a:	e8 21 ae 01 00       	call   1e360 <log_msg@plt>
    353f:	83 c4 10             	add    $0x10,%esp
    3542:	8d 65 f4             	lea    -0xc(%ebp),%esp
    3545:	89 f0                	mov    %esi,%eax
    3547:	5b                   	pop    %ebx
    3548:	5e                   	pop    %esi
    3549:	5f                   	pop    %edi
    354a:	5d                   	pop    %ebp
    354b:	c3                   	ret    
    354c:	8d 74 26 00          	lea    0x0(%esi,%eiz,1),%esi
    3550:	be fe ff ff ff       	mov    $0xfffffffe,%esi
    3555:	eb 88                	jmp    34df <ar9271_ieee80211_start+0x13f>
    3557:	53                   	push   %ebx
    3558:	68 62 02 00 00       	push   $0x262
    355d:	68 44 b4 01 00       	push   $0x1b444
    3562:	68 4d b4 01 00       	push   $0x1b44d
    3567:	e8 44 ae 01 00       	call   1e3b0 <assert_abort@plt>
    356c:	8d 74 26 00          	lea    0x0(%esi,%eiz,1),%esi

00003570 <ar9271_data_polling>:
    3570:	55                   	push   %ebp
    3571:	89 e5                	mov    %esp,%ebp
    3573:	57                   	push   %edi
    3574:	56                   	push   %esi
    3575:	53                   	push   %ebx
    3576:	83 ec 2c             	sub    $0x2c,%esp
    3579:	8b 75 08             	mov    0x8(%ebp),%esi
    357c:	85 f6                	test   %esi,%esi
    357e:	74 76                	je     35f6 <ar9271_data_polling+0x86>
    3580:	8b 46 20             	mov    0x20(%esi),%eax
    3583:	83 ec 0c             	sub    $0xc,%esp
    3586:	8b 38                	mov    (%eax),%edi
    3588:	57                   	push   %edi
    3589:	e8 52 ad 01 00       	call   1e2e0 <malloc@plt>
    358e:	89 c3                	mov    %eax,%ebx
    3590:	83 c4 10             	add    $0x10,%esp
    3593:	8d 40 34             	lea    0x34(%eax),%eax
    3596:	89 45 d4             	mov    %eax,-0x2c(%ebp)
    3599:	8d b4 26 00 00 00 00 	lea    0x0(%esi,%eiz,1),%esi
    35a0:	8d 45 e4             	lea    -0x1c(%ebp),%eax
    35a3:	50                   	push   %eax
    35a4:	57                   	push   %edi
    35a5:	53                   	push   %ebx
    35a6:	8b 46 24             	mov    0x24(%esi),%eax
    35a9:	50                   	push   %eax
    35aa:	e8 01 f2 ff ff       	call   27b0 <htc_read_data_message>
    35af:	83 c4 10             	add    $0x10,%esp
    35b2:	85 c0                	test   %eax,%eax
    35b4:	75 ea                	jne    35a0 <ar9271_data_polling+0x30>
    35b6:	8b 45 e4             	mov    -0x1c(%ebp),%eax
    35b9:	83 f8 33             	cmp    $0x33,%eax
    35bc:	76 e2                	jbe    35a0 <ar9271_data_polling+0x30>
    35be:	66 81 7b 02 00 4e    	cmpw   $0x4e00,0x2(%ebx)
    35c4:	75 da                	jne    35a0 <ar9271_data_polling+0x30>
    35c6:	8b 53 14             	mov    0x14(%ebx),%edx
    35c9:	83 e8 34             	sub    $0x34,%eax
    35cc:	66 c1 c2 08          	rol    $0x8,%dx
    35d0:	89 d1                	mov    %edx,%ecx
    35d2:	31 d2                	xor    %edx,%edx
    35d4:	98                   	cwtl   
    35d5:	66 89 ca             	mov    %cx,%dx
    35d8:	39 d0                	cmp    %edx,%eax
    35da:	78 c4                	js     35a0 <ar9271_data_polling+0x30>
    35dc:	f6 43 16 03          	testb  $0x3,0x16(%ebx)
    35e0:	75 be                	jne    35a0 <ar9271_data_polling+0x30>
    35e2:	8b 4d d4             	mov    -0x2c(%ebp),%ecx
    35e5:	52                   	push   %edx
    35e6:	50                   	push   %eax
    35e7:	51                   	push   %ecx
    35e8:	8b 46 1c             	mov    0x1c(%esi),%eax
    35eb:	50                   	push   %eax
    35ec:	e8 0f 11 01 00       	call   14700 <ieee80211_rx_handler>
    35f1:	83 c4 10             	add    $0x10,%esp
    35f4:	eb aa                	jmp    35a0 <ar9271_data_polling+0x30>
    35f6:	50                   	push   %eax
    35f7:	68 04 01 00 00       	push   $0x104
    35fc:	68 44 b4 01 00       	push   $0x1b444
    3601:	68 b1 b4 01 00       	push   $0x1b4b1
    3606:	e8 a5 ad 01 00       	call   1e3b0 <assert_abort@plt>
    360b:	90                   	nop
    360c:	8d 74 26 00          	lea    0x0(%esi,%eiz,1),%esi

00003610 <ar9271_get_device_info>:
    3610:	55                   	push   %ebp
    3611:	89 e5                	mov    %esp,%ebp
    3613:	53                   	push   %ebx
    3614:	53                   	push   %ebx
    3615:	8b 45 08             	mov    0x8(%ebp),%eax
    3618:	8b 5d 0c             	mov    0xc(%ebp),%ebx
    361b:	85 c0                	test   %eax,%eax
    361d:	74 46                	je     3665 <ar9271_get_device_info+0x55>
    361f:	85 db                	test   %ebx,%ebx
    3621:	74 57                	je     367a <ar9271_get_device_info+0x6a>
    3623:	50                   	push   %eax
    3624:	68 1c 01 00 00       	push   $0x11c
    3629:	6a 00                	push   $0x0
    362b:	53                   	push   %ebx
    362c:	e8 6f af 01 00       	call   1e5a0 <memset@plt>
    3631:	83 c4 0c             	add    $0xc,%esp
    3634:	c7 83 00 01 00 00 f3 	movl   $0x92710cf3,0x100(%ebx)
    363b:	0c 71 92 
    363e:	68 b5 b4 01 00       	push   $0x1b4b5
    3643:	6a 40                	push   $0x40
    3645:	53                   	push   %ebx
    3646:	e8 d5 af 01 00       	call   1e620 <str_cpy@plt>
    364b:	83 c4 0c             	add    $0xc,%esp
    364e:	83 c3 40             	add    $0x40,%ebx
    3651:	68 d2 b4 01 00       	push   $0x1b4d2
    3656:	6a 40                	push   $0x40
    3658:	53                   	push   %ebx
    3659:	e8 c2 af 01 00       	call   1e620 <str_cpy@plt>
    365e:	31 c0                	xor    %eax,%eax
    3660:	8b 5d fc             	mov    -0x4(%ebp),%ebx
    3663:	c9                   	leave  
    3664:	c3                   	ret    
    3665:	51                   	push   %ecx
    3666:	68 92 00 00 00       	push   $0x92
    366b:	68 44 b4 01 00       	push   $0x1b444
    3670:	68 57 b4 01 00       	push   $0x1b457
    3675:	e8 36 ad 01 00       	call   1e3b0 <assert_abort@plt>
    367a:	52                   	push   %edx
    367b:	68 93 00 00 00       	push   $0x93
    3680:	68 44 b4 01 00       	push   $0x1b444
    3685:	68 f8 d2 01 00       	push   $0x1d2f8
    368a:	e8 21 ad 01 00       	call   1e3b0 <assert_abort@plt>
    368f:	90                   	nop

00003690 <ar9271_add_device>:
    3690:	55                   	push   %ebp
    3691:	89 e5                	mov    %esp,%ebp
    3693:	57                   	push   %edi
    3694:	56                   	push   %esi
    3695:	53                   	push   %ebx
    3696:	83 ec 3c             	sub    $0x3c,%esp
    3699:	8b 45 08             	mov    0x8(%ebp),%eax
    369c:	85 c0                	test   %eax,%eax
    369e:	0f 84 a3 05 00 00    	je     3c47 <ar9271_add_device+0x5b7>
    36a4:	8d 45 e4             	lea    -0x1c(%ebp),%eax
    36a7:	57                   	push   %edi
    36a8:	50                   	push   %eax
    36a9:	8b 45 08             	mov    0x8(%ebp),%eax
    36ac:	68 98 0c 02 00       	push   $0x20c98
    36b1:	c7 45 e4 00 00 00 00 	movl   $0x0,-0x1c(%ebp)
    36b8:	50                   	push   %eax
    36b9:	e8 c2 0b 00 00       	call   4280 <usb_device_create_ddf>
    36be:	83 c4 10             	add    $0x10,%esp
    36c1:	85 c0                	test   %eax,%eax
    36c3:	0f 85 bb 04 00 00    	jne    3b84 <ar9271_add_device+0x4f4>
    36c9:	53                   	push   %ebx
    36ca:	53                   	push   %ebx
    36cb:	6a 28                	push   $0x28
    36cd:	6a 01                	push   $0x1
    36cf:	e8 fc ac 01 00       	call   1e3d0 <calloc@plt>
    36d4:	83 c4 10             	add    $0x10,%esp
    36d7:	89 45 bc             	mov    %eax,-0x44(%ebp)
    36da:	85 c0                	test   %eax,%eax
    36dc:	0f 84 c0 04 00 00    	je     3ba2 <ar9271_add_device+0x512>
    36e2:	83 ec 0c             	sub    $0xc,%esp
    36e5:	8b 5d 08             	mov    0x8(%ebp),%ebx
    36e8:	89 58 14             	mov    %ebx,0x14(%eax)
    36eb:	89 c7                	mov    %eax,%edi
    36ed:	53                   	push   %ebx
    36ee:	e8 5d 3e 00 00       	call   7550 <ddf_dev_data_get>
    36f3:	89 c3                	mov    %eax,%ebx
    36f5:	c6 47 10 01          	movb   $0x1,0x10(%edi)
    36f9:	89 5f 18             	mov    %ebx,0x18(%edi)
    36fc:	89 3c 24             	mov    %edi,(%esp)
    36ff:	e8 8c ad 01 00       	call   1e490 <fibril_mutex_initialize@plt>
    3704:	58                   	pop    %eax
    3705:	5a                   	pop    %edx
    3706:	6a 10                	push   $0x10
    3708:	6a 01                	push   $0x1
    370a:	e8 c1 ac 01 00       	call   1e3d0 <calloc@plt>
    370f:	83 c4 10             	add    $0x10,%esp
    3712:	89 47 20             	mov    %eax,0x20(%edi)
    3715:	85 c0                	test   %eax,%eax
    3717:	0f 84 d5 04 00 00    	je     3bf2 <ar9271_add_device+0x562>
    371d:	57                   	push   %edi
    371e:	57                   	push   %edi
    371f:	53                   	push   %ebx
    3720:	50                   	push   %eax
    3721:	e8 5a db ff ff       	call   1280 <ath_usb_init>
    3726:	83 c4 10             	add    $0x10,%esp
    3729:	89 c3                	mov    %eax,%ebx
    372b:	85 c0                	test   %eax,%eax
    372d:	0f 85 95 03 00 00    	jne    3ac8 <ar9271_add_device+0x438>
    3733:	e8 28 07 01 00       	call   13e60 <ieee80211_device_create>
    3738:	8b 7d bc             	mov    -0x44(%ebp),%edi
    373b:	85 c0                	test   %eax,%eax
    373d:	89 47 1c             	mov    %eax,0x1c(%edi)
    3740:	0f 84 c8 04 00 00    	je     3c0e <ar9271_add_device+0x57e>
    3746:	52                   	push   %edx
    3747:	52                   	push   %edx
    3748:	8b 4f 14             	mov    0x14(%edi),%ecx
    374b:	51                   	push   %ecx
    374c:	50                   	push   %eax
    374d:	e8 2e 07 01 00       	call   13e80 <ieee80211_device_init>
    3752:	83 c4 10             	add    $0x10,%esp
    3755:	89 c3                	mov    %eax,%ebx
    3757:	85 c0                	test   %eax,%eax
    3759:	0f 85 71 02 00 00    	jne    39d0 <ar9271_add_device+0x340>
    375f:	8b 7d bc             	mov    -0x44(%ebp),%edi
    3762:	50                   	push   %eax
    3763:	50                   	push   %eax
    3764:	57                   	push   %edi
    3765:	8b 47 1c             	mov    0x1c(%edi),%eax
    3768:	50                   	push   %eax
    3769:	e8 f2 02 01 00       	call   13a60 <ieee80211_set_specific>
    376e:	58                   	pop    %eax
    376f:	5a                   	pop    %edx
    3770:	6a 54                	push   $0x54
    3772:	6a 01                	push   $0x1
    3774:	e8 57 ac 01 00       	call   1e3d0 <calloc@plt>
    3779:	83 c4 10             	add    $0x10,%esp
    377c:	89 47 24             	mov    %eax,0x24(%edi)
    377f:	85 c0                	test   %eax,%eax
    3781:	0f 84 9d 04 00 00    	je     3c24 <ar9271_add_device+0x594>
    3787:	52                   	push   %edx
    3788:	50                   	push   %eax
    3789:	8b 45 bc             	mov    -0x44(%ebp),%eax
    378c:	8b 48 1c             	mov    0x1c(%eax),%ecx
    378f:	8b 58 20             	mov    0x20(%eax),%ebx
    3792:	51                   	push   %ecx
    3793:	53                   	push   %ebx
    3794:	e8 57 f0 ff ff       	call   27f0 <htc_device_init>
    3799:	83 c4 10             	add    $0x10,%esp
    379c:	89 c3                	mov    %eax,%ebx
    379e:	85 c0                	test   %eax,%eax
    37a0:	0f 85 6a 03 00 00    	jne    3b10 <ar9271_add_device+0x480>
    37a6:	50                   	push   %eax
    37a7:	68 24 b7 01 00       	push   $0x1b724
    37ac:	6a 03                	push   $0x3
    37ae:	6a ff                	push   $0xffffffff
    37b0:	e8 ab ab 01 00       	call   1e360 <log_msg@plt>
    37b5:	8b 45 bc             	mov    -0x44(%ebp),%eax
    37b8:	8b 40 18             	mov    0x18(%eax),%eax
    37bb:	89 45 c0             	mov    %eax,-0x40(%ebp)
    37be:	58                   	pop    %eax
    37bf:	5a                   	pop    %edx
    37c0:	68 d9 b4 01 00       	push   $0x1b4d9
    37c5:	68 dc b4 01 00       	push   $0x1b4dc
    37ca:	e8 b1 ad 01 00       	call   1e580 <fopen@plt>
    37cf:	83 c4 10             	add    $0x10,%esp
    37d2:	89 c3                	mov    %eax,%ebx
    37d4:	85 c0                	test   %eax,%eax
    37d6:	0f 84 dd 03 00 00    	je     3bb9 <ar9271_add_device+0x529>
    37dc:	6a 02                	push   $0x2
    37de:	6a 00                	push   $0x0
    37e0:	6a 00                	push   $0x0
    37e2:	50                   	push   %eax
    37e3:	e8 58 ac 01 00       	call   1e440 <fseek@plt>
    37e8:	89 1c 24             	mov    %ebx,(%esp)
    37eb:	e8 d0 ad 01 00       	call   1e5c0 <ftell@plt>
    37f0:	6a 00                	push   $0x0
    37f2:	6a 00                	push   $0x0
    37f4:	6a 00                	push   $0x0
    37f6:	53                   	push   %ebx
    37f7:	89 c6                	mov    %eax,%esi
    37f9:	89 d7                	mov    %edx,%edi
    37fb:	89 55 d4             	mov    %edx,-0x2c(%ebp)
    37fe:	89 45 d0             	mov    %eax,-0x30(%ebp)
    3801:	e8 3a ac 01 00       	call   1e440 <fseek@plt>
    3806:	83 c4 14             	add    $0x14,%esp
    3809:	56                   	push   %esi
    380a:	e8 d1 aa 01 00       	call   1e2e0 <malloc@plt>
    380f:	83 c4 10             	add    $0x10,%esp
    3812:	89 45 b8             	mov    %eax,-0x48(%ebp)
    3815:	85 c0                	test   %eax,%eax
    3817:	0f 84 b3 03 00 00    	je     3bd0 <ar9271_add_device+0x540>
    381d:	53                   	push   %ebx
    381e:	6a 01                	push   $0x1
    3820:	56                   	push   %esi
    3821:	8b 75 b8             	mov    -0x48(%ebp),%esi
    3824:	56                   	push   %esi
    3825:	e8 26 ad 01 00       	call   1e550 <fread@plt>
    382a:	89 1c 24             	mov    %ebx,(%esp)
    382d:	e8 be ad 01 00       	call   1e5f0 <fclose@plt>
    3832:	c7 04 24 00 02 00 00 	movl   $0x200,(%esp)
    3839:	e8 a2 aa 01 00       	call   1e2e0 <malloc@plt>
    383e:	89 c3                	mov    %eax,%ebx
    3840:	8b 45 d0             	mov    -0x30(%ebp),%eax
    3843:	83 c4 10             	add    $0x10,%esp
    3846:	89 f1                	mov    %esi,%ecx
    3848:	c7 45 c8 00 10 50 00 	movl   $0x501000,-0x38(%ebp)
    384f:	09 c7                	or     %eax,%edi
    3851:	0f 84 ec 01 00 00    	je     3a43 <ar9271_add_device+0x3b3>
    3857:	8b 75 d0             	mov    -0x30(%ebp),%esi
    385a:	8b 7d d4             	mov    -0x2c(%ebp),%edi
    385d:	89 5d cc             	mov    %ebx,-0x34(%ebp)
    3860:	eb 22                	jmp    3884 <ar9271_add_device+0x1f4>
    3862:	8d b6 00 00 00 00    	lea    0x0(%esi),%esi
    3868:	2b 75 d0             	sub    -0x30(%ebp),%esi
    386b:	89 da                	mov    %ebx,%edx
    386d:	1b 7d d4             	sbb    -0x2c(%ebp),%edi
    3870:	8b 5d c8             	mov    -0x38(%ebp),%ebx
    3873:	01 d3                	add    %edx,%ebx
    3875:	01 d1                	add    %edx,%ecx
    3877:	89 fa                	mov    %edi,%edx
    3879:	89 5d c8             	mov    %ebx,-0x38(%ebp)
    387c:	09 f2                	or     %esi,%edx
    387e:	0f 84 bc 01 00 00    	je     3a40 <ar9271_add_device+0x3b0>
    3884:	89 75 d0             	mov    %esi,-0x30(%ebp)
    3887:	89 7d d4             	mov    %edi,-0x2c(%ebp)
    388a:	83 ff 00             	cmp    $0x0,%edi
    388d:	77 08                	ja     3897 <ar9271_add_device+0x207>
    388f:	81 fe 00 02 00 00    	cmp    $0x200,%esi
    3895:	76 0e                	jbe    38a5 <ar9271_add_device+0x215>
    3897:	c7 45 d0 00 02 00 00 	movl   $0x200,-0x30(%ebp)
    389e:	c7 45 d4 00 00 00 00 	movl   $0x0,-0x2c(%ebp)
    38a5:	8b 45 d0             	mov    -0x30(%ebp),%eax
    38a8:	89 4d c4             	mov    %ecx,-0x3c(%ebp)
    38ab:	89 c3                	mov    %eax,%ebx
    38ad:	50                   	push   %eax
    38ae:	8b 45 d0             	mov    -0x30(%ebp),%eax
    38b1:	50                   	push   %eax
    38b2:	8b 45 cc             	mov    -0x34(%ebp),%eax
    38b5:	51                   	push   %ecx
    38b6:	50                   	push   %eax
    38b7:	e8 14 aa 01 00       	call   1e2d0 <memcpy@plt>
    38bc:	58                   	pop    %eax
    38bd:	8b 45 c0             	mov    -0x40(%ebp),%eax
    38c0:	50                   	push   %eax
    38c1:	e8 0a 08 00 00       	call   40d0 <usb_device_get_default_pipe>
    38c6:	8b 55 d0             	mov    -0x30(%ebp),%edx
    38c9:	8b 4d cc             	mov    -0x34(%ebp),%ecx
    38cc:	52                   	push   %edx
    38cd:	8b 55 c8             	mov    -0x38(%ebp),%edx
    38d0:	c1 ea 08             	shr    $0x8,%edx
    38d3:	51                   	push   %ecx
    38d4:	81 e2 ff ff 00 00    	and    $0xffff,%edx
    38da:	6a 00                	push   $0x0
    38dc:	52                   	push   %edx
    38dd:	6a 30                	push   $0x30
    38df:	6a 00                	push   $0x0
    38e1:	6a 02                	push   $0x2
    38e3:	50                   	push   %eax
    38e4:	e8 d7 1b 00 00       	call   54c0 <usb_control_request_set>
    38e9:	83 c4 30             	add    $0x30,%esp
    38ec:	8b 4d c4             	mov    -0x3c(%ebp),%ecx
    38ef:	85 c0                	test   %eax,%eax
    38f1:	0f 84 71 ff ff ff    	je     3868 <ar9271_add_device+0x1d8>
    38f7:	83 ec 0c             	sub    $0xc,%esp
    38fa:	8b 75 b8             	mov    -0x48(%ebp),%esi
    38fd:	8b 5d cc             	mov    -0x34(%ebp),%ebx
    3900:	89 45 d0             	mov    %eax,-0x30(%ebp)
    3903:	56                   	push   %esi
    3904:	e8 27 af 01 00       	call   1e830 <free@plt>
    3909:	89 1c 24             	mov    %ebx,(%esp)
    390c:	e8 1f af 01 00       	call   1e830 <free@plt>
    3911:	8b 45 d0             	mov    -0x30(%ebp),%eax
    3914:	50                   	push   %eax
    3915:	68 94 b7 01 00       	push   $0x1b794
    391a:	6a 01                	push   $0x1
    391c:	6a ff                	push   $0xffffffff
    391e:	e8 3d aa 01 00       	call   1e360 <log_msg@plt>
    3923:	83 c4 20             	add    $0x20,%esp
    3926:	8b 45 bc             	mov    -0x44(%ebp),%eax
    3929:	83 ec 0c             	sub    $0xc,%esp
    392c:	8b 40 24             	mov    0x24(%eax),%eax
    392f:	50                   	push   %eax
    3930:	e8 fb ee ff ff       	call   2830 <htc_init>
    3935:	83 c4 10             	add    $0x10,%esp
    3938:	89 c3                	mov    %eax,%ebx
    393a:	85 c0                	test   %eax,%eax
    393c:	0f 85 66 01 00 00    	jne    3aa8 <ar9271_add_device+0x418>
    3942:	83 ec 0c             	sub    $0xc,%esp
    3945:	8b 45 bc             	mov    -0x44(%ebp),%eax
    3948:	50                   	push   %eax
    3949:	e8 a2 e2 ff ff       	call   1bf0 <hw_init>
    394e:	83 c4 10             	add    $0x10,%esp
    3951:	89 c3                	mov    %eax,%ebx
    3953:	85 c0                	test   %eax,%eax
    3955:	0f 85 95 01 00 00    	jne    3af0 <ar9271_add_device+0x460>
    395b:	8b 45 bc             	mov    -0x44(%ebp),%eax
    395e:	83 ec 0c             	sub    $0xc,%esp
    3961:	8b 40 1c             	mov    0x1c(%eax),%eax
    3964:	68 20 0f 02 00       	push   $0x20f20
    3969:	68 c0 0b 02 00       	push   $0x20bc0
    396e:	68 68 0f 02 00       	push   $0x20f68
    3973:	68 64 0c 02 00       	push   $0x20c64
    3978:	50                   	push   %eax
    3979:	e8 d2 05 01 00       	call   13f50 <ieee80211_init>
    397e:	83 c4 20             	add    $0x20,%esp
    3981:	89 c3                	mov    %eax,%ebx
    3983:	85 c0                	test   %eax,%eax
    3985:	0f 85 dd 01 00 00    	jne    3b68 <ar9271_add_device+0x4d8>
    398b:	83 ec 0c             	sub    $0xc,%esp
    398e:	8b 4d 08             	mov    0x8(%ebp),%ecx
    3991:	51                   	push   %ecx
    3992:	e8 b9 d6 00 00       	call   11050 <nic_get_from_ddf_dev>
    3997:	5e                   	pop    %esi
    3998:	5f                   	pop    %edi
    3999:	6a 00                	push   $0x0
    399b:	6a 00                	push   $0x0
    399d:	68 30 2c 00 00       	push   $0x2c30
    39a2:	68 f0 2b 00 00       	push   $0x2bf0
    39a7:	68 10 2c 00 00       	push   $0x2c10
    39ac:	50                   	push   %eax
    39ad:	e8 fe c8 00 00       	call   102b0 <nic_set_filtering_change_handlers>
    39b2:	83 c4 1c             	add    $0x1c,%esp
    39b5:	68 29 b5 01 00       	push   $0x1b529
    39ba:	6a 03                	push   $0x3
    39bc:	6a ff                	push   $0xffffffff
    39be:	e8 9d a9 01 00       	call   1e360 <log_msg@plt>
    39c3:	83 c4 10             	add    $0x10,%esp
    39c6:	8d 65 f4             	lea    -0xc(%ebp),%esp
    39c9:	89 d8                	mov    %ebx,%eax
    39cb:	5b                   	pop    %ebx
    39cc:	5e                   	pop    %esi
    39cd:	5f                   	pop    %edi
    39ce:	5d                   	pop    %ebp
    39cf:	c3                   	ret    
    39d0:	8b 7d bc             	mov    -0x44(%ebp),%edi
    39d3:	83 ec 0c             	sub    $0xc,%esp
    39d6:	8b 4f 1c             	mov    0x1c(%edi),%ecx
    39d9:	51                   	push   %ecx
    39da:	e8 51 ae 01 00       	call   1e830 <free@plt>
    39df:	8b 7f 20             	mov    0x20(%edi),%edi
    39e2:	5e                   	pop    %esi
    39e3:	57                   	push   %edi
    39e4:	e8 47 ae 01 00       	call   1e830 <free@plt>
    39e9:	83 c4 0c             	add    $0xc,%esp
    39ec:	68 8c b6 01 00       	push   $0x1b68c
    39f1:	6a 01                	push   $0x1
    39f3:	6a ff                	push   $0xffffffff
    39f5:	e8 66 a9 01 00       	call   1e360 <log_msg@plt>
    39fa:	83 c4 10             	add    $0x10,%esp
    39fd:	83 ec 0c             	sub    $0xc,%esp
    3a00:	8b 55 bc             	mov    -0x44(%ebp),%edx
    3a03:	52                   	push   %edx
    3a04:	e8 27 ae 01 00       	call   1e830 <free@plt>
    3a09:	53                   	push   %ebx
    3a0a:	68 48 b8 01 00       	push   $0x1b848
    3a0f:	6a 01                	push   $0x1
    3a11:	6a ff                	push   $0xffffffff
    3a13:	e8 48 a9 01 00       	call   1e360 <log_msg@plt>
    3a18:	83 c4 20             	add    $0x20,%esp
    3a1b:	50                   	push   %eax
    3a1c:	68 74 b8 01 00       	push   $0x1b874
    3a21:	6a 01                	push   $0x1
    3a23:	6a ff                	push   $0xffffffff
    3a25:	e8 36 a9 01 00       	call   1e360 <log_msg@plt>
    3a2a:	83 c4 10             	add    $0x10,%esp
    3a2d:	8d 65 f4             	lea    -0xc(%ebp),%esp
    3a30:	bb fe ff ff ff       	mov    $0xfffffffe,%ebx
    3a35:	89 d8                	mov    %ebx,%eax
    3a37:	5b                   	pop    %ebx
    3a38:	5e                   	pop    %esi
    3a39:	5f                   	pop    %edi
    3a3a:	5d                   	pop    %ebp
    3a3b:	c3                   	ret    
    3a3c:	8d 74 26 00          	lea    0x0(%esi,%eiz,1),%esi
    3a40:	8b 5d cc             	mov    -0x34(%ebp),%ebx
    3a43:	83 ec 0c             	sub    $0xc,%esp
    3a46:	8b 75 b8             	mov    -0x48(%ebp),%esi
    3a49:	56                   	push   %esi
    3a4a:	e8 e1 ad 01 00       	call   1e830 <free@plt>
    3a4f:	89 1c 24             	mov    %ebx,(%esp)
    3a52:	e8 d9 ad 01 00       	call   1e830 <free@plt>
    3a57:	8b 45 c0             	mov    -0x40(%ebp),%eax
    3a5a:	5f                   	pop    %edi
    3a5b:	50                   	push   %eax
    3a5c:	e8 6f 06 00 00       	call   40d0 <usb_device_get_default_pipe>
    3a61:	6a 00                	push   $0x0
    3a63:	6a 00                	push   $0x0
    3a65:	6a 00                	push   $0x0
    3a67:	68 30 90 00 00       	push   $0x9030
    3a6c:	6a 31                	push   $0x31
    3a6e:	6a 00                	push   $0x0
    3a70:	6a 02                	push   $0x2
    3a72:	50                   	push   %eax
    3a73:	e8 48 1a 00 00       	call   54c0 <usb_control_request_set>
    3a78:	83 c4 30             	add    $0x30,%esp
    3a7b:	85 c0                	test   %eax,%eax
    3a7d:	0f 85 cd 00 00 00    	jne    3b50 <ar9271_add_device+0x4c0>
    3a83:	52                   	push   %edx
    3a84:	68 f8 b7 01 00       	push   $0x1b7f8
    3a89:	6a 03                	push   $0x3
    3a8b:	6a ff                	push   $0xffffffff
    3a8d:	e8 ce a8 01 00       	call   1e360 <log_msg@plt>
    3a92:	c7 04 24 01 00 00 00 	movl   $0x1,(%esp)
    3a99:	e8 52 a8 01 00       	call   1e2f0 <sleep@plt>
    3a9e:	83 c4 10             	add    $0x10,%esp
    3aa1:	e9 80 fe ff ff       	jmp    3926 <ar9271_add_device+0x296>
    3aa6:	66 90                	xchg   %ax,%ax
    3aa8:	50                   	push   %eax
    3aa9:	68 f2 b4 01 00       	push   $0x1b4f2
    3aae:	6a 01                	push   $0x1
    3ab0:	6a ff                	push   $0xffffffff
    3ab2:	e8 a9 a8 01 00       	call   1e360 <log_msg@plt>
    3ab7:	83 c4 10             	add    $0x10,%esp
    3aba:	8d 65 f4             	lea    -0xc(%ebp),%esp
    3abd:	89 d8                	mov    %ebx,%eax
    3abf:	5b                   	pop    %ebx
    3ac0:	5e                   	pop    %esi
    3ac1:	5f                   	pop    %edi
    3ac2:	5d                   	pop    %ebp
    3ac3:	c3                   	ret    
    3ac4:	8d 74 26 00          	lea    0x0(%esi,%eiz,1),%esi
    3ac8:	8b 45 bc             	mov    -0x44(%ebp),%eax
    3acb:	83 ec 0c             	sub    $0xc,%esp
    3ace:	8b 70 20             	mov    0x20(%eax),%esi
    3ad1:	56                   	push   %esi
    3ad2:	e8 59 ad 01 00       	call   1e830 <free@plt>
    3ad7:	83 c4 0c             	add    $0xc,%esp
    3ada:	68 2c b6 01 00       	push   $0x1b62c
    3adf:	6a 01                	push   $0x1
    3ae1:	6a ff                	push   $0xffffffff
    3ae3:	e8 78 a8 01 00       	call   1e360 <log_msg@plt>
    3ae8:	83 c4 10             	add    $0x10,%esp
    3aeb:	e9 0d ff ff ff       	jmp    39fd <ar9271_add_device+0x36d>
    3af0:	50                   	push   %eax
    3af1:	68 0e b5 01 00       	push   $0x1b50e
    3af6:	6a 01                	push   $0x1
    3af8:	6a ff                	push   $0xffffffff
    3afa:	e8 61 a8 01 00       	call   1e360 <log_msg@plt>
    3aff:	83 c4 10             	add    $0x10,%esp
    3b02:	8d 65 f4             	lea    -0xc(%ebp),%esp
    3b05:	89 d8                	mov    %ebx,%eax
    3b07:	5b                   	pop    %ebx
    3b08:	5e                   	pop    %esi
    3b09:	5f                   	pop    %edi
    3b0a:	5d                   	pop    %ebp
    3b0b:	c3                   	ret    
    3b0c:	8d 74 26 00          	lea    0x0(%esi,%eiz,1),%esi
    3b10:	8b 7d bc             	mov    -0x44(%ebp),%edi
    3b13:	83 ec 0c             	sub    $0xc,%esp
    3b16:	8b 4f 24             	mov    0x24(%edi),%ecx
    3b19:	51                   	push   %ecx
    3b1a:	e8 11 ad 01 00       	call   1e830 <free@plt>
    3b1f:	8b 47 1c             	mov    0x1c(%edi),%eax
    3b22:	5e                   	pop    %esi
    3b23:	50                   	push   %eax
    3b24:	e8 07 ad 01 00       	call   1e830 <free@plt>
    3b29:	58                   	pop    %eax
    3b2a:	8b 47 20             	mov    0x20(%edi),%eax
    3b2d:	50                   	push   %eax
    3b2e:	e8 fd ac 01 00       	call   1e830 <free@plt>
    3b33:	83 c4 0c             	add    $0xc,%esp
    3b36:	68 f8 b6 01 00       	push   $0x1b6f8
    3b3b:	6a 01                	push   $0x1
    3b3d:	6a ff                	push   $0xffffffff
    3b3f:	e8 1c a8 01 00       	call   1e360 <log_msg@plt>
    3b44:	83 c4 10             	add    $0x10,%esp
    3b47:	e9 b1 fe ff ff       	jmp    39fd <ar9271_add_device+0x36d>
    3b4c:	8d 74 26 00          	lea    0x0(%esi,%eiz,1),%esi
    3b50:	51                   	push   %ecx
    3b51:	68 c0 b7 01 00       	push   $0x1b7c0
    3b56:	6a 01                	push   $0x1
    3b58:	6a ff                	push   $0xffffffff
    3b5a:	e8 01 a8 01 00       	call   1e360 <log_msg@plt>
    3b5f:	83 c4 10             	add    $0x10,%esp
    3b62:	e9 bf fd ff ff       	jmp    3926 <ar9271_add_device+0x296>
    3b67:	90                   	nop
    3b68:	50                   	push   %eax
    3b69:	68 1c b8 01 00       	push   $0x1b81c
    3b6e:	6a 01                	push   $0x1
    3b70:	6a ff                	push   $0xffffffff
    3b72:	e8 e9 a7 01 00       	call   1e360 <log_msg@plt>
    3b77:	83 c4 10             	add    $0x10,%esp
    3b7a:	8d 65 f4             	lea    -0xc(%ebp),%esp
    3b7d:	89 d8                	mov    %ebx,%eax
    3b7f:	5b                   	pop    %ebx
    3b80:	5e                   	pop    %esi
    3b81:	5f                   	pop    %edi
    3b82:	5d                   	pop    %ebp
    3b83:	c3                   	ret    
    3b84:	83 ec 0c             	sub    $0xc,%esp
    3b87:	8b 75 e4             	mov    -0x1c(%ebp),%esi
    3b8a:	50                   	push   %eax
    3b8b:	56                   	push   %esi
    3b8c:	68 90 b5 01 00       	push   $0x1b590
    3b91:	6a 01                	push   $0x1
    3b93:	6a ff                	push   $0xffffffff
    3b95:	e8 c6 a7 01 00       	call   1e360 <log_msg@plt>
    3b9a:	83 c4 20             	add    $0x20,%esp
    3b9d:	e9 79 fe ff ff       	jmp    3a1b <ar9271_add_device+0x38b>
    3ba2:	51                   	push   %ecx
    3ba3:	68 c0 b5 01 00       	push   $0x1b5c0
    3ba8:	6a 01                	push   $0x1
    3baa:	6a ff                	push   $0xffffffff
    3bac:	e8 af a7 01 00       	call   1e360 <log_msg@plt>
    3bb1:	83 c4 10             	add    $0x10,%esp
    3bb4:	e9 62 fe ff ff       	jmp    3a1b <ar9271_add_device+0x38b>
    3bb9:	50                   	push   %eax
    3bba:	68 48 b7 01 00       	push   $0x1b748
    3bbf:	6a 01                	push   $0x1
    3bc1:	6a ff                	push   $0xffffffff
    3bc3:	e8 98 a7 01 00       	call   1e360 <log_msg@plt>
    3bc8:	83 c4 10             	add    $0x10,%esp
    3bcb:	e9 56 fd ff ff       	jmp    3926 <ar9271_add_device+0x296>
    3bd0:	83 ec 0c             	sub    $0xc,%esp
    3bd3:	53                   	push   %ebx
    3bd4:	e8 17 aa 01 00       	call   1e5f0 <fclose@plt>
    3bd9:	83 c4 0c             	add    $0xc,%esp
    3bdc:	68 6c b7 01 00       	push   $0x1b76c
    3be1:	6a 01                	push   $0x1
    3be3:	6a ff                	push   $0xffffffff
    3be5:	e8 76 a7 01 00       	call   1e360 <log_msg@plt>
    3bea:	83 c4 10             	add    $0x10,%esp
    3bed:	e9 34 fd ff ff       	jmp    3926 <ar9271_add_device+0x296>
    3bf2:	50                   	push   %eax
    3bf3:	68 f4 b5 01 00       	push   $0x1b5f4
    3bf8:	6a 01                	push   $0x1
    3bfa:	6a ff                	push   $0xffffffff
    3bfc:	bb fe ff ff ff       	mov    $0xfffffffe,%ebx
    3c01:	e8 5a a7 01 00       	call   1e360 <log_msg@plt>
    3c06:	83 c4 10             	add    $0x10,%esp
    3c09:	e9 ef fd ff ff       	jmp    39fd <ar9271_add_device+0x36d>
    3c0e:	83 ec 0c             	sub    $0xc,%esp
    3c11:	8b 5f 20             	mov    0x20(%edi),%ebx
    3c14:	53                   	push   %ebx
    3c15:	e8 16 ac 01 00       	call   1e830 <free@plt>
    3c1a:	83 c4 0c             	add    $0xc,%esp
    3c1d:	68 50 b6 01 00       	push   $0x1b650
    3c22:	eb d4                	jmp    3bf8 <ar9271_add_device+0x568>
    3c24:	8b 7d bc             	mov    -0x44(%ebp),%edi
    3c27:	83 ec 0c             	sub    $0xc,%esp
    3c2a:	8b 77 1c             	mov    0x1c(%edi),%esi
    3c2d:	56                   	push   %esi
    3c2e:	e8 fd ab 01 00       	call   1e830 <free@plt>
    3c33:	58                   	pop    %eax
    3c34:	8b 47 20             	mov    0x20(%edi),%eax
    3c37:	50                   	push   %eax
    3c38:	e8 f3 ab 01 00       	call   1e830 <free@plt>
    3c3d:	83 c4 0c             	add    $0xc,%esp
    3c40:	68 c0 b6 01 00       	push   $0x1b6c0
    3c45:	eb b1                	jmp    3bf8 <ar9271_add_device+0x568>
    3c47:	50                   	push   %eax
    3c48:	68 71 03 00 00       	push   $0x371
    3c4d:	68 44 b4 01 00       	push   $0x1b444
    3c52:	68 57 b4 01 00       	push   $0x1b457
    3c57:	e8 54 a7 01 00       	call   1e3b0 <assert_abort@plt>
    3c5c:	66 90                	xchg   %ax,%ax
    3c5e:	66 90                	xchg   %ax,%ax

00003c60 <main>:
    3c60:	8d 4c 24 04          	lea    0x4(%esp),%ecx
    3c64:	83 e4 f0             	and    $0xfffffff0,%esp
    3c67:	ff 71 fc             	pushl  -0x4(%ecx)
    3c6a:	55                   	push   %ebp
    3c6b:	89 e5                	mov    %esp,%ebp
    3c6d:	51                   	push   %ecx
    3c6e:	83 ec 10             	sub    $0x10,%esp
    3c71:	68 47 b5 01 00       	push   $0x1b547
    3c76:	e8 e5 a5 01 00       	call   1e260 <log_init@plt>
    3c7b:	c7 04 24 47 b5 01 00 	movl   $0x1b547,(%esp)
    3c82:	e8 99 c1 00 00       	call   fe20 <nic_driver_init>
    3c87:	83 c4 10             	add    $0x10,%esp
    3c8a:	ba 01 00 00 00       	mov    $0x1,%edx
    3c8f:	85 c0                	test   %eax,%eax
    3c91:	75 20                	jne    3cb3 <main+0x53>
    3c93:	50                   	push   %eax
    3c94:	68 9c b8 01 00       	push   $0x1b89c
    3c99:	6a 03                	push   $0x3
    3c9b:	6a ff                	push   $0xffffffff
    3c9d:	e8 be a6 01 00       	call   1e360 <log_msg@plt>
    3ca2:	c7 04 24 7c 0c 02 00 	movl   $0x20c7c,(%esp)
    3ca9:	e8 f2 3f 00 00       	call   7ca0 <ddf_driver_main>
    3cae:	83 c4 10             	add    $0x10,%esp
    3cb1:	89 c2                	mov    %eax,%edx
    3cb3:	8b 4d fc             	mov    -0x4(%ebp),%ecx
    3cb6:	89 d0                	mov    %edx,%eax
    3cb8:	c9                   	leave  
    3cb9:	8d 61 fc             	lea    -0x4(%ecx),%esp
    3cbc:	c3                   	ret    
    3cbd:	66 90                	xchg   %ax,%ax
    3cbf:	90                   	nop

00003cc0 <usb_device_create_pipes>:
    3cc0:	55                   	push   %ebp
    3cc1:	89 e5                	mov    %esp,%ebp
    3cc3:	57                   	push   %edi
    3cc4:	56                   	push   %esi
    3cc5:	53                   	push   %ebx
    3cc6:	83 ec 1c             	sub    $0x1c,%esp
    3cc9:	8b 45 08             	mov    0x8(%ebp),%eax
    3ccc:	8b 55 0c             	mov    0xc(%ebp),%edx
    3ccf:	85 c0                	test   %eax,%eax
    3cd1:	0f 84 92 01 00 00    	je     3e69 <usb_device_create_pipes+0x1a9>
    3cd7:	8b 45 08             	mov    0x8(%ebp),%eax
    3cda:	8b 70 50             	mov    0x50(%eax),%esi
    3cdd:	85 f6                	test   %esi,%esi
    3cdf:	0f 84 6f 01 00 00    	je     3e54 <usb_device_create_pipes+0x194>
    3ce5:	8b 48 24             	mov    0x24(%eax),%ecx
    3ce8:	85 c9                	test   %ecx,%ecx
    3cea:	0f 85 a3 01 00 00    	jne    3e93 <usb_device_create_pipes+0x1d3>
    3cf0:	8b 58 28             	mov    0x28(%eax),%ebx
    3cf3:	85 db                	test   %ebx,%ebx
    3cf5:	0f 85 83 01 00 00    	jne    3e7e <usb_device_create_pipes+0x1be>
    3cfb:	85 d2                	test   %edx,%edx
    3cfd:	0f 84 0c 01 00 00    	je     3e0f <usb_device_create_pipes+0x14f>
    3d03:	8b 02                	mov    (%edx),%eax
    3d05:	85 c0                	test   %eax,%eax
    3d07:	0f 84 02 01 00 00    	je     3e0f <usb_device_create_pipes+0x14f>
    3d0d:	8d 76 00             	lea    0x0(%esi),%esi
    3d10:	43                   	inc    %ebx
    3d11:	8b 04 9a             	mov    (%edx,%ebx,4),%eax
    3d14:	85 c0                	test   %eax,%eax
    3d16:	75 f8                	jne    3d10 <usb_device_create_pipes+0x50>
    3d18:	89 55 e0             	mov    %edx,-0x20(%ebp)
    3d1b:	50                   	push   %eax
    3d1c:	50                   	push   %eax
    3d1d:	6a 34                	push   $0x34
    3d1f:	53                   	push   %ebx
    3d20:	e8 ab a6 01 00       	call   1e3d0 <calloc@plt>
    3d25:	83 c4 10             	add    $0x10,%esp
    3d28:	89 c1                	mov    %eax,%ecx
    3d2a:	89 45 e4             	mov    %eax,-0x1c(%ebp)
    3d2d:	85 c0                	test   %eax,%eax
    3d2f:	0f 84 13 01 00 00    	je     3e48 <usb_device_create_pipes+0x188>
    3d35:	8b 45 08             	mov    0x8(%ebp),%eax
    3d38:	8b 55 e0             	mov    -0x20(%ebp),%edx
    3d3b:	89 5d e0             	mov    %ebx,-0x20(%ebp)
    3d3e:	8b 78 2c             	mov    0x2c(%eax),%edi
    3d41:	8b 70 38             	mov    0x38(%eax),%esi
    3d44:	89 d0                	mov    %edx,%eax
    3d46:	8d 51 1c             	lea    0x1c(%ecx),%edx
    3d49:	8d 0c 98             	lea    (%eax,%ebx,4),%ecx
    3d4c:	8d 74 26 00          	lea    0x0(%esi,%eiz,1),%esi
    3d50:	8b 18                	mov    (%eax),%ebx
    3d52:	83 c0 04             	add    $0x4,%eax
    3d55:	89 1a                	mov    %ebx,(%edx)
    3d57:	89 7a 04             	mov    %edi,0x4(%edx)
    3d5a:	89 72 08             	mov    %esi,0x8(%edx)
    3d5d:	83 c2 34             	add    $0x34,%edx
    3d60:	39 c1                	cmp    %eax,%ecx
    3d62:	75 ec                	jne    3d50 <usb_device_create_pipes+0x90>
    3d64:	8b 45 08             	mov    0x8(%ebp),%eax
    3d67:	83 ec 0c             	sub    $0xc,%esp
    3d6a:	8b 5d e0             	mov    -0x20(%ebp),%ebx
    3d6d:	8b 30                	mov    (%eax),%esi
    3d6f:	8b 78 54             	mov    0x54(%eax),%edi
    3d72:	56                   	push   %esi
    3d73:	57                   	push   %edi
    3d74:	8b 40 50             	mov    0x50(%eax),%eax
    3d77:	50                   	push   %eax
    3d78:	8b 45 e4             	mov    -0x1c(%ebp),%eax
    3d7b:	53                   	push   %ebx
    3d7c:	50                   	push   %eax
    3d7d:	e8 4e 14 00 00       	call   51d0 <usb_pipe_initialize_from_configuration>
    3d82:	83 c4 20             	add    $0x20,%esp
    3d85:	89 45 e0             	mov    %eax,-0x20(%ebp)
    3d88:	85 c0                	test   %eax,%eax
    3d8a:	0f 85 8b 00 00 00    	jne    3e1b <usb_device_create_pipes+0x15b>
    3d90:	8d 04 5b             	lea    (%ebx,%ebx,2),%eax
    3d93:	8b 7d e4             	mov    -0x1c(%ebp),%edi
    3d96:	89 7d dc             	mov    %edi,-0x24(%ebp)
    3d99:	8d 04 83             	lea    (%ebx,%eax,4),%eax
    3d9c:	8d 34 87             	lea    (%edi,%eax,4),%esi
    3d9f:	eb 0e                	jmp    3daf <usb_device_create_pipes+0xef>
    3da1:	8d b4 26 00 00 00 00 	lea    0x0(%esi,%eiz,1),%esi
    3da8:	83 c7 34             	add    $0x34,%edi
    3dab:	39 fe                	cmp    %edi,%esi
    3dad:	74 49                	je     3df8 <usb_device_create_pipes+0x138>
    3daf:	80 7f 30 00          	cmpb   $0x0,0x30(%edi)
    3db3:	74 f3                	je     3da8 <usb_device_create_pipes+0xe8>
    3db5:	52                   	push   %edx
    3db6:	52                   	push   %edx
    3db7:	8b 47 28             	mov    0x28(%edi),%eax
    3dba:	8a 48 06             	mov    0x6(%eax),%cl
    3dbd:	81 e1 ff 00 00 00    	and    $0xff,%ecx
    3dc3:	51                   	push   %ecx
    3dc4:	57                   	push   %edi
    3dc5:	e8 d6 12 00 00       	call   50a0 <usb_pipe_register>
    3dca:	83 c4 10             	add    $0x10,%esp
    3dcd:	85 c0                	test   %eax,%eax
    3dcf:	74 d7                	je     3da8 <usb_device_create_pipes+0xe8>
    3dd1:	89 c7                	mov    %eax,%edi
    3dd3:	8b 5d dc             	mov    -0x24(%ebp),%ebx
    3dd6:	eb 07                	jmp    3ddf <usb_device_create_pipes+0x11f>
    3dd8:	83 c3 34             	add    $0x34,%ebx
    3ddb:	39 de                	cmp    %ebx,%esi
    3ddd:	74 50                	je     3e2f <usb_device_create_pipes+0x16f>
    3ddf:	80 7b 30 00          	cmpb   $0x0,0x30(%ebx)
    3de3:	74 f3                	je     3dd8 <usb_device_create_pipes+0x118>
    3de5:	83 ec 0c             	sub    $0xc,%esp
    3de8:	53                   	push   %ebx
    3de9:	e8 52 13 00 00       	call   5140 <usb_pipe_unregister>
    3dee:	83 c4 10             	add    $0x10,%esp
    3df1:	eb e5                	jmp    3dd8 <usb_device_create_pipes+0x118>
    3df3:	90                   	nop
    3df4:	8d 74 26 00          	lea    0x0(%esi,%eiz,1),%esi
    3df8:	8b 45 08             	mov    0x8(%ebp),%eax
    3dfb:	8b 75 e4             	mov    -0x1c(%ebp),%esi
    3dfe:	89 70 24             	mov    %esi,0x24(%eax)
    3e01:	89 58 28             	mov    %ebx,0x28(%eax)
    3e04:	8b 45 e0             	mov    -0x20(%ebp),%eax
    3e07:	8d 65 f4             	lea    -0xc(%ebp),%esp
    3e0a:	5b                   	pop    %ebx
    3e0b:	5e                   	pop    %esi
    3e0c:	5f                   	pop    %edi
    3e0d:	5d                   	pop    %ebp
    3e0e:	c3                   	ret    
    3e0f:	c7 45 e0 00 00 00 00 	movl   $0x0,-0x20(%ebp)
    3e16:	8b 45 e0             	mov    -0x20(%ebp),%eax
    3e19:	eb ec                	jmp    3e07 <usb_device_create_pipes+0x147>
    3e1b:	83 ec 0c             	sub    $0xc,%esp
    3e1e:	8b 4d e4             	mov    -0x1c(%ebp),%ecx
    3e21:	51                   	push   %ecx
    3e22:	e8 09 aa 01 00       	call   1e830 <free@plt>
    3e27:	83 c4 10             	add    $0x10,%esp
    3e2a:	8b 45 e0             	mov    -0x20(%ebp),%eax
    3e2d:	eb d8                	jmp    3e07 <usb_device_create_pipes+0x147>
    3e2f:	83 ec 0c             	sub    $0xc,%esp
    3e32:	8b 45 e4             	mov    -0x1c(%ebp),%eax
    3e35:	89 7d e0             	mov    %edi,-0x20(%ebp)
    3e38:	50                   	push   %eax
    3e39:	e8 f2 a9 01 00       	call   1e830 <free@plt>
    3e3e:	8b 55 e0             	mov    -0x20(%ebp),%edx
    3e41:	83 c4 10             	add    $0x10,%esp
    3e44:	89 d0                	mov    %edx,%eax
    3e46:	eb bf                	jmp    3e07 <usb_device_create_pipes+0x147>
    3e48:	c7 45 e0 fe ff ff ff 	movl   $0xfffffffe,-0x20(%ebp)
    3e4f:	8b 45 e0             	mov    -0x20(%ebp),%eax
    3e52:	eb b3                	jmp    3e07 <usb_device_create_pipes+0x147>
    3e54:	53                   	push   %ebx
    3e55:	68 df 00 00 00       	push   $0xdf
    3e5a:	68 38 b9 01 00       	push   $0x1b938
    3e5f:	68 00 ba 01 00       	push   $0x1ba00
    3e64:	e8 47 a5 01 00       	call   1e3b0 <assert_abort@plt>
    3e69:	57                   	push   %edi
    3e6a:	68 de 00 00 00       	push   $0xde
    3e6f:	68 38 b9 01 00       	push   $0x1b938
    3e74:	68 45 b9 01 00       	push   $0x1b945
    3e79:	e8 32 a5 01 00       	call   1e3b0 <assert_abort@plt>
    3e7e:	50                   	push   %eax
    3e7f:	68 e1 00 00 00       	push   $0xe1
    3e84:	68 38 b9 01 00       	push   $0x1b938
    3e89:	68 64 b9 01 00       	push   $0x1b964
    3e8e:	e8 1d a5 01 00       	call   1e3b0 <assert_abort@plt>
    3e93:	52                   	push   %edx
    3e94:	68 e0 00 00 00       	push   $0xe0
    3e99:	68 38 b9 01 00       	push   $0x1b938
    3e9e:	68 4d b9 01 00       	push   $0x1b94d
    3ea3:	e8 08 a5 01 00       	call   1e3b0 <assert_abort@plt>
    3ea8:	90                   	nop
    3ea9:	8d b4 26 00 00 00 00 	lea    0x0(%esi,%eiz,1),%esi

00003eb0 <usb_device_select_interface>:
    3eb0:	55                   	push   %ebp
    3eb1:	89 e5                	mov    %esp,%ebp
    3eb3:	57                   	push   %edi
    3eb4:	56                   	push   %esi
    3eb5:	53                   	push   %ebx
    3eb6:	83 ec 1c             	sub    $0x1c,%esp
    3eb9:	8b 75 08             	mov    0x8(%ebp),%esi
    3ebc:	8b 45 10             	mov    0x10(%ebp),%eax
    3ebf:	8b 5d 0c             	mov    0xc(%ebp),%ebx
    3ec2:	89 45 e4             	mov    %eax,-0x1c(%ebp)
    3ec5:	85 f6                	test   %esi,%esi
    3ec7:	0f 84 05 01 00 00    	je     3fd2 <usb_device_select_interface+0x122>
    3ecd:	8b 46 2c             	mov    0x2c(%esi),%eax
    3ed0:	85 c0                	test   %eax,%eax
    3ed2:	0f 88 f0 00 00 00    	js     3fc8 <usb_device_select_interface+0x118>
    3ed8:	25 ff 00 00 00       	and    $0xff,%eax
    3edd:	81 e3 ff 00 00 00    	and    $0xff,%ebx
    3ee3:	57                   	push   %edi
    3ee4:	53                   	push   %ebx
    3ee5:	50                   	push   %eax
    3ee6:	8d 46 08             	lea    0x8(%esi),%eax
    3ee9:	50                   	push   %eax
    3eea:	e8 81 1f 00 00       	call   5e70 <usb_request_set_interface>
    3eef:	83 c4 10             	add    $0x10,%esp
    3ef2:	85 c0                	test   %eax,%eax
    3ef4:	74 0a                	je     3f00 <usb_device_select_interface+0x50>
    3ef6:	8d 65 f4             	lea    -0xc(%ebp),%esp
    3ef9:	5b                   	pop    %ebx
    3efa:	5e                   	pop    %esi
    3efb:	5f                   	pop    %edi
    3efc:	5d                   	pop    %ebp
    3efd:	c3                   	ret    
    3efe:	66 90                	xchg   %ax,%ax
    3f00:	8b 46 24             	mov    0x24(%esi),%eax
    3f03:	89 5e 38             	mov    %ebx,0x38(%esi)
    3f06:	85 c0                	test   %eax,%eax
    3f08:	0f 84 9a 00 00 00    	je     3fa8 <usb_device_select_interface+0xf8>
    3f0e:	8b 4e 28             	mov    0x28(%esi),%ecx
    3f11:	85 c9                	test   %ecx,%ecx
    3f13:	74 61                	je     3f76 <usb_device_select_interface+0xc6>
    3f15:	31 ff                	xor    %edi,%edi
    3f17:	eb 0d                	jmp    3f26 <usb_device_select_interface+0x76>
    3f19:	8d b4 26 00 00 00 00 	lea    0x0(%esi,%eiz,1),%esi
    3f20:	47                   	inc    %edi
    3f21:	3b 7e 28             	cmp    0x28(%esi),%edi
    3f24:	73 50                	jae    3f76 <usb_device_select_interface+0xc6>
    3f26:	8d 0c 7f             	lea    (%edi,%edi,2),%ecx
    3f29:	8d 1c 8f             	lea    (%edi,%ecx,4),%ebx
    3f2c:	b9 7e b9 01 00       	mov    $0x1b97e,%ecx
    3f31:	c1 e3 02             	shl    $0x2,%ebx
    3f34:	80 7c 18 30 00       	cmpb   $0x0,0x30(%eax,%ebx,1)
    3f39:	74 05                	je     3f40 <usb_device_select_interface+0x90>
    3f3b:	b9 c4 d5 01 00       	mov    $0x1d5c4,%ecx
    3f40:	83 ec 0c             	sub    $0xc,%esp
    3f43:	51                   	push   %ecx
    3f44:	57                   	push   %edi
    3f45:	68 50 ba 01 00       	push   $0x1ba50
    3f4a:	6a 05                	push   $0x5
    3f4c:	6a ff                	push   $0xffffffff
    3f4e:	e8 0d a4 01 00       	call   1e360 <log_msg@plt>
    3f53:	8b 46 24             	mov    0x24(%esi),%eax
    3f56:	83 c4 20             	add    $0x20,%esp
    3f59:	01 c3                	add    %eax,%ebx
    3f5b:	80 7b 30 00          	cmpb   $0x0,0x30(%ebx)
    3f5f:	74 bf                	je     3f20 <usb_device_select_interface+0x70>
    3f61:	83 ec 0c             	sub    $0xc,%esp
    3f64:	47                   	inc    %edi
    3f65:	53                   	push   %ebx
    3f66:	e8 d5 11 00 00       	call   5140 <usb_pipe_unregister>
    3f6b:	83 c4 10             	add    $0x10,%esp
    3f6e:	8b 46 24             	mov    0x24(%esi),%eax
    3f71:	3b 7e 28             	cmp    0x28(%esi),%edi
    3f74:	72 b0                	jb     3f26 <usb_device_select_interface+0x76>
    3f76:	83 ec 0c             	sub    $0xc,%esp
    3f79:	50                   	push   %eax
    3f7a:	e8 b1 a8 01 00       	call   1e830 <free@plt>
    3f7f:	8b 45 e4             	mov    -0x1c(%ebp),%eax
    3f82:	c7 46 24 00 00 00 00 	movl   $0x0,0x24(%esi)
    3f89:	c7 46 28 00 00 00 00 	movl   $0x0,0x28(%esi)
    3f90:	83 c4 10             	add    $0x10,%esp
    3f93:	89 75 08             	mov    %esi,0x8(%ebp)
    3f96:	89 45 0c             	mov    %eax,0xc(%ebp)
    3f99:	8d 65 f4             	lea    -0xc(%ebp),%esp
    3f9c:	5b                   	pop    %ebx
    3f9d:	5e                   	pop    %esi
    3f9e:	5f                   	pop    %edi
    3f9f:	5d                   	pop    %ebp
    3fa0:	e9 1b fd ff ff       	jmp    3cc0 <usb_device_create_pipes>
    3fa5:	8d 76 00             	lea    0x0(%esi),%esi
    3fa8:	8b 56 28             	mov    0x28(%esi),%edx
    3fab:	85 d2                	test   %edx,%edx
    3fad:	74 c7                	je     3f76 <usb_device_select_interface+0xc6>
    3faf:	50                   	push   %eax
    3fb0:	68 29 01 00 00       	push   $0x129
    3fb5:	68 38 b9 01 00       	push   $0x1b938
    3fba:	68 24 ba 01 00       	push   $0x1ba24
    3fbf:	e8 ec a3 01 00       	call   1e3b0 <assert_abort@plt>
    3fc4:	8d 74 26 00          	lea    0x0(%esi,%eiz,1),%esi
    3fc8:	b8 f2 ff ff ff       	mov    $0xfffffff2,%eax
    3fcd:	e9 24 ff ff ff       	jmp    3ef6 <usb_device_select_interface+0x46>
    3fd2:	50                   	push   %eax
    3fd3:	68 88 00 00 00       	push   $0x88
    3fd8:	68 38 b9 01 00       	push   $0x1b938
    3fdd:	68 45 b9 01 00       	push   $0x1b945
    3fe2:	e8 c9 a3 01 00       	call   1e3b0 <assert_abort@plt>
    3fe7:	89 f6                	mov    %esi,%esi
    3fe9:	8d bc 27 00 00 00 00 	lea    0x0(%edi,%eiz,1),%edi

00003ff0 <usb_device_destroy_pipes>:
    3ff0:	55                   	push   %ebp
    3ff1:	89 e5                	mov    %esp,%ebp
    3ff3:	57                   	push   %edi
    3ff4:	56                   	push   %esi
    3ff5:	53                   	push   %ebx
    3ff6:	83 ec 0c             	sub    $0xc,%esp
    3ff9:	8b 75 08             	mov    0x8(%ebp),%esi
    3ffc:	85 f6                	test   %esi,%esi
    3ffe:	0f 84 b0 00 00 00    	je     40b4 <usb_device_destroy_pipes+0xc4>
    4004:	8b 46 24             	mov    0x24(%esi),%eax
    4007:	85 c0                	test   %eax,%eax
    4009:	0f 84 89 00 00 00    	je     4098 <usb_device_destroy_pipes+0xa8>
    400f:	8b 56 28             	mov    0x28(%esi),%edx
    4012:	85 d2                	test   %edx,%edx
    4014:	74 60                	je     4076 <usb_device_destroy_pipes+0x86>
    4016:	31 ff                	xor    %edi,%edi
    4018:	eb 0c                	jmp    4026 <usb_device_destroy_pipes+0x36>
    401a:	8d b6 00 00 00 00    	lea    0x0(%esi),%esi
    4020:	47                   	inc    %edi
    4021:	39 7e 28             	cmp    %edi,0x28(%esi)
    4024:	76 50                	jbe    4076 <usb_device_destroy_pipes+0x86>
    4026:	8d 14 7f             	lea    (%edi,%edi,2),%edx
    4029:	8d 1c 97             	lea    (%edi,%edx,4),%ebx
    402c:	ba 7e b9 01 00       	mov    $0x1b97e,%edx
    4031:	c1 e3 02             	shl    $0x2,%ebx
    4034:	80 7c 18 30 00       	cmpb   $0x0,0x30(%eax,%ebx,1)
    4039:	74 05                	je     4040 <usb_device_destroy_pipes+0x50>
    403b:	ba c4 d5 01 00       	mov    $0x1d5c4,%edx
    4040:	83 ec 0c             	sub    $0xc,%esp
    4043:	52                   	push   %edx
    4044:	57                   	push   %edi
    4045:	68 50 ba 01 00       	push   $0x1ba50
    404a:	6a 05                	push   $0x5
    404c:	6a ff                	push   $0xffffffff
    404e:	e8 0d a3 01 00       	call   1e360 <log_msg@plt>
    4053:	8b 46 24             	mov    0x24(%esi),%eax
    4056:	83 c4 20             	add    $0x20,%esp
    4059:	01 c3                	add    %eax,%ebx
    405b:	80 7b 30 00          	cmpb   $0x0,0x30(%ebx)
    405f:	74 bf                	je     4020 <usb_device_destroy_pipes+0x30>
    4061:	83 ec 0c             	sub    $0xc,%esp
    4064:	47                   	inc    %edi
    4065:	53                   	push   %ebx
    4066:	e8 d5 10 00 00       	call   5140 <usb_pipe_unregister>
    406b:	83 c4 10             	add    $0x10,%esp
    406e:	8b 46 24             	mov    0x24(%esi),%eax
    4071:	39 7e 28             	cmp    %edi,0x28(%esi)
    4074:	77 b0                	ja     4026 <usb_device_destroy_pipes+0x36>
    4076:	83 ec 0c             	sub    $0xc,%esp
    4079:	50                   	push   %eax
    407a:	e8 b1 a7 01 00       	call   1e830 <free@plt>
    407f:	c7 46 24 00 00 00 00 	movl   $0x0,0x24(%esi)
    4086:	c7 46 28 00 00 00 00 	movl   $0x0,0x28(%esi)
    408d:	83 c4 10             	add    $0x10,%esp
    4090:	8d 65 f4             	lea    -0xc(%ebp),%esp
    4093:	5b                   	pop    %ebx
    4094:	5e                   	pop    %esi
    4095:	5f                   	pop    %edi
    4096:	5d                   	pop    %ebp
    4097:	c3                   	ret    
    4098:	8b 4e 28             	mov    0x28(%esi),%ecx
    409b:	85 c9                	test   %ecx,%ecx
    409d:	74 d7                	je     4076 <usb_device_destroy_pipes+0x86>
    409f:	50                   	push   %eax
    40a0:	68 29 01 00 00       	push   $0x129
    40a5:	68 38 b9 01 00       	push   $0x1b938
    40aa:	68 24 ba 01 00       	push   $0x1ba24
    40af:	e8 fc a2 01 00       	call   1e3b0 <assert_abort@plt>
    40b4:	53                   	push   %ebx
    40b5:	68 28 01 00 00       	push   $0x128
    40ba:	68 38 b9 01 00       	push   $0x1b938
    40bf:	68 45 b9 01 00       	push   $0x1b945
    40c4:	e8 e7 a2 01 00       	call   1e3b0 <assert_abort@plt>
    40c9:	8d b4 26 00 00 00 00 	lea    0x0(%esi,%eiz,1),%esi

000040d0 <usb_device_get_default_pipe>:
    40d0:	55                   	push   %ebp
    40d1:	89 e5                	mov    %esp,%ebp
    40d3:	83 ec 08             	sub    $0x8,%esp
    40d6:	8b 45 08             	mov    0x8(%ebp),%eax
    40d9:	85 c0                	test   %eax,%eax
    40db:	74 05                	je     40e2 <usb_device_get_default_pipe+0x12>
    40dd:	83 c0 08             	add    $0x8,%eax
    40e0:	c9                   	leave  
    40e1:	c3                   	ret    
    40e2:	50                   	push   %eax
    40e3:	68 3a 01 00 00       	push   $0x13a
    40e8:	68 38 b9 01 00       	push   $0x1b938
    40ed:	68 45 b9 01 00       	push   $0x1b945
    40f2:	e8 b9 a2 01 00       	call   1e3b0 <assert_abort@plt>
    40f7:	89 f6                	mov    %esi,%esi
    40f9:	8d bc 27 00 00 00 00 	lea    0x0(%edi,%eiz,1),%edi

00004100 <usb_device_get_mapped_ep_desc>:
    4100:	55                   	push   %ebp
    4101:	89 e5                	mov    %esp,%ebp
    4103:	56                   	push   %esi
    4104:	53                   	push   %ebx
    4105:	8b 45 08             	mov    0x8(%ebp),%eax
    4108:	8b 75 0c             	mov    0xc(%ebp),%esi
    410b:	85 c0                	test   %eax,%eax
    410d:	74 31                	je     4140 <usb_device_get_mapped_ep_desc+0x40>
    410f:	8b 58 28             	mov    0x28(%eax),%ebx
    4112:	85 db                	test   %ebx,%ebx
    4114:	74 21                	je     4137 <usb_device_get_mapped_ep_desc+0x37>
    4116:	8b 40 24             	mov    0x24(%eax),%eax
    4119:	3b 70 1c             	cmp    0x1c(%eax),%esi
    411c:	74 1b                	je     4139 <usb_device_get_mapped_ep_desc+0x39>
    411e:	8d 50 34             	lea    0x34(%eax),%edx
    4121:	31 c9                	xor    %ecx,%ecx
    4123:	eb 0d                	jmp    4132 <usb_device_get_mapped_ep_desc+0x32>
    4125:	8d 76 00             	lea    0x0(%esi),%esi
    4128:	89 d0                	mov    %edx,%eax
    412a:	83 c2 34             	add    $0x34,%edx
    412d:	39 72 e8             	cmp    %esi,-0x18(%edx)
    4130:	74 07                	je     4139 <usb_device_get_mapped_ep_desc+0x39>
    4132:	41                   	inc    %ecx
    4133:	39 d9                	cmp    %ebx,%ecx
    4135:	75 f1                	jne    4128 <usb_device_get_mapped_ep_desc+0x28>
    4137:	31 c0                	xor    %eax,%eax
    4139:	8d 65 f8             	lea    -0x8(%ebp),%esp
    413c:	5b                   	pop    %ebx
    413d:	5e                   	pop    %esi
    413e:	5d                   	pop    %ebp
    413f:	c3                   	ret    
    4140:	50                   	push   %eax
    4141:	68 41 01 00 00       	push   $0x141
    4146:	68 38 b9 01 00       	push   $0x1b938
    414b:	68 45 b9 01 00       	push   $0x1b945
    4150:	e8 5b a2 01 00       	call   1e3b0 <assert_abort@plt>
    4155:	8d 74 26 00          	lea    0x0(%esi,%eiz,1),%esi
    4159:	8d bc 27 00 00 00 00 	lea    0x0(%edi,%eiz,1),%edi

00004160 <usb_device_get_mapped_ep>:
    4160:	55                   	push   %ebp
    4161:	89 e5                	mov    %esp,%ebp
    4163:	56                   	push   %esi
    4164:	53                   	push   %ebx
    4165:	8b 45 08             	mov    0x8(%ebp),%eax
    4168:	8b 55 0c             	mov    0xc(%ebp),%edx
    416b:	85 c0                	test   %eax,%eax
    416d:	74 32                	je     41a1 <usb_device_get_mapped_ep+0x41>
    416f:	8b 58 28             	mov    0x28(%eax),%ebx
    4172:	85 db                	test   %ebx,%ebx
    4174:	74 22                	je     4198 <usb_device_get_mapped_ep+0x38>
    4176:	8b 40 24             	mov    0x24(%eax),%eax
    4179:	66 3b 10             	cmp    (%eax),%dx
    417c:	74 1c                	je     419a <usb_device_get_mapped_ep+0x3a>
    417e:	89 d6                	mov    %edx,%esi
    4180:	31 c9                	xor    %ecx,%ecx
    4182:	8d 50 34             	lea    0x34(%eax),%edx
    4185:	eb 0c                	jmp    4193 <usb_device_get_mapped_ep+0x33>
    4187:	90                   	nop
    4188:	89 d0                	mov    %edx,%eax
    418a:	83 c2 34             	add    $0x34,%edx
    418d:	66 39 72 cc          	cmp    %si,-0x34(%edx)
    4191:	74 07                	je     419a <usb_device_get_mapped_ep+0x3a>
    4193:	41                   	inc    %ecx
    4194:	39 d9                	cmp    %ebx,%ecx
    4196:	75 f0                	jne    4188 <usb_device_get_mapped_ep+0x28>
    4198:	31 c0                	xor    %eax,%eax
    419a:	8d 65 f8             	lea    -0x8(%ebp),%esp
    419d:	5b                   	pop    %ebx
    419e:	5e                   	pop    %esi
    419f:	5d                   	pop    %ebp
    41a0:	c3                   	ret    
    41a1:	50                   	push   %eax
    41a2:	68 4c 01 00 00       	push   $0x14c
    41a7:	68 38 b9 01 00       	push   $0x1b938
    41ac:	68 45 b9 01 00       	push   $0x1b945
    41b1:	e8 fa a1 01 00       	call   1e3b0 <assert_abort@plt>
    41b6:	8d 76 00             	lea    0x0(%esi),%esi
    41b9:	8d bc 27 00 00 00 00 	lea    0x0(%edi,%eiz,1),%edi

000041c0 <usb_device_get_iface_number>:
    41c0:	55                   	push   %ebp
    41c1:	89 e5                	mov    %esp,%ebp
    41c3:	83 ec 08             	sub    $0x8,%esp
    41c6:	8b 45 08             	mov    0x8(%ebp),%eax
    41c9:	85 c0                	test   %eax,%eax
    41cb:	74 05                	je     41d2 <usb_device_get_iface_number+0x12>
    41cd:	8b 40 2c             	mov    0x2c(%eax),%eax
    41d0:	c9                   	leave  
    41d1:	c3                   	ret    
    41d2:	50                   	push   %eax
    41d3:	68 56 01 00 00       	push   $0x156
    41d8:	68 38 b9 01 00       	push   $0x1b938
    41dd:	68 45 b9 01 00       	push   $0x1b945
    41e2:	e8 c9 a1 01 00       	call   1e3b0 <assert_abort@plt>
    41e7:	89 f6                	mov    %esi,%esi
    41e9:	8d bc 27 00 00 00 00 	lea    0x0(%edi,%eiz,1),%edi

000041f0 <usb_device_get_devman_handle>:
    41f0:	55                   	push   %ebp
    41f1:	89 e5                	mov    %esp,%ebp
    41f3:	83 ec 08             	sub    $0x8,%esp
    41f6:	8b 45 08             	mov    0x8(%ebp),%eax
    41f9:	85 c0                	test   %eax,%eax
    41fb:	74 05                	je     4202 <usb_device_get_devman_handle+0x12>
    41fd:	8b 40 04             	mov    0x4(%eax),%eax
    4200:	c9                   	leave  
    4201:	c3                   	ret    
    4202:	50                   	push   %eax
    4203:	68 5c 01 00 00       	push   $0x15c
    4208:	68 38 b9 01 00       	push   $0x1b938
    420d:	68 45 b9 01 00       	push   $0x1b945
    4212:	e8 99 a1 01 00       	call   1e3b0 <assert_abort@plt>
    4217:	89 f6                	mov    %esi,%esi
    4219:	8d bc 27 00 00 00 00 	lea    0x0(%edi,%eiz,1),%edi

00004220 <usb_device_descriptors>:
    4220:	55                   	push   %ebp
    4221:	89 e5                	mov    %esp,%ebp
    4223:	83 ec 08             	sub    $0x8,%esp
    4226:	8b 45 08             	mov    0x8(%ebp),%eax
    4229:	85 c0                	test   %eax,%eax
    422b:	74 05                	je     4232 <usb_device_descriptors+0x12>
    422d:	83 c0 3c             	add    $0x3c,%eax
    4230:	c9                   	leave  
    4231:	c3                   	ret    
    4232:	50                   	push   %eax
    4233:	68 62 01 00 00       	push   $0x162
    4238:	68 38 b9 01 00       	push   $0x1b938
    423d:	68 45 b9 01 00       	push   $0x1b945
    4242:	e8 69 a1 01 00       	call   1e3b0 <assert_abort@plt>
    4247:	89 f6                	mov    %esi,%esi
    4249:	8d bc 27 00 00 00 00 	lea    0x0(%edi,%eiz,1),%edi

00004250 <usb_device_get_alternative_ifaces>:
    4250:	55                   	push   %ebp
    4251:	89 e5                	mov    %esp,%ebp
    4253:	83 ec 08             	sub    $0x8,%esp
    4256:	8b 45 08             	mov    0x8(%ebp),%eax
    4259:	85 c0                	test   %eax,%eax
    425b:	74 05                	je     4262 <usb_device_get_alternative_ifaces+0x12>
    425d:	83 c0 30             	add    $0x30,%eax
    4260:	c9                   	leave  
    4261:	c3                   	ret    
    4262:	50                   	push   %eax
    4263:	68 69 01 00 00       	push   $0x169
    4268:	68 38 b9 01 00       	push   $0x1b938
    426d:	68 45 b9 01 00       	push   $0x1b945
    4272:	e8 39 a1 01 00       	call   1e3b0 <assert_abort@plt>
    4277:	89 f6                	mov    %esi,%esi
    4279:	8d bc 27 00 00 00 00 	lea    0x0(%edi,%eiz,1),%edi

00004280 <usb_device_create_ddf>:
    4280:	55                   	push   %ebp
    4281:	89 e5                	mov    %esp,%ebp
    4283:	57                   	push   %edi
    4284:	56                   	push   %esi
    4285:	53                   	push   %ebx
    4286:	83 ec 2c             	sub    $0x2c,%esp
    4289:	8b 45 08             	mov    0x8(%ebp),%eax
    428c:	85 c0                	test   %eax,%eax
    428e:	0f 84 78 03 00 00    	je     460c <usb_device_create_ddf+0x38c>
    4294:	8b 75 10             	mov    0x10(%ebp),%esi
    4297:	85 f6                	test   %esi,%esi
    4299:	0f 84 82 03 00 00    	je     4621 <usb_device_create_ddf+0x3a1>
    429f:	83 ec 0c             	sub    $0xc,%esp
    42a2:	8b 45 08             	mov    0x8(%ebp),%eax
    42a5:	c7 45 e0 00 00 00 00 	movl   $0x0,-0x20(%ebp)
    42ac:	c7 45 e4 ff ff ff ff 	movl   $0xffffffff,-0x1c(%ebp)
    42b3:	50                   	push   %eax
    42b4:	e8 a7 32 00 00       	call   7560 <ddf_dev_get_handle>
    42b9:	5a                   	pop    %edx
    42ba:	59                   	pop    %ecx
    42bb:	6a 01                	push   $0x1
    42bd:	50                   	push   %eax
    42be:	e8 6d 9f 01 00       	call   1e230 <devman_parent_device_connect@plt>
    42c3:	83 c4 10             	add    $0x10,%esp
    42c6:	89 c3                	mov    %eax,%ebx
    42c8:	85 c0                	test   %eax,%eax
    42ca:	0f 84 d0 02 00 00    	je     45a0 <usb_device_create_ddf+0x320>
    42d0:	83 ec 0c             	sub    $0xc,%esp
    42d3:	50                   	push   %eax
    42d4:	e8 c7 a3 01 00       	call   1e6a0 <async_exchange_begin@plt>
    42d9:	83 c4 10             	add    $0x10,%esp
    42dc:	89 c7                	mov    %eax,%edi
    42de:	85 c0                	test   %eax,%eax
    42e0:	0f 84 ca 02 00 00    	je     45b0 <usb_device_create_ddf+0x330>
    42e6:	50                   	push   %eax
    42e7:	50                   	push   %eax
    42e8:	8d 45 e0             	lea    -0x20(%ebp),%eax
    42eb:	50                   	push   %eax
    42ec:	57                   	push   %edi
    42ed:	e8 1e 9b 00 00       	call   de10 <usb_get_my_device_handle>
    42f2:	83 c4 10             	add    $0x10,%esp
    42f5:	89 c6                	mov    %eax,%esi
    42f7:	85 c0                	test   %eax,%eax
    42f9:	74 25                	je     4320 <usb_device_create_ddf+0xa0>
    42fb:	83 ec 0c             	sub    $0xc,%esp
    42fe:	57                   	push   %edi
    42ff:	e8 9c a0 01 00       	call   1e3a0 <async_exchange_end@plt>
    4304:	89 1c 24             	mov    %ebx,(%esp)
    4307:	e8 e4 9e 01 00       	call   1e1f0 <async_hangup@plt>
    430c:	83 c4 10             	add    $0x10,%esp
    430f:	8d 65 f4             	lea    -0xc(%ebp),%esp
    4312:	89 f0                	mov    %esi,%eax
    4314:	5b                   	pop    %ebx
    4315:	5e                   	pop    %esi
    4316:	5f                   	pop    %edi
    4317:	5d                   	pop    %ebp
    4318:	c3                   	ret    
    4319:	8d b4 26 00 00 00 00 	lea    0x0(%esi,%eiz,1),%esi
    4320:	8d 45 e4             	lea    -0x1c(%ebp),%eax
    4323:	56                   	push   %esi
    4324:	56                   	push   %esi
    4325:	50                   	push   %eax
    4326:	57                   	push   %edi
    4327:	e8 94 9a 00 00       	call   ddc0 <usb_get_my_interface>
    432c:	83 c4 10             	add    $0x10,%esp
    432f:	89 c6                	mov    %eax,%esi
    4331:	83 f8 f5             	cmp    $0xfffffff5,%eax
    4334:	0f 84 d6 01 00 00    	je     4510 <usb_device_create_ddf+0x290>
    433a:	83 ec 0c             	sub    $0xc,%esp
    433d:	57                   	push   %edi
    433e:	e8 5d a0 01 00       	call   1e3a0 <async_exchange_end@plt>
    4343:	89 1c 24             	mov    %ebx,(%esp)
    4346:	e8 a5 9e 01 00       	call   1e1f0 <async_hangup@plt>
    434b:	83 c4 10             	add    $0x10,%esp
    434e:	85 f6                	test   %esi,%esi
    4350:	75 bd                	jne    430f <usb_device_create_ddf+0x8f>
    4352:	8b 5d 08             	mov    0x8(%ebp),%ebx
    4355:	51                   	push   %ecx
    4356:	51                   	push   %ecx
    4357:	6a 60                	push   $0x60
    4359:	53                   	push   %ebx
    435a:	e8 b1 31 00 00       	call   7510 <ddf_dev_data_alloc>
    435f:	83 c4 10             	add    $0x10,%esp
    4362:	89 c3                	mov    %eax,%ebx
    4364:	85 c0                	test   %eax,%eax
    4366:	0f 84 5a 02 00 00    	je     45c6 <usb_device_create_ddf+0x346>
    436c:	8b 4d 10             	mov    0x10(%ebp),%ecx
    436f:	83 ec 0c             	sub    $0xc,%esp
    4372:	8b 45 e0             	mov    -0x20(%ebp),%eax
    4375:	8b 55 e4             	mov    -0x1c(%ebp),%edx
    4378:	c7 01 00 00 00 00    	movl   $0x0,(%ecx)
    437e:	8b 4d 08             	mov    0x8(%ebp),%ecx
    4381:	89 4b 58             	mov    %ecx,0x58(%ebx)
    4384:	89 43 04             	mov    %eax,0x4(%ebx)
    4387:	89 53 2c             	mov    %edx,0x2c(%ebx)
    438a:	c7 43 5c 00 00 00 00 	movl   $0x0,0x5c(%ebx)
    4391:	c7 43 50 00 00 00 00 	movl   $0x0,0x50(%ebx)
    4398:	c7 43 54 00 00 00 00 	movl   $0x0,0x54(%ebx)
    439f:	c7 43 28 00 00 00 00 	movl   $0x0,0x28(%ebx)
    43a6:	c7 43 24 00 00 00 00 	movl   $0x0,0x24(%ebx)
    43ad:	50                   	push   %eax
    43ae:	e8 ad 99 00 00       	call   dd60 <usb_dev_connect>
    43b3:	83 c4 10             	add    $0x10,%esp
    43b6:	89 03                	mov    %eax,(%ebx)
    43b8:	85 c0                	test   %eax,%eax
    43ba:	0f 84 19 02 00 00    	je     45d9 <usb_device_create_ddf+0x359>
    43c0:	8d 7b 08             	lea    0x8(%ebx),%edi
    43c3:	52                   	push   %edx
    43c4:	52                   	push   %edx
    43c5:	50                   	push   %eax
    43c6:	57                   	push   %edi
    43c7:	e8 74 0c 00 00       	call   5040 <usb_pipe_initialize_default_control>
    43cc:	83 c4 10             	add    $0x10,%esp
    43cf:	89 c6                	mov    %eax,%esi
    43d1:	85 c0                	test   %eax,%eax
    43d3:	0f 85 0f 01 00 00    	jne    44e8 <usb_device_create_ddf+0x268>
    43d9:	8b 43 50             	mov    0x50(%ebx),%eax
    43dc:	85 c0                	test   %eax,%eax
    43de:	0f 85 52 02 00 00    	jne    4636 <usb_device_create_ddf+0x3b6>
    43e4:	50                   	push   %eax
    43e5:	50                   	push   %eax
    43e6:	8d 43 3c             	lea    0x3c(%ebx),%eax
    43e9:	50                   	push   %eax
    43ea:	57                   	push   %edi
    43eb:	e8 70 15 00 00       	call   5960 <usb_request_get_device_descriptor>
    43f0:	83 c4 10             	add    $0x10,%esp
    43f3:	89 c6                	mov    %eax,%esi
    43f5:	85 c0                	test   %eax,%eax
    43f7:	74 1f                	je     4418 <usb_device_create_ddf+0x198>
    43f9:	8b 45 10             	mov    0x10(%ebp),%eax
    43fc:	83 ec 0c             	sub    $0xc,%esp
    43ff:	c7 00 b8 b9 01 00    	movl   $0x1b9b8,(%eax)
    4405:	8b 03                	mov    (%ebx),%eax
    4407:	50                   	push   %eax
    4408:	e8 93 99 00 00       	call   dda0 <usb_dev_disconnect>
    440d:	83 c4 10             	add    $0x10,%esp
    4410:	e9 fa fe ff ff       	jmp    430f <usb_device_create_ddf+0x8f>
    4415:	8d 76 00             	lea    0x0(%esi),%esi
    4418:	8d 43 54             	lea    0x54(%ebx),%eax
    441b:	50                   	push   %eax
    441c:	8d 43 50             	lea    0x50(%ebx),%eax
    441f:	50                   	push   %eax
    4420:	6a 00                	push   $0x0
    4422:	57                   	push   %edi
    4423:	e8 e8 16 00 00       	call   5b10 <usb_request_get_full_configuration_descriptor_alloc>
    4428:	83 c4 10             	add    $0x10,%esp
    442b:	89 c6                	mov    %eax,%esi
    442d:	85 c0                	test   %eax,%eax
    442f:	75 c8                	jne    43f9 <usb_device_create_ddf+0x179>
    4431:	8b 53 2c             	mov    0x2c(%ebx),%edx
    4434:	8d 43 30             	lea    0x30(%ebx),%eax
    4437:	52                   	push   %edx
    4438:	8b 7b 50             	mov    0x50(%ebx),%edi
    443b:	8b 4b 54             	mov    0x54(%ebx),%ecx
    443e:	89 45 d4             	mov    %eax,-0x2c(%ebp)
    4441:	51                   	push   %ecx
    4442:	57                   	push   %edi
    4443:	50                   	push   %eax
    4444:	e8 e7 20 00 00       	call   6530 <usb_alternate_interfaces_init>
    4449:	8b 45 0c             	mov    0xc(%ebp),%eax
    444c:	83 c4 10             	add    $0x10,%esp
    444f:	85 c0                	test   %eax,%eax
    4451:	0f 84 b8 fe ff ff    	je     430f <usb_device_create_ddf+0x8f>
    4457:	8b 45 0c             	mov    0xc(%ebp),%eax
    445a:	57                   	push   %edi
    445b:	57                   	push   %edi
    445c:	50                   	push   %eax
    445d:	53                   	push   %ebx
    445e:	e8 5d f8 ff ff       	call   3cc0 <usb_device_create_pipes>
    4463:	83 c4 10             	add    $0x10,%esp
    4466:	89 45 d0             	mov    %eax,-0x30(%ebp)
    4469:	85 c0                	test   %eax,%eax
    446b:	0f 84 9e fe ff ff    	je     430f <usb_device_create_ddf+0x8f>
    4471:	8b 43 24             	mov    0x24(%ebx),%eax
    4474:	85 c0                	test   %eax,%eax
    4476:	0f 84 70 01 00 00    	je     45ec <usb_device_create_ddf+0x36c>
    447c:	8b 4b 28             	mov    0x28(%ebx),%ecx
    447f:	85 c9                	test   %ecx,%ecx
    4481:	0f 84 a9 00 00 00    	je     4530 <usb_device_create_ddf+0x2b0>
    4487:	31 f6                	xor    %esi,%esi
    4489:	eb 0f                	jmp    449a <usb_device_create_ddf+0x21a>
    448b:	90                   	nop
    448c:	8d 74 26 00          	lea    0x0(%esi,%eiz,1),%esi
    4490:	46                   	inc    %esi
    4491:	3b 73 28             	cmp    0x28(%ebx),%esi
    4494:	0f 83 96 00 00 00    	jae    4530 <usb_device_create_ddf+0x2b0>
    449a:	8d 14 76             	lea    (%esi,%esi,2),%edx
    449d:	8d 3c 96             	lea    (%esi,%edx,4),%edi
    44a0:	ba 7e b9 01 00       	mov    $0x1b97e,%edx
    44a5:	c1 e7 02             	shl    $0x2,%edi
    44a8:	80 7c 38 30 00       	cmpb   $0x0,0x30(%eax,%edi,1)
    44ad:	74 05                	je     44b4 <usb_device_create_ddf+0x234>
    44af:	ba c4 d5 01 00       	mov    $0x1d5c4,%edx
    44b4:	83 ec 0c             	sub    $0xc,%esp
    44b7:	52                   	push   %edx
    44b8:	56                   	push   %esi
    44b9:	68 50 ba 01 00       	push   $0x1ba50
    44be:	6a 05                	push   $0x5
    44c0:	6a ff                	push   $0xffffffff
    44c2:	e8 99 9e 01 00       	call   1e360 <log_msg@plt>
    44c7:	8b 43 24             	mov    0x24(%ebx),%eax
    44ca:	83 c4 20             	add    $0x20,%esp
    44cd:	01 c7                	add    %eax,%edi
    44cf:	80 7f 30 00          	cmpb   $0x0,0x30(%edi)
    44d3:	74 bb                	je     4490 <usb_device_create_ddf+0x210>
    44d5:	83 ec 0c             	sub    $0xc,%esp
    44d8:	57                   	push   %edi
    44d9:	e8 62 0c 00 00       	call   5140 <usb_pipe_unregister>
    44de:	8b 43 24             	mov    0x24(%ebx),%eax
    44e1:	83 c4 10             	add    $0x10,%esp
    44e4:	eb aa                	jmp    4490 <usb_device_create_ddf+0x210>
    44e6:	66 90                	xchg   %ax,%ax
    44e8:	83 ec 0c             	sub    $0xc,%esp
    44eb:	8b 03                	mov    (%ebx),%eax
    44ed:	50                   	push   %eax
    44ee:	e8 ad 98 00 00       	call   dda0 <usb_dev_disconnect>
    44f3:	8b 45 10             	mov    0x10(%ebp),%eax
    44f6:	83 c4 10             	add    $0x10,%esp
    44f9:	c7 00 74 ba 01 00    	movl   $0x1ba74,(%eax)
    44ff:	8d 65 f4             	lea    -0xc(%ebp),%esp
    4502:	89 f0                	mov    %esi,%eax
    4504:	5b                   	pop    %ebx
    4505:	5e                   	pop    %esi
    4506:	5f                   	pop    %edi
    4507:	5d                   	pop    %ebp
    4508:	c3                   	ret    
    4509:	8d b4 26 00 00 00 00 	lea    0x0(%esi,%eiz,1),%esi
    4510:	83 ec 0c             	sub    $0xc,%esp
    4513:	c7 45 e4 ff ff ff ff 	movl   $0xffffffff,-0x1c(%ebp)
    451a:	57                   	push   %edi
    451b:	e8 80 9e 01 00       	call   1e3a0 <async_exchange_end@plt>
    4520:	89 1c 24             	mov    %ebx,(%esp)
    4523:	e8 c8 9c 01 00       	call   1e1f0 <async_hangup@plt>
    4528:	83 c4 10             	add    $0x10,%esp
    452b:	e9 22 fe ff ff       	jmp    4352 <usb_device_create_ddf+0xd2>
    4530:	83 ec 0c             	sub    $0xc,%esp
    4533:	50                   	push   %eax
    4534:	e8 f7 a2 01 00       	call   1e830 <free@plt>
    4539:	8b 55 d4             	mov    -0x2c(%ebp),%edx
    453c:	c7 43 24 00 00 00 00 	movl   $0x0,0x24(%ebx)
    4543:	c7 43 28 00 00 00 00 	movl   $0x0,0x28(%ebx)
    454a:	58                   	pop    %eax
    454b:	52                   	push   %edx
    454c:	e8 df 21 00 00       	call   6730 <usb_alternate_interfaces_deinit>
    4551:	8b 73 50             	mov    0x50(%ebx),%esi
    4554:	59                   	pop    %ecx
    4555:	56                   	push   %esi
    4556:	e8 d5 a2 01 00       	call   1e830 <free@plt>
    455b:	c7 43 50 00 00 00 00 	movl   $0x0,0x50(%ebx)
    4562:	c7 43 54 00 00 00 00 	movl   $0x0,0x54(%ebx)
    4569:	8b 43 5c             	mov    0x5c(%ebx),%eax
    456c:	5f                   	pop    %edi
    456d:	50                   	push   %eax
    456e:	e8 bd a2 01 00       	call   1e830 <free@plt>
    4573:	c7 43 5c 00 00 00 00 	movl   $0x0,0x5c(%ebx)
    457a:	58                   	pop    %eax
    457b:	8b 03                	mov    (%ebx),%eax
    457d:	50                   	push   %eax
    457e:	e8 1d 98 00 00       	call   dda0 <usb_dev_disconnect>
    4583:	8b 45 10             	mov    0x10(%ebp),%eax
    4586:	c7 03 00 00 00 00    	movl   $0x0,(%ebx)
    458c:	83 c4 10             	add    $0x10,%esp
    458f:	8b 75 d0             	mov    -0x30(%ebp),%esi
    4592:	c7 00 cd b9 01 00    	movl   $0x1b9cd,(%eax)
    4598:	e9 72 fd ff ff       	jmp    430f <usb_device_create_ddf+0x8f>
    459d:	8d 76 00             	lea    0x0(%esi),%esi
    45a0:	be fe ff ff ff       	mov    $0xfffffffe,%esi
    45a5:	e9 65 fd ff ff       	jmp    430f <usb_device_create_ddf+0x8f>
    45aa:	8d b6 00 00 00 00    	lea    0x0(%esi),%esi
    45b0:	83 ec 0c             	sub    $0xc,%esp
    45b3:	be f8 ff ff ff       	mov    $0xfffffff8,%esi
    45b8:	53                   	push   %ebx
    45b9:	e8 32 9c 01 00       	call   1e1f0 <async_hangup@plt>
    45be:	83 c4 10             	add    $0x10,%esp
    45c1:	e9 49 fd ff ff       	jmp    430f <usb_device_create_ddf+0x8f>
    45c6:	8b 45 10             	mov    0x10(%ebp),%eax
    45c9:	be fe ff ff ff       	mov    $0xfffffffe,%esi
    45ce:	c7 00 8f b9 01 00    	movl   $0x1b98f,(%eax)
    45d4:	e9 36 fd ff ff       	jmp    430f <usb_device_create_ddf+0x8f>
    45d9:	8b 45 10             	mov    0x10(%ebp),%eax
    45dc:	be fe ff ff ff       	mov    $0xfffffffe,%esi
    45e1:	c7 00 9e b9 01 00    	movl   $0x1b99e,(%eax)
    45e7:	e9 23 fd ff ff       	jmp    430f <usb_device_create_ddf+0x8f>
    45ec:	8b 53 28             	mov    0x28(%ebx),%edx
    45ef:	85 d2                	test   %edx,%edx
    45f1:	0f 84 39 ff ff ff    	je     4530 <usb_device_create_ddf+0x2b0>
    45f7:	50                   	push   %eax
    45f8:	68 29 01 00 00       	push   $0x129
    45fd:	68 38 b9 01 00       	push   $0x1b938
    4602:	68 24 ba 01 00       	push   $0x1ba24
    4607:	e8 a4 9d 01 00       	call   1e3b0 <assert_abort@plt>
    460c:	57                   	push   %edi
    460d:	68 e5 01 00 00       	push   $0x1e5
    4612:	68 38 b9 01 00       	push   $0x1b938
    4617:	68 83 b9 01 00       	push   $0x1b983
    461c:	e8 8f 9d 01 00       	call   1e3b0 <assert_abort@plt>
    4621:	53                   	push   %ebx
    4622:	68 e6 01 00 00       	push   $0x1e6
    4627:	68 38 b9 01 00       	push   $0x1b938
    462c:	68 8b b9 01 00       	push   $0x1b98b
    4631:	e8 7a 9d 01 00       	call   1e3b0 <assert_abort@plt>
    4636:	50                   	push   %eax
    4637:	68 aa 00 00 00       	push   $0xaa
    463c:	68 38 b9 01 00       	push   $0x1b938
    4641:	68 98 ba 01 00       	push   $0x1ba98
    4646:	e8 65 9d 01 00       	call   1e3b0 <assert_abort@plt>
    464b:	90                   	nop
    464c:	8d 74 26 00          	lea    0x0(%esi,%eiz,1),%esi

00004650 <usb_device_destroy_ddf>:
    4650:	55                   	push   %ebp
    4651:	89 e5                	mov    %esp,%ebp
    4653:	57                   	push   %edi
    4654:	56                   	push   %esi
    4655:	53                   	push   %ebx
    4656:	83 ec 0c             	sub    $0xc,%esp
    4659:	8b 45 08             	mov    0x8(%ebp),%eax
    465c:	85 c0                	test   %eax,%eax
    465e:	0f 84 1d 01 00 00    	je     4781 <usb_device_destroy_ddf+0x131>
    4664:	83 ec 0c             	sub    $0xc,%esp
    4667:	50                   	push   %eax
    4668:	e8 e3 2e 00 00       	call   7550 <ddf_dev_data_get>
    466d:	83 c4 10             	add    $0x10,%esp
    4670:	89 c7                	mov    %eax,%edi
    4672:	85 c0                	test   %eax,%eax
    4674:	0f 84 f2 00 00 00    	je     476c <usb_device_destroy_ddf+0x11c>
    467a:	8b 40 24             	mov    0x24(%eax),%eax
    467d:	85 c0                	test   %eax,%eax
    467f:	0f 84 cb 00 00 00    	je     4750 <usb_device_destroy_ddf+0x100>
    4685:	8b 4f 28             	mov    0x28(%edi),%ecx
    4688:	85 c9                	test   %ecx,%ecx
    468a:	74 5a                	je     46e6 <usb_device_destroy_ddf+0x96>
    468c:	31 f6                	xor    %esi,%esi
    468e:	eb 06                	jmp    4696 <usb_device_destroy_ddf+0x46>
    4690:	46                   	inc    %esi
    4691:	3b 77 28             	cmp    0x28(%edi),%esi
    4694:	73 50                	jae    46e6 <usb_device_destroy_ddf+0x96>
    4696:	8d 14 76             	lea    (%esi,%esi,2),%edx
    4699:	8d 1c 96             	lea    (%esi,%edx,4),%ebx
    469c:	ba 7e b9 01 00       	mov    $0x1b97e,%edx
    46a1:	c1 e3 02             	shl    $0x2,%ebx
    46a4:	80 7c 18 30 00       	cmpb   $0x0,0x30(%eax,%ebx,1)
    46a9:	74 05                	je     46b0 <usb_device_destroy_ddf+0x60>
    46ab:	ba c4 d5 01 00       	mov    $0x1d5c4,%edx
    46b0:	83 ec 0c             	sub    $0xc,%esp
    46b3:	52                   	push   %edx
    46b4:	56                   	push   %esi
    46b5:	68 50 ba 01 00       	push   $0x1ba50
    46ba:	6a 05                	push   $0x5
    46bc:	6a ff                	push   $0xffffffff
    46be:	e8 9d 9c 01 00       	call   1e360 <log_msg@plt>
    46c3:	8b 47 24             	mov    0x24(%edi),%eax
    46c6:	83 c4 20             	add    $0x20,%esp
    46c9:	01 c3                	add    %eax,%ebx
    46cb:	80 7b 30 00          	cmpb   $0x0,0x30(%ebx)
    46cf:	74 bf                	je     4690 <usb_device_destroy_ddf+0x40>
    46d1:	83 ec 0c             	sub    $0xc,%esp
    46d4:	46                   	inc    %esi
    46d5:	53                   	push   %ebx
    46d6:	e8 65 0a 00 00       	call   5140 <usb_pipe_unregister>
    46db:	83 c4 10             	add    $0x10,%esp
    46de:	8b 47 24             	mov    0x24(%edi),%eax
    46e1:	3b 77 28             	cmp    0x28(%edi),%esi
    46e4:	72 b0                	jb     4696 <usb_device_destroy_ddf+0x46>
    46e6:	83 ec 0c             	sub    $0xc,%esp
    46e9:	50                   	push   %eax
    46ea:	e8 41 a1 01 00       	call   1e830 <free@plt>
    46ef:	8d 47 30             	lea    0x30(%edi),%eax
    46f2:	c7 47 24 00 00 00 00 	movl   $0x0,0x24(%edi)
    46f9:	c7 47 28 00 00 00 00 	movl   $0x0,0x28(%edi)
    4700:	89 04 24             	mov    %eax,(%esp)
    4703:	e8 28 20 00 00       	call   6730 <usb_alternate_interfaces_deinit>
    4708:	8b 57 50             	mov    0x50(%edi),%edx
    470b:	58                   	pop    %eax
    470c:	52                   	push   %edx
    470d:	e8 1e a1 01 00       	call   1e830 <free@plt>
    4712:	c7 47 50 00 00 00 00 	movl   $0x0,0x50(%edi)
    4719:	c7 47 54 00 00 00 00 	movl   $0x0,0x54(%edi)
    4720:	8b 5f 5c             	mov    0x5c(%edi),%ebx
    4723:	59                   	pop    %ecx
    4724:	53                   	push   %ebx
    4725:	e8 06 a1 01 00       	call   1e830 <free@plt>
    472a:	c7 47 5c 00 00 00 00 	movl   $0x0,0x5c(%edi)
    4731:	8b 07                	mov    (%edi),%eax
    4733:	5e                   	pop    %esi
    4734:	50                   	push   %eax
    4735:	e8 66 96 00 00       	call   dda0 <usb_dev_disconnect>
    473a:	c7 07 00 00 00 00    	movl   $0x0,(%edi)
