Archive member included to satisfy reference by file (symbol)

../../../lib/drv/libdrv.a(remote_char_dev.o)
                              input.o (char_dev_read)

Discarded input sections

 .debug_line    0x0000000000000000       0x53 /home/ayyuce/Desktop/HlnOS/HelenOS/uspace/lib/c/arch/ia32/src/entry.o
 .debug_info    0x0000000000000000       0x6c /home/ayyuce/Desktop/HlnOS/HelenOS/uspace/lib/c/arch/ia32/src/entry.o
 .debug_abbrev  0x0000000000000000       0x14 /home/ayyuce/Desktop/HlnOS/HelenOS/uspace/lib/c/arch/ia32/src/entry.o
 .debug_aranges
                0x0000000000000000       0x20 /home/ayyuce/Desktop/HlnOS/HelenOS/uspace/lib/c/arch/ia32/src/entry.o
 .debug_info    0x0000000000000000      0xe8e layout/cz.o
 .debug_abbrev  0x0000000000000000      0x2a2 layout/cz.o
 .debug_loc     0x0000000000000000      0x507 layout/cz.o
 .debug_aranges
                0x0000000000000000       0x20 layout/cz.o
 .debug_ranges  0x0000000000000000       0x78 layout/cz.o
 .debug_line    0x0000000000000000      0x289 layout/cz.o
 .debug_str     0x0000000000000000      0xcc6 layout/cz.o
 .comment       0x0000000000000000       0x12 layout/cz.o
 .note.GNU-stack
                0x0000000000000000        0x0 layout/cz.o
 .eh_frame      0x0000000000000000       0x88 layout/cz.o
 .debug_info    0x0000000000000000      0xa4a layout/us_qwerty.o
 .debug_abbrev  0x0000000000000000      0x1ea layout/us_qwerty.o
 .debug_loc     0x0000000000000000      0x1ee layout/us_qwerty.o
 .debug_aranges
                0x0000000000000000       0x20 layout/us_qwerty.o
 .debug_ranges  0x0000000000000000       0x18 layout/us_qwerty.o
 .debug_line    0x0000000000000000      0x21a layout/us_qwerty.o
 .debug_str     0x0000000000000000      0xbcb layout/us_qwerty.o
 .comment       0x0000000000000000       0x12 layout/us_qwerty.o
 .note.GNU-stack
                0x0000000000000000        0x0 layout/us_qwerty.o
 .eh_frame      0x0000000000000000       0x90 layout/us_qwerty.o
 .debug_info    0x0000000000000000      0xa4a layout/us_dvorak.o
 .debug_abbrev  0x0000000000000000      0x1ea layout/us_dvorak.o
 .debug_loc     0x0000000000000000      0x1ee layout/us_dvorak.o
 .debug_aranges
                0x0000000000000000       0x20 layout/us_dvorak.o
 .debug_ranges  0x0000000000000000       0x18 layout/us_dvorak.o
 .debug_line    0x0000000000000000      0x21a layout/us_dvorak.o
 .debug_str     0x0000000000000000      0xbcb layout/us_dvorak.o
 .comment       0x0000000000000000       0x12 layout/us_dvorak.o
 .note.GNU-stack
                0x0000000000000000        0x0 layout/us_dvorak.o
 .eh_frame      0x0000000000000000       0x90 layout/us_dvorak.o
 .debug_info    0x0000000000000000      0x9b8 layout/ar.o
 .debug_abbrev  0x0000000000000000      0x1fc layout/ar.o
 .debug_loc     0x0000000000000000       0xfb layout/ar.o
 .debug_aranges
                0x0000000000000000       0x20 layout/ar.o
 .debug_ranges  0x0000000000000000       0x18 layout/ar.o
 .debug_line    0x0000000000000000      0x20c layout/ar.o
 .debug_str     0x0000000000000000      0xb9b layout/ar.o
 .comment       0x0000000000000000       0x12 layout/ar.o
 .note.GNU-stack
                0x0000000000000000        0x0 layout/ar.o
 .eh_frame      0x0000000000000000       0x90 layout/ar.o
 .debug_info    0x0000000000000000      0xa1d port/adb.o
 .debug_abbrev  0x0000000000000000      0x235 port/adb.o
 .debug_loc     0x0000000000000000      0x110 port/adb.o
 .debug_aranges
                0x0000000000000000       0x20 port/adb.o
 .debug_ranges  0x0000000000000000       0x18 port/adb.o
 .debug_line    0x0000000000000000      0x239 port/adb.o
 .debug_str     0x0000000000000000      0xd66 port/adb.o
 .comment       0x0000000000000000       0x12 port/adb.o
 .note.GNU-stack
                0x0000000000000000        0x0 port/adb.o
 .eh_frame      0x0000000000000000       0x9c port/adb.o
 .debug_info    0x0000000000000000      0x93c port/adb_mouse.o
 .debug_abbrev  0x0000000000000000      0x1de port/adb_mouse.o
 .debug_loc     0x0000000000000000       0xdf port/adb_mouse.o
 .debug_aranges
                0x0000000000000000       0x20 port/adb_mouse.o
 .debug_ranges  0x0000000000000000       0x18 port/adb_mouse.o
 .debug_line    0x0000000000000000      0x23c port/adb_mouse.o
 .debug_str     0x0000000000000000      0xd12 port/adb_mouse.o
 .comment       0x0000000000000000       0x12 port/adb_mouse.o
 .note.GNU-stack
                0x0000000000000000        0x0 port/adb_mouse.o
 .eh_frame      0x0000000000000000       0x94 port/adb_mouse.o
 .debug_info    0x0000000000000000      0xa61 port/chardev.o
 .debug_abbrev  0x0000000000000000      0x256 port/chardev.o
 .debug_loc     0x0000000000000000      0x15f port/chardev.o
 .debug_aranges
                0x0000000000000000       0x20 port/chardev.o
 .debug_ranges  0x0000000000000000       0x18 port/chardev.o
 .debug_line    0x0000000000000000      0x240 port/chardev.o
 .debug_str     0x0000000000000000      0xd86 port/chardev.o
 .comment       0x0000000000000000       0x12 port/chardev.o
 .note.GNU-stack
                0x0000000000000000        0x0 port/chardev.o
 .eh_frame      0x0000000000000000       0x98 port/chardev.o
 .debug_info    0x0000000000000000      0x7d2 port/msim.o
 .debug_abbrev  0x0000000000000000      0x1c2 port/msim.o
 .debug_loc     0x0000000000000000       0x28 port/msim.o
 .debug_aranges
                0x0000000000000000       0x20 port/msim.o
 .debug_line    0x0000000000000000      0x23e port/msim.o
 .debug_str     0x0000000000000000      0xa0a port/msim.o
 .comment       0x0000000000000000       0x12 port/msim.o
 .note.GNU-stack
                0x0000000000000000        0x0 port/msim.o
 .eh_frame      0x0000000000000000       0x84 port/msim.o
 .debug_info    0x0000000000000000      0x709 port/niagara.o
 .debug_abbrev  0x0000000000000000      0x230 port/niagara.o
 .debug_loc     0x0000000000000000       0x67 port/niagara.o
 .debug_aranges
                0x0000000000000000       0x20 port/niagara.o
 .debug_line    0x0000000000000000      0x23e port/niagara.o
 .debug_str     0x0000000000000000      0x8c5 port/niagara.o
 .comment       0x0000000000000000       0x12 port/niagara.o
 .note.GNU-stack
                0x0000000000000000        0x0 port/niagara.o
 .eh_frame      0x0000000000000000       0x88 port/niagara.o
 .debug_info    0x0000000000000000      0x531 port/ski.o
 .debug_abbrev  0x0000000000000000      0x184 port/ski.o
 .debug_aranges
                0x0000000000000000       0x20 port/ski.o
 .debug_line    0x0000000000000000      0x1a9 port/ski.o
 .debug_str     0x0000000000000000      0x763 port/ski.o
 .comment       0x0000000000000000       0x12 port/ski.o
 .note.GNU-stack
                0x0000000000000000        0x0 port/ski.o
 .eh_frame      0x0000000000000000       0x74 port/ski.o
 .debug_info    0x0000000000000000      0x528 proto/adb.o
 .debug_abbrev  0x0000000000000000      0x156 proto/adb.o
 .debug_loc     0x0000000000000000       0xa7 proto/adb.o
 .debug_aranges
                0x0000000000000000       0x20 proto/adb.o
 .debug_line    0x0000000000000000      0x1aa proto/adb.o
 .debug_str     0x0000000000000000      0x750 proto/adb.o
 .comment       0x0000000000000000       0x12 proto/adb.o
 .note.GNU-stack
                0x0000000000000000        0x0 proto/adb.o
 .eh_frame      0x0000000000000000       0x64 proto/adb.o
 .debug_info    0x0000000000000000      0xb09 proto/mousedev.o
 .debug_abbrev  0x0000000000000000      0x241 proto/mousedev.o
 .debug_loc     0x0000000000000000      0x1b9 proto/mousedev.o
 .debug_aranges
                0x0000000000000000       0x20 proto/mousedev.o
 .debug_ranges  0x0000000000000000       0x30 proto/mousedev.o
 .debug_line    0x0000000000000000      0x29d proto/mousedev.o
 .debug_str     0x0000000000000000      0xec9 proto/mousedev.o
 .comment       0x0000000000000000       0x12 proto/mousedev.o
 .note.GNU-stack
                0x0000000000000000        0x0 proto/mousedev.o
 .eh_frame      0x0000000000000000       0x80 proto/mousedev.o
 .debug_info    0x0000000000000000      0x8e6 ctl/apple.o
 .debug_abbrev  0x0000000000000000      0x198 ctl/apple.o
 .debug_loc     0x0000000000000000       0x75 ctl/apple.o
 .debug_aranges
                0x0000000000000000       0x20 ctl/apple.o
 .debug_line    0x0000000000000000      0x200 ctl/apple.o
 .debug_str     0x0000000000000000      0xb99 ctl/apple.o
 .comment       0x0000000000000000       0x12 ctl/apple.o
 .note.GNU-stack
                0x0000000000000000        0x0 ctl/apple.o
 .eh_frame      0x0000000000000000       0x80 ctl/apple.o
 .debug_info    0x0000000000000000      0xc45 ctl/kbdev.o
 .debug_abbrev  0x0000000000000000      0x267 ctl/kbdev.o
 .debug_loc     0x0000000000000000      0x215 ctl/kbdev.o
 .debug_aranges
                0x0000000000000000       0x20 ctl/kbdev.o
 .debug_ranges  0x0000000000000000       0x48 ctl/kbdev.o
 .debug_line    0x0000000000000000      0x297 ctl/kbdev.o
 .debug_str     0x0000000000000000      0xee2 ctl/kbdev.o
 .comment       0x0000000000000000       0x12 ctl/kbdev.o
 .note.GNU-stack
                0x0000000000000000        0x0 ctl/kbdev.o
 .eh_frame      0x0000000000000000       0xc0 ctl/kbdev.o
 .debug_info    0x0000000000000000      0xae5 ctl/stty.o
 .debug_abbrev  0x0000000000000000      0x1af ctl/stty.o
 .debug_aranges
                0x0000000000000000       0x20 ctl/stty.o
 .debug_line    0x0000000000000000      0x1dc ctl/stty.o
 .debug_str     0x0000000000000000      0xc1f ctl/stty.o
 .comment       0x0000000000000000       0x12 ctl/stty.o
 .note.GNU-stack
                0x0000000000000000        0x0 ctl/stty.o
 .eh_frame      0x0000000000000000       0x80 ctl/stty.o
 .debug_info    0x0000000000000000      0x91f ctl/sun.o
 .debug_abbrev  0x0000000000000000      0x1f4 ctl/sun.o
 .debug_loc     0x0000000000000000       0x69 ctl/sun.o
 .debug_aranges
                0x0000000000000000       0x20 ctl/sun.o
 .debug_ranges  0x0000000000000000       0x18 ctl/sun.o
 .debug_line    0x0000000000000000      0x1fd ctl/sun.o
 .debug_str     0x0000000000000000      0xb98 ctl/sun.o
 .comment       0x0000000000000000       0x12 ctl/sun.o
 .note.GNU-stack
                0x0000000000000000        0x0 ctl/sun.o
 .eh_frame      0x0000000000000000       0x80 ctl/sun.o
 .debug_info    0x0000000000000000      0x908 gsp.o
 .debug_abbrev  0x0000000000000000      0x2a4 gsp.o
 .debug_loc     0x0000000000000000      0x353 gsp.o
 .debug_aranges
                0x0000000000000000       0x20 gsp.o
 .debug_ranges  0x0000000000000000       0x48 gsp.o
 .debug_line    0x0000000000000000      0x1e3 gsp.o
 .debug_str     0x0000000000000000      0x3e4 gsp.o
 .comment       0x0000000000000000       0x12 gsp.o
 .note.GNU-stack
                0x0000000000000000        0x0 gsp.o
 .eh_frame      0x0000000000000000      0x130 gsp.o
 .debug_info    0x0000000000000000     0x2760 input.o
 .debug_abbrev  0x0000000000000000      0x4a9 input.o
 .debug_loc     0x0000000000000000      0xc2e input.o
 .debug_aranges
                0x0000000000000000       0x28 input.o
 .debug_ranges  0x0000000000000000      0x3f8 input.o
 .debug_line    0x0000000000000000      0x6cf input.o
 .debug_str     0x0000000000000000     0x1912 input.o
 .comment       0x0000000000000000       0x12 input.o
 .note.GNU-stack
                0x0000000000000000        0x0 input.o
 .eh_frame      0x0000000000000000      0x288 input.o
 .debug_info    0x0000000000000000      0x86e layout.o
 .debug_abbrev  0x0000000000000000      0x1b5 layout.o
 .debug_loc     0x0000000000000000       0x5f layout.o
 .debug_aranges
                0x0000000000000000       0x20 layout.o
 .debug_line    0x0000000000000000      0x1ba layout.o
 .debug_str     0x0000000000000000      0xae6 layout.o
 .comment       0x0000000000000000       0x12 layout.o
 .note.GNU-stack
                0x0000000000000000        0x0 layout.o
 .eh_frame      0x0000000000000000       0x88 layout.o
 .debug_info    0x0000000000000000      0x482 stroke.o
 .debug_abbrev  0x0000000000000000      0x156 stroke.o
 .debug_loc     0x0000000000000000       0xd0 stroke.o
 .debug_aranges
                0x0000000000000000       0x20 stroke.o
 .debug_line    0x0000000000000000      0x195 stroke.o
 .debug_str     0x0000000000000000      0x6fc stroke.o
 .comment       0x0000000000000000       0x12 stroke.o
 .note.GNU-stack
                0x0000000000000000        0x0 stroke.o
 .eh_frame      0x0000000000000000       0x50 stroke.o
 .debug_info    0x0000000000000000      0x9f8 ../../../lib/drv/libdrv.a(remote_char_dev.o)
 .debug_abbrev  0x0000000000000000      0x243 ../../../lib/drv/libdrv.a(remote_char_dev.o)
 .debug_loc     0x0000000000000000      0x304 ../../../lib/drv/libdrv.a(remote_char_dev.o)
 .debug_aranges
                0x0000000000000000       0x20 ../../../lib/drv/libdrv.a(remote_char_dev.o)
 .debug_ranges  0x0000000000000000       0x40 ../../../lib/drv/libdrv.a(remote_char_dev.o)
 .debug_line    0x0000000000000000      0x29f ../../../lib/drv/libdrv.a(remote_char_dev.o)
 .debug_str     0x0000000000000000      0xa95 ../../../lib/drv/libdrv.a(remote_char_dev.o)
 .comment       0x0000000000000000       0x12 ../../../lib/drv/libdrv.a(remote_char_dev.o)
 .note.GNU-stack
                0x0000000000000000        0x0 ../../../lib/drv/libdrv.a(remote_char_dev.o)
 .eh_frame      0x0000000000000000      0x120 ../../../lib/drv/libdrv.a(remote_char_dev.o)

Memory Configuration

Name             Origin             Length             Attributes
*default*        0x0000000000000000 0xffffffffffffffff

Linker script and memory map

LOAD /home/ayyuce/Desktop/HlnOS/HelenOS/uspace/lib/c/arch/ia32/src/entry.o
                0x00000000000010f4                . = (0x1000 + SIZEOF_HEADERS)

.init           0x00000000000010f4       0x2e
 *(.init)
 .init          0x00000000000010f4       0x2e /home/ayyuce/Desktop/HlnOS/HelenOS/uspace/lib/c/arch/ia32/src/entry.o
                0x00000000000010f4                __entry

.text           0x0000000000001140     0x3494
 *(.text .text.*)
 .text          0x0000000000001140        0x0 /home/ayyuce/Desktop/HlnOS/HelenOS/uspace/lib/c/arch/ia32/src/entry.o
 .text          0x0000000000001140      0x26f layout/cz.o
 *fill*         0x00000000000013af        0x1 
 .text          0x00000000000013b0       0xcc layout/us_qwerty.o
 *fill*         0x000000000000147c        0x4 
 .text          0x0000000000001480       0xcc layout/us_dvorak.o
 *fill*         0x000000000000154c        0x4 
 .text          0x0000000000001550       0x8c layout/ar.o
 *fill*         0x00000000000015dc        0x4 
 .text          0x00000000000015e0      0x1b8 port/adb.o
 *fill*         0x0000000000001798        0x8 
 .text          0x00000000000017a0      0x185 port/adb_mouse.o
 *fill*         0x0000000000001925        0xb 
 .text          0x0000000000001930      0x1f3 port/chardev.o
 *fill*         0x0000000000001b23        0xd 
 .text          0x0000000000001b30       0xba port/msim.o
 *fill*         0x0000000000001bea        0x6 
 .text          0x0000000000001bf0      0x13d port/niagara.o
 *fill*         0x0000000000001d2d        0x3 
 .text          0x0000000000001d30       0x4a port/ski.o
 *fill*         0x0000000000001d7a        0x6 
 .text          0x0000000000001d80       0xdd proto/adb.o
 *fill*         0x0000000000001e5d        0x3 
 .text          0x0000000000001e60      0x230 proto/mousedev.o
 .text          0x0000000000002090       0x5b ctl/apple.o
 *fill*         0x00000000000020eb        0x5 
 .text          0x00000000000020f0      0x264 ctl/kbdev.o
 *fill*         0x0000000000002354        0xc 
 .text          0x0000000000002360       0x9e ctl/stty.o
 *fill*         0x00000000000023fe        0x2 
 .text          0x0000000000002400       0x63 ctl/sun.o
 *fill*         0x0000000000002463        0xd 
 .text          0x0000000000002470      0x2cb gsp.o
                0x00000000000024e0                gsp_init
                0x0000000000002510                gsp_insert_seq
                0x0000000000002660                gsp_insert_defs
                0x00000000000026b0                gsp_step
 *fill*         0x000000000000273b        0x5 
 .text          0x0000000000002740      0xd8f input.o
                0x00000000000030a0                kbd_push_data
                0x00000000000030c0                mouse_push_data
                0x00000000000030e0                kbd_push_event
                0x00000000000032f0                mouse_push_event_move
                0x00000000000033d0                mouse_push_event_abs_move
                0x0000000000003460                mouse_push_event_button
 *fill*         0x00000000000034cf        0x1 
 .text.startup  0x00000000000034d0      0x20a input.o
                0x00000000000034d0                main
 *fill*         0x00000000000036da        0x6 
 .text          0x00000000000036e0       0x8e layout.o
                0x00000000000036e0                layout_create
                0x0000000000003740                layout_destroy
                0x0000000000003760                layout_parse_ev
 *fill*         0x000000000000376e        0x2 
 .text          0x0000000000003770       0x79 stroke.o
                0x0000000000003770                stroke_sim
 *fill*         0x00000000000037e9        0x7 
 .text          0x00000000000037f0      0x341 ../../../lib/drv/libdrv.a(remote_char_dev.o)
                0x00000000000039e0                char_dev_read
                0x0000000000003a90                char_dev_write
 *(.rodata .rodata.*)
 *fill*         0x0000000000003b31        0x3 
 .rodata        0x0000000000003b34       0x44 layout/cz.o
 .rodata.str1.1
                0x0000000000003b78       0x1a layout/cz.o
 .rodata.str1.1
                0x0000000000003b92        0x8 port/adb.o
                                          0xe (size before relaxing)
 *fill*         0x0000000000003b9a        0x2 
 .rodata.str1.4
                0x0000000000003b9c       0x7b port/adb.o
 .rodata.str1.1
                0x0000000000003c17        0xa port/adb_mouse.o
                                         0x10 (size before relaxing)
 .rodata.str1.4
                0x0000000000003c21       0x7b port/adb_mouse.o
 .rodata.str1.1
                0x0000000000003c21       0x12 port/chardev.o
                                         0x18 (size before relaxing)
 *fill*         0x0000000000003c33        0x1 
 .rodata.str1.4
                0x0000000000003c34       0x52 port/chardev.o
                                         0xaa (size before relaxing)
 .rodata.str1.1
                0x0000000000003c86       0x1d port/msim.o
 .rodata.str1.1
                0x0000000000003ca3       0x1f port/niagara.o
 *fill*         0x0000000000003cc2        0x2 
 .rodata.str1.4
                0x0000000000003cc4       0x39 port/niagara.o
 .rodata.str1.1
                0x0000000000003cfd        0x9 port/ski.o
 .rodata.str1.1
                0x0000000000003cfd        0x6 proto/mousedev.o
 *fill*         0x0000000000003cfd        0x3 
 .rodata.str1.4
                0x0000000000003d00       0xba proto/mousedev.o
 *fill*         0x0000000000003dba        0x6 
 .rodata        0x0000000000003dc0      0x200 ctl/apple.o
 .rodata.str1.1
                0x0000000000003fc0        0x6 ctl/kbdev.o
 .rodata.str1.4
                0x0000000000003fc0       0x28 ctl/kbdev.o
                                         0xba (size before relaxing)
 *fill*         0x0000000000003fe8       0x18 
 .rodata        0x0000000000004000      0x200 ctl/sun.o
 .rodata.str1.1
                0x0000000000004200       0x1b gsp.o
 *fill*         0x000000000000421b        0x1 
 .rodata.str1.4
                0x000000000000421c       0x2b gsp.o
 .rodata.str1.1
                0x0000000000004247       0x68 input.o
                                         0x74 (size before relaxing)
 *fill*         0x00000000000042af        0x1 
 .rodata.str1.4
                0x00000000000042b0      0x2c8 input.o
 *fill*         0x0000000000004578        0x8 
 .rodata        0x0000000000004580       0x44 input.o
 .rodata.str1.1
                0x00000000000045c4       0x1a layout.o
 .rodata        0x00000000000045c4       0x10 ../../../lib/drv/libdrv.a(remote_char_dev.o)
                0x00000000000045c4                remote_char_dev_iface

.rel.plt        0x00000000000045d4      0x1d8
 *(.rel.plt)
 .rel.plt       0x00000000000045d4      0x1d8 /home/ayyuce/Desktop/HlnOS/HelenOS/uspace/lib/c/arch/ia32/src/entry.o

.rel.dyn        0x00000000000047ac       0x10
 *(.rel.*)
 .rel.got       0x00000000000047ac        0x0 /home/ayyuce/Desktop/HlnOS/HelenOS/uspace/lib/c/arch/ia32/src/entry.o
 .rel.bss       0x00000000000047ac       0x10 /home/ayyuce/Desktop/HlnOS/HelenOS/uspace/lib/c/arch/ia32/src/entry.o
 .rel.init      0x00000000000047bc        0x0 /home/ayyuce/Desktop/HlnOS/HelenOS/uspace/lib/c/arch/ia32/src/entry.o
 .rel.text      0x00000000000047bc        0x0 /home/ayyuce/Desktop/HlnOS/HelenOS/uspace/lib/c/arch/ia32/src/entry.o
 .rel.text.startup
                0x00000000000047bc        0x0 /home/ayyuce/Desktop/HlnOS/HelenOS/uspace/lib/c/arch/ia32/src/entry.o

.plt            0x00000000000047c0      0x3c0
 *(.plt)
 .plt           0x00000000000047c0      0x3c0 /home/ayyuce/Desktop/HlnOS/HelenOS/uspace/lib/c/arch/ia32/src/entry.o
                0x00000000000047d0                __main
                0x00000000000047e0                loc_category_get_id
                0x00000000000047f0                sysinfo_get_value
                0x0000000000004800                task_retval
                0x0000000000004810                loc_service_connect
                0x0000000000004820                physmem_map
                0x0000000000004830                printf
                0x0000000000004840                async_hangup
                0x0000000000004850                async_msg_4
                0x0000000000004860                async_wait_for
                0x0000000000004870                hash_table_create
                0x0000000000004880                async_data_write_start
                0x0000000000004890                hash_table_insert
                0x00000000000048a0                loc_service_register
                0x00000000000048b0                usleep
                0x00000000000048c0                async_data_read_finalize
                0x00000000000048d0                async_get_client_data
                0x00000000000048e0                malloc
                0x00000000000048f0                async_irq_subscribe
                0x0000000000004900                device_assign_devno
                0x0000000000004910                loc_service_get_id
                0x0000000000004920                async_answer_0
                0x0000000000004930                async_send_fast
                0x0000000000004940                __umoddi3
                0x0000000000004950                async_set_client_data_destructor
                0x0000000000004960                async_exchange_end
                0x0000000000004970                loc_service_get_name
                0x0000000000004980                calloc
                0x0000000000004990                loc_register_cat_change_cb
                0x00000000000049a0                fibril_mutex_unlock
                0x00000000000049b0                async_callback_receive_start
                0x00000000000049c0                async_msg_1
                0x00000000000049d0                async_create_callback_port
                0x00000000000049e0                str_cmp
                0x00000000000049f0                async_msg_0
                0x0000000000004a00                async_data_read_receive
                0x0000000000004a10                async_data_read_start
                0x0000000000004a20                config_get_value
                0x0000000000004a30                async_set_client_data_constructor
                0x0000000000004a40                loc_server_register
                0x0000000000004a50                loc_category_get_svcs
                0x0000000000004a60                async_get_call_timeout
                0x0000000000004a70                async_answer_1
                0x0000000000004a80                async_exchange_begin
                0x0000000000004a90                str_error
                0x0000000000004aa0                hash_table_find
                0x0000000000004ab0                async_data_write_finalize
                0x0000000000004ac0                exit
                0x0000000000004ad0                fibril_create_generic
                0x0000000000004ae0                fibril_add_ready
                0x0000000000004af0                fibril_switch
                0x0000000000004b00                __syscall_fast
                0x0000000000004b10                thread_create
                0x0000000000004b20                async_set_fallback_port_handler
                0x0000000000004b30                async_data_write_receive
                0x0000000000004b40                async_event_subscribe
                0x0000000000004b50                free
                0x0000000000004b60                fibril_mutex_lock
                0x0000000000004b70                async_msg_2

.dynsym         0x0000000000004b80      0x400
 *(.dynsym)
 .dynsym        0x0000000000004b80      0x400 /home/ayyuce/Desktop/HlnOS/HelenOS/uspace/lib/c/arch/ia32/src/entry.o

.dynstr         0x0000000000004f80      0x456
 *(.dynstr)
 .dynstr        0x0000000000004f80      0x456 /home/ayyuce/Desktop/HlnOS/HelenOS/uspace/lib/c/arch/ia32/src/entry.o

.hash           0x00000000000053d8      0x19c
 *(.hash)
 .hash          0x00000000000053d8      0x19c /home/ayyuce/Desktop/HlnOS/HelenOS/uspace/lib/c/arch/ia32/src/entry.o

.interp         0x0000000000005574       0x13
 *(.interp)
 .interp        0x0000000000005574       0x13 /home/ayyuce/Desktop/HlnOS/HelenOS/uspace/lib/c/arch/ia32/src/entry.o
                0x0000000000006587                . = (. + 0x1000)

.dynamic        0x0000000000006588       0xa8
 *(.dynamic)
 .dynamic       0x0000000000006588       0xa8 /home/ayyuce/Desktop/HlnOS/HelenOS/uspace/lib/c/arch/ia32/src/entry.o
                0x0000000000006588                _DYNAMIC

.data           0x0000000000006640     0x27c9
 *(.data)
 .data          0x0000000000006640        0x0 /home/ayyuce/Desktop/HlnOS/HelenOS/uspace/lib/c/arch/ia32/src/entry.o
 .data          0x0000000000006640      0xb38 layout/cz.o
                0x000000000000716c                cz_ops
 *fill*         0x0000000000007178        0x8 
 .data          0x0000000000007180      0x6b8 layout/us_qwerty.o
                0x000000000000782c                us_qwerty_ops
 *fill*         0x0000000000007838        0x8 
 .data          0x0000000000007840      0x684 layout/us_dvorak.o
                0x0000000000007eb8                us_dvorak_ops
 *fill*         0x0000000000007ec4       0x1c 
 .data          0x0000000000007ee0      0x504 layout/ar.o
                0x00000000000083d8                ar_ops
 .data          0x00000000000083e4        0x8 port/adb.o
                0x00000000000083e4                adb_port
 .data          0x00000000000083ec        0x8 port/adb_mouse.o
                0x00000000000083ec                adb_mouse_port
 .data          0x00000000000083f4        0x8 port/chardev.o
                0x00000000000083f4                chardev_port
 *fill*         0x00000000000083fc        0x4 
 .data          0x0000000000008400       0x58 port/msim.o
                0x0000000000008450                msim_port
 .data          0x0000000000008458        0xc port/niagara.o
                0x000000000000845c                niagara_port
 .data          0x0000000000008464        0x8 port/ski.o
                0x0000000000008464                ski_port
 .data          0x000000000000846c        0x8 proto/adb.o
                0x000000000000846c                adb_proto
 .data          0x0000000000008474        0x8 proto/mousedev.o
                0x0000000000008474                mousedev_proto
 .data          0x000000000000847c        0xc ctl/apple.o
                0x000000000000847c                apple_ctl
 .data          0x0000000000008488        0xc ctl/kbdev.o
                0x0000000000008488                kbdev_ctl
 *fill*         0x0000000000008494        0xc 
 .data          0x00000000000084a0      0x938 ctl/stty.o
                0x0000000000008dcc                stty_ctl
 .data          0x0000000000008dd8        0xc ctl/sun.o
                0x0000000000008dd8                sun_ctl
 .data          0x0000000000008de4       0x14 gsp.o
 .data          0x0000000000008df8       0x11 input.o
 .data          0x0000000000008e09        0x0 layout.o
 .data          0x0000000000008e09        0x0 stroke.o
 .data          0x0000000000008e09        0x0 ../../../lib/drv/libdrv.a(remote_char_dev.o)

.data.rel
 *(.data.rel .data.rel.*)

.got            0x0000000000008e0c        0x0
 *(.got)
 .got           0x0000000000008e0c        0x0 /home/ayyuce/Desktop/HlnOS/HelenOS/uspace/lib/c/arch/ia32/src/entry.o

.got.plt        0x0000000000008e0c       0xf8
 *(.got.plt)
 .got.plt       0x0000000000008e0c       0xf8 /home/ayyuce/Desktop/HlnOS/HelenOS/uspace/lib/c/arch/ia32/src/entry.o
                0x0000000000008e0c                _GLOBAL_OFFSET_TABLE_

.tdata
 *(.tdata)
 *(.gnu.linkonce.tb.*)

.tbss
 *(.tbss)

.bss            0x0000000000008f20       0xb0
 *(.dynbss)
 .dynbss        0x0000000000008f20        0x8 /home/ayyuce/Desktop/HlnOS/HelenOS/uspace/lib/c/arch/ia32/src/entry.o
                0x0000000000008f20                __syscall_fast_func
                0x0000000000008f24                async_futex
 *(COMMON)
 *(.bss)
 .bss           0x0000000000008f28        0x0 /home/ayyuce/Desktop/HlnOS/HelenOS/uspace/lib/c/arch/ia32/src/entry.o
 .bss           0x0000000000008f28        0x0 layout/cz.o
 .bss           0x0000000000008f28        0x0 layout/us_qwerty.o
 .bss           0x0000000000008f28        0x0 layout/us_dvorak.o
 .bss           0x0000000000008f28        0x0 layout/ar.o
 .bss           0x0000000000008f28        0x8 port/adb.o
 .bss           0x0000000000008f30        0x8 port/adb_mouse.o
 .bss           0x0000000000008f38        0x8 port/chardev.o
 .bss           0x0000000000008f40        0x4 port/msim.o
 .bss           0x0000000000008f44        0x4 port/niagara.o
 .bss           0x0000000000008f48        0x0 port/ski.o
 .bss           0x0000000000008f48        0x8 proto/adb.o
 .bss           0x0000000000008f50        0x0 proto/mousedev.o
 .bss           0x0000000000008f50        0x4 ctl/apple.o
 .bss           0x0000000000008f54        0x0 ctl/kbdev.o
 *fill*         0x0000000000008f54        0xc 
 .bss           0x0000000000008f60       0x44 ctl/stty.o
 .bss           0x0000000000008fa4        0x4 ctl/sun.o
 .bss           0x0000000000008fa8        0x0 gsp.o
 .bss           0x0000000000008fa8       0x28 input.o
 .bss           0x0000000000008fd0        0x0 layout.o
 .bss           0x0000000000008fd0        0x0 stroke.o
 .bss           0x0000000000008fd0        0x0 ../../../lib/drv/libdrv.a(remote_char_dev.o)

/DISCARD/
 *(*)
LOAD layout/cz.o
LOAD layout/us_qwerty.o
LOAD layout/us_dvorak.o
LOAD layout/ar.o
LOAD port/adb.o
LOAD port/adb_mouse.o
LOAD port/chardev.o
LOAD port/msim.o
LOAD port/niagara.o
LOAD port/ski.o
LOAD proto/adb.o
LOAD proto/mousedev.o
LOAD ctl/apple.o
LOAD ctl/kbdev.o
LOAD ctl/stty.o
LOAD ctl/sun.o
LOAD gsp.o
LOAD input.o
LOAD layout.o
LOAD stroke.o
LOAD ../../../lib/drv/libdrv.a
LOAD ../../../lib/c/libc.so.0
LOAD ../../../lib/softint/libsoftint.so.0
OUTPUT(input elf32-i386)
