
ddisk:     file format elf32-i386


Disassembly of section .init:

000010f4 <__entry>:
    10f4:	66 8c d0             	mov    %ss,%ax
    10f7:	8e d8                	mov    %eax,%ds
    10f9:	8e c0                	mov    %eax,%es
    10fb:	8e e0                	mov    %eax,%fs
    10fd:	b8 01 00 00 00       	mov    $0x1,%eax
    1102:	0f a2                	cpuid  
    1104:	0f ba e2 0b          	bt     $0xb,%edx
    1108:	73 0c                	jae    1116 <__entry+0x22>
    110a:	8d 05 08 f5 00 00    	lea    0xf508,%eax
    1110:	c7 00 00 d2 00 00    	movl   $0xd200,(%eax)
    1116:	6a 00                	push   $0x0
    1118:	6a 00                	push   $0x0
    111a:	89 e5                	mov    %esp,%ebp
    111c:	57                   	push   %edi
    111d:	e8 9e bb 00 00       	call   ccc0 <__main@plt>

Disassembly of section .text:

00001140 <ddisk_bd_open>:
    1140:	55                   	push   %ebp
    1141:	31 c0                	xor    %eax,%eax
    1143:	89 e5                	mov    %esp,%ebp
    1145:	5d                   	pop    %ebp
    1146:	c3                   	ret    
    1147:	89 f6                	mov    %esi,%esi
    1149:	8d bc 27 00 00 00 00 	lea    0x0(%edi,%eiz,1),%edi

00001150 <ddisk_bd_close>:
    1150:	55                   	push   %ebp
    1151:	31 c0                	xor    %eax,%eax
    1153:	89 e5                	mov    %esp,%ebp
    1155:	5d                   	pop    %ebp
    1156:	c3                   	ret    
    1157:	89 f6                	mov    %esi,%esi
    1159:	8d bc 27 00 00 00 00 	lea    0x0(%edi,%eiz,1),%edi

00001160 <ddisk_bd_get_block_size>:
    1160:	55                   	push   %ebp
    1161:	89 e5                	mov    %esp,%ebp
    1163:	8b 45 0c             	mov    0xc(%ebp),%eax
    1166:	c7 00 00 02 00 00    	movl   $0x200,(%eax)
    116c:	31 c0                	xor    %eax,%eax
    116e:	5d                   	pop    %ebp
    116f:	c3                   	ret    

00001170 <ddisk_bd_get_num_blocks>:
    1170:	55                   	push   %ebp
    1171:	89 e5                	mov    %esp,%ebp
    1173:	8b 45 08             	mov    0x8(%ebp),%eax
    1176:	8b 00                	mov    (%eax),%eax
    1178:	8b 50 04             	mov    0x4(%eax),%edx
    117b:	8b 45 0c             	mov    0xc(%ebp),%eax
    117e:	8b 4a 20             	mov    0x20(%edx),%ecx
    1181:	c7 40 04 00 00 00 00 	movl   $0x0,0x4(%eax)
    1188:	89 08                	mov    %ecx,(%eax)
    118a:	31 c0                	xor    %eax,%eax
    118c:	5d                   	pop    %ebp
    118d:	c3                   	ret    
    118e:	66 90                	xchg   %ax,%ax

00001190 <ddisk_bd_rw_blocks>:
    1190:	55                   	push   %ebp
    1191:	89 e5                	mov    %esp,%ebp
    1193:	57                   	push   %edi
    1194:	56                   	push   %esi
    1195:	53                   	push   %ebx
    1196:	83 ec 2c             	sub    $0x2c,%esp
    1199:	8b 00                	mov    (%eax),%eax
    119b:	8b 7d 14             	mov    0x14(%ebp),%edi
    119e:	89 fb                	mov    %edi,%ebx
    11a0:	8b 75 08             	mov    0x8(%ebp),%esi
    11a3:	88 5d cb             	mov    %bl,-0x35(%ebp)
    11a6:	8b 58 04             	mov    0x4(%eax),%ebx
    11a9:	89 f0                	mov    %esi,%eax
    11ab:	c1 e0 09             	shl    $0x9,%eax
    11ae:	3b 45 10             	cmp    0x10(%ebp),%eax
    11b1:	0f 87 f4 01 00 00    	ja     13ab <ddisk_bd_rw_blocks+0x21b>
    11b7:	89 75 e0             	mov    %esi,-0x20(%ebp)
    11ba:	c7 45 e4 00 00 00 00 	movl   $0x0,-0x1c(%ebp)
    11c1:	85 f6                	test   %esi,%esi
    11c3:	0f 84 38 01 00 00    	je     1301 <ddisk_bd_rw_blocks+0x171>
    11c9:	89 f8                	mov    %edi,%eax
    11cb:	8b 75 e0             	mov    -0x20(%ebp),%esi
    11ce:	25 ff 00 00 00       	and    $0xff,%eax
    11d3:	8b 7d e4             	mov    -0x1c(%ebp),%edi
    11d6:	01 d6                	add    %edx,%esi
    11d8:	89 45 cc             	mov    %eax,-0x34(%ebp)
    11db:	11 cf                	adc    %ecx,%edi
    11dd:	8b 45 0c             	mov    0xc(%ebp),%eax
    11e0:	89 75 d0             	mov    %esi,-0x30(%ebp)
    11e3:	8d 73 10             	lea    0x10(%ebx),%esi
    11e6:	89 7d d4             	mov    %edi,-0x2c(%ebp)
    11e9:	89 55 d8             	mov    %edx,-0x28(%ebp)
    11ec:	89 c7                	mov    %eax,%edi
    11ee:	89 55 e0             	mov    %edx,-0x20(%ebp)
    11f1:	89 4d e4             	mov    %ecx,-0x1c(%ebp)
    11f4:	89 75 dc             	mov    %esi,-0x24(%ebp)
    11f7:	90                   	nop
    11f8:	83 ec 0c             	sub    $0xc,%esp
    11fb:	53                   	push   %ebx
    11fc:	e8 4f c0 00 00       	call   d250 <fibril_mutex_lock@plt>
    1201:	58                   	pop    %eax
    1202:	8b 4d e4             	mov    -0x1c(%ebp),%ecx
    1205:	8b 45 cc             	mov    -0x34(%ebp),%eax
    1208:	8b 75 e0             	mov    -0x20(%ebp),%esi
    120b:	5a                   	pop    %edx
    120c:	57                   	push   %edi
    120d:	51                   	push   %ecx
    120e:	56                   	push   %esi
    120f:	50                   	push   %eax
    1210:	68 60 ac 00 00       	push   $0xac60
    1215:	6a 04                	push   $0x4
    1217:	e8 34 1b 00 00       	call   2d50 <ddf_msg>
    121c:	31 d2                	xor    %edx,%edx
    121e:	83 c4 20             	add    $0x20,%esp
    1221:	8b 43 20             	mov    0x20(%ebx),%eax
    1224:	3b 55 e4             	cmp    -0x1c(%ebp),%edx
    1227:	73 0f                	jae    1238 <ddisk_bd_rw_blocks+0xa8>
    1229:	b8 fd ff ff ff       	mov    $0xfffffffd,%eax
    122e:	8d 65 f4             	lea    -0xc(%ebp),%esp
    1231:	5b                   	pop    %ebx
    1232:	5e                   	pop    %esi
    1233:	5f                   	pop    %edi
    1234:	5d                   	pop    %ebp
    1235:	c3                   	ret    
    1236:	66 90                	xchg   %ax,%ax
    1238:	77 05                	ja     123f <ddisk_bd_rw_blocks+0xaf>
    123a:	3b 45 e0             	cmp    -0x20(%ebp),%eax
    123d:	76 ea                	jbe    1229 <ddisk_bd_rw_blocks+0x99>
    123f:	80 7b 18 00          	cmpb   $0x0,0x18(%ebx)
    1243:	74 18                	je     125d <ddisk_bd_rw_blocks+0xcd>
    1245:	8b 75 dc             	mov    -0x24(%ebp),%esi
    1248:	50                   	push   %eax
    1249:	50                   	push   %eax
    124a:	53                   	push   %ebx
    124b:	56                   	push   %esi
    124c:	e8 1f bc 00 00       	call   ce70 <fibril_condvar_wait@plt>
    1251:	83 c4 10             	add    $0x10,%esp
    1254:	80 7b 18 00          	cmpb   $0x0,0x18(%ebx)
    1258:	75 ee                	jne    1248 <ddisk_bd_rw_blocks+0xb8>
    125a:	89 75 dc             	mov    %esi,-0x24(%ebp)
    125d:	c6 43 18 01          	movb   $0x1,0x18(%ebx)
    1261:	80 7d cb 00          	cmpb   $0x0,-0x35(%ebp)
    1265:	0f 84 a5 00 00 00    	je     1310 <ddisk_bd_rw_blocks+0x180>
    126b:	50                   	push   %eax
    126c:	50                   	push   %eax
    126d:	8b 4b 3c             	mov    0x3c(%ebx),%ecx
    1270:	8b 53 24             	mov    0x24(%ebx),%edx
    1273:	52                   	push   %edx
    1274:	51                   	push   %ecx
    1275:	e8 a6 bd 00 00       	call   d020 <pio_write_32@plt>
    127a:	8b 53 3c             	mov    0x3c(%ebx),%edx
    127d:	5e                   	pop    %esi
    127e:	8b 75 d8             	mov    -0x28(%ebp),%esi
    1281:	58                   	pop    %eax
    1282:	8d 42 04             	lea    0x4(%edx),%eax
    1285:	56                   	push   %esi
    1286:	50                   	push   %eax
    1287:	e8 94 bd 00 00       	call   d020 <pio_write_32@plt>
    128c:	58                   	pop    %eax
    128d:	5a                   	pop    %edx
    128e:	8b 53 3c             	mov    0x3c(%ebx),%edx
    1291:	6a 01                	push   $0x1
    1293:	8d 42 08             	lea    0x8(%edx),%eax
    1296:	50                   	push   %eax
    1297:	e8 84 bd 00 00       	call   d020 <pio_write_32@plt>
    129c:	59                   	pop    %ecx
    129d:	58                   	pop    %eax
    129e:	8b 45 dc             	mov    -0x24(%ebp),%eax
    12a1:	53                   	push   %ebx
    12a2:	50                   	push   %eax
    12a3:	e8 c8 bb 00 00       	call   ce70 <fibril_condvar_wait@plt>
    12a8:	83 c4 0c             	add    $0xc,%esp
    12ab:	8b 43 28             	mov    0x28(%ebx),%eax
    12ae:	68 00 02 00 00       	push   $0x200
    12b3:	50                   	push   %eax
    12b4:	57                   	push   %edi
    12b5:	e8 26 bb 00 00       	call   cde0 <memcpy@plt>
    12ba:	c6 43 18 00          	movb   $0x0,0x18(%ebx)
    12be:	58                   	pop    %eax
    12bf:	8b 45 dc             	mov    -0x24(%ebp),%eax
    12c2:	50                   	push   %eax
    12c3:	e8 68 bb 00 00       	call   ce30 <fibril_condvar_signal@plt>
    12c8:	89 1c 24             	mov    %ebx,(%esp)
    12cb:	e8 e0 bc 00 00       	call   cfb0 <fibril_mutex_unlock@plt>
    12d0:	83 45 e0 01          	addl   $0x1,-0x20(%ebp)
    12d4:	83 55 e4 00          	adcl   $0x0,-0x1c(%ebp)
    12d8:	89 f0                	mov    %esi,%eax
    12da:	40                   	inc    %eax
    12db:	8b 4d d4             	mov    -0x2c(%ebp),%ecx
    12de:	8b 75 e4             	mov    -0x1c(%ebp),%esi
    12e1:	89 45 d8             	mov    %eax,-0x28(%ebp)
    12e4:	31 ce                	xor    %ecx,%esi
    12e6:	8b 45 e0             	mov    -0x20(%ebp),%eax
    12e9:	8b 55 d0             	mov    -0x30(%ebp),%edx
    12ec:	89 f1                	mov    %esi,%ecx
    12ee:	31 d0                	xor    %edx,%eax
    12f0:	81 c7 00 02 00 00    	add    $0x200,%edi
    12f6:	83 c4 10             	add    $0x10,%esp
    12f9:	09 c1                	or     %eax,%ecx
    12fb:	0f 85 f7 fe ff ff    	jne    11f8 <ddisk_bd_rw_blocks+0x68>
    1301:	31 c0                	xor    %eax,%eax
    1303:	8d 65 f4             	lea    -0xc(%ebp),%esp
    1306:	5b                   	pop    %ebx
    1307:	5e                   	pop    %esi
    1308:	5f                   	pop    %edi
    1309:	5d                   	pop    %ebp
    130a:	c3                   	ret    
    130b:	90                   	nop
    130c:	8d 74 26 00          	lea    0x0(%esi,%eiz,1),%esi
    1310:	50                   	push   %eax
    1311:	68 00 02 00 00       	push   $0x200
    1316:	57                   	push   %edi
    1317:	8b 53 28             	mov    0x28(%ebx),%edx
    131a:	52                   	push   %edx
    131b:	e8 c0 ba 00 00       	call   cde0 <memcpy@plt>
    1320:	8b 43 24             	mov    0x24(%ebx),%eax
    1323:	59                   	pop    %ecx
    1324:	5e                   	pop    %esi
    1325:	50                   	push   %eax
    1326:	8b 43 3c             	mov    0x3c(%ebx),%eax
    1329:	50                   	push   %eax
    132a:	e8 f1 bc 00 00       	call   d020 <pio_write_32@plt>
    132f:	58                   	pop    %eax
    1330:	8b 43 3c             	mov    0x3c(%ebx),%eax
    1333:	8b 75 d8             	mov    -0x28(%ebp),%esi
    1336:	83 c0 04             	add    $0x4,%eax
    1339:	5a                   	pop    %edx
    133a:	56                   	push   %esi
    133b:	50                   	push   %eax
    133c:	e8 df bc 00 00       	call   d020 <pio_write_32@plt>
    1341:	59                   	pop    %ecx
    1342:	58                   	pop    %eax
    1343:	8b 43 3c             	mov    0x3c(%ebx),%eax
    1346:	6a 02                	push   $0x2
    1348:	83 c0 08             	add    $0x8,%eax
    134b:	50                   	push   %eax
    134c:	e8 cf bc 00 00       	call   d020 <pio_write_32@plt>
    1351:	8b 4d dc             	mov    -0x24(%ebp),%ecx
    1354:	58                   	pop    %eax
    1355:	5a                   	pop    %edx
    1356:	53                   	push   %ebx
    1357:	51                   	push   %ecx
    1358:	e8 13 bb 00 00       	call   ce70 <fibril_condvar_wait@plt>
    135d:	c6 43 18 00          	movb   $0x0,0x18(%ebx)
    1361:	58                   	pop    %eax
    1362:	8b 45 dc             	mov    -0x24(%ebp),%eax
    1365:	50                   	push   %eax
    1366:	e8 c5 ba 00 00       	call   ce30 <fibril_condvar_signal@plt>
    136b:	89 1c 24             	mov    %ebx,(%esp)
    136e:	e8 3d bc 00 00       	call   cfb0 <fibril_mutex_unlock@plt>
    1373:	83 45 e0 01          	addl   $0x1,-0x20(%ebp)
    1377:	83 55 e4 00          	adcl   $0x0,-0x1c(%ebp)
    137b:	89 f0                	mov    %esi,%eax
    137d:	40                   	inc    %eax
    137e:	8b 4d e4             	mov    -0x1c(%ebp),%ecx
    1381:	8b 75 d4             	mov    -0x2c(%ebp),%esi
    1384:	89 45 d8             	mov    %eax,-0x28(%ebp)
    1387:	31 ce                	xor    %ecx,%esi
    1389:	8b 45 d0             	mov    -0x30(%ebp),%eax
    138c:	8b 55 e0             	mov    -0x20(%ebp),%edx
    138f:	89 f1                	mov    %esi,%ecx
    1391:	31 d0                	xor    %edx,%eax
    1393:	81 c7 00 02 00 00    	add    $0x200,%edi
    1399:	83 c4 10             	add    $0x10,%esp
    139c:	09 c1                	or     %eax,%ecx
    139e:	0f 85 54 fe ff ff    	jne    11f8 <ddisk_bd_rw_blocks+0x68>
    13a4:	31 c0                	xor    %eax,%eax
    13a6:	e9 58 ff ff ff       	jmp    1303 <ddisk_bd_rw_blocks+0x173>
    13ab:	b8 f2 ff ff ff       	mov    $0xfffffff2,%eax
    13b0:	e9 79 fe ff ff       	jmp    122e <ddisk_bd_rw_blocks+0x9e>
    13b5:	8d 74 26 00          	lea    0x0(%esi,%eiz,1),%esi
    13b9:	8d bc 27 00 00 00 00 	lea    0x0(%edi,%eiz,1),%edi

000013c0 <ddisk_bd_write_blocks>:
    13c0:	55                   	push   %ebp
    13c1:	89 e5                	mov    %esp,%ebp
    13c3:	53                   	push   %ebx
    13c4:	8b 5d 14             	mov    0x14(%ebp),%ebx
    13c7:	8b 45 08             	mov    0x8(%ebp),%eax
    13ca:	89 5d 08             	mov    %ebx,0x8(%ebp)
    13cd:	8b 5d 1c             	mov    0x1c(%ebp),%ebx
    13d0:	8b 55 0c             	mov    0xc(%ebp),%edx
    13d3:	8b 4d 10             	mov    0x10(%ebp),%ecx
    13d6:	89 5d 10             	mov    %ebx,0x10(%ebp)
    13d9:	8b 5d 18             	mov    0x18(%ebp),%ebx
    13dc:	89 5d 0c             	mov    %ebx,0xc(%ebp)
    13df:	c7 45 14 00 00 00 00 	movl   $0x0,0x14(%ebp)
    13e6:	5b                   	pop    %ebx
    13e7:	5d                   	pop    %ebp
    13e8:	e9 a3 fd ff ff       	jmp    1190 <ddisk_bd_rw_blocks>
    13ed:	8d 76 00             	lea    0x0(%esi),%esi

000013f0 <ddisk_bd_read_blocks>:
    13f0:	55                   	push   %ebp
    13f1:	89 e5                	mov    %esp,%ebp
    13f3:	53                   	push   %ebx
    13f4:	8b 5d 14             	mov    0x14(%ebp),%ebx
    13f7:	8b 45 08             	mov    0x8(%ebp),%eax
    13fa:	89 5d 08             	mov    %ebx,0x8(%ebp)
    13fd:	8b 5d 1c             	mov    0x1c(%ebp),%ebx
    1400:	8b 55 0c             	mov    0xc(%ebp),%edx
    1403:	8b 4d 10             	mov    0x10(%ebp),%ecx
    1406:	89 5d 10             	mov    %ebx,0x10(%ebp)
    1409:	8b 5d 18             	mov    0x18(%ebp),%ebx
    140c:	89 5d 0c             	mov    %ebx,0xc(%ebp)
    140f:	c7 45 14 01 00 00 00 	movl   $0x1,0x14(%ebp)
    1416:	5b                   	pop    %ebx
    1417:	5d                   	pop    %ebp
    1418:	e9 73 fd ff ff       	jmp    1190 <ddisk_bd_rw_blocks>
    141d:	8d 76 00             	lea    0x0(%esi),%esi

00001420 <ddisk_fun_offline>:
    1420:	55                   	push   %ebp
    1421:	89 e5                	mov    %esp,%ebp
    1423:	53                   	push   %ebx
    1424:	83 ec 0c             	sub    $0xc,%esp
    1427:	8b 5d 08             	mov    0x8(%ebp),%ebx
    142a:	68 61 ae 00 00       	push   $0xae61
    142f:	6a 04                	push   $0x4
    1431:	e8 1a 19 00 00       	call   2d50 <ddf_msg>
    1436:	89 5d 08             	mov    %ebx,0x8(%ebp)
    1439:	83 c4 10             	add    $0x10,%esp
    143c:	8b 5d fc             	mov    -0x4(%ebp),%ebx
    143f:	c9                   	leave  
    1440:	e9 bb 15 00 00       	jmp    2a00 <ddf_fun_offline>
    1445:	8d 74 26 00          	lea    0x0(%esi,%eiz,1),%esi
    1449:	8d bc 27 00 00 00 00 	lea    0x0(%edi,%eiz,1),%edi

00001450 <ddisk_fun_online>:
    1450:	55                   	push   %ebp
    1451:	89 e5                	mov    %esp,%ebp
    1453:	53                   	push   %ebx
    1454:	83 ec 0c             	sub    $0xc,%esp
    1457:	8b 5d 08             	mov    0x8(%ebp),%ebx
    145a:	68 75 ae 00 00       	push   $0xae75
    145f:	6a 04                	push   $0x4
    1461:	e8 ea 18 00 00       	call   2d50 <ddf_msg>
    1466:	89 5d 08             	mov    %ebx,0x8(%ebp)
    1469:	83 c4 10             	add    $0x10,%esp
    146c:	8b 5d fc             	mov    -0x4(%ebp),%ebx
    146f:	c9                   	leave  
    1470:	e9 5b 15 00 00       	jmp    29d0 <ddf_fun_online>
    1475:	8d 74 26 00          	lea    0x0(%esi,%eiz,1),%esi
    1479:	8d bc 27 00 00 00 00 	lea    0x0(%edi,%eiz,1),%edi

00001480 <ddisk_irq_handler>:
    1480:	55                   	push   %ebp
    1481:	89 e5                	mov    %esp,%ebp
    1483:	53                   	push   %ebx
    1484:	83 ec 08             	sub    $0x8,%esp
    1487:	8b 45 0c             	mov    0xc(%ebp),%eax
    148a:	8b 5d 10             	mov    0x10(%ebp),%ebx
    148d:	8b 50 04             	mov    0x4(%eax),%edx
    1490:	52                   	push   %edx
    1491:	68 8c ac 00 00       	push   $0xac8c
    1496:	6a 04                	push   $0x4
    1498:	e8 b3 18 00 00       	call   2d50 <ddf_msg>
    149d:	89 1c 24             	mov    %ebx,(%esp)
    14a0:	e8 ab 0f 00 00       	call   2450 <ddf_dev_data_get>
    14a5:	89 c3                	mov    %eax,%ebx
    14a7:	89 04 24             	mov    %eax,(%esp)
    14aa:	e8 a1 bd 00 00       	call   d250 <fibril_mutex_lock@plt>
    14af:	8d 43 10             	lea    0x10(%ebx),%eax
    14b2:	89 04 24             	mov    %eax,(%esp)
    14b5:	e8 c6 ba 00 00       	call   cf80 <fibril_condvar_broadcast@plt>
    14ba:	89 5d 08             	mov    %ebx,0x8(%ebp)
    14bd:	83 c4 10             	add    $0x10,%esp
    14c0:	8b 5d fc             	mov    -0x4(%ebp),%ebx
    14c3:	c9                   	leave  
    14c4:	e9 e7 ba 00 00       	jmp    cfb0 <fibril_mutex_unlock@plt>
    14c9:	8d b4 26 00 00 00 00 	lea    0x0(%esi,%eiz,1),%esi

000014d0 <ddisk_bd_connection>:
    14d0:	55                   	push   %ebp
    14d1:	89 e5                	mov    %esp,%ebp
    14d3:	56                   	push   %esi
    14d4:	53                   	push   %ebx
    14d5:	83 ec 0c             	sub    $0xc,%esp
    14d8:	8b 45 10             	mov    0x10(%ebp),%eax
    14db:	8b 5d 08             	mov    0x8(%ebp),%ebx
    14de:	8b 75 0c             	mov    0xc(%ebp),%esi
    14e1:	50                   	push   %eax
    14e2:	e8 39 10 00 00       	call   2520 <ddf_fun_get_dev>
    14e7:	89 04 24             	mov    %eax,(%esp)
    14ea:	e8 61 0f 00 00       	call   2450 <ddf_dev_data_get>
    14ef:	83 c0 40             	add    $0x40,%eax
    14f2:	89 75 0c             	mov    %esi,0xc(%ebp)
    14f5:	89 5d 08             	mov    %ebx,0x8(%ebp)
    14f8:	89 45 10             	mov    %eax,0x10(%ebp)
    14fb:	83 c4 10             	add    $0x10,%esp
    14fe:	8d 65 f8             	lea    -0x8(%ebp),%esp
    1501:	5b                   	pop    %ebx
    1502:	5e                   	pop    %esi
    1503:	5d                   	pop    %ebp
    1504:	e9 87 b9 00 00       	jmp    ce90 <bd_conn@plt>
    1509:	8d b4 26 00 00 00 00 	lea    0x0(%esi,%eiz,1),%esi

00001510 <ddisk_dev_remove>:
    1510:	55                   	push   %ebp
    1511:	89 e5                	mov    %esp,%ebp
    1513:	56                   	push   %esi
    1514:	53                   	push   %ebx
    1515:	83 ec 0c             	sub    $0xc,%esp
    1518:	8b 75 08             	mov    0x8(%ebp),%esi
    151b:	56                   	push   %esi
    151c:	e8 2f 0f 00 00       	call   2450 <ddf_dev_data_get>
    1521:	83 c4 0c             	add    $0xc,%esp
    1524:	89 c3                	mov    %eax,%ebx
    1526:	56                   	push   %esi
    1527:	68 88 ae 00 00       	push   $0xae88
    152c:	6a 04                	push   $0x4
    152e:	e8 1d 18 00 00       	call   2d50 <ddf_msg>
    1533:	8b 43 30             	mov    0x30(%ebx),%eax
    1536:	83 c4 10             	add    $0x10,%esp
    1539:	85 c0                	test   %eax,%eax
    153b:	74 54                	je     1591 <ddisk_dev_remove+0x81>
    153d:	68 9d ae 00 00       	push   $0xae9d
    1542:	53                   	push   %ebx
    1543:	68 9f ae 00 00       	push   $0xae9f
    1548:	6a 04                	push   $0x4
    154a:	e8 01 18 00 00       	call   2d50 <ddf_msg>
    154f:	8b 43 30             	mov    0x30(%ebx),%eax
    1552:	5e                   	pop    %esi
    1553:	50                   	push   %eax
    1554:	e8 a7 14 00 00       	call   2a00 <ddf_fun_offline>
    1559:	83 c4 10             	add    $0x10,%esp
    155c:	89 c6                	mov    %eax,%esi
    155e:	85 c0                	test   %eax,%eax
    1560:	75 6e                	jne    15d0 <ddisk_dev_remove+0xc0>
    1562:	83 ec 0c             	sub    $0xc,%esp
    1565:	8b 4b 30             	mov    0x30(%ebx),%ecx
    1568:	51                   	push   %ecx
    1569:	e8 c2 13 00 00       	call   2930 <ddf_fun_unbind>
    156e:	83 c4 10             	add    $0x10,%esp
    1571:	89 c6                	mov    %eax,%esi
    1573:	85 c0                	test   %eax,%eax
    1575:	0f 85 ad 00 00 00    	jne    1628 <ddisk_dev_remove+0x118>
    157b:	83 ec 0c             	sub    $0xc,%esp
    157e:	8b 43 30             	mov    0x30(%ebx),%eax
    1581:	50                   	push   %eax
    1582:	e8 49 11 00 00       	call   26d0 <ddf_fun_destroy>
    1587:	c7 43 30 00 00 00 00 	movl   $0x0,0x30(%ebx)
    158e:	83 c4 10             	add    $0x10,%esp
    1591:	50                   	push   %eax
    1592:	50                   	push   %eax
    1593:	8b 53 34             	mov    0x34(%ebx),%edx
    1596:	8b 4b 2c             	mov    0x2c(%ebx),%ecx
    1599:	52                   	push   %edx
    159a:	51                   	push   %ecx
    159b:	e8 80 17 00 00       	call   2d20 <unregister_interrupt_handler>
    15a0:	5e                   	pop    %esi
    15a1:	58                   	pop    %eax
    15a2:	8b 43 3c             	mov    0x3c(%ebx),%eax
    15a5:	6a 10                	push   $0x10
    15a7:	50                   	push   %eax
    15a8:	e8 03 b9 00 00       	call   ceb0 <pio_disable@plt>
    15ad:	83 c4 10             	add    $0x10,%esp
    15b0:	89 c6                	mov    %eax,%esi
    15b2:	85 c0                	test   %eax,%eax
    15b4:	75 52                	jne    1608 <ddisk_dev_remove+0xf8>
    15b6:	83 ec 0c             	sub    $0xc,%esp
    15b9:	8b 43 28             	mov    0x28(%ebx),%eax
    15bc:	50                   	push   %eax
    15bd:	e8 6e b9 00 00       	call   cf30 <dmamem_unmap_anonymous@plt>
    15c2:	83 c4 10             	add    $0x10,%esp
    15c5:	8d 65 f8             	lea    -0x8(%ebp),%esp
    15c8:	89 f0                	mov    %esi,%eax
    15ca:	5b                   	pop    %ebx
    15cb:	5e                   	pop    %esi
    15cc:	5d                   	pop    %ebp
    15cd:	c3                   	ret    
    15ce:	66 90                	xchg   %ax,%ax
    15d0:	53                   	push   %ebx
    15d1:	68 9d ae 00 00       	push   $0xae9d
    15d6:	68 ac ac 00 00       	push   $0xacac
    15db:	6a 01                	push   $0x1
    15dd:	e8 6e 17 00 00       	call   2d50 <ddf_msg>
    15e2:	83 c4 10             	add    $0x10,%esp
    15e5:	50                   	push   %eax
    15e6:	68 9d ae 00 00       	push   $0xae9d
    15eb:	68 ec ac 00 00       	push   $0xacec
    15f0:	6a 01                	push   $0x1
    15f2:	e8 59 17 00 00       	call   2d50 <ddf_msg>
    15f7:	83 c4 10             	add    $0x10,%esp
    15fa:	8d 65 f8             	lea    -0x8(%ebp),%esp
    15fd:	89 f0                	mov    %esi,%eax
    15ff:	5b                   	pop    %ebx
    1600:	5e                   	pop    %esi
    1601:	5d                   	pop    %ebp
    1602:	c3                   	ret    
    1603:	90                   	nop
    1604:	8d 74 26 00          	lea    0x0(%esi,%eiz,1),%esi
    1608:	50                   	push   %eax
    1609:	50                   	push   %eax
    160a:	68 ba ae 00 00       	push   $0xaeba
    160f:	6a 01                	push   $0x1
    1611:	e8 3a 17 00 00       	call   2d50 <ddf_msg>
    1616:	83 c4 10             	add    $0x10,%esp
    1619:	8d 65 f8             	lea    -0x8(%ebp),%esp
    161c:	89 f0                	mov    %esi,%eax
    161e:	5b                   	pop    %ebx
    161f:	5e                   	pop    %esi
    1620:	5d                   	pop    %ebp
    1621:	c3                   	ret    
    1622:	8d b6 00 00 00 00    	lea    0x0(%esi),%esi
    1628:	52                   	push   %edx
    1629:	68 9d ae 00 00       	push   $0xae9d
    162e:	68 cc ac 00 00       	push   $0xaccc
    1633:	6a 01                	push   $0x1
    1635:	e8 16 17 00 00       	call   2d50 <ddf_msg>
    163a:	83 c4 10             	add    $0x10,%esp
    163d:	eb a6                	jmp    15e5 <ddisk_dev_remove+0xd5>
    163f:	90                   	nop

00001640 <ddisk_dev_add>:
    1640:	55                   	push   %ebp
    1641:	89 e5                	mov    %esp,%ebp
    1643:	57                   	push   %edi
    1644:	56                   	push   %esi
    1645:	53                   	push   %ebx
    1646:	83 ec 48             	sub    $0x48,%esp
    1649:	8b 45 08             	mov    0x8(%ebp),%eax
    164c:	50                   	push   %eax
    164d:	e8 2e 0e 00 00       	call   2480 <ddf_dev_parent_sess_create>
    1652:	83 c4 10             	add    $0x10,%esp
    1655:	85 c0                	test   %eax,%eax
    1657:	74 63                	je     16bc <ddisk_dev_add+0x7c>
    1659:	8d 5d c8             	lea    -0x38(%ebp),%ebx
    165c:	89 c7                	mov    %eax,%edi
    165e:	50                   	push   %eax
    165f:	6a 20                	push   $0x20
    1661:	6a 00                	push   $0x0
    1663:	53                   	push   %ebx
    1664:	e8 17 ba 00 00       	call   d080 <memset@plt>
    1669:	83 c4 0c             	add    $0xc,%esp
    166c:	6a 00                	push   $0x0
    166e:	53                   	push   %ebx
    166f:	57                   	push   %edi
    1670:	e8 5b bb 00 00       	call   d1d0 <hw_res_get_list_parsed@plt>
    1675:	83 c4 10             	add    $0x10,%esp
    1678:	85 c0                	test   %eax,%eax
    167a:	75 40                	jne    16bc <ddisk_dev_add+0x7c>
    167c:	83 7d d8 01          	cmpl   $0x1,-0x28(%ebp)
    1680:	74 5e                	je     16e0 <ddisk_dev_add+0xa0>
    1682:	8b 45 cc             	mov    -0x34(%ebp),%eax
    1685:	83 ec 0c             	sub    $0xc,%esp
    1688:	50                   	push   %eax
    1689:	e8 a2 bb 00 00       	call   d230 <free@plt>
    168e:	8b 7d e4             	mov    -0x1c(%ebp),%edi
    1691:	5e                   	pop    %esi
    1692:	57                   	push   %edi
    1693:	e8 98 bb 00 00       	call   d230 <free@plt>
    1698:	58                   	pop    %eax
    1699:	8b 45 dc             	mov    -0x24(%ebp),%eax
    169c:	50                   	push   %eax
    169d:	e8 8e bb 00 00       	call   d230 <free@plt>
    16a2:	58                   	pop    %eax
    16a3:	8b 45 d4             	mov    -0x2c(%ebp),%eax
    16a6:	50                   	push   %eax
    16a7:	e8 84 bb 00 00       	call   d230 <free@plt>
    16ac:	83 c4 0c             	add    $0xc,%esp
    16af:	6a 20                	push   $0x20
    16b1:	6a 00                	push   $0x0
    16b3:	53                   	push   %ebx
    16b4:	e8 c7 b9 00 00       	call   d080 <memset@plt>
    16b9:	83 c4 10             	add    $0x10,%esp
    16bc:	50                   	push   %eax
    16bd:	50                   	push   %eax
    16be:	68 10 ad 00 00       	push   $0xad10
    16c3:	6a 01                	push   $0x1
    16c5:	bb f2 ff ff ff       	mov    $0xfffffff2,%ebx
    16ca:	e8 81 16 00 00       	call   2d50 <ddf_msg>
    16cf:	83 c4 10             	add    $0x10,%esp
    16d2:	8d 65 f4             	lea    -0xc(%ebp),%esp
    16d5:	89 d8                	mov    %ebx,%eax
    16d7:	5b                   	pop    %ebx
    16d8:	5e                   	pop    %esi
    16d9:	5f                   	pop    %edi
    16da:	5d                   	pop    %ebp
    16db:	c3                   	ret    
    16dc:	8d 74 26 00          	lea    0x0(%esi,%eiz,1),%esi
    16e0:	83 7d c8 01          	cmpl   $0x1,-0x38(%ebp)
    16e4:	75 9c                	jne    1682 <ddisk_dev_add+0x42>
    16e6:	8b 45 cc             	mov    -0x34(%ebp),%eax
    16e9:	8b 55 dc             	mov    -0x24(%ebp),%edx
    16ec:	8b 08                	mov    (%eax),%ecx
    16ee:	8b 3a                	mov    (%edx),%edi
    16f0:	89 4d c4             	mov    %ecx,-0x3c(%ebp)
    16f3:	83 7a 10 0f          	cmpl   $0xf,0x10(%edx)
    16f7:	76 8c                	jbe    1685 <ddisk_dev_add+0x45>
    16f9:	83 ec 0c             	sub    $0xc,%esp
    16fc:	50                   	push   %eax
    16fd:	e8 2e bb 00 00       	call   d230 <free@plt>
    1702:	8b 55 e4             	mov    -0x1c(%ebp),%edx
    1705:	58                   	pop    %eax
    1706:	52                   	push   %edx
    1707:	e8 24 bb 00 00       	call   d230 <free@plt>
    170c:	8b 75 dc             	mov    -0x24(%ebp),%esi
    170f:	59                   	pop    %ecx
    1710:	56                   	push   %esi
    1711:	e8 1a bb 00 00       	call   d230 <free@plt>
    1716:	58                   	pop    %eax
    1717:	8b 45 d4             	mov    -0x2c(%ebp),%eax
    171a:	50                   	push   %eax
    171b:	e8 10 bb 00 00       	call   d230 <free@plt>
    1720:	83 c4 0c             	add    $0xc,%esp
    1723:	6a 20                	push   $0x20
    1725:	6a 00                	push   $0x0
    1727:	53                   	push   %ebx
    1728:	e8 53 b9 00 00       	call   d080 <memset@plt>
    172d:	8b 4d 08             	mov    0x8(%ebp),%ecx
    1730:	58                   	pop    %eax
    1731:	5a                   	pop    %edx
    1732:	6a 48                	push   $0x48
    1734:	51                   	push   %ecx
    1735:	e8 d6 0c 00 00       	call   2410 <ddf_dev_data_alloc>
    173a:	83 c4 10             	add    $0x10,%esp
    173d:	89 c6                	mov    %eax,%esi
    173f:	85 c0                	test   %eax,%eax
    1741:	0f 84 a9 01 00 00    	je     18f0 <ddisk_dev_add+0x2b0>
    1747:	83 ec 0c             	sub    $0xc,%esp
    174a:	56                   	push   %esi
    174b:	e8 90 b8 00 00       	call   cfe0 <fibril_mutex_initialize@plt>
    1750:	8b 45 08             	mov    0x8(%ebp),%eax
    1753:	89 7e 38             	mov    %edi,0x38(%esi)
    1756:	89 46 2c             	mov    %eax,0x2c(%esi)
    1759:	8b 45 c4             	mov    -0x3c(%ebp),%eax
    175c:	89 46 34             	mov    %eax,0x34(%esi)
    175f:	8d 46 10             	lea    0x10(%esi),%eax
    1762:	89 04 24             	mov    %eax,(%esp)
    1765:	e8 e6 b7 00 00       	call   cf50 <fibril_condvar_initialize@plt>
    176a:	8d 46 40             	lea    0x40(%esi),%eax
    176d:	c6 46 18 00          	movb   $0x0,0x18(%esi)
    1771:	89 04 24             	mov    %eax,(%esp)
    1774:	e8 17 b8 00 00       	call   cf90 <bd_srvs_init@plt>
    1779:	83 c4 0c             	add    $0xc,%esp
    177c:	c7 46 40 20 f3 00 00 	movl   $0xf320,0x40(%esi)
    1783:	89 76 44             	mov    %esi,0x44(%esi)
    1786:	53                   	push   %ebx
    1787:	6a 10                	push   $0x10
    1789:	57                   	push   %edi
    178a:	e8 21 b5 00 00       	call   ccb0 <pio_enable@plt>
    178f:	83 c4 10             	add    $0x10,%esp
    1792:	89 c3                	mov    %eax,%ebx
    1794:	85 c0                	test   %eax,%eax
    1796:	74 48                	je     17e0 <ddisk_dev_add+0x1a0>
    1798:	57                   	push   %edi
    1799:	57                   	push   %edi
    179a:	68 34 ad 00 00       	push   $0xad34
    179f:	6a 01                	push   $0x1
    17a1:	e8 aa 15 00 00       	call   2d50 <ddf_msg>
    17a6:	83 c4 10             	add    $0x10,%esp
    17a9:	8b 46 3c             	mov    0x3c(%esi),%eax
    17ac:	85 c0                	test   %eax,%eax
    17ae:	74 0d                	je     17bd <ddisk_dev_add+0x17d>
    17b0:	52                   	push   %edx
    17b1:	52                   	push   %edx
    17b2:	6a 10                	push   $0x10
    17b4:	50                   	push   %eax
    17b5:	e8 f6 b6 00 00       	call   ceb0 <pio_disable@plt>
    17ba:	83 c4 10             	add    $0x10,%esp
    17bd:	8b 46 28             	mov    0x28(%esi),%eax
    17c0:	85 c0                	test   %eax,%eax
    17c2:	0f 84 0a ff ff ff    	je     16d2 <ddisk_dev_add+0x92>
    17c8:	83 ec 0c             	sub    $0xc,%esp
    17cb:	50                   	push   %eax
    17cc:	e8 5f b7 00 00       	call   cf30 <dmamem_unmap_anonymous@plt>
    17d1:	83 c4 10             	add    $0x10,%esp
    17d4:	8d 65 f4             	lea    -0xc(%ebp),%esp
    17d7:	89 d8                	mov    %ebx,%eax
    17d9:	5b                   	pop    %ebx
    17da:	5e                   	pop    %esi
    17db:	5f                   	pop    %edi
    17dc:	5d                   	pop    %ebp
    17dd:	c3                   	ret    
    17de:	66 90                	xchg   %ax,%ax
    17e0:	83 ec 0c             	sub    $0xc,%esp
    17e3:	8b 45 c8             	mov    -0x38(%ebp),%eax
    17e6:	89 46 3c             	mov    %eax,0x3c(%esi)
    17e9:	83 c0 0c             	add    $0xc,%eax
    17ec:	50                   	push   %eax
    17ed:	e8 fe b5 00 00       	call   cdf0 <pio_read_32@plt>
    17f2:	89 c1                	mov    %eax,%ecx
    17f4:	83 c4 10             	add    $0x10,%esp
    17f7:	c1 f9 1f             	sar    $0x1f,%ecx
    17fa:	89 46 1c             	mov    %eax,0x1c(%esi)
    17fd:	81 e1 ff 01 00 00    	and    $0x1ff,%ecx
    1803:	01 c1                	add    %eax,%ecx
    1805:	c1 f9 09             	sar    $0x9,%ecx
    1808:	85 c0                	test   %eax,%eax
    180a:	89 4e 20             	mov    %ecx,0x20(%esi)
    180d:	0f 8e fd 00 00 00    	jle    1910 <ddisk_dev_add+0x2d0>
    1813:	8d 46 28             	lea    0x28(%esi),%eax
    1816:	c7 46 28 ff ff ff ff 	movl   $0xffffffff,0x28(%esi)
    181d:	52                   	push   %edx
    181e:	52                   	push   %edx
    181f:	50                   	push   %eax
    1820:	8d 46 24             	lea    0x24(%esi),%eax
    1823:	50                   	push   %eax
    1824:	6a 00                	push   $0x0
    1826:	6a 03                	push   $0x3
    1828:	6a 00                	push   $0x0
    182a:	68 00 02 00 00       	push   $0x200
    182f:	e8 7c b8 00 00       	call   d0b0 <dmamem_map_anonymous@plt>
    1834:	83 c4 20             	add    $0x20,%esp
    1837:	89 c3                	mov    %eax,%ebx
    1839:	85 c0                	test   %eax,%eax
    183b:	74 1b                	je     1858 <ddisk_dev_add+0x218>
    183d:	50                   	push   %eax
    183e:	50                   	push   %eax
    183f:	68 01 af 00 00       	push   $0xaf01
    1844:	6a 01                	push   $0x1
    1846:	e8 05 15 00 00       	call   2d50 <ddf_msg>
    184b:	83 c4 10             	add    $0x10,%esp
    184e:	e9 56 ff ff ff       	jmp    17a9 <ddisk_dev_add+0x169>
    1853:	90                   	nop
    1854:	8d 74 26 00          	lea    0x0(%esi,%eiz,1),%esi
    1858:	8b 46 24             	mov    0x24(%esi),%eax
    185b:	50                   	push   %eax
    185c:	8b 46 28             	mov    0x28(%esi),%eax
    185f:	50                   	push   %eax
    1860:	68 58 ad 00 00       	push   $0xad58
    1865:	6a 03                	push   $0x3
    1867:	e8 e4 14 00 00       	call   2d50 <ddf_msg>
    186c:	83 c4 0c             	add    $0xc,%esp
    186f:	8b 46 2c             	mov    0x2c(%esi),%eax
    1872:	68 9d ae 00 00       	push   $0xae9d
    1877:	6a 02                	push   $0x2
    1879:	50                   	push   %eax
    187a:	e8 c1 0c 00 00       	call   2540 <ddf_fun_create>
    187f:	83 c4 10             	add    $0x10,%esp
    1882:	89 c3                	mov    %eax,%ebx
    1884:	85 c0                	test   %eax,%eax
    1886:	0f 84 2c 01 00 00    	je     19b8 <ddisk_dev_add+0x378>
    188c:	50                   	push   %eax
    188d:	50                   	push   %eax
    188e:	68 d0 14 00 00       	push   $0x14d0
    1893:	53                   	push   %ebx
    1894:	e8 87 12 00 00       	call   2b20 <ddf_fun_set_conn_handler>
    1899:	89 1c 24             	mov    %ebx,(%esp)
    189c:	e8 5f 0f 00 00       	call   2800 <ddf_fun_bind>
    18a1:	83 c4 10             	add    $0x10,%esp
    18a4:	85 c0                	test   %eax,%eax
    18a6:	0f 84 84 00 00 00    	je     1930 <ddisk_dev_add+0x2f0>
    18ac:	83 ec 0c             	sub    $0xc,%esp
    18af:	50                   	push   %eax
    18b0:	e8 8b b8 00 00       	call   d140 <str_error@plt>
    18b5:	50                   	push   %eax
    18b6:	68 9d ae 00 00       	push   $0xae9d
    18bb:	68 8c ad 00 00       	push   $0xad8c
    18c0:	6a 01                	push   $0x1
    18c2:	e8 89 14 00 00       	call   2d50 <ddf_msg>
    18c7:	83 c4 14             	add    $0x14,%esp
    18ca:	53                   	push   %ebx
    18cb:	e8 00 0e 00 00       	call   26d0 <ddf_fun_destroy>
    18d0:	83 c4 10             	add    $0x10,%esp
    18d3:	50                   	push   %eax
    18d4:	50                   	push   %eax
    18d5:	68 b0 ad 00 00       	push   $0xadb0
    18da:	6a 01                	push   $0x1
    18dc:	bb f6 fe ff ff       	mov    $0xfffffef6,%ebx
    18e1:	e8 6a 14 00 00       	call   2d50 <ddf_msg>
    18e6:	83 c4 10             	add    $0x10,%esp
    18e9:	e9 bb fe ff ff       	jmp    17a9 <ddisk_dev_add+0x169>
    18ee:	66 90                	xchg   %ax,%ax
    18f0:	50                   	push   %eax
    18f1:	50                   	push   %eax
    18f2:	68 d1 ae 00 00       	push   $0xaed1
    18f7:	6a 01                	push   $0x1
    18f9:	bb fe ff ff ff       	mov    $0xfffffffe,%ebx
    18fe:	e8 4d 14 00 00       	call   2d50 <ddf_msg>
    1903:	83 c4 10             	add    $0x10,%esp
    1906:	e9 9e fe ff ff       	jmp    17a9 <ddisk_dev_add+0x169>
    190b:	90                   	nop
    190c:	8d 74 26 00          	lea    0x0(%esi,%eiz,1),%esi
    1910:	51                   	push   %ecx
    1911:	51                   	push   %ecx
    1912:	68 ef ae 00 00       	push   $0xaeef
    1917:	6a 02                	push   $0x2
    1919:	bb f6 fe ff ff       	mov    $0xfffffef6,%ebx
    191e:	e8 2d 14 00 00       	call   2d50 <ddf_msg>
    1923:	83 c4 10             	add    $0x10,%esp
    1926:	e9 7e fe ff ff       	jmp    17a9 <ddisk_dev_add+0x169>
    192b:	90                   	nop
    192c:	8d 74 26 00          	lea    0x0(%esi,%eiz,1),%esi
    1930:	50                   	push   %eax
    1931:	50                   	push   %eax
    1932:	68 6a af 00 00       	push   $0xaf6a
    1937:	53                   	push   %ebx
    1938:	e8 13 12 00 00       	call   2b50 <ddf_fun_add_to_category>
    193d:	89 5e 30             	mov    %ebx,0x30(%esi)
    1940:	8b 56 34             	mov    0x34(%esi),%edx
    1943:	89 3d 04 f3 00 00    	mov    %edi,0xf304
    1949:	8b 4d 08             	mov    0x8(%ebp),%ecx
    194c:	83 c7 08             	add    $0x8,%edi
    194f:	68 80 f2 00 00       	push   $0xf280
    1954:	89 3d a4 f2 00 00    	mov    %edi,0xf2a4
    195a:	68 80 14 00 00       	push   $0x1480
    195f:	89 3d e0 f2 00 00    	mov    %edi,0xf2e0
    1965:	52                   	push   %edx
    1966:	51                   	push   %ecx
    1967:	e8 94 13 00 00       	call   2d00 <register_interrupt_handler>
    196c:	83 c4 20             	add    $0x20,%esp
    196f:	89 c3                	mov    %eax,%ebx
    1971:	85 c0                	test   %eax,%eax
    1973:	74 1b                	je     1990 <ddisk_dev_add+0x350>
    1975:	50                   	push   %eax
    1976:	50                   	push   %eax
    1977:	68 d8 ad 00 00       	push   $0xadd8
    197c:	6a 01                	push   $0x1
    197e:	e8 cd 13 00 00       	call   2d50 <ddf_msg>
    1983:	83 c4 10             	add    $0x10,%esp
    1986:	e9 1e fe ff ff       	jmp    17a9 <ddisk_dev_add+0x169>
    198b:	90                   	nop
    198c:	8d 74 26 00          	lea    0x0(%esi,%eiz,1),%esi
    1990:	51                   	push   %ecx
    1991:	51                   	push   %ecx
    1992:	8b 7e 34             	mov    0x34(%esi),%edi
    1995:	57                   	push   %edi
    1996:	8b 46 1c             	mov    0x1c(%esi),%eax
    1999:	50                   	push   %eax
    199a:	8b 46 20             	mov    0x20(%esi),%eax
    199d:	50                   	push   %eax
    199e:	8b 46 38             	mov    0x38(%esi),%eax
    19a1:	50                   	push   %eax
    19a2:	68 00 ae 00 00       	push   $0xae00
    19a7:	6a 03                	push   $0x3
    19a9:	e8 a2 13 00 00       	call   2d50 <ddf_msg>
    19ae:	83 c4 20             	add    $0x20,%esp
    19b1:	e9 1c fd ff ff       	jmp    16d2 <ddisk_dev_add+0x92>
    19b6:	66 90                	xchg   %ax,%ax
    19b8:	50                   	push   %eax
    19b9:	50                   	push   %eax
    19ba:	68 1d af 00 00       	push   $0xaf1d
    19bf:	6a 01                	push   $0x1
    19c1:	e8 8a 13 00 00       	call   2d50 <ddf_msg>
    19c6:	83 c4 10             	add    $0x10,%esp
    19c9:	e9 05 ff ff ff       	jmp    18d3 <ddisk_dev_add+0x293>
    19ce:	66 90                	xchg   %ax,%ax

000019d0 <ddisk_dev_gone>:
    19d0:	55                   	push   %ebp
    19d1:	89 e5                	mov    %esp,%ebp
    19d3:	56                   	push   %esi
    19d4:	53                   	push   %ebx
    19d5:	83 ec 0c             	sub    $0xc,%esp
    19d8:	8b 75 08             	mov    0x8(%ebp),%esi
    19db:	56                   	push   %esi
    19dc:	e8 6f 0a 00 00       	call   2450 <ddf_dev_data_get>
    19e1:	83 c4 0c             	add    $0xc,%esp
    19e4:	89 c3                	mov    %eax,%ebx
    19e6:	56                   	push   %esi
    19e7:	68 3b af 00 00       	push   $0xaf3b
    19ec:	6a 04                	push   $0x4
    19ee:	e8 5d 13 00 00       	call   2d50 <ddf_msg>
    19f3:	8b 73 30             	mov    0x30(%ebx),%esi
    19f6:	83 c4 10             	add    $0x10,%esp
    19f9:	85 f6                	test   %esi,%esi
    19fb:	74 3b                	je     1a38 <ddisk_dev_gone+0x68>
    19fd:	68 9d ae 00 00       	push   $0xae9d
    1a02:	53                   	push   %ebx
    1a03:	68 4e af 00 00       	push   $0xaf4e
    1a08:	6a 04                	push   $0x4
    1a0a:	e8 41 13 00 00       	call   2d50 <ddf_msg>
    1a0f:	8b 4b 30             	mov    0x30(%ebx),%ecx
    1a12:	5a                   	pop    %edx
    1a13:	51                   	push   %ecx
    1a14:	e8 17 0f 00 00       	call   2930 <ddf_fun_unbind>
    1a19:	83 c4 10             	add    $0x10,%esp
    1a1c:	89 c6                	mov    %eax,%esi
    1a1e:	85 c0                	test   %eax,%eax
    1a20:	75 56                	jne    1a78 <ddisk_dev_gone+0xa8>
    1a22:	83 ec 0c             	sub    $0xc,%esp
    1a25:	8b 43 30             	mov    0x30(%ebx),%eax
    1a28:	50                   	push   %eax
    1a29:	e8 a2 0c 00 00       	call   26d0 <ddf_fun_destroy>
    1a2e:	c7 43 30 00 00 00 00 	movl   $0x0,0x30(%ebx)
    1a35:	83 c4 10             	add    $0x10,%esp
    1a38:	50                   	push   %eax
    1a39:	50                   	push   %eax
    1a3a:	8b 53 34             	mov    0x34(%ebx),%edx
    1a3d:	8b 4b 2c             	mov    0x2c(%ebx),%ecx
    1a40:	52                   	push   %edx
    1a41:	51                   	push   %ecx
    1a42:	e8 d9 12 00 00       	call   2d20 <unregister_interrupt_handler>
    1a47:	5e                   	pop    %esi
    1a48:	58                   	pop    %eax
    1a49:	8b 43 3c             	mov    0x3c(%ebx),%eax
    1a4c:	6a 10                	push   $0x10
    1a4e:	50                   	push   %eax
    1a4f:	e8 5c b4 00 00       	call   ceb0 <pio_disable@plt>
    1a54:	83 c4 10             	add    $0x10,%esp
    1a57:	89 c6                	mov    %eax,%esi
    1a59:	85 c0                	test   %eax,%eax
    1a5b:	75 53                	jne    1ab0 <ddisk_dev_gone+0xe0>
    1a5d:	83 ec 0c             	sub    $0xc,%esp
    1a60:	8b 43 28             	mov    0x28(%ebx),%eax
    1a63:	50                   	push   %eax
    1a64:	e8 c7 b4 00 00       	call   cf30 <dmamem_unmap_anonymous@plt>
    1a69:	83 c4 10             	add    $0x10,%esp
    1a6c:	8d 65 f8             	lea    -0x8(%ebp),%esp
    1a6f:	89 f0                	mov    %esi,%eax
    1a71:	5b                   	pop    %ebx
    1a72:	5e                   	pop    %esi
    1a73:	5d                   	pop    %ebp
    1a74:	c3                   	ret    
    1a75:	8d 76 00             	lea    0x0(%esi),%esi
    1a78:	50                   	push   %eax
    1a79:	68 9d ae 00 00       	push   $0xae9d
    1a7e:	68 cc ac 00 00       	push   $0xaccc
    1a83:	6a 01                	push   $0x1
    1a85:	e8 c6 12 00 00       	call   2d50 <ddf_msg>
    1a8a:	83 c4 0c             	add    $0xc,%esp
    1a8d:	68 9d ae 00 00       	push   $0xae9d
    1a92:	68 ec ac 00 00       	push   $0xacec
    1a97:	6a 01                	push   $0x1
    1a99:	e8 b2 12 00 00       	call   2d50 <ddf_msg>
    1a9e:	83 c4 10             	add    $0x10,%esp
    1aa1:	8d 65 f8             	lea    -0x8(%ebp),%esp
    1aa4:	89 f0                	mov    %esi,%eax
    1aa6:	5b                   	pop    %ebx
    1aa7:	5e                   	pop    %esi
    1aa8:	5d                   	pop    %ebp
    1aa9:	c3                   	ret    
    1aaa:	8d b6 00 00 00 00    	lea    0x0(%esi),%esi
    1ab0:	50                   	push   %eax
    1ab1:	50                   	push   %eax
    1ab2:	68 ba ae 00 00       	push   $0xaeba
    1ab7:	6a 01                	push   $0x1
    1ab9:	e8 92 12 00 00       	call   2d50 <ddf_msg>
    1abe:	83 c4 10             	add    $0x10,%esp
    1ac1:	8d 65 f8             	lea    -0x8(%ebp),%esp
    1ac4:	89 f0                	mov    %esi,%eax
    1ac6:	5b                   	pop    %ebx
    1ac7:	5e                   	pop    %esi
    1ac8:	5d                   	pop    %ebp
    1ac9:	c3                   	ret    
    1aca:	66 90                	xchg   %ax,%ax
    1acc:	66 90                	xchg   %ax,%ax
    1ace:	66 90                	xchg   %ax,%ax

00001ad0 <main>:
    1ad0:	8d 4c 24 04          	lea    0x4(%esp),%ecx
    1ad4:	83 e4 f0             	and    $0xfffffff0,%esp
    1ad7:	ff 71 fc             	pushl  -0x4(%ecx)
    1ada:	55                   	push   %ebp
    1adb:	89 e5                	mov    %esp,%ebp
    1add:	51                   	push   %ecx
    1ade:	83 ec 10             	sub    $0x10,%esp
    1ae1:	68 38 ae 00 00       	push   $0xae38
    1ae6:	e8 35 b2 00 00       	call   cd20 <printf@plt>
    1aeb:	c7 04 24 69 af 00 00 	movl   $0xaf69,(%esp)
    1af2:	e8 49 12 00 00       	call   2d40 <ddf_log_init>
    1af7:	c7 04 24 40 f3 00 00 	movl   $0xf340,(%esp)
    1afe:	e8 9d 10 00 00       	call   2ba0 <ddf_driver_main>
    1b03:	8b 4d fc             	mov    -0x4(%ebp),%ecx
    1b06:	c9                   	leave  
    1b07:	8d 61 fc             	lea    -0x4(%ecx),%esp
    1b0a:	c3                   	ret    
    1b0b:	66 90                	xchg   %ax,%ax
    1b0d:	66 90                	xchg   %ax,%ax
    1b0f:	90                   	nop

00001b10 <fun_del_ref>:
    1b10:	55                   	push   %ebp
    1b11:	83 ca ff             	or     $0xffffffff,%edx
    1b14:	89 e5                	mov    %esp,%ebp
    1b16:	57                   	push   %edi
    1b17:	56                   	push   %esi
    1b18:	53                   	push   %ebx
    1b19:	83 ec 1c             	sub    $0x1c,%esp
    1b1c:	8b 70 0c             	mov    0xc(%eax),%esi
    1b1f:	f0 0f c1 50 08       	lock xadd %edx,0x8(%eax)
    1b24:	4a                   	dec    %edx
    1b25:	74 69                	je     1b90 <fun_del_ref+0x80>
    1b27:	83 c8 ff             	or     $0xffffffff,%eax
    1b2a:	f0 0f c1 46 04       	lock xadd %eax,0x4(%esi)
    1b2f:	48                   	dec    %eax
    1b30:	74 0e                	je     1b40 <fun_del_ref+0x30>
    1b32:	8d 65 f4             	lea    -0xc(%ebp),%esp
    1b35:	5b                   	pop    %ebx
    1b36:	5e                   	pop    %esi
    1b37:	5f                   	pop    %edi
    1b38:	5d                   	pop    %ebp
    1b39:	c3                   	ret    
    1b3a:	8d b6 00 00 00 00    	lea    0x0(%esi),%esi
    1b40:	8b 46 08             	mov    0x8(%esi),%eax
    1b43:	85 c0                	test   %eax,%eax
    1b45:	74 0c                	je     1b53 <fun_del_ref+0x43>
    1b47:	83 ec 0c             	sub    $0xc,%esp
    1b4a:	50                   	push   %eax
    1b4b:	e8 e0 b1 00 00       	call   cd30 <async_hangup@plt>
    1b50:	83 c4 10             	add    $0x10,%esp
    1b53:	8b 46 10             	mov    0x10(%esi),%eax
    1b56:	85 c0                	test   %eax,%eax
    1b58:	74 0c                	je     1b66 <fun_del_ref+0x56>
    1b5a:	83 ec 0c             	sub    $0xc,%esp
    1b5d:	50                   	push   %eax
    1b5e:	e8 cd b6 00 00       	call   d230 <free@plt>
    1b63:	83 c4 10             	add    $0x10,%esp
    1b66:	8b 46 0c             	mov    0xc(%esi),%eax
    1b69:	85 c0                	test   %eax,%eax
    1b6b:	74 0c                	je     1b79 <fun_del_ref+0x69>
    1b6d:	83 ec 0c             	sub    $0xc,%esp
    1b70:	50                   	push   %eax
    1b71:	e8 ba b6 00 00       	call   d230 <free@plt>
    1b76:	83 c4 10             	add    $0x10,%esp
    1b79:	83 ec 0c             	sub    $0xc,%esp
    1b7c:	56                   	push   %esi
    1b7d:	e8 ae b6 00 00       	call   d230 <free@plt>
    1b82:	83 c4 10             	add    $0x10,%esp
    1b85:	8d 65 f4             	lea    -0xc(%ebp),%esp
    1b88:	5b                   	pop    %ebx
    1b89:	5e                   	pop    %esi
    1b8a:	5f                   	pop    %edi
    1b8b:	5d                   	pop    %ebp
    1b8c:	c3                   	ret    
    1b8d:	8d 76 00             	lea    0x0(%esi),%esi
    1b90:	8b 58 1c             	mov    0x1c(%eax),%ebx
    1b93:	89 c7                	mov    %eax,%edi
    1b95:	8d 40 18             	lea    0x18(%eax),%eax
    1b98:	89 45 e4             	mov    %eax,-0x1c(%ebp)
    1b9b:	39 d8                	cmp    %ebx,%eax
    1b9d:	74 49                	je     1be8 <fun_del_ref+0xd8>
    1b9f:	90                   	nop
    1ba0:	8b 0b                	mov    (%ebx),%ecx
    1ba2:	85 c9                	test   %ecx,%ecx
    1ba4:	74 0e                	je     1bb4 <fun_del_ref+0xa4>
    1ba6:	8b 53 04             	mov    0x4(%ebx),%edx
    1ba9:	85 d2                	test   %edx,%edx
    1bab:	74 07                	je     1bb4 <fun_del_ref+0xa4>
    1bad:	89 0a                	mov    %ecx,(%edx)
    1baf:	8b 0b                	mov    (%ebx),%ecx
    1bb1:	89 51 04             	mov    %edx,0x4(%ecx)
    1bb4:	8b 53 08             	mov    0x8(%ebx),%edx
    1bb7:	c7 03 00 00 00 00    	movl   $0x0,(%ebx)
    1bbd:	c7 43 04 00 00 00 00 	movl   $0x0,0x4(%ebx)
    1bc4:	85 d2                	test   %edx,%edx
    1bc6:	74 0c                	je     1bd4 <fun_del_ref+0xc4>
    1bc8:	83 ec 0c             	sub    $0xc,%esp
    1bcb:	52                   	push   %edx
    1bcc:	e8 5f b6 00 00       	call   d230 <free@plt>
    1bd1:	83 c4 10             	add    $0x10,%esp
    1bd4:	83 ec 0c             	sub    $0xc,%esp
    1bd7:	53                   	push   %ebx
    1bd8:	e8 53 b6 00 00       	call   d230 <free@plt>
    1bdd:	8b 5f 1c             	mov    0x1c(%edi),%ebx
    1be0:	83 c4 10             	add    $0x10,%esp
    1be3:	3b 5d e4             	cmp    -0x1c(%ebp),%ebx
    1be6:	75 b8                	jne    1ba0 <fun_del_ref+0x90>
    1be8:	8b 57 20             	mov    0x20(%edi),%edx
    1beb:	85 d2                	test   %edx,%edx
    1bed:	74 0c                	je     1bfb <fun_del_ref+0xeb>
    1bef:	83 ec 0c             	sub    $0xc,%esp
    1bf2:	52                   	push   %edx
    1bf3:	e8 38 b6 00 00       	call   d230 <free@plt>
    1bf8:	83 c4 10             	add    $0x10,%esp
    1bfb:	8b 57 14             	mov    0x14(%edi),%edx
    1bfe:	85 d2                	test   %edx,%edx
    1c00:	74 0c                	je     1c0e <fun_del_ref+0xfe>
    1c02:	83 ec 0c             	sub    $0xc,%esp
    1c05:	52                   	push   %edx
    1c06:	e8 25 b6 00 00       	call   d230 <free@plt>
    1c0b:	83 c4 10             	add    $0x10,%esp
    1c0e:	83 ec 0c             	sub    $0xc,%esp
    1c11:	57                   	push   %edi
    1c12:	e8 19 b6 00 00       	call   d230 <free@plt>
    1c17:	83 c4 10             	add    $0x10,%esp
    1c1a:	e9 08 ff ff ff       	jmp    1b27 <fun_del_ref+0x17>
    1c1f:	90                   	nop

00001c20 <driver_connection_gen.constprop.7>:
    1c20:	55                   	push   %ebp
    1c21:	89 e5                	mov    %esp,%ebp
    1c23:	57                   	push   %edi
    1c24:	56                   	push   %esi
    1c25:	53                   	push   %ebx
    1c26:	83 ec 58             	sub    $0x58,%esp
    1c29:	89 d3                	mov    %edx,%ebx
    1c2b:	8b 72 08             	mov    0x8(%edx),%esi
    1c2e:	89 45 b4             	mov    %eax,-0x4c(%ebp)
    1c31:	68 5c f3 00 00       	push   $0xf35c
    1c36:	e8 15 b6 00 00       	call   d250 <fibril_mutex_lock@plt>
    1c3b:	c7 04 24 5c f3 00 00 	movl   $0xf35c,(%esp)
    1c42:	e8 49 b1 00 00       	call   cd90 <fibril_mutex_is_locked@plt>
    1c47:	83 c4 10             	add    $0x10,%esp
    1c4a:	84 c0                	test   %al,%al
    1c4c:	0f 84 71 02 00 00    	je     1ec3 <driver_connection_gen.constprop.7+0x2a3>
    1c52:	a1 70 f3 00 00       	mov    0xf370,%eax
    1c57:	3d 6c f3 00 00       	cmp    $0xf36c,%eax
    1c5c:	8d 78 d4             	lea    -0x2c(%eax),%edi
    1c5f:	75 18                	jne    1c79 <driver_connection_gen.constprop.7+0x59>
    1c61:	e9 22 02 00 00       	jmp    1e88 <driver_connection_gen.constprop.7+0x268>
    1c66:	66 90                	xchg   %ax,%ax
    1c68:	8b 40 04             	mov    0x4(%eax),%eax
    1c6b:	3d 6c f3 00 00       	cmp    $0xf36c,%eax
    1c70:	8d 78 d4             	lea    -0x2c(%eax),%edi
    1c73:	0f 84 0f 02 00 00    	je     1e88 <driver_connection_gen.constprop.7+0x268>
    1c79:	3b 77 04             	cmp    0x4(%edi),%esi
    1c7c:	75 ea                	jne    1c68 <driver_connection_gen.constprop.7+0x48>
    1c7e:	8b 47 0c             	mov    0xc(%edi),%eax
    1c81:	f0 ff 40 04          	lock incl 0x4(%eax)
    1c85:	f0 ff 47 08          	lock incl 0x8(%edi)
    1c89:	83 ec 0c             	sub    $0xc,%esp
    1c8c:	68 5c f3 00 00       	push   $0xf35c
    1c91:	e8 1a b3 00 00       	call   cfb0 <fibril_mutex_unlock@plt>
    1c96:	8b 47 28             	mov    0x28(%edi),%eax
    1c99:	83 c4 10             	add    $0x10,%esp
    1c9c:	85 c0                	test   %eax,%eax
    1c9e:	74 20                	je     1cc0 <driver_connection_gen.constprop.7+0xa0>
    1ca0:	8b 55 b4             	mov    -0x4c(%ebp),%edx
    1ca3:	56                   	push   %esi
    1ca4:	57                   	push   %edi
    1ca5:	53                   	push   %ebx
    1ca6:	52                   	push   %edx
    1ca7:	ff d0                	call   *%eax
    1ca9:	89 f8                	mov    %edi,%eax
    1cab:	e8 60 fe ff ff       	call   1b10 <fun_del_ref>
    1cb0:	83 c4 10             	add    $0x10,%esp
    1cb3:	8d 65 f4             	lea    -0xc(%ebp),%esp
    1cb6:	5b                   	pop    %ebx
    1cb7:	5e                   	pop    %esi
    1cb8:	5f                   	pop    %edi
    1cb9:	5d                   	pop    %ebp
    1cba:	c3                   	ret    
    1cbb:	90                   	nop
    1cbc:	8d 74 26 00          	lea    0x0(%esi,%eiz,1),%esi
    1cc0:	8b 47 24             	mov    0x24(%edi),%eax
    1cc3:	85 c0                	test   %eax,%eax
    1cc5:	0f 84 a5 01 00 00    	je     1e70 <driver_connection_gen.constprop.7+0x250>
    1ccb:	8b 00                	mov    (%eax),%eax
    1ccd:	85 c0                	test   %eax,%eax
    1ccf:	0f 84 9b 01 00 00    	je     1e70 <driver_connection_gen.constprop.7+0x250>
    1cd5:	83 ec 0c             	sub    $0xc,%esp
    1cd8:	57                   	push   %edi
    1cd9:	ff d0                	call   *%eax
    1cdb:	8b 4d b4             	mov    -0x4c(%ebp),%ecx
    1cde:	89 c3                	mov    %eax,%ebx
    1ce0:	58                   	pop    %eax
    1ce1:	5a                   	pop    %edx
    1ce2:	53                   	push   %ebx
    1ce3:	51                   	push   %ecx
    1ce4:	e8 77 b1 00 00       	call   ce60 <async_answer_0@plt>
    1ce9:	83 c4 10             	add    $0x10,%esp
    1cec:	85 db                	test   %ebx,%ebx
    1cee:	0f 85 70 01 00 00    	jne    1e64 <driver_connection_gen.constprop.7+0x244>
    1cf4:	8d 74 26 00          	lea    0x0(%esi,%eiz,1),%esi
    1cf8:	50                   	push   %eax
    1cf9:	50                   	push   %eax
    1cfa:	8d 45 c4             	lea    -0x3c(%ebp),%eax
    1cfd:	6a 00                	push   $0x0
    1cff:	50                   	push   %eax
    1d00:	e8 eb b3 00 00       	call   d0f0 <async_get_call_timeout@plt>
    1d05:	8b 5d c4             	mov    -0x3c(%ebp),%ebx
    1d08:	83 c4 10             	add    $0x10,%esp
    1d0b:	89 45 b4             	mov    %eax,-0x4c(%ebp)
    1d0e:	85 db                	test   %ebx,%ebx
    1d10:	0f 84 e2 00 00 00    	je     1df8 <driver_connection_gen.constprop.7+0x1d8>
    1d16:	83 ec 0c             	sub    $0xc,%esp
    1d19:	81 eb 00 04 00 00    	sub    $0x400,%ebx
    1d1f:	53                   	push   %ebx
    1d20:	e8 cb 0f 00 00       	call   2cf0 <is_valid_iface_idx>
    1d25:	83 c4 10             	add    $0x10,%esp
    1d28:	84 c0                	test   %al,%al
    1d2a:	75 2c                	jne    1d58 <driver_connection_gen.constprop.7+0x138>
    1d2c:	8b 47 24             	mov    0x24(%edi),%eax
    1d2f:	85 c0                	test   %eax,%eax
    1d31:	0f 84 91 00 00 00    	je     1dc8 <driver_connection_gen.constprop.7+0x1a8>
    1d37:	8b 40 44             	mov    0x44(%eax),%eax
    1d3a:	85 c0                	test   %eax,%eax
    1d3c:	0f 84 86 00 00 00    	je     1dc8 <driver_connection_gen.constprop.7+0x1a8>
    1d42:	8d 4d c4             	lea    -0x3c(%ebp),%ecx
    1d45:	52                   	push   %edx
    1d46:	51                   	push   %ecx
    1d47:	8b 4d b4             	mov    -0x4c(%ebp),%ecx
    1d4a:	51                   	push   %ecx
    1d4b:	57                   	push   %edi
    1d4c:	ff d0                	call   *%eax
    1d4e:	83 c4 10             	add    $0x10,%esp
    1d51:	eb a5                	jmp    1cf8 <driver_connection_gen.constprop.7+0xd8>
    1d53:	90                   	nop
    1d54:	8d 74 26 00          	lea    0x0(%esi,%eiz,1),%esi
    1d58:	83 ec 0c             	sub    $0xc,%esp
    1d5b:	53                   	push   %ebx
    1d5c:	e8 8f 0f 00 00       	call   2cf0 <is_valid_iface_idx>
    1d61:	83 c4 10             	add    $0x10,%esp
    1d64:	84 c0                	test   %al,%al
    1d66:	0f 84 69 01 00 00    	je     1ed5 <driver_connection_gen.constprop.7+0x2b5>
    1d6c:	8b 47 24             	mov    0x24(%edi),%eax
    1d6f:	85 c0                	test   %eax,%eax
    1d71:	0f 84 b9 00 00 00    	je     1e30 <driver_connection_gen.constprop.7+0x210>
    1d77:	8b 44 98 08          	mov    0x8(%eax,%ebx,4),%eax
    1d7b:	89 45 b0             	mov    %eax,-0x50(%ebp)
    1d7e:	85 c0                	test   %eax,%eax
    1d80:	0f 84 aa 00 00 00    	je     1e30 <driver_connection_gen.constprop.7+0x210>
    1d86:	83 ec 0c             	sub    $0xc,%esp
    1d89:	53                   	push   %ebx
    1d8a:	e8 11 0f 00 00       	call   2ca0 <get_remote_iface>
    1d8f:	83 c4 10             	add    $0x10,%esp
    1d92:	85 c0                	test   %eax,%eax
    1d94:	0f 84 50 01 00 00    	je     1eea <driver_connection_gen.constprop.7+0x2ca>
    1d9a:	8b 4d c8             	mov    -0x38(%ebp),%ecx
    1d9d:	52                   	push   %edx
    1d9e:	52                   	push   %edx
    1d9f:	51                   	push   %ecx
    1da0:	50                   	push   %eax
    1da1:	e8 2a 0f 00 00       	call   2cd0 <get_remote_method>
    1da6:	83 c4 10             	add    $0x10,%esp
    1da9:	85 c0                	test   %eax,%eax
    1dab:	0f 84 9f 00 00 00    	je     1e50 <driver_connection_gen.constprop.7+0x230>
    1db1:	8d 55 c4             	lea    -0x3c(%ebp),%edx
    1db4:	8b 4d b0             	mov    -0x50(%ebp),%ecx
    1db7:	52                   	push   %edx
    1db8:	8b 55 b4             	mov    -0x4c(%ebp),%edx
    1dbb:	52                   	push   %edx
    1dbc:	51                   	push   %ecx
    1dbd:	57                   	push   %edi
    1dbe:	ff d0                	call   *%eax
    1dc0:	83 c4 10             	add    $0x10,%esp
    1dc3:	e9 30 ff ff ff       	jmp    1cf8 <driver_connection_gen.constprop.7+0xd8>
    1dc8:	50                   	push   %eax
    1dc9:	a1 14 f5 00 00       	mov    0xf514,%eax
    1dce:	53                   	push   %ebx
    1dcf:	8b 00                	mov    (%eax),%eax
    1dd1:	50                   	push   %eax
    1dd2:	68 f4 b0 00 00       	push   $0xb0f4
    1dd7:	e8 44 af 00 00       	call   cd20 <printf@plt>
    1ddc:	5b                   	pop    %ebx
    1ddd:	58                   	pop    %eax
    1dde:	8b 45 b4             	mov    -0x4c(%ebp),%eax
    1de1:	6a f5                	push   $0xfffffff5
    1de3:	50                   	push   %eax
    1de4:	e8 77 b0 00 00       	call   ce60 <async_answer_0@plt>
    1de9:	83 c4 10             	add    $0x10,%esp
    1dec:	e9 07 ff ff ff       	jmp    1cf8 <driver_connection_gen.constprop.7+0xd8>
    1df1:	8d b4 26 00 00 00 00 	lea    0x0(%esi,%eiz,1),%esi
    1df8:	8b 47 24             	mov    0x24(%edi),%eax
    1dfb:	85 c0                	test   %eax,%eax
    1dfd:	74 10                	je     1e0f <driver_connection_gen.constprop.7+0x1ef>
    1dff:	8b 40 04             	mov    0x4(%eax),%eax
    1e02:	85 c0                	test   %eax,%eax
    1e04:	74 09                	je     1e0f <driver_connection_gen.constprop.7+0x1ef>
    1e06:	83 ec 0c             	sub    $0xc,%esp
    1e09:	57                   	push   %edi
    1e0a:	ff d0                	call   *%eax
    1e0c:	83 c4 10             	add    $0x10,%esp
    1e0f:	8b 75 b4             	mov    -0x4c(%ebp),%esi
    1e12:	53                   	push   %ebx
    1e13:	53                   	push   %ebx
    1e14:	6a 00                	push   $0x0
    1e16:	56                   	push   %esi
    1e17:	e8 44 b0 00 00       	call   ce60 <async_answer_0@plt>
    1e1c:	89 f8                	mov    %edi,%eax
    1e1e:	e8 ed fc ff ff       	call   1b10 <fun_del_ref>
    1e23:	83 c4 10             	add    $0x10,%esp
    1e26:	8d 65 f4             	lea    -0xc(%ebp),%esp
    1e29:	5b                   	pop    %ebx
    1e2a:	5e                   	pop    %esi
    1e2b:	5f                   	pop    %edi
    1e2c:	5d                   	pop    %ebp
    1e2d:	c3                   	ret    
    1e2e:	66 90                	xchg   %ax,%ax
    1e30:	50                   	push   %eax
    1e31:	50                   	push   %eax
    1e32:	a1 14 f5 00 00       	mov    0xf514,%eax
    1e37:	8b 00                	mov    (%eax),%eax
    1e39:	50                   	push   %eax
    1e3a:	68 30 b1 00 00       	push   $0xb130
    1e3f:	e8 dc ae 00 00       	call   cd20 <printf@plt>
    1e44:	83 c4 0c             	add    $0xc,%esp
    1e47:	53                   	push   %ebx
    1e48:	56                   	push   %esi
    1e49:	68 54 b1 00 00       	push   $0xb154
    1e4e:	eb 87                	jmp    1dd7 <driver_connection_gen.constprop.7+0x1b7>
    1e50:	50                   	push   %eax
    1e51:	50                   	push   %eax
    1e52:	a1 14 f5 00 00       	mov    0xf514,%eax
    1e57:	8b 00                	mov    (%eax),%eax
    1e59:	50                   	push   %eax
    1e5a:	68 8c b1 00 00       	push   $0xb18c
    1e5f:	e9 73 ff ff ff       	jmp    1dd7 <driver_connection_gen.constprop.7+0x1b7>
    1e64:	89 f8                	mov    %edi,%eax
    1e66:	e8 a5 fc ff ff       	call   1b10 <fun_del_ref>
    1e6b:	e9 43 fe ff ff       	jmp    1cb3 <driver_connection_gen.constprop.7+0x93>
    1e70:	8b 55 b4             	mov    -0x4c(%ebp),%edx
    1e73:	50                   	push   %eax
    1e74:	50                   	push   %eax
    1e75:	6a 00                	push   $0x0
    1e77:	52                   	push   %edx
    1e78:	e8 e3 af 00 00       	call   ce60 <async_answer_0@plt>
    1e7d:	83 c4 10             	add    $0x10,%esp
    1e80:	e9 73 fe ff ff       	jmp    1cf8 <driver_connection_gen.constprop.7+0xd8>
    1e85:	8d 76 00             	lea    0x0(%esi),%esi
    1e88:	83 ec 0c             	sub    $0xc,%esp
    1e8b:	68 5c f3 00 00       	push   $0xf35c
    1e90:	e8 1b b1 00 00       	call   cfb0 <fibril_mutex_unlock@plt>
    1e95:	a1 14 f5 00 00       	mov    0xf514,%eax
    1e9a:	83 c4 0c             	add    $0xc,%esp
    1e9d:	8b 08                	mov    (%eax),%ecx
    1e9f:	56                   	push   %esi
    1ea0:	51                   	push   %ecx
    1ea1:	68 c8 b1 00 00       	push   $0xb1c8
    1ea6:	e8 75 ae 00 00       	call   cd20 <printf@plt>
    1eab:	8b 7d b4             	mov    -0x4c(%ebp),%edi
    1eae:	5b                   	pop    %ebx
    1eaf:	5e                   	pop    %esi
    1eb0:	6a ff                	push   $0xffffffff
    1eb2:	57                   	push   %edi
    1eb3:	e8 a8 af 00 00       	call   ce60 <async_answer_0@plt>
    1eb8:	83 c4 10             	add    $0x10,%esp
    1ebb:	8d 65 f4             	lea    -0xc(%ebp),%esp
    1ebe:	5b                   	pop    %ebx
    1ebf:	5e                   	pop    %esi
    1ec0:	5f                   	pop    %edi
    1ec1:	5d                   	pop    %ebp
    1ec2:	c3                   	ret    
    1ec3:	51                   	push   %ecx
    1ec4:	6a 6b                	push   $0x6b
    1ec6:	68 6f af 00 00       	push   $0xaf6f
    1ecb:	68 c8 b0 00 00       	push   $0xb0c8
    1ed0:	e8 1b b0 00 00       	call   cef0 <assert_abort@plt>
    1ed5:	50                   	push   %eax
    1ed6:	68 fb 02 00 00       	push   $0x2fb
    1edb:	68 6f af 00 00       	push   $0xaf6f
    1ee0:	68 80 af 00 00       	push   $0xaf80
    1ee5:	e8 06 b0 00 00       	call   cef0 <assert_abort@plt>
    1eea:	53                   	push   %ebx
    1eeb:	68 aa 01 00 00       	push   $0x1aa
    1ef0:	68 6f af 00 00       	push   $0xaf6f
    1ef5:	68 98 af 00 00       	push   $0xaf98
    1efa:	e8 f1 af 00 00       	call   cef0 <assert_abort@plt>
    1eff:	90                   	nop

00001f00 <driver_connection_driver>:
    1f00:	55                   	push   %ebp
    1f01:	89 e5                	mov    %esp,%ebp
    1f03:	8b 55 0c             	mov    0xc(%ebp),%edx
    1f06:	8b 45 08             	mov    0x8(%ebp),%eax
    1f09:	5d                   	pop    %ebp
    1f0a:	e9 11 fd ff ff       	jmp    1c20 <driver_connection_gen.constprop.7>
    1f0f:	90                   	nop

00001f10 <driver_connection_client>:
    1f10:	55                   	push   %ebp
    1f11:	89 e5                	mov    %esp,%ebp
    1f13:	8b 55 0c             	mov    0xc(%ebp),%edx
    1f16:	8b 45 08             	mov    0x8(%ebp),%eax
    1f19:	5d                   	pop    %ebp
    1f1a:	e9 01 fd ff ff       	jmp    1c20 <driver_connection_gen.constprop.7>
    1f1f:	90                   	nop

00001f20 <driver_connection_devman>:
    1f20:	55                   	push   %ebp
    1f21:	89 e5                	mov    %esp,%ebp
    1f23:	57                   	push   %edi
    1f24:	56                   	push   %esi
    1f25:	53                   	push   %ebx
    1f26:	83 ec 54             	sub    $0x54,%esp
    1f29:	8d 75 c4             	lea    -0x3c(%ebp),%esi
    1f2c:	8b 45 08             	mov    0x8(%ebp),%eax
    1f2f:	6a 00                	push   $0x0
    1f31:	50                   	push   %eax
    1f32:	e8 29 af 00 00       	call   ce60 <async_answer_0@plt>
    1f37:	83 c4 10             	add    $0x10,%esp
    1f3a:	8d b6 00 00 00 00    	lea    0x0(%esi),%esi
    1f40:	50                   	push   %eax
    1f41:	50                   	push   %eax
    1f42:	6a 00                	push   $0x0
    1f44:	56                   	push   %esi
    1f45:	e8 a6 b1 00 00       	call   d0f0 <async_get_call_timeout@plt>
    1f4a:	83 c4 10             	add    $0x10,%esp
    1f4d:	89 c3                	mov    %eax,%ebx
    1f4f:	8b 45 c4             	mov    -0x3c(%ebp),%eax
    1f52:	85 c0                	test   %eax,%eax
    1f54:	0f 84 de 03 00 00    	je     2338 <driver_connection_devman+0x418>
    1f5a:	2d 00 04 00 00       	sub    $0x400,%eax
    1f5f:	83 f8 04             	cmp    $0x4,%eax
    1f62:	0f 87 b8 03 00 00    	ja     2320 <driver_connection_devman+0x400>
    1f68:	8b 7d c8             	mov    -0x38(%ebp),%edi
    1f6b:	ff 24 85 78 b2 00 00 	jmp    *0xb278(,%eax,4)
    1f72:	8d b6 00 00 00 00    	lea    0x0(%esi),%esi
    1f78:	83 ec 0c             	sub    $0xc,%esp
    1f7b:	68 5c f3 00 00       	push   $0xf35c
    1f80:	e8 cb b2 00 00       	call   d250 <fibril_mutex_lock@plt>
    1f85:	c7 04 24 5c f3 00 00 	movl   $0xf35c,(%esp)
    1f8c:	e8 ff ad 00 00       	call   cd90 <fibril_mutex_is_locked@plt>
    1f91:	83 c4 10             	add    $0x10,%esp
    1f94:	84 c0                	test   %al,%al
    1f96:	0f 84 5a 04 00 00    	je     23f6 <driver_connection_devman+0x4d6>
    1f9c:	a1 70 f3 00 00       	mov    0xf370,%eax
    1fa1:	3d 6c f3 00 00       	cmp    $0xf36c,%eax
    1fa6:	8d 50 d4             	lea    -0x2c(%eax),%edx
    1fa9:	75 16                	jne    1fc1 <driver_connection_devman+0xa1>
    1fab:	e9 90 03 00 00       	jmp    2340 <driver_connection_devman+0x420>
    1fb0:	8b 40 04             	mov    0x4(%eax),%eax
    1fb3:	3d 6c f3 00 00       	cmp    $0xf36c,%eax
    1fb8:	8d 50 d4             	lea    -0x2c(%eax),%edx
    1fbb:	0f 84 7f 03 00 00    	je     2340 <driver_connection_devman+0x420>
    1fc1:	3b 7a 04             	cmp    0x4(%edx),%edi
    1fc4:	75 ea                	jne    1fb0 <driver_connection_devman+0x90>
    1fc6:	8b 42 0c             	mov    0xc(%edx),%eax
    1fc9:	f0 ff 40 04          	lock incl 0x4(%eax)
    1fcd:	f0 ff 42 08          	lock incl 0x8(%edx)
    1fd1:	83 ec 0c             	sub    $0xc,%esp
    1fd4:	89 55 b4             	mov    %edx,-0x4c(%ebp)
    1fd7:	68 5c f3 00 00       	push   $0xf35c
    1fdc:	e8 cf af 00 00       	call   cfb0 <fibril_mutex_unlock@plt>
    1fe1:	a1 14 f5 00 00       	mov    0xf514,%eax
    1fe6:	83 c4 10             	add    $0x10,%esp
    1fe9:	8b 55 b4             	mov    -0x4c(%ebp),%edx
    1fec:	8b 40 04             	mov    0x4(%eax),%eax
    1fef:	8b 40 0c             	mov    0xc(%eax),%eax
    1ff2:	85 c0                	test   %eax,%eax
    1ff4:	0f 84 76 03 00 00    	je     2370 <driver_connection_devman+0x450>
    1ffa:	83 ec 0c             	sub    $0xc,%esp
    1ffd:	52                   	push   %edx
    1ffe:	ff d0                	call   *%eax
    2000:	83 c4 10             	add    $0x10,%esp
    2003:	89 c7                	mov    %eax,%edi
    2005:	8b 55 b4             	mov    -0x4c(%ebp),%edx
    2008:	89 d0                	mov    %edx,%eax
    200a:	e8 01 fb ff ff       	call   1b10 <fun_del_ref>
    200f:	51                   	push   %ecx
    2010:	51                   	push   %ecx
    2011:	57                   	push   %edi
    2012:	53                   	push   %ebx
    2013:	e8 48 ae 00 00       	call   ce60 <async_answer_0@plt>
    2018:	83 c4 10             	add    $0x10,%esp
    201b:	e9 20 ff ff ff       	jmp    1f40 <driver_connection_devman+0x20>
    2020:	83 ec 0c             	sub    $0xc,%esp
    2023:	68 74 f3 00 00       	push   $0xf374
    2028:	e8 23 b2 00 00       	call   d250 <fibril_mutex_lock@plt>
    202d:	c7 04 24 74 f3 00 00 	movl   $0xf374,(%esp)
    2034:	e8 57 ad 00 00       	call   cd90 <fibril_mutex_is_locked@plt>
    2039:	83 c4 10             	add    $0x10,%esp
    203c:	84 c0                	test   %al,%al
    203e:	0f 84 a0 03 00 00    	je     23e4 <driver_connection_devman+0x4c4>
    2044:	a1 88 f3 00 00       	mov    0xf388,%eax
    2049:	3d 84 f3 00 00       	cmp    $0xf384,%eax
    204e:	8d 50 ec             	lea    -0x14(%eax),%edx
    2051:	75 16                	jne    2069 <driver_connection_devman+0x149>
    2053:	e9 08 03 00 00       	jmp    2360 <driver_connection_devman+0x440>
    2058:	8b 40 04             	mov    0x4(%eax),%eax
    205b:	3d 84 f3 00 00       	cmp    $0xf384,%eax
    2060:	8d 50 ec             	lea    -0x14(%eax),%edx
    2063:	0f 84 f7 02 00 00    	je     2360 <driver_connection_devman+0x440>
    2069:	3b 78 ec             	cmp    -0x14(%eax),%edi
    206c:	75 ea                	jne    2058 <driver_connection_devman+0x138>
    206e:	8d 7a 04             	lea    0x4(%edx),%edi
    2071:	f0 ff 42 04          	lock incl 0x4(%edx)
    2075:	83 ec 0c             	sub    $0xc,%esp
    2078:	89 55 b4             	mov    %edx,-0x4c(%ebp)
    207b:	68 74 f3 00 00       	push   $0xf374
    2080:	e8 2b af 00 00       	call   cfb0 <fibril_mutex_unlock@plt>
    2085:	a1 14 f5 00 00       	mov    0xf514,%eax
    208a:	83 c4 10             	add    $0x10,%esp
    208d:	8b 40 04             	mov    0x4(%eax),%eax
    2090:	8b 40 08             	mov    0x8(%eax),%eax
    2093:	85 c0                	test   %eax,%eax
    2095:	0f 85 88 00 00 00    	jne    2123 <driver_connection_devman+0x203>
    209b:	b8 f5 ff ff ff       	mov    $0xfffffff5,%eax
    20a0:	e9 63 02 00 00       	jmp    2308 <driver_connection_devman+0x3e8>
    20a5:	8d 76 00             	lea    0x0(%esi),%esi
    20a8:	83 ec 0c             	sub    $0xc,%esp
    20ab:	68 74 f3 00 00       	push   $0xf374
    20b0:	e8 9b b1 00 00       	call   d250 <fibril_mutex_lock@plt>
    20b5:	c7 04 24 74 f3 00 00 	movl   $0xf374,(%esp)
    20bc:	e8 cf ac 00 00       	call   cd90 <fibril_mutex_is_locked@plt>
    20c1:	83 c4 10             	add    $0x10,%esp
    20c4:	84 c0                	test   %al,%al
    20c6:	0f 84 18 03 00 00    	je     23e4 <driver_connection_devman+0x4c4>
    20cc:	a1 88 f3 00 00       	mov    0xf388,%eax
    20d1:	3d 84 f3 00 00       	cmp    $0xf384,%eax
    20d6:	8d 50 ec             	lea    -0x14(%eax),%edx
    20d9:	75 16                	jne    20f1 <driver_connection_devman+0x1d1>
    20db:	e9 80 02 00 00       	jmp    2360 <driver_connection_devman+0x440>
    20e0:	8b 40 04             	mov    0x4(%eax),%eax
    20e3:	3d 84 f3 00 00       	cmp    $0xf384,%eax
    20e8:	8d 50 ec             	lea    -0x14(%eax),%edx
    20eb:	0f 84 6f 02 00 00    	je     2360 <driver_connection_devman+0x440>
    20f1:	3b 78 ec             	cmp    -0x14(%eax),%edi
    20f4:	75 ea                	jne    20e0 <driver_connection_devman+0x1c0>
    20f6:	8d 7a 04             	lea    0x4(%edx),%edi
    20f9:	f0 ff 42 04          	lock incl 0x4(%edx)
    20fd:	83 ec 0c             	sub    $0xc,%esp
    2100:	89 55 b4             	mov    %edx,-0x4c(%ebp)
    2103:	68 74 f3 00 00       	push   $0xf374
    2108:	e8 a3 ae 00 00       	call   cfb0 <fibril_mutex_unlock@plt>
    210d:	a1 14 f5 00 00       	mov    0xf514,%eax
    2112:	83 c4 10             	add    $0x10,%esp
    2115:	8b 40 04             	mov    0x4(%eax),%eax
    2118:	8b 40 04             	mov    0x4(%eax),%eax
    211b:	85 c0                	test   %eax,%eax
    211d:	0f 84 78 ff ff ff    	je     209b <driver_connection_devman+0x17b>
    2123:	83 ec 0c             	sub    $0xc,%esp
    2126:	8b 55 b4             	mov    -0x4c(%ebp),%edx
    2129:	52                   	push   %edx
    212a:	ff d0                	call   *%eax
    212c:	83 c4 10             	add    $0x10,%esp
    212f:	8b 55 b4             	mov    -0x4c(%ebp),%edx
    2132:	85 c0                	test   %eax,%eax
    2134:	0f 85 ce 01 00 00    	jne    2308 <driver_connection_devman+0x3e8>
    213a:	83 c9 ff             	or     $0xffffffff,%ecx
    213d:	f0 0f c1 0f          	lock xadd %ecx,(%edi)
    2141:	49                   	dec    %ecx
    2142:	0f 85 c0 01 00 00    	jne    2308 <driver_connection_devman+0x3e8>
    2148:	8b 42 08             	mov    0x8(%edx),%eax
    214b:	85 c0                	test   %eax,%eax
    214d:	74 0f                	je     215e <driver_connection_devman+0x23e>
    214f:	83 ec 0c             	sub    $0xc,%esp
    2152:	50                   	push   %eax
    2153:	e8 d8 ab 00 00       	call   cd30 <async_hangup@plt>
    2158:	83 c4 10             	add    $0x10,%esp
    215b:	8b 55 b4             	mov    -0x4c(%ebp),%edx
    215e:	8b 42 10             	mov    0x10(%edx),%eax
    2161:	85 c0                	test   %eax,%eax
    2163:	74 12                	je     2177 <driver_connection_devman+0x257>
    2165:	83 ec 0c             	sub    $0xc,%esp
    2168:	89 55 b4             	mov    %edx,-0x4c(%ebp)
    216b:	50                   	push   %eax
    216c:	e8 bf b0 00 00       	call   d230 <free@plt>
    2171:	83 c4 10             	add    $0x10,%esp
    2174:	8b 55 b4             	mov    -0x4c(%ebp),%edx
    2177:	8b 42 0c             	mov    0xc(%edx),%eax
    217a:	85 c0                	test   %eax,%eax
    217c:	74 12                	je     2190 <driver_connection_devman+0x270>
    217e:	83 ec 0c             	sub    $0xc,%esp
    2181:	89 55 b4             	mov    %edx,-0x4c(%ebp)
    2184:	50                   	push   %eax
    2185:	e8 a6 b0 00 00       	call   d230 <free@plt>
    218a:	83 c4 10             	add    $0x10,%esp
    218d:	8b 55 b4             	mov    -0x4c(%ebp),%edx
    2190:	83 ec 0c             	sub    $0xc,%esp
    2193:	52                   	push   %edx
    2194:	e8 97 b0 00 00       	call   d230 <free@plt>
    2199:	83 c4 10             	add    $0x10,%esp
    219c:	31 c0                	xor    %eax,%eax
    219e:	e9 65 01 00 00       	jmp    2308 <driver_connection_devman+0x3e8>
    21a3:	90                   	nop
    21a4:	8d 74 26 00          	lea    0x0(%esi,%eiz,1),%esi
    21a8:	50                   	push   %eax
    21a9:	50                   	push   %eax
    21aa:	8d 45 c0             	lea    -0x40(%ebp),%eax
    21ad:	6a 00                	push   $0x0
    21af:	c7 45 c0 00 00 00 00 	movl   $0x0,-0x40(%ebp)
    21b6:	6a 00                	push   $0x0
    21b8:	6a 00                	push   $0x0
    21ba:	6a 00                	push   $0x0
    21bc:	6a 01                	push   $0x1
    21be:	50                   	push   %eax
    21bf:	e8 ec af 00 00       	call   d1b0 <async_data_write_accept@plt>
    21c4:	83 c4 20             	add    $0x20,%esp
    21c7:	85 c0                	test   %eax,%eax
    21c9:	0f 85 39 01 00 00    	jne    2308 <driver_connection_devman+0x3e8>
    21cf:	50                   	push   %eax
    21d0:	50                   	push   %eax
    21d1:	6a 1c                	push   $0x1c
    21d3:	6a 01                	push   $0x1
    21d5:	e8 36 ad 00 00       	call   cf10 <calloc@plt>
    21da:	83 c4 10             	add    $0x10,%esp
    21dd:	89 c2                	mov    %eax,%edx
    21df:	85 c0                	test   %eax,%eax
    21e1:	0f 84 df 01 00 00    	je     23c6 <driver_connection_devman+0x4a6>
    21e7:	f0 ff 40 04          	lock incl 0x4(%eax)
    21eb:	89 38                	mov    %edi,(%eax)
    21ed:	8b 45 c0             	mov    -0x40(%ebp),%eax
    21f0:	89 42 0c             	mov    %eax,0xc(%edx)
    21f3:	a1 14 f5 00 00       	mov    0xf514,%eax
    21f8:	83 ec 0c             	sub    $0xc,%esp
    21fb:	89 55 b4             	mov    %edx,-0x4c(%ebp)
    21fe:	8b 40 04             	mov    0x4(%eax),%eax
    2201:	52                   	push   %edx
    2202:	ff 10                	call   *(%eax)
    2204:	83 c4 10             	add    $0x10,%esp
    2207:	89 c7                	mov    %eax,%edi
    2209:	85 c0                	test   %eax,%eax
    220b:	8b 55 b4             	mov    -0x4c(%ebp),%edx
    220e:	0f 84 66 01 00 00    	je     237a <driver_connection_devman+0x45a>
    2214:	83 c8 ff             	or     $0xffffffff,%eax
    2217:	f0 0f c1 42 04       	lock xadd %eax,0x4(%edx)
    221c:	48                   	dec    %eax
    221d:	0f 85 ec fd ff ff    	jne    200f <driver_connection_devman+0xef>
    2223:	8b 42 08             	mov    0x8(%edx),%eax
    2226:	85 c0                	test   %eax,%eax
    2228:	74 12                	je     223c <driver_connection_devman+0x31c>
    222a:	83 ec 0c             	sub    $0xc,%esp
    222d:	89 55 b4             	mov    %edx,-0x4c(%ebp)
    2230:	50                   	push   %eax
    2231:	e8 fa aa 00 00       	call   cd30 <async_hangup@plt>
    2236:	83 c4 10             	add    $0x10,%esp
    2239:	8b 55 b4             	mov    -0x4c(%ebp),%edx
    223c:	8b 42 10             	mov    0x10(%edx),%eax
    223f:	85 c0                	test   %eax,%eax
    2241:	74 12                	je     2255 <driver_connection_devman+0x335>
    2243:	83 ec 0c             	sub    $0xc,%esp
    2246:	89 55 b4             	mov    %edx,-0x4c(%ebp)
    2249:	50                   	push   %eax
    224a:	e8 e1 af 00 00       	call   d230 <free@plt>
    224f:	83 c4 10             	add    $0x10,%esp
    2252:	8b 55 b4             	mov    -0x4c(%ebp),%edx
    2255:	8b 42 0c             	mov    0xc(%edx),%eax
    2258:	85 c0                	test   %eax,%eax
    225a:	74 12                	je     226e <driver_connection_devman+0x34e>
    225c:	83 ec 0c             	sub    $0xc,%esp
    225f:	89 55 b4             	mov    %edx,-0x4c(%ebp)
    2262:	50                   	push   %eax
    2263:	e8 c8 af 00 00       	call   d230 <free@plt>
    2268:	83 c4 10             	add    $0x10,%esp
    226b:	8b 55 b4             	mov    -0x4c(%ebp),%edx
    226e:	83 ec 0c             	sub    $0xc,%esp
    2271:	52                   	push   %edx
    2272:	e8 b9 af 00 00       	call   d230 <free@plt>
    2277:	83 c4 10             	add    $0x10,%esp
    227a:	e9 90 fd ff ff       	jmp    200f <driver_connection_devman+0xef>
    227f:	90                   	nop
    2280:	83 ec 0c             	sub    $0xc,%esp
    2283:	68 5c f3 00 00       	push   $0xf35c
    2288:	e8 c3 af 00 00       	call   d250 <fibril_mutex_lock@plt>
    228d:	c7 04 24 5c f3 00 00 	movl   $0xf35c,(%esp)
    2294:	e8 f7 aa 00 00       	call   cd90 <fibril_mutex_is_locked@plt>
    2299:	83 c4 10             	add    $0x10,%esp
    229c:	84 c0                	test   %al,%al
    229e:	0f 84 52 01 00 00    	je     23f6 <driver_connection_devman+0x4d6>
    22a4:	a1 70 f3 00 00       	mov    0xf370,%eax
    22a9:	3d 6c f3 00 00       	cmp    $0xf36c,%eax
    22ae:	8d 50 d4             	lea    -0x2c(%eax),%edx
    22b1:	75 12                	jne    22c5 <driver_connection_devman+0x3a5>
    22b3:	e9 88 00 00 00       	jmp    2340 <driver_connection_devman+0x420>
    22b8:	8b 40 04             	mov    0x4(%eax),%eax
    22bb:	3d 6c f3 00 00       	cmp    $0xf36c,%eax
    22c0:	8d 50 d4             	lea    -0x2c(%eax),%edx
    22c3:	74 7b                	je     2340 <driver_connection_devman+0x420>
    22c5:	3b 7a 04             	cmp    0x4(%edx),%edi
    22c8:	75 ee                	jne    22b8 <driver_connection_devman+0x398>
    22ca:	8b 42 0c             	mov    0xc(%edx),%eax
    22cd:	f0 ff 40 04          	lock incl 0x4(%eax)
    22d1:	f0 ff 42 08          	lock incl 0x8(%edx)
    22d5:	83 ec 0c             	sub    $0xc,%esp
    22d8:	89 55 b4             	mov    %edx,-0x4c(%ebp)
    22db:	68 5c f3 00 00       	push   $0xf35c
    22e0:	e8 cb ac 00 00       	call   cfb0 <fibril_mutex_unlock@plt>
    22e5:	a1 14 f5 00 00       	mov    0xf514,%eax
    22ea:	83 c4 10             	add    $0x10,%esp
    22ed:	8b 40 04             	mov    0x4(%eax),%eax
    22f0:	8b 40 10             	mov    0x10(%eax),%eax
    22f3:	85 c0                	test   %eax,%eax
    22f5:	0f 84 a0 fd ff ff    	je     209b <driver_connection_devman+0x17b>
    22fb:	83 ec 0c             	sub    $0xc,%esp
    22fe:	8b 55 b4             	mov    -0x4c(%ebp),%edx
    2301:	52                   	push   %edx
    2302:	ff d0                	call   *%eax
    2304:	83 c4 10             	add    $0x10,%esp
    2307:	90                   	nop
    2308:	52                   	push   %edx
    2309:	52                   	push   %edx
    230a:	50                   	push   %eax
    230b:	53                   	push   %ebx
    230c:	e8 4f ab 00 00       	call   ce60 <async_answer_0@plt>
    2311:	83 c4 10             	add    $0x10,%esp
    2314:	e9 27 fc ff ff       	jmp    1f40 <driver_connection_devman+0x20>
    2319:	8d b4 26 00 00 00 00 	lea    0x0(%esi,%eiz,1),%esi
    2320:	50                   	push   %eax
    2321:	50                   	push   %eax
    2322:	6a f5                	push   $0xfffffff5
    2324:	53                   	push   %ebx
    2325:	e8 36 ab 00 00       	call   ce60 <async_answer_0@plt>
    232a:	83 c4 10             	add    $0x10,%esp
    232d:	e9 0e fc ff ff       	jmp    1f40 <driver_connection_devman+0x20>
    2332:	8d b6 00 00 00 00    	lea    0x0(%esi),%esi
    2338:	8d 65 f4             	lea    -0xc(%ebp),%esp
    233b:	5b                   	pop    %ebx
    233c:	5e                   	pop    %esi
    233d:	5f                   	pop    %edi
    233e:	5d                   	pop    %ebp
    233f:	c3                   	ret    
    2340:	83 ec 0c             	sub    $0xc,%esp
    2343:	68 5c f3 00 00       	push   $0xf35c
    2348:	e8 63 ac 00 00       	call   cfb0 <fibril_mutex_unlock@plt>
    234d:	58                   	pop    %eax
    234e:	5a                   	pop    %edx
    234f:	6a ff                	push   $0xffffffff
    2351:	53                   	push   %ebx
    2352:	e8 09 ab 00 00       	call   ce60 <async_answer_0@plt>
    2357:	83 c4 10             	add    $0x10,%esp
    235a:	e9 e1 fb ff ff       	jmp    1f40 <driver_connection_devman+0x20>
    235f:	90                   	nop
    2360:	83 ec 0c             	sub    $0xc,%esp
    2363:	68 74 f3 00 00       	push   $0xf374
    2368:	eb de                	jmp    2348 <driver_connection_devman+0x428>
    236a:	8d b6 00 00 00 00    	lea    0x0(%esi),%esi
    2370:	bf f5 ff ff ff       	mov    $0xfffffff5,%edi
    2375:	e9 8e fc ff ff       	jmp    2008 <driver_connection_devman+0xe8>
    237a:	83 ec 0c             	sub    $0xc,%esp
    237d:	89 55 b4             	mov    %edx,-0x4c(%ebp)
    2380:	68 74 f3 00 00       	push   $0xf374
    2385:	e8 c6 ae 00 00       	call   d250 <fibril_mutex_lock@plt>
    238a:	8b 55 b4             	mov    -0x4c(%ebp),%edx
    238d:	8b 0d 84 f3 00 00    	mov    0xf384,%ecx
    2393:	8d 42 14             	lea    0x14(%edx),%eax
    2396:	c7 42 18 84 f3 00 00 	movl   $0xf384,0x18(%edx)
    239d:	89 4a 14             	mov    %ecx,0x14(%edx)
    23a0:	89 41 04             	mov    %eax,0x4(%ecx)
    23a3:	a3 84 f3 00 00       	mov    %eax,0xf384
    23a8:	c7 04 24 74 f3 00 00 	movl   $0xf374,(%esp)
    23af:	e8 fc ab 00 00       	call   cfb0 <fibril_mutex_unlock@plt>
    23b4:	5f                   	pop    %edi
    23b5:	58                   	pop    %eax
    23b6:	6a 00                	push   $0x0
    23b8:	53                   	push   %ebx
    23b9:	e8 a2 aa 00 00       	call   ce60 <async_answer_0@plt>
    23be:	83 c4 10             	add    $0x10,%esp
    23c1:	e9 7a fb ff ff       	jmp    1f40 <driver_connection_devman+0x20>
    23c6:	83 ec 0c             	sub    $0xc,%esp
    23c9:	8b 4d c0             	mov    -0x40(%ebp),%ecx
    23cc:	51                   	push   %ecx
    23cd:	e8 5e ae 00 00       	call   d230 <free@plt>
    23d2:	5f                   	pop    %edi
    23d3:	58                   	pop    %eax
    23d4:	6a fe                	push   $0xfffffffe
    23d6:	53                   	push   %ebx
    23d7:	e8 84 aa 00 00       	call   ce60 <async_answer_0@plt>
    23dc:	83 c4 10             	add    $0x10,%esp
    23df:	e9 5c fb ff ff       	jmp    1f40 <driver_connection_devman+0x20>
    23e4:	56                   	push   %esi
    23e5:	6a 5f                	push   $0x5f
    23e7:	68 6f af 00 00       	push   $0xaf6f
    23ec:	68 14 b2 00 00       	push   $0xb214
    23f1:	e8 fa aa 00 00       	call   cef0 <assert_abort@plt>
    23f6:	53                   	push   %ebx
    23f7:	6a 6b                	push   $0x6b
    23f9:	68 6f af 00 00       	push   $0xaf6f
    23fe:	68 c8 b0 00 00       	push   $0xb0c8
    2403:	e8 e8 aa 00 00       	call   cef0 <assert_abort@plt>
    2408:	90                   	nop
    2409:	8d b4 26 00 00 00 00 	lea    0x0(%esi,%eiz,1),%esi

00002410 <ddf_dev_data_alloc>:
    2410:	55                   	push   %ebp
    2411:	89 e5                	mov    %esp,%ebp
    2413:	53                   	push   %ebx
    2414:	53                   	push   %ebx
    2415:	8b 5d 08             	mov    0x8(%ebp),%ebx
    2418:	8b 43 10             	mov    0x10(%ebx),%eax
    241b:	85 c0                	test   %eax,%eax
    241d:	75 1c                	jne    243b <ddf_dev_data_alloc+0x2b>
    241f:	8b 55 0c             	mov    0xc(%ebp),%edx
    2422:	50                   	push   %eax
    2423:	50                   	push   %eax
    2424:	52                   	push   %edx
    2425:	6a 01                	push   $0x1
    2427:	e8 e4 aa 00 00       	call   cf10 <calloc@plt>
    242c:	83 c4 10             	add    $0x10,%esp
    242f:	85 c0                	test   %eax,%eax
    2431:	74 03                	je     2436 <ddf_dev_data_alloc+0x26>
    2433:	89 43 10             	mov    %eax,0x10(%ebx)
    2436:	8b 5d fc             	mov    -0x4(%ebp),%ebx
    2439:	c9                   	leave  
    243a:	c3                   	ret    
    243b:	51                   	push   %ecx
    243c:	68 39 02 00 00       	push   $0x239
    2441:	68 6f af 00 00       	push   $0xaf6f
    2446:	68 aa af 00 00       	push   $0xafaa
    244b:	e8 a0 aa 00 00       	call   cef0 <assert_abort@plt>

00002450 <ddf_dev_data_get>:
    2450:	55                   	push   %ebp
    2451:	89 e5                	mov    %esp,%ebp
    2453:	8b 45 08             	mov    0x8(%ebp),%eax
    2456:	5d                   	pop    %ebp
    2457:	8b 40 10             	mov    0x10(%eax),%eax
    245a:	c3                   	ret    
    245b:	90                   	nop
    245c:	8d 74 26 00          	lea    0x0(%esi,%eiz,1),%esi

00002460 <ddf_dev_get_handle>:
    2460:	55                   	push   %ebp
    2461:	89 e5                	mov    %esp,%ebp
    2463:	8b 45 08             	mov    0x8(%ebp),%eax
    2466:	5d                   	pop    %ebp
    2467:	8b 00                	mov    (%eax),%eax
    2469:	c3                   	ret    
    246a:	8d b6 00 00 00 00    	lea    0x0(%esi),%esi

00002470 <ddf_dev_get_name>:
    2470:	55                   	push   %ebp
    2471:	89 e5                	mov    %esp,%ebp
    2473:	8b 45 08             	mov    0x8(%ebp),%eax
    2476:	5d                   	pop    %ebp
    2477:	8b 40 0c             	mov    0xc(%eax),%eax
    247a:	c3                   	ret    
    247b:	90                   	nop
    247c:	8d 74 26 00          	lea    0x0(%esi,%eiz,1),%esi

00002480 <ddf_dev_parent_sess_create>:
    2480:	55                   	push   %ebp
    2481:	89 e5                	mov    %esp,%ebp
    2483:	53                   	push   %ebx
    2484:	53                   	push   %ebx
    2485:	8b 5d 08             	mov    0x8(%ebp),%ebx
    2488:	8b 43 08             	mov    0x8(%ebx),%eax
    248b:	85 c0                	test   %eax,%eax
    248d:	75 14                	jne    24a3 <ddf_dev_parent_sess_create+0x23>
    248f:	50                   	push   %eax
    2490:	50                   	push   %eax
    2491:	6a 01                	push   $0x1
    2493:	8b 13                	mov    (%ebx),%edx
    2495:	52                   	push   %edx
    2496:	e8 c5 a8 00 00       	call   cd60 <devman_parent_device_connect@plt>
    249b:	89 43 08             	mov    %eax,0x8(%ebx)
    249e:	8b 5d fc             	mov    -0x4(%ebp),%ebx
    24a1:	c9                   	leave  
    24a2:	c3                   	ret    
    24a3:	51                   	push   %ecx
    24a4:	68 64 02 00 00       	push   $0x264
    24a9:	68 6f af 00 00       	push   $0xaf6f
    24ae:	68 c3 af 00 00       	push   $0xafc3
    24b3:	e8 38 aa 00 00       	call   cef0 <assert_abort@plt>
    24b8:	90                   	nop
    24b9:	8d b4 26 00 00 00 00 	lea    0x0(%esi,%eiz,1),%esi

000024c0 <ddf_dev_parent_sess_get>:
    24c0:	55                   	push   %ebp
    24c1:	89 e5                	mov    %esp,%ebp
    24c3:	8b 45 08             	mov    0x8(%ebp),%eax
    24c6:	5d                   	pop    %ebp
    24c7:	8b 40 08             	mov    0x8(%eax),%eax
    24ca:	c3                   	ret    
    24cb:	90                   	nop
    24cc:	8d 74 26 00          	lea    0x0(%esi,%eiz,1),%esi

000024d0 <ddf_fun_set_name>:
    24d0:	55                   	push   %ebp
    24d1:	89 e5                	mov    %esp,%ebp
    24d3:	53                   	push   %ebx
    24d4:	51                   	push   %ecx
    24d5:	8b 5d 08             	mov    0x8(%ebp),%ebx
    24d8:	8b 43 14             	mov    0x14(%ebx),%eax
    24db:	85 c0                	test   %eax,%eax
    24dd:	75 23                	jne    2502 <ddf_fun_set_name+0x32>
    24df:	83 ec 0c             	sub    $0xc,%esp
    24e2:	8b 45 0c             	mov    0xc(%ebp),%eax
    24e5:	50                   	push   %eax
    24e6:	e8 e5 aa 00 00       	call   cfd0 <str_dup@plt>
    24eb:	83 c4 10             	add    $0x10,%esp
    24ee:	89 43 14             	mov    %eax,0x14(%ebx)
    24f1:	85 c0                	test   %eax,%eax
    24f3:	8b 5d fc             	mov    -0x4(%ebp),%ebx
    24f6:	0f 94 c0             	sete   %al
    24f9:	25 ff 00 00 00       	and    $0xff,%eax
    24fe:	c9                   	leave  
    24ff:	f7 d8                	neg    %eax
    2501:	c3                   	ret    
    2502:	52                   	push   %edx
    2503:	68 7d 02 00 00       	push   $0x27d
    2508:	68 6f af 00 00       	push   $0xaf6f
    250d:	68 dc af 00 00       	push   $0xafdc
    2512:	e8 d9 a9 00 00       	call   cef0 <assert_abort@plt>
    2517:	89 f6                	mov    %esi,%esi
    2519:	8d bc 27 00 00 00 00 	lea    0x0(%edi,%eiz,1),%edi

00002520 <ddf_fun_get_dev>:
    2520:	55                   	push   %ebp
    2521:	89 e5                	mov    %esp,%ebp
    2523:	8b 45 08             	mov    0x8(%ebp),%eax
    2526:	5d                   	pop    %ebp
    2527:	8b 40 0c             	mov    0xc(%eax),%eax
    252a:	c3                   	ret    
    252b:	90                   	nop
    252c:	8d 74 26 00          	lea    0x0(%esi,%eiz,1),%esi

00002530 <ddf_fun_get_handle>:
    2530:	55                   	push   %ebp
    2531:	89 e5                	mov    %esp,%ebp
    2533:	8b 45 08             	mov    0x8(%ebp),%eax
    2536:	5d                   	pop    %ebp
    2537:	8b 40 04             	mov    0x4(%eax),%eax
    253a:	c3                   	ret    
    253b:	90                   	nop
    253c:	8d 74 26 00          	lea    0x0(%esi,%eiz,1),%esi

00002540 <ddf_fun_create>:
    2540:	55                   	push   %ebp
    2541:	89 e5                	mov    %esp,%ebp
    2543:	57                   	push   %edi
    2544:	56                   	push   %esi
    2545:	53                   	push   %ebx
    2546:	83 ec 14             	sub    $0x14,%esp
    2549:	8b 75 08             	mov    0x8(%ebp),%esi
    254c:	6a 34                	push   $0x34
    254e:	6a 01                	push   $0x1
    2550:	e8 bb a9 00 00       	call   cf10 <calloc@plt>
    2555:	83 c4 10             	add    $0x10,%esp
    2558:	89 c3                	mov    %eax,%ebx
    255a:	85 c0                	test   %eax,%eax
    255c:	74 48                	je     25a6 <ddf_fun_create+0x66>
    255e:	8d 78 18             	lea    0x18(%eax),%edi
    2561:	c7 40 2c 00 00 00 00 	movl   $0x0,0x2c(%eax)
    2568:	89 78 18             	mov    %edi,0x18(%eax)
    256b:	89 78 1c             	mov    %edi,0x1c(%eax)
    256e:	c7 40 30 00 00 00 00 	movl   $0x0,0x30(%eax)
    2575:	89 70 0c             	mov    %esi,0xc(%eax)
    2578:	f0 ff 46 04          	lock incl 0x4(%esi)
    257c:	f0 ff 40 08          	lock incl 0x8(%eax)
    2580:	c6 00 00             	movb   $0x0,(%eax)
    2583:	8b 55 10             	mov    0x10(%ebp),%edx
    2586:	8b 45 0c             	mov    0xc(%ebp),%eax
    2589:	85 d2                	test   %edx,%edx
    258b:	89 43 10             	mov    %eax,0x10(%ebx)
    258e:	74 16                	je     25a6 <ddf_fun_create+0x66>
    2590:	83 ec 0c             	sub    $0xc,%esp
    2593:	8b 45 10             	mov    0x10(%ebp),%eax
    2596:	50                   	push   %eax
    2597:	e8 34 aa 00 00       	call   cfd0 <str_dup@plt>
    259c:	83 c4 10             	add    $0x10,%esp
    259f:	89 43 14             	mov    %eax,0x14(%ebx)
    25a2:	85 c0                	test   %eax,%eax
    25a4:	74 0a                	je     25b0 <ddf_fun_create+0x70>
    25a6:	8d 65 f4             	lea    -0xc(%ebp),%esp
    25a9:	89 d8                	mov    %ebx,%eax
    25ab:	5b                   	pop    %ebx
    25ac:	5e                   	pop    %esi
    25ad:	5f                   	pop    %edi
    25ae:	5d                   	pop    %ebp
    25af:	c3                   	ret    
    25b0:	8b 73 1c             	mov    0x1c(%ebx),%esi
    25b3:	39 f7                	cmp    %esi,%edi
    25b5:	0f 84 85 00 00 00    	je     2640 <ddf_fun_create+0x100>
    25bb:	90                   	nop
    25bc:	8d 74 26 00          	lea    0x0(%esi,%eiz,1),%esi
    25c0:	8b 0e                	mov    (%esi),%ecx
    25c2:	85 c9                	test   %ecx,%ecx
    25c4:	74 0e                	je     25d4 <ddf_fun_create+0x94>
    25c6:	8b 46 04             	mov    0x4(%esi),%eax
    25c9:	85 c0                	test   %eax,%eax
    25cb:	74 07                	je     25d4 <ddf_fun_create+0x94>
    25cd:	89 08                	mov    %ecx,(%eax)
    25cf:	8b 0e                	mov    (%esi),%ecx
    25d1:	89 41 04             	mov    %eax,0x4(%ecx)
    25d4:	8b 46 08             	mov    0x8(%esi),%eax
    25d7:	c7 06 00 00 00 00    	movl   $0x0,(%esi)
    25dd:	c7 46 04 00 00 00 00 	movl   $0x0,0x4(%esi)
    25e4:	85 c0                	test   %eax,%eax
    25e6:	74 0c                	je     25f4 <ddf_fun_create+0xb4>
    25e8:	83 ec 0c             	sub    $0xc,%esp
    25eb:	50                   	push   %eax
    25ec:	e8 3f ac 00 00       	call   d230 <free@plt>
    25f1:	83 c4 10             	add    $0x10,%esp
    25f4:	83 ec 0c             	sub    $0xc,%esp
    25f7:	56                   	push   %esi
    25f8:	e8 33 ac 00 00       	call   d230 <free@plt>
    25fd:	8b 73 1c             	mov    0x1c(%ebx),%esi
    2600:	83 c4 10             	add    $0x10,%esp
    2603:	39 f7                	cmp    %esi,%edi
    2605:	75 b9                	jne    25c0 <ddf_fun_create+0x80>
    2607:	8b 43 20             	mov    0x20(%ebx),%eax
    260a:	85 c0                	test   %eax,%eax
    260c:	74 0c                	je     261a <ddf_fun_create+0xda>
    260e:	83 ec 0c             	sub    $0xc,%esp
    2611:	50                   	push   %eax
    2612:	e8 19 ac 00 00       	call   d230 <free@plt>
    2617:	83 c4 10             	add    $0x10,%esp
    261a:	8b 43 14             	mov    0x14(%ebx),%eax
    261d:	85 c0                	test   %eax,%eax
    261f:	74 0c                	je     262d <ddf_fun_create+0xed>
    2621:	83 ec 0c             	sub    $0xc,%esp
    2624:	50                   	push   %eax
    2625:	e8 06 ac 00 00       	call   d230 <free@plt>
    262a:	83 c4 10             	add    $0x10,%esp
    262d:	83 ec 0c             	sub    $0xc,%esp
    2630:	53                   	push   %ebx
    2631:	31 db                	xor    %ebx,%ebx
    2633:	e8 f8 ab 00 00       	call   d230 <free@plt>
    2638:	83 c4 10             	add    $0x10,%esp
    263b:	e9 66 ff ff ff       	jmp    25a6 <ddf_fun_create+0x66>
    2640:	8b 43 20             	mov    0x20(%ebx),%eax
    2643:	85 c0                	test   %eax,%eax
    2645:	75 c7                	jne    260e <ddf_fun_create+0xce>
    2647:	eb e4                	jmp    262d <ddf_fun_create+0xed>
    2649:	8d b4 26 00 00 00 00 	lea    0x0(%esi,%eiz,1),%esi

00002650 <ddf_fun_data_alloc>:
    2650:	55                   	push   %ebp
    2651:	89 e5                	mov    %esp,%ebp
    2653:	53                   	push   %ebx
    2654:	50                   	push   %eax
    2655:	8b 5d 08             	mov    0x8(%ebp),%ebx
    2658:	80 3b 00             	cmpb   $0x0,(%ebx)
    265b:	75 23                	jne    2680 <ddf_fun_data_alloc+0x30>
    265d:	8b 43 20             	mov    0x20(%ebx),%eax
    2660:	85 c0                	test   %eax,%eax
    2662:	75 31                	jne    2695 <ddf_fun_data_alloc+0x45>
    2664:	8b 55 0c             	mov    0xc(%ebp),%edx
    2667:	50                   	push   %eax
    2668:	50                   	push   %eax
    2669:	52                   	push   %edx
    266a:	6a 01                	push   $0x1
    266c:	e8 9f a8 00 00       	call   cf10 <calloc@plt>
    2671:	83 c4 10             	add    $0x10,%esp
    2674:	85 c0                	test   %eax,%eax
    2676:	74 03                	je     267b <ddf_fun_data_alloc+0x2b>
    2678:	89 43 20             	mov    %eax,0x20(%ebx)
    267b:	8b 5d fc             	mov    -0x4(%ebp),%ebx
    267e:	c9                   	leave  
    267f:	c3                   	ret    
    2680:	50                   	push   %eax
    2681:	68 c9 02 00 00       	push   $0x2c9
    2686:	68 6f af 00 00       	push   $0xaf6f
    268b:	68 ee af 00 00       	push   $0xafee
    2690:	e8 5b a8 00 00       	call   cef0 <assert_abort@plt>
    2695:	51                   	push   %ecx
    2696:	68 ca 02 00 00       	push   $0x2ca
    269b:	68 6f af 00 00       	push   $0xaf6f
    26a0:	68 02 b0 00 00       	push   $0xb002
    26a5:	e8 46 a8 00 00       	call   cef0 <assert_abort@plt>
    26aa:	8d b6 00 00 00 00    	lea    0x0(%esi),%esi

000026b0 <ddf_fun_data_get>:
    26b0:	55                   	push   %ebp
    26b1:	89 e5                	mov    %esp,%ebp
    26b3:	8b 45 08             	mov    0x8(%ebp),%eax
    26b6:	5d                   	pop    %ebp
    26b7:	8b 40 20             	mov    0x20(%eax),%eax
    26ba:	c3                   	ret    
    26bb:	90                   	nop
    26bc:	8d 74 26 00          	lea    0x0(%esi,%eiz,1),%esi

000026c0 <ddf_fun_get_name>:
    26c0:	55                   	push   %ebp
    26c1:	89 e5                	mov    %esp,%ebp
    26c3:	8b 45 08             	mov    0x8(%ebp),%eax
    26c6:	5d                   	pop    %ebp
    26c7:	8b 40 14             	mov    0x14(%eax),%eax
    26ca:	c3                   	ret    
    26cb:	90                   	nop
    26cc:	8d 74 26 00          	lea    0x0(%esi,%eiz,1),%esi

000026d0 <ddf_fun_destroy>:
    26d0:	55                   	push   %ebp
    26d1:	89 e5                	mov    %esp,%ebp
    26d3:	57                   	push   %edi
    26d4:	56                   	push   %esi
    26d5:	53                   	push   %ebx
    26d6:	83 ec 1c             	sub    $0x1c,%esp
    26d9:	8b 7d 08             	mov    0x8(%ebp),%edi
    26dc:	80 3f 00             	cmpb   $0x0,(%edi)
    26df:	0f 85 fa 00 00 00    	jne    27df <ddf_fun_destroy+0x10f>
    26e5:	8b 77 0c             	mov    0xc(%edi),%esi
    26e8:	83 ca ff             	or     $0xffffffff,%edx
    26eb:	f0 0f c1 57 08       	lock xadd %edx,0x8(%edi)
    26f0:	4a                   	dec    %edx
    26f1:	74 5d                	je     2750 <ddf_fun_destroy+0x80>
    26f3:	83 c8 ff             	or     $0xffffffff,%eax
    26f6:	f0 0f c1 46 04       	lock xadd %eax,0x4(%esi)
    26fb:	48                   	dec    %eax
    26fc:	74 0a                	je     2708 <ddf_fun_destroy+0x38>
    26fe:	8d 65 f4             	lea    -0xc(%ebp),%esp
    2701:	5b                   	pop    %ebx
    2702:	5e                   	pop    %esi
    2703:	5f                   	pop    %edi
    2704:	5d                   	pop    %ebp
    2705:	c3                   	ret    
    2706:	66 90                	xchg   %ax,%ax
    2708:	8b 46 08             	mov    0x8(%esi),%eax
    270b:	85 c0                	test   %eax,%eax
    270d:	74 0c                	je     271b <ddf_fun_destroy+0x4b>
    270f:	83 ec 0c             	sub    $0xc,%esp
    2712:	50                   	push   %eax
    2713:	e8 18 a6 00 00       	call   cd30 <async_hangup@plt>
    2718:	83 c4 10             	add    $0x10,%esp
    271b:	8b 46 10             	mov    0x10(%esi),%eax
    271e:	85 c0                	test   %eax,%eax
    2720:	74 0c                	je     272e <ddf_fun_destroy+0x5e>
    2722:	83 ec 0c             	sub    $0xc,%esp
    2725:	50                   	push   %eax
    2726:	e8 05 ab 00 00       	call   d230 <free@plt>
    272b:	83 c4 10             	add    $0x10,%esp
    272e:	8b 46 0c             	mov    0xc(%esi),%eax
    2731:	85 c0                	test   %eax,%eax
    2733:	74 0c                	je     2741 <ddf_fun_destroy+0x71>
    2735:	83 ec 0c             	sub    $0xc,%esp
    2738:	50                   	push   %eax
    2739:	e8 f2 aa 00 00       	call   d230 <free@plt>
    273e:	83 c4 10             	add    $0x10,%esp
    2741:	89 75 08             	mov    %esi,0x8(%ebp)
    2744:	8d 65 f4             	lea    -0xc(%ebp),%esp
    2747:	5b                   	pop    %ebx
    2748:	5e                   	pop    %esi
    2749:	5f                   	pop    %edi
    274a:	5d                   	pop    %ebp
    274b:	e9 e0 aa 00 00       	jmp    d230 <free@plt>
    2750:	8d 47 18             	lea    0x18(%edi),%eax
    2753:	8b 5f 1c             	mov    0x1c(%edi),%ebx
    2756:	89 45 e4             	mov    %eax,-0x1c(%ebp)
    2759:	39 d8                	cmp    %ebx,%eax
    275b:	74 4b                	je     27a8 <ddf_fun_destroy+0xd8>
    275d:	8d 76 00             	lea    0x0(%esi),%esi
    2760:	8b 0b                	mov    (%ebx),%ecx
    2762:	85 c9                	test   %ecx,%ecx
    2764:	74 0e                	je     2774 <ddf_fun_destroy+0xa4>
    2766:	8b 53 04             	mov    0x4(%ebx),%edx
    2769:	85 d2                	test   %edx,%edx
    276b:	74 07                	je     2774 <ddf_fun_destroy+0xa4>
    276d:	89 0a                	mov    %ecx,(%edx)
    276f:	8b 0b                	mov    (%ebx),%ecx
    2771:	89 51 04             	mov    %edx,0x4(%ecx)
    2774:	8b 53 08             	mov    0x8(%ebx),%edx
    2777:	c7 03 00 00 00 00    	movl   $0x0,(%ebx)
    277d:	c7 43 04 00 00 00 00 	movl   $0x0,0x4(%ebx)
    2784:	85 d2                	test   %edx,%edx
    2786:	74 0c                	je     2794 <ddf_fun_destroy+0xc4>
    2788:	83 ec 0c             	sub    $0xc,%esp
    278b:	52                   	push   %edx
    278c:	e8 9f aa 00 00       	call   d230 <free@plt>
    2791:	83 c4 10             	add    $0x10,%esp
    2794:	83 ec 0c             	sub    $0xc,%esp
    2797:	53                   	push   %ebx
    2798:	e8 93 aa 00 00       	call   d230 <free@plt>
    279d:	8b 5f 1c             	mov    0x1c(%edi),%ebx
    27a0:	83 c4 10             	add    $0x10,%esp
    27a3:	3b 5d e4             	cmp    -0x1c(%ebp),%ebx
    27a6:	75 b8                	jne    2760 <ddf_fun_destroy+0x90>
    27a8:	8b 57 20             	mov    0x20(%edi),%edx
    27ab:	85 d2                	test   %edx,%edx
    27ad:	74 0c                	je     27bb <ddf_fun_destroy+0xeb>
    27af:	83 ec 0c             	sub    $0xc,%esp
    27b2:	52                   	push   %edx
    27b3:	e8 78 aa 00 00       	call   d230 <free@plt>
    27b8:	83 c4 10             	add    $0x10,%esp
    27bb:	8b 57 14             	mov    0x14(%edi),%edx
    27be:	85 d2                	test   %edx,%edx
    27c0:	74 0c                	je     27ce <ddf_fun_destroy+0xfe>
    27c2:	83 ec 0c             	sub    $0xc,%esp
    27c5:	52                   	push   %edx
    27c6:	e8 65 aa 00 00       	call   d230 <free@plt>
    27cb:	83 c4 10             	add    $0x10,%esp
    27ce:	83 ec 0c             	sub    $0xc,%esp
    27d1:	57                   	push   %edi
    27d2:	e8 59 aa 00 00       	call   d230 <free@plt>
    27d7:	83 c4 10             	add    $0x10,%esp
    27da:	e9 14 ff ff ff       	jmp    26f3 <ddf_fun_destroy+0x23>
    27df:	50                   	push   %eax
    27e0:	68 ee 02 00 00       	push   $0x2ee
    27e5:	68 6f af 00 00       	push   $0xaf6f
    27ea:	68 ee af 00 00       	push   $0xafee
    27ef:	e8 fc a6 00 00       	call   cef0 <assert_abort@plt>
    27f4:	8d b6 00 00 00 00    	lea    0x0(%esi),%esi
    27fa:	8d bf 00 00 00 00    	lea    0x0(%edi),%edi

00002800 <ddf_fun_bind>:
    2800:	55                   	push   %ebp
    2801:	89 e5                	mov    %esp,%ebp
    2803:	53                   	push   %ebx
    2804:	83 ec 14             	sub    $0x14,%esp
    2807:	8b 5d 08             	mov    0x8(%ebp),%ebx
    280a:	80 3b 00             	cmpb   $0x0,(%ebx)
    280d:	0f 85 d2 00 00 00    	jne    28e5 <ddf_fun_bind+0xe5>
    2813:	8b 43 14             	mov    0x14(%ebx),%eax
    2816:	85 c0                	test   %eax,%eax
    2818:	0f 84 f1 00 00 00    	je     290f <ddf_fun_bind+0x10f>
    281e:	8b 43 0c             	mov    0xc(%ebx),%eax
    2821:	85 c0                	test   %eax,%eax
    2823:	0f 84 d1 00 00 00    	je     28fa <ddf_fun_bind+0xfa>
    2829:	83 ec 0c             	sub    $0xc,%esp
    282c:	68 5c f3 00 00       	push   $0xf35c
    2831:	e8 1a aa 00 00       	call   d250 <fibril_mutex_lock@plt>
    2836:	8b 15 6c f3 00 00    	mov    0xf36c,%edx
    283c:	8d 43 2c             	lea    0x2c(%ebx),%eax
    283f:	89 53 2c             	mov    %edx,0x2c(%ebx)
    2842:	c7 43 30 6c f3 00 00 	movl   $0xf36c,0x30(%ebx)
    2849:	89 42 04             	mov    %eax,0x4(%edx)
    284c:	a3 6c f3 00 00       	mov    %eax,0xf36c
    2851:	c7 04 24 5c f3 00 00 	movl   $0xf35c,(%esp)
    2858:	e8 53 a7 00 00       	call   cfb0 <fibril_mutex_unlock@plt>
    285d:	8d 43 04             	lea    0x4(%ebx),%eax
    2860:	8b 53 10             	mov    0x10(%ebx),%edx
    2863:	89 04 24             	mov    %eax,(%esp)
    2866:	8b 43 0c             	mov    0xc(%ebx),%eax
    2869:	8b 4b 14             	mov    0x14(%ebx),%ecx
    286c:	8b 00                	mov    (%eax),%eax
    286e:	50                   	push   %eax
    286f:	8d 43 18             	lea    0x18(%ebx),%eax
    2872:	50                   	push   %eax
    2873:	52                   	push   %edx
    2874:	51                   	push   %ecx
    2875:	e8 56 a6 00 00       	call   ced0 <devman_add_function@plt>
    287a:	83 c4 20             	add    $0x20,%esp
    287d:	85 c0                	test   %eax,%eax
    287f:	75 0f                	jne    2890 <ddf_fun_bind+0x90>
    2881:	c6 03 01             	movb   $0x1,(%ebx)
    2884:	8b 5d fc             	mov    -0x4(%ebp),%ebx
    2887:	c9                   	leave  
    2888:	c3                   	ret    
    2889:	8d b4 26 00 00 00 00 	lea    0x0(%esi,%eiz,1),%esi
    2890:	83 ec 0c             	sub    $0xc,%esp
    2893:	89 45 f4             	mov    %eax,-0xc(%ebp)
    2896:	68 5c f3 00 00       	push   $0xf35c
    289b:	e8 b0 a9 00 00       	call   d250 <fibril_mutex_lock@plt>
    28a0:	8b 4b 2c             	mov    0x2c(%ebx),%ecx
    28a3:	83 c4 10             	add    $0x10,%esp
    28a6:	8b 45 f4             	mov    -0xc(%ebp),%eax
    28a9:	85 c9                	test   %ecx,%ecx
    28ab:	74 0f                	je     28bc <ddf_fun_bind+0xbc>
    28ad:	8b 53 30             	mov    0x30(%ebx),%edx
    28b0:	85 d2                	test   %edx,%edx
    28b2:	74 08                	je     28bc <ddf_fun_bind+0xbc>
    28b4:	89 0a                	mov    %ecx,(%edx)
    28b6:	8b 4b 2c             	mov    0x2c(%ebx),%ecx
    28b9:	89 51 04             	mov    %edx,0x4(%ecx)
    28bc:	83 ec 0c             	sub    $0xc,%esp
    28bf:	c7 43 2c 00 00 00 00 	movl   $0x0,0x2c(%ebx)
    28c6:	c7 43 30 00 00 00 00 	movl   $0x0,0x30(%ebx)
    28cd:	89 45 f4             	mov    %eax,-0xc(%ebp)
    28d0:	68 5c f3 00 00       	push   $0xf35c
    28d5:	e8 d6 a6 00 00       	call   cfb0 <fibril_mutex_unlock@plt>
    28da:	8b 45 f4             	mov    -0xc(%ebp),%eax
    28dd:	83 c4 10             	add    $0x10,%esp
    28e0:	8b 5d fc             	mov    -0x4(%ebp),%ebx
    28e3:	c9                   	leave  
    28e4:	c3                   	ret    
    28e5:	50                   	push   %eax
    28e6:	68 12 03 00 00       	push   $0x312
    28eb:	68 6f af 00 00       	push   $0xaf6f
    28f0:	68 ee af 00 00       	push   $0xafee
    28f5:	e8 f6 a5 00 00       	call   cef0 <assert_abort@plt>
    28fa:	53                   	push   %ebx
    28fb:	68 14 03 00 00       	push   $0x314
    2900:	68 6f af 00 00       	push   $0xaf6f
    2905:	68 2d b0 00 00       	push   $0xb02d
    290a:	e8 e1 a5 00 00       	call   cef0 <assert_abort@plt>
    290f:	50                   	push   %eax
    2910:	68 13 03 00 00       	push   $0x313
    2915:	68 6f af 00 00       	push   $0xaf6f
    291a:	68 1b b0 00 00       	push   $0xb01b
    291f:	e8 cc a5 00 00       	call   cef0 <assert_abort@plt>
    2924:	8d b6 00 00 00 00    	lea    0x0(%esi),%esi
    292a:	8d bf 00 00 00 00    	lea    0x0(%edi),%edi

00002930 <ddf_fun_unbind>:
    2930:	55                   	push   %ebp
    2931:	89 e5                	mov    %esp,%ebp
    2933:	53                   	push   %ebx
    2934:	83 ec 14             	sub    $0x14,%esp
    2937:	8b 5d 08             	mov    0x8(%ebp),%ebx
    293a:	80 3b 00             	cmpb   $0x0,(%ebx)
    293d:	74 71                	je     29b0 <ddf_fun_unbind+0x80>
    293f:	83 ec 0c             	sub    $0xc,%esp
    2942:	8b 43 04             	mov    0x4(%ebx),%eax
    2945:	50                   	push   %eax
    2946:	e8 f5 a5 00 00       	call   cf40 <devman_remove_function@plt>
    294b:	83 c4 10             	add    $0x10,%esp
    294e:	85 c0                	test   %eax,%eax
    2950:	74 06                	je     2958 <ddf_fun_unbind+0x28>
    2952:	8b 5d fc             	mov    -0x4(%ebp),%ebx
    2955:	c9                   	leave  
    2956:	c3                   	ret    
    2957:	90                   	nop
    2958:	83 ec 0c             	sub    $0xc,%esp
    295b:	89 45 f4             	mov    %eax,-0xc(%ebp)
    295e:	68 5c f3 00 00       	push   $0xf35c
    2963:	e8 e8 a8 00 00       	call   d250 <fibril_mutex_lock@plt>
    2968:	8b 4b 2c             	mov    0x2c(%ebx),%ecx
    296b:	83 c4 10             	add    $0x10,%esp
    296e:	8b 45 f4             	mov    -0xc(%ebp),%eax
    2971:	85 c9                	test   %ecx,%ecx
    2973:	74 0f                	je     2984 <ddf_fun_unbind+0x54>
    2975:	8b 53 30             	mov    0x30(%ebx),%edx
    2978:	85 d2                	test   %edx,%edx
    297a:	74 08                	je     2984 <ddf_fun_unbind+0x54>
    297c:	89 0a                	mov    %ecx,(%edx)
    297e:	8b 4b 2c             	mov    0x2c(%ebx),%ecx
    2981:	89 51 04             	mov    %edx,0x4(%ecx)
    2984:	83 ec 0c             	sub    $0xc,%esp
    2987:	c7 43 2c 00 00 00 00 	movl   $0x0,0x2c(%ebx)
    298e:	c7 43 30 00 00 00 00 	movl   $0x0,0x30(%ebx)
    2995:	89 45 f4             	mov    %eax,-0xc(%ebp)
    2998:	68 5c f3 00 00       	push   $0xf35c
    299d:	e8 0e a6 00 00       	call   cfb0 <fibril_mutex_unlock@plt>
    29a2:	c6 03 00             	movb   $0x0,(%ebx)
    29a5:	8b 45 f4             	mov    -0xc(%ebp),%eax
    29a8:	83 c4 10             	add    $0x10,%esp
    29ab:	8b 5d fc             	mov    -0x4(%ebp),%ebx
    29ae:	c9                   	leave  
    29af:	c3                   	ret    
    29b0:	52                   	push   %edx
    29b1:	68 2e 03 00 00       	push   $0x32e
    29b6:	68 6f af 00 00       	push   $0xaf6f
    29bb:	68 3e b0 00 00       	push   $0xb03e
    29c0:	e8 2b a5 00 00       	call   cef0 <assert_abort@plt>
    29c5:	8d 74 26 00          	lea    0x0(%esi,%eiz,1),%esi
    29c9:	8d bc 27 00 00 00 00 	lea    0x0(%edi,%eiz,1),%edi

000029d0 <ddf_fun_online>:
    29d0:	55                   	push   %ebp
    29d1:	89 e5                	mov    %esp,%ebp
    29d3:	83 ec 08             	sub    $0x8,%esp
    29d6:	8b 45 08             	mov    0x8(%ebp),%eax
    29d9:	80 38 00             	cmpb   $0x0,(%eax)
    29dc:	74 0c                	je     29ea <ddf_fun_online+0x1a>
    29de:	8b 40 04             	mov    0x4(%eax),%eax
    29e1:	89 45 08             	mov    %eax,0x8(%ebp)
    29e4:	c9                   	leave  
    29e5:	e9 b6 a3 00 00       	jmp    cda0 <devman_drv_fun_online@plt>
    29ea:	50                   	push   %eax
    29eb:	68 43 03 00 00       	push   $0x343
    29f0:	68 6f af 00 00       	push   $0xaf6f
    29f5:	68 3e b0 00 00       	push   $0xb03e
    29fa:	e8 f1 a4 00 00       	call   cef0 <assert_abort@plt>
    29ff:	90                   	nop

00002a00 <ddf_fun_offline>:
    2a00:	55                   	push   %ebp
    2a01:	89 e5                	mov    %esp,%ebp
    2a03:	83 ec 08             	sub    $0x8,%esp
    2a06:	8b 45 08             	mov    0x8(%ebp),%eax
    2a09:	80 38 00             	cmpb   $0x0,(%eax)
    2a0c:	74 0c                	je     2a1a <ddf_fun_offline+0x1a>
    2a0e:	8b 40 04             	mov    0x4(%eax),%eax
    2a11:	89 45 08             	mov    %eax,0x8(%ebp)
    2a14:	c9                   	leave  
    2a15:	e9 26 a6 00 00       	jmp    d040 <devman_drv_fun_offline@plt>
    2a1a:	50                   	push   %eax
    2a1b:	68 55 03 00 00       	push   $0x355
    2a20:	68 6f af 00 00       	push   $0xaf6f
    2a25:	68 3e b0 00 00       	push   $0xb03e
    2a2a:	e8 c1 a4 00 00       	call   cef0 <assert_abort@plt>
    2a2f:	90                   	nop

00002a30 <ddf_fun_add_match_id>:
    2a30:	55                   	push   %ebp
    2a31:	89 e5                	mov    %esp,%ebp
    2a33:	57                   	push   %edi
    2a34:	56                   	push   %esi
    2a35:	53                   	push   %ebx
    2a36:	83 ec 0c             	sub    $0xc,%esp
    2a39:	8b 5d 08             	mov    0x8(%ebp),%ebx
    2a3c:	8b 75 10             	mov    0x10(%ebp),%esi
    2a3f:	80 3b 00             	cmpb   $0x0,(%ebx)
    2a42:	0f 85 89 00 00 00    	jne    2ad1 <ddf_fun_add_match_id+0xa1>
    2a48:	83 7b 10 01          	cmpl   $0x1,0x10(%ebx)
    2a4c:	75 6e                	jne    2abc <ddf_fun_add_match_id+0x8c>
    2a4e:	83 ec 0c             	sub    $0xc,%esp
    2a51:	6a 10                	push   $0x10
    2a53:	e8 a8 a3 00 00       	call   ce00 <malloc@plt>
    2a58:	83 c4 0c             	add    $0xc,%esp
    2a5b:	89 c7                	mov    %eax,%edi
    2a5d:	6a 10                	push   $0x10
    2a5f:	6a 00                	push   $0x0
    2a61:	50                   	push   %eax
    2a62:	e8 19 a6 00 00       	call   d080 <memset@plt>
    2a67:	8b 55 0c             	mov    0xc(%ebp),%edx
    2a6a:	58                   	pop    %eax
    2a6b:	52                   	push   %edx
    2a6c:	e8 5f a5 00 00       	call   cfd0 <str_dup@plt>
    2a71:	8d 53 18             	lea    0x18(%ebx),%edx
    2a74:	89 47 08             	mov    %eax,0x8(%edi)
    2a77:	8b 43 1c             	mov    0x1c(%ebx),%eax
    2a7a:	83 c4 10             	add    $0x10,%esp
    2a7d:	89 77 0c             	mov    %esi,0xc(%edi)
    2a80:	39 c2                	cmp    %eax,%edx
    2a82:	74 18                	je     2a9c <ddf_fun_add_match_id+0x6c>
    2a84:	39 70 0c             	cmp    %esi,0xc(%eax)
    2a87:	73 0c                	jae    2a95 <ddf_fun_add_match_id+0x65>
    2a89:	eb 2d                	jmp    2ab8 <ddf_fun_add_match_id+0x88>
    2a8b:	90                   	nop
    2a8c:	8d 74 26 00          	lea    0x0(%esi,%eiz,1),%esi
    2a90:	3b 70 0c             	cmp    0xc(%eax),%esi
    2a93:	77 23                	ja     2ab8 <ddf_fun_add_match_id+0x88>
    2a95:	8b 40 04             	mov    0x4(%eax),%eax
    2a98:	39 c2                	cmp    %eax,%edx
    2a9a:	75 f4                	jne    2a90 <ddf_fun_add_match_id+0x60>
    2a9c:	8b 02                	mov    (%edx),%eax
    2a9e:	89 57 04             	mov    %edx,0x4(%edi)
    2aa1:	89 07                	mov    %eax,(%edi)
    2aa3:	8b 02                	mov    (%edx),%eax
    2aa5:	89 78 04             	mov    %edi,0x4(%eax)
    2aa8:	89 3a                	mov    %edi,(%edx)
    2aaa:	8d 65 f4             	lea    -0xc(%ebp),%esp
    2aad:	31 c0                	xor    %eax,%eax
    2aaf:	5b                   	pop    %ebx
    2ab0:	5e                   	pop    %esi
    2ab1:	5f                   	pop    %edi
    2ab2:	5d                   	pop    %ebp
    2ab3:	c3                   	ret    
    2ab4:	8d 74 26 00          	lea    0x0(%esi,%eiz,1),%esi
    2ab8:	89 c2                	mov    %eax,%edx
    2aba:	eb e0                	jmp    2a9c <ddf_fun_add_match_id+0x6c>
    2abc:	51                   	push   %ecx
    2abd:	68 6f 03 00 00       	push   $0x36f
    2ac2:	68 6f af 00 00       	push   $0xaf6f
    2ac7:	68 51 b0 00 00       	push   $0xb051
    2acc:	e8 1f a4 00 00       	call   cef0 <assert_abort@plt>
    2ad1:	53                   	push   %ebx
    2ad2:	68 6e 03 00 00       	push   $0x36e
    2ad7:	68 6f af 00 00       	push   $0xaf6f
    2adc:	68 ee af 00 00       	push   $0xafee
    2ae1:	e8 0a a4 00 00       	call   cef0 <assert_abort@plt>
    2ae6:	8d 76 00             	lea    0x0(%esi),%esi
    2ae9:	8d bc 27 00 00 00 00 	lea    0x0(%edi,%eiz,1),%edi

00002af0 <ddf_fun_set_ops>:
    2af0:	55                   	push   %ebp
    2af1:	89 e5                	mov    %esp,%ebp
    2af3:	83 ec 08             	sub    $0x8,%esp
    2af6:	8b 45 08             	mov    0x8(%ebp),%eax
    2af9:	8b 48 28             	mov    0x28(%eax),%ecx
    2afc:	85 c9                	test   %ecx,%ecx
    2afe:	75 08                	jne    2b08 <ddf_fun_set_ops+0x18>
    2b00:	8b 55 0c             	mov    0xc(%ebp),%edx
    2b03:	89 50 24             	mov    %edx,0x24(%eax)
    2b06:	c9                   	leave  
    2b07:	c3                   	ret    
    2b08:	50                   	push   %eax
    2b09:	68 7f 03 00 00       	push   $0x37f
    2b0e:	68 6f af 00 00       	push   $0xaf6f
    2b13:	68 69 b0 00 00       	push   $0xb069
    2b18:	e8 d3 a3 00 00       	call   cef0 <assert_abort@plt>
    2b1d:	8d 76 00             	lea    0x0(%esi),%esi

00002b20 <ddf_fun_set_conn_handler>:
    2b20:	55                   	push   %ebp
    2b21:	89 e5                	mov    %esp,%ebp
    2b23:	83 ec 08             	sub    $0x8,%esp
    2b26:	8b 45 08             	mov    0x8(%ebp),%eax
    2b29:	8b 48 24             	mov    0x24(%eax),%ecx
    2b2c:	85 c9                	test   %ecx,%ecx
    2b2e:	75 08                	jne    2b38 <ddf_fun_set_conn_handler+0x18>
    2b30:	8b 55 0c             	mov    0xc(%ebp),%edx
    2b33:	89 50 28             	mov    %edx,0x28(%eax)
    2b36:	c9                   	leave  
    2b37:	c3                   	ret    
    2b38:	50                   	push   %eax
    2b39:	68 89 03 00 00       	push   $0x389
    2b3e:	68 6f af 00 00       	push   $0xaf6f
    2b43:	68 83 b0 00 00       	push   $0xb083
    2b48:	e8 a3 a3 00 00       	call   cef0 <assert_abort@plt>
    2b4d:	8d 76 00             	lea    0x0(%esi),%esi

00002b50 <ddf_fun_add_to_category>:
    2b50:	55                   	push   %ebp
    2b51:	89 e5                	mov    %esp,%ebp
    2b53:	83 ec 08             	sub    $0x8,%esp
    2b56:	8b 45 08             	mov    0x8(%ebp),%eax
    2b59:	8b 55 0c             	mov    0xc(%ebp),%edx
    2b5c:	80 38 00             	cmpb   $0x0,(%eax)
    2b5f:	74 15                	je     2b76 <ddf_fun_add_to_category+0x26>
    2b61:	83 78 10 02          	cmpl   $0x2,0x10(%eax)
    2b65:	75 24                	jne    2b8b <ddf_fun_add_to_category+0x3b>
    2b67:	89 55 0c             	mov    %edx,0xc(%ebp)
    2b6a:	8b 40 04             	mov    0x4(%eax),%eax
    2b6d:	89 45 08             	mov    %eax,0x8(%ebp)
    2b70:	c9                   	leave  
    2b71:	e9 9a a2 00 00       	jmp    ce10 <devman_add_device_to_category@plt>
    2b76:	52                   	push   %edx
    2b77:	68 9c 03 00 00       	push   $0x39c
    2b7c:	68 6f af 00 00       	push   $0xaf6f
    2b81:	68 3e b0 00 00       	push   $0xb03e
    2b86:	e8 65 a3 00 00       	call   cef0 <assert_abort@plt>
    2b8b:	50                   	push   %eax
    2b8c:	68 9d 03 00 00       	push   $0x39d
    2b91:	68 6f af 00 00       	push   $0xaf6f
    2b96:	68 94 b0 00 00       	push   $0xb094
    2b9b:	e8 50 a3 00 00       	call   cef0 <assert_abort@plt>

00002ba0 <ddf_driver_main>:
    2ba0:	55                   	push   %ebp
    2ba1:	89 e5                	mov    %esp,%ebp
    2ba3:	56                   	push   %esi
    2ba4:	53                   	push   %ebx
    2ba5:	83 ec 10             	sub    $0x10,%esp
    2ba8:	8d 75 f4             	lea    -0xc(%ebp),%esi
    2bab:	8b 45 08             	mov    0x8(%ebp),%eax
    2bae:	56                   	push   %esi
    2baf:	a3 14 f5 00 00       	mov    %eax,0xf514
    2bb4:	6a 00                	push   $0x0
    2bb6:	68 00 1f 00 00       	push   $0x1f00
    2bbb:	68 41 26 9b c9       	push   $0xc99b2641
    2bc0:	e8 cb a5 00 00       	call   d190 <async_create_port@plt>
    2bc5:	83 c4 10             	add    $0x10,%esp
    2bc8:	89 c3                	mov    %eax,%ebx
    2bca:	85 c0                	test   %eax,%eax
    2bcc:	74 0a                	je     2bd8 <ddf_driver_main+0x38>
    2bce:	8d 65 f8             	lea    -0x8(%ebp),%esp
    2bd1:	89 d8                	mov    %ebx,%eax
    2bd3:	5b                   	pop    %ebx
    2bd4:	5e                   	pop    %esi
    2bd5:	5d                   	pop    %ebp
    2bd6:	c3                   	ret    
    2bd7:	90                   	nop
    2bd8:	56                   	push   %esi
    2bd9:	6a 00                	push   $0x0
    2bdb:	68 20 1f 00 00       	push   $0x1f20
    2be0:	68 41 26 9b db       	push   $0xdb9b2641
    2be5:	e8 a6 a5 00 00       	call   d190 <async_create_port@plt>
    2bea:	83 c4 10             	add    $0x10,%esp
    2bed:	89 c3                	mov    %eax,%ebx
    2bef:	85 c0                	test   %eax,%eax
    2bf1:	75 db                	jne    2bce <ddf_driver_main+0x2e>
    2bf3:	51                   	push   %ecx
    2bf4:	51                   	push   %ecx
    2bf5:	6a 00                	push   $0x0
    2bf7:	68 10 1f 00 00       	push   $0x1f10
    2bfc:	e8 0f a6 00 00       	call   d210 <async_set_fallback_port_handler@plt>
    2c01:	a1 14 f5 00 00       	mov    0xf514,%eax
    2c06:	8b 30                	mov    (%eax),%esi
    2c08:	5b                   	pop    %ebx
    2c09:	56                   	push   %esi
    2c0a:	e8 61 a4 00 00       	call   d070 <devman_driver_register@plt>
    2c0f:	83 c4 10             	add    $0x10,%esp
    2c12:	89 c3                	mov    %eax,%ebx
    2c14:	85 c0                	test   %eax,%eax
    2c16:	74 30                	je     2c48 <ddf_driver_main+0xa8>
    2c18:	b8 ae b0 00 00       	mov    $0xb0ae,%eax
    2c1d:	83 fb f7             	cmp    $0xfffffff7,%ebx
    2c20:	74 0c                	je     2c2e <ddf_driver_main+0x8e>
    2c22:	83 ec 0c             	sub    $0xc,%esp
    2c25:	53                   	push   %ebx
    2c26:	e8 15 a5 00 00       	call   d140 <str_error@plt>
    2c2b:	83 c4 10             	add    $0x10,%esp
    2c2e:	52                   	push   %edx
    2c2f:	52                   	push   %edx
    2c30:	50                   	push   %eax
    2c31:	68 3c b2 00 00       	push   $0xb23c
    2c36:	e8 e5 a0 00 00       	call   cd20 <printf@plt>
    2c3b:	83 c4 10             	add    $0x10,%esp
    2c3e:	8d 65 f8             	lea    -0x8(%ebp),%esp
    2c41:	89 d8                	mov    %ebx,%eax
    2c43:	5b                   	pop    %ebx
    2c44:	5e                   	pop    %esi
    2c45:	5d                   	pop    %ebp
    2c46:	c3                   	ret    
    2c47:	90                   	nop
    2c48:	83 ec 0c             	sub    $0xc,%esp
    2c4b:	6a 00                	push   $0x0
    2c4d:	e8 9e a0 00 00       	call   ccf0 <task_retval@plt>
    2c52:	83 c4 10             	add    $0x10,%esp
    2c55:	89 c3                	mov    %eax,%ebx
    2c57:	85 c0                	test   %eax,%eax
    2c59:	0f 85 6f ff ff ff    	jne    2bce <ddf_driver_main+0x2e>
    2c5f:	83 c8 ff             	or     $0xffffffff,%eax
    2c62:	f0 0f c1 05 0c f5 00 	lock xadd %eax,0xf50c
    2c69:	00 
    2c6a:	48                   	dec    %eax
    2c6b:	78 12                	js     2c7f <ddf_driver_main+0xdf>
    2c6d:	83 ec 0c             	sub    $0xc,%esp
    2c70:	6a 03                	push   $0x3
    2c72:	e8 69 a5 00 00       	call   d1e0 <fibril_switch@plt>
    2c77:	83 c4 10             	add    $0x10,%esp
    2c7a:	e9 4f ff ff ff       	jmp    2bce <ddf_driver_main+0x2e>
    2c7f:	50                   	push   %eax
    2c80:	6a 0b                	push   $0xb
    2c82:	6a 00                	push   $0x0
    2c84:	6a 00                	push   $0x0
    2c86:	6a 00                	push   $0x0
    2c88:	6a 00                	push   $0x0
    2c8a:	6a 00                	push   $0x0
    2c8c:	68 0c f5 00 00       	push   $0xf50c
    2c91:	ff 15 08 f5 00 00    	call   *0xf508
    2c97:	83 c4 20             	add    $0x20,%esp
    2c9a:	eb d1                	jmp    2c6d <ddf_driver_main+0xcd>
    2c9c:	66 90                	xchg   %ax,%ax
    2c9e:	66 90                	xchg   %ax,%ax

00002ca0 <get_remote_iface>:
    2ca0:	55                   	push   %ebp
    2ca1:	89 e5                	mov    %esp,%ebp
    2ca3:	83 ec 08             	sub    $0x8,%esp
    2ca6:	8b 45 08             	mov    0x8(%ebp),%eax
    2ca9:	83 f8 0e             	cmp    $0xe,%eax
    2cac:	77 09                	ja     2cb7 <get_remote_iface+0x17>
    2cae:	8b 04 85 a0 b2 00 00 	mov    0xb2a0(,%eax,4),%eax
    2cb5:	c9                   	leave  
    2cb6:	c3                   	ret    
    2cb7:	50                   	push   %eax
    2cb8:	6a 4f                	push   $0x4f
    2cba:	68 8c b2 00 00       	push   $0xb28c
    2cbf:	68 80 af 00 00       	push   $0xaf80
    2cc4:	e8 27 a2 00 00       	call   cef0 <assert_abort@plt>
    2cc9:	8d b4 26 00 00 00 00 	lea    0x0(%esi,%eiz,1),%esi

00002cd0 <get_remote_method>:
    2cd0:	55                   	push   %ebp
    2cd1:	89 e5                	mov    %esp,%ebp
    2cd3:	8b 55 08             	mov    0x8(%ebp),%edx
    2cd6:	8b 45 0c             	mov    0xc(%ebp),%eax
    2cd9:	39 02                	cmp    %eax,(%edx)
    2cdb:	76 0b                	jbe    2ce8 <get_remote_method+0x18>
    2cdd:	8b 52 04             	mov    0x4(%edx),%edx
    2ce0:	5d                   	pop    %ebp
    2ce1:	8b 04 82             	mov    (%edx,%eax,4),%eax
    2ce4:	c3                   	ret    
    2ce5:	8d 76 00             	lea    0x0(%esi),%esi
    2ce8:	31 c0                	xor    %eax,%eax
    2cea:	5d                   	pop    %ebp
    2ceb:	c3                   	ret    
    2cec:	8d 74 26 00          	lea    0x0(%esi,%eiz,1),%esi

00002cf0 <is_valid_iface_idx>:
    2cf0:	55                   	push   %ebp
    2cf1:	89 e5                	mov    %esp,%ebp
    2cf3:	83 7d 08 0e          	cmpl   $0xe,0x8(%ebp)
    2cf7:	5d                   	pop    %ebp
    2cf8:	0f 96 c0             	setbe  %al
    2cfb:	c3                   	ret    
    2cfc:	66 90                	xchg   %ax,%ax
    2cfe:	66 90                	xchg   %ax,%ax

00002d00 <register_interrupt_handler>:
    2d00:	55                   	push   %ebp
    2d01:	89 e5                	mov    %esp,%ebp
    2d03:	83 ec 14             	sub    $0x14,%esp
    2d06:	8b 45 08             	mov    0x8(%ebp),%eax
    2d09:	8b 55 14             	mov    0x14(%ebp),%edx
    2d0c:	8b 4d 10             	mov    0x10(%ebp),%ecx
    2d0f:	52                   	push   %edx
    2d10:	50                   	push   %eax
    2d11:	51                   	push   %ecx
    2d12:	8b 00                	mov    (%eax),%eax
    2d14:	50                   	push   %eax
    2d15:	8b 45 0c             	mov    0xc(%ebp),%eax
    2d18:	50                   	push   %eax
    2d19:	e8 22 a1 00 00       	call   ce40 <async_irq_subscribe@plt>
    2d1e:	c9                   	leave  
    2d1f:	c3                   	ret    

00002d20 <unregister_interrupt_handler>:
    2d20:	55                   	push   %ebp
    2d21:	89 e5                	mov    %esp,%ebp
    2d23:	8b 55 08             	mov    0x8(%ebp),%edx
    2d26:	8b 45 0c             	mov    0xc(%ebp),%eax
    2d29:	8b 12                	mov    (%edx),%edx
    2d2b:	89 45 08             	mov    %eax,0x8(%ebp)
    2d2e:	89 55 0c             	mov    %edx,0xc(%ebp)
    2d31:	5d                   	pop    %ebp
    2d32:	e9 99 a0 00 00       	jmp    cdd0 <async_irq_unsubscribe@plt>
    2d37:	66 90                	xchg   %ax,%ax
    2d39:	66 90                	xchg   %ax,%ax
    2d3b:	66 90                	xchg   %ax,%ax
    2d3d:	66 90                	xchg   %ax,%ax
    2d3f:	90                   	nop

00002d40 <ddf_log_init>:
    2d40:	55                   	push   %ebp
    2d41:	89 e5                	mov    %esp,%ebp
    2d43:	5d                   	pop    %ebp
    2d44:	e9 27 a0 00 00       	jmp    cd70 <log_init@plt>
    2d49:	8d b4 26 00 00 00 00 	lea    0x0(%esi,%eiz,1),%esi

00002d50 <ddf_msg>:
    2d50:	55                   	push   %ebp
    2d51:	89 e5                	mov    %esp,%ebp
    2d53:	83 ec 08             	sub    $0x8,%esp
    2d56:	8d 45 10             	lea    0x10(%ebp),%eax
    2d59:	8b 55 0c             	mov    0xc(%ebp),%edx
    2d5c:	8b 4d 08             	mov    0x8(%ebp),%ecx
    2d5f:	50                   	push   %eax
    2d60:	52                   	push   %edx
    2d61:	51                   	push   %ecx
    2d62:	6a ff                	push   $0xffffffff
    2d64:	e8 57 a1 00 00       	call   cec0 <log_msgv@plt>
    2d69:	83 c4 10             	add    $0x10,%esp
    2d6c:	c9                   	leave  
    2d6d:	c3                   	ret    
    2d6e:	66 90                	xchg   %ax,%ax

00002d70 <remote_audio_mixer_set_item_level>:
    2d70:	55                   	push   %ebp
    2d71:	89 e5                	mov    %esp,%ebp
    2d73:	53                   	push   %ebx
    2d74:	51                   	push   %ecx
    2d75:	8b 45 0c             	mov    0xc(%ebp),%eax
    2d78:	8b 4d 08             	mov    0x8(%ebp),%ecx
    2d7b:	8b 5d 10             	mov    0x10(%ebp),%ebx
    2d7e:	8b 55 14             	mov    0x14(%ebp),%edx
    2d81:	8b 40 0c             	mov    0xc(%eax),%eax
    2d84:	85 c0                	test   %eax,%eax
    2d86:	74 20                	je     2da8 <remote_audio_mixer_set_item_level+0x38>
    2d88:	83 ec 04             	sub    $0x4,%esp
    2d8b:	ff 72 0c             	pushl  0xc(%edx)
    2d8e:	8b 52 08             	mov    0x8(%edx),%edx
    2d91:	52                   	push   %edx
    2d92:	51                   	push   %ecx
    2d93:	ff d0                	call   *%eax
    2d95:	89 5d 08             	mov    %ebx,0x8(%ebp)
    2d98:	83 c4 10             	add    $0x10,%esp
    2d9b:	8b 5d fc             	mov    -0x4(%ebp),%ebx
    2d9e:	89 45 0c             	mov    %eax,0xc(%ebp)
    2da1:	c9                   	leave  
    2da2:	e9 b9 a0 00 00       	jmp    ce60 <async_answer_0@plt>
    2da7:	90                   	nop
    2da8:	89 5d 08             	mov    %ebx,0x8(%ebp)
    2dab:	8b 5d fc             	mov    -0x4(%ebp),%ebx
    2dae:	c7 45 0c f5 ff ff ff 	movl   $0xfffffff5,0xc(%ebp)
    2db5:	c9                   	leave  
    2db6:	e9 a5 a0 00 00       	jmp    ce60 <async_answer_0@plt>
    2dbb:	90                   	nop
    2dbc:	8d 74 26 00          	lea    0x0(%esi,%eiz,1),%esi

00002dc0 <remote_audio_mixer_get_item_level>:
    2dc0:	55                   	push   %ebp
    2dc1:	89 e5                	mov    %esp,%ebp
    2dc3:	83 ec 18             	sub    $0x18,%esp
    2dc6:	8b 45 0c             	mov    0xc(%ebp),%eax
    2dc9:	8b 40 08             	mov    0x8(%eax),%eax
    2dcc:	85 c0                	test   %eax,%eax
    2dce:	74 30                	je     2e00 <remote_audio_mixer_get_item_level+0x40>
    2dd0:	8b 55 14             	mov    0x14(%ebp),%edx
    2dd3:	c7 45 f4 00 00 00 00 	movl   $0x0,-0xc(%ebp)
    2dda:	8b 52 08             	mov    0x8(%edx),%edx
    2ddd:	51                   	push   %ecx
    2dde:	8d 4d f4             	lea    -0xc(%ebp),%ecx
    2de1:	51                   	push   %ecx
    2de2:	52                   	push   %edx
    2de3:	8b 55 08             	mov    0x8(%ebp),%edx
    2de6:	52                   	push   %edx
    2de7:	ff d0                	call   *%eax
    2de9:	83 c4 0c             	add    $0xc,%esp
    2dec:	8b 4d f4             	mov    -0xc(%ebp),%ecx
    2def:	51                   	push   %ecx
    2df0:	50                   	push   %eax
    2df1:	8b 45 10             	mov    0x10(%ebp),%eax
    2df4:	50                   	push   %eax
    2df5:	e8 26 a3 00 00       	call   d120 <async_answer_1@plt>
    2dfa:	83 c4 10             	add    $0x10,%esp
    2dfd:	c9                   	leave  
    2dfe:	c3                   	ret    
    2dff:	90                   	nop
    2e00:	50                   	push   %eax
    2e01:	50                   	push   %eax
    2e02:	8b 45 10             	mov    0x10(%ebp),%eax
    2e05:	6a f5                	push   $0xfffffff5
    2e07:	50                   	push   %eax
    2e08:	e8 53 a0 00 00       	call   ce60 <async_answer_0@plt>
    2e0d:	83 c4 10             	add    $0x10,%esp
    2e10:	c9                   	leave  
    2e11:	c3                   	ret    
    2e12:	8d b4 26 00 00 00 00 	lea    0x0(%esi,%eiz,1),%esi
    2e19:	8d bc 27 00 00 00 00 	lea    0x0(%edi,%eiz,1),%edi

00002e20 <remote_audio_mixer_get_item_info>:
    2e20:	55                   	push   %ebp
    2e21:	89 e5                	mov    %esp,%ebp
    2e23:	56                   	push   %esi
    2e24:	53                   	push   %ebx
    2e25:	83 ec 10             	sub    $0x10,%esp
    2e28:	8b 45 0c             	mov    0xc(%ebp),%eax
    2e2b:	8b 40 04             	mov    0x4(%eax),%eax
    2e2e:	85 c0                	test   %eax,%eax
    2e30:	0f 84 c2 00 00 00    	je     2ef8 <remote_audio_mixer_get_item_info+0xd8>
    2e36:	8b 55 14             	mov    0x14(%ebp),%edx
    2e39:	8d 4d ec             	lea    -0x14(%ebp),%ecx
    2e3c:	c7 45 e8 00 00 00 00 	movl   $0x0,-0x18(%ebp)
    2e43:	c7 45 ec 00 00 00 00 	movl   $0x0,-0x14(%ebp)
    2e4a:	8b 52 08             	mov    0x8(%edx),%edx
    2e4d:	51                   	push   %ecx
    2e4e:	8d 4d e8             	lea    -0x18(%ebp),%ecx
    2e51:	51                   	push   %ecx
    2e52:	8b 4d 08             	mov    0x8(%ebp),%ecx
    2e55:	52                   	push   %edx
    2e56:	51                   	push   %ecx
    2e57:	ff d0                	call   *%eax
    2e59:	83 c4 10             	add    $0x10,%esp
    2e5c:	89 c6                	mov    %eax,%esi
    2e5e:	8b 45 e8             	mov    -0x18(%ebp),%eax
    2e61:	85 c0                	test   %eax,%eax
    2e63:	74 5b                	je     2ec0 <remote_audio_mixer_get_item_info+0xa0>
    2e65:	83 ec 0c             	sub    $0xc,%esp
    2e68:	50                   	push   %eax
    2e69:	e8 92 a2 00 00       	call   d100 <str_size@plt>
    2e6e:	8b 55 10             	mov    0x10(%ebp),%edx
    2e71:	8d 58 01             	lea    0x1(%eax),%ebx
    2e74:	8b 45 ec             	mov    -0x14(%ebp),%eax
    2e77:	50                   	push   %eax
    2e78:	53                   	push   %ebx
    2e79:	56                   	push   %esi
    2e7a:	52                   	push   %edx
    2e7b:	e8 20 a1 00 00       	call   cfa0 <async_answer_2@plt>
    2e80:	83 c4 20             	add    $0x20,%esp
    2e83:	85 f6                	test   %esi,%esi
    2e85:	75 2f                	jne    2eb6 <remote_audio_mixer_get_item_info+0x96>
    2e87:	85 db                	test   %ebx,%ebx
    2e89:	74 2b                	je     2eb6 <remote_audio_mixer_get_item_info+0x96>
    2e8b:	50                   	push   %eax
    2e8c:	50                   	push   %eax
    2e8d:	8d 45 f0             	lea    -0x10(%ebp),%eax
    2e90:	50                   	push   %eax
    2e91:	8d 45 f4             	lea    -0xc(%ebp),%eax
    2e94:	50                   	push   %eax
    2e95:	e8 f6 a1 00 00       	call   d090 <async_data_read_receive@plt>
    2e9a:	83 c4 10             	add    $0x10,%esp
    2e9d:	84 c0                	test   %al,%al
    2e9f:	74 6f                	je     2f10 <remote_audio_mixer_get_item_info+0xf0>
    2ea1:	3b 5d f0             	cmp    -0x10(%ebp),%ebx
    2ea4:	74 3a                	je     2ee0 <remote_audio_mixer_get_item_info+0xc0>
    2ea6:	50                   	push   %eax
    2ea7:	50                   	push   %eax
    2ea8:	8b 45 f4             	mov    -0xc(%ebp),%eax
    2eab:	6a fd                	push   $0xfffffffd
    2ead:	50                   	push   %eax
    2eae:	e8 ad 9f 00 00       	call   ce60 <async_answer_0@plt>
    2eb3:	83 c4 10             	add    $0x10,%esp
    2eb6:	8d 65 f8             	lea    -0x8(%ebp),%esp
    2eb9:	5b                   	pop    %ebx
    2eba:	5e                   	pop    %esi
    2ebb:	5d                   	pop    %ebp
    2ebc:	c3                   	ret    
    2ebd:	8d 76 00             	lea    0x0(%esi),%esi
    2ec0:	8b 45 ec             	mov    -0x14(%ebp),%eax
    2ec3:	8b 55 10             	mov    0x10(%ebp),%edx
    2ec6:	50                   	push   %eax
    2ec7:	6a 00                	push   $0x0
    2ec9:	56                   	push   %esi
    2eca:	52                   	push   %edx
    2ecb:	e8 d0 a0 00 00       	call   cfa0 <async_answer_2@plt>
    2ed0:	83 c4 10             	add    $0x10,%esp
    2ed3:	8d 65 f8             	lea    -0x8(%ebp),%esp
    2ed6:	5b                   	pop    %ebx
    2ed7:	5e                   	pop    %esi
    2ed8:	5d                   	pop    %ebp
    2ed9:	c3                   	ret    
    2eda:	8d b6 00 00 00 00    	lea    0x0(%esi),%esi
    2ee0:	8b 75 f4             	mov    -0xc(%ebp),%esi
    2ee3:	51                   	push   %ecx
    2ee4:	53                   	push   %ebx
    2ee5:	8b 5d e8             	mov    -0x18(%ebp),%ebx
    2ee8:	53                   	push   %ebx
    2ee9:	56                   	push   %esi
    2eea:	e8 c1 9e 00 00       	call   cdb0 <async_data_read_finalize@plt>
    2eef:	83 c4 10             	add    $0x10,%esp
    2ef2:	eb c2                	jmp    2eb6 <remote_audio_mixer_get_item_info+0x96>
    2ef4:	8d 74 26 00          	lea    0x0(%esi,%eiz,1),%esi
    2ef8:	8b 75 10             	mov    0x10(%ebp),%esi
    2efb:	53                   	push   %ebx
    2efc:	53                   	push   %ebx
    2efd:	6a f5                	push   $0xfffffff5
    2eff:	56                   	push   %esi
    2f00:	e8 5b 9f 00 00       	call   ce60 <async_answer_0@plt>
    2f05:	83 c4 10             	add    $0x10,%esp
    2f08:	8d 65 f8             	lea    -0x8(%ebp),%esp
    2f0b:	5b                   	pop    %ebx
    2f0c:	5e                   	pop    %esi
    2f0d:	5d                   	pop    %ebp
    2f0e:	c3                   	ret    
    2f0f:	90                   	nop
    2f10:	50                   	push   %eax
    2f11:	50                   	push   %eax
    2f12:	8b 45 f4             	mov    -0xc(%ebp),%eax
    2f15:	6a f8                	push   $0xfffffff8
    2f17:	50                   	push   %eax
    2f18:	e8 43 9f 00 00       	call   ce60 <async_answer_0@plt>
    2f1d:	83 c4 10             	add    $0x10,%esp
    2f20:	eb 94                	jmp    2eb6 <remote_audio_mixer_get_item_info+0x96>
    2f22:	8d b4 26 00 00 00 00 	lea    0x0(%esi,%eiz,1),%esi
    2f29:	8d bc 27 00 00 00 00 	lea    0x0(%edi,%eiz,1),%edi

00002f30 <remote_audio_mixer_get_info>:
    2f30:	55                   	push   %ebp
    2f31:	89 e5                	mov    %esp,%ebp
    2f33:	56                   	push   %esi
    2f34:	53                   	push   %ebx
    2f35:	83 ec 10             	sub    $0x10,%esp
    2f38:	8b 45 0c             	mov    0xc(%ebp),%eax
    2f3b:	8b 00                	mov    (%eax),%eax
    2f3d:	85 c0                	test   %eax,%eax
    2f3f:	0f 84 bb 00 00 00    	je     3000 <remote_audio_mixer_get_info+0xd0>
    2f45:	8d 55 ec             	lea    -0x14(%ebp),%edx
    2f48:	8b 5d 08             	mov    0x8(%ebp),%ebx
    2f4b:	c7 45 e8 00 00 00 00 	movl   $0x0,-0x18(%ebp)
    2f52:	c7 45 ec 00 00 00 00 	movl   $0x0,-0x14(%ebp)
    2f59:	51                   	push   %ecx
    2f5a:	52                   	push   %edx
    2f5b:	8d 55 e8             	lea    -0x18(%ebp),%edx
    2f5e:	52                   	push   %edx
    2f5f:	53                   	push   %ebx
    2f60:	ff d0                	call   *%eax
    2f62:	83 c4 10             	add    $0x10,%esp
    2f65:	89 c6                	mov    %eax,%esi
    2f67:	8b 45 e8             	mov    -0x18(%ebp),%eax
    2f6a:	85 c0                	test   %eax,%eax
    2f6c:	74 5a                	je     2fc8 <remote_audio_mixer_get_info+0x98>
    2f6e:	83 ec 0c             	sub    $0xc,%esp
    2f71:	50                   	push   %eax
    2f72:	e8 89 a1 00 00       	call   d100 <str_size@plt>
    2f77:	8b 55 10             	mov    0x10(%ebp),%edx
    2f7a:	8d 58 01             	lea    0x1(%eax),%ebx
    2f7d:	8b 45 ec             	mov    -0x14(%ebp),%eax
    2f80:	50                   	push   %eax
    2f81:	53                   	push   %ebx
    2f82:	56                   	push   %esi
    2f83:	52                   	push   %edx
    2f84:	e8 17 a0 00 00       	call   cfa0 <async_answer_2@plt>
    2f89:	83 c4 20             	add    $0x20,%esp
    2f8c:	85 f6                	test   %esi,%esi
    2f8e:	75 2f                	jne    2fbf <remote_audio_mixer_get_info+0x8f>
    2f90:	85 db                	test   %ebx,%ebx
    2f92:	74 2b                	je     2fbf <remote_audio_mixer_get_info+0x8f>
    2f94:	50                   	push   %eax
    2f95:	50                   	push   %eax
    2f96:	8d 45 f0             	lea    -0x10(%ebp),%eax
    2f99:	50                   	push   %eax
    2f9a:	8d 45 f4             	lea    -0xc(%ebp),%eax
    2f9d:	50                   	push   %eax
    2f9e:	e8 ed a0 00 00       	call   d090 <async_data_read_receive@plt>
    2fa3:	83 c4 10             	add    $0x10,%esp
    2fa6:	84 c0                	test   %al,%al
    2fa8:	74 6e                	je     3018 <remote_audio_mixer_get_info+0xe8>
    2faa:	3b 5d f0             	cmp    -0x10(%ebp),%ebx
    2fad:	74 39                	je     2fe8 <remote_audio_mixer_get_info+0xb8>
    2faf:	50                   	push   %eax
    2fb0:	50                   	push   %eax
    2fb1:	8b 45 f4             	mov    -0xc(%ebp),%eax
    2fb4:	6a fd                	push   $0xfffffffd
    2fb6:	50                   	push   %eax
    2fb7:	e8 a4 9e 00 00       	call   ce60 <async_answer_0@plt>
    2fbc:	83 c4 10             	add    $0x10,%esp
    2fbf:	8d 65 f8             	lea    -0x8(%ebp),%esp
    2fc2:	5b                   	pop    %ebx
    2fc3:	5e                   	pop    %esi
    2fc4:	5d                   	pop    %ebp
    2fc5:	c3                   	ret    
    2fc6:	66 90                	xchg   %ax,%ax
    2fc8:	8b 45 ec             	mov    -0x14(%ebp),%eax
    2fcb:	8b 55 10             	mov    0x10(%ebp),%edx
    2fce:	50                   	push   %eax
    2fcf:	6a 00                	push   $0x0
    2fd1:	56                   	push   %esi
    2fd2:	52                   	push   %edx
    2fd3:	e8 c8 9f 00 00       	call   cfa0 <async_answer_2@plt>
    2fd8:	83 c4 10             	add    $0x10,%esp
    2fdb:	8d 65 f8             	lea    -0x8(%ebp),%esp
    2fde:	5b                   	pop    %ebx
    2fdf:	5e                   	pop    %esi
    2fe0:	5d                   	pop    %ebp
    2fe1:	c3                   	ret    
    2fe2:	8d b6 00 00 00 00    	lea    0x0(%esi),%esi
    2fe8:	8b 75 f4             	mov    -0xc(%ebp),%esi
    2feb:	51                   	push   %ecx
    2fec:	53                   	push   %ebx
    2fed:	8b 5d e8             	mov    -0x18(%ebp),%ebx
    2ff0:	53                   	push   %ebx
    2ff1:	56                   	push   %esi
    2ff2:	e8 b9 9d 00 00       	call   cdb0 <async_data_read_finalize@plt>
    2ff7:	83 c4 10             	add    $0x10,%esp
    2ffa:	eb c3                	jmp    2fbf <remote_audio_mixer_get_info+0x8f>
    2ffc:	8d 74 26 00          	lea    0x0(%esi,%eiz,1),%esi
    3000:	8b 45 10             	mov    0x10(%ebp),%eax
    3003:	56                   	push   %esi
    3004:	56                   	push   %esi
    3005:	6a f5                	push   $0xfffffff5
    3007:	50                   	push   %eax
    3008:	e8 53 9e 00 00       	call   ce60 <async_answer_0@plt>
    300d:	83 c4 10             	add    $0x10,%esp
    3010:	8d 65 f8             	lea    -0x8(%ebp),%esp
    3013:	5b                   	pop    %ebx
    3014:	5e                   	pop    %esi
    3015:	5d                   	pop    %ebp
    3016:	c3                   	ret    
    3017:	90                   	nop
    3018:	50                   	push   %eax
    3019:	50                   	push   %eax
    301a:	8b 45 f4             	mov    -0xc(%ebp),%eax
    301d:	6a f8                	push   $0xfffffff8
    301f:	50                   	push   %eax
    3020:	e8 3b 9e 00 00       	call   ce60 <async_answer_0@plt>
    3025:	83 c4 10             	add    $0x10,%esp
    3028:	eb 95                	jmp    2fbf <remote_audio_mixer_get_info+0x8f>
    302a:	8d b6 00 00 00 00    	lea    0x0(%esi),%esi

00003030 <audio_mixer_get_info>:
    3030:	55                   	push   %ebp
    3031:	89 e5                	mov    %esp,%ebp
    3033:	57                   	push   %edi
    3034:	56                   	push   %esi
    3035:	53                   	push   %ebx
    3036:	83 ec 2c             	sub    $0x2c,%esp
    3039:	8b 75 08             	mov    0x8(%ebp),%esi
    303c:	85 f6                	test   %esi,%esi
    303e:	0f 84 bc 00 00 00    	je     3100 <audio_mixer_get_info+0xd0>
    3044:	50                   	push   %eax
    3045:	8d 45 e4             	lea    -0x1c(%ebp),%eax
    3048:	6a 00                	push   $0x0
    304a:	6a 00                	push   $0x0
    304c:	6a 00                	push   $0x0
    304e:	50                   	push   %eax
    304f:	8d 45 e0             	lea    -0x20(%ebp),%eax
    3052:	50                   	push   %eax
    3053:	6a 00                	push   $0x0
    3055:	6a 00                	push   $0x0
    3057:	6a 00                	push   $0x0
    3059:	6a 00                	push   $0x0
    305b:	68 03 04 00 00       	push   $0x403
    3060:	56                   	push   %esi
    3061:	e8 ea 9d 00 00       	call   ce50 <async_req_fast@plt>
    3066:	83 c4 30             	add    $0x30,%esp
    3069:	89 c3                	mov    %eax,%ebx
    306b:	85 c0                	test   %eax,%eax
    306d:	8b 45 0c             	mov    0xc(%ebp),%eax
    3070:	0f 94 c2             	sete   %dl
    3073:	85 c0                	test   %eax,%eax
    3075:	74 04                	je     307b <audio_mixer_get_info+0x4b>
    3077:	84 d2                	test   %dl,%dl
    3079:	75 1d                	jne    3098 <audio_mixer_get_info+0x68>
    307b:	8b 45 10             	mov    0x10(%ebp),%eax
    307e:	85 c0                	test   %eax,%eax
    3080:	74 57                	je     30d9 <audio_mixer_get_info+0xa9>
    3082:	84 d2                	test   %dl,%dl
    3084:	74 53                	je     30d9 <audio_mixer_get_info+0xa9>
    3086:	8b 4d 10             	mov    0x10(%ebp),%ecx
    3089:	8b 45 e4             	mov    -0x1c(%ebp),%eax
    308c:	89 01                	mov    %eax,(%ecx)
    308e:	89 d8                	mov    %ebx,%eax
    3090:	8d 65 f4             	lea    -0xc(%ebp),%esp
    3093:	5b                   	pop    %ebx
    3094:	5e                   	pop    %esi
    3095:	5f                   	pop    %edi
    3096:	5d                   	pop    %ebp
    3097:	c3                   	ret    
    3098:	8b 45 e0             	mov    -0x20(%ebp),%eax
    309b:	88 55 d4             	mov    %dl,-0x2c(%ebp)
    309e:	57                   	push   %edi
    309f:	57                   	push   %edi
    30a0:	50                   	push   %eax
    30a1:	6a 01                	push   $0x1
    30a3:	e8 68 9e 00 00       	call   cf10 <calloc@plt>
    30a8:	83 c4 10             	add    $0x10,%esp
    30ab:	89 c7                	mov    %eax,%edi
    30ad:	85 c0                	test   %eax,%eax
    30af:	8a 55 d4             	mov    -0x2c(%ebp),%dl
    30b2:	74 53                	je     3107 <audio_mixer_get_info+0xd7>
    30b4:	8b 4d e0             	mov    -0x20(%ebp),%ecx
    30b7:	88 55 d4             	mov    %dl,-0x2c(%ebp)
    30ba:	52                   	push   %edx
    30bb:	51                   	push   %ecx
    30bc:	50                   	push   %eax
    30bd:	56                   	push   %esi
    30be:	e8 dd 9f 00 00       	call   d0a0 <async_data_read_start@plt>
    30c3:	83 c4 10             	add    $0x10,%esp
    30c6:	8a 55 d4             	mov    -0x2c(%ebp),%dl
    30c9:	85 c0                	test   %eax,%eax
    30cb:	75 1b                	jne    30e8 <audio_mixer_get_info+0xb8>
    30cd:	8b 45 0c             	mov    0xc(%ebp),%eax
    30d0:	89 38                	mov    %edi,(%eax)
    30d2:	8b 45 10             	mov    0x10(%ebp),%eax
    30d5:	85 c0                	test   %eax,%eax
    30d7:	75 a9                	jne    3082 <audio_mixer_get_info+0x52>
    30d9:	8d 65 f4             	lea    -0xc(%ebp),%esp
    30dc:	89 d8                	mov    %ebx,%eax
    30de:	5b                   	pop    %ebx
    30df:	5e                   	pop    %esi
    30e0:	5f                   	pop    %edi
    30e1:	5d                   	pop    %ebp
    30e2:	c3                   	ret    
    30e3:	90                   	nop
    30e4:	8d 74 26 00          	lea    0x0(%esi,%eiz,1),%esi
    30e8:	83 ec 0c             	sub    $0xc,%esp
    30eb:	89 45 d4             	mov    %eax,-0x2c(%ebp)
    30ee:	57                   	push   %edi
    30ef:	e8 3c a1 00 00       	call   d230 <free@plt>
    30f4:	83 c4 10             	add    $0x10,%esp
    30f7:	8b 45 d4             	mov    -0x2c(%ebp),%eax
    30fa:	eb 94                	jmp    3090 <audio_mixer_get_info+0x60>
    30fc:	8d 74 26 00          	lea    0x0(%esi,%eiz,1),%esi
    3100:	b8 f2 ff ff ff       	mov    $0xfffffff2,%eax
    3105:	eb 89                	jmp    3090 <audio_mixer_get_info+0x60>
    3107:	53                   	push   %ebx
    3108:	6a 00                	push   $0x0
    310a:	6a ff                	push   $0xffffffff
    310c:	56                   	push   %esi
    310d:	e8 8e 9f 00 00       	call   d0a0 <async_data_read_start@plt>
    3112:	83 c4 10             	add    $0x10,%esp
    3115:	b8 fe ff ff ff       	mov    $0xfffffffe,%eax
    311a:	e9 71 ff ff ff       	jmp    3090 <audio_mixer_get_info+0x60>
    311f:	90                   	nop

00003120 <audio_mixer_get_item_info>:
    3120:	55                   	push   %ebp
    3121:	89 e5                	mov    %esp,%ebp
    3123:	57                   	push   %edi
    3124:	56                   	push   %esi
    3125:	53                   	push   %ebx
    3126:	83 ec 2c             	sub    $0x2c,%esp
    3129:	8b 75 08             	mov    0x8(%ebp),%esi
    312c:	85 f6                	test   %esi,%esi
    312e:	0f 84 c4 00 00 00    	je     31f8 <audio_mixer_get_item_info+0xd8>
    3134:	50                   	push   %eax
    3135:	8d 45 e4             	lea    -0x1c(%ebp),%eax
    3138:	6a 00                	push   $0x0
    313a:	6a 00                	push   $0x0
    313c:	6a 00                	push   $0x0
    313e:	50                   	push   %eax
    313f:	8d 45 e0             	lea    -0x20(%ebp),%eax
    3142:	50                   	push   %eax
    3143:	8b 45 0c             	mov    0xc(%ebp),%eax
    3146:	6a 00                	push   $0x0
    3148:	6a 00                	push   $0x0
    314a:	50                   	push   %eax
    314b:	6a 01                	push   $0x1
    314d:	68 03 04 00 00       	push   $0x403
    3152:	56                   	push   %esi
    3153:	e8 f8 9c 00 00       	call   ce50 <async_req_fast@plt>
    3158:	83 c4 30             	add    $0x30,%esp
    315b:	89 c3                	mov    %eax,%ebx
    315d:	85 c0                	test   %eax,%eax
    315f:	8b 45 10             	mov    0x10(%ebp),%eax
    3162:	0f 94 c2             	sete   %dl
    3165:	85 c0                	test   %eax,%eax
    3167:	74 04                	je     316d <audio_mixer_get_item_info+0x4d>
    3169:	84 d2                	test   %dl,%dl
    316b:	75 23                	jne    3190 <audio_mixer_get_item_info+0x70>
    316d:	8b 45 14             	mov    0x14(%ebp),%eax
    3170:	85 c0                	test   %eax,%eax
    3172:	74 5d                	je     31d1 <audio_mixer_get_item_info+0xb1>
    3174:	84 d2                	test   %dl,%dl
    3176:	74 59                	je     31d1 <audio_mixer_get_item_info+0xb1>
    3178:	8b 4d 14             	mov    0x14(%ebp),%ecx
    317b:	8b 45 e4             	mov    -0x1c(%ebp),%eax
    317e:	89 01                	mov    %eax,(%ecx)
    3180:	89 d8                	mov    %ebx,%eax
    3182:	8d 65 f4             	lea    -0xc(%ebp),%esp
    3185:	5b                   	pop    %ebx
    3186:	5e                   	pop    %esi
    3187:	5f                   	pop    %edi
    3188:	5d                   	pop    %ebp
    3189:	c3                   	ret    
    318a:	8d b6 00 00 00 00    	lea    0x0(%esi),%esi
    3190:	8b 45 e0             	mov    -0x20(%ebp),%eax
    3193:	88 55 d4             	mov    %dl,-0x2c(%ebp)
    3196:	57                   	push   %edi
    3197:	57                   	push   %edi
    3198:	50                   	push   %eax
    3199:	6a 01                	push   $0x1
    319b:	e8 70 9d 00 00       	call   cf10 <calloc@plt>
    31a0:	83 c4 10             	add    $0x10,%esp
    31a3:	89 c7                	mov    %eax,%edi
    31a5:	85 c0                	test   %eax,%eax
    31a7:	8a 55 d4             	mov    -0x2c(%ebp),%dl
    31aa:	74 53                	je     31ff <audio_mixer_get_item_info+0xdf>
    31ac:	8b 4d e0             	mov    -0x20(%ebp),%ecx
    31af:	88 55 d4             	mov    %dl,-0x2c(%ebp)
    31b2:	52                   	push   %edx
    31b3:	51                   	push   %ecx
    31b4:	50                   	push   %eax
    31b5:	56                   	push   %esi
    31b6:	e8 e5 9e 00 00       	call   d0a0 <async_data_read_start@plt>
    31bb:	83 c4 10             	add    $0x10,%esp
    31be:	8a 55 d4             	mov    -0x2c(%ebp),%dl
    31c1:	85 c0                	test   %eax,%eax
    31c3:	75 1b                	jne    31e0 <audio_mixer_get_item_info+0xc0>
    31c5:	8b 45 10             	mov    0x10(%ebp),%eax
    31c8:	89 38                	mov    %edi,(%eax)
    31ca:	8b 45 14             	mov    0x14(%ebp),%eax
    31cd:	85 c0                	test   %eax,%eax
    31cf:	75 a3                	jne    3174 <audio_mixer_get_item_info+0x54>
    31d1:	8d 65 f4             	lea    -0xc(%ebp),%esp
    31d4:	89 d8                	mov    %ebx,%eax
    31d6:	5b                   	pop    %ebx
    31d7:	5e                   	pop    %esi
    31d8:	5f                   	pop    %edi
    31d9:	5d                   	pop    %ebp
    31da:	c3                   	ret    
    31db:	90                   	nop
    31dc:	8d 74 26 00          	lea    0x0(%esi,%eiz,1),%esi
    31e0:	83 ec 0c             	sub    $0xc,%esp
    31e3:	89 45 d4             	mov    %eax,-0x2c(%ebp)
    31e6:	57                   	push   %edi
    31e7:	e8 44 a0 00 00       	call   d230 <free@plt>
    31ec:	83 c4 10             	add    $0x10,%esp
    31ef:	8b 45 d4             	mov    -0x2c(%ebp),%eax
    31f2:	eb 8e                	jmp    3182 <audio_mixer_get_item_info+0x62>
    31f4:	8d 74 26 00          	lea    0x0(%esi,%eiz,1),%esi
    31f8:	b8 f2 ff ff ff       	mov    $0xfffffff2,%eax
    31fd:	eb 83                	jmp    3182 <audio_mixer_get_item_info+0x62>
    31ff:	53                   	push   %ebx
    3200:	6a 00                	push   $0x0
    3202:	6a ff                	push   $0xffffffff
    3204:	56                   	push   %esi
    3205:	e8 96 9e 00 00       	call   d0a0 <async_data_read_start@plt>
    320a:	83 c4 10             	add    $0x10,%esp
    320d:	b8 fe ff ff ff       	mov    $0xfffffffe,%eax
    3212:	e9 6b ff ff ff       	jmp    3182 <audio_mixer_get_item_info+0x62>
    3217:	89 f6                	mov    %esi,%esi
    3219:	8d bc 27 00 00 00 00 	lea    0x0(%edi,%eiz,1),%edi

00003220 <audio_mixer_set_item_level>:
    3220:	55                   	push   %ebp
    3221:	89 e5                	mov    %esp,%ebp
    3223:	83 ec 08             	sub    $0x8,%esp
    3226:	8b 45 08             	mov    0x8(%ebp),%eax
    3229:	85 c0                	test   %eax,%eax
    322b:	74 2b                	je     3258 <audio_mixer_set_item_level+0x38>
    322d:	8b 4d 10             	mov    0x10(%ebp),%ecx
    3230:	52                   	push   %edx
    3231:	8b 55 0c             	mov    0xc(%ebp),%edx
    3234:	6a 00                	push   $0x0
    3236:	6a 00                	push   $0x0
    3238:	6a 00                	push   $0x0
    323a:	6a 00                	push   $0x0
    323c:	6a 00                	push   $0x0
    323e:	6a 00                	push   $0x0
    3240:	51                   	push   %ecx
    3241:	52                   	push   %edx
    3242:	6a 02                	push   $0x2
    3244:	68 03 04 00 00       	push   $0x403
    3249:	50                   	push   %eax
    324a:	e8 01 9c 00 00       	call   ce50 <async_req_fast@plt>
    324f:	83 c4 30             	add    $0x30,%esp
    3252:	c9                   	leave  
    3253:	c3                   	ret    
    3254:	8d 74 26 00          	lea    0x0(%esi,%eiz,1),%esi
    3258:	b8 f2 ff ff ff       	mov    $0xfffffff2,%eax
    325d:	c9                   	leave  
    325e:	c3                   	ret    
    325f:	90                   	nop

00003260 <audio_mixer_get_item_level>:
    3260:	55                   	push   %ebp
    3261:	89 e5                	mov    %esp,%ebp
    3263:	53                   	push   %ebx
    3264:	83 ec 14             	sub    $0x14,%esp
    3267:	8b 45 08             	mov    0x8(%ebp),%eax
    326a:	8b 5d 10             	mov    0x10(%ebp),%ebx
    326d:	85 c0                	test   %eax,%eax
    326f:	74 37                	je     32a8 <audio_mixer_get_item_level+0x48>
    3271:	8b 4d 0c             	mov    0xc(%ebp),%ecx
    3274:	52                   	push   %edx
    3275:	8d 55 f4             	lea    -0xc(%ebp),%edx
    3278:	6a 00                	push   $0x0
    327a:	6a 00                	push   $0x0
    327c:	6a 00                	push   $0x0
    327e:	6a 00                	push   $0x0
    3280:	52                   	push   %edx
    3281:	6a 00                	push   $0x0
    3283:	6a 00                	push   $0x0
    3285:	51                   	push   %ecx
    3286:	6a 03                	push   $0x3
    3288:	68 03 04 00 00       	push   $0x403
    328d:	50                   	push   %eax
    328e:	e8 bd 9b 00 00       	call   ce50 <async_req_fast@plt>
    3293:	83 c4 30             	add    $0x30,%esp
    3296:	85 c0                	test   %eax,%eax
    3298:	75 09                	jne    32a3 <audio_mixer_get_item_level+0x43>
    329a:	85 db                	test   %ebx,%ebx
    329c:	74 05                	je     32a3 <audio_mixer_get_item_level+0x43>
    329e:	8b 55 f4             	mov    -0xc(%ebp),%edx
    32a1:	89 13                	mov    %edx,(%ebx)
    32a3:	8b 5d fc             	mov    -0x4(%ebp),%ebx
    32a6:	c9                   	leave  
    32a7:	c3                   	ret    
    32a8:	b8 f2 ff ff ff       	mov    $0xfffffff2,%eax
    32ad:	eb f4                	jmp    32a3 <audio_mixer_get_item_level+0x43>
    32af:	90                   	nop

000032b0 <remote_audio_pcm_stop_capture>:
    32b0:	55                   	push   %ebp
    32b1:	89 e5                	mov    %esp,%ebp
    32b3:	53                   	push   %ebx
    32b4:	50                   	push   %eax
    32b5:	8b 45 14             	mov    0x14(%ebp),%eax
    32b8:	8b 4d 08             	mov    0x8(%ebp),%ecx
    32bb:	8b 5d 10             	mov    0x10(%ebp),%ebx
    32be:	8b 50 08             	mov    0x8(%eax),%edx
    32c1:	85 d2                	test   %edx,%edx
    32c3:	8b 55 0c             	mov    0xc(%ebp),%edx
    32c6:	0f 95 c0             	setne  %al
    32c9:	8b 52 2c             	mov    0x2c(%edx),%edx
    32cc:	85 d2                	test   %edx,%edx
    32ce:	74 20                	je     32f0 <remote_audio_pcm_stop_capture+0x40>
    32d0:	83 ec 08             	sub    $0x8,%esp
    32d3:	25 ff 00 00 00       	and    $0xff,%eax
    32d8:	50                   	push   %eax
    32d9:	51                   	push   %ecx
    32da:	ff d2                	call   *%edx
    32dc:	89 5d 08             	mov    %ebx,0x8(%ebp)
    32df:	83 c4 10             	add    $0x10,%esp
    32e2:	8b 5d fc             	mov    -0x4(%ebp),%ebx
    32e5:	89 45 0c             	mov    %eax,0xc(%ebp)
    32e8:	c9                   	leave  
    32e9:	e9 72 9b 00 00       	jmp    ce60 <async_answer_0@plt>
    32ee:	66 90                	xchg   %ax,%ax
    32f0:	89 5d 08             	mov    %ebx,0x8(%ebp)
    32f3:	b8 f5 ff ff ff       	mov    $0xfffffff5,%eax
    32f8:	8b 5d fc             	mov    -0x4(%ebp),%ebx
    32fb:	89 45 0c             	mov    %eax,0xc(%ebp)
    32fe:	c9                   	leave  
    32ff:	e9 5c 9b 00 00       	jmp    ce60 <async_answer_0@plt>
    3304:	8d b6 00 00 00 00    	lea    0x0(%esi),%esi
    330a:	8d bf 00 00 00 00    	lea    0x0(%edi),%edi

00003310 <remote_audio_pcm_start_capture>:
    3310:	55                   	push   %ebp
    3311:	89 e5                	mov    %esp,%ebp
    3313:	57                   	push   %edi
    3314:	56                   	push   %esi
    3315:	53                   	push   %ebx
    3316:	83 ec 0c             	sub    $0xc,%esp
    3319:	8b 55 14             	mov    0x14(%ebp),%edx
    331c:	8b 7d 0c             	mov    0xc(%ebp),%edi
    331f:	8b 4d 08             	mov    0x8(%ebp),%ecx
    3322:	8b 5d 10             	mov    0x10(%ebp),%ebx
    3325:	8b 42 10             	mov    0x10(%edx),%eax
    3328:	8b 7f 28             	mov    0x28(%edi),%edi
    332b:	89 c6                	mov    %eax,%esi
    332d:	25 ff ff 00 00       	and    $0xffff,%eax
    3332:	c1 ee 10             	shr    $0x10,%esi
    3335:	85 ff                	test   %edi,%edi
    3337:	74 27                	je     3360 <remote_audio_pcm_start_capture+0x50>
    3339:	83 ec 0c             	sub    $0xc,%esp
    333c:	50                   	push   %eax
    333d:	8b 42 0c             	mov    0xc(%edx),%eax
    3340:	50                   	push   %eax
    3341:	56                   	push   %esi
    3342:	8b 52 08             	mov    0x8(%edx),%edx
    3345:	52                   	push   %edx
    3346:	51                   	push   %ecx
    3347:	ff d7                	call   *%edi
    3349:	83 c4 20             	add    $0x20,%esp
    334c:	89 5d 08             	mov    %ebx,0x8(%ebp)
    334f:	89 45 0c             	mov    %eax,0xc(%ebp)
    3352:	8d 65 f4             	lea    -0xc(%ebp),%esp
    3355:	5b                   	pop    %ebx
    3356:	5e                   	pop    %esi
    3357:	5f                   	pop    %edi
    3358:	5d                   	pop    %ebp
    3359:	e9 02 9b 00 00       	jmp    ce60 <async_answer_0@plt>
    335e:	66 90                	xchg   %ax,%ax
    3360:	b8 f5 ff ff ff       	mov    $0xfffffff5,%eax
    3365:	eb e5                	jmp    334c <remote_audio_pcm_start_capture+0x3c>
    3367:	89 f6                	mov    %esi,%esi
    3369:	8d bc 27 00 00 00 00 	lea    0x0(%edi,%eiz,1),%edi

00003370 <remote_audio_pcm_stop_playback>:
    3370:	55                   	push   %ebp
    3371:	89 e5                	mov    %esp,%ebp
    3373:	53                   	push   %ebx
    3374:	50                   	push   %eax
    3375:	8b 45 14             	mov    0x14(%ebp),%eax
    3378:	8b 4d 08             	mov    0x8(%ebp),%ecx
    337b:	8b 5d 10             	mov    0x10(%ebp),%ebx
    337e:	8b 50 08             	mov    0x8(%eax),%edx
    3381:	85 d2                	test   %edx,%edx
    3383:	8b 55 0c             	mov    0xc(%ebp),%edx
    3386:	0f 95 c0             	setne  %al
    3389:	8b 52 24             	mov    0x24(%edx),%edx
    338c:	85 d2                	test   %edx,%edx
    338e:	74 20                	je     33b0 <remote_audio_pcm_stop_playback+0x40>
    3390:	83 ec 08             	sub    $0x8,%esp
    3393:	25 ff 00 00 00       	and    $0xff,%eax
    3398:	50                   	push   %eax
    3399:	51                   	push   %ecx
    339a:	ff d2                	call   *%edx
    339c:	89 5d 08             	mov    %ebx,0x8(%ebp)
    339f:	83 c4 10             	add    $0x10,%esp
    33a2:	8b 5d fc             	mov    -0x4(%ebp),%ebx
    33a5:	89 45 0c             	mov    %eax,0xc(%ebp)
    33a8:	c9                   	leave  
    33a9:	e9 b2 9a 00 00       	jmp    ce60 <async_answer_0@plt>
    33ae:	66 90                	xchg   %ax,%ax
    33b0:	89 5d 08             	mov    %ebx,0x8(%ebp)
    33b3:	b8 f5 ff ff ff       	mov    $0xfffffff5,%eax
    33b8:	8b 5d fc             	mov    -0x4(%ebp),%ebx
    33bb:	89 45 0c             	mov    %eax,0xc(%ebp)
    33be:	c9                   	leave  
    33bf:	e9 9c 9a 00 00       	jmp    ce60 <async_answer_0@plt>
    33c4:	8d b6 00 00 00 00    	lea    0x0(%esi),%esi
    33ca:	8d bf 00 00 00 00    	lea    0x0(%edi),%edi

000033d0 <remote_audio_pcm_start_playback>:
    33d0:	55                   	push   %ebp
    33d1:	89 e5                	mov    %esp,%ebp
    33d3:	57                   	push   %edi
    33d4:	56                   	push   %esi
    33d5:	53                   	push   %ebx
    33d6:	83 ec 0c             	sub    $0xc,%esp
    33d9:	8b 4d 14             	mov    0x14(%ebp),%ecx
    33dc:	8b 7d 0c             	mov    0xc(%ebp),%edi
    33df:	8b 75 08             	mov    0x8(%ebp),%esi
    33e2:	8b 5d 10             	mov    0x10(%ebp),%ebx
    33e5:	8b 41 10             	mov    0x10(%ecx),%eax
    33e8:	8b 7f 20             	mov    0x20(%edi),%edi
    33eb:	89 c2                	mov    %eax,%edx
    33ed:	25 ff ff 00 00       	and    $0xffff,%eax
    33f2:	c1 ea 10             	shr    $0x10,%edx
    33f5:	81 e2 ff 00 00 00    	and    $0xff,%edx
    33fb:	85 ff                	test   %edi,%edi
    33fd:	74 29                	je     3428 <remote_audio_pcm_start_playback+0x58>
    33ff:	83 ec 0c             	sub    $0xc,%esp
    3402:	50                   	push   %eax
    3403:	8b 41 0c             	mov    0xc(%ecx),%eax
    3406:	50                   	push   %eax
    3407:	52                   	push   %edx
    3408:	8b 51 08             	mov    0x8(%ecx),%edx
    340b:	52                   	push   %edx
    340c:	56                   	push   %esi
    340d:	ff d7                	call   *%edi
    340f:	83 c4 20             	add    $0x20,%esp
    3412:	89 5d 08             	mov    %ebx,0x8(%ebp)
    3415:	89 45 0c             	mov    %eax,0xc(%ebp)
    3418:	8d 65 f4             	lea    -0xc(%ebp),%esp
    341b:	5b                   	pop    %ebx
    341c:	5e                   	pop    %esi
    341d:	5f                   	pop    %edi
    341e:	5d                   	pop    %ebp
    341f:	e9 3c 9a 00 00       	jmp    ce60 <async_answer_0@plt>
    3424:	8d 74 26 00          	lea    0x0(%esi,%eiz,1),%esi
    3428:	b8 f5 ff ff ff       	mov    $0xfffffff5,%eax
    342d:	eb e3                	jmp    3412 <remote_audio_pcm_start_playback+0x42>
    342f:	90                   	nop

00003430 <remote_audio_pcm_release_buffer>:
    3430:	55                   	push   %ebp
    3431:	89 e5                	mov    %esp,%ebp
    3433:	53                   	push   %ebx
    3434:	50                   	push   %eax
    3435:	8b 45 0c             	mov    0xc(%ebp),%eax
    3438:	8b 55 08             	mov    0x8(%ebp),%edx
    343b:	8b 5d 10             	mov    0x10(%ebp),%ebx
    343e:	8b 40 14             	mov    0x14(%eax),%eax
    3441:	85 c0                	test   %eax,%eax
    3443:	74 1b                	je     3460 <remote_audio_pcm_release_buffer+0x30>
    3445:	83 ec 0c             	sub    $0xc,%esp
    3448:	52                   	push   %edx
    3449:	ff d0                	call   *%eax
    344b:	89 5d 08             	mov    %ebx,0x8(%ebp)
    344e:	83 c4 10             	add    $0x10,%esp
    3451:	8b 5d fc             	mov    -0x4(%ebp),%ebx
    3454:	89 45 0c             	mov    %eax,0xc(%ebp)
    3457:	c9                   	leave  
    3458:	e9 03 9a 00 00       	jmp    ce60 <async_answer_0@plt>
    345d:	8d 76 00             	lea    0x0(%esi),%esi
    3460:	89 5d 08             	mov    %ebx,0x8(%ebp)
    3463:	b8 f5 ff ff ff       	mov    $0xfffffff5,%eax
    3468:	8b 5d fc             	mov    -0x4(%ebp),%ebx
    346b:	89 45 0c             	mov    %eax,0xc(%ebp)
    346e:	c9                   	leave  
    346f:	e9 ec 99 00 00       	jmp    ce60 <async_answer_0@plt>
    3474:	8d b6 00 00 00 00    	lea    0x0(%esi),%esi
    347a:	8d bf 00 00 00 00    	lea    0x0(%edi),%edi

00003480 <remote_audio_pcm_events_unregister>:
    3480:	55                   	push   %ebp
    3481:	89 e5                	mov    %esp,%ebp
    3483:	57                   	push   %edi
    3484:	56                   	push   %esi
    3485:	53                   	push   %ebx
    3486:	83 ec 0c             	sub    $0xc,%esp
    3489:	8b 5d 0c             	mov    0xc(%ebp),%ebx
    348c:	8b 75 08             	mov    0x8(%ebp),%esi
    348f:	8b 7d 10             	mov    0x10(%ebp),%edi
    3492:	8b 43 1c             	mov    0x1c(%ebx),%eax
    3495:	85 c0                	test   %eax,%eax
    3497:	74 3f                	je     34d8 <remote_audio_pcm_events_unregister+0x58>
    3499:	8b 4b 18             	mov    0x18(%ebx),%ecx
    349c:	85 c9                	test   %ecx,%ecx
    349e:	74 38                	je     34d8 <remote_audio_pcm_events_unregister+0x58>
    34a0:	83 ec 0c             	sub    $0xc,%esp
    34a3:	56                   	push   %esi
    34a4:	ff d0                	call   *%eax
    34a6:	83 c4 10             	add    $0x10,%esp
    34a9:	85 c0                	test   %eax,%eax
    34ab:	74 14                	je     34c1 <remote_audio_pcm_events_unregister+0x41>
    34ad:	83 ec 0c             	sub    $0xc,%esp
    34b0:	50                   	push   %eax
    34b1:	e8 7a 98 00 00       	call   cd30 <async_hangup@plt>
    34b6:	58                   	pop    %eax
    34b7:	5a                   	pop    %edx
    34b8:	6a 00                	push   $0x0
    34ba:	56                   	push   %esi
    34bb:	ff 53 18             	call   *0x18(%ebx)
    34be:	83 c4 10             	add    $0x10,%esp
    34c1:	89 7d 08             	mov    %edi,0x8(%ebp)
    34c4:	c7 45 0c 00 00 00 00 	movl   $0x0,0xc(%ebp)
    34cb:	8d 65 f4             	lea    -0xc(%ebp),%esp
    34ce:	5b                   	pop    %ebx
    34cf:	5e                   	pop    %esi
    34d0:	5f                   	pop    %edi
    34d1:	5d                   	pop    %ebp
    34d2:	e9 89 99 00 00       	jmp    ce60 <async_answer_0@plt>
    34d7:	90                   	nop
    34d8:	89 7d 08             	mov    %edi,0x8(%ebp)
    34db:	c7 45 0c f5 ff ff ff 	movl   $0xfffffff5,0xc(%ebp)
    34e2:	8d 65 f4             	lea    -0xc(%ebp),%esp
    34e5:	5b                   	pop    %ebx
    34e6:	5e                   	pop    %esi
    34e7:	5f                   	pop    %edi
    34e8:	5d                   	pop    %ebp
    34e9:	e9 72 99 00 00       	jmp    ce60 <async_answer_0@plt>
    34ee:	66 90                	xchg   %ax,%ax

000034f0 <remote_audio_pcm_get_buffer_pos>:
    34f0:	55                   	push   %ebp
    34f1:	89 e5                	mov    %esp,%ebp
    34f3:	83 ec 18             	sub    $0x18,%esp
    34f6:	8b 45 0c             	mov    0xc(%ebp),%eax
    34f9:	c7 45 f4 00 00 00 00 	movl   $0x0,-0xc(%ebp)
    3500:	8b 40 0c             	mov    0xc(%eax),%eax
    3503:	85 c0                	test   %eax,%eax
    3505:	74 29                	je     3530 <remote_audio_pcm_get_buffer_pos+0x40>
    3507:	8b 4d 08             	mov    0x8(%ebp),%ecx
    350a:	52                   	push   %edx
    350b:	52                   	push   %edx
    350c:	8d 55 f4             	lea    -0xc(%ebp),%edx
    350f:	52                   	push   %edx
    3510:	51                   	push   %ecx
    3511:	ff d0                	call   *%eax
    3513:	8b 55 f4             	mov    -0xc(%ebp),%edx
    3516:	83 c4 10             	add    $0x10,%esp
    3519:	51                   	push   %ecx
    351a:	52                   	push   %edx
    351b:	50                   	push   %eax
    351c:	8b 45 10             	mov    0x10(%ebp),%eax
    351f:	50                   	push   %eax
    3520:	e8 fb 9b 00 00       	call   d120 <async_answer_1@plt>
    3525:	83 c4 10             	add    $0x10,%esp
    3528:	c9                   	leave  
    3529:	c3                   	ret    
    352a:	8d b6 00 00 00 00    	lea    0x0(%esi),%esi
    3530:	b8 f5 ff ff ff       	mov    $0xfffffff5,%eax
    3535:	31 d2                	xor    %edx,%edx
    3537:	eb e0                	jmp    3519 <remote_audio_pcm_get_buffer_pos+0x29>
    3539:	8d b4 26 00 00 00 00 	lea    0x0(%esi,%eiz,1),%esi

00003540 <remote_audio_pcm_query_caps>:
    3540:	55                   	push   %ebp
    3541:	89 e5                	mov    %esp,%ebp
    3543:	53                   	push   %ebx
    3544:	53                   	push   %ebx
    3545:	8b 45 0c             	mov    0xc(%ebp),%eax
    3548:	8b 55 08             	mov    0x8(%ebp),%edx
    354b:	8b 5d 10             	mov    0x10(%ebp),%ebx
    354e:	8b 4d 14             	mov    0x14(%ebp),%ecx
    3551:	8b 40 08             	mov    0x8(%eax),%eax
    3554:	85 c0                	test   %eax,%eax
    3556:	74 28                	je     3580 <remote_audio_pcm_query_caps+0x40>
    3558:	83 ec 08             	sub    $0x8,%esp
    355b:	8b 49 08             	mov    0x8(%ecx),%ecx
    355e:	51                   	push   %ecx
    355f:	52                   	push   %edx
    3560:	ff d0                	call   *%eax
    3562:	89 5d 08             	mov    %ebx,0x8(%ebp)
    3565:	83 c4 10             	add    $0x10,%esp
    3568:	8b 5d fc             	mov    -0x4(%ebp),%ebx
    356b:	89 45 10             	mov    %eax,0x10(%ebp)
    356e:	c7 45 0c 00 00 00 00 	movl   $0x0,0xc(%ebp)
    3575:	c9                   	leave  
    3576:	e9 a5 9b 00 00       	jmp    d120 <async_answer_1@plt>
    357b:	90                   	nop
    357c:	8d 74 26 00          	lea    0x0(%esi,%eiz,1),%esi
    3580:	89 5d 08             	mov    %ebx,0x8(%ebp)
    3583:	8b 5d fc             	mov    -0x4(%ebp),%ebx
    3586:	c7 45 0c f5 ff ff ff 	movl   $0xfffffff5,0xc(%ebp)
    358d:	c9                   	leave  
    358e:	e9 cd 98 00 00       	jmp    ce60 <async_answer_0@plt>
    3593:	8d b6 00 00 00 00    	lea    0x0(%esi),%esi
    3599:	8d bc 27 00 00 00 00 	lea    0x0(%edi,%eiz,1),%edi

000035a0 <remote_audio_pcm_get_buffer>:
    35a0:	55                   	push   %ebp
    35a1:	89 e5                	mov    %esp,%ebp
    35a3:	56                   	push   %esi
    35a4:	53                   	push   %ebx
    35a5:	83 ec 10             	sub    $0x10,%esp
    35a8:	8b 5d 0c             	mov    0xc(%ebp),%ebx
    35ab:	8b 43 10             	mov    0x10(%ebx),%eax
    35ae:	85 c0                	test   %eax,%eax
    35b0:	0f 84 d2 00 00 00    	je     3688 <remote_audio_pcm_get_buffer+0xe8>
    35b6:	8b 53 14             	mov    0x14(%ebx),%edx
    35b9:	85 d2                	test   %edx,%edx
    35bb:	0f 84 c7 00 00 00    	je     3688 <remote_audio_pcm_get_buffer+0xe8>
    35c1:	8b 55 14             	mov    0x14(%ebp),%edx
    35c4:	c7 45 e8 00 00 00 00 	movl   $0x0,-0x18(%ebp)
    35cb:	8b 52 08             	mov    0x8(%edx),%edx
    35ce:	56                   	push   %esi
    35cf:	89 55 ec             	mov    %edx,-0x14(%ebp)
    35d2:	8d 55 ec             	lea    -0x14(%ebp),%edx
    35d5:	52                   	push   %edx
    35d6:	8d 55 e8             	lea    -0x18(%ebp),%edx
    35d9:	52                   	push   %edx
    35da:	8b 55 08             	mov    0x8(%ebp),%edx
    35dd:	52                   	push   %edx
    35de:	ff d0                	call   *%eax
    35e0:	83 c4 0c             	add    $0xc,%esp
    35e3:	8b 4d ec             	mov    -0x14(%ebp),%ecx
    35e6:	89 c6                	mov    %eax,%esi
    35e8:	51                   	push   %ecx
    35e9:	50                   	push   %eax
    35ea:	8b 45 10             	mov    0x10(%ebp),%eax
    35ed:	50                   	push   %eax
    35ee:	e8 2d 9b 00 00       	call   d120 <async_answer_1@plt>
    35f3:	83 c4 10             	add    $0x10,%esp
    35f6:	85 f6                	test   %esi,%esi
    35f8:	74 0e                	je     3608 <remote_audio_pcm_get_buffer+0x68>
    35fa:	8d 65 f8             	lea    -0x8(%ebp),%esp
    35fd:	5b                   	pop    %ebx
    35fe:	5e                   	pop    %esi
    35ff:	5d                   	pop    %ebp
    3600:	c3                   	ret    
    3601:	8d b4 26 00 00 00 00 	lea    0x0(%esi,%eiz,1),%esi
    3608:	8b 4d ec             	mov    -0x14(%ebp),%ecx
    360b:	85 c9                	test   %ecx,%ecx
    360d:	74 eb                	je     35fa <remote_audio_pcm_get_buffer+0x5a>
    360f:	c7 45 f0 00 00 00 00 	movl   $0x0,-0x10(%ebp)
    3616:	56                   	push   %esi
    3617:	c7 45 f4 00 00 00 00 	movl   $0x0,-0xc(%ebp)
    361e:	56                   	push   %esi
    361f:	68 f4 b2 00 00       	push   $0xb2f4
    3624:	6a 05                	push   $0x5
    3626:	e8 25 f7 ff ff       	call   2d50 <ddf_msg>
    362b:	58                   	pop    %eax
    362c:	8d 45 f0             	lea    -0x10(%ebp),%eax
    362f:	5a                   	pop    %edx
    3630:	50                   	push   %eax
    3631:	8d 45 f4             	lea    -0xc(%ebp),%eax
    3634:	50                   	push   %eax
    3635:	e8 86 9a 00 00       	call   d0c0 <async_share_in_receive@plt>
    363a:	83 c4 10             	add    $0x10,%esp
    363d:	84 c0                	test   %al,%al
    363f:	74 5f                	je     36a0 <remote_audio_pcm_get_buffer+0x100>
    3641:	50                   	push   %eax
    3642:	50                   	push   %eax
    3643:	68 b8 b4 00 00       	push   $0xb4b8
    3648:	6a 05                	push   $0x5
    364a:	e8 01 f7 ff ff       	call   2d50 <ddf_msg>
    364f:	8b 45 ec             	mov    -0x14(%ebp),%eax
    3652:	83 c4 10             	add    $0x10,%esp
    3655:	39 45 f0             	cmp    %eax,-0x10(%ebp)
    3658:	74 76                	je     36d0 <remote_audio_pcm_get_buffer+0x130>
    365a:	50                   	push   %eax
    365b:	50                   	push   %eax
    365c:	68 d8 b4 00 00       	push   $0xb4d8
    3661:	6a 04                	push   $0x4
    3663:	e8 e8 f6 ff ff       	call   2d50 <ddf_msg>
    3668:	8b 55 08             	mov    0x8(%ebp),%edx
    366b:	58                   	pop    %eax
    366c:	52                   	push   %edx
    366d:	ff 53 14             	call   *0x14(%ebx)
    3670:	8b 75 f4             	mov    -0xc(%ebp),%esi
    3673:	59                   	pop    %ecx
    3674:	5b                   	pop    %ebx
    3675:	6a fd                	push   $0xfffffffd
    3677:	56                   	push   %esi
    3678:	e8 e3 97 00 00       	call   ce60 <async_answer_0@plt>
    367d:	83 c4 10             	add    $0x10,%esp
    3680:	e9 75 ff ff ff       	jmp    35fa <remote_audio_pcm_get_buffer+0x5a>
    3685:	8d 76 00             	lea    0x0(%esi),%esi
    3688:	50                   	push   %eax
    3689:	50                   	push   %eax
    368a:	8b 45 10             	mov    0x10(%ebp),%eax
    368d:	6a f5                	push   $0xfffffff5
    368f:	50                   	push   %eax
    3690:	e8 cb 97 00 00       	call   ce60 <async_answer_0@plt>
    3695:	83 c4 10             	add    $0x10,%esp
    3698:	8d 65 f8             	lea    -0x8(%ebp),%esp
    369b:	5b                   	pop    %ebx
    369c:	5e                   	pop    %esi
    369d:	5d                   	pop    %ebp
    369e:	c3                   	ret    
    369f:	90                   	nop
    36a0:	50                   	push   %eax
    36a1:	50                   	push   %eax
    36a2:	68 0d b3 00 00       	push   $0xb30d
    36a7:	6a 04                	push   $0x4
    36a9:	e8 a2 f6 ff ff       	call   2d50 <ddf_msg>
    36ae:	58                   	pop    %eax
    36af:	8b 45 08             	mov    0x8(%ebp),%eax
    36b2:	50                   	push   %eax
    36b3:	ff 53 14             	call   *0x14(%ebx)
    36b6:	8b 4d f4             	mov    -0xc(%ebp),%ecx
    36b9:	58                   	pop    %eax
    36ba:	5a                   	pop    %edx
    36bb:	6a f8                	push   $0xfffffff8
    36bd:	51                   	push   %ecx
    36be:	e8 9d 97 00 00       	call   ce60 <async_answer_0@plt>
    36c3:	83 c4 10             	add    $0x10,%esp
    36c6:	e9 2f ff ff ff       	jmp    35fa <remote_audio_pcm_get_buffer+0x5a>
    36cb:	90                   	nop
    36cc:	8d 74 26 00          	lea    0x0(%esi,%eiz,1),%esi
    36d0:	50                   	push   %eax
    36d1:	50                   	push   %eax
    36d2:	68 29 b3 00 00       	push   $0xb329
    36d7:	6a 05                	push   $0x5
    36d9:	e8 72 f6 ff ff       	call   2d50 <ddf_msg>
    36de:	83 c4 0c             	add    $0xc,%esp
    36e1:	8b 45 e8             	mov    -0x18(%ebp),%eax
    36e4:	6a 03                	push   $0x3
    36e6:	50                   	push   %eax
    36e7:	8b 45 f4             	mov    -0xc(%ebp),%eax
    36ea:	50                   	push   %eax
    36eb:	e8 70 9a 00 00       	call   d160 <async_share_in_finalize@plt>
    36f0:	83 c4 10             	add    $0x10,%esp
    36f3:	85 c0                	test   %eax,%eax
    36f5:	74 1e                	je     3715 <remote_audio_pcm_get_buffer+0x175>
    36f7:	51                   	push   %ecx
    36f8:	51                   	push   %ecx
    36f9:	68 41 b3 00 00       	push   $0xb341
    36fe:	6a 04                	push   $0x4
    3700:	e8 4b f6 ff ff       	call   2d50 <ddf_msg>
    3705:	8b 45 08             	mov    0x8(%ebp),%eax
    3708:	5e                   	pop    %esi
    3709:	50                   	push   %eax
    370a:	ff 53 14             	call   *0x14(%ebx)
    370d:	83 c4 10             	add    $0x10,%esp
    3710:	e9 e5 fe ff ff       	jmp    35fa <remote_audio_pcm_get_buffer+0x5a>
    3715:	8b 55 f0             	mov    -0x10(%ebp),%edx
    3718:	50                   	push   %eax
    3719:	52                   	push   %edx
    371a:	68 59 b3 00 00       	push   $0xb359
    371f:	6a 05                	push   $0x5
    3721:	e8 2a f6 ff ff       	call   2d50 <ddf_msg>
    3726:	83 c4 10             	add    $0x10,%esp
    3729:	e9 cc fe ff ff       	jmp    35fa <remote_audio_pcm_get_buffer+0x5a>
    372e:	66 90                	xchg   %ax,%ax

00003730 <remote_audio_pcm_test_format>:
    3730:	55                   	push   %ebp
    3731:	89 e5                	mov    %esp,%ebp
    3733:	53                   	push   %ebx
    3734:	83 ec 14             	sub    $0x14,%esp
    3737:	8b 45 14             	mov    0x14(%ebp),%eax
    373a:	8b 55 0c             	mov    0xc(%ebp),%edx
    373d:	8b 48 08             	mov    0x8(%eax),%ecx
    3740:	8b 58 0c             	mov    0xc(%eax),%ebx
    3743:	8b 52 04             	mov    0x4(%edx),%edx
    3746:	8b 40 10             	mov    0x10(%eax),%eax
    3749:	89 4d ec             	mov    %ecx,-0x14(%ebp)
    374c:	89 5d f0             	mov    %ebx,-0x10(%ebp)
    374f:	89 45 f4             	mov    %eax,-0xc(%ebp)
    3752:	85 d2                	test   %edx,%edx
    3754:	74 3a                	je     3790 <remote_audio_pcm_test_format+0x60>
    3756:	8d 45 f4             	lea    -0xc(%ebp),%eax
    3759:	8b 4d 08             	mov    0x8(%ebp),%ecx
    375c:	50                   	push   %eax
    375d:	8d 45 f0             	lea    -0x10(%ebp),%eax
    3760:	50                   	push   %eax
    3761:	8d 45 ec             	lea    -0x14(%ebp),%eax
    3764:	50                   	push   %eax
    3765:	51                   	push   %ecx
    3766:	ff d2                	call   *%edx
    3768:	8b 55 f4             	mov    -0xc(%ebp),%edx
    376b:	8b 5d f0             	mov    -0x10(%ebp),%ebx
    376e:	8b 4d ec             	mov    -0x14(%ebp),%ecx
    3771:	83 c4 10             	add    $0x10,%esp
    3774:	83 ec 0c             	sub    $0xc,%esp
    3777:	52                   	push   %edx
    3778:	53                   	push   %ebx
    3779:	51                   	push   %ecx
    377a:	50                   	push   %eax
    377b:	8b 45 10             	mov    0x10(%ebp),%eax
    377e:	50                   	push   %eax
    377f:	e8 ec 99 00 00       	call   d170 <async_answer_3@plt>
    3784:	83 c4 20             	add    $0x20,%esp
    3787:	8b 5d fc             	mov    -0x4(%ebp),%ebx
    378a:	c9                   	leave  
    378b:	c3                   	ret    
    378c:	8d 74 26 00          	lea    0x0(%esi,%eiz,1),%esi
    3790:	89 c2                	mov    %eax,%edx
    3792:	b8 f5 ff ff ff       	mov    $0xfffffff5,%eax
    3797:	eb db                	jmp    3774 <remote_audio_pcm_test_format+0x44>
    3799:	8d b4 26 00 00 00 00 	lea    0x0(%esi,%eiz,1),%esi

000037a0 <remote_audio_pcm_events_register>:
    37a0:	55                   	push   %ebp
    37a1:	89 e5                	mov    %esp,%ebp
    37a3:	57                   	push   %edi
    37a4:	56                   	push   %esi
    37a5:	53                   	push   %ebx
    37a6:	83 ec 3c             	sub    $0x3c,%esp
    37a9:	8b 5d 0c             	mov    0xc(%ebp),%ebx
    37ac:	8b 7b 1c             	mov    0x1c(%ebx),%edi
    37af:	85 ff                	test   %edi,%edi
    37b1:	0f 84 91 00 00 00    	je     3848 <remote_audio_pcm_events_register+0xa8>
    37b7:	8b 73 18             	mov    0x18(%ebx),%esi
    37ba:	85 f6                	test   %esi,%esi
    37bc:	0f 84 86 00 00 00    	je     3848 <remote_audio_pcm_events_register+0xa8>
    37c2:	8b 75 10             	mov    0x10(%ebp),%esi
    37c5:	51                   	push   %ecx
    37c6:	51                   	push   %ecx
    37c7:	6a 00                	push   $0x0
    37c9:	56                   	push   %esi
    37ca:	8d 75 c4             	lea    -0x3c(%ebp),%esi
    37cd:	e8 8e 96 00 00       	call   ce60 <async_answer_0@plt>
    37d2:	5f                   	pop    %edi
    37d3:	58                   	pop    %eax
    37d4:	6a 00                	push   $0x0
    37d6:	56                   	push   %esi
    37d7:	e8 14 99 00 00       	call   d0f0 <async_get_call_timeout@plt>
    37dc:	89 c7                	mov    %eax,%edi
    37de:	58                   	pop    %eax
    37df:	5a                   	pop    %edx
    37e0:	56                   	push   %esi
    37e1:	6a 00                	push   $0x0
    37e3:	e8 d8 97 00 00       	call   cfc0 <async_callback_receive_start@plt>
    37e8:	83 c4 10             	add    $0x10,%esp
    37eb:	89 c6                	mov    %eax,%esi
    37ed:	85 c0                	test   %eax,%eax
    37ef:	74 6f                	je     3860 <remote_audio_pcm_events_register+0xc0>
    37f1:	50                   	push   %eax
    37f2:	50                   	push   %eax
    37f3:	8b 45 08             	mov    0x8(%ebp),%eax
    37f6:	56                   	push   %esi
    37f7:	50                   	push   %eax
    37f8:	ff 53 18             	call   *0x18(%ebx)
    37fb:	83 c4 10             	add    $0x10,%esp
    37fe:	89 c3                	mov    %eax,%ebx
    3800:	85 c0                	test   %eax,%eax
    3802:	74 2c                	je     3830 <remote_audio_pcm_events_register+0x90>
    3804:	52                   	push   %edx
    3805:	52                   	push   %edx
    3806:	68 76 b3 00 00       	push   $0xb376
    380b:	6a 04                	push   $0x4
    380d:	e8 3e f5 ff ff       	call   2d50 <ddf_msg>
    3812:	89 34 24             	mov    %esi,(%esp)
    3815:	e8 16 95 00 00       	call   cd30 <async_hangup@plt>
    381a:	59                   	pop    %ecx
    381b:	5e                   	pop    %esi
    381c:	53                   	push   %ebx
    381d:	57                   	push   %edi
    381e:	e8 3d 96 00 00       	call   ce60 <async_answer_0@plt>
    3823:	83 c4 10             	add    $0x10,%esp
    3826:	8d 65 f4             	lea    -0xc(%ebp),%esp
    3829:	5b                   	pop    %ebx
    382a:	5e                   	pop    %esi
    382b:	5f                   	pop    %edi
    382c:	5d                   	pop    %ebp
    382d:	c3                   	ret    
    382e:	66 90                	xchg   %ax,%ax
    3830:	50                   	push   %eax
    3831:	50                   	push   %eax
    3832:	6a 00                	push   $0x0
    3834:	57                   	push   %edi
    3835:	e8 26 96 00 00       	call   ce60 <async_answer_0@plt>
    383a:	83 c4 10             	add    $0x10,%esp
    383d:	8d 65 f4             	lea    -0xc(%ebp),%esp
    3840:	5b                   	pop    %ebx
    3841:	5e                   	pop    %esi
    3842:	5f                   	pop    %edi
    3843:	5d                   	pop    %ebp
    3844:	c3                   	ret    
    3845:	8d 76 00             	lea    0x0(%esi),%esi
    3848:	8b 5d 10             	mov    0x10(%ebp),%ebx
    384b:	51                   	push   %ecx
    384c:	51                   	push   %ecx
    384d:	6a f5                	push   $0xfffffff5
    384f:	53                   	push   %ebx
    3850:	e8 0b 96 00 00       	call   ce60 <async_answer_0@plt>
    3855:	83 c4 10             	add    $0x10,%esp
    3858:	8d 65 f4             	lea    -0xc(%ebp),%esp
    385b:	5b                   	pop    %ebx
    385c:	5e                   	pop    %esi
    385d:	5f                   	pop    %edi
    385e:	5d                   	pop    %ebp
    385f:	c3                   	ret    
    3860:	50                   	push   %eax
    3861:	50                   	push   %eax
    3862:	68 00 b5 00 00       	push   $0xb500
    3867:	6a 04                	push   $0x4
    3869:	e8 e2 f4 ff ff       	call   2d50 <ddf_msg>
    386e:	58                   	pop    %eax
    386f:	5a                   	pop    %edx
    3870:	68 06 d5 ff ff       	push   $0xffffd506
    3875:	57                   	push   %edi
    3876:	e8 e5 95 00 00       	call   ce60 <async_answer_0@plt>
    387b:	83 c4 10             	add    $0x10,%esp
    387e:	eb a6                	jmp    3826 <remote_audio_pcm_events_register+0x86>

00003880 <remote_audio_pcm_get_info_str>:
    3880:	55                   	push   %ebp
    3881:	89 e5                	mov    %esp,%ebp
    3883:	56                   	push   %esi
    3884:	53                   	push   %ebx
    3885:	83 ec 10             	sub    $0x10,%esp
    3888:	8b 45 0c             	mov    0xc(%ebp),%eax
    388b:	8b 00                	mov    (%eax),%eax
    388d:	85 c0                	test   %eax,%eax
    388f:	0f 84 ab 00 00 00    	je     3940 <remote_audio_pcm_get_info_str+0xc0>
    3895:	8b 4d 08             	mov    0x8(%ebp),%ecx
    3898:	52                   	push   %edx
    3899:	c7 45 ec 00 00 00 00 	movl   $0x0,-0x14(%ebp)
    38a0:	52                   	push   %edx
    38a1:	8d 55 ec             	lea    -0x14(%ebp),%edx
    38a4:	52                   	push   %edx
    38a5:	51                   	push   %ecx
    38a6:	ff d0                	call   *%eax
    38a8:	83 c4 10             	add    $0x10,%esp
    38ab:	89 c6                	mov    %eax,%esi
    38ad:	8b 45 ec             	mov    -0x14(%ebp),%eax
    38b0:	85 c0                	test   %eax,%eax
    38b2:	74 5c                	je     3910 <remote_audio_pcm_get_info_str+0x90>
    38b4:	83 ec 0c             	sub    $0xc,%esp
    38b7:	50                   	push   %eax
    38b8:	e8 43 98 00 00       	call   d100 <str_size@plt>
    38bd:	83 c4 0c             	add    $0xc,%esp
    38c0:	8d 58 01             	lea    0x1(%eax),%ebx
    38c3:	8b 45 10             	mov    0x10(%ebp),%eax
    38c6:	53                   	push   %ebx
    38c7:	56                   	push   %esi
    38c8:	50                   	push   %eax
    38c9:	e8 52 98 00 00       	call   d120 <async_answer_1@plt>
    38ce:	83 c4 10             	add    $0x10,%esp
    38d1:	85 f6                	test   %esi,%esi
    38d3:	75 2f                	jne    3904 <remote_audio_pcm_get_info_str+0x84>
    38d5:	85 db                	test   %ebx,%ebx
    38d7:	74 2b                	je     3904 <remote_audio_pcm_get_info_str+0x84>
    38d9:	50                   	push   %eax
    38da:	50                   	push   %eax
    38db:	8d 45 f0             	lea    -0x10(%ebp),%eax
    38de:	50                   	push   %eax
    38df:	8d 45 f4             	lea    -0xc(%ebp),%eax
    38e2:	50                   	push   %eax
    38e3:	e8 a8 97 00 00       	call   d090 <async_data_read_receive@plt>
    38e8:	83 c4 10             	add    $0x10,%esp
    38eb:	84 c0                	test   %al,%al
    38ed:	74 69                	je     3958 <remote_audio_pcm_get_info_str+0xd8>
    38ef:	3b 5d f0             	cmp    -0x10(%ebp),%ebx
    38f2:	74 34                	je     3928 <remote_audio_pcm_get_info_str+0xa8>
    38f4:	50                   	push   %eax
    38f5:	50                   	push   %eax
    38f6:	8b 45 f4             	mov    -0xc(%ebp),%eax
    38f9:	6a fd                	push   $0xfffffffd
    38fb:	50                   	push   %eax
    38fc:	e8 5f 95 00 00       	call   ce60 <async_answer_0@plt>
    3901:	83 c4 10             	add    $0x10,%esp
    3904:	8d 65 f8             	lea    -0x8(%ebp),%esp
    3907:	5b                   	pop    %ebx
    3908:	5e                   	pop    %esi
    3909:	5d                   	pop    %ebp
    390a:	c3                   	ret    
    390b:	90                   	nop
    390c:	8d 74 26 00          	lea    0x0(%esi,%eiz,1),%esi
    3910:	8b 55 10             	mov    0x10(%ebp),%edx
    3913:	50                   	push   %eax
    3914:	6a 00                	push   $0x0
    3916:	56                   	push   %esi
    3917:	52                   	push   %edx
    3918:	e8 03 98 00 00       	call   d120 <async_answer_1@plt>
    391d:	83 c4 10             	add    $0x10,%esp
    3920:	8d 65 f8             	lea    -0x8(%ebp),%esp
    3923:	5b                   	pop    %ebx
    3924:	5e                   	pop    %esi
    3925:	5d                   	pop    %ebp
    3926:	c3                   	ret    
    3927:	90                   	nop
    3928:	8b 75 f4             	mov    -0xc(%ebp),%esi
    392b:	51                   	push   %ecx
    392c:	53                   	push   %ebx
    392d:	8b 5d ec             	mov    -0x14(%ebp),%ebx
    3930:	53                   	push   %ebx
    3931:	56                   	push   %esi
    3932:	e8 79 94 00 00       	call   cdb0 <async_data_read_finalize@plt>
    3937:	83 c4 10             	add    $0x10,%esp
    393a:	eb c8                	jmp    3904 <remote_audio_pcm_get_info_str+0x84>
    393c:	8d 74 26 00          	lea    0x0(%esi,%eiz,1),%esi
    3940:	8b 75 10             	mov    0x10(%ebp),%esi
    3943:	53                   	push   %ebx
    3944:	53                   	push   %ebx
    3945:	6a f5                	push   $0xfffffff5
    3947:	56                   	push   %esi
    3948:	e8 13 95 00 00       	call   ce60 <async_answer_0@plt>
    394d:	83 c4 10             	add    $0x10,%esp
    3950:	8d 65 f8             	lea    -0x8(%ebp),%esp
    3953:	5b                   	pop    %ebx
    3954:	5e                   	pop    %esi
    3955:	5d                   	pop    %ebp
    3956:	c3                   	ret    
    3957:	90                   	nop
    3958:	50                   	push   %eax
    3959:	50                   	push   %eax
    395a:	8b 45 f4             	mov    -0xc(%ebp),%eax
    395d:	6a f8                	push   $0xfffffff8
    395f:	50                   	push   %eax
    3960:	e8 fb 94 00 00       	call   ce60 <async_answer_0@plt>
    3965:	83 c4 10             	add    $0x10,%esp
    3968:	eb 9a                	jmp    3904 <remote_audio_pcm_get_info_str+0x84>
    396a:	8d b6 00 00 00 00    	lea    0x0(%esi),%esi

00003970 <audio_pcm_cap_str>:
    3970:	55                   	push   %ebp
    3971:	b8 94 b3 00 00       	mov    $0xb394,%eax
    3976:	89 e5                	mov    %esp,%ebp
    3978:	8b 55 08             	mov    0x8(%ebp),%edx
    397b:	83 fa 06             	cmp    $0x6,%edx
    397e:	77 07                	ja     3987 <audio_pcm_cap_str+0x17>
    3980:	8b 04 95 58 c5 00 00 	mov    0xc558(,%edx,4),%eax
    3987:	5d                   	pop    %ebp
    3988:	c3                   	ret    
    3989:	8d b4 26 00 00 00 00 	lea    0x0(%esi,%eiz,1),%esi

00003990 <audio_pcm_event_str>:
    3990:	55                   	push   %ebp
    3991:	b8 a0 b3 00 00       	mov    $0xb3a0,%eax
    3996:	89 e5                	mov    %esp,%ebp
    3998:	8b 55 08             	mov    0x8(%ebp),%edx
    399b:	81 fa 05 04 00 00    	cmp    $0x405,%edx
    39a1:	77 07                	ja     39aa <audio_pcm_event_str+0x1a>
    39a3:	8b 04 95 40 b5 00 00 	mov    0xb540(,%edx,4),%eax
    39aa:	5d                   	pop    %ebp
    39ab:	c3                   	ret    
    39ac:	8d 74 26 00          	lea    0x0(%esi,%eiz,1),%esi

000039b0 <audio_pcm_open_default>:
    39b0:	55                   	push   %ebp
    39b1:	89 e5                	mov    %esp,%ebp
    39b3:	83 ec 28             	sub    $0x28,%esp
    39b6:	80 3d 1c f5 00 00 00 	cmpb   $0x0,0xf51c
    39bd:	75 20                	jne    39df <audio_pcm_open_default+0x2f>
    39bf:	50                   	push   %eax
    39c0:	6a 01                	push   $0x1
    39c2:	68 18 f5 00 00       	push   $0xf518
    39c7:	68 ae b3 00 00       	push   $0xb3ae
    39cc:	e8 ff 92 00 00       	call   ccd0 <loc_category_get_id@plt>
    39d1:	83 c4 10             	add    $0x10,%esp
    39d4:	85 c0                	test   %eax,%eax
    39d6:	75 68                	jne    3a40 <audio_pcm_open_default+0x90>
    39d8:	c6 05 1c f5 00 00 01 	movb   $0x1,0xf51c
    39df:	8d 45 f4             	lea    -0xc(%ebp),%eax
    39e2:	51                   	push   %ecx
    39e3:	50                   	push   %eax
    39e4:	8d 45 f0             	lea    -0x10(%ebp),%eax
    39e7:	50                   	push   %eax
    39e8:	a1 18 f5 00 00       	mov    0xf518,%eax
    39ed:	50                   	push   %eax
    39ee:	c7 45 f0 00 00 00 00 	movl   $0x0,-0x10(%ebp)
    39f5:	c7 45 f4 00 00 00 00 	movl   $0x0,-0xc(%ebp)
    39fc:	e8 df 96 00 00       	call   d0e0 <loc_category_get_svcs@plt>
    3a01:	83 c4 10             	add    $0x10,%esp
    3a04:	85 c0                	test   %eax,%eax
    3a06:	75 38                	jne    3a40 <audio_pcm_open_default+0x90>
    3a08:	8b 55 f4             	mov    -0xc(%ebp),%edx
    3a0b:	85 d2                	test   %edx,%edx
    3a0d:	75 19                	jne    3a28 <audio_pcm_open_default+0x78>
    3a0f:	83 ec 0c             	sub    $0xc,%esp
    3a12:	89 45 e4             	mov    %eax,-0x1c(%ebp)
    3a15:	8b 45 f0             	mov    -0x10(%ebp),%eax
    3a18:	50                   	push   %eax
    3a19:	e8 12 98 00 00       	call   d230 <free@plt>
    3a1e:	8b 45 e4             	mov    -0x1c(%ebp),%eax
    3a21:	83 c4 10             	add    $0x10,%esp
    3a24:	c9                   	leave  
    3a25:	c3                   	ret    
    3a26:	66 90                	xchg   %ax,%ax
    3a28:	8b 45 f0             	mov    -0x10(%ebp),%eax
    3a2b:	52                   	push   %edx
    3a2c:	6a 01                	push   $0x1
    3a2e:	68 41 26 9b 41       	push   $0x419b2641
    3a33:	8b 08                	mov    (%eax),%ecx
    3a35:	51                   	push   %ecx
    3a36:	e8 c5 92 00 00       	call   cd00 <loc_service_connect@plt>
    3a3b:	83 c4 10             	add    $0x10,%esp
    3a3e:	eb cf                	jmp    3a0f <audio_pcm_open_default+0x5f>
    3a40:	31 c0                	xor    %eax,%eax
    3a42:	c9                   	leave  
    3a43:	c3                   	ret    
    3a44:	8d b6 00 00 00 00    	lea    0x0(%esi),%esi
    3a4a:	8d bf 00 00 00 00    	lea    0x0(%edi),%edi

00003a50 <audio_pcm_open>:
    3a50:	55                   	push   %ebp
    3a51:	89 e5                	mov    %esp,%ebp
    3a53:	83 ec 1c             	sub    $0x1c,%esp
    3a56:	8d 45 f4             	lea    -0xc(%ebp),%eax
    3a59:	8b 4d 08             	mov    0x8(%ebp),%ecx
    3a5c:	6a 00                	push   $0x0
    3a5e:	c7 45 f4 00 00 00 00 	movl   $0x0,-0xc(%ebp)
    3a65:	50                   	push   %eax
    3a66:	51                   	push   %ecx
    3a67:	e8 e4 96 00 00       	call   d150 <devman_fun_get_handle@plt>
    3a6c:	83 c4 10             	add    $0x10,%esp
    3a6f:	85 c0                	test   %eax,%eax
    3a71:	75 15                	jne    3a88 <audio_pcm_open+0x38>
    3a73:	8b 55 f4             	mov    -0xc(%ebp),%edx
    3a76:	50                   	push   %eax
    3a77:	50                   	push   %eax
    3a78:	6a 01                	push   $0x1
    3a7a:	52                   	push   %edx
    3a7b:	e8 60 92 00 00       	call   cce0 <devman_device_connect@plt>
    3a80:	83 c4 10             	add    $0x10,%esp
    3a83:	c9                   	leave  
    3a84:	c3                   	ret    
    3a85:	8d 76 00             	lea    0x0(%esi),%esi
    3a88:	31 c0                	xor    %eax,%eax
    3a8a:	c9                   	leave  
    3a8b:	c3                   	ret    
    3a8c:	8d 74 26 00          	lea    0x0(%esi,%eiz,1),%esi

00003a90 <audio_pcm_open_service>:
    3a90:	55                   	push   %ebp
    3a91:	89 e5                	mov    %esp,%ebp
    3a93:	83 ec 0c             	sub    $0xc,%esp
    3a96:	8b 45 08             	mov    0x8(%ebp),%eax
    3a99:	6a 01                	push   $0x1
    3a9b:	68 41 26 9b 41       	push   $0x419b2641
    3aa0:	50                   	push   %eax
    3aa1:	e8 5a 92 00 00       	call   cd00 <loc_service_connect@plt>
    3aa6:	c9                   	leave  
    3aa7:	c3                   	ret    
    3aa8:	90                   	nop
    3aa9:	8d b4 26 00 00 00 00 	lea    0x0(%esi,%eiz,1),%esi

00003ab0 <audio_pcm_close>:
    3ab0:	55                   	push   %ebp
    3ab1:	89 e5                	mov    %esp,%ebp
    3ab3:	8b 45 08             	mov    0x8(%ebp),%eax
    3ab6:	85 c0                	test   %eax,%eax
    3ab8:	74 06                	je     3ac0 <audio_pcm_close+0x10>
    3aba:	5d                   	pop    %ebp
    3abb:	e9 70 92 00 00       	jmp    cd30 <async_hangup@plt>
    3ac0:	5d                   	pop    %ebp
    3ac1:	c3                   	ret    
    3ac2:	8d b4 26 00 00 00 00 	lea    0x0(%esi,%eiz,1),%esi
    3ac9:	8d bc 27 00 00 00 00 	lea    0x0(%edi,%eiz,1),%edi

00003ad0 <audio_pcm_get_info_str>:
    3ad0:	55                   	push   %ebp
    3ad1:	89 e5                	mov    %esp,%ebp
    3ad3:	57                   	push   %edi
    3ad4:	56                   	push   %esi
    3ad5:	53                   	push   %ebx
    3ad6:	83 ec 2c             	sub    $0x2c,%esp
    3ad9:	8b 45 0c             	mov    0xc(%ebp),%eax
    3adc:	85 c0                	test   %eax,%eax
    3ade:	0f 84 ac 00 00 00    	je     3b90 <audio_pcm_get_info_str+0xc0>
    3ae4:	83 ec 0c             	sub    $0xc,%esp
    3ae7:	8b 45 08             	mov    0x8(%ebp),%eax
    3aea:	50                   	push   %eax
    3aeb:	e8 40 96 00 00       	call   d130 <async_exchange_begin@plt>
    3af0:	83 c4 0c             	add    $0xc,%esp
    3af3:	89 c6                	mov    %eax,%esi
    3af5:	8d 45 e4             	lea    -0x1c(%ebp),%eax
    3af8:	6a 00                	push   $0x0
    3afa:	6a 00                	push   $0x0
    3afc:	6a 00                	push   $0x0
    3afe:	6a 00                	push   $0x0
    3b00:	50                   	push   %eax
    3b01:	6a 00                	push   $0x0
    3b03:	6a 00                	push   $0x0
    3b05:	6a 00                	push   $0x0
    3b07:	6a 00                	push   $0x0
    3b09:	68 04 04 00 00       	push   $0x404
    3b0e:	56                   	push   %esi
    3b0f:	e8 3c 93 00 00       	call   ce50 <async_req_fast@plt>
    3b14:	83 c4 30             	add    $0x30,%esp
    3b17:	89 c3                	mov    %eax,%ebx
    3b19:	85 c0                	test   %eax,%eax
    3b1b:	75 2e                	jne    3b4b <audio_pcm_get_info_str+0x7b>
    3b1d:	8b 45 e4             	mov    -0x1c(%ebp),%eax
    3b20:	57                   	push   %edi
    3b21:	57                   	push   %edi
    3b22:	50                   	push   %eax
    3b23:	6a 01                	push   $0x1
    3b25:	e8 e6 93 00 00       	call   cf10 <calloc@plt>
    3b2a:	83 c4 10             	add    $0x10,%esp
    3b2d:	89 c7                	mov    %eax,%edi
    3b2f:	85 c0                	test   %eax,%eax
    3b31:	74 64                	je     3b97 <audio_pcm_get_info_str+0xc7>
    3b33:	8b 55 e4             	mov    -0x1c(%ebp),%edx
    3b36:	50                   	push   %eax
    3b37:	52                   	push   %edx
    3b38:	57                   	push   %edi
    3b39:	56                   	push   %esi
    3b3a:	e8 61 95 00 00       	call   d0a0 <async_data_read_start@plt>
    3b3f:	83 c4 10             	add    $0x10,%esp
    3b42:	85 c0                	test   %eax,%eax
    3b44:	75 22                	jne    3b68 <audio_pcm_get_info_str+0x98>
    3b46:	8b 45 0c             	mov    0xc(%ebp),%eax
    3b49:	89 38                	mov    %edi,(%eax)
    3b4b:	83 ec 0c             	sub    $0xc,%esp
    3b4e:	56                   	push   %esi
    3b4f:	e8 8c 93 00 00       	call   cee0 <async_exchange_end@plt>
    3b54:	83 c4 10             	add    $0x10,%esp
    3b57:	89 d8                	mov    %ebx,%eax
    3b59:	8d 65 f4             	lea    -0xc(%ebp),%esp
    3b5c:	5b                   	pop    %ebx
    3b5d:	5e                   	pop    %esi
    3b5e:	5f                   	pop    %edi
    3b5f:	5d                   	pop    %ebp
    3b60:	c3                   	ret    
    3b61:	8d b4 26 00 00 00 00 	lea    0x0(%esi,%eiz,1),%esi
    3b68:	83 ec 0c             	sub    $0xc,%esp
    3b6b:	89 45 d4             	mov    %eax,-0x2c(%ebp)
    3b6e:	57                   	push   %edi
    3b6f:	e8 bc 96 00 00       	call   d230 <free@plt>
    3b74:	89 34 24             	mov    %esi,(%esp)
    3b77:	e8 64 93 00 00       	call   cee0 <async_exchange_end@plt>
    3b7c:	8b 45 d4             	mov    -0x2c(%ebp),%eax
    3b7f:	83 c4 10             	add    $0x10,%esp
    3b82:	8d 65 f4             	lea    -0xc(%ebp),%esp
    3b85:	5b                   	pop    %ebx
    3b86:	5e                   	pop    %esi
    3b87:	5f                   	pop    %edi
    3b88:	5d                   	pop    %ebp
    3b89:	c3                   	ret    
    3b8a:	8d b6 00 00 00 00    	lea    0x0(%esi),%esi
    3b90:	b8 f2 ff ff ff       	mov    $0xfffffff2,%eax
    3b95:	eb c2                	jmp    3b59 <audio_pcm_get_info_str+0x89>
    3b97:	51                   	push   %ecx
    3b98:	6a 00                	push   $0x0
    3b9a:	6a ff                	push   $0xffffffff
    3b9c:	56                   	push   %esi
    3b9d:	e8 fe 94 00 00       	call   d0a0 <async_data_read_start@plt>
    3ba2:	89 34 24             	mov    %esi,(%esp)
    3ba5:	e8 36 93 00 00       	call   cee0 <async_exchange_end@plt>
    3baa:	83 c4 10             	add    $0x10,%esp
    3bad:	b8 fe ff ff ff       	mov    $0xfffffffe,%eax
    3bb2:	eb a5                	jmp    3b59 <audio_pcm_get_info_str+0x89>
    3bb4:	8d b6 00 00 00 00    	lea    0x0(%esi),%esi
    3bba:	8d bf 00 00 00 00    	lea    0x0(%edi),%edi

00003bc0 <audio_pcm_query_cap>:
    3bc0:	55                   	push   %ebp
    3bc1:	89 e5                	mov    %esp,%ebp
    3bc3:	53                   	push   %ebx
    3bc4:	83 ec 30             	sub    $0x30,%esp
    3bc7:	8b 45 08             	mov    0x8(%ebp),%eax
    3bca:	50                   	push   %eax
    3bcb:	e8 60 95 00 00       	call   d130 <async_exchange_begin@plt>
    3bd0:	83 c4 0c             	add    $0xc,%esp
    3bd3:	89 c3                	mov    %eax,%ebx
    3bd5:	8b 55 0c             	mov    0xc(%ebp),%edx
    3bd8:	8d 45 f4             	lea    -0xc(%ebp),%eax
    3bdb:	6a 00                	push   $0x0
    3bdd:	c7 45 f4 00 00 00 00 	movl   $0x0,-0xc(%ebp)
    3be4:	6a 00                	push   $0x0
    3be6:	6a 00                	push   $0x0
    3be8:	6a 00                	push   $0x0
    3bea:	50                   	push   %eax
    3beb:	6a 00                	push   $0x0
    3bed:	6a 00                	push   $0x0
    3bef:	52                   	push   %edx
    3bf0:	6a 01                	push   $0x1
    3bf2:	68 04 04 00 00       	push   $0x404
    3bf7:	53                   	push   %ebx
    3bf8:	e8 53 92 00 00       	call   ce50 <async_req_fast@plt>
    3bfd:	83 c4 24             	add    $0x24,%esp
    3c00:	89 45 e4             	mov    %eax,-0x1c(%ebp)
    3c03:	53                   	push   %ebx
    3c04:	e8 d7 92 00 00       	call   cee0 <async_exchange_end@plt>
    3c09:	8b 45 e4             	mov    -0x1c(%ebp),%eax
    3c0c:	83 c4 10             	add    $0x10,%esp
    3c0f:	85 c0                	test   %eax,%eax
    3c11:	75 03                	jne    3c16 <audio_pcm_query_cap+0x56>
    3c13:	8b 45 f4             	mov    -0xc(%ebp),%eax
    3c16:	8b 5d fc             	mov    -0x4(%ebp),%ebx
    3c19:	c9                   	leave  
    3c1a:	c3                   	ret    
    3c1b:	90                   	nop
    3c1c:	8d 74 26 00          	lea    0x0(%esi,%eiz,1),%esi

00003c20 <audio_pcm_get_buffer_pos>:
    3c20:	55                   	push   %ebp
    3c21:	89 e5                	mov    %esp,%ebp
    3c23:	56                   	push   %esi
    3c24:	53                   	push   %ebx
    3c25:	83 ec 20             	sub    $0x20,%esp
    3c28:	8b 75 0c             	mov    0xc(%ebp),%esi
    3c2b:	85 f6                	test   %esi,%esi
    3c2d:	74 61                	je     3c90 <audio_pcm_get_buffer_pos+0x70>
    3c2f:	83 ec 0c             	sub    $0xc,%esp
    3c32:	8b 45 08             	mov    0x8(%ebp),%eax
    3c35:	50                   	push   %eax
    3c36:	e8 f5 94 00 00       	call   d130 <async_exchange_begin@plt>
    3c3b:	83 c4 0c             	add    $0xc,%esp
    3c3e:	89 c3                	mov    %eax,%ebx
    3c40:	8d 45 f4             	lea    -0xc(%ebp),%eax
    3c43:	c7 45 f4 00 00 00 00 	movl   $0x0,-0xc(%ebp)
    3c4a:	6a 00                	push   $0x0
    3c4c:	6a 00                	push   $0x0
    3c4e:	6a 00                	push   $0x0
    3c50:	6a 00                	push   $0x0
    3c52:	50                   	push   %eax
    3c53:	6a 00                	push   $0x0
    3c55:	6a 00                	push   $0x0
    3c57:	6a 00                	push   $0x0
    3c59:	6a 07                	push   $0x7
    3c5b:	68 04 04 00 00       	push   $0x404
    3c60:	53                   	push   %ebx
    3c61:	e8 ea 91 00 00       	call   ce50 <async_req_fast@plt>
    3c66:	83 c4 30             	add    $0x30,%esp
    3c69:	85 c0                	test   %eax,%eax
    3c6b:	74 1b                	je     3c88 <audio_pcm_get_buffer_pos+0x68>
    3c6d:	83 ec 0c             	sub    $0xc,%esp
    3c70:	89 45 e4             	mov    %eax,-0x1c(%ebp)
    3c73:	53                   	push   %ebx
    3c74:	e8 67 92 00 00       	call   cee0 <async_exchange_end@plt>
    3c79:	83 c4 10             	add    $0x10,%esp
    3c7c:	8b 45 e4             	mov    -0x1c(%ebp),%eax
    3c7f:	8d 65 f8             	lea    -0x8(%ebp),%esp
    3c82:	5b                   	pop    %ebx
    3c83:	5e                   	pop    %esi
    3c84:	5d                   	pop    %ebp
    3c85:	c3                   	ret    
    3c86:	66 90                	xchg   %ax,%ax
    3c88:	8b 55 f4             	mov    -0xc(%ebp),%edx
    3c8b:	89 16                	mov    %edx,(%esi)
    3c8d:	eb de                	jmp    3c6d <audio_pcm_get_buffer_pos+0x4d>
    3c8f:	90                   	nop
    3c90:	b8 f2 ff ff ff       	mov    $0xfffffff2,%eax
    3c95:	eb e8                	jmp    3c7f <audio_pcm_get_buffer_pos+0x5f>
    3c97:	89 f6                	mov    %esi,%esi
    3c99:	8d bc 27 00 00 00 00 	lea    0x0(%edi,%eiz,1),%edi

00003ca0 <audio_pcm_test_format>:
    3ca0:	55                   	push   %ebp
    3ca1:	89 e5                	mov    %esp,%ebp
    3ca3:	57                   	push   %edi
    3ca4:	56                   	push   %esi
    3ca5:	53                   	push   %ebx
    3ca6:	83 ec 38             	sub    $0x38,%esp
    3ca9:	8b 45 08             	mov    0x8(%ebp),%eax
    3cac:	8b 5d 0c             	mov    0xc(%ebp),%ebx
    3caf:	50                   	push   %eax
    3cb0:	e8 7b 94 00 00       	call   d130 <async_exchange_begin@plt>
    3cb5:	83 c4 10             	add    $0x10,%esp
    3cb8:	89 c6                	mov    %eax,%esi
    3cba:	85 db                	test   %ebx,%ebx
    3cbc:	0f 84 be 00 00 00    	je     3d80 <audio_pcm_test_format+0xe0>
    3cc2:	8b 03                	mov    (%ebx),%eax
    3cc4:	8b 7d 10             	mov    0x10(%ebp),%edi
    3cc7:	89 45 dc             	mov    %eax,-0x24(%ebp)
    3cca:	85 ff                	test   %edi,%edi
    3ccc:	0f 84 be 00 00 00    	je     3d90 <audio_pcm_test_format+0xf0>
    3cd2:	8b 4d 10             	mov    0x10(%ebp),%ecx
    3cd5:	8b 11                	mov    (%ecx),%edx
    3cd7:	8b 4d 14             	mov    0x14(%ebp),%ecx
    3cda:	89 55 e0             	mov    %edx,-0x20(%ebp)
    3cdd:	85 c9                	test   %ecx,%ecx
    3cdf:	0f 84 bb 00 00 00    	je     3da0 <audio_pcm_test_format+0x100>
    3ce5:	8b 7d 14             	mov    0x14(%ebp),%edi
    3ce8:	8b 0f                	mov    (%edi),%ecx
    3cea:	57                   	push   %edi
    3ceb:	8d 7d e4             	lea    -0x1c(%ebp),%edi
    3cee:	6a 00                	push   $0x0
    3cf0:	6a 00                	push   $0x0
    3cf2:	57                   	push   %edi
    3cf3:	8d 7d e0             	lea    -0x20(%ebp),%edi
    3cf6:	57                   	push   %edi
    3cf7:	8d 7d dc             	lea    -0x24(%ebp),%edi
    3cfa:	57                   	push   %edi
    3cfb:	89 4d e4             	mov    %ecx,-0x1c(%ebp)
    3cfe:	51                   	push   %ecx
    3cff:	52                   	push   %edx
    3d00:	50                   	push   %eax
    3d01:	6a 04                	push   $0x4
    3d03:	68 04 04 00 00       	push   $0x404
    3d08:	56                   	push   %esi
    3d09:	e8 42 91 00 00       	call   ce50 <async_req_fast@plt>
    3d0e:	83 c4 24             	add    $0x24,%esp
    3d11:	89 45 d4             	mov    %eax,-0x2c(%ebp)
    3d14:	56                   	push   %esi
    3d15:	e8 c6 91 00 00       	call   cee0 <async_exchange_end@plt>
    3d1a:	8b 45 d4             	mov    -0x2c(%ebp),%eax
    3d1d:	83 c4 10             	add    $0x10,%esp
    3d20:	85 c0                	test   %eax,%eax
    3d22:	74 34                	je     3d58 <audio_pcm_test_format+0xb8>
    3d24:	83 f8 fd             	cmp    $0xfffffffd,%eax
    3d27:	74 2f                	je     3d58 <audio_pcm_test_format+0xb8>
    3d29:	85 db                	test   %ebx,%ebx
    3d2b:	74 05                	je     3d32 <audio_pcm_test_format+0x92>
    3d2d:	8b 55 dc             	mov    -0x24(%ebp),%edx
    3d30:	89 13                	mov    %edx,(%ebx)
    3d32:	8b 4d 10             	mov    0x10(%ebp),%ecx
    3d35:	85 c9                	test   %ecx,%ecx
    3d37:	74 08                	je     3d41 <audio_pcm_test_format+0xa1>
    3d39:	8b 55 e0             	mov    -0x20(%ebp),%edx
    3d3c:	8b 75 10             	mov    0x10(%ebp),%esi
    3d3f:	89 16                	mov    %edx,(%esi)
    3d41:	8b 55 14             	mov    0x14(%ebp),%edx
    3d44:	85 d2                	test   %edx,%edx
    3d46:	74 08                	je     3d50 <audio_pcm_test_format+0xb0>
    3d48:	8b 4d 14             	mov    0x14(%ebp),%ecx
    3d4b:	8b 55 e4             	mov    -0x1c(%ebp),%edx
    3d4e:	89 11                	mov    %edx,(%ecx)
    3d50:	8d 65 f4             	lea    -0xc(%ebp),%esp
    3d53:	5b                   	pop    %ebx
    3d54:	5e                   	pop    %esi
    3d55:	5f                   	pop    %edi
    3d56:	5d                   	pop    %ebp
    3d57:	c3                   	ret    
    3d58:	85 db                	test   %ebx,%ebx
    3d5a:	74 07                	je     3d63 <audio_pcm_test_format+0xc3>
    3d5c:	8b 55 dc             	mov    -0x24(%ebp),%edx
    3d5f:	39 13                	cmp    %edx,(%ebx)
    3d61:	75 cd                	jne    3d30 <audio_pcm_test_format+0x90>
    3d63:	8b 7d 10             	mov    0x10(%ebp),%edi
    3d66:	85 ff                	test   %edi,%edi
    3d68:	74 3e                	je     3da8 <audio_pcm_test_format+0x108>
    3d6a:	8b 75 10             	mov    0x10(%ebp),%esi
    3d6d:	8b 55 e0             	mov    -0x20(%ebp),%edx
    3d70:	39 16                	cmp    %edx,(%esi)
    3d72:	74 34                	je     3da8 <audio_pcm_test_format+0x108>
    3d74:	85 db                	test   %ebx,%ebx
    3d76:	75 b5                	jne    3d2d <audio_pcm_test_format+0x8d>
    3d78:	eb c5                	jmp    3d3f <audio_pcm_test_format+0x9f>
    3d7a:	8d b6 00 00 00 00    	lea    0x0(%esi),%esi
    3d80:	31 c0                	xor    %eax,%eax
    3d82:	8b 7d 10             	mov    0x10(%ebp),%edi
    3d85:	89 45 dc             	mov    %eax,-0x24(%ebp)
    3d88:	85 ff                	test   %edi,%edi
    3d8a:	0f 85 42 ff ff ff    	jne    3cd2 <audio_pcm_test_format+0x32>
    3d90:	31 d2                	xor    %edx,%edx
    3d92:	8b 4d 14             	mov    0x14(%ebp),%ecx
    3d95:	89 55 e0             	mov    %edx,-0x20(%ebp)
    3d98:	85 c9                	test   %ecx,%ecx
    3d9a:	0f 85 45 ff ff ff    	jne    3ce5 <audio_pcm_test_format+0x45>
    3da0:	31 c9                	xor    %ecx,%ecx
    3da2:	e9 43 ff ff ff       	jmp    3cea <audio_pcm_test_format+0x4a>
    3da7:	90                   	nop
    3da8:	8b 75 14             	mov    0x14(%ebp),%esi
    3dab:	85 f6                	test   %esi,%esi
    3dad:	74 0e                	je     3dbd <audio_pcm_test_format+0x11d>
    3daf:	8b 75 14             	mov    0x14(%ebp),%esi
    3db2:	8b 4d e4             	mov    -0x1c(%ebp),%ecx
    3db5:	39 0e                	cmp    %ecx,(%esi)
    3db7:	0f 85 6c ff ff ff    	jne    3d29 <audio_pcm_test_format+0x89>
    3dbd:	31 c0                	xor    %eax,%eax
    3dbf:	eb 8f                	jmp    3d50 <audio_pcm_test_format+0xb0>
    3dc1:	eb 0d                	jmp    3dd0 <audio_pcm_register_event_callback>
    3dc3:	90                   	nop
    3dc4:	90                   	nop
    3dc5:	90                   	nop
    3dc6:	90                   	nop
    3dc7:	90                   	nop
    3dc8:	90                   	nop
    3dc9:	90                   	nop
    3dca:	90                   	nop
    3dcb:	90                   	nop
    3dcc:	90                   	nop
    3dcd:	90                   	nop
    3dce:	90                   	nop
    3dcf:	90                   	nop

00003dd0 <audio_pcm_register_event_callback>:
    3dd0:	55                   	push   %ebp
    3dd1:	89 e5                	mov    %esp,%ebp
    3dd3:	56                   	push   %esi
    3dd4:	53                   	push   %ebx
    3dd5:	83 ec 20             	sub    $0x20,%esp
    3dd8:	8b 75 0c             	mov    0xc(%ebp),%esi
    3ddb:	85 f6                	test   %esi,%esi
    3ddd:	74 71                	je     3e50 <audio_pcm_register_event_callback+0x80>
    3ddf:	83 ec 0c             	sub    $0xc,%esp
    3de2:	8b 4d 08             	mov    0x8(%ebp),%ecx
    3de5:	51                   	push   %ecx
    3de6:	e8 45 93 00 00       	call   d130 <async_exchange_begin@plt>
    3deb:	83 c4 0c             	add    $0xc,%esp
    3dee:	89 c3                	mov    %eax,%ebx
    3df0:	6a 00                	push   $0x0
    3df2:	6a 00                	push   $0x0
    3df4:	6a 00                	push   $0x0
    3df6:	6a 00                	push   $0x0
    3df8:	6a 00                	push   $0x0
    3dfa:	6a 00                	push   $0x0
    3dfc:	6a 00                	push   $0x0
    3dfe:	6a 00                	push   $0x0
    3e00:	6a 02                	push   $0x2
    3e02:	68 04 04 00 00       	push   $0x404
    3e07:	50                   	push   %eax
    3e08:	e8 43 90 00 00       	call   ce50 <async_req_fast@plt>
    3e0d:	83 c4 30             	add    $0x30,%esp
    3e10:	85 c0                	test   %eax,%eax
    3e12:	74 1c                	je     3e30 <audio_pcm_register_event_callback+0x60>
    3e14:	83 ec 0c             	sub    $0xc,%esp
    3e17:	89 45 e4             	mov    %eax,-0x1c(%ebp)
    3e1a:	53                   	push   %ebx
    3e1b:	e8 c0 90 00 00       	call   cee0 <async_exchange_end@plt>
    3e20:	83 c4 10             	add    $0x10,%esp
    3e23:	8b 45 e4             	mov    -0x1c(%ebp),%eax
    3e26:	8d 65 f8             	lea    -0x8(%ebp),%esp
    3e29:	5b                   	pop    %ebx
    3e2a:	5e                   	pop    %esi
    3e2b:	5d                   	pop    %ebp
    3e2c:	c3                   	ret    
    3e2d:	8d 76 00             	lea    0x0(%esi),%esi
    3e30:	8b 55 10             	mov    0x10(%ebp),%edx
    3e33:	50                   	push   %eax
    3e34:	8d 45 f4             	lea    -0xc(%ebp),%eax
    3e37:	50                   	push   %eax
    3e38:	52                   	push   %edx
    3e39:	56                   	push   %esi
    3e3a:	6a 00                	push   $0x0
    3e3c:	6a 00                	push   $0x0
    3e3e:	68 16 86 8f db       	push   $0xdb8f8616
    3e43:	53                   	push   %ebx
    3e44:	e8 07 92 00 00       	call   d050 <async_create_callback_port@plt>
    3e49:	83 c4 20             	add    $0x20,%esp
    3e4c:	eb c6                	jmp    3e14 <audio_pcm_register_event_callback+0x44>
    3e4e:	66 90                	xchg   %ax,%ax
    3e50:	b8 f2 ff ff ff       	mov    $0xfffffff2,%eax
    3e55:	eb cf                	jmp    3e26 <audio_pcm_register_event_callback+0x56>
    3e57:	89 f6                	mov    %esi,%esi
    3e59:	8d bc 27 00 00 00 00 	lea    0x0(%edi,%eiz,1),%edi

00003e60 <audio_pcm_unregister_event_callback>:
    3e60:	55                   	push   %ebp
    3e61:	89 e5                	mov    %esp,%ebp
    3e63:	53                   	push   %ebx
    3e64:	83 ec 20             	sub    $0x20,%esp
    3e67:	8b 45 08             	mov    0x8(%ebp),%eax
    3e6a:	50                   	push   %eax
    3e6b:	e8 c0 92 00 00       	call   d130 <async_exchange_begin@plt>
    3e70:	83 c4 0c             	add    $0xc,%esp
    3e73:	89 c3                	mov    %eax,%ebx
    3e75:	6a 00                	push   $0x0
    3e77:	6a 00                	push   $0x0
    3e79:	6a 00                	push   $0x0
    3e7b:	6a 00                	push   $0x0
    3e7d:	6a 00                	push   $0x0
    3e7f:	6a 00                	push   $0x0
    3e81:	6a 00                	push   $0x0
    3e83:	6a 00                	push   $0x0
    3e85:	6a 03                	push   $0x3
    3e87:	68 04 04 00 00       	push   $0x404
    3e8c:	50                   	push   %eax
    3e8d:	e8 be 8f 00 00       	call   ce50 <async_req_fast@plt>
    3e92:	83 c4 24             	add    $0x24,%esp
    3e95:	89 45 f4             	mov    %eax,-0xc(%ebp)
    3e98:	53                   	push   %ebx
    3e99:	e8 42 90 00 00       	call   cee0 <async_exchange_end@plt>
    3e9e:	8b 45 f4             	mov    -0xc(%ebp),%eax
    3ea1:	8b 5d fc             	mov    -0x4(%ebp),%ebx
    3ea4:	c9                   	leave  
    3ea5:	c3                   	ret    
    3ea6:	8d 76 00             	lea    0x0(%esi),%esi
    3ea9:	8d bc 27 00 00 00 00 	lea    0x0(%edi,%eiz,1),%edi

00003eb0 <audio_pcm_get_buffer>:
    3eb0:	55                   	push   %ebp
    3eb1:	89 e5                	mov    %esp,%ebp
    3eb3:	57                   	push   %edi
    3eb4:	56                   	push   %esi
    3eb5:	53                   	push   %ebx
    3eb6:	83 ec 2c             	sub    $0x2c,%esp
    3eb9:	8b 75 0c             	mov    0xc(%ebp),%esi
    3ebc:	8b 5d 10             	mov    0x10(%ebp),%ebx
    3ebf:	85 f6                	test   %esi,%esi
    3ec1:	0f 84 91 00 00 00    	je     3f58 <audio_pcm_get_buffer+0xa8>
    3ec7:	85 db                	test   %ebx,%ebx
    3ec9:	0f 84 89 00 00 00    	je     3f58 <audio_pcm_get_buffer+0xa8>
    3ecf:	83 ec 0c             	sub    $0xc,%esp
    3ed2:	8b 55 08             	mov    0x8(%ebp),%edx
    3ed5:	52                   	push   %edx
    3ed6:	e8 55 92 00 00       	call   d130 <async_exchange_begin@plt>
    3edb:	83 c4 0c             	add    $0xc,%esp
    3ede:	89 c7                	mov    %eax,%edi
    3ee0:	8d 55 e0             	lea    -0x20(%ebp),%edx
    3ee3:	8b 03                	mov    (%ebx),%eax
    3ee5:	89 45 e0             	mov    %eax,-0x20(%ebp)
    3ee8:	6a 00                	push   $0x0
    3eea:	6a 00                	push   $0x0
    3eec:	6a 00                	push   $0x0
    3eee:	6a 00                	push   $0x0
    3ef0:	52                   	push   %edx
    3ef1:	6a 00                	push   $0x0
    3ef3:	6a 00                	push   $0x0
    3ef5:	50                   	push   %eax
    3ef6:	6a 05                	push   $0x5
    3ef8:	68 04 04 00 00       	push   $0x404
    3efd:	57                   	push   %edi
    3efe:	e8 4d 8f 00 00       	call   ce50 <async_req_fast@plt>
    3f03:	83 c4 30             	add    $0x30,%esp
    3f06:	85 c0                	test   %eax,%eax
    3f08:	75 2d                	jne    3f37 <audio_pcm_get_buffer+0x87>
    3f0a:	83 ec 0c             	sub    $0xc,%esp
    3f0d:	8d 45 e4             	lea    -0x1c(%ebp),%eax
    3f10:	c7 45 e4 00 00 00 00 	movl   $0x0,-0x1c(%ebp)
    3f17:	50                   	push   %eax
    3f18:	8b 45 e0             	mov    -0x20(%ebp),%eax
    3f1b:	6a 00                	push   $0x0
    3f1d:	6a 00                	push   $0x0
    3f1f:	50                   	push   %eax
    3f20:	57                   	push   %edi
    3f21:	e8 9a 8e 00 00       	call   cdc0 <async_share_in_start@plt>
    3f26:	83 c4 20             	add    $0x20,%esp
    3f29:	85 c0                	test   %eax,%eax
    3f2b:	75 0a                	jne    3f37 <audio_pcm_get_buffer+0x87>
    3f2d:	8b 55 e4             	mov    -0x1c(%ebp),%edx
    3f30:	89 16                	mov    %edx,(%esi)
    3f32:	8b 55 e0             	mov    -0x20(%ebp),%edx
    3f35:	89 13                	mov    %edx,(%ebx)
    3f37:	83 ec 0c             	sub    $0xc,%esp
    3f3a:	89 45 d4             	mov    %eax,-0x2c(%ebp)
    3f3d:	57                   	push   %edi
    3f3e:	e8 9d 8f 00 00       	call   cee0 <async_exchange_end@plt>
    3f43:	83 c4 10             	add    $0x10,%esp
    3f46:	8b 45 d4             	mov    -0x2c(%ebp),%eax
    3f49:	8d 65 f4             	lea    -0xc(%ebp),%esp
    3f4c:	5b                   	pop    %ebx
    3f4d:	5e                   	pop    %esi
    3f4e:	5f                   	pop    %edi
    3f4f:	5d                   	pop    %ebp
    3f50:	c3                   	ret    
    3f51:	8d b4 26 00 00 00 00 	lea    0x0(%esi,%eiz,1),%esi
    3f58:	b8 f2 ff ff ff       	mov    $0xfffffff2,%eax
    3f5d:	eb ea                	jmp    3f49 <audio_pcm_get_buffer+0x99>
    3f5f:	90                   	nop

00003f60 <audio_pcm_release_buffer>:
    3f60:	55                   	push   %ebp
    3f61:	89 e5                	mov    %esp,%ebp
    3f63:	53                   	push   %ebx
    3f64:	83 ec 20             	sub    $0x20,%esp
    3f67:	8b 45 08             	mov    0x8(%ebp),%eax
    3f6a:	50                   	push   %eax
    3f6b:	e8 c0 91 00 00       	call   d130 <async_exchange_begin@plt>
    3f70:	83 c4 0c             	add    $0xc,%esp
    3f73:	89 c3                	mov    %eax,%ebx
    3f75:	6a 00                	push   $0x0
    3f77:	6a 00                	push   $0x0
    3f79:	6a 00                	push   $0x0
    3f7b:	6a 00                	push   $0x0
    3f7d:	6a 00                	push   $0x0
    3f7f:	6a 00                	push   $0x0
    3f81:	6a 00                	push   $0x0
    3f83:	6a 00                	push   $0x0
    3f85:	6a 06                	push   $0x6
    3f87:	68 04 04 00 00       	push   $0x404
    3f8c:	50                   	push   %eax
    3f8d:	e8 be 8e 00 00       	call   ce50 <async_req_fast@plt>
    3f92:	83 c4 24             	add    $0x24,%esp
    3f95:	89 45 f4             	mov    %eax,-0xc(%ebp)
    3f98:	53                   	push   %ebx
    3f99:	e8 42 8f 00 00       	call   cee0 <async_exchange_end@plt>
    3f9e:	8b 45 f4             	mov    -0xc(%ebp),%eax
    3fa1:	8b 5d fc             	mov    -0x4(%ebp),%ebx
    3fa4:	c9                   	leave  
    3fa5:	c3                   	ret    
    3fa6:	8d 76 00             	lea    0x0(%esi),%esi
    3fa9:	8d bc 27 00 00 00 00 	lea    0x0(%edi,%eiz,1),%edi

00003fb0 <audio_pcm_start_playback_fragment>:
    3fb0:	55                   	push   %ebp
    3fb1:	89 e5                	mov    %esp,%ebp
    3fb3:	56                   	push   %esi
    3fb4:	53                   	push   %ebx
    3fb5:	83 ec 10             	sub    $0x10,%esp
    3fb8:	81 7d 10 ff ff 00 00 	cmpl   $0xffff,0x10(%ebp)
    3fbf:	77 5f                	ja     4020 <audio_pcm_start_playback_fragment+0x70>
    3fc1:	f7 45 18 00 00 ff ff 	testl  $0xffff0000,0x18(%ebp)
    3fc8:	75 5d                	jne    4027 <audio_pcm_start_playback_fragment+0x77>
    3fca:	83 ec 0c             	sub    $0xc,%esp
    3fcd:	8b 5d 10             	mov    0x10(%ebp),%ebx
    3fd0:	8b 55 08             	mov    0x8(%ebp),%edx
    3fd3:	8b 45 18             	mov    0x18(%ebp),%eax
    3fd6:	c1 e3 10             	shl    $0x10,%ebx
    3fd9:	52                   	push   %edx
    3fda:	09 c3                	or     %eax,%ebx
    3fdc:	e8 4f 91 00 00       	call   d130 <async_exchange_begin@plt>
    3fe1:	83 c4 0c             	add    $0xc,%esp
    3fe4:	8b 4d 14             	mov    0x14(%ebp),%ecx
    3fe7:	89 c6                	mov    %eax,%esi
    3fe9:	6a 00                	push   $0x0
    3feb:	6a 00                	push   $0x0
    3fed:	6a 00                	push   $0x0
    3fef:	6a 00                	push   $0x0
    3ff1:	6a 00                	push   $0x0
    3ff3:	53                   	push   %ebx
    3ff4:	8b 5d 0c             	mov    0xc(%ebp),%ebx
    3ff7:	51                   	push   %ecx
    3ff8:	53                   	push   %ebx
    3ff9:	6a 08                	push   $0x8
    3ffb:	68 04 04 00 00       	push   $0x404
    4000:	50                   	push   %eax
    4001:	e8 4a 8e 00 00       	call   ce50 <async_req_fast@plt>
    4006:	83 c4 24             	add    $0x24,%esp
    4009:	56                   	push   %esi
    400a:	89 45 f4             	mov    %eax,-0xc(%ebp)
    400d:	e8 ce 8e 00 00       	call   cee0 <async_exchange_end@plt>
    4012:	83 c4 10             	add    $0x10,%esp
    4015:	8b 45 f4             	mov    -0xc(%ebp),%eax
    4018:	8d 65 f8             	lea    -0x8(%ebp),%esp
    401b:	5b                   	pop    %ebx
    401c:	5e                   	pop    %esi
    401d:	5d                   	pop    %ebp
    401e:	c3                   	ret    
    401f:	90                   	nop
    4020:	b8 f2 ff ff ff       	mov    $0xfffffff2,%eax
    4025:	eb f1                	jmp    4018 <audio_pcm_start_playback_fragment+0x68>
    4027:	56                   	push   %esi
    4028:	68 a6 01 00 00       	push   $0x1a6
    402d:	68 b8 b3 00 00       	push   $0xb3b8
    4032:	68 20 b5 00 00       	push   $0xb520
    4037:	e8 b4 8e 00 00       	call   cef0 <assert_abort@plt>
    403c:	8d 74 26 00          	lea    0x0(%esi,%eiz,1),%esi

00004040 <audio_pcm_last_playback_fragment>:
    4040:	55                   	push   %ebp
    4041:	89 e5                	mov    %esp,%ebp
    4043:	53                   	push   %ebx
    4044:	83 ec 20             	sub    $0x20,%esp
    4047:	8b 45 08             	mov    0x8(%ebp),%eax
    404a:	50                   	push   %eax
    404b:	e8 e0 90 00 00       	call   d130 <async_exchange_begin@plt>
    4050:	83 c4 0c             	add    $0xc,%esp
    4053:	89 c3                	mov    %eax,%ebx
    4055:	6a 00                	push   $0x0
    4057:	6a 00                	push   $0x0
    4059:	6a 00                	push   $0x0
    405b:	6a 00                	push   $0x0
    405d:	6a 00                	push   $0x0
    405f:	6a 00                	push   $0x0
    4061:	6a 00                	push   $0x0
    4063:	6a 00                	push   $0x0
    4065:	6a 09                	push   $0x9
    4067:	68 04 04 00 00       	push   $0x404
    406c:	50                   	push   %eax
    406d:	e8 de 8d 00 00       	call   ce50 <async_req_fast@plt>
    4072:	83 c4 24             	add    $0x24,%esp
    4075:	89 45 f4             	mov    %eax,-0xc(%ebp)
    4078:	53                   	push   %ebx
    4079:	e8 62 8e 00 00       	call   cee0 <async_exchange_end@plt>
    407e:	8b 45 f4             	mov    -0xc(%ebp),%eax
    4081:	8b 5d fc             	mov    -0x4(%ebp),%ebx
    4084:	c9                   	leave  
    4085:	c3                   	ret    
    4086:	8d 76 00             	lea    0x0(%esi),%esi
    4089:	8d bc 27 00 00 00 00 	lea    0x0(%edi,%eiz,1),%edi

00004090 <audio_pcm_start_playback>:
    4090:	55                   	push   %ebp
    4091:	89 e5                	mov    %esp,%ebp
    4093:	56                   	push   %esi
    4094:	53                   	push   %ebx
    4095:	83 ec 10             	sub    $0x10,%esp
    4098:	81 7d 0c ff ff 00 00 	cmpl   $0xffff,0xc(%ebp)
    409f:	77 5f                	ja     4100 <audio_pcm_start_playback+0x70>
    40a1:	f7 45 14 00 00 ff ff 	testl  $0xffff0000,0x14(%ebp)
    40a8:	75 5d                	jne    4107 <audio_pcm_start_playback+0x77>
    40aa:	83 ec 0c             	sub    $0xc,%esp
    40ad:	8b 5d 0c             	mov    0xc(%ebp),%ebx
    40b0:	8b 55 08             	mov    0x8(%ebp),%edx
    40b3:	8b 45 14             	mov    0x14(%ebp),%eax
    40b6:	c1 e3 10             	shl    $0x10,%ebx
    40b9:	52                   	push   %edx
    40ba:	09 c3                	or     %eax,%ebx
    40bc:	e8 6f 90 00 00       	call   d130 <async_exchange_begin@plt>
    40c1:	83 c4 0c             	add    $0xc,%esp
    40c4:	8b 4d 10             	mov    0x10(%ebp),%ecx
    40c7:	89 c6                	mov    %eax,%esi
    40c9:	6a 00                	push   $0x0
    40cb:	6a 00                	push   $0x0
    40cd:	6a 00                	push   $0x0
    40cf:	6a 00                	push   $0x0
    40d1:	6a 00                	push   $0x0
    40d3:	53                   	push   %ebx
    40d4:	51                   	push   %ecx
    40d5:	6a 00                	push   $0x0
    40d7:	6a 08                	push   $0x8
    40d9:	68 04 04 00 00       	push   $0x404
    40de:	50                   	push   %eax
    40df:	e8 6c 8d 00 00       	call   ce50 <async_req_fast@plt>
    40e4:	83 c4 24             	add    $0x24,%esp
    40e7:	89 45 f4             	mov    %eax,-0xc(%ebp)
    40ea:	56                   	push   %esi
    40eb:	e8 f0 8d 00 00       	call   cee0 <async_exchange_end@plt>
    40f0:	83 c4 10             	add    $0x10,%esp
    40f3:	8b 45 f4             	mov    -0xc(%ebp),%eax
    40f6:	8d 65 f8             	lea    -0x8(%ebp),%esp
    40f9:	5b                   	pop    %ebx
    40fa:	5e                   	pop    %esi
    40fb:	5d                   	pop    %ebp
    40fc:	c3                   	ret    
    40fd:	8d 76 00             	lea    0x0(%esi),%esi
    4100:	b8 f2 ff ff ff       	mov    $0xfffffff2,%eax
    4105:	eb ef                	jmp    40f6 <audio_pcm_start_playback+0x66>
    4107:	53                   	push   %ebx
    4108:	68 a6 01 00 00       	push   $0x1a6
    410d:	68 b8 b3 00 00       	push   $0xb3b8
    4112:	68 20 b5 00 00       	push   $0xb520
    4117:	e8 d4 8d 00 00       	call   cef0 <assert_abort@plt>
    411c:	8d 74 26 00          	lea    0x0(%esi,%eiz,1),%esi

00004120 <audio_pcm_stop_playback_immediate>:
    4120:	55                   	push   %ebp
    4121:	89 e5                	mov    %esp,%ebp
    4123:	53                   	push   %ebx
    4124:	83 ec 20             	sub    $0x20,%esp
    4127:	8b 45 08             	mov    0x8(%ebp),%eax
    412a:	50                   	push   %eax
    412b:	e8 00 90 00 00       	call   d130 <async_exchange_begin@plt>
    4130:	83 c4 0c             	add    $0xc,%esp
    4133:	89 c3                	mov    %eax,%ebx
    4135:	6a 00                	push   $0x0
    4137:	6a 00                	push   $0x0
    4139:	6a 00                	push   $0x0
    413b:	6a 00                	push   $0x0
    413d:	6a 00                	push   $0x0
    413f:	6a 00                	push   $0x0
    4141:	6a 00                	push   $0x0
    4143:	6a 01                	push   $0x1
    4145:	6a 09                	push   $0x9
    4147:	68 04 04 00 00       	push   $0x404
    414c:	50                   	push   %eax
    414d:	e8 fe 8c 00 00       	call   ce50 <async_req_fast@plt>
    4152:	83 c4 24             	add    $0x24,%esp
    4155:	89 45 f4             	mov    %eax,-0xc(%ebp)
    4158:	53                   	push   %ebx
    4159:	e8 82 8d 00 00       	call   cee0 <async_exchange_end@plt>
    415e:	8b 45 f4             	mov    -0xc(%ebp),%eax
    4161:	8b 5d fc             	mov    -0x4(%ebp),%ebx
    4164:	c9                   	leave  
    4165:	c3                   	ret    
    4166:	8d 76 00             	lea    0x0(%esi),%esi
    4169:	8d bc 27 00 00 00 00 	lea    0x0(%edi,%eiz,1),%edi

00004170 <audio_pcm_stop_playback>:
    4170:	55                   	push   %ebp
    4171:	89 e5                	mov    %esp,%ebp
    4173:	53                   	push   %ebx
    4174:	83 ec 20             	sub    $0x20,%esp
    4177:	8b 45 08             	mov    0x8(%ebp),%eax
    417a:	50                   	push   %eax
    417b:	e8 b0 8f 00 00       	call   d130 <async_exchange_begin@plt>
    4180:	83 c4 0c             	add    $0xc,%esp
    4183:	89 c3                	mov    %eax,%ebx
    4185:	6a 00                	push   $0x0
    4187:	6a 00                	push   $0x0
    4189:	6a 00                	push   $0x0
    418b:	6a 00                	push   $0x0
    418d:	6a 00                	push   $0x0
    418f:	6a 00                	push   $0x0
    4191:	6a 00                	push   $0x0
    4193:	6a 00                	push   $0x0
    4195:	6a 09                	push   $0x9
    4197:	68 04 04 00 00       	push   $0x404
    419c:	50                   	push   %eax
    419d:	e8 ae 8c 00 00       	call   ce50 <async_req_fast@plt>
    41a2:	83 c4 24             	add    $0x24,%esp
    41a5:	89 45 f4             	mov    %eax,-0xc(%ebp)
    41a8:	53                   	push   %ebx
    41a9:	e8 32 8d 00 00       	call   cee0 <async_exchange_end@plt>
    41ae:	8b 45 f4             	mov    -0xc(%ebp),%eax
    41b1:	8b 5d fc             	mov    -0x4(%ebp),%ebx
    41b4:	c9                   	leave  
    41b5:	c3                   	ret    
    41b6:	8d 76 00             	lea    0x0(%esi),%esi
    41b9:	8d bc 27 00 00 00 00 	lea    0x0(%edi,%eiz,1),%edi

000041c0 <audio_pcm_start_capture_fragment>:
    41c0:	55                   	push   %ebp
    41c1:	89 e5                	mov    %esp,%ebp
    41c3:	56                   	push   %esi
    41c4:	53                   	push   %ebx
    41c5:	83 ec 10             	sub    $0x10,%esp
    41c8:	81 7d 10 ff ff 00 00 	cmpl   $0xffff,0x10(%ebp)
    41cf:	77 5f                	ja     4230 <audio_pcm_start_capture_fragment+0x70>
    41d1:	f7 45 18 00 00 ff ff 	testl  $0xffff0000,0x18(%ebp)
    41d8:	75 5d                	jne    4237 <audio_pcm_start_capture_fragment+0x77>
    41da:	83 ec 0c             	sub    $0xc,%esp
    41dd:	8b 5d 10             	mov    0x10(%ebp),%ebx
    41e0:	8b 55 08             	mov    0x8(%ebp),%edx
    41e3:	8b 45 18             	mov    0x18(%ebp),%eax
    41e6:	c1 e3 10             	shl    $0x10,%ebx
    41e9:	52                   	push   %edx
    41ea:	09 c3                	or     %eax,%ebx
    41ec:	e8 3f 8f 00 00       	call   d130 <async_exchange_begin@plt>
    41f1:	83 c4 0c             	add    $0xc,%esp
    41f4:	8b 4d 14             	mov    0x14(%ebp),%ecx
    41f7:	89 c6                	mov    %eax,%esi
    41f9:	6a 00                	push   $0x0
    41fb:	6a 00                	push   $0x0
    41fd:	6a 00                	push   $0x0
    41ff:	6a 00                	push   $0x0
    4201:	6a 00                	push   $0x0
    4203:	53                   	push   %ebx
    4204:	8b 5d 0c             	mov    0xc(%ebp),%ebx
    4207:	51                   	push   %ecx
    4208:	53                   	push   %ebx
    4209:	6a 0a                	push   $0xa
    420b:	68 04 04 00 00       	push   $0x404
    4210:	50                   	push   %eax
    4211:	e8 3a 8c 00 00       	call   ce50 <async_req_fast@plt>
    4216:	83 c4 24             	add    $0x24,%esp
    4219:	56                   	push   %esi
    421a:	89 45 f4             	mov    %eax,-0xc(%ebp)
    421d:	e8 be 8c 00 00       	call   cee0 <async_exchange_end@plt>
    4222:	83 c4 10             	add    $0x10,%esp
    4225:	8b 45 f4             	mov    -0xc(%ebp),%eax
    4228:	8d 65 f8             	lea    -0x8(%ebp),%esp
    422b:	5b                   	pop    %ebx
    422c:	5e                   	pop    %esi
    422d:	5d                   	pop    %ebp
    422e:	c3                   	ret    
    422f:	90                   	nop
    4230:	b8 f2 ff ff ff       	mov    $0xfffffff2,%eax
    4235:	eb f1                	jmp    4228 <audio_pcm_start_capture_fragment+0x68>
    4237:	56                   	push   %esi
    4238:	68 07 02 00 00       	push   $0x207
    423d:	68 b8 b3 00 00       	push   $0xb3b8
    4242:	68 20 b5 00 00       	push   $0xb520
    4247:	e8 a4 8c 00 00       	call   cef0 <assert_abort@plt>
    424c:	8d 74 26 00          	lea    0x0(%esi,%eiz,1),%esi

00004250 <audio_pcm_start_capture>:
    4250:	55                   	push   %ebp
    4251:	89 e5                	mov    %esp,%ebp
    4253:	56                   	push   %esi
    4254:	53                   	push   %ebx
    4255:	83 ec 10             	sub    $0x10,%esp
    4258:	81 7d 0c ff ff 00 00 	cmpl   $0xffff,0xc(%ebp)
    425f:	77 5f                	ja     42c0 <audio_pcm_start_capture+0x70>
    4261:	f7 45 14 00 00 ff ff 	testl  $0xffff0000,0x14(%ebp)
    4268:	75 5d                	jne    42c7 <audio_pcm_start_capture+0x77>
    426a:	83 ec 0c             	sub    $0xc,%esp
    426d:	8b 5d 0c             	mov    0xc(%ebp),%ebx
    4270:	8b 55 08             	mov    0x8(%ebp),%edx
    4273:	8b 45 14             	mov    0x14(%ebp),%eax
    4276:	c1 e3 10             	shl    $0x10,%ebx
    4279:	52                   	push   %edx
    427a:	09 c3                	or     %eax,%ebx
    427c:	e8 af 8e 00 00       	call   d130 <async_exchange_begin@plt>
    4281:	83 c4 0c             	add    $0xc,%esp
    4284:	8b 4d 10             	mov    0x10(%ebp),%ecx
    4287:	89 c6                	mov    %eax,%esi
    4289:	6a 00                	push   $0x0
    428b:	6a 00                	push   $0x0
    428d:	6a 00                	push   $0x0
    428f:	6a 00                	push   $0x0
    4291:	6a 00                	push   $0x0
    4293:	53                   	push   %ebx
    4294:	51                   	push   %ecx
    4295:	6a 00                	push   $0x0
    4297:	6a 0a                	push   $0xa
    4299:	68 04 04 00 00       	push   $0x404
    429e:	50                   	push   %eax
    429f:	e8 ac 8b 00 00       	call   ce50 <async_req_fast@plt>
    42a4:	83 c4 24             	add    $0x24,%esp
    42a7:	89 45 f4             	mov    %eax,-0xc(%ebp)
    42aa:	56                   	push   %esi
    42ab:	e8 30 8c 00 00       	call   cee0 <async_exchange_end@plt>
    42b0:	83 c4 10             	add    $0x10,%esp
    42b3:	8b 45 f4             	mov    -0xc(%ebp),%eax
    42b6:	8d 65 f8             	lea    -0x8(%ebp),%esp
    42b9:	5b                   	pop    %ebx
    42ba:	5e                   	pop    %esi
    42bb:	5d                   	pop    %ebp
    42bc:	c3                   	ret    
    42bd:	8d 76 00             	lea    0x0(%esi),%esi
    42c0:	b8 f2 ff ff ff       	mov    $0xfffffff2,%eax
    42c5:	eb ef                	jmp    42b6 <audio_pcm_start_capture+0x66>
    42c7:	53                   	push   %ebx
    42c8:	68 07 02 00 00       	push   $0x207
    42cd:	68 b8 b3 00 00       	push   $0xb3b8
    42d2:	68 20 b5 00 00       	push   $0xb520
    42d7:	e8 14 8c 00 00       	call   cef0 <assert_abort@plt>
    42dc:	8d 74 26 00          	lea    0x0(%esi,%eiz,1),%esi

000042e0 <audio_pcm_last_capture_fragment>:
    42e0:	55                   	push   %ebp
    42e1:	89 e5                	mov    %esp,%ebp
    42e3:	53                   	push   %ebx
    42e4:	83 ec 20             	sub    $0x20,%esp
    42e7:	8b 45 08             	mov    0x8(%ebp),%eax
    42ea:	50                   	push   %eax
    42eb:	e8 40 8e 00 00       	call   d130 <async_exchange_begin@plt>
    42f0:	83 c4 0c             	add    $0xc,%esp
    42f3:	89 c3                	mov    %eax,%ebx
    42f5:	6a 00                	push   $0x0
    42f7:	6a 00                	push   $0x0
    42f9:	6a 00                	push   $0x0
    42fb:	6a 00                	push   $0x0
    42fd:	6a 00                	push   $0x0
    42ff:	6a 00                	push   $0x0
    4301:	6a 00                	push   $0x0
    4303:	6a 00                	push   $0x0
    4305:	6a 0b                	push   $0xb
    4307:	68 04 04 00 00       	push   $0x404
