
Discarded input sections

 .debug_line    0x0000000000000000       0x53 /home/ayyuce/Desktop/HlnOS/HelenOS/uspace/lib/c/arch/ia32/src/entry.o
 .debug_info    0x0000000000000000       0x6c /home/ayyuce/Desktop/HlnOS/HelenOS/uspace/lib/c/arch/ia32/src/entry.o
 .debug_abbrev  0x0000000000000000       0x14 /home/ayyuce/Desktop/HlnOS/HelenOS/uspace/lib/c/arch/ia32/src/entry.o
 .debug_aranges
                0x0000000000000000       0x20 /home/ayyuce/Desktop/HlnOS/HelenOS/uspace/lib/c/arch/ia32/src/entry.o
 .debug_info    0x0000000000000000      0x92f redir.o
 .debug_abbrev  0x0000000000000000      0x22a redir.o
 .debug_loc     0x0000000000000000      0x42a redir.o
 .debug_aranges
                0x0000000000000000       0x20 redir.o
 .debug_ranges  0x0000000000000000       0x98 redir.o
 .debug_line    0x0000000000000000      0x287 redir.o
 .debug_str     0x0000000000000000      0x782 redir.o
 .comment       0x0000000000000000       0x12 redir.o
 .note.GNU-stack
                0x0000000000000000        0x0 redir.o
 .eh_frame      0x0000000000000000       0x60 redir.o

Memory Configuration

Name             Origin             Length             Attributes
*default*        0x0000000000000000 0xffffffffffffffff

Linker script and memory map

LOAD /home/ayyuce/Desktop/HlnOS/HelenOS/uspace/lib/c/arch/ia32/src/entry.o
                0x00000000000010f4                . = (0x1000 + SIZEOF_HEADERS)

.init           0x00000000000010f4       0x2e
 *(.init)
 .init          0x00000000000010f4       0x2e /home/ayyuce/Desktop/HlnOS/HelenOS/uspace/lib/c/arch/ia32/src/entry.o
                0x00000000000010f4                __entry

.text           0x0000000000001130      0x4bc
 *(.text .text.*)
 .text          0x0000000000001130        0x0 /home/ayyuce/Desktop/HlnOS/HelenOS/uspace/lib/c/arch/ia32/src/entry.o
 .text          0x0000000000001130        0x0 redir.o
 .text.startup  0x0000000000001130      0x42e redir.o
                0x0000000000001130                main
 *(.rodata .rodata.*)
 .rodata.str1.1
                0x000000000000155e       0x45 redir.o
                                         0x47 (size before relaxing)
 *fill*         0x00000000000015a3        0x1 
 .rodata.str1.4
                0x00000000000015a4       0x48 redir.o

.rel.plt        0x00000000000015ec       0x78
 *(.rel.plt)
 .rel.plt       0x00000000000015ec       0x78 /home/ayyuce/Desktop/HlnOS/HelenOS/uspace/lib/c/arch/ia32/src/entry.o

.rel.dyn        0x0000000000001664       0x20
 *(.rel.*)
 .rel.got       0x0000000000001664        0x0 /home/ayyuce/Desktop/HlnOS/HelenOS/uspace/lib/c/arch/ia32/src/entry.o
 .rel.bss       0x0000000000001664       0x20 /home/ayyuce/Desktop/HlnOS/HelenOS/uspace/lib/c/arch/ia32/src/entry.o
 .rel.init      0x0000000000001684        0x0 /home/ayyuce/Desktop/HlnOS/HelenOS/uspace/lib/c/arch/ia32/src/entry.o
 .rel.text.startup
                0x0000000000001684        0x0 /home/ayyuce/Desktop/HlnOS/HelenOS/uspace/lib/c/arch/ia32/src/entry.o

.plt            0x0000000000001690      0x100
 *(.plt)
 .plt           0x0000000000001690      0x100 /home/ayyuce/Desktop/HlnOS/HelenOS/uspace/lib/c/arch/ia32/src/entry.o
                0x00000000000016a0                __main
                0x00000000000016b0                task_wait
                0x00000000000016c0                setvbuf
                0x00000000000016d0                dup2
                0x00000000000016e0                calloc
                0x00000000000016f0                fprintf
                0x0000000000001700                fdopen
                0x0000000000001710                str_cmp
                0x0000000000001720                fclose
                0x0000000000001730                task_spawnv
                0x0000000000001740                str_error
                0x0000000000001750                __syscall_fast
                0x0000000000001760                open
                0x0000000000001770                close
                0x0000000000001780                free

.dynsym         0x0000000000001790      0x160
 *(.dynsym)
 .dynsym        0x0000000000001790      0x160 /home/ayyuce/Desktop/HlnOS/HelenOS/uspace/lib/c/arch/ia32/src/entry.o

.dynstr         0x00000000000018f0       0xb8
 *(.dynstr)
 .dynstr        0x00000000000018f0       0xb8 /home/ayyuce/Desktop/HlnOS/HelenOS/uspace/lib/c/arch/ia32/src/entry.o

.hash           0x00000000000019a8       0xa4
 *(.hash)
 .hash          0x00000000000019a8       0xa4 /home/ayyuce/Desktop/HlnOS/HelenOS/uspace/lib/c/arch/ia32/src/entry.o

.interp         0x0000000000001a4c       0x13
 *(.interp)
 .interp        0x0000000000001a4c       0x13 /home/ayyuce/Desktop/HlnOS/HelenOS/uspace/lib/c/arch/ia32/src/entry.o
                0x0000000000002a5f                . = (. + 0x1000)

.dynamic        0x0000000000002a60       0xa8
 *(.dynamic)
 .dynamic       0x0000000000002a60       0xa8 /home/ayyuce/Desktop/HlnOS/HelenOS/uspace/lib/c/arch/ia32/src/entry.o
                0x0000000000002a60                _DYNAMIC

.data           0x0000000000002b08        0x0
 *(.data)
 .data          0x0000000000002b08        0x0 /home/ayyuce/Desktop/HlnOS/HelenOS/uspace/lib/c/arch/ia32/src/entry.o
 .data          0x0000000000002b08        0x0 redir.o

.data.rel
 *(.data.rel .data.rel.*)

.got            0x0000000000002b08        0x0
 *(.got)
 .got           0x0000000000002b08        0x0 /home/ayyuce/Desktop/HlnOS/HelenOS/uspace/lib/c/arch/ia32/src/entry.o

.got.plt        0x0000000000002b08       0x48
 *(.got.plt)
 .got.plt       0x0000000000002b08       0x48 /home/ayyuce/Desktop/HlnOS/HelenOS/uspace/lib/c/arch/ia32/src/entry.o
                0x0000000000002b08                _GLOBAL_OFFSET_TABLE_

.tdata
 *(.tdata)
 *(.gnu.linkonce.tb.*)

.tbss
 *(.tbss)

.bss            0x0000000000002b50       0x24
 *(.dynbss)
 *fill*         0x0000000000002b50        0x0 
 .dynbss        0x0000000000002b50       0x24 /home/ayyuce/Desktop/HlnOS/HelenOS/uspace/lib/c/arch/ia32/src/entry.o
                0x0000000000002b50                stdout
                0x0000000000002b60                stdin
                0x0000000000002b68                __syscall_fast_func
                0x0000000000002b70                stderr
 *(COMMON)
 *(.bss)
 .bss           0x0000000000002b74        0x0 /home/ayyuce/Desktop/HlnOS/HelenOS/uspace/lib/c/arch/ia32/src/entry.o
 .bss           0x0000000000002b74        0x0 redir.o

/DISCARD/
 *(*)
LOAD redir.o
LOAD ../../lib/c/libc.so.0
LOAD ../../lib/softint/libsoftint.so.0
OUTPUT(redir elf32-i386)
