
download:     file format elf32-i386


Disassembly of section .init:

000010f4 <__entry>:
    10f4:	66 8c d0             	mov    %ss,%ax
    10f7:	8e d8                	mov    %eax,%ds
    10f9:	8e c0                	mov    %eax,%es
    10fb:	8e e0                	mov    %eax,%fs
    10fd:	b8 01 00 00 00       	mov    $0x1,%eax
    1102:	0f a2                	cpuid  
    1104:	0f ba e2 0b          	bt     $0xb,%edx
    1108:	73 0c                	jae    1116 <__entry+0x22>
    110a:	8d 05 30 5b 00 00    	lea    0x5b30,%eax
    1110:	c7 00 d0 44 00 00    	movl   $0x44d0,(%eax)
    1116:	6a 00                	push   $0x0
    1118:	6a 00                	push   $0x0
    111a:	89 e5                	mov    %esp,%ebp
    111c:	57                   	push   %edi
    111d:	e8 fe 31 00 00       	call   4320 <__main@plt>

Disassembly of section .text:

00001130 <main>:
    1130:	8d 4c 24 04          	lea    0x4(%esp),%ecx
    1134:	83 e4 f0             	and    $0xfffffff0,%esp
    1137:	ff 71 fc             	pushl  -0x4(%ecx)
    113a:	55                   	push   %ebp
    113b:	89 e5                	mov    %esp,%ebp
    113d:	57                   	push   %edi
    113e:	56                   	push   %esi
    113f:	53                   	push   %ebx
    1140:	51                   	push   %ecx
    1141:	83 ec 28             	sub    $0x28,%esp
    1144:	8b 41 04             	mov    0x4(%ecx),%eax
    1147:	83 39 02             	cmpl   $0x2,(%ecx)
    114a:	74 74                	je     11c0 <main+0x90>
    114c:	50                   	push   %eax
    114d:	50                   	push   %eax
    114e:	a1 38 5b 00 00       	mov    0x5b38,%eax
    1153:	68 17 39 00 00       	push   $0x3917
    1158:	50                   	push   %eax
    1159:	e8 72 32 00 00       	call   43d0 <fprintf@plt>
    115e:	8b 0d 38 5b 00 00    	mov    0x5b38,%ecx
    1164:	58                   	pop    %eax
    1165:	5a                   	pop    %edx
    1166:	68 70 3a 00 00       	push   $0x3a70
    116b:	51                   	push   %ecx
    116c:	e8 5f 32 00 00       	call   43d0 <fprintf@plt>
    1171:	8b 3d 38 5b 00 00    	mov    0x5b38,%edi
    1177:	5b                   	pop    %ebx
    1178:	5e                   	pop    %esi
    1179:	68 a8 3a 00 00       	push   $0x3aa8
    117e:	57                   	push   %edi
    117f:	e8 4c 32 00 00       	call   43d0 <fprintf@plt>
    1184:	8b 0d 38 5b 00 00    	mov    0x5b38,%ecx
    118a:	58                   	pop    %eax
    118b:	5a                   	pop    %edx
    118c:	68 53 41 00 00       	push   $0x4153
    1191:	51                   	push   %ecx
    1192:	e8 39 32 00 00       	call   43d0 <fprintf@plt>
    1197:	8b 3d 38 5b 00 00    	mov    0x5b38,%edi
    119d:	5b                   	pop    %ebx
    119e:	5e                   	pop    %esi
    119f:	68 c8 3a 00 00       	push   $0x3ac8
    11a4:	57                   	push   %edi
    11a5:	bb 02 00 00 00       	mov    $0x2,%ebx
    11aa:	e8 21 32 00 00       	call   43d0 <fprintf@plt>
    11af:	83 c4 10             	add    $0x10,%esp
    11b2:	8d 65 f0             	lea    -0x10(%ebp),%esp
    11b5:	89 d8                	mov    %ebx,%eax
    11b7:	59                   	pop    %ecx
    11b8:	5b                   	pop    %ebx
    11b9:	5e                   	pop    %esi
    11ba:	5f                   	pop    %edi
    11bb:	5d                   	pop    %ebp
    11bc:	8d 61 fc             	lea    -0x4(%ecx),%esp
    11bf:	c3                   	ret    
    11c0:	83 ec 0c             	sub    $0xc,%esp
    11c3:	ff 70 04             	pushl  0x4(%eax)
    11c6:	e8 f5 1e 00 00       	call   30c0 <uri_parse>
    11cb:	83 c4 10             	add    $0x10,%esp
    11ce:	89 c6                	mov    %eax,%esi
    11d0:	85 c0                	test   %eax,%eax
    11d2:	74 2c                	je     1200 <main+0xd0>
    11d4:	83 ec 0c             	sub    $0xc,%esp
    11d7:	50                   	push   %eax
    11d8:	e8 d3 25 00 00       	call   37b0 <uri_validate>
    11dd:	83 c4 10             	add    $0x10,%esp
    11e0:	84 c0                	test   %al,%al
    11e2:	75 38                	jne    121c <main+0xec>
    11e4:	50                   	push   %eax
    11e5:	50                   	push   %eax
    11e6:	68 42 39 00 00       	push   $0x3942
    11eb:	bb 02 00 00 00       	mov    $0x2,%ebx
    11f0:	ff 35 38 5b 00 00    	pushl  0x5b38
    11f6:	e8 d5 31 00 00       	call   43d0 <fprintf@plt>
    11fb:	83 c4 10             	add    $0x10,%esp
    11fe:	eb b2                	jmp    11b2 <main+0x82>
    1200:	50                   	push   %eax
    1201:	50                   	push   %eax
    1202:	68 2e 39 00 00       	push   $0x392e
    1207:	bb 02 00 00 00       	mov    $0x2,%ebx
    120c:	ff 35 38 5b 00 00    	pushl  0x5b38
    1212:	e8 b9 31 00 00       	call   43d0 <fprintf@plt>
    1217:	83 c4 10             	add    $0x10,%esp
    121a:	eb 96                	jmp    11b2 <main+0x82>
    121c:	57                   	push   %edi
    121d:	57                   	push   %edi
    121e:	68 56 39 00 00       	push   $0x3956
    1223:	ff 36                	pushl  (%esi)
    1225:	e8 06 32 00 00       	call   4430 <str_cmp@plt>
    122a:	83 c4 10             	add    $0x10,%esp
    122d:	85 c0                	test   %eax,%eax
    122f:	0f 85 9a 01 00 00    	jne    13cf <main+0x29f>
    1235:	83 7e 0c 00          	cmpl   $0x0,0xc(%esi)
    1239:	0f 84 fd 01 00 00    	je     143c <main+0x30c>
    123f:	8b 46 10             	mov    0x10(%esi),%eax
    1242:	66 c7 45 de 50 00    	movw   $0x50,-0x22(%ebp)
    1248:	85 c0                	test   %eax,%eax
    124a:	74 1e                	je     126a <main+0x13a>
    124c:	83 ec 0c             	sub    $0xc,%esp
    124f:	8d 55 de             	lea    -0x22(%ebp),%edx
    1252:	52                   	push   %edx
    1253:	6a 01                	push   $0x1
    1255:	6a 0a                	push   $0xa
    1257:	6a 00                	push   $0x0
    1259:	50                   	push   %eax
    125a:	e8 41 32 00 00       	call   44a0 <str_uint16_t@plt>
    125f:	83 c4 20             	add    $0x20,%esp
    1262:	85 c0                	test   %eax,%eax
    1264:	0f 85 84 01 00 00    	jne    13ee <main+0x2be>
    126a:	8b 46 14             	mov    0x14(%esi),%eax
    126d:	85 c0                	test   %eax,%eax
    126f:	74 05                	je     1276 <main+0x146>
    1271:	80 38 00             	cmpb   $0x0,(%eax)
    1274:	75 05                	jne    127b <main+0x14b>
    1276:	b8 75 41 00 00       	mov    $0x4175,%eax
    127b:	8b 56 18             	mov    0x18(%esi),%edx
    127e:	c7 45 e0 00 00 00 00 	movl   $0x0,-0x20(%ebp)
    1285:	85 d2                	test   %edx,%edx
    1287:	0f 84 ce 01 00 00    	je     145b <main+0x32b>
    128d:	52                   	push   %edx
    128e:	50                   	push   %eax
    128f:	8d 45 e0             	lea    -0x20(%ebp),%eax
    1292:	68 9a 39 00 00       	push   $0x399a
    1297:	50                   	push   %eax
    1298:	e8 b3 31 00 00       	call   4450 <asprintf@plt>
    129d:	83 c4 10             	add    $0x10,%esp
    12a0:	85 c0                	test   %eax,%eax
    12a2:	0f 88 ca 01 00 00    	js     1472 <main+0x342>
    12a8:	50                   	push   %eax
    12a9:	50                   	push   %eax
    12aa:	ff 75 e0             	pushl  -0x20(%ebp)
    12ad:	68 a0 39 00 00       	push   $0x39a0
    12b2:	e8 19 0f 00 00       	call   21d0 <http_request_create>
    12b7:	89 c7                	mov    %eax,%edi
    12b9:	58                   	pop    %eax
    12ba:	ff 75 e0             	pushl  -0x20(%ebp)
    12bd:	e8 3e 32 00 00       	call   4500 <free@plt>
    12c2:	83 c4 10             	add    $0x10,%esp
    12c5:	85 ff                	test   %edi,%edi
    12c7:	0f 84 cc 01 00 00    	je     1499 <main+0x369>
    12cd:	50                   	push   %eax
    12ce:	8d 57 08             	lea    0x8(%edi),%edx
    12d1:	ff 76 0c             	pushl  0xc(%esi)
    12d4:	89 55 d4             	mov    %edx,-0x2c(%ebp)
    12d7:	68 bd 39 00 00       	push   $0x39bd
    12dc:	52                   	push   %edx
    12dd:	e8 7e 0a 00 00       	call   1d60 <http_headers_append>
    12e2:	83 c4 10             	add    $0x10,%esp
    12e5:	89 c3                	mov    %eax,%ebx
    12e7:	85 c0                	test   %eax,%eax
    12e9:	8b 55 d4             	mov    -0x2c(%ebp),%edx
    12ec:	0f 85 1d 01 00 00    	jne    140f <main+0x2df>
    12f2:	50                   	push   %eax
    12f3:	68 50 3b 00 00       	push   $0x3b50
    12f8:	68 c2 39 00 00       	push   $0x39c2
    12fd:	52                   	push   %edx
    12fe:	e8 5d 0a 00 00       	call   1d60 <http_headers_append>
    1303:	83 c4 10             	add    $0x10,%esp
    1306:	89 c3                	mov    %eax,%ebx
    1308:	85 c0                	test   %eax,%eax
    130a:	0f 85 92 01 00 00    	jne    14a2 <main+0x372>
    1310:	50                   	push   %eax
    1311:	50                   	push   %eax
    1312:	31 c0                	xor    %eax,%eax
    1314:	66 8b 45 de          	mov    -0x22(%ebp),%ax
    1318:	50                   	push   %eax
    1319:	ff 76 0c             	pushl  0xc(%esi)
    131c:	e8 cf 02 00 00       	call   15f0 <http_create>
    1321:	83 c4 10             	add    $0x10,%esp
    1324:	85 c0                	test   %eax,%eax
    1326:	0f 84 a4 01 00 00    	je     14d0 <main+0x3a0>
    132c:	83 ec 0c             	sub    $0xc,%esp
    132f:	89 45 d4             	mov    %eax,-0x2c(%ebp)
    1332:	50                   	push   %eax
    1333:	e8 28 03 00 00       	call   1660 <http_connect>
    1338:	83 c4 10             	add    $0x10,%esp
    133b:	89 c3                	mov    %eax,%ebx
    133d:	85 c0                	test   %eax,%eax
    133f:	8b 55 d4             	mov    -0x2c(%ebp),%edx
    1342:	0f 85 71 01 00 00    	jne    14b9 <main+0x389>
    1348:	89 55 d4             	mov    %edx,-0x2c(%ebp)
    134b:	51                   	push   %ecx
    134c:	51                   	push   %ecx
    134d:	57                   	push   %edi
    134e:	52                   	push   %edx
    134f:	e8 bc 10 00 00       	call   2410 <http_send_request>
    1354:	83 c4 10             	add    $0x10,%esp
    1357:	89 c3                	mov    %eax,%ebx
    1359:	85 c0                	test   %eax,%eax
    135b:	8b 55 d4             	mov    -0x2c(%ebp),%edx
    135e:	0f 85 94 01 00 00    	jne    14f8 <main+0x3c8>
    1364:	8d 42 28             	lea    0x28(%edx),%eax
    1367:	6a 64                	push   $0x64
    1369:	89 c7                	mov    %eax,%edi
    136b:	89 45 d4             	mov    %eax,-0x2c(%ebp)
    136e:	8d 45 e4             	lea    -0x1c(%ebp),%eax
    1371:	68 00 40 00 00       	push   $0x4000
    1376:	c7 45 e4 00 00 00 00 	movl   $0x0,-0x1c(%ebp)
    137d:	50                   	push   %eax
    137e:	57                   	push   %edi
    137f:	e8 bc 14 00 00       	call   2840 <http_receive_response>
    1384:	83 c4 10             	add    $0x10,%esp
    1387:	89 c3                	mov    %eax,%ebx
    1389:	85 c0                	test   %eax,%eax
    138b:	0f 85 ea 01 00 00    	jne    157b <main+0x44b>
    1391:	8b 55 e4             	mov    -0x1c(%ebp),%edx
    1394:	66 8b 42 02          	mov    0x2(%edx),%ax
    1398:	66 3d c8 00          	cmp    $0xc8,%ax
    139c:	0f 84 6d 01 00 00    	je     150f <main+0x3df>
    13a2:	ff 72 04             	pushl  0x4(%edx)
    13a5:	25 ff ff 00 00       	and    $0xffff,%eax
    13aa:	50                   	push   %eax
    13ab:	68 1d 3a 00 00       	push   $0x3a1d
    13b0:	ff 35 38 5b 00 00    	pushl  0x5b38
    13b6:	e8 15 30 00 00       	call   43d0 <fprintf@plt>
    13bb:	83 c4 10             	add    $0x10,%esp
    13be:	83 ec 0c             	sub    $0xc,%esp
    13c1:	56                   	push   %esi
    13c2:	e8 e9 24 00 00       	call   38b0 <uri_destroy>
    13c7:	83 c4 10             	add    $0x10,%esp
    13ca:	e9 e3 fd ff ff       	jmp    11b2 <main+0x82>
    13cf:	56                   	push   %esi
    13d0:	56                   	push   %esi
    13d1:	68 00 3b 00 00       	push   $0x3b00
    13d6:	bb 02 00 00 00       	mov    $0x2,%ebx
    13db:	ff 35 38 5b 00 00    	pushl  0x5b38
    13e1:	e8 ea 2f 00 00       	call   43d0 <fprintf@plt>
    13e6:	83 c4 10             	add    $0x10,%esp
    13e9:	e9 c4 fd ff ff       	jmp    11b2 <main+0x82>
    13ee:	51                   	push   %ecx
    13ef:	bb 02 00 00 00       	mov    $0x2,%ebx
    13f4:	ff 76 10             	pushl  0x10(%esi)
    13f7:	68 69 39 00 00       	push   $0x3969
    13fc:	ff 35 38 5b 00 00    	pushl  0x5b38
    1402:	e8 c9 2f 00 00       	call   43d0 <fprintf@plt>
    1407:	83 c4 10             	add    $0x10,%esp
    140a:	e9 a3 fd ff ff       	jmp    11b2 <main+0x82>
    140f:	83 ec 0c             	sub    $0xc,%esp
    1412:	50                   	push   %eax
    1413:	e8 78 30 00 00       	call   4490 <str_error@plt>
    1418:	83 c4 0c             	add    $0xc,%esp
    141b:	50                   	push   %eax
    141c:	68 30 3b 00 00       	push   $0x3b30
    1421:	ff 35 38 5b 00 00    	pushl  0x5b38
    1427:	e8 a4 2f 00 00       	call   43d0 <fprintf@plt>
    142c:	89 34 24             	mov    %esi,(%esp)
    142f:	e8 7c 24 00 00       	call   38b0 <uri_destroy>
    1434:	83 c4 10             	add    $0x10,%esp
    1437:	e9 76 fd ff ff       	jmp    11b2 <main+0x82>
    143c:	53                   	push   %ebx
    143d:	53                   	push   %ebx
    143e:	68 5b 39 00 00       	push   $0x395b
    1443:	bb 02 00 00 00       	mov    $0x2,%ebx
    1448:	ff 35 38 5b 00 00    	pushl  0x5b38
    144e:	e8 7d 2f 00 00       	call   43d0 <fprintf@plt>
    1453:	83 c4 10             	add    $0x10,%esp
    1456:	e9 57 fd ff ff       	jmp    11b2 <main+0x82>
    145b:	83 ec 0c             	sub    $0xc,%esp
    145e:	50                   	push   %eax
    145f:	e8 9c 2f 00 00       	call   4400 <str_dup@plt>
    1464:	83 c4 10             	add    $0x10,%esp
    1467:	89 45 e0             	mov    %eax,-0x20(%ebp)
    146a:	85 c0                	test   %eax,%eax
    146c:	0f 85 36 fe ff ff    	jne    12a8 <main+0x178>
    1472:	52                   	push   %edx
    1473:	52                   	push   %edx
    1474:	68 82 39 00 00       	push   $0x3982
    1479:	ff 35 38 5b 00 00    	pushl  0x5b38
    147f:	bb 03 00 00 00       	mov    $0x3,%ebx
    1484:	e8 47 2f 00 00       	call   43d0 <fprintf@plt>
    1489:	89 34 24             	mov    %esi,(%esp)
    148c:	e8 1f 24 00 00       	call   38b0 <uri_destroy>
    1491:	83 c4 10             	add    $0x10,%esp
    1494:	e9 19 fd ff ff       	jmp    11b2 <main+0x82>
    1499:	50                   	push   %eax
    149a:	50                   	push   %eax
    149b:	68 a4 39 00 00       	push   $0x39a4
    14a0:	eb d7                	jmp    1479 <main+0x349>
    14a2:	83 ec 0c             	sub    $0xc,%esp
    14a5:	50                   	push   %eax
    14a6:	e8 e5 2f 00 00       	call   4490 <str_error@plt>
    14ab:	83 c4 0c             	add    $0xc,%esp
    14ae:	50                   	push   %eax
    14af:	68 74 3b 00 00       	push   $0x3b74
    14b4:	e9 68 ff ff ff       	jmp    1421 <main+0x2f1>
    14b9:	83 ec 0c             	sub    $0xc,%esp
    14bc:	50                   	push   %eax
    14bd:	e8 ce 2f 00 00       	call   4490 <str_error@plt>
    14c2:	83 c4 0c             	add    $0xc,%esp
    14c5:	50                   	push   %eax
    14c6:	68 ea 39 00 00       	push   $0x39ea
    14cb:	e9 51 ff ff ff       	jmp    1421 <main+0x2f1>
    14d0:	83 ec 0c             	sub    $0xc,%esp
    14d3:	56                   	push   %esi
    14d4:	e8 d7 23 00 00       	call   38b0 <uri_destroy>
    14d9:	5b                   	pop    %ebx
    14da:	5e                   	pop    %esi
    14db:	68 cd 39 00 00       	push   $0x39cd
    14e0:	bb 03 00 00 00       	mov    $0x3,%ebx
    14e5:	ff 35 38 5b 00 00    	pushl  0x5b38
    14eb:	e8 e0 2e 00 00       	call   43d0 <fprintf@plt>
    14f0:	83 c4 10             	add    $0x10,%esp
    14f3:	e9 ba fc ff ff       	jmp    11b2 <main+0x82>
    14f8:	83 ec 0c             	sub    $0xc,%esp
    14fb:	50                   	push   %eax
    14fc:	e8 8f 2f 00 00       	call   4490 <str_error@plt>
    1501:	83 c4 0c             	add    $0xc,%esp
    1504:	50                   	push   %eax
    1505:	68 01 3a 00 00       	push   $0x3a01
    150a:	e9 12 ff ff ff       	jmp    1421 <main+0x2f1>
    150f:	83 ec 0c             	sub    $0xc,%esp
    1512:	68 00 10 00 00       	push   $0x1000
    1517:	e8 64 2e 00 00       	call   4380 <malloc@plt>
    151c:	83 c4 10             	add    $0x10,%esp
    151f:	89 c7                	mov    %eax,%edi
    1521:	85 c0                	test   %eax,%eax
    1523:	75 14                	jne    1539 <main+0x409>
    1525:	eb 6b                	jmp    1592 <main+0x462>
    1527:	ff 35 28 5b 00 00    	pushl  0x5b28
    152d:	50                   	push   %eax
    152e:	6a 01                	push   $0x1
    1530:	57                   	push   %edi
    1531:	e8 7a 2f 00 00       	call   44b0 <fwrite@plt>
    1536:	83 c4 10             	add    $0x10,%esp
    1539:	50                   	push   %eax
    153a:	68 00 10 00 00       	push   $0x1000
    153f:	57                   	push   %edi
    1540:	ff 75 d4             	pushl  -0x2c(%ebp)
    1543:	e8 78 18 00 00       	call   2dc0 <recv_buffer>
    1548:	83 c4 10             	add    $0x10,%esp
    154b:	83 f8 00             	cmp    $0x0,%eax
    154e:	7f d7                	jg     1527 <main+0x3f7>
    1550:	0f 84 68 fe ff ff    	je     13be <main+0x28e>
    1556:	83 ec 0c             	sub    $0xc,%esp
    1559:	50                   	push   %eax
    155a:	e8 31 2f 00 00       	call   4490 <str_error@plt>
    155f:	83 c4 0c             	add    $0xc,%esp
    1562:	50                   	push   %eax
    1563:	68 56 3a 00 00       	push   $0x3a56
    1568:	ff 35 38 5b 00 00    	pushl  0x5b38
    156e:	e8 5d 2e 00 00       	call   43d0 <fprintf@plt>
    1573:	83 c4 10             	add    $0x10,%esp
    1576:	e9 43 fe ff ff       	jmp    13be <main+0x28e>
    157b:	83 ec 0c             	sub    $0xc,%esp
    157e:	50                   	push   %eax
    157f:	e8 0c 2f 00 00       	call   4490 <str_error@plt>
    1584:	83 c4 0c             	add    $0xc,%esp
    1587:	50                   	push   %eax
    1588:	68 9c 3b 00 00       	push   $0x3b9c
    158d:	e9 8f fe ff ff       	jmp    1421 <main+0x2f1>
    1592:	52                   	push   %edx
    1593:	52                   	push   %edx
    1594:	68 3b 3a 00 00       	push   $0x3a3b
    1599:	bb fe ff ff ff       	mov    $0xfffffffe,%ebx
    159e:	ff 35 38 5b 00 00    	pushl  0x5b38
    15a4:	e8 27 2e 00 00       	call   43d0 <fprintf@plt>
    15a9:	89 34 24             	mov    %esi,(%esp)
    15ac:	e8 ff 22 00 00       	call   38b0 <uri_destroy>
    15b1:	83 c4 10             	add    $0x10,%esp
    15b4:	e9 f9 fb ff ff       	jmp    11b2 <main+0x82>
    15b9:	66 90                	xchg   %ax,%ax
    15bb:	66 90                	xchg   %ax,%ax
    15bd:	66 90                	xchg   %ax,%ax
    15bf:	90                   	nop

000015c0 <http_receive>:
    15c0:	55                   	push   %ebp
    15c1:	89 e5                	mov    %esp,%ebp
    15c3:	83 ec 18             	sub    $0x18,%esp
    15c6:	8d 45 f4             	lea    -0xc(%ebp),%eax
    15c9:	8b 55 0c             	mov    0xc(%ebp),%edx
    15cc:	50                   	push   %eax
    15cd:	8b 45 10             	mov    0x10(%ebp),%eax
    15d0:	50                   	push   %eax
    15d1:	8b 45 08             	mov    0x8(%ebp),%eax
    15d4:	52                   	push   %edx
    15d5:	8b 48 20             	mov    0x20(%eax),%ecx
    15d8:	51                   	push   %ecx
    15d9:	e8 12 2f 00 00       	call   44f0 <tcp_conn_recv_wait@plt>
    15de:	83 c4 10             	add    $0x10,%esp
    15e1:	85 c0                	test   %eax,%eax
    15e3:	75 03                	jne    15e8 <http_receive+0x28>
    15e5:	8b 45 f4             	mov    -0xc(%ebp),%eax
    15e8:	c9                   	leave  
    15e9:	c3                   	ret    
    15ea:	8d b6 00 00 00 00    	lea    0x0(%esi),%esi

000015f0 <http_create>:
    15f0:	55                   	push   %ebp
    15f1:	89 e5                	mov    %esp,%ebp
    15f3:	56                   	push   %esi
    15f4:	53                   	push   %ebx
    15f5:	83 ec 0c             	sub    $0xc,%esp
    15f8:	8b 75 0c             	mov    0xc(%ebp),%esi
    15fb:	6a 48                	push   $0x48
    15fd:	e8 7e 2d 00 00       	call   4380 <malloc@plt>
    1602:	83 c4 10             	add    $0x10,%esp
    1605:	89 c3                	mov    %eax,%ebx
    1607:	85 c0                	test   %eax,%eax
    1609:	74 3b                	je     1646 <http_create+0x56>
    160b:	83 ec 0c             	sub    $0xc,%esp
    160e:	8b 45 08             	mov    0x8(%ebp),%eax
    1611:	50                   	push   %eax
    1612:	e8 e9 2d 00 00       	call   4400 <str_dup@plt>
    1617:	83 c4 10             	add    $0x10,%esp
    161a:	89 03                	mov    %eax,(%ebx)
    161c:	85 c0                	test   %eax,%eax
    161e:	74 30                	je     1650 <http_create+0x60>
    1620:	66 89 73 04          	mov    %si,0x4(%ebx)
    1624:	c7 43 24 00 10 00 00 	movl   $0x1000,0x24(%ebx)
    162b:	8d 43 28             	lea    0x28(%ebx),%eax
    162e:	53                   	push   %ebx
    162f:	68 c0 15 00 00       	push   $0x15c0
    1634:	68 00 10 00 00       	push   $0x1000
    1639:	50                   	push   %eax
    163a:	e8 f1 13 00 00       	call   2a30 <recv_buffer_init>
    163f:	83 c4 10             	add    $0x10,%esp
    1642:	85 c0                	test   %eax,%eax
    1644:	75 0a                	jne    1650 <http_create+0x60>
    1646:	8d 65 f8             	lea    -0x8(%ebp),%esp
    1649:	89 d8                	mov    %ebx,%eax
    164b:	5b                   	pop    %ebx
    164c:	5e                   	pop    %esi
    164d:	5d                   	pop    %ebp
    164e:	c3                   	ret    
    164f:	90                   	nop
    1650:	83 ec 0c             	sub    $0xc,%esp
    1653:	53                   	push   %ebx
    1654:	31 db                	xor    %ebx,%ebx
    1656:	e8 a5 2e 00 00       	call   4500 <free@plt>
    165b:	83 c4 10             	add    $0x10,%esp
    165e:	eb e6                	jmp    1646 <http_create+0x56>

00001660 <http_connect>:
    1660:	55                   	push   %ebp
    1661:	89 e5                	mov    %esp,%ebp
    1663:	56                   	push   %esi
    1664:	53                   	push   %ebx
    1665:	83 ec 40             	sub    $0x40,%esp
    1668:	8b 5d 08             	mov    0x8(%ebp),%ebx
    166b:	8b 73 20             	mov    0x20(%ebx),%esi
    166e:	85 f6                	test   %esi,%esi
    1670:	0f 85 9a 00 00 00    	jne    1710 <http_connect+0xb0>
    1676:	83 ec 0c             	sub    $0xc,%esp
    1679:	8d 43 08             	lea    0x8(%ebx),%eax
    167c:	8b 0b                	mov    (%ebx),%ecx
    167e:	6a 00                	push   $0x0
    1680:	6a 00                	push   $0x0
    1682:	50                   	push   %eax
    1683:	6a 00                	push   $0x0
    1685:	51                   	push   %ecx
    1686:	e8 95 2d 00 00       	call   4420 <inet_host_plookup_one@plt>
    168b:	83 c4 20             	add    $0x20,%esp
    168e:	85 c0                	test   %eax,%eax
    1690:	74 0e                	je     16a0 <http_connect+0x40>
    1692:	8d 65 f8             	lea    -0x8(%ebp),%esp
    1695:	5b                   	pop    %ebx
    1696:	5e                   	pop    %esi
    1697:	5d                   	pop    %ebp
    1698:	c3                   	ret    
    1699:	8d b4 26 00 00 00 00 	lea    0x0(%esi,%eiz,1),%esi
    16a0:	83 ec 0c             	sub    $0xc,%esp
    16a3:	8d 75 c4             	lea    -0x3c(%ebp),%esi
    16a6:	56                   	push   %esi
    16a7:	e8 34 2d 00 00       	call   43e0 <inet_ep2_init@plt>
    16ac:	8b 43 08             	mov    0x8(%ebx),%eax
    16af:	89 45 e0             	mov    %eax,-0x20(%ebp)
    16b2:	8b 43 0c             	mov    0xc(%ebx),%eax
    16b5:	89 45 e4             	mov    %eax,-0x1c(%ebp)
    16b8:	8b 43 10             	mov    0x10(%ebx),%eax
    16bb:	89 45 e8             	mov    %eax,-0x18(%ebp)
    16be:	8b 43 14             	mov    0x14(%ebx),%eax
    16c1:	89 45 ec             	mov    %eax,-0x14(%ebp)
    16c4:	8b 43 18             	mov    0x18(%ebx),%eax
    16c7:	89 45 f0             	mov    %eax,-0x10(%ebp)
    16ca:	8b 43 04             	mov    0x4(%ebx),%eax
    16cd:	66 89 45 f4          	mov    %ax,-0xc(%ebp)
    16d1:	8d 43 1c             	lea    0x1c(%ebx),%eax
    16d4:	89 04 24             	mov    %eax,(%esp)
    16d7:	e8 04 2e 00 00       	call   44e0 <tcp_create@plt>
    16dc:	83 c4 10             	add    $0x10,%esp
    16df:	85 c0                	test   %eax,%eax
    16e1:	75 af                	jne    1692 <http_connect+0x32>
    16e3:	83 ec 0c             	sub    $0xc,%esp
    16e6:	8d 43 20             	lea    0x20(%ebx),%eax
    16e9:	50                   	push   %eax
    16ea:	6a 00                	push   $0x0
    16ec:	8b 53 1c             	mov    0x1c(%ebx),%edx
    16ef:	6a 00                	push   $0x0
    16f1:	56                   	push   %esi
    16f2:	52                   	push   %edx
    16f3:	e8 a8 2c 00 00       	call   43a0 <tcp_conn_create@plt>
    16f8:	83 c4 20             	add    $0x20,%esp
    16fb:	85 c0                	test   %eax,%eax
    16fd:	75 93                	jne    1692 <http_connect+0x32>
    16ff:	83 ec 0c             	sub    $0xc,%esp
    1702:	8b 43 20             	mov    0x20(%ebx),%eax
    1705:	50                   	push   %eax
    1706:	e8 85 2c 00 00       	call   4390 <tcp_conn_wait_connected@plt>
    170b:	83 c4 10             	add    $0x10,%esp
    170e:	eb 82                	jmp    1692 <http_connect+0x32>
    1710:	8d 65 f8             	lea    -0x8(%ebp),%esp
    1713:	b8 f1 ff ff ff       	mov    $0xfffffff1,%eax
    1718:	5b                   	pop    %ebx
    1719:	5e                   	pop    %esi
    171a:	5d                   	pop    %ebp
    171b:	c3                   	ret    
    171c:	8d 74 26 00          	lea    0x0(%esi,%eiz,1),%esi

00001720 <http_close>:
    1720:	55                   	push   %ebp
    1721:	89 e5                	mov    %esp,%ebp
    1723:	53                   	push   %ebx
    1724:	51                   	push   %ecx
    1725:	8b 5d 08             	mov    0x8(%ebp),%ebx
    1728:	8b 43 20             	mov    0x20(%ebx),%eax
    172b:	85 c0                	test   %eax,%eax
    172d:	74 21                	je     1750 <http_close+0x30>
    172f:	83 ec 0c             	sub    $0xc,%esp
    1732:	50                   	push   %eax
    1733:	e8 88 2d 00 00       	call   44c0 <tcp_conn_destroy@plt>
    1738:	8b 53 1c             	mov    0x1c(%ebx),%edx
    173b:	58                   	pop    %eax
    173c:	52                   	push   %edx
    173d:	e8 ce 2c 00 00       	call   4410 <tcp_destroy@plt>
    1742:	83 c4 10             	add    $0x10,%esp
    1745:	31 c0                	xor    %eax,%eax
    1747:	8b 5d fc             	mov    -0x4(%ebp),%ebx
    174a:	c9                   	leave  
    174b:	c3                   	ret    
    174c:	8d 74 26 00          	lea    0x0(%esi,%eiz,1),%esi
    1750:	b8 f2 ff ff ff       	mov    $0xfffffff2,%eax
    1755:	eb f0                	jmp    1747 <http_close+0x27>
    1757:	89 f6                	mov    %esi,%esi
    1759:	8d bc 27 00 00 00 00 	lea    0x0(%edi,%eiz,1),%edi

00001760 <http_destroy>:
    1760:	55                   	push   %ebp
    1761:	89 e5                	mov    %esp,%ebp
    1763:	53                   	push   %ebx
    1764:	83 ec 10             	sub    $0x10,%esp
    1767:	8b 5d 08             	mov    0x8(%ebp),%ebx
    176a:	8d 43 28             	lea    0x28(%ebx),%eax
    176d:	50                   	push   %eax
    176e:	e8 7d 13 00 00       	call   2af0 <recv_buffer_fini>
    1773:	89 5d 08             	mov    %ebx,0x8(%ebp)
    1776:	83 c4 10             	add    $0x10,%esp
    1779:	8b 5d fc             	mov    -0x4(%ebp),%ebx
    177c:	c9                   	leave  
    177d:	e9 7e 2d 00 00       	jmp    4500 <free@plt>
    1782:	66 90                	xchg   %ax,%ax
    1784:	66 90                	xchg   %ax,%ax
    1786:	66 90                	xchg   %ax,%ax
    1788:	66 90                	xchg   %ax,%ax
    178a:	66 90                	xchg   %ax,%ax
    178c:	66 90                	xchg   %ax,%ax
    178e:	66 90                	xchg   %ax,%ax

00001790 <http_header_init>:
    1790:	55                   	push   %ebp
    1791:	89 e5                	mov    %esp,%ebp
    1793:	8b 45 08             	mov    0x8(%ebp),%eax
    1796:	c7 00 00 00 00 00    	movl   $0x0,(%eax)
    179c:	c7 40 04 00 00 00 00 	movl   $0x0,0x4(%eax)
    17a3:	c7 40 08 00 00 00 00 	movl   $0x0,0x8(%eax)
    17aa:	c7 40 0c 00 00 00 00 	movl   $0x0,0xc(%eax)
    17b1:	5d                   	pop    %ebp
    17b2:	c3                   	ret    
    17b3:	8d b6 00 00 00 00    	lea    0x0(%esi),%esi
    17b9:	8d bc 27 00 00 00 00 	lea    0x0(%edi,%eiz,1),%edi

000017c0 <http_header_create>:
    17c0:	55                   	push   %ebp
    17c1:	89 e5                	mov    %esp,%ebp
    17c3:	53                   	push   %ebx
    17c4:	83 ec 10             	sub    $0x10,%esp
    17c7:	6a 10                	push   $0x10
    17c9:	e8 b2 2b 00 00       	call   4380 <malloc@plt>
    17ce:	83 c4 10             	add    $0x10,%esp
    17d1:	89 c3                	mov    %eax,%ebx
    17d3:	85 c0                	test   %eax,%eax
    17d5:	74 47                	je     181e <http_header_create+0x5e>
    17d7:	83 ec 0c             	sub    $0xc,%esp
    17da:	c7 00 00 00 00 00    	movl   $0x0,(%eax)
    17e0:	c7 40 04 00 00 00 00 	movl   $0x0,0x4(%eax)
    17e7:	c7 40 08 00 00 00 00 	movl   $0x0,0x8(%eax)
    17ee:	c7 40 0c 00 00 00 00 	movl   $0x0,0xc(%eax)
    17f5:	8b 4d 08             	mov    0x8(%ebp),%ecx
    17f8:	51                   	push   %ecx
    17f9:	e8 02 2c 00 00       	call   4400 <str_dup@plt>
    17fe:	83 c4 10             	add    $0x10,%esp
    1801:	89 43 08             	mov    %eax,0x8(%ebx)
    1804:	85 c0                	test   %eax,%eax
    1806:	74 20                	je     1828 <http_header_create+0x68>
    1808:	83 ec 0c             	sub    $0xc,%esp
    180b:	8b 55 0c             	mov    0xc(%ebp),%edx
    180e:	52                   	push   %edx
    180f:	e8 ec 2b 00 00       	call   4400 <str_dup@plt>
    1814:	83 c4 10             	add    $0x10,%esp
    1817:	89 43 0c             	mov    %eax,0xc(%ebx)
    181a:	85 c0                	test   %eax,%eax
    181c:	74 1a                	je     1838 <http_header_create+0x78>
    181e:	89 d8                	mov    %ebx,%eax
    1820:	8b 5d fc             	mov    -0x4(%ebp),%ebx
    1823:	c9                   	leave  
    1824:	c3                   	ret    
    1825:	8d 76 00             	lea    0x0(%esi),%esi
    1828:	83 ec 0c             	sub    $0xc,%esp
    182b:	53                   	push   %ebx
    182c:	31 db                	xor    %ebx,%ebx
    182e:	e8 cd 2c 00 00       	call   4500 <free@plt>
    1833:	83 c4 10             	add    $0x10,%esp
    1836:	eb e6                	jmp    181e <http_header_create+0x5e>
    1838:	83 ec 0c             	sub    $0xc,%esp
    183b:	8b 43 08             	mov    0x8(%ebx),%eax
    183e:	50                   	push   %eax
    183f:	e8 bc 2c 00 00       	call   4500 <free@plt>
    1844:	89 1c 24             	mov    %ebx,(%esp)
    1847:	e8 b4 2c 00 00       	call   4500 <free@plt>
    184c:	31 db                	xor    %ebx,%ebx
    184e:	83 c4 10             	add    $0x10,%esp
    1851:	eb cb                	jmp    181e <http_header_create+0x5e>
    1853:	8d b6 00 00 00 00    	lea    0x0(%esi),%esi
    1859:	8d bc 27 00 00 00 00 	lea    0x0(%edi,%eiz,1),%edi

00001860 <http_header_destroy>:
    1860:	55                   	push   %ebp
    1861:	89 e5                	mov    %esp,%ebp
    1863:	53                   	push   %ebx
    1864:	83 ec 10             	sub    $0x10,%esp
    1867:	8b 5d 08             	mov    0x8(%ebp),%ebx
    186a:	8b 43 08             	mov    0x8(%ebx),%eax
    186d:	50                   	push   %eax
    186e:	e8 8d 2c 00 00       	call   4500 <free@plt>
    1873:	8b 4b 0c             	mov    0xc(%ebx),%ecx
    1876:	5a                   	pop    %edx
    1877:	51                   	push   %ecx
    1878:	e8 83 2c 00 00       	call   4500 <free@plt>
    187d:	89 5d 08             	mov    %ebx,0x8(%ebp)
    1880:	83 c4 10             	add    $0x10,%esp
    1883:	8b 5d fc             	mov    -0x4(%ebp),%ebx
    1886:	c9                   	leave  
    1887:	e9 74 2c 00 00       	jmp    4500 <free@plt>
    188c:	8d 74 26 00          	lea    0x0(%esi,%eiz,1),%esi

00001890 <http_header_encode>:
    1890:	55                   	push   %ebp
    1891:	89 e5                	mov    %esp,%ebp
    1893:	83 ec 08             	sub    $0x8,%esp
    1896:	8b 55 0c             	mov    0xc(%ebp),%edx
    1899:	8b 45 08             	mov    0x8(%ebp),%eax
    189c:	8b 4d 10             	mov    0x10(%ebp),%ecx
    189f:	85 d2                	test   %edx,%edx
    18a1:	74 1d                	je     18c0 <http_header_encode+0x30>
    18a3:	83 ec 0c             	sub    $0xc,%esp
    18a6:	ff 70 0c             	pushl  0xc(%eax)
    18a9:	8b 40 08             	mov    0x8(%eax),%eax
    18ac:	50                   	push   %eax
    18ad:	68 bc 3b 00 00       	push   $0x3bbc
    18b2:	51                   	push   %ecx
    18b3:	52                   	push   %edx
    18b4:	e8 87 2a 00 00       	call   4340 <snprintf@plt>
    18b9:	83 c4 20             	add    $0x20,%esp
    18bc:	c9                   	leave  
    18bd:	c3                   	ret    
    18be:	66 90                	xchg   %ax,%ax
    18c0:	8b 50 0c             	mov    0xc(%eax),%edx
    18c3:	89 55 10             	mov    %edx,0x10(%ebp)
    18c6:	8b 40 08             	mov    0x8(%eax),%eax
    18c9:	c7 45 08 bc 3b 00 00 	movl   $0x3bbc,0x8(%ebp)
    18d0:	89 45 0c             	mov    %eax,0xc(%ebp)
    18d3:	c9                   	leave  
    18d4:	e9 87 2b 00 00       	jmp    4460 <printf_size@plt>
    18d9:	8d b4 26 00 00 00 00 	lea    0x0(%esi,%eiz,1),%esi

000018e0 <http_header_receive_name>:
    18e0:	55                   	push   %ebp
    18e1:	89 e5                	mov    %esp,%ebp
    18e3:	57                   	push   %edi
    18e4:	56                   	push   %esi
    18e5:	53                   	push   %ebx
    18e6:	83 ec 1c             	sub    $0x1c,%esp
    18e9:	8d 75 e7             	lea    -0x19(%ebp),%esi
    18ec:	8b 7d 0c             	mov    0xc(%ebp),%edi
    18ef:	8b 5d 08             	mov    0x8(%ebp),%ebx
    18f2:	c6 45 e7 00          	movb   $0x0,-0x19(%ebp)
    18f6:	85 ff                	test   %edi,%edi
    18f8:	74 6d                	je     1967 <http_header_receive_name+0x87>
    18fa:	50                   	push   %eax
    18fb:	50                   	push   %eax
    18fc:	57                   	push   %edi
    18fd:	53                   	push   %ebx
    18fe:	e8 8d 12 00 00       	call   2b90 <recv_mark_update>
    1903:	83 c4 0c             	add    $0xc,%esp
    1906:	6a 01                	push   $0x1
    1908:	56                   	push   %esi
    1909:	53                   	push   %ebx
    190a:	e8 c1 13 00 00       	call   2cd0 <recv_char>
    190f:	83 c4 10             	add    $0x10,%esp
    1912:	85 c0                	test   %eax,%eax
    1914:	75 26                	jne    193c <http_header_receive_name+0x5c>
    1916:	8a 45 e7             	mov    -0x19(%ebp),%al
    1919:	8d 50 f7             	lea    -0x9(%eax),%edx
    191c:	80 fa 74             	cmp    $0x74,%dl
    191f:	77 0f                	ja     1930 <http_header_receive_name+0x50>
    1921:	81 e2 ff 00 00 00    	and    $0xff,%edx
    1927:	ff 24 95 c8 3b 00 00 	jmp    *0x3bc8(,%edx,4)
    192e:	66 90                	xchg   %ax,%ax
    1930:	83 e8 20             	sub    $0x20,%eax
    1933:	3c 5e                	cmp    $0x5e,%al
    1935:	76 c3                	jbe    18fa <http_header_receive_name+0x1a>
    1937:	b8 f2 ff ff ff       	mov    $0xfffffff2,%eax
    193c:	8d 65 f4             	lea    -0xc(%ebp),%esp
    193f:	5b                   	pop    %ebx
    1940:	5e                   	pop    %esi
    1941:	5f                   	pop    %edi
    1942:	5d                   	pop    %ebp
    1943:	c3                   	ret    
    1944:	8d 74 26 00          	lea    0x0(%esi,%eiz,1),%esi
    1948:	3c 3a                	cmp    $0x3a,%al
    194a:	0f 94 c0             	sete   %al
    194d:	25 ff 00 00 00       	and    $0xff,%eax
    1952:	8d 65 f4             	lea    -0xc(%ebp),%esp
    1955:	48                   	dec    %eax
    1956:	5b                   	pop    %ebx
    1957:	83 e0 f2             	and    $0xfffffff2,%eax
    195a:	5e                   	pop    %esi
    195b:	5f                   	pop    %edi
    195c:	5d                   	pop    %ebp
    195d:	c3                   	ret    
    195e:	66 90                	xchg   %ax,%ax
    1960:	83 e8 20             	sub    $0x20,%eax
    1963:	3c 5e                	cmp    $0x5e,%al
    1965:	77 d0                	ja     1937 <http_header_receive_name+0x57>
    1967:	52                   	push   %edx
    1968:	6a 01                	push   $0x1
    196a:	56                   	push   %esi
    196b:	53                   	push   %ebx
    196c:	e8 5f 13 00 00       	call   2cd0 <recv_char>
    1971:	83 c4 10             	add    $0x10,%esp
    1974:	85 c0                	test   %eax,%eax
    1976:	75 c4                	jne    193c <http_header_receive_name+0x5c>
    1978:	8a 45 e7             	mov    -0x19(%ebp),%al
    197b:	8d 50 f7             	lea    -0x9(%eax),%edx
    197e:	80 fa 74             	cmp    $0x74,%dl
    1981:	77 dd                	ja     1960 <http_header_receive_name+0x80>
    1983:	81 e2 ff 00 00 00    	and    $0xff,%edx
    1989:	ff 24 95 9c 3d 00 00 	jmp    *0x3d9c(,%edx,4)

00001990 <http_header_receive_value>:
    1990:	55                   	push   %ebp
    1991:	89 e5                	mov    %esp,%ebp
    1993:	57                   	push   %edi
    1994:	56                   	push   %esi
    1995:	53                   	push   %ebx
    1996:	83 ec 1c             	sub    $0x1c,%esp
    1999:	8d 75 e7             	lea    -0x19(%ebp),%esi
    199c:	8b 7d 0c             	mov    0xc(%ebp),%edi
    199f:	8b 5d 08             	mov    0x8(%ebp),%ebx
    19a2:	c6 45 e7 00          	movb   $0x0,-0x19(%ebp)
    19a6:	85 ff                	test   %edi,%edi
    19a8:	75 26                	jne    19d0 <http_header_receive_value+0x40>
    19aa:	eb 68                	jmp    1a14 <http_header_receive_value+0x84>
    19ac:	8d 74 26 00          	lea    0x0(%esi,%eiz,1),%esi
    19b0:	8a 45 e7             	mov    -0x19(%ebp),%al
    19b3:	3c 20                	cmp    $0x20,%al
    19b5:	74 08                	je     19bf <http_header_receive_value+0x2f>
    19b7:	3c 09                	cmp    $0x9,%al
    19b9:	0f 85 c2 00 00 00    	jne    1a81 <http_header_receive_value+0xf1>
    19bf:	50                   	push   %eax
    19c0:	6a 01                	push   $0x1
    19c2:	56                   	push   %esi
    19c3:	53                   	push   %ebx
    19c4:	e8 07 13 00 00       	call   2cd0 <recv_char>
    19c9:	83 c4 10             	add    $0x10,%esp
    19cc:	85 c0                	test   %eax,%eax
    19ce:	75 1c                	jne    19ec <http_header_receive_value+0x5c>
    19d0:	50                   	push   %eax
    19d1:	50                   	push   %eax
    19d2:	57                   	push   %edi
    19d3:	53                   	push   %ebx
    19d4:	e8 b7 11 00 00       	call   2b90 <recv_mark_update>
    19d9:	83 c4 0c             	add    $0xc,%esp
    19dc:	6a 00                	push   $0x0
    19de:	56                   	push   %esi
    19df:	53                   	push   %ebx
    19e0:	e8 eb 12 00 00       	call   2cd0 <recv_char>
    19e5:	83 c4 10             	add    $0x10,%esp
    19e8:	85 c0                	test   %eax,%eax
    19ea:	74 c4                	je     19b0 <http_header_receive_value+0x20>
    19ec:	8d 65 f4             	lea    -0xc(%ebp),%esp
    19ef:	5b                   	pop    %ebx
    19f0:	5e                   	pop    %esi
    19f1:	5f                   	pop    %edi
    19f2:	5d                   	pop    %ebp
    19f3:	c3                   	ret    
    19f4:	8d 74 26 00          	lea    0x0(%esi,%eiz,1),%esi
    19f8:	8a 45 e7             	mov    -0x19(%ebp),%al
    19fb:	3c 20                	cmp    $0x20,%al
    19fd:	74 04                	je     1a03 <http_header_receive_value+0x73>
    19ff:	3c 09                	cmp    $0x9,%al
    1a01:	75 7e                	jne    1a81 <http_header_receive_value+0xf1>
    1a03:	50                   	push   %eax
    1a04:	6a 01                	push   $0x1
    1a06:	56                   	push   %esi
    1a07:	53                   	push   %ebx
    1a08:	e8 c3 12 00 00       	call   2cd0 <recv_char>
    1a0d:	83 c4 10             	add    $0x10,%esp
    1a10:	85 c0                	test   %eax,%eax
    1a12:	75 d8                	jne    19ec <http_header_receive_value+0x5c>
    1a14:	50                   	push   %eax
    1a15:	6a 00                	push   $0x0
    1a17:	56                   	push   %esi
    1a18:	53                   	push   %ebx
    1a19:	e8 b2 12 00 00       	call   2cd0 <recv_char>
    1a1e:	83 c4 10             	add    $0x10,%esp
    1a21:	85 c0                	test   %eax,%eax
    1a23:	74 d3                	je     19f8 <http_header_receive_value+0x68>
    1a25:	8d 65 f4             	lea    -0xc(%ebp),%esp
    1a28:	5b                   	pop    %ebx
    1a29:	5e                   	pop    %esi
    1a2a:	5f                   	pop    %edi
    1a2b:	5d                   	pop    %ebp
    1a2c:	c3                   	ret    
    1a2d:	8d 76 00             	lea    0x0(%esi),%esi
    1a30:	3c 0d                	cmp    $0xd,%al
    1a32:	51                   	push   %ecx
    1a33:	0f 95 c0             	setne  %al
    1a36:	25 ff 00 00 00       	and    $0xff,%eax
    1a3b:	51                   	push   %ecx
    1a3c:	8d 44 40 0a          	lea    0xa(%eax,%eax,2),%eax
    1a40:	50                   	push   %eax
    1a41:	53                   	push   %ebx
    1a42:	e8 d9 13 00 00       	call   2e20 <recv_discard>
    1a47:	83 c4 10             	add    $0x10,%esp
    1a4a:	85 c0                	test   %eax,%eax
    1a4c:	78 9e                	js     19ec <http_header_receive_value+0x5c>
    1a4e:	52                   	push   %edx
    1a4f:	6a 00                	push   $0x0
    1a51:	56                   	push   %esi
    1a52:	53                   	push   %ebx
    1a53:	e8 78 12 00 00       	call   2cd0 <recv_char>
    1a58:	83 c4 10             	add    $0x10,%esp
    1a5b:	85 c0                	test   %eax,%eax
    1a5d:	75 8d                	jne    19ec <http_header_receive_value+0x5c>
    1a5f:	8a 55 e7             	mov    -0x19(%ebp),%dl
    1a62:	80 fa 20             	cmp    $0x20,%dl
    1a65:	74 05                	je     1a6c <http_header_receive_value+0xdc>
    1a67:	80 fa 09             	cmp    $0x9,%dl
    1a6a:	75 80                	jne    19ec <http_header_receive_value+0x5c>
    1a6c:	50                   	push   %eax
    1a6d:	6a 01                	push   $0x1
    1a6f:	56                   	push   %esi
    1a70:	53                   	push   %ebx
    1a71:	e8 5a 12 00 00       	call   2cd0 <recv_char>
    1a76:	83 c4 10             	add    $0x10,%esp
    1a79:	85 c0                	test   %eax,%eax
    1a7b:	0f 85 6b ff ff ff    	jne    19ec <http_header_receive_value+0x5c>
    1a81:	8b 45 10             	mov    0x10(%ebp),%eax
    1a84:	57                   	push   %edi
    1a85:	57                   	push   %edi
    1a86:	50                   	push   %eax
    1a87:	53                   	push   %ebx
    1a88:	e8 03 11 00 00       	call   2b90 <recv_mark_update>
    1a8d:	83 c4 0c             	add    $0xc,%esp
    1a90:	6a 01                	push   $0x1
    1a92:	56                   	push   %esi
    1a93:	53                   	push   %ebx
    1a94:	e8 37 12 00 00       	call   2cd0 <recv_char>
    1a99:	83 c4 10             	add    $0x10,%esp
    1a9c:	85 c0                	test   %eax,%eax
    1a9e:	0f 85 48 ff ff ff    	jne    19ec <http_header_receive_value+0x5c>
    1aa4:	8a 45 e7             	mov    -0x19(%ebp),%al
    1aa7:	3c 0d                	cmp    $0xd,%al
    1aa9:	74 85                	je     1a30 <http_header_receive_value+0xa0>
    1aab:	3c 0a                	cmp    $0xa,%al
    1aad:	75 d2                	jne    1a81 <http_header_receive_value+0xf1>
    1aaf:	e9 7c ff ff ff       	jmp    1a30 <http_header_receive_value+0xa0>
    1ab4:	8d b6 00 00 00 00    	lea    0x0(%esi),%esi
    1aba:	8d bf 00 00 00 00    	lea    0x0(%edi),%edi

00001ac0 <http_header_receive>:
    1ac0:	55                   	push   %ebp
    1ac1:	89 e5                	mov    %esp,%ebp
    1ac3:	57                   	push   %edi
    1ac4:	56                   	push   %esi
    1ac5:	53                   	push   %ebx
    1ac6:	83 ec 44             	sub    $0x44,%esp
    1ac9:	8d 45 d0             	lea    -0x30(%ebp),%eax
    1acc:	8b 5d 08             	mov    0x8(%ebp),%ebx
    1acf:	8d 75 dc             	lea    -0x24(%ebp),%esi
    1ad2:	50                   	push   %eax
    1ad3:	53                   	push   %ebx
    1ad4:	e8 57 10 00 00       	call   2b30 <recv_mark>
    1ad9:	58                   	pop    %eax
    1ada:	5a                   	pop    %edx
    1adb:	56                   	push   %esi
    1adc:	53                   	push   %ebx
    1add:	8d 7d cc             	lea    -0x34(%ebp),%edi
    1ae0:	e8 4b 10 00 00       	call   2b30 <recv_mark>
    1ae5:	c6 45 cc 00          	movb   $0x0,-0x34(%ebp)
    1ae9:	83 c4 10             	add    $0x10,%esp
    1aec:	50                   	push   %eax
    1aed:	50                   	push   %eax
    1aee:	56                   	push   %esi
    1aef:	53                   	push   %ebx
    1af0:	e8 9b 10 00 00       	call   2b90 <recv_mark_update>
    1af5:	83 c4 0c             	add    $0xc,%esp
    1af8:	6a 01                	push   $0x1
    1afa:	57                   	push   %edi
    1afb:	53                   	push   %ebx
    1afc:	e8 cf 11 00 00       	call   2cd0 <recv_char>
    1b01:	83 c4 10             	add    $0x10,%esp
    1b04:	85 c0                	test   %eax,%eax
    1b06:	75 25                	jne    1b2d <http_header_receive+0x6d>
    1b08:	8a 55 cc             	mov    -0x34(%ebp),%dl
    1b0b:	8d 42 f7             	lea    -0x9(%edx),%eax
    1b0e:	3c 74                	cmp    $0x74,%al
    1b10:	77 0e                	ja     1b20 <http_header_receive+0x60>
    1b12:	25 ff 00 00 00       	and    $0xff,%eax
    1b17:	ff 24 85 70 3f 00 00 	jmp    *0x3f70(,%eax,4)
    1b1e:	66 90                	xchg   %ax,%ax
    1b20:	83 ea 20             	sub    $0x20,%edx
    1b23:	80 fa 5e             	cmp    $0x5e,%dl
    1b26:	76 c4                	jbe    1aec <http_header_receive+0x2c>
    1b28:	b8 f2 ff ff ff       	mov    $0xfffffff2,%eax
    1b2d:	89 45 c4             	mov    %eax,-0x3c(%ebp)
    1b30:	50                   	push   %eax
    1b31:	50                   	push   %eax
    1b32:	8d 45 d0             	lea    -0x30(%ebp),%eax
    1b35:	50                   	push   %eax
    1b36:	53                   	push   %ebx
    1b37:	e8 24 10 00 00       	call   2b60 <recv_unmark>
    1b3c:	5a                   	pop    %edx
    1b3d:	59                   	pop    %ecx
    1b3e:	56                   	push   %esi
    1b3f:	53                   	push   %ebx
    1b40:	e8 1b 10 00 00       	call   2b60 <recv_unmark>
    1b45:	8b 45 c4             	mov    -0x3c(%ebp),%eax
    1b48:	8d 65 f4             	lea    -0xc(%ebp),%esp
    1b4b:	5b                   	pop    %ebx
    1b4c:	5e                   	pop    %esi
    1b4d:	5f                   	pop    %edi
    1b4e:	5d                   	pop    %ebp
    1b4f:	c3                   	ret    
    1b50:	80 fa 3a             	cmp    $0x3a,%dl
    1b53:	75 d3                	jne    1b28 <http_header_receive+0x68>
    1b55:	8b 45 e4             	mov    -0x1c(%ebp),%eax
    1b58:	8b 55 d8             	mov    -0x28(%ebp),%edx
    1b5b:	29 d0                	sub    %edx,%eax
    1b5d:	8b 4d 10             	mov    0x10(%ebp),%ecx
    1b60:	89 45 c4             	mov    %eax,-0x3c(%ebp)
    1b63:	85 c9                	test   %ecx,%ecx
    1b65:	74 09                	je     1b70 <http_header_receive+0xb0>
    1b67:	3b 45 10             	cmp    0x10(%ebp),%eax
    1b6a:	0f 87 ad 00 00 00    	ja     1c1d <http_header_receive+0x15d>
    1b70:	8d 45 c8             	lea    -0x38(%ebp),%eax
    1b73:	c7 45 c8 00 00 00 00 	movl   $0x0,-0x38(%ebp)
    1b7a:	50                   	push   %eax
    1b7b:	8d 45 d0             	lea    -0x30(%ebp),%eax
    1b7e:	56                   	push   %esi
    1b7f:	50                   	push   %eax
    1b80:	53                   	push   %ebx
    1b81:	e8 9a 10 00 00       	call   2c20 <recv_cut_str>
    1b86:	83 c4 10             	add    $0x10,%esp
    1b89:	85 c0                	test   %eax,%eax
    1b8b:	75 a0                	jne    1b2d <http_header_receive+0x6d>
    1b8d:	50                   	push   %eax
    1b8e:	8d 45 d0             	lea    -0x30(%ebp),%eax
    1b91:	56                   	push   %esi
    1b92:	50                   	push   %eax
    1b93:	53                   	push   %ebx
    1b94:	e8 f7 fd ff ff       	call   1990 <http_header_receive_value>
    1b99:	83 c4 10             	add    $0x10,%esp
    1b9c:	85 c0                	test   %eax,%eax
    1b9e:	75 1e                	jne    1bbe <http_header_receive+0xfe>
    1ba0:	8b 45 d8             	mov    -0x28(%ebp),%eax
    1ba3:	8b 55 e4             	mov    -0x1c(%ebp),%edx
    1ba6:	29 c2                	sub    %eax,%edx
    1ba8:	8b 45 10             	mov    0x10(%ebp),%eax
    1bab:	85 c0                	test   %eax,%eax
    1bad:	74 29                	je     1bd8 <http_header_receive+0x118>
    1baf:	8b 45 c4             	mov    -0x3c(%ebp),%eax
    1bb2:	01 d0                	add    %edx,%eax
    1bb4:	39 45 10             	cmp    %eax,0x10(%ebp)
    1bb7:	73 1f                	jae    1bd8 <http_header_receive+0x118>
    1bb9:	b8 fd ff ff ff       	mov    $0xfffffffd,%eax
    1bbe:	83 ec 0c             	sub    $0xc,%esp
    1bc1:	8b 7d c8             	mov    -0x38(%ebp),%edi
    1bc4:	89 45 c4             	mov    %eax,-0x3c(%ebp)
    1bc7:	57                   	push   %edi
    1bc8:	e8 33 29 00 00       	call   4500 <free@plt>
    1bcd:	83 c4 10             	add    $0x10,%esp
    1bd0:	8b 45 c4             	mov    -0x3c(%ebp),%eax
    1bd3:	e9 55 ff ff ff       	jmp    1b2d <http_header_receive+0x6d>
    1bd8:	8d 45 d0             	lea    -0x30(%ebp),%eax
    1bdb:	57                   	push   %edi
    1bdc:	89 55 c0             	mov    %edx,-0x40(%ebp)
    1bdf:	56                   	push   %esi
    1be0:	c7 45 cc 00 00 00 00 	movl   $0x0,-0x34(%ebp)
    1be7:	50                   	push   %eax
    1be8:	53                   	push   %ebx
    1be9:	e8 32 10 00 00       	call   2c20 <recv_cut_str>
    1bee:	83 c4 10             	add    $0x10,%esp
    1bf1:	85 c0                	test   %eax,%eax
    1bf3:	75 c9                	jne    1bbe <http_header_receive+0xfe>
    1bf5:	8b 7d 14             	mov    0x14(%ebp),%edi
    1bf8:	85 ff                	test   %edi,%edi
    1bfa:	74 0d                	je     1c09 <http_header_receive+0x149>
    1bfc:	8b 4d c4             	mov    -0x3c(%ebp),%ecx
    1bff:	8b 55 c0             	mov    -0x40(%ebp),%edx
    1c02:	01 ca                	add    %ecx,%edx
    1c04:	8b 4d 14             	mov    0x14(%ebp),%ecx
    1c07:	89 11                	mov    %edx,(%ecx)
    1c09:	8b 4d 0c             	mov    0xc(%ebp),%ecx
    1c0c:	8b 55 c8             	mov    -0x38(%ebp),%edx
    1c0f:	89 51 08             	mov    %edx,0x8(%ecx)
    1c12:	8b 55 cc             	mov    -0x34(%ebp),%edx
    1c15:	89 51 0c             	mov    %edx,0xc(%ecx)
    1c18:	e9 10 ff ff ff       	jmp    1b2d <http_header_receive+0x6d>
    1c1d:	b8 fd ff ff ff       	mov    $0xfffffffd,%eax
    1c22:	e9 06 ff ff ff       	jmp    1b2d <http_header_receive+0x6d>
    1c27:	89 f6                	mov    %esi,%esi
    1c29:	8d bc 27 00 00 00 00 	lea    0x0(%edi,%eiz,1),%edi

00001c30 <http_header_normalize_value>:
    1c30:	55                   	push   %ebp
    1c31:	31 d2                	xor    %edx,%edx
    1c33:	89 e5                	mov    %esp,%ebp
    1c35:	57                   	push   %edi
    1c36:	56                   	push   %esi
    1c37:	53                   	push   %ebx
    1c38:	8b 5d 08             	mov    0x8(%ebp),%ebx
    1c3b:	8a 04 13             	mov    (%ebx,%edx,1),%al
    1c3e:	3c 0d                	cmp    $0xd,%al
    1c40:	74 62                	je     1ca4 <http_header_normalize_value+0x74>
    1c42:	7f 5c                	jg     1ca0 <http_header_normalize_value+0x70>
    1c44:	8d 48 f7             	lea    -0x9(%eax),%ecx
    1c47:	80 f9 01             	cmp    $0x1,%cl
    1c4a:	76 58                	jbe    1ca4 <http_header_normalize_value+0x74>
    1c4c:	31 ff                	xor    %edi,%edi
    1c4e:	eb 12                	jmp    1c62 <http_header_normalize_value+0x32>
    1c50:	8d 70 f7             	lea    -0x9(%eax),%esi
    1c53:	89 f1                	mov    %esi,%ecx
    1c55:	80 f9 01             	cmp    $0x1,%cl
    1c58:	76 16                	jbe    1c70 <http_header_normalize_value+0x40>
    1c5a:	42                   	inc    %edx
    1c5b:	88 04 3b             	mov    %al,(%ebx,%edi,1)
    1c5e:	47                   	inc    %edi
    1c5f:	8a 04 13             	mov    (%ebx,%edx,1),%al
    1c62:	84 c0                	test   %al,%al
    1c64:	74 2a                	je     1c90 <http_header_normalize_value+0x60>
    1c66:	3c 0d                	cmp    $0xd,%al
    1c68:	74 06                	je     1c70 <http_header_normalize_value+0x40>
    1c6a:	7e e4                	jle    1c50 <http_header_normalize_value+0x20>
    1c6c:	3c 20                	cmp    $0x20,%al
    1c6e:	75 ea                	jne    1c5a <http_header_normalize_value+0x2a>
    1c70:	3c 0d                	cmp    $0xd,%al
    1c72:	74 38                	je     1cac <http_header_normalize_value+0x7c>
    1c74:	7f 32                	jg     1ca8 <http_header_normalize_value+0x78>
    1c76:	8d 70 f7             	lea    -0x9(%eax),%esi
    1c79:	89 f1                	mov    %esi,%ecx
    1c7b:	80 f9 01             	cmp    $0x1,%cl
    1c7e:	76 2c                	jbe    1cac <http_header_normalize_value+0x7c>
    1c80:	84 c0                	test   %al,%al
    1c82:	74 0c                	je     1c90 <http_header_normalize_value+0x60>
    1c84:	c6 04 3b 20          	movb   $0x20,(%ebx,%edi,1)
    1c88:	47                   	inc    %edi
    1c89:	8a 04 13             	mov    (%ebx,%edx,1),%al
    1c8c:	84 c0                	test   %al,%al
    1c8e:	75 d6                	jne    1c66 <http_header_normalize_value+0x36>
    1c90:	c6 04 3b 00          	movb   $0x0,(%ebx,%edi,1)
    1c94:	5b                   	pop    %ebx
    1c95:	5e                   	pop    %esi
    1c96:	5f                   	pop    %edi
    1c97:	5d                   	pop    %ebp
    1c98:	c3                   	ret    
    1c99:	8d b4 26 00 00 00 00 	lea    0x0(%esi,%eiz,1),%esi
    1ca0:	3c 20                	cmp    $0x20,%al
    1ca2:	75 a8                	jne    1c4c <http_header_normalize_value+0x1c>
    1ca4:	42                   	inc    %edx
    1ca5:	eb 94                	jmp    1c3b <http_header_normalize_value+0xb>
    1ca7:	90                   	nop
    1ca8:	3c 20                	cmp    $0x20,%al
    1caa:	75 d4                	jne    1c80 <http_header_normalize_value+0x50>
    1cac:	42                   	inc    %edx
    1cad:	8a 04 13             	mov    (%ebx,%edx,1),%al
    1cb0:	eb be                	jmp    1c70 <http_header_normalize_value+0x40>
    1cb2:	8d b4 26 00 00 00 00 	lea    0x0(%esi,%eiz,1),%esi
    1cb9:	8d bc 27 00 00 00 00 	lea    0x0(%edi,%eiz,1),%edi

00001cc0 <http_header_name_match>:
    1cc0:	55                   	push   %ebp
    1cc1:	89 e5                	mov    %esp,%ebp
    1cc3:	83 ec 10             	sub    $0x10,%esp
    1cc6:	8b 45 0c             	mov    0xc(%ebp),%eax
    1cc9:	8b 55 08             	mov    0x8(%ebp),%edx
    1ccc:	50                   	push   %eax
    1ccd:	52                   	push   %edx
    1cce:	e8 ed 26 00 00       	call   43c0 <stricmp@plt>
    1cd3:	83 c4 10             	add    $0x10,%esp
    1cd6:	85 c0                	test   %eax,%eax
    1cd8:	c9                   	leave  
    1cd9:	0f 94 c0             	sete   %al
    1cdc:	c3                   	ret    
    1cdd:	8d 76 00             	lea    0x0(%esi),%esi

00001ce0 <http_headers_init>:
    1ce0:	55                   	push   %ebp
    1ce1:	89 e5                	mov    %esp,%ebp
    1ce3:	8b 45 08             	mov    0x8(%ebp),%eax
    1ce6:	89 00                	mov    %eax,(%eax)
    1ce8:	89 40 04             	mov    %eax,0x4(%eax)
    1ceb:	5d                   	pop    %ebp
    1cec:	c3                   	ret    
    1ced:	8d 76 00             	lea    0x0(%esi),%esi

00001cf0 <http_headers_find_single>:
    1cf0:	55                   	push   %ebp
    1cf1:	89 e5                	mov    %esp,%ebp
    1cf3:	57                   	push   %edi
    1cf4:	56                   	push   %esi
    1cf5:	53                   	push   %ebx
    1cf6:	83 ec 0c             	sub    $0xc,%esp
    1cf9:	31 f6                	xor    %esi,%esi
    1cfb:	8b 45 08             	mov    0x8(%ebp),%eax
    1cfe:	8b 7d 0c             	mov    0xc(%ebp),%edi
    1d01:	8b 58 04             	mov    0x4(%eax),%ebx
    1d04:	39 c3                	cmp    %eax,%ebx
    1d06:	74 45                	je     1d4d <http_headers_find_single+0x5d>
    1d08:	50                   	push   %eax
    1d09:	50                   	push   %eax
    1d0a:	57                   	push   %edi
    1d0b:	8b 53 08             	mov    0x8(%ebx),%edx
    1d0e:	52                   	push   %edx
    1d0f:	e8 ac 26 00 00       	call   43c0 <stricmp@plt>
    1d14:	83 c4 10             	add    $0x10,%esp
    1d17:	85 c0                	test   %eax,%eax
    1d19:	75 06                	jne    1d21 <http_headers_find_single+0x31>
    1d1b:	85 f6                	test   %esi,%esi
    1d1d:	75 21                	jne    1d40 <http_headers_find_single+0x50>
    1d1f:	89 de                	mov    %ebx,%esi
    1d21:	8b 5b 04             	mov    0x4(%ebx),%ebx
    1d24:	3b 5d 08             	cmp    0x8(%ebp),%ebx
    1d27:	75 df                	jne    1d08 <http_headers_find_single+0x18>
    1d29:	85 f6                	test   %esi,%esi
    1d2b:	74 20                	je     1d4d <http_headers_find_single+0x5d>
    1d2d:	8b 45 10             	mov    0x10(%ebp),%eax
    1d30:	89 30                	mov    %esi,(%eax)
    1d32:	8d 65 f4             	lea    -0xc(%ebp),%esp
    1d35:	31 c0                	xor    %eax,%eax
    1d37:	5b                   	pop    %ebx
    1d38:	5e                   	pop    %esi
    1d39:	5f                   	pop    %edi
    1d3a:	5d                   	pop    %ebp
    1d3b:	c3                   	ret    
    1d3c:	8d 74 26 00          	lea    0x0(%esi,%eiz,1),%esi
    1d40:	8d 65 f4             	lea    -0xc(%ebp),%esp
    1d43:	b8 df b1 ff ff       	mov    $0xffffb1df,%eax
    1d48:	5b                   	pop    %ebx
    1d49:	5e                   	pop    %esi
    1d4a:	5f                   	pop    %edi
    1d4b:	5d                   	pop    %ebp
    1d4c:	c3                   	ret    
    1d4d:	8d 65 f4             	lea    -0xc(%ebp),%esp
    1d50:	b8 de b1 ff ff       	mov    $0xffffb1de,%eax
    1d55:	5b                   	pop    %ebx
    1d56:	5e                   	pop    %esi
    1d57:	5f                   	pop    %edi
    1d58:	5d                   	pop    %ebp
    1d59:	c3                   	ret    
    1d5a:	8d b6 00 00 00 00    	lea    0x0(%esi),%esi

00001d60 <http_headers_append>:
    1d60:	55                   	push   %ebp
    1d61:	89 e5                	mov    %esp,%ebp
    1d63:	56                   	push   %esi
    1d64:	53                   	push   %ebx
    1d65:	83 ec 0c             	sub    $0xc,%esp
    1d68:	8b 75 08             	mov    0x8(%ebp),%esi
    1d6b:	6a 10                	push   $0x10
    1d6d:	e8 0e 26 00 00       	call   4380 <malloc@plt>
    1d72:	83 c4 10             	add    $0x10,%esp
    1d75:	85 c0                	test   %eax,%eax
    1d77:	74 5f                	je     1dd8 <http_headers_append+0x78>
    1d79:	83 ec 0c             	sub    $0xc,%esp
    1d7c:	c7 00 00 00 00 00    	movl   $0x0,(%eax)
    1d82:	c7 40 04 00 00 00 00 	movl   $0x0,0x4(%eax)
    1d89:	c7 40 08 00 00 00 00 	movl   $0x0,0x8(%eax)
    1d90:	c7 40 0c 00 00 00 00 	movl   $0x0,0xc(%eax)
    1d97:	8b 4d 0c             	mov    0xc(%ebp),%ecx
    1d9a:	89 c3                	mov    %eax,%ebx
    1d9c:	51                   	push   %ecx
    1d9d:	e8 5e 26 00 00       	call   4400 <str_dup@plt>
    1da2:	83 c4 10             	add    $0x10,%esp
    1da5:	89 43 08             	mov    %eax,0x8(%ebx)
    1da8:	85 c0                	test   %eax,%eax
    1daa:	74 34                	je     1de0 <http_headers_append+0x80>
    1dac:	83 ec 0c             	sub    $0xc,%esp
    1daf:	8b 55 10             	mov    0x10(%ebp),%edx
    1db2:	52                   	push   %edx
    1db3:	e8 48 26 00 00       	call   4400 <str_dup@plt>
    1db8:	83 c4 10             	add    $0x10,%esp
    1dbb:	89 43 0c             	mov    %eax,0xc(%ebx)
    1dbe:	85 c0                	test   %eax,%eax
    1dc0:	74 31                	je     1df3 <http_headers_append+0x93>
    1dc2:	8b 06                	mov    (%esi),%eax
    1dc4:	89 73 04             	mov    %esi,0x4(%ebx)
    1dc7:	89 03                	mov    %eax,(%ebx)
    1dc9:	89 58 04             	mov    %ebx,0x4(%eax)
    1dcc:	89 1e                	mov    %ebx,(%esi)
    1dce:	31 c0                	xor    %eax,%eax
    1dd0:	8d 65 f8             	lea    -0x8(%ebp),%esp
    1dd3:	5b                   	pop    %ebx
    1dd4:	5e                   	pop    %esi
    1dd5:	5d                   	pop    %ebp
    1dd6:	c3                   	ret    
    1dd7:	90                   	nop
    1dd8:	b8 fe ff ff ff       	mov    $0xfffffffe,%eax
    1ddd:	eb f1                	jmp    1dd0 <http_headers_append+0x70>
    1ddf:	90                   	nop
    1de0:	83 ec 0c             	sub    $0xc,%esp
    1de3:	53                   	push   %ebx
    1de4:	e8 17 27 00 00       	call   4500 <free@plt>
    1de9:	83 c4 10             	add    $0x10,%esp
    1dec:	b8 fe ff ff ff       	mov    $0xfffffffe,%eax
    1df1:	eb dd                	jmp    1dd0 <http_headers_append+0x70>
    1df3:	83 ec 0c             	sub    $0xc,%esp
    1df6:	8b 43 08             	mov    0x8(%ebx),%eax
    1df9:	50                   	push   %eax
    1dfa:	e8 01 27 00 00       	call   4500 <free@plt>
    1dff:	89 1c 24             	mov    %ebx,(%esp)
    1e02:	e8 f9 26 00 00       	call   4500 <free@plt>
    1e07:	83 c4 10             	add    $0x10,%esp
    1e0a:	b8 fe ff ff ff       	mov    $0xfffffffe,%eax
    1e0f:	eb bf                	jmp    1dd0 <http_headers_append+0x70>
    1e11:	eb 0d                	jmp    1e20 <http_headers_set>
    1e13:	90                   	nop
    1e14:	90                   	nop
    1e15:	90                   	nop
    1e16:	90                   	nop
    1e17:	90                   	nop
    1e18:	90                   	nop
    1e19:	90                   	nop
    1e1a:	90                   	nop
    1e1b:	90                   	nop
    1e1c:	90                   	nop
    1e1d:	90                   	nop
    1e1e:	90                   	nop
    1e1f:	90                   	nop

00001e20 <http_headers_set>:
    1e20:	55                   	push   %ebp
    1e21:	89 e5                	mov    %esp,%ebp
    1e23:	57                   	push   %edi
    1e24:	56                   	push   %esi
    1e25:	53                   	push   %ebx
    1e26:	83 ec 0c             	sub    $0xc,%esp
    1e29:	8b 45 08             	mov    0x8(%ebp),%eax
    1e2c:	8b 7d 0c             	mov    0xc(%ebp),%edi
    1e2f:	8b 70 04             	mov    0x4(%eax),%esi
    1e32:	39 c6                	cmp    %eax,%esi
    1e34:	74 6f                	je     1ea5 <http_headers_set+0x85>
    1e36:	31 db                	xor    %ebx,%ebx
    1e38:	50                   	push   %eax
    1e39:	50                   	push   %eax
    1e3a:	57                   	push   %edi
    1e3b:	8b 46 08             	mov    0x8(%esi),%eax
    1e3e:	50                   	push   %eax
    1e3f:	e8 7c 25 00 00       	call   43c0 <stricmp@plt>
    1e44:	83 c4 10             	add    $0x10,%esp
    1e47:	85 c0                	test   %eax,%eax
    1e49:	75 06                	jne    1e51 <http_headers_set+0x31>
    1e4b:	85 db                	test   %ebx,%ebx
    1e4d:	75 49                	jne    1e98 <http_headers_set+0x78>
    1e4f:	89 f3                	mov    %esi,%ebx
    1e51:	8b 76 04             	mov    0x4(%esi),%esi
    1e54:	3b 75 08             	cmp    0x8(%ebp),%esi
    1e57:	75 df                	jne    1e38 <http_headers_set+0x18>
    1e59:	85 db                	test   %ebx,%ebx
    1e5b:	74 48                	je     1ea5 <http_headers_set+0x85>
    1e5d:	83 ec 0c             	sub    $0xc,%esp
    1e60:	8b 45 10             	mov    0x10(%ebp),%eax
    1e63:	50                   	push   %eax
    1e64:	e8 97 25 00 00       	call   4400 <str_dup@plt>
    1e69:	83 c4 10             	add    $0x10,%esp
    1e6c:	89 c6                	mov    %eax,%esi
    1e6e:	85 c0                	test   %eax,%eax
    1e70:	0f 84 a2 00 00 00    	je     1f18 <http_headers_set+0xf8>
    1e76:	83 ec 0c             	sub    $0xc,%esp
    1e79:	8b 53 0c             	mov    0xc(%ebx),%edx
    1e7c:	52                   	push   %edx
    1e7d:	e8 7e 26 00 00       	call   4500 <free@plt>
    1e82:	89 73 0c             	mov    %esi,0xc(%ebx)
    1e85:	83 c4 10             	add    $0x10,%esp
    1e88:	8d 65 f4             	lea    -0xc(%ebp),%esp
    1e8b:	31 c0                	xor    %eax,%eax
    1e8d:	5b                   	pop    %ebx
    1e8e:	5e                   	pop    %esi
    1e8f:	5f                   	pop    %edi
    1e90:	5d                   	pop    %ebp
    1e91:	c3                   	ret    
    1e92:	8d b6 00 00 00 00    	lea    0x0(%esi),%esi
    1e98:	b8 df b1 ff ff       	mov    $0xffffb1df,%eax
    1e9d:	8d 65 f4             	lea    -0xc(%ebp),%esp
    1ea0:	5b                   	pop    %ebx
    1ea1:	5e                   	pop    %esi
    1ea2:	5f                   	pop    %edi
    1ea3:	5d                   	pop    %ebp
    1ea4:	c3                   	ret    
    1ea5:	83 ec 0c             	sub    $0xc,%esp
    1ea8:	6a 10                	push   $0x10
    1eaa:	e8 d1 24 00 00       	call   4380 <malloc@plt>
    1eaf:	83 c4 10             	add    $0x10,%esp
    1eb2:	89 c3                	mov    %eax,%ebx
    1eb4:	85 c0                	test   %eax,%eax
    1eb6:	74 60                	je     1f18 <http_headers_set+0xf8>
    1eb8:	83 ec 0c             	sub    $0xc,%esp
    1ebb:	c7 03 00 00 00 00    	movl   $0x0,(%ebx)
    1ec1:	c7 43 04 00 00 00 00 	movl   $0x0,0x4(%ebx)
    1ec8:	c7 43 08 00 00 00 00 	movl   $0x0,0x8(%ebx)
    1ecf:	c7 43 0c 00 00 00 00 	movl   $0x0,0xc(%ebx)
    1ed6:	57                   	push   %edi
    1ed7:	e8 24 25 00 00       	call   4400 <str_dup@plt>
    1edc:	83 c4 10             	add    $0x10,%esp
    1edf:	89 43 08             	mov    %eax,0x8(%ebx)
    1ee2:	85 c0                	test   %eax,%eax
    1ee4:	74 3c                	je     1f22 <http_headers_set+0x102>
    1ee6:	83 ec 0c             	sub    $0xc,%esp
    1ee9:	8b 75 10             	mov    0x10(%ebp),%esi
    1eec:	56                   	push   %esi
    1eed:	e8 0e 25 00 00       	call   4400 <str_dup@plt>
    1ef2:	83 c4 10             	add    $0x10,%esp
    1ef5:	89 43 0c             	mov    %eax,0xc(%ebx)
    1ef8:	85 c0                	test   %eax,%eax
    1efa:	74 3c                	je     1f38 <http_headers_set+0x118>
    1efc:	8b 45 08             	mov    0x8(%ebp),%eax
    1eff:	89 43 04             	mov    %eax,0x4(%ebx)
    1f02:	8b 00                	mov    (%eax),%eax
    1f04:	89 03                	mov    %eax,(%ebx)
    1f06:	89 58 04             	mov    %ebx,0x4(%eax)
    1f09:	8b 45 08             	mov    0x8(%ebp),%eax
    1f0c:	89 18                	mov    %ebx,(%eax)
    1f0e:	8d 65 f4             	lea    -0xc(%ebp),%esp
    1f11:	31 c0                	xor    %eax,%eax
    1f13:	5b                   	pop    %ebx
    1f14:	5e                   	pop    %esi
    1f15:	5f                   	pop    %edi
    1f16:	5d                   	pop    %ebp
    1f17:	c3                   	ret    
    1f18:	b8 fe ff ff ff       	mov    $0xfffffffe,%eax
    1f1d:	e9 7b ff ff ff       	jmp    1e9d <http_headers_set+0x7d>
    1f22:	83 ec 0c             	sub    $0xc,%esp
    1f25:	53                   	push   %ebx
    1f26:	e8 d5 25 00 00       	call   4500 <free@plt>
    1f2b:	83 c4 10             	add    $0x10,%esp
    1f2e:	b8 fe ff ff ff       	mov    $0xfffffffe,%eax
    1f33:	e9 65 ff ff ff       	jmp    1e9d <http_headers_set+0x7d>
    1f38:	83 ec 0c             	sub    $0xc,%esp
    1f3b:	8b 4b 08             	mov    0x8(%ebx),%ecx
    1f3e:	51                   	push   %ecx
    1f3f:	e8 bc 25 00 00       	call   4500 <free@plt>
    1f44:	89 1c 24             	mov    %ebx,(%esp)
    1f47:	e8 b4 25 00 00       	call   4500 <free@plt>
    1f4c:	83 c4 10             	add    $0x10,%esp
    1f4f:	b8 fe ff ff ff       	mov    $0xfffffffe,%eax
    1f54:	e9 44 ff ff ff       	jmp    1e9d <http_headers_set+0x7d>
    1f59:	8d b4 26 00 00 00 00 	lea    0x0(%esi,%eiz,1),%esi

00001f60 <http_headers_get>:
    1f60:	55                   	push   %ebp
    1f61:	89 e5                	mov    %esp,%ebp
    1f63:	57                   	push   %edi
    1f64:	56                   	push   %esi
    1f65:	53                   	push   %ebx
    1f66:	83 ec 0c             	sub    $0xc,%esp
    1f69:	31 db                	xor    %ebx,%ebx
    1f6b:	8b 45 08             	mov    0x8(%ebp),%eax
    1f6e:	8b 7d 0c             	mov    0xc(%ebp),%edi
    1f71:	8b 70 04             	mov    0x4(%eax),%esi
    1f74:	39 c6                	cmp    %eax,%esi
    1f76:	74 45                	je     1fbd <http_headers_get+0x5d>
    1f78:	50                   	push   %eax
    1f79:	50                   	push   %eax
    1f7a:	57                   	push   %edi
    1f7b:	8b 56 08             	mov    0x8(%esi),%edx
    1f7e:	52                   	push   %edx
    1f7f:	e8 3c 24 00 00       	call   43c0 <stricmp@plt>
    1f84:	83 c4 10             	add    $0x10,%esp
    1f87:	85 c0                	test   %eax,%eax
    1f89:	75 06                	jne    1f91 <http_headers_get+0x31>
    1f8b:	85 db                	test   %ebx,%ebx
    1f8d:	75 21                	jne    1fb0 <http_headers_get+0x50>
    1f8f:	89 f3                	mov    %esi,%ebx
    1f91:	8b 76 04             	mov    0x4(%esi),%esi
    1f94:	3b 75 08             	cmp    0x8(%ebp),%esi
    1f97:	75 df                	jne    1f78 <http_headers_get+0x18>
    1f99:	85 db                	test   %ebx,%ebx
    1f9b:	74 20                	je     1fbd <http_headers_get+0x5d>
    1f9d:	8b 45 10             	mov    0x10(%ebp),%eax
    1fa0:	8b 53 0c             	mov    0xc(%ebx),%edx
    1fa3:	89 10                	mov    %edx,(%eax)
    1fa5:	8d 65 f4             	lea    -0xc(%ebp),%esp
    1fa8:	31 c0                	xor    %eax,%eax
    1faa:	5b                   	pop    %ebx
    1fab:	5e                   	pop    %esi
    1fac:	5f                   	pop    %edi
    1fad:	5d                   	pop    %ebp
    1fae:	c3                   	ret    
    1faf:	90                   	nop
    1fb0:	8d 65 f4             	lea    -0xc(%ebp),%esp
    1fb3:	b8 df b1 ff ff       	mov    $0xffffb1df,%eax
    1fb8:	5b                   	pop    %ebx
    1fb9:	5e                   	pop    %esi
    1fba:	5f                   	pop    %edi
    1fbb:	5d                   	pop    %ebp
    1fbc:	c3                   	ret    
    1fbd:	8d 65 f4             	lea    -0xc(%ebp),%esp
    1fc0:	b8 de b1 ff ff       	mov    $0xffffb1de,%eax
    1fc5:	5b                   	pop    %ebx
    1fc6:	5e                   	pop    %esi
    1fc7:	5f                   	pop    %edi
    1fc8:	5d                   	pop    %ebp
    1fc9:	c3                   	ret    
    1fca:	8d b6 00 00 00 00    	lea    0x0(%esi),%esi

00001fd0 <http_headers_receive>:
    1fd0:	55                   	push   %ebp
    1fd1:	89 e5                	mov    %esp,%ebp
    1fd3:	57                   	push   %edi
    1fd4:	56                   	push   %esi
    1fd5:	53                   	push   %ebx
    1fd6:	83 ec 2c             	sub    $0x2c,%esp
    1fd9:	c7 45 d4 00 00 00 00 	movl   $0x0,-0x2c(%ebp)
    1fe0:	8b 5d 0c             	mov    0xc(%ebp),%ebx
    1fe3:	8b 75 10             	mov    0x10(%ebp),%esi
    1fe6:	e9 91 00 00 00       	jmp    207c <http_headers_receive+0xac>
    1feb:	90                   	nop
    1fec:	8d 74 26 00          	lea    0x0(%esi,%eiz,1),%esi
    1ff0:	8a 55 e3             	mov    -0x1d(%ebp),%dl
    1ff3:	80 fa 0a             	cmp    $0xa,%dl
    1ff6:	0f 84 0f 01 00 00    	je     210b <http_headers_receive+0x13b>
    1ffc:	80 fa 0d             	cmp    $0xd,%dl
    1fff:	0f 84 06 01 00 00    	je     210b <http_headers_receive+0x13b>
    2005:	8b 45 14             	mov    0x14(%ebp),%eax
    2008:	85 c0                	test   %eax,%eax
    200a:	74 0c                	je     2018 <http_headers_receive+0x48>
    200c:	8b 45 d4             	mov    -0x2c(%ebp),%eax
    200f:	3b 45 14             	cmp    0x14(%ebp),%eax
    2012:	0f 83 00 01 00 00    	jae    2118 <http_headers_receive+0x148>
    2018:	83 ec 0c             	sub    $0xc,%esp
    201b:	6a 10                	push   $0x10
    201d:	e8 5e 23 00 00       	call   4380 <malloc@plt>
    2022:	83 c4 10             	add    $0x10,%esp
    2025:	89 c7                	mov    %eax,%edi
    2027:	85 c0                	test   %eax,%eax
    2029:	0f 84 f9 00 00 00    	je     2128 <http_headers_receive+0x158>
    202f:	c7 00 00 00 00 00    	movl   $0x0,(%eax)
    2035:	c7 40 04 00 00 00 00 	movl   $0x0,0x4(%eax)
    203c:	c7 40 08 00 00 00 00 	movl   $0x0,0x8(%eax)
    2043:	c7 40 0c 00 00 00 00 	movl   $0x0,0xc(%eax)
    204a:	8d 45 e4             	lea    -0x1c(%ebp),%eax
    204d:	50                   	push   %eax
    204e:	8b 45 08             	mov    0x8(%ebp),%eax
    2051:	56                   	push   %esi
    2052:	57                   	push   %edi
    2053:	50                   	push   %eax
    2054:	e8 67 fa ff ff       	call   1ac0 <http_header_receive>
    2059:	83 c4 10             	add    $0x10,%esp
    205c:	85 c0                	test   %eax,%eax
    205e:	0f 85 d4 00 00 00    	jne    2138 <http_headers_receive+0x168>
    2064:	8b 45 e4             	mov    -0x1c(%ebp),%eax
    2067:	89 5f 04             	mov    %ebx,0x4(%edi)
    206a:	29 c6                	sub    %eax,%esi
    206c:	8b 03                	mov    (%ebx),%eax
    206e:	89 07                	mov    %eax,(%edi)
    2070:	89 78 04             	mov    %edi,0x4(%eax)
    2073:	8b 45 d4             	mov    -0x2c(%ebp),%eax
    2076:	40                   	inc    %eax
    2077:	89 3b                	mov    %edi,(%ebx)
    2079:	89 45 d4             	mov    %eax,-0x2c(%ebp)
    207c:	50                   	push   %eax
    207d:	8d 45 e3             	lea    -0x1d(%ebp),%eax
    2080:	6a 00                	push   $0x0
    2082:	50                   	push   %eax
    2083:	8b 45 08             	mov    0x8(%ebp),%eax
    2086:	c6 45 e3 00          	movb   $0x0,-0x1d(%ebp)
    208a:	50                   	push   %eax
    208b:	e8 40 0c 00 00       	call   2cd0 <recv_char>
    2090:	83 c4 10             	add    $0x10,%esp
    2093:	85 c0                	test   %eax,%eax
    2095:	0f 84 55 ff ff ff    	je     1ff0 <http_headers_receive+0x20>
    209b:	8b 4d d4             	mov    -0x2c(%ebp),%ecx
    209e:	85 c9                	test   %ecx,%ecx
    20a0:	8d 71 ff             	lea    -0x1(%ecx),%esi
    20a3:	74 66                	je     210b <http_headers_receive+0x13b>
    20a5:	89 45 d4             	mov    %eax,-0x2c(%ebp)
    20a8:	eb 4e                	jmp    20f8 <http_headers_receive+0x128>
    20aa:	8d b6 00 00 00 00    	lea    0x0(%esi),%esi
    20b0:	8b 0f                	mov    (%edi),%ecx
    20b2:	85 c9                	test   %ecx,%ecx
    20b4:	74 0e                	je     20c4 <http_headers_receive+0xf4>
    20b6:	8b 57 04             	mov    0x4(%edi),%edx
    20b9:	85 d2                	test   %edx,%edx
    20bb:	74 07                	je     20c4 <http_headers_receive+0xf4>
    20bd:	89 0a                	mov    %ecx,(%edx)
    20bf:	8b 0f                	mov    (%edi),%ecx
    20c1:	89 51 04             	mov    %edx,0x4(%ecx)
    20c4:	83 ec 0c             	sub    $0xc,%esp
    20c7:	8b 47 08             	mov    0x8(%edi),%eax
    20ca:	c7 07 00 00 00 00    	movl   $0x0,(%edi)
    20d0:	c7 47 04 00 00 00 00 	movl   $0x0,0x4(%edi)
    20d7:	50                   	push   %eax
    20d8:	e8 23 24 00 00       	call   4500 <free@plt>
    20dd:	8b 4f 0c             	mov    0xc(%edi),%ecx
    20e0:	5a                   	pop    %edx
    20e1:	4e                   	dec    %esi
    20e2:	51                   	push   %ecx
    20e3:	e8 18 24 00 00       	call   4500 <free@plt>
    20e8:	89 3c 24             	mov    %edi,(%esp)
    20eb:	e8 10 24 00 00       	call   4500 <free@plt>
    20f0:	83 c4 10             	add    $0x10,%esp
    20f3:	83 fe ff             	cmp    $0xffffffff,%esi
    20f6:	74 10                	je     2108 <http_headers_receive+0x138>
    20f8:	8b 3b                	mov    (%ebx),%edi
    20fa:	39 df                	cmp    %ebx,%edi
    20fc:	75 b2                	jne    20b0 <http_headers_receive+0xe0>
    20fe:	a1 00 00 00 00       	mov    0x0,%eax
    2103:	0f 0b                	ud2    
    2105:	8d 76 00             	lea    0x0(%esi),%esi
    2108:	8b 45 d4             	mov    -0x2c(%ebp),%eax
    210b:	8d 65 f4             	lea    -0xc(%ebp),%esp
    210e:	5b                   	pop    %ebx
    210f:	5e                   	pop    %esi
    2110:	5f                   	pop    %edi
    2111:	5d                   	pop    %ebp
    2112:	c3                   	ret    
    2113:	90                   	nop
    2114:	8d 74 26 00          	lea    0x0(%esi,%eiz,1),%esi
    2118:	b8 fd ff ff ff       	mov    $0xfffffffd,%eax
    211d:	e9 79 ff ff ff       	jmp    209b <http_headers_receive+0xcb>
    2122:	8d b6 00 00 00 00    	lea    0x0(%esi),%esi
    2128:	b8 fe ff ff ff       	mov    $0xfffffffe,%eax
    212d:	e9 69 ff ff ff       	jmp    209b <http_headers_receive+0xcb>
    2132:	8d b6 00 00 00 00    	lea    0x0(%esi),%esi
    2138:	83 ec 0c             	sub    $0xc,%esp
    213b:	89 45 d0             	mov    %eax,-0x30(%ebp)
    213e:	57                   	push   %edi
    213f:	e8 bc 23 00 00       	call   4500 <free@plt>
    2144:	83 c4 10             	add    $0x10,%esp
    2147:	8b 45 d0             	mov    -0x30(%ebp),%eax
    214a:	e9 4c ff ff ff       	jmp    209b <http_headers_receive+0xcb>
    214f:	90                   	nop

00002150 <http_headers_clear>:
    2150:	55                   	push   %ebp
    2151:	89 e5                	mov    %esp,%ebp
    2153:	57                   	push   %edi
    2154:	56                   	push   %esi
    2155:	53                   	push   %ebx
    2156:	83 ec 0c             	sub    $0xc,%esp
    2159:	8b 7d 08             	mov    0x8(%ebp),%edi
    215c:	8b 5f 04             	mov    0x4(%edi),%ebx
    215f:	39 df                	cmp    %ebx,%edi
    2161:	75 48                	jne    21ab <http_headers_clear+0x5b>
    2163:	eb 5b                	jmp    21c0 <http_headers_clear+0x70>
    2165:	8d 76 00             	lea    0x0(%esi),%esi
    2168:	89 c6                	mov    %eax,%esi
    216a:	8b 13                	mov    (%ebx),%edx
    216c:	85 c0                	test   %eax,%eax
    216e:	74 0b                	je     217b <http_headers_clear+0x2b>
    2170:	85 d2                	test   %edx,%edx
    2172:	74 07                	je     217b <http_headers_clear+0x2b>
    2174:	89 10                	mov    %edx,(%eax)
    2176:	8b 13                	mov    (%ebx),%edx
    2178:	89 42 04             	mov    %eax,0x4(%edx)
    217b:	83 ec 0c             	sub    $0xc,%esp
    217e:	8b 43 08             	mov    0x8(%ebx),%eax
    2181:	c7 03 00 00 00 00    	movl   $0x0,(%ebx)
    2187:	c7 43 04 00 00 00 00 	movl   $0x0,0x4(%ebx)
    218e:	50                   	push   %eax
    218f:	e8 6c 23 00 00       	call   4500 <free@plt>
    2194:	8b 4b 0c             	mov    0xc(%ebx),%ecx
    2197:	5a                   	pop    %edx
    2198:	51                   	push   %ecx
    2199:	e8 62 23 00 00       	call   4500 <free@plt>
    219e:	89 1c 24             	mov    %ebx,(%esp)
    21a1:	e8 5a 23 00 00       	call   4500 <free@plt>
    21a6:	89 f3                	mov    %esi,%ebx
    21a8:	83 c4 10             	add    $0x10,%esp
    21ab:	85 db                	test   %ebx,%ebx
    21ad:	74 11                	je     21c0 <http_headers_clear+0x70>
    21af:	8b 43 04             	mov    0x4(%ebx),%eax
    21b2:	39 c7                	cmp    %eax,%edi
    21b4:	75 b2                	jne    2168 <http_headers_clear+0x18>
    21b6:	31 f6                	xor    %esi,%esi
    21b8:	eb b0                	jmp    216a <http_headers_clear+0x1a>
    21ba:	8d b6 00 00 00 00    	lea    0x0(%esi),%esi
    21c0:	8d 65 f4             	lea    -0xc(%ebp),%esp
    21c3:	5b                   	pop    %ebx
    21c4:	5e                   	pop    %esi
    21c5:	5f                   	pop    %edi
    21c6:	5d                   	pop    %ebp
    21c7:	c3                   	ret    
    21c8:	66 90                	xchg   %ax,%ax
    21ca:	66 90                	xchg   %ax,%ax
    21cc:	66 90                	xchg   %ax,%ax
    21ce:	66 90                	xchg   %ax,%ax

000021d0 <http_request_create>:
    21d0:	55                   	push   %ebp
    21d1:	89 e5                	mov    %esp,%ebp
    21d3:	53                   	push   %ebx
    21d4:	83 ec 10             	sub    $0x10,%esp
    21d7:	6a 10                	push   $0x10
    21d9:	e8 a2 21 00 00       	call   4380 <malloc@plt>
    21de:	83 c4 10             	add    $0x10,%esp
    21e1:	89 c3                	mov    %eax,%ebx
    21e3:	85 c0                	test   %eax,%eax
    21e5:	74 3a                	je     2221 <http_request_create+0x51>
    21e7:	83 ec 0c             	sub    $0xc,%esp
    21ea:	8b 4d 08             	mov    0x8(%ebp),%ecx
    21ed:	51                   	push   %ecx
    21ee:	e8 0d 22 00 00       	call   4400 <str_dup@plt>
    21f3:	83 c4 10             	add    $0x10,%esp
    21f6:	89 03                	mov    %eax,(%ebx)
    21f8:	85 c0                	test   %eax,%eax
    21fa:	74 2c                	je     2228 <http_request_create+0x58>
    21fc:	83 ec 0c             	sub    $0xc,%esp
    21ff:	8b 55 0c             	mov    0xc(%ebp),%edx
    2202:	52                   	push   %edx
    2203:	e8 f8 21 00 00       	call   4400 <str_dup@plt>
    2208:	83 c4 10             	add    $0x10,%esp
    220b:	89 43 04             	mov    %eax,0x4(%ebx)
    220e:	85 c0                	test   %eax,%eax
    2210:	74 26                	je     2238 <http_request_create+0x68>
    2212:	83 ec 0c             	sub    $0xc,%esp
    2215:	8d 43 08             	lea    0x8(%ebx),%eax
    2218:	50                   	push   %eax
    2219:	e8 c2 fa ff ff       	call   1ce0 <http_headers_init>
    221e:	83 c4 10             	add    $0x10,%esp
    2221:	89 d8                	mov    %ebx,%eax
    2223:	8b 5d fc             	mov    -0x4(%ebp),%ebx
    2226:	c9                   	leave  
    2227:	c3                   	ret    
    2228:	83 ec 0c             	sub    $0xc,%esp
    222b:	53                   	push   %ebx
    222c:	31 db                	xor    %ebx,%ebx
    222e:	e8 cd 22 00 00       	call   4500 <free@plt>
    2233:	83 c4 10             	add    $0x10,%esp
    2236:	eb e9                	jmp    2221 <http_request_create+0x51>
    2238:	83 ec 0c             	sub    $0xc,%esp
    223b:	8b 03                	mov    (%ebx),%eax
    223d:	50                   	push   %eax
    223e:	e8 bd 22 00 00       	call   4500 <free@plt>
    2243:	89 1c 24             	mov    %ebx,(%esp)
    2246:	e8 b5 22 00 00       	call   4500 <free@plt>
    224b:	31 db                	xor    %ebx,%ebx
    224d:	83 c4 10             	add    $0x10,%esp
    2250:	eb cf                	jmp    2221 <http_request_create+0x51>
    2252:	8d b4 26 00 00 00 00 	lea    0x0(%esi,%eiz,1),%esi
    2259:	8d bc 27 00 00 00 00 	lea    0x0(%edi,%eiz,1),%edi

00002260 <http_request_destroy>:
    2260:	55                   	push   %ebp
    2261:	89 e5                	mov    %esp,%ebp
    2263:	53                   	push   %ebx
    2264:	83 ec 10             	sub    $0x10,%esp
    2267:	8b 5d 08             	mov    0x8(%ebp),%ebx
    226a:	8b 03                	mov    (%ebx),%eax
    226c:	50                   	push   %eax
    226d:	e8 8e 22 00 00       	call   4500 <free@plt>
    2272:	8b 4b 04             	mov    0x4(%ebx),%ecx
    2275:	5a                   	pop    %edx
    2276:	51                   	push   %ecx
    2277:	e8 84 22 00 00       	call   4500 <free@plt>
    227c:	8d 43 08             	lea    0x8(%ebx),%eax
    227f:	89 04 24             	mov    %eax,(%esp)
    2282:	e8 c9 fe ff ff       	call   2150 <http_headers_clear>
    2287:	89 5d 08             	mov    %ebx,0x8(%ebp)
    228a:	83 c4 10             	add    $0x10,%esp
    228d:	8b 5d fc             	mov    -0x4(%ebp),%ebx
    2290:	c9                   	leave  
    2291:	e9 6a 22 00 00       	jmp    4500 <free@plt>
    2296:	8d 76 00             	lea    0x0(%esi),%esi
    2299:	8d bc 27 00 00 00 00 	lea    0x0(%edi,%eiz,1),%edi

000022a0 <http_request_format>:
    22a0:	55                   	push   %ebp
    22a1:	89 e5                	mov    %esp,%ebp
    22a3:	57                   	push   %edi
    22a4:	56                   	push   %esi
    22a5:	53                   	push   %ebx
    22a6:	83 ec 20             	sub    $0x20,%esp
    22a9:	8b 45 08             	mov    0x8(%ebp),%eax
    22ac:	8b 58 04             	mov    0x4(%eax),%ebx
    22af:	53                   	push   %ebx
    22b0:	8b 30                	mov    (%eax),%esi
    22b2:	56                   	push   %esi
    22b3:	68 44 41 00 00       	push   $0x4144
    22b8:	e8 a3 21 00 00       	call   4460 <printf_size@plt>
    22bd:	83 c4 10             	add    $0x10,%esp
    22c0:	85 c0                	test   %eax,%eax
    22c2:	78 2f                	js     22f3 <http_request_format+0x53>
    22c4:	89 c7                	mov    %eax,%edi
    22c6:	8b 45 08             	mov    0x8(%ebp),%eax
    22c9:	8b 70 0c             	mov    0xc(%eax),%esi
    22cc:	8d 58 08             	lea    0x8(%eax),%ebx
    22cf:	39 de                	cmp    %ebx,%esi
    22d1:	75 0e                	jne    22e1 <http_request_format+0x41>
    22d3:	eb 2b                	jmp    2300 <http_request_format+0x60>
    22d5:	8d 76 00             	lea    0x0(%esi),%esi
    22d8:	8b 76 04             	mov    0x4(%esi),%esi
    22db:	01 c7                	add    %eax,%edi
    22dd:	39 de                	cmp    %ebx,%esi
    22df:	74 1f                	je     2300 <http_request_format+0x60>
    22e1:	51                   	push   %ecx
    22e2:	6a 00                	push   $0x0
    22e4:	6a 00                	push   $0x0
    22e6:	56                   	push   %esi
    22e7:	e8 a4 f5 ff ff       	call   1890 <http_header_encode>
    22ec:	83 c4 10             	add    $0x10,%esp
    22ef:	85 c0                	test   %eax,%eax
    22f1:	79 e5                	jns    22d8 <http_request_format+0x38>
    22f3:	8d 65 f4             	lea    -0xc(%ebp),%esp
    22f6:	5b                   	pop    %ebx
    22f7:	5e                   	pop    %esi
    22f8:	5f                   	pop    %edi
    22f9:	5d                   	pop    %ebp
    22fa:	c3                   	ret    
    22fb:	90                   	nop
    22fc:	8d 74 26 00          	lea    0x0(%esi,%eiz,1),%esi
    2300:	83 ec 0c             	sub    $0xc,%esp
    2303:	68 52 41 00 00       	push   $0x4152
    2308:	e8 73 21 00 00       	call   4480 <str_length@plt>
    230d:	01 f8                	add    %edi,%eax
    230f:	89 04 24             	mov    %eax,(%esp)
    2312:	89 c7                	mov    %eax,%edi
    2314:	89 45 dc             	mov    %eax,-0x24(%ebp)
    2317:	e8 64 20 00 00       	call   4380 <malloc@plt>
    231c:	83 c4 10             	add    $0x10,%esp
    231f:	89 45 e0             	mov    %eax,-0x20(%ebp)
    2322:	85 c0                	test   %eax,%eax
    2324:	0f 84 be 00 00 00    	je     23e8 <http_request_format+0x148>
    232a:	8b 4d 08             	mov    0x8(%ebp),%ecx
    232d:	83 ec 0c             	sub    $0xc,%esp
    2330:	8b 71 04             	mov    0x4(%ecx),%esi
    2333:	56                   	push   %esi
    2334:	8b 11                	mov    (%ecx),%edx
    2336:	52                   	push   %edx
    2337:	68 44 41 00 00       	push   $0x4144
    233c:	57                   	push   %edi
    233d:	50                   	push   %eax
    233e:	e8 fd 1f 00 00       	call   4340 <snprintf@plt>
    2343:	83 c4 20             	add    $0x20,%esp
    2346:	85 c0                	test   %eax,%eax
    2348:	78 42                	js     238c <http_request_format+0xec>
    234a:	8b 4d e0             	mov    -0x20(%ebp),%ecx
    234d:	8b 55 dc             	mov    -0x24(%ebp),%edx
    2350:	29 c2                	sub    %eax,%edx
    2352:	8d 3c 01             	lea    (%ecx,%eax,1),%edi
    2355:	8b 45 08             	mov    0x8(%ebp),%eax
    2358:	89 55 e4             	mov    %edx,-0x1c(%ebp)
    235b:	8b 70 0c             	mov    0xc(%eax),%esi
    235e:	39 de                	cmp    %ebx,%esi
    2360:	74 49                	je     23ab <http_request_format+0x10b>
    2362:	89 f8                	mov    %edi,%eax
    2364:	89 5d e4             	mov    %ebx,-0x1c(%ebp)
    2367:	89 f7                	mov    %esi,%edi
    2369:	89 d3                	mov    %edx,%ebx
    236b:	89 c6                	mov    %eax,%esi
    236d:	eb 0d                	jmp    237c <http_request_format+0xdc>
    236f:	90                   	nop
    2370:	8b 7f 04             	mov    0x4(%edi),%edi
    2373:	01 c6                	add    %eax,%esi
    2375:	29 c3                	sub    %eax,%ebx
    2377:	3b 7d e4             	cmp    -0x1c(%ebp),%edi
    237a:	74 2a                	je     23a6 <http_request_format+0x106>
    237c:	51                   	push   %ecx
    237d:	53                   	push   %ebx
    237e:	56                   	push   %esi
    237f:	57                   	push   %edi
    2380:	e8 0b f5 ff ff       	call   1890 <http_header_encode>
    2385:	83 c4 10             	add    $0x10,%esp
    2388:	85 c0                	test   %eax,%eax
    238a:	79 e4                	jns    2370 <http_request_format+0xd0>
    238c:	83 ec 0c             	sub    $0xc,%esp
    238f:	8b 55 e0             	mov    -0x20(%ebp),%edx
    2392:	89 45 e4             	mov    %eax,-0x1c(%ebp)
    2395:	52                   	push   %edx
    2396:	e8 65 21 00 00       	call   4500 <free@plt>
    239b:	83 c4 10             	add    $0x10,%esp
    239e:	8b 45 e4             	mov    -0x1c(%ebp),%eax
    23a1:	e9 4d ff ff ff       	jmp    22f3 <http_request_format+0x53>
    23a6:	89 f7                	mov    %esi,%edi
    23a8:	89 5d e4             	mov    %ebx,-0x1c(%ebp)
    23ab:	83 ec 0c             	sub    $0xc,%esp
    23ae:	68 52 41 00 00       	push   $0x4152
    23b3:	e8 b8 20 00 00       	call   4470 <str_size@plt>
    23b8:	83 c4 0c             	add    $0xc,%esp
    23bb:	89 c3                	mov    %eax,%ebx
    23bd:	50                   	push   %eax
    23be:	68 52 41 00 00       	push   $0x4152
    23c3:	57                   	push   %edi
    23c4:	e8 97 1f 00 00       	call   4360 <memcpy@plt>
    23c9:	83 c4 10             	add    $0x10,%esp
    23cc:	3b 5d e4             	cmp    -0x1c(%ebp),%ebx
    23cf:	75 21                	jne    23f2 <http_request_format+0x152>
    23d1:	8b 45 0c             	mov    0xc(%ebp),%eax
    23d4:	8b 4d e0             	mov    -0x20(%ebp),%ecx
    23d7:	89 08                	mov    %ecx,(%eax)
    23d9:	8b 45 10             	mov    0x10(%ebp),%eax
    23dc:	8b 4d dc             	mov    -0x24(%ebp),%ecx
    23df:	89 08                	mov    %ecx,(%eax)
    23e1:	31 c0                	xor    %eax,%eax
    23e3:	e9 0b ff ff ff       	jmp    22f3 <http_request_format+0x53>
    23e8:	b8 fe ff ff ff       	mov    $0xfffffffe,%eax
    23ed:	e9 01 ff ff ff       	jmp    22f3 <http_request_format+0x53>
    23f2:	50                   	push   %eax
    23f3:	68 88 00 00 00       	push   $0x88
    23f8:	68 55 41 00 00       	push   $0x4155
    23fd:	68 63 41 00 00       	push   $0x4163
    2402:	e8 a9 1f 00 00       	call   43b0 <assert_abort@plt>
    2407:	89 f6                	mov    %esi,%esi
    2409:	8d bc 27 00 00 00 00 	lea    0x0(%edi,%eiz,1),%edi

00002410 <http_send_request>:
    2410:	55                   	push   %ebp
    2411:	89 e5                	mov    %esp,%ebp
    2413:	83 ec 2c             	sub    $0x2c,%esp
    2416:	8d 45 f4             	lea    -0xc(%ebp),%eax
    2419:	50                   	push   %eax
    241a:	8d 45 f0             	lea    -0x10(%ebp),%eax
    241d:	50                   	push   %eax
    241e:	8b 45 0c             	mov    0xc(%ebp),%eax
    2421:	50                   	push   %eax
    2422:	e8 79 fe ff ff       	call   22a0 <http_request_format>
    2427:	83 c4 10             	add    $0x10,%esp
    242a:	85 c0                	test   %eax,%eax
    242c:	74 02                	je     2430 <http_send_request+0x20>
    242e:	c9                   	leave  
    242f:	c3                   	ret    
    2430:	50                   	push   %eax
    2431:	8b 45 08             	mov    0x8(%ebp),%eax
    2434:	8b 55 f4             	mov    -0xc(%ebp),%edx
    2437:	8b 4d f0             	mov    -0x10(%ebp),%ecx
    243a:	8b 40 20             	mov    0x20(%eax),%eax
    243d:	52                   	push   %edx
    243e:	51                   	push   %ecx
    243f:	50                   	push   %eax
    2440:	e8 2b 1f 00 00       	call   4370 <tcp_conn_send@plt>
    2445:	89 45 e4             	mov    %eax,-0x1c(%ebp)
    2448:	58                   	pop    %eax
    2449:	8b 45 f0             	mov    -0x10(%ebp),%eax
    244c:	50                   	push   %eax
    244d:	e8 ae 20 00 00       	call   4500 <free@plt>
    2452:	8b 45 e4             	mov    -0x1c(%ebp),%eax
    2455:	83 c4 10             	add    $0x10,%esp
    2458:	c9                   	leave  
    2459:	c3                   	ret    
    245a:	66 90                	xchg   %ax,%ax
    245c:	66 90                	xchg   %ax,%ax
    245e:	66 90                	xchg   %ax,%ax

00002460 <is_digit>:
    2460:	55                   	push   %ebp
    2461:	89 e5                	mov    %esp,%ebp
    2463:	8a 45 08             	mov    0x8(%ebp),%al
    2466:	5d                   	pop    %ebp
    2467:	83 e8 30             	sub    $0x30,%eax
    246a:	3c 09                	cmp    $0x9,%al
    246c:	0f 96 c0             	setbe  %al
    246f:	c3                   	ret    

00002470 <is_not_newline>:
    2470:	55                   	push   %ebp
    2471:	89 e5                	mov    %esp,%ebp
    2473:	8b 55 08             	mov    0x8(%ebp),%edx
    2476:	5d                   	pop    %ebp
    2477:	80 fa 0a             	cmp    $0xa,%dl
    247a:	0f 95 c0             	setne  %al
    247d:	80 fa 0d             	cmp    $0xd,%dl
    2480:	0f 95 c2             	setne  %dl
    2483:	21 d0                	and    %edx,%eax
    2485:	c3                   	ret    
    2486:	8d 76 00             	lea    0x0(%esi),%esi
    2489:	8d bc 27 00 00 00 00 	lea    0x0(%edi,%eiz,1),%edi

00002490 <http_receive_status>:
    2490:	55                   	push   %ebp
    2491:	89 e5                	mov    %esp,%ebp
    2493:	57                   	push   %edi
    2494:	56                   	push   %esi
    2495:	53                   	push   %ebx
    2496:	83 ec 44             	sub    $0x44,%esp
    2499:	c7 45 c8 00 00 00 00 	movl   $0x0,-0x38(%ebp)
    24a0:	8b 5d 08             	mov    0x8(%ebp),%ebx
    24a3:	68 71 41 00 00       	push   $0x4171
    24a8:	53                   	push   %ebx
    24a9:	e8 c2 09 00 00       	call   2e70 <recv_discard_str>
    24ae:	83 c4 10             	add    $0x10,%esp
    24b1:	89 c7                	mov    %eax,%edi
    24b3:	85 c0                	test   %eax,%eax
    24b5:	78 7f                	js     2536 <http_receive_status+0xa6>
    24b7:	83 ec 0c             	sub    $0xc,%esp
    24ba:	68 71 41 00 00       	push   $0x4171
    24bf:	e8 bc 1f 00 00       	call   4480 <str_length@plt>
    24c4:	83 c4 10             	add    $0x10,%esp
    24c7:	39 f8                	cmp    %edi,%eax
    24c9:	0f 87 29 03 00 00    	ja     27f8 <http_receive_status+0x368>
    24cf:	8d 75 d0             	lea    -0x30(%ebp),%esi
    24d2:	c7 45 cc 00 00 00 00 	movl   $0x0,-0x34(%ebp)
    24d9:	50                   	push   %eax
    24da:	50                   	push   %eax
    24db:	56                   	push   %esi
    24dc:	53                   	push   %ebx
    24dd:	e8 4e 06 00 00       	call   2b30 <recv_mark>
    24e2:	58                   	pop    %eax
    24e3:	5a                   	pop    %edx
    24e4:	68 60 24 00 00       	push   $0x2460
    24e9:	53                   	push   %ebx
    24ea:	e8 01 0a 00 00       	call   2ef0 <recv_while>
    24ef:	83 c4 10             	add    $0x10,%esp
    24f2:	89 c7                	mov    %eax,%edi
    24f4:	85 c0                	test   %eax,%eax
    24f6:	0f 88 e4 02 00 00    	js     27e0 <http_receive_status+0x350>
    24fc:	50                   	push   %eax
    24fd:	50                   	push   %eax
    24fe:	8d 45 dc             	lea    -0x24(%ebp),%eax
    2501:	50                   	push   %eax
    2502:	53                   	push   %ebx
    2503:	e8 28 06 00 00       	call   2b30 <recv_mark>
    2508:	8d 45 cc             	lea    -0x34(%ebp),%eax
    250b:	50                   	push   %eax
    250c:	8d 45 dc             	lea    -0x24(%ebp),%eax
    250f:	50                   	push   %eax
    2510:	56                   	push   %esi
    2511:	53                   	push   %ebx
    2512:	e8 09 07 00 00       	call   2c20 <recv_cut_str>
    2517:	83 c4 18             	add    $0x18,%esp
    251a:	89 c7                	mov    %eax,%edi
    251c:	56                   	push   %esi
    251d:	53                   	push   %ebx
    251e:	e8 3d 06 00 00       	call   2b60 <recv_unmark>
    2523:	58                   	pop    %eax
    2524:	8d 45 dc             	lea    -0x24(%ebp),%eax
    2527:	5a                   	pop    %edx
    2528:	50                   	push   %eax
    2529:	53                   	push   %ebx
    252a:	e8 31 06 00 00       	call   2b60 <recv_unmark>
    252f:	83 c4 10             	add    $0x10,%esp
    2532:	85 ff                	test   %edi,%edi
    2534:	74 0a                	je     2540 <http_receive_status+0xb0>
    2536:	8d 65 f4             	lea    -0xc(%ebp),%esp
    2539:	89 f8                	mov    %edi,%eax
    253b:	5b                   	pop    %ebx
    253c:	5e                   	pop    %esi
    253d:	5f                   	pop    %edi
    253e:	5d                   	pop    %ebp
    253f:	c3                   	ret    
    2540:	83 ec 0c             	sub    $0xc,%esp
    2543:	8b 7d cc             	mov    -0x34(%ebp),%edi
    2546:	8d 45 c7             	lea    -0x39(%ebp),%eax
    2549:	50                   	push   %eax
    254a:	6a 01                	push   $0x1
    254c:	6a 0a                	push   $0xa
    254e:	6a 00                	push   $0x0
    2550:	57                   	push   %edi
    2551:	e8 9a 1e 00 00       	call   43f0 <str_uint8_t@plt>
    2556:	83 c4 14             	add    $0x14,%esp
    2559:	89 c7                	mov    %eax,%edi
    255b:	8b 45 cc             	mov    -0x34(%ebp),%eax
    255e:	50                   	push   %eax
    255f:	e8 9c 1f 00 00       	call   4500 <free@plt>
    2564:	83 c4 10             	add    $0x10,%esp
    2567:	85 ff                	test   %edi,%edi
    2569:	75 cb                	jne    2536 <http_receive_status+0xa6>
    256b:	51                   	push   %ecx
    256c:	51                   	push   %ecx
    256d:	68 77 41 00 00       	push   $0x4177
    2572:	53                   	push   %ebx
    2573:	e8 f8 08 00 00       	call   2e70 <recv_discard_str>
    2578:	83 c4 10             	add    $0x10,%esp
    257b:	89 c7                	mov    %eax,%edi
    257d:	85 c0                	test   %eax,%eax
    257f:	78 b5                	js     2536 <http_receive_status+0xa6>
    2581:	83 ec 0c             	sub    $0xc,%esp
    2584:	68 77 41 00 00       	push   $0x4177
    2589:	e8 f2 1e 00 00       	call   4480 <str_length@plt>
    258e:	83 c4 10             	add    $0x10,%esp
    2591:	39 f8                	cmp    %edi,%eax
    2593:	0f 87 5f 02 00 00    	ja     27f8 <http_receive_status+0x368>
    2599:	c7 45 cc 00 00 00 00 	movl   $0x0,-0x34(%ebp)
    25a0:	51                   	push   %ecx
    25a1:	51                   	push   %ecx
    25a2:	56                   	push   %esi
    25a3:	53                   	push   %ebx
    25a4:	e8 87 05 00 00       	call   2b30 <recv_mark>
    25a9:	5f                   	pop    %edi
    25aa:	58                   	pop    %eax
    25ab:	68 60 24 00 00       	push   $0x2460
    25b0:	53                   	push   %ebx
    25b1:	e8 3a 09 00 00       	call   2ef0 <recv_while>
    25b6:	83 c4 10             	add    $0x10,%esp
    25b9:	89 c7                	mov    %eax,%edi
    25bb:	85 c0                	test   %eax,%eax
    25bd:	0f 88 1d 02 00 00    	js     27e0 <http_receive_status+0x350>
    25c3:	50                   	push   %eax
    25c4:	50                   	push   %eax
    25c5:	8d 45 dc             	lea    -0x24(%ebp),%eax
    25c8:	50                   	push   %eax
    25c9:	53                   	push   %ebx
    25ca:	e8 61 05 00 00       	call   2b30 <recv_mark>
    25cf:	8d 45 cc             	lea    -0x34(%ebp),%eax
    25d2:	50                   	push   %eax
    25d3:	8d 45 dc             	lea    -0x24(%ebp),%eax
    25d6:	50                   	push   %eax
    25d7:	56                   	push   %esi
    25d8:	53                   	push   %ebx
    25d9:	e8 42 06 00 00       	call   2c20 <recv_cut_str>
    25de:	83 c4 18             	add    $0x18,%esp
    25e1:	89 c7                	mov    %eax,%edi
    25e3:	56                   	push   %esi
    25e4:	53                   	push   %ebx
    25e5:	e8 76 05 00 00       	call   2b60 <recv_unmark>
    25ea:	58                   	pop    %eax
    25eb:	8d 45 dc             	lea    -0x24(%ebp),%eax
    25ee:	5a                   	pop    %edx
    25ef:	50                   	push   %eax
    25f0:	53                   	push   %ebx
    25f1:	e8 6a 05 00 00       	call   2b60 <recv_unmark>
    25f6:	83 c4 10             	add    $0x10,%esp
    25f9:	85 ff                	test   %edi,%edi
    25fb:	0f 85 35 ff ff ff    	jne    2536 <http_receive_status+0xa6>
    2601:	83 ec 0c             	sub    $0xc,%esp
    2604:	8b 7d cc             	mov    -0x34(%ebp),%edi
    2607:	8d 45 c6             	lea    -0x3a(%ebp),%eax
    260a:	50                   	push   %eax
    260b:	6a 01                	push   $0x1
    260d:	6a 0a                	push   $0xa
    260f:	6a 00                	push   $0x0
    2611:	57                   	push   %edi
    2612:	e8 d9 1d 00 00       	call   43f0 <str_uint8_t@plt>
    2617:	83 c4 14             	add    $0x14,%esp
    261a:	89 c7                	mov    %eax,%edi
    261c:	8b 45 cc             	mov    -0x34(%ebp),%eax
    261f:	50                   	push   %eax
    2620:	e8 db 1e 00 00       	call   4500 <free@plt>
    2625:	83 c4 10             	add    $0x10,%esp
    2628:	85 ff                	test   %edi,%edi
    262a:	0f 85 06 ff ff ff    	jne    2536 <http_receive_status+0xa6>
    2630:	51                   	push   %ecx
    2631:	51                   	push   %ecx
    2632:	68 79 41 00 00       	push   $0x4179
    2637:	53                   	push   %ebx
    2638:	e8 33 08 00 00       	call   2e70 <recv_discard_str>
    263d:	83 c4 10             	add    $0x10,%esp
    2640:	89 c7                	mov    %eax,%edi
    2642:	85 c0                	test   %eax,%eax
    2644:	0f 88 ec fe ff ff    	js     2536 <http_receive_status+0xa6>
    264a:	83 ec 0c             	sub    $0xc,%esp
    264d:	68 79 41 00 00       	push   $0x4179
    2652:	e8 29 1e 00 00       	call   4480 <str_length@plt>
    2657:	83 c4 10             	add    $0x10,%esp
    265a:	39 f8                	cmp    %edi,%eax
    265c:	0f 87 96 01 00 00    	ja     27f8 <http_receive_status+0x368>
    2662:	c7 45 cc 00 00 00 00 	movl   $0x0,-0x34(%ebp)
    2669:	57                   	push   %edi
    266a:	57                   	push   %edi
    266b:	56                   	push   %esi
    266c:	53                   	push   %ebx
    266d:	e8 be 04 00 00       	call   2b30 <recv_mark>
    2672:	58                   	pop    %eax
    2673:	5a                   	pop    %edx
    2674:	68 60 24 00 00       	push   $0x2460
    2679:	53                   	push   %ebx
    267a:	e8 71 08 00 00       	call   2ef0 <recv_while>
    267f:	83 c4 10             	add    $0x10,%esp
    2682:	89 c7                	mov    %eax,%edi
    2684:	85 c0                	test   %eax,%eax
    2686:	0f 88 54 01 00 00    	js     27e0 <http_receive_status+0x350>
    268c:	50                   	push   %eax
    268d:	50                   	push   %eax
    268e:	8d 45 dc             	lea    -0x24(%ebp),%eax
    2691:	50                   	push   %eax
    2692:	53                   	push   %ebx
    2693:	e8 98 04 00 00       	call   2b30 <recv_mark>
    2698:	8d 45 cc             	lea    -0x34(%ebp),%eax
    269b:	50                   	push   %eax
    269c:	8d 45 dc             	lea    -0x24(%ebp),%eax
    269f:	50                   	push   %eax
    26a0:	56                   	push   %esi
    26a1:	53                   	push   %ebx
    26a2:	e8 79 05 00 00       	call   2c20 <recv_cut_str>
    26a7:	83 c4 18             	add    $0x18,%esp
    26aa:	89 c7                	mov    %eax,%edi
    26ac:	56                   	push   %esi
    26ad:	53                   	push   %ebx
    26ae:	e8 ad 04 00 00       	call   2b60 <recv_unmark>
    26b3:	58                   	pop    %eax
    26b4:	8d 45 dc             	lea    -0x24(%ebp),%eax
    26b7:	5a                   	pop    %edx
    26b8:	50                   	push   %eax
    26b9:	53                   	push   %ebx
    26ba:	e8 a1 04 00 00       	call   2b60 <recv_unmark>
    26bf:	83 c4 10             	add    $0x10,%esp
    26c2:	85 ff                	test   %edi,%edi
    26c4:	0f 85 6c fe ff ff    	jne    2536 <http_receive_status+0xa6>
    26ca:	83 ec 0c             	sub    $0xc,%esp
    26cd:	8d 45 c4             	lea    -0x3c(%ebp),%eax
    26d0:	50                   	push   %eax
    26d1:	8b 45 cc             	mov    -0x34(%ebp),%eax
    26d4:	6a 01                	push   $0x1
    26d6:	6a 0a                	push   $0xa
    26d8:	6a 00                	push   $0x0
    26da:	50                   	push   %eax
    26db:	e8 c0 1d 00 00       	call   44a0 <str_uint16_t@plt>
    26e0:	83 c4 14             	add    $0x14,%esp
    26e3:	89 c7                	mov    %eax,%edi
    26e5:	8b 45 cc             	mov    -0x34(%ebp),%eax
    26e8:	50                   	push   %eax
    26e9:	e8 12 1e 00 00       	call   4500 <free@plt>
    26ee:	83 c4 10             	add    $0x10,%esp
    26f1:	85 ff                	test   %edi,%edi
    26f3:	0f 85 3d fe ff ff    	jne    2536 <http_receive_status+0xa6>
    26f9:	50                   	push   %eax
    26fa:	50                   	push   %eax
    26fb:	68 79 41 00 00       	push   $0x4179
    2700:	53                   	push   %ebx
    2701:	e8 6a 07 00 00       	call   2e70 <recv_discard_str>
    2706:	83 c4 10             	add    $0x10,%esp
    2709:	89 c7                	mov    %eax,%edi
    270b:	85 c0                	test   %eax,%eax
    270d:	0f 88 23 fe ff ff    	js     2536 <http_receive_status+0xa6>
    2713:	83 ec 0c             	sub    $0xc,%esp
    2716:	68 79 41 00 00       	push   $0x4179
    271b:	e8 60 1d 00 00       	call   4480 <str_length@plt>
    2720:	83 c4 10             	add    $0x10,%esp
    2723:	39 f8                	cmp    %edi,%eax
    2725:	0f 87 cd 00 00 00    	ja     27f8 <http_receive_status+0x368>
    272b:	50                   	push   %eax
    272c:	50                   	push   %eax
    272d:	56                   	push   %esi
    272e:	53                   	push   %ebx
    272f:	e8 fc 03 00 00       	call   2b30 <recv_mark>
    2734:	5a                   	pop    %edx
    2735:	59                   	pop    %ecx
    2736:	68 70 24 00 00       	push   $0x2470
    273b:	53                   	push   %ebx
    273c:	e8 af 07 00 00       	call   2ef0 <recv_while>
    2741:	83 c4 10             	add    $0x10,%esp
    2744:	89 c7                	mov    %eax,%edi
    2746:	85 c0                	test   %eax,%eax
    2748:	0f 88 92 00 00 00    	js     27e0 <http_receive_status+0x350>
    274e:	8d 45 dc             	lea    -0x24(%ebp),%eax
    2751:	51                   	push   %ecx
    2752:	51                   	push   %ecx
    2753:	50                   	push   %eax
    2754:	53                   	push   %ebx
    2755:	e8 d6 03 00 00       	call   2b30 <recv_mark>
    275a:	8b 7d 14             	mov    0x14(%ebp),%edi
    275d:	83 c4 10             	add    $0x10,%esp
    2760:	85 ff                	test   %edi,%edi
    2762:	74 1c                	je     2780 <http_receive_status+0x2f0>
    2764:	8d 45 c8             	lea    -0x38(%ebp),%eax
    2767:	50                   	push   %eax
    2768:	8d 45 dc             	lea    -0x24(%ebp),%eax
    276b:	50                   	push   %eax
    276c:	56                   	push   %esi
    276d:	53                   	push   %ebx
    276e:	e8 ad 04 00 00       	call   2c20 <recv_cut_str>
    2773:	83 c4 10             	add    $0x10,%esp
    2776:	89 c7                	mov    %eax,%edi
    2778:	85 c0                	test   %eax,%eax
    277a:	0f 85 9a 00 00 00    	jne    281a <http_receive_status+0x38a>
    2780:	51                   	push   %ecx
    2781:	51                   	push   %ecx
    2782:	56                   	push   %esi
    2783:	53                   	push   %ebx
    2784:	e8 d7 03 00 00       	call   2b60 <recv_unmark>
    2789:	8d 45 dc             	lea    -0x24(%ebp),%eax
    278c:	5e                   	pop    %esi
    278d:	5f                   	pop    %edi
    278e:	50                   	push   %eax
    278f:	53                   	push   %ebx
    2790:	e8 cb 03 00 00       	call   2b60 <recv_unmark>
    2795:	89 1c 24             	mov    %ebx,(%esp)
    2798:	e8 c3 07 00 00       	call   2f60 <recv_eol>
    279d:	83 c4 10             	add    $0x10,%esp
    27a0:	89 c7                	mov    %eax,%edi
    27a2:	85 c0                	test   %eax,%eax
    27a4:	74 5c                	je     2802 <http_receive_status+0x372>
    27a6:	78 5f                	js     2807 <http_receive_status+0x377>
    27a8:	83 7d 0c 00          	cmpl   $0x0,0xc(%ebp)
    27ac:	74 0a                	je     27b8 <http_receive_status+0x328>
    27ae:	8b 55 0c             	mov    0xc(%ebp),%edx
    27b1:	66 8b 45 c6          	mov    -0x3a(%ebp),%ax
    27b5:	66 89 02             	mov    %ax,(%edx)
    27b8:	83 7d 10 00          	cmpl   $0x0,0x10(%ebp)
    27bc:	74 09                	je     27c7 <http_receive_status+0x337>
    27be:	8b 4d 10             	mov    0x10(%ebp),%ecx
    27c1:	8b 45 c4             	mov    -0x3c(%ebp),%eax
    27c4:	66 89 01             	mov    %ax,(%ecx)
    27c7:	83 7d 14 00          	cmpl   $0x0,0x14(%ebp)
    27cb:	74 6a                	je     2837 <http_receive_status+0x3a7>
    27cd:	8b 55 14             	mov    0x14(%ebp),%edx
    27d0:	8b 45 c8             	mov    -0x38(%ebp),%eax
    27d3:	31 ff                	xor    %edi,%edi
    27d5:	89 02                	mov    %eax,(%edx)
    27d7:	e9 5a fd ff ff       	jmp    2536 <http_receive_status+0xa6>
    27dc:	8d 74 26 00          	lea    0x0(%esi,%eiz,1),%esi
    27e0:	50                   	push   %eax
    27e1:	50                   	push   %eax
    27e2:	56                   	push   %esi
    27e3:	53                   	push   %ebx
    27e4:	e8 77 03 00 00       	call   2b60 <recv_unmark>
    27e9:	83 c4 10             	add    $0x10,%esp
    27ec:	e9 45 fd ff ff       	jmp    2536 <http_receive_status+0xa6>
    27f1:	8d b4 26 00 00 00 00 	lea    0x0(%esi,%eiz,1),%esi
    27f8:	bf dd b1 ff ff       	mov    $0xffffb1dd,%edi
    27fd:	e9 34 fd ff ff       	jmp    2536 <http_receive_status+0xa6>
    2802:	bf dd b1 ff ff       	mov    $0xffffb1dd,%edi
    2807:	83 ec 0c             	sub    $0xc,%esp
    280a:	ff 75 c8             	pushl  -0x38(%ebp)
    280d:	e8 ee 1c 00 00       	call   4500 <free@plt>
    2812:	83 c4 10             	add    $0x10,%esp
    2815:	e9 1c fd ff ff       	jmp    2536 <http_receive_status+0xa6>
    281a:	50                   	push   %eax
    281b:	50                   	push   %eax
    281c:	56                   	push   %esi
    281d:	53                   	push   %ebx
    281e:	e8 3d 03 00 00       	call   2b60 <recv_unmark>
    2823:	58                   	pop    %eax
    2824:	8d 45 dc             	lea    -0x24(%ebp),%eax
    2827:	5a                   	pop    %edx
    2828:	50                   	push   %eax
    2829:	53                   	push   %ebx
    282a:	e8 31 03 00 00       	call   2b60 <recv_unmark>
    282f:	83 c4 10             	add    $0x10,%esp
    2832:	e9 ff fc ff ff       	jmp    2536 <http_receive_status+0xa6>
    2837:	31 ff                	xor    %edi,%edi
    2839:	e9 f8 fc ff ff       	jmp    2536 <http_receive_status+0xa6>
    283e:	66 90                	xchg   %ax,%ax

00002840 <http_receive_response>:
    2840:	55                   	push   %ebp
    2841:	89 e5                	mov    %esp,%ebp
    2843:	57                   	push   %edi
    2844:	56                   	push   %esi
    2845:	53                   	push   %ebx
    2846:	83 ec 18             	sub    $0x18,%esp
    2849:	6a 10                	push   $0x10
    284b:	e8 30 1b 00 00       	call   4380 <malloc@plt>
    2850:	83 c4 10             	add    $0x10,%esp
    2853:	85 c0                	test   %eax,%eax
    2855:	0f 84 9d 00 00 00    	je     28f8 <http_receive_response+0xb8>
    285b:	89 c3                	mov    %eax,%ebx
    285d:	50                   	push   %eax
    285e:	6a 10                	push   $0x10
    2860:	6a 00                	push   $0x0
    2862:	8d 73 08             	lea    0x8(%ebx),%esi
    2865:	53                   	push   %ebx
    2866:	e8 d5 1b 00 00       	call   4440 <memset@plt>
    286b:	89 34 24             	mov    %esi,(%esp)
    286e:	e8 6d f4 ff ff       	call   1ce0 <http_headers_init>
    2873:	8d 43 04             	lea    0x4(%ebx),%eax
    2876:	50                   	push   %eax
    2877:	8d 43 02             	lea    0x2(%ebx),%eax
    287a:	50                   	push   %eax
    287b:	8b 45 08             	mov    0x8(%ebp),%eax
    287e:	53                   	push   %ebx
    287f:	50                   	push   %eax
    2880:	e8 0b fc ff ff       	call   2490 <http_receive_status>
    2885:	83 c4 20             	add    $0x20,%esp
    2888:	89 c7                	mov    %eax,%edi
    288a:	85 c0                	test   %eax,%eax
    288c:	74 2a                	je     28b8 <http_receive_response+0x78>
    288e:	83 ec 0c             	sub    $0xc,%esp
    2891:	8b 43 04             	mov    0x4(%ebx),%eax
    2894:	50                   	push   %eax
    2895:	e8 66 1c 00 00       	call   4500 <free@plt>
    289a:	89 34 24             	mov    %esi,(%esp)
    289d:	e8 ae f8 ff ff       	call   2150 <http_headers_clear>
    28a2:	89 1c 24             	mov    %ebx,(%esp)
    28a5:	e8 56 1c 00 00       	call   4500 <free@plt>
    28aa:	83 c4 10             	add    $0x10,%esp
    28ad:	8d 65 f4             	lea    -0xc(%ebp),%esp
    28b0:	89 f8                	mov    %edi,%eax
    28b2:	5b                   	pop    %ebx
    28b3:	5e                   	pop    %esi
    28b4:	5f                   	pop    %edi
    28b5:	5d                   	pop    %ebp
    28b6:	c3                   	ret    
    28b7:	90                   	nop
    28b8:	8b 7d 10             	mov    0x10(%ebp),%edi
    28bb:	8b 4d 14             	mov    0x14(%ebp),%ecx
    28be:	8b 45 08             	mov    0x8(%ebp),%eax
    28c1:	51                   	push   %ecx
    28c2:	57                   	push   %edi
    28c3:	56                   	push   %esi
    28c4:	50                   	push   %eax
    28c5:	e8 06 f7 ff ff       	call   1fd0 <http_headers_receive>
    28ca:	83 c4 10             	add    $0x10,%esp
    28cd:	89 c7                	mov    %eax,%edi
    28cf:	85 c0                	test   %eax,%eax
    28d1:	75 bb                	jne    288e <http_receive_response+0x4e>
    28d3:	83 ec 0c             	sub    $0xc,%esp
    28d6:	8b 55 08             	mov    0x8(%ebp),%edx
    28d9:	52                   	push   %edx
    28da:	e8 81 06 00 00       	call   2f60 <recv_eol>
    28df:	83 c4 10             	add    $0x10,%esp
    28e2:	85 c0                	test   %eax,%eax
    28e4:	74 0a                	je     28f0 <http_receive_response+0xb0>
    28e6:	78 17                	js     28ff <http_receive_response+0xbf>
    28e8:	8b 45 0c             	mov    0xc(%ebp),%eax
    28eb:	89 18                	mov    %ebx,(%eax)
    28ed:	eb be                	jmp    28ad <http_receive_response+0x6d>
    28ef:	90                   	nop
    28f0:	bf dd b1 ff ff       	mov    $0xffffb1dd,%edi
    28f5:	eb 97                	jmp    288e <http_receive_response+0x4e>
    28f7:	90                   	nop
    28f8:	bf fe ff ff ff       	mov    $0xfffffffe,%edi
    28fd:	eb ae                	jmp    28ad <http_receive_response+0x6d>
    28ff:	89 c7                	mov    %eax,%edi
    2901:	eb 8b                	jmp    288e <http_receive_response+0x4e>
    2903:	8d b6 00 00 00 00    	lea    0x0(%esi),%esi
    2909:	8d bc 27 00 00 00 00 	lea    0x0(%edi,%eiz,1),%edi

00002910 <http_response_destroy>:
    2910:	55                   	push   %ebp
    2911:	89 e5                	mov    %esp,%ebp
    2913:	53                   	push   %ebx
    2914:	83 ec 10             	sub    $0x10,%esp
    2917:	8b 5d 08             	mov    0x8(%ebp),%ebx
    291a:	8b 43 04             	mov    0x4(%ebx),%eax
    291d:	50                   	push   %eax
    291e:	e8 dd 1b 00 00       	call   4500 <free@plt>
    2923:	8d 43 08             	lea    0x8(%ebx),%eax
    2926:	89 04 24             	mov    %eax,(%esp)
    2929:	e8 22 f8 ff ff       	call   2150 <http_headers_clear>
    292e:	89 5d 08             	mov    %ebx,0x8(%ebp)
    2931:	83 c4 10             	add    $0x10,%esp
    2934:	8b 5d fc             	mov    -0x4(%ebp),%ebx
    2937:	c9                   	leave  
    2938:	e9 c3 1b 00 00       	jmp    4500 <free@plt>
    293d:	66 90                	xchg   %ax,%ax
    293f:	90                   	nop

00002940 <dummy_receive>:
    2940:	55                   	push   %ebp
    2941:	31 c0                	xor    %eax,%eax
    2943:	89 e5                	mov    %esp,%ebp
    2945:	5d                   	pop    %ebp
    2946:	c3                   	ret    
    2947:	89 f6                	mov    %esi,%esi
    2949:	8d bc 27 00 00 00 00 	lea    0x0(%edi,%eiz,1),%edi

00002950 <recv_char.constprop.0>:
    2950:	55                   	push   %ebp
    2951:	89 e5                	mov    %esp,%ebp
    2953:	57                   	push   %edi
    2954:	56                   	push   %esi
    2955:	53                   	push   %ebx
    2956:	83 ec 1c             	sub    $0x1c,%esp
    2959:	89 55 e0             	mov    %edx,-0x20(%ebp)
    295c:	8b 48 08             	mov    0x8(%eax),%ecx
    295f:	8b 50 0c             	mov    0xc(%eax),%edx
    2962:	89 c6                	mov    %eax,%esi
    2964:	39 ca                	cmp    %ecx,%edx
    2966:	74 20                	je     2988 <recv_char.constprop.0+0x38>
    2968:	8b 46 04             	mov    0x4(%esi),%eax
    296b:	8b 4d e0             	mov    -0x20(%ebp),%ecx
    296e:	8a 04 10             	mov    (%eax,%edx,1),%al
    2971:	88 01                	mov    %al,(%ecx)
    2973:	88 45 e4             	mov    %al,-0x1c(%ebp)
    2976:	8b 46 0c             	mov    0xc(%esi),%eax
    2979:	40                   	inc    %eax
    297a:	89 46 0c             	mov    %eax,0xc(%esi)
    297d:	31 c0                	xor    %eax,%eax
    297f:	8d 65 f4             	lea    -0xc(%ebp),%esp
    2982:	5b                   	pop    %ebx
    2983:	5e                   	pop    %esi
    2984:	5f                   	pop    %edi
    2985:	5d                   	pop    %ebp
    2986:	c3                   	ret    
    2987:	90                   	nop
    2988:	8b 18                	mov    (%eax),%ebx
    298a:	89 d8                	mov    %ebx,%eax
    298c:	29 c8                	sub    %ecx,%eax
    298e:	89 45 e4             	mov    %eax,-0x1c(%ebp)
    2991:	75 64                	jne    29f7 <recv_char.constprop.0+0xa7>
    2993:	8b 46 1c             	mov    0x1c(%esi),%eax
    2996:	8d 7e 18             	lea    0x18(%esi),%edi
    2999:	39 f8                	cmp    %edi,%eax
    299b:	74 13                	je     29b0 <recv_char.constprop.0+0x60>
    299d:	8d 76 00             	lea    0x0(%esi),%esi
    29a0:	8b 50 08             	mov    0x8(%eax),%edx
    29a3:	39 d3                	cmp    %edx,%ebx
    29a5:	76 02                	jbe    29a9 <recv_char.constprop.0+0x59>
    29a7:	89 d3                	mov    %edx,%ebx
    29a9:	8b 40 04             	mov    0x4(%eax),%eax
    29ac:	39 f8                	cmp    %edi,%eax
    29ae:	75 f0                	jne    29a0 <recv_char.constprop.0+0x50>
    29b0:	85 db                	test   %ebx,%ebx
    29b2:	74 6b                	je     2a1f <recv_char.constprop.0+0xcf>
    29b4:	8b 46 04             	mov    0x4(%esi),%eax
    29b7:	29 d9                	sub    %ebx,%ecx
    29b9:	89 ca                	mov    %ecx,%edx
    29bb:	51                   	push   %ecx
    29bc:	8d 0c 18             	lea    (%eax,%ebx,1),%ecx
    29bf:	52                   	push   %edx
    29c0:	89 55 e4             	mov    %edx,-0x1c(%ebp)
    29c3:	51                   	push   %ecx
    29c4:	50                   	push   %eax
    29c5:	e8 66 19 00 00       	call   4330 <memmove@plt>
    29ca:	8b 55 e4             	mov    -0x1c(%ebp),%edx
    29cd:	8b 06                	mov    (%esi),%eax
    29cf:	29 d0                	sub    %edx,%eax
    29d1:	83 c4 10             	add    $0x10,%esp
    29d4:	89 45 e4             	mov    %eax,-0x1c(%ebp)
    29d7:	8b 46 1c             	mov    0x1c(%esi),%eax
    29da:	89 56 08             	mov    %edx,0x8(%esi)
    29dd:	89 56 0c             	mov    %edx,0xc(%esi)
    29e0:	39 f8                	cmp    %edi,%eax
    29e2:	74 13                	je     29f7 <recv_char.constprop.0+0xa7>
    29e4:	8d 74 26 00          	lea    0x0(%esi,%eiz,1),%esi
    29e8:	8b 48 08             	mov    0x8(%eax),%ecx
    29eb:	29 d9                	sub    %ebx,%ecx
    29ed:	89 48 08             	mov    %ecx,0x8(%eax)
    29f0:	8b 40 04             	mov    0x4(%eax),%eax
    29f3:	39 f8                	cmp    %edi,%eax
    29f5:	75 f1                	jne    29e8 <recv_char.constprop.0+0x98>
    29f7:	8b 7e 04             	mov    0x4(%esi),%edi
    29fa:	8b 5d e4             	mov    -0x1c(%ebp),%ebx
    29fd:	01 fa                	add    %edi,%edx
    29ff:	8b 46 10             	mov    0x10(%esi),%eax
    2a02:	51                   	push   %ecx
    2a03:	53                   	push   %ebx
    2a04:	52                   	push   %edx
    2a05:	50                   	push   %eax
    2a06:	ff 56 14             	call   *0x14(%esi)
    2a09:	83 c4 10             	add    $0x10,%esp
    2a0c:	85 c0                	test   %eax,%eax
    2a0e:	0f 8e 6b ff ff ff    	jle    297f <recv_char.constprop.0+0x2f>
    2a14:	89 46 08             	mov    %eax,0x8(%esi)
    2a17:	8b 56 0c             	mov    0xc(%esi),%edx
    2a1a:	e9 49 ff ff ff       	jmp    2968 <recv_char.constprop.0+0x18>
    2a1f:	8d 65 f4             	lea    -0xc(%ebp),%esp
    2a22:	b8 fd ff ff ff       	mov    $0xfffffffd,%eax
    2a27:	5b                   	pop    %ebx
    2a28:	5e                   	pop    %esi
    2a29:	5f                   	pop    %edi
    2a2a:	5d                   	pop    %ebp
    2a2b:	c3                   	ret    
    2a2c:	8d 74 26 00          	lea    0x0(%esi,%eiz,1),%esi

00002a30 <recv_buffer_init>:
    2a30:	55                   	push   %ebp
    2a31:	89 e5                	mov    %esp,%ebp
    2a33:	53                   	push   %ebx
    2a34:	83 ec 10             	sub    $0x10,%esp
    2a37:	8b 5d 08             	mov    0x8(%ebp),%ebx
    2a3a:	8b 55 10             	mov    0x10(%ebp),%edx
    2a3d:	8b 45 0c             	mov    0xc(%ebp),%eax
    2a40:	89 53 14             	mov    %edx,0x14(%ebx)
    2a43:	8b 55 14             	mov    0x14(%ebp),%edx
    2a46:	89 53 10             	mov    %edx,0x10(%ebx)
    2a49:	8d 53 18             	lea    0x18(%ebx),%edx
    2a4c:	c7 43 08 00 00 00 00 	movl   $0x0,0x8(%ebx)
    2a53:	c7 43 0c 00 00 00 00 	movl   $0x0,0xc(%ebx)
    2a5a:	89 03                	mov    %eax,(%ebx)
    2a5c:	89 53 18             	mov    %edx,0x18(%ebx)
    2a5f:	89 53 1c             	mov    %edx,0x1c(%ebx)
    2a62:	50                   	push   %eax
    2a63:	e8 18 19 00 00       	call   4380 <malloc@plt>
    2a68:	83 c4 10             	add    $0x10,%esp
    2a6b:	83 f8 01             	cmp    $0x1,%eax
    2a6e:	89 43 04             	mov    %eax,0x4(%ebx)
    2a71:	19 c0                	sbb    %eax,%eax
    2a73:	8b 5d fc             	mov    -0x4(%ebp),%ebx
    2a76:	83 e0 fe             	and    $0xfffffffe,%eax
    2a79:	c9                   	leave  
    2a7a:	c3                   	ret    
    2a7b:	90                   	nop
    2a7c:	8d 74 26 00          	lea    0x0(%esi,%eiz,1),%esi

00002a80 <recv_buffer_init_const>:
    2a80:	55                   	push   %ebp
    2a81:	89 e5                	mov    %esp,%ebp
    2a83:	56                   	push   %esi
    2a84:	53                   	push   %ebx
    2a85:	8b 5d 08             	mov    0x8(%ebp),%ebx
    2a88:	83 ec 0c             	sub    $0xc,%esp
    2a8b:	8b 75 10             	mov    0x10(%ebp),%esi
    2a8e:	8d 43 18             	lea    0x18(%ebx),%eax
    2a91:	c7 43 14 40 29 00 00 	movl   $0x2940,0x14(%ebx)
    2a98:	c7 43 10 00 00 00 00 	movl   $0x0,0x10(%ebx)
    2a9f:	c7 43 08 00 00 00 00 	movl   $0x0,0x8(%ebx)
    2aa6:	c7 43 0c 00 00 00 00 	movl   $0x0,0xc(%ebx)
    2aad:	89 33                	mov    %esi,(%ebx)
    2aaf:	89 43 18             	mov    %eax,0x18(%ebx)
    2ab2:	89 43 1c             	mov    %eax,0x1c(%ebx)
    2ab5:	56                   	push   %esi
    2ab6:	e8 c5 18 00 00       	call   4380 <malloc@plt>
    2abb:	83 c4 10             	add    $0x10,%esp
    2abe:	89 43 04             	mov    %eax,0x4(%ebx)
    2ac1:	85 c0                	test   %eax,%eax
    2ac3:	74 1b                	je     2ae0 <recv_buffer_init_const+0x60>
    2ac5:	8b 4d 0c             	mov    0xc(%ebp),%ecx
    2ac8:	52                   	push   %edx
    2ac9:	56                   	push   %esi
    2aca:	51                   	push   %ecx
    2acb:	50                   	push   %eax
    2acc:	e8 8f 18 00 00       	call   4360 <memcpy@plt>
    2ad1:	89 73 08             	mov    %esi,0x8(%ebx)
    2ad4:	83 c4 10             	add    $0x10,%esp
    2ad7:	8d 65 f8             	lea    -0x8(%ebp),%esp
    2ada:	31 c0                	xor    %eax,%eax
    2adc:	5b                   	pop    %ebx
    2add:	5e                   	pop    %esi
    2ade:	5d                   	pop    %ebp
    2adf:	c3                   	ret    
    2ae0:	8d 65 f8             	lea    -0x8(%ebp),%esp
    2ae3:	b8 fe ff ff ff       	mov    $0xfffffffe,%eax
    2ae8:	5b                   	pop    %ebx
    2ae9:	5e                   	pop    %esi
    2aea:	5d                   	pop    %ebp
    2aeb:	c3                   	ret    
    2aec:	8d 74 26 00          	lea    0x0(%esi,%eiz,1),%esi

00002af0 <recv_buffer_fini>:
    2af0:	55                   	push   %ebp
    2af1:	89 e5                	mov    %esp,%ebp
    2af3:	8b 45 08             	mov    0x8(%ebp),%eax
    2af6:	8b 40 04             	mov    0x4(%eax),%eax
    2af9:	89 45 08             	mov    %eax,0x8(%ebp)
    2afc:	5d                   	pop    %ebp
    2afd:	e9 fe 19 00 00       	jmp    4500 <free@plt>
    2b02:	8d b4 26 00 00 00 00 	lea    0x0(%esi,%eiz,1),%esi
    2b09:	8d bc 27 00 00 00 00 	lea    0x0(%edi,%eiz,1),%edi

00002b10 <recv_reset>:
    2b10:	55                   	push   %ebp
    2b11:	89 e5                	mov    %esp,%ebp
    2b13:	8b 45 08             	mov    0x8(%ebp),%eax
    2b16:	c7 40 08 00 00 00 00 	movl   $0x0,0x8(%eax)
    2b1d:	c7 40 0c 00 00 00 00 	movl   $0x0,0xc(%eax)
    2b24:	5d                   	pop    %ebp
    2b25:	c3                   	ret    
    2b26:	8d 76 00             	lea    0x0(%esi),%esi
    2b29:	8d bc 27 00 00 00 00 	lea    0x0(%edi,%eiz,1),%edi

00002b30 <recv_mark>:
    2b30:	55                   	push   %ebp
    2b31:	89 e5                	mov    %esp,%ebp
    2b33:	8b 45 0c             	mov    0xc(%ebp),%eax
    2b36:	8b 55 08             	mov    0x8(%ebp),%edx
    2b39:	c7 00 00 00 00 00    	movl   $0x0,(%eax)
    2b3f:	8d 4a 18             	lea    0x18(%edx),%ecx
    2b42:	89 48 04             	mov    %ecx,0x4(%eax)
    2b45:	8b 4a 18             	mov    0x18(%edx),%ecx
    2b48:	89 08                	mov    %ecx,(%eax)
    2b4a:	8b 4a 18             	mov    0x18(%edx),%ecx
    2b4d:	89 41 04             	mov    %eax,0x4(%ecx)
    2b50:	89 42 18             	mov    %eax,0x18(%edx)
    2b53:	8b 52 0c             	mov    0xc(%edx),%edx
    2b56:	89 50 08             	mov    %edx,0x8(%eax)
    2b59:	5d                   	pop    %ebp
    2b5a:	c3                   	ret    
    2b5b:	90                   	nop
    2b5c:	8d 74 26 00          	lea    0x0(%esi,%eiz,1),%esi

00002b60 <recv_unmark>:
    2b60:	55                   	push   %ebp
    2b61:	89 e5                	mov    %esp,%ebp
    2b63:	8b 45 0c             	mov    0xc(%ebp),%eax
    2b66:	8b 08                	mov    (%eax),%ecx
    2b68:	85 c9                	test   %ecx,%ecx
    2b6a:	74 0e                	je     2b7a <recv_unmark+0x1a>
    2b6c:	8b 50 04             	mov    0x4(%eax),%edx
    2b6f:	85 d2                	test   %edx,%edx
    2b71:	74 07                	je     2b7a <recv_unmark+0x1a>
    2b73:	89 0a                	mov    %ecx,(%edx)
    2b75:	8b 08                	mov    (%eax),%ecx
    2b77:	89 51 04             	mov    %edx,0x4(%ecx)
    2b7a:	c7 00 00 00 00 00    	movl   $0x0,(%eax)
    2b80:	c7 40 04 00 00 00 00 	movl   $0x0,0x4(%eax)
    2b87:	5d                   	pop    %ebp
    2b88:	c3                   	ret    
    2b89:	8d b4 26 00 00 00 00 	lea    0x0(%esi,%eiz,1),%esi

00002b90 <recv_mark_update>:
    2b90:	55                   	push   %ebp
    2b91:	89 e5                	mov    %esp,%ebp
    2b93:	8b 45 08             	mov    0x8(%ebp),%eax
    2b96:	8b 50 0c             	mov    0xc(%eax),%edx
    2b99:	8b 45 0c             	mov    0xc(%ebp),%eax
    2b9c:	89 50 08             	mov    %edx,0x8(%eax)
    2b9f:	5d                   	pop    %ebp
    2ba0:	c3                   	ret    
    2ba1:	eb 0d                	jmp    2bb0 <recv_cut>
    2ba3:	90                   	nop
    2ba4:	90                   	nop
    2ba5:	90                   	nop
    2ba6:	90                   	nop
    2ba7:	90                   	nop
    2ba8:	90                   	nop
    2ba9:	90                   	nop
    2baa:	90                   	nop
    2bab:	90                   	nop
    2bac:	90                   	nop
    2bad:	90                   	nop
    2bae:	90                   	nop
    2baf:	90                   	nop

00002bb0 <recv_cut>:
    2bb0:	55                   	push   %ebp
    2bb1:	89 e5                	mov    %esp,%ebp
    2bb3:	57                   	push   %edi
    2bb4:	56                   	push   %esi
    2bb5:	53                   	push   %ebx
    2bb6:	83 ec 0c             	sub    $0xc,%esp
    2bb9:	8b 7d 0c             	mov    0xc(%ebp),%edi
    2bbc:	8b 55 10             	mov    0x10(%ebp),%edx
    2bbf:	8b 47 08             	mov    0x8(%edi),%eax
    2bc2:	8b 5a 08             	mov    0x8(%edx),%ebx
    2bc5:	39 d8                	cmp    %ebx,%eax
    2bc7:	77 3f                	ja     2c08 <recv_cut+0x58>
    2bc9:	83 ec 0c             	sub    $0xc,%esp
    2bcc:	29 c3                	sub    %eax,%ebx
    2bce:	53                   	push   %ebx
    2bcf:	e8 ac 17 00 00       	call   4380 <malloc@plt>
    2bd4:	83 c4 10             	add    $0x10,%esp
    2bd7:	89 c6                	mov    %eax,%esi
    2bd9:	85 c0                	test   %eax,%eax
    2bdb:	74 33                	je     2c10 <recv_cut+0x60>
    2bdd:	8b 55 08             	mov    0x8(%ebp),%edx
    2be0:	50                   	push   %eax
    2be1:	53                   	push   %ebx
    2be2:	8b 47 08             	mov    0x8(%edi),%eax
    2be5:	8b 4a 04             	mov    0x4(%edx),%ecx
    2be8:	01 c8                	add    %ecx,%eax
    2bea:	50                   	push   %eax
    2beb:	56                   	push   %esi
    2bec:	e8 6f 17 00 00       	call   4360 <memcpy@plt>
    2bf1:	8b 45 14             	mov    0x14(%ebp),%eax
    2bf4:	89 30                	mov    %esi,(%eax)
    2bf6:	8b 45 18             	mov    0x18(%ebp),%eax
    2bf9:	83 c4 10             	add    $0x10,%esp
    2bfc:	89 18                	mov    %ebx,(%eax)
    2bfe:	31 c0                	xor    %eax,%eax
    2c00:	8d 65 f4             	lea    -0xc(%ebp),%esp
    2c03:	5b                   	pop    %ebx
    2c04:	5e                   	pop    %esi
    2c05:	5f                   	pop    %edi
    2c06:	5d                   	pop    %ebp
    2c07:	c3                   	ret    
    2c08:	b8 f2 ff ff ff       	mov    $0xfffffff2,%eax
    2c0d:	eb f1                	jmp    2c00 <recv_cut+0x50>
    2c0f:	90                   	nop
    2c10:	b8 fe ff ff ff       	mov    $0xfffffffe,%eax
    2c15:	eb e9                	jmp    2c00 <recv_cut+0x50>
    2c17:	89 f6                	mov    %esi,%esi
    2c19:	8d bc 27 00 00 00 00 	lea    0x0(%edi,%eiz,1),%edi

00002c20 <recv_cut_str>:
    2c20:	55                   	push   %ebp
    2c21:	89 e5                	mov    %esp,%ebp
    2c23:	57                   	push   %edi
    2c24:	56                   	push   %esi
    2c25:	53                   	push   %ebx
    2c26:	83 ec 0c             	sub    $0xc,%esp
    2c29:	8b 7d 0c             	mov    0xc(%ebp),%edi
    2c2c:	8b 55 10             	mov    0x10(%ebp),%edx
    2c2f:	8b 47 08             	mov    0x8(%edi),%eax
    2c32:	8b 5a 08             	mov    0x8(%edx),%ebx
    2c35:	39 d8                	cmp    %ebx,%eax
    2c37:	0f 87 7c 00 00 00    	ja     2cb9 <recv_cut_str+0x99>
    2c3d:	29 c3                	sub    %eax,%ebx
    2c3f:	83 ec 0c             	sub    $0xc,%esp
    2c42:	8d 43 01             	lea    0x1(%ebx),%eax
    2c45:	50                   	push   %eax
    2c46:	e8 35 17 00 00       	call   4380 <malloc@plt>
    2c4b:	83 c4 10             	add    $0x10,%esp
    2c4e:	89 c6                	mov    %eax,%esi
    2c50:	85 c0                	test   %eax,%eax
    2c52:	74 6c                	je     2cc0 <recv_cut_str+0xa0>
    2c54:	8b 55 08             	mov    0x8(%ebp),%edx
    2c57:	50                   	push   %eax
    2c58:	53                   	push   %ebx
    2c59:	8b 4a 04             	mov    0x4(%edx),%ecx
    2c5c:	8b 47 08             	mov    0x8(%edi),%eax
    2c5f:	01 c8                	add    %ecx,%eax
    2c61:	50                   	push   %eax
    2c62:	56                   	push   %esi
    2c63:	e8 f8 16 00 00       	call   4360 <memcpy@plt>
    2c68:	8d 14 1e             	lea    (%esi,%ebx,1),%edx
    2c6b:	83 c4 10             	add    $0x10,%esp
    2c6e:	c6 02 00             	movb   $0x0,(%edx)
    2c71:	85 db                	test   %ebx,%ebx
    2c73:	74 16                	je     2c8b <recv_cut_str+0x6b>
    2c75:	8d 46 01             	lea    0x1(%esi),%eax
    2c78:	80 3e 00             	cmpb   $0x0,(%esi)
    2c7b:	75 0a                	jne    2c87 <recv_cut_str+0x67>
    2c7d:	eb 21                	jmp    2ca0 <recv_cut_str+0x80>
    2c7f:	90                   	nop
    2c80:	40                   	inc    %eax
    2c81:	80 78 ff 00          	cmpb   $0x0,-0x1(%eax)
    2c85:	74 19                	je     2ca0 <recv_cut_str+0x80>
    2c87:	39 d0                	cmp    %edx,%eax
    2c89:	75 f5                	jne    2c80 <recv_cut_str+0x60>
    2c8b:	8b 45 14             	mov    0x14(%ebp),%eax
    2c8e:	89 30                	mov    %esi,(%eax)
    2c90:	31 c0                	xor    %eax,%eax
    2c92:	8d 65 f4             	lea    -0xc(%ebp),%esp
    2c95:	5b                   	pop    %ebx
    2c96:	5e                   	pop    %esi
    2c97:	5f                   	pop    %edi
    2c98:	5d                   	pop    %ebp
    2c99:	c3                   	ret    
    2c9a:	8d b6 00 00 00 00    	lea    0x0(%esi),%esi
    2ca0:	83 ec 0c             	sub    $0xc,%esp
    2ca3:	56                   	push   %esi
    2ca4:	e8 57 18 00 00       	call   4500 <free@plt>
    2ca9:	83 c4 10             	add    $0x10,%esp
    2cac:	8d 65 f4             	lea    -0xc(%ebp),%esp
    2caf:	b8 f6 fe ff ff       	mov    $0xfffffef6,%eax
    2cb4:	5b                   	pop    %ebx
    2cb5:	5e                   	pop    %esi
    2cb6:	5f                   	pop    %edi
    2cb7:	5d                   	pop    %ebp
    2cb8:	c3                   	ret    
    2cb9:	b8 f2 ff ff ff       	mov    $0xfffffff2,%eax
    2cbe:	eb d2                	jmp    2c92 <recv_cut_str+0x72>
    2cc0:	b8 fe ff ff ff       	mov    $0xfffffffe,%eax
    2cc5:	eb cb                	jmp    2c92 <recv_cut_str+0x72>
    2cc7:	89 f6                	mov    %esi,%esi
    2cc9:	8d bc 27 00 00 00 00 	lea    0x0(%edi,%eiz,1),%edi

00002cd0 <recv_char>:
    2cd0:	55                   	push   %ebp
    2cd1:	89 e5                	mov    %esp,%ebp
    2cd3:	57                   	push   %edi
    2cd4:	56                   	push   %esi
    2cd5:	53                   	push   %ebx
    2cd6:	83 ec 1c             	sub    $0x1c,%esp
    2cd9:	8b 7d 08             	mov    0x8(%ebp),%edi
    2cdc:	8b 45 10             	mov    0x10(%ebp),%eax
    2cdf:	89 45 e0             	mov    %eax,-0x20(%ebp)
    2ce2:	8b 57 0c             	mov    0xc(%edi),%edx
    2ce5:	8b 4f 08             	mov    0x8(%edi),%ecx
    2ce8:	39 ca                	cmp    %ecx,%edx
    2cea:	74 24                	je     2d10 <recv_char+0x40>
    2cec:	8b 47 04             	mov    0x4(%edi),%eax
    2cef:	8a 14 10             	mov    (%eax,%edx,1),%dl
    2cf2:	8b 45 0c             	mov    0xc(%ebp),%eax
    2cf5:	88 10                	mov    %dl,(%eax)
    2cf7:	31 c0                	xor    %eax,%eax
    2cf9:	80 7d e0 00          	cmpb   $0x0,-0x20(%ebp)
    2cfd:	74 07                	je     2d06 <recv_char+0x36>
    2cff:	8b 57 0c             	mov    0xc(%edi),%edx
    2d02:	42                   	inc    %edx
    2d03:	89 57 0c             	mov    %edx,0xc(%edi)
    2d06:	8d 65 f4             	lea    -0xc(%ebp),%esp
    2d09:	5b                   	pop    %ebx
    2d0a:	5e                   	pop    %esi
    2d0b:	5f                   	pop    %edi
    2d0c:	5d                   	pop    %ebp
    2d0d:	c3                   	ret    
    2d0e:	66 90                	xchg   %ax,%ax
    2d10:	8b 1f                	mov    (%edi),%ebx
    2d12:	89 d8                	mov    %ebx,%eax
    2d14:	29 c8                	sub    %ecx,%eax
    2d16:	89 45 e4             	mov    %eax,-0x1c(%ebp)
    2d19:	75 64                	jne    2d7f <recv_char+0xaf>
    2d1b:	8b 47 1c             	mov    0x1c(%edi),%eax
    2d1e:	8d 77 18             	lea    0x18(%edi),%esi
    2d21:	39 f0                	cmp    %esi,%eax
    2d23:	74 13                	je     2d38 <recv_char+0x68>
    2d25:	8d 76 00             	lea    0x0(%esi),%esi
    2d28:	8b 50 08             	mov    0x8(%eax),%edx
    2d2b:	39 d3                	cmp    %edx,%ebx
    2d2d:	76 02                	jbe    2d31 <recv_char+0x61>
    2d2f:	89 d3                	mov    %edx,%ebx
    2d31:	8b 40 04             	mov    0x4(%eax),%eax
    2d34:	39 f0                	cmp    %esi,%eax
    2d36:	75 f0                	jne    2d28 <recv_char+0x58>
    2d38:	85 db                	test   %ebx,%ebx
    2d3a:	74 6b                	je     2da7 <recv_char+0xd7>
    2d3c:	8b 47 04             	mov    0x4(%edi),%eax
    2d3f:	29 d9                	sub    %ebx,%ecx
    2d41:	89 ca                	mov    %ecx,%edx
    2d43:	51                   	push   %ecx
    2d44:	8d 0c 18             	lea    (%eax,%ebx,1),%ecx
    2d47:	52                   	push   %edx
    2d48:	89 55 e4             	mov    %edx,-0x1c(%ebp)
    2d4b:	51                   	push   %ecx
    2d4c:	50                   	push   %eax
    2d4d:	e8 de 15 00 00       	call   4330 <memmove@plt>
    2d52:	8b 55 e4             	mov    -0x1c(%ebp),%edx
    2d55:	8b 07                	mov    (%edi),%eax
    2d57:	29 d0                	sub    %edx,%eax
    2d59:	83 c4 10             	add    $0x10,%esp
    2d5c:	89 45 e4             	mov    %eax,-0x1c(%ebp)
    2d5f:	8b 47 1c             	mov    0x1c(%edi),%eax
    2d62:	89 57 08             	mov    %edx,0x8(%edi)
    2d65:	89 57 0c             	mov    %edx,0xc(%edi)
    2d68:	39 f0                	cmp    %esi,%eax
    2d6a:	74 13                	je     2d7f <recv_char+0xaf>
    2d6c:	8d 74 26 00          	lea    0x0(%esi,%eiz,1),%esi
    2d70:	8b 48 08             	mov    0x8(%eax),%ecx
    2d73:	29 d9                	sub    %ebx,%ecx
    2d75:	89 48 08             	mov    %ecx,0x8(%eax)
    2d78:	8b 40 04             	mov    0x4(%eax),%eax
    2d7b:	39 f0                	cmp    %esi,%eax
    2d7d:	75 f1                	jne    2d70 <recv_char+0xa0>
    2d7f:	51                   	push   %ecx
    2d80:	8b 5d e4             	mov    -0x1c(%ebp),%ebx
    2d83:	8b 77 04             	mov    0x4(%edi),%esi
    2d86:	53                   	push   %ebx
    2d87:	01 f2                	add    %esi,%edx
    2d89:	52                   	push   %edx
    2d8a:	8b 47 10             	mov    0x10(%edi),%eax
    2d8d:	50                   	push   %eax
    2d8e:	ff 57 14             	call   *0x14(%edi)
    2d91:	83 c4 10             	add    $0x10,%esp
    2d94:	85 c0                	test   %eax,%eax
    2d96:	0f 8e 6a ff ff ff    	jle    2d06 <recv_char+0x36>
    2d9c:	89 47 08             	mov    %eax,0x8(%edi)
    2d9f:	8b 57 0c             	mov    0xc(%edi),%edx
    2da2:	e9 45 ff ff ff       	jmp    2cec <recv_char+0x1c>
    2da7:	8d 65 f4             	lea    -0xc(%ebp),%esp
    2daa:	b8 fd ff ff ff       	mov    $0xfffffffd,%eax
    2daf:	5b                   	pop    %ebx
    2db0:	5e                   	pop    %esi
    2db1:	5f                   	pop    %edi
    2db2:	5d                   	pop    %ebp
    2db3:	c3                   	ret    
    2db4:	8d b6 00 00 00 00    	lea    0x0(%esi),%esi
    2dba:	8d bf 00 00 00 00    	lea    0x0(%edi),%edi

00002dc0 <recv_buffer>:
    2dc0:	55                   	push   %ebp
    2dc1:	89 e5                	mov    %esp,%ebp
    2dc3:	56                   	push   %esi
    2dc4:	53                   	push   %ebx
    2dc5:	8b 75 08             	mov    0x8(%ebp),%esi
    2dc8:	8b 55 0c             	mov    0xc(%ebp),%edx
    2dcb:	8b 4d 10             	mov    0x10(%ebp),%ecx
    2dce:	8b 46 0c             	mov    0xc(%esi),%eax
    2dd1:	8b 5e 08             	mov    0x8(%esi),%ebx
    2dd4:	39 d8                	cmp    %ebx,%eax
    2dd6:	74 30                	je     2e08 <recv_buffer+0x48>
    2dd8:	29 c3                	sub    %eax,%ebx
    2dda:	39 cb                	cmp    %ecx,%ebx
    2ddc:	77 22                	ja     2e00 <recv_buffer+0x40>
    2dde:	51                   	push   %ecx
    2ddf:	53                   	push   %ebx
    2de0:	8b 4e 04             	mov    0x4(%esi),%ecx
    2de3:	01 c8                	add    %ecx,%eax
    2de5:	50                   	push   %eax
    2de6:	52                   	push   %edx
    2de7:	e8 74 15 00 00       	call   4360 <memcpy@plt>
    2dec:	8b 46 0c             	mov    0xc(%esi),%eax
    2def:	01 d8                	add    %ebx,%eax
    2df1:	83 c4 10             	add    $0x10,%esp
    2df4:	89 46 0c             	mov    %eax,0xc(%esi)
    2df7:	8d 65 f8             	lea    -0x8(%ebp),%esp
    2dfa:	89 d8                	mov    %ebx,%eax
    2dfc:	5b                   	pop    %ebx
    2dfd:	5e                   	pop    %esi
    2dfe:	5d                   	pop    %ebp
    2dff:	c3                   	ret    
    2e00:	89 cb                	mov    %ecx,%ebx
    2e02:	eb da                	jmp    2dde <recv_buffer+0x1e>
    2e04:	8d 74 26 00          	lea    0x0(%esi,%eiz,1),%esi
    2e08:	89 4d 10             	mov    %ecx,0x10(%ebp)
    2e0b:	89 55 0c             	mov    %edx,0xc(%ebp)
    2e0e:	8b 46 10             	mov    0x10(%esi),%eax
    2e11:	89 45 08             	mov    %eax,0x8(%ebp)
    2e14:	8b 46 14             	mov    0x14(%esi),%eax
    2e17:	8d 65 f8             	lea    -0x8(%ebp),%esp
    2e1a:	5b                   	pop    %ebx
    2e1b:	5e                   	pop    %esi
    2e1c:	5d                   	pop    %ebp
    2e1d:	ff e0                	jmp    *%eax
    2e1f:	90                   	nop

00002e20 <recv_discard>:
    2e20:	55                   	push   %ebp
    2e21:	89 e5                	mov    %esp,%ebp
    2e23:	57                   	push   %edi
    2e24:	56                   	push   %esi
    2e25:	53                   	push   %ebx
    2e26:	83 ec 20             	sub    $0x20,%esp
    2e29:	8d 7d e7             	lea    -0x19(%ebp),%edi
    2e2c:	8b 75 08             	mov    0x8(%ebp),%esi
    2e2f:	8b 5d 0c             	mov    0xc(%ebp),%ebx
    2e32:	6a 00                	push   $0x0
    2e34:	c6 45 e7 00          	movb   $0x0,-0x19(%ebp)
    2e38:	57                   	push   %edi
    2e39:	56                   	push   %esi
    2e3a:	e8 91 fe ff ff       	call   2cd0 <recv_char>
    2e3f:	83 c4 10             	add    $0x10,%esp
    2e42:	85 c0                	test   %eax,%eax
    2e44:	75 05                	jne    2e4b <recv_discard+0x2b>
    2e46:	38 5d e7             	cmp    %bl,-0x19(%ebp)
    2e49:	74 0d                	je     2e58 <recv_discard+0x38>
    2e4b:	8d 65 f4             	lea    -0xc(%ebp),%esp
    2e4e:	5b                   	pop    %ebx
    2e4f:	5e                   	pop    %esi
    2e50:	5f                   	pop    %edi
    2e51:	5d                   	pop    %ebp
    2e52:	c3                   	ret    
    2e53:	90                   	nop
    2e54:	8d 74 26 00          	lea    0x0(%esi,%eiz,1),%esi
    2e58:	89 fa                	mov    %edi,%edx
    2e5a:	89 f0                	mov    %esi,%eax
    2e5c:	e8 ef fa ff ff       	call   2950 <recv_char.constprop.0>
    2e61:	85 c0                	test   %eax,%eax
    2e63:	75 e6                	jne    2e4b <recv_discard+0x2b>
    2e65:	b8 01 00 00 00       	mov    $0x1,%eax
    2e6a:	eb df                	jmp    2e4b <recv_discard+0x2b>
    2e6c:	8d 74 26 00          	lea    0x0(%esi,%eiz,1),%esi

00002e70 <recv_discard_str>:
    2e70:	55                   	push   %ebp
    2e71:	89 e5                	mov    %esp,%ebp
    2e73:	57                   	push   %edi
    2e74:	56                   	push   %esi
    2e75:	53                   	push   %ebx
    2e76:	83 ec 2c             	sub    $0x2c,%esp
    2e79:	8b 45 0c             	mov    0xc(%ebp),%eax
    2e7c:	8b 75 08             	mov    0x8(%ebp),%esi
    2e7f:	8a 10                	mov    (%eax),%dl
    2e81:	84 d2                	test   %dl,%dl
    2e83:	74 67                	je     2eec <recv_discard_str+0x7c>
    2e85:	31 db                	xor    %ebx,%ebx
    2e87:	8d 7d e7             	lea    -0x19(%ebp),%edi
    2e8a:	8d b6 00 00 00 00    	lea    0x0(%esi),%esi
    2e90:	88 55 d7             	mov    %dl,-0x29(%ebp)
    2e93:	50                   	push   %eax
    2e94:	c6 45 e7 00          	movb   $0x0,-0x19(%ebp)
    2e98:	6a 00                	push   $0x0
    2e9a:	57                   	push   %edi
    2e9b:	56                   	push   %esi
    2e9c:	e8 2f fe ff ff       	call   2cd0 <recv_char>
    2ea1:	83 c4 10             	add    $0x10,%esp
    2ea4:	85 c0                	test   %eax,%eax
    2ea6:	75 38                	jne    2ee0 <recv_discard_str+0x70>
    2ea8:	8a 55 d7             	mov    -0x29(%ebp),%dl
    2eab:	38 55 e7             	cmp    %dl,-0x19(%ebp)
    2eae:	74 10                	je     2ec0 <recv_discard_str+0x50>
    2eb0:	89 d8                	mov    %ebx,%eax
    2eb2:	8d 65 f4             	lea    -0xc(%ebp),%esp
    2eb5:	5b                   	pop    %ebx
    2eb6:	5e                   	pop    %esi
    2eb7:	5f                   	pop    %edi
    2eb8:	5d                   	pop    %ebp
    2eb9:	c3                   	ret    
    2eba:	8d b6 00 00 00 00    	lea    0x0(%esi),%esi
    2ec0:	89 fa                	mov    %edi,%edx
    2ec2:	89 f0                	mov    %esi,%eax
    2ec4:	e8 87 fa ff ff       	call   2950 <recv_char.constprop.0>
    2ec9:	85 c0                	test   %eax,%eax
    2ecb:	75 13                	jne    2ee0 <recv_discard_str+0x70>
    2ecd:	8d 76 00             	lea    0x0(%esi),%esi
    2ed0:	43                   	inc    %ebx
    2ed1:	8b 45 0c             	mov    0xc(%ebp),%eax
    2ed4:	8a 14 18             	mov    (%eax,%ebx,1),%dl
    2ed7:	84 d2                	test   %dl,%dl
    2ed9:	75 b5                	jne    2e90 <recv_discard_str+0x20>
    2edb:	eb d3                	jmp    2eb0 <recv_discard_str+0x40>
    2edd:	8d 76 00             	lea    0x0(%esi),%esi
    2ee0:	85 c0                	test   %eax,%eax
    2ee2:	79 ec                	jns    2ed0 <recv_discard_str+0x60>
    2ee4:	8d 65 f4             	lea    -0xc(%ebp),%esp
    2ee7:	5b                   	pop    %ebx
    2ee8:	5e                   	pop    %esi
    2ee9:	5f                   	pop    %edi
    2eea:	5d                   	pop    %ebp
    2eeb:	c3                   	ret    
    2eec:	31 c0                	xor    %eax,%eax
    2eee:	eb c2                	jmp    2eb2 <recv_discard_str+0x42>

00002ef0 <recv_while>:
    2ef0:	55                   	push   %ebp
    2ef1:	89 e5                	mov    %esp,%ebp
    2ef3:	57                   	push   %edi
    2ef4:	56                   	push   %esi
    2ef5:	53                   	push   %ebx
    2ef6:	83 ec 1c             	sub    $0x1c,%esp
    2ef9:	31 ff                	xor    %edi,%edi
    2efb:	8b 75 08             	mov    0x8(%ebp),%esi
    2efe:	8d 5d e7             	lea    -0x19(%ebp),%ebx
    2f01:	eb 25                	jmp    2f28 <recv_while+0x38>
    2f03:	90                   	nop
    2f04:	8d 74 26 00          	lea    0x0(%esi,%eiz,1),%esi
    2f08:	83 ec 0c             	sub    $0xc,%esp
    2f0b:	0f be 45 e7          	movsbl -0x19(%ebp),%eax
    2f0f:	50                   	push   %eax
    2f10:	ff 55 0c             	call   *0xc(%ebp)
    2f13:	83 c4 10             	add    $0x10,%esp
    2f16:	84 c0                	test   %al,%al
    2f18:	74 2e                	je     2f48 <recv_while+0x58>
    2f1a:	89 da                	mov    %ebx,%edx
    2f1c:	89 f0                	mov    %esi,%eax
    2f1e:	e8 2d fa ff ff       	call   2950 <recv_char.constprop.0>
    2f23:	85 c0                	test   %eax,%eax
    2f25:	75 16                	jne    2f3d <recv_while+0x4d>
    2f27:	47                   	inc    %edi
    2f28:	c6 45 e7 00          	movb   $0x0,-0x19(%ebp)
    2f2c:	50                   	push   %eax
    2f2d:	6a 00                	push   $0x0
    2f2f:	53                   	push   %ebx
    2f30:	56                   	push   %esi
    2f31:	e8 9a fd ff ff       	call   2cd0 <recv_char>
    2f36:	83 c4 10             	add    $0x10,%esp
    2f39:	85 c0                	test   %eax,%eax
    2f3b:	74 cb                	je     2f08 <recv_while+0x18>
    2f3d:	8d 65 f4             	lea    -0xc(%ebp),%esp
    2f40:	5b                   	pop    %ebx
    2f41:	5e                   	pop    %esi
    2f42:	5f                   	pop    %edi
    2f43:	5d                   	pop    %ebp
    2f44:	c3                   	ret    
    2f45:	8d 76 00             	lea    0x0(%esi),%esi
    2f48:	8d 65 f4             	lea    -0xc(%ebp),%esp
    2f4b:	89 f8                	mov    %edi,%eax
    2f4d:	5b                   	pop    %ebx
    2f4e:	5e                   	pop    %esi
    2f4f:	5f                   	pop    %edi
    2f50:	5d                   	pop    %ebp
    2f51:	c3                   	ret    
    2f52:	8d b4 26 00 00 00 00 	lea    0x0(%esi,%eiz,1),%esi
    2f59:	8d bc 27 00 00 00 00 	lea    0x0(%edi,%eiz,1),%edi

00002f60 <recv_eol>:
    2f60:	55                   	push   %ebp
    2f61:	89 e5                	mov    %esp,%ebp
    2f63:	57                   	push   %edi
    2f64:	56                   	push   %esi
    2f65:	53                   	push   %ebx
    2f66:	83 ec 20             	sub    $0x20,%esp
    2f69:	8d 75 e6             	lea    -0x1a(%ebp),%esi
    2f6c:	8b 5d 08             	mov    0x8(%ebp),%ebx
    2f6f:	c6 45 e6 00          	movb   $0x0,-0x1a(%ebp)
    2f73:	6a 00                	push   $0x0
    2f75:	56                   	push   %esi
    2f76:	53                   	push   %ebx
    2f77:	e8 54 fd ff ff       	call   2cd0 <recv_char>
    2f7c:	83 c4 10             	add    $0x10,%esp
    2f7f:	85 c0                	test   %eax,%eax
    2f81:	75 0d                	jne    2f90 <recv_eol+0x30>
    2f83:	8a 55 e6             	mov    -0x1a(%ebp),%dl
    2f86:	80 fa 0d             	cmp    $0xd,%dl
    2f89:	74 0d                	je     2f98 <recv_eol+0x38>
    2f8b:	80 fa 0a             	cmp    $0xa,%dl
    2f8e:	74 08                	je     2f98 <recv_eol+0x38>
    2f90:	8d 65 f4             	lea    -0xc(%ebp),%esp
    2f93:	5b                   	pop    %ebx
    2f94:	5e                   	pop    %esi
    2f95:	5f                   	pop    %edi
    2f96:	5d                   	pop    %ebp
    2f97:	c3                   	ret    
    2f98:	89 f2                	mov    %esi,%edx
    2f9a:	89 d8                	mov    %ebx,%eax
    2f9c:	e8 af f9 ff ff       	call   2950 <recv_char.constprop.0>
    2fa1:	85 c0                	test   %eax,%eax
    2fa3:	75 eb                	jne    2f90 <recv_eol+0x30>
    2fa5:	80 7d e6 0d          	cmpb   $0xd,-0x1a(%ebp)
    2fa9:	8d 7d e7             	lea    -0x19(%ebp),%edi
    2fac:	c6 45 e7 00          	movb   $0x0,-0x19(%ebp)
    2fb0:	0f 95 c0             	setne  %al
    2fb3:	89 c6                	mov    %eax,%esi
    2fb5:	50                   	push   %eax
    2fb6:	6a 00                	push   $0x0
    2fb8:	57                   	push   %edi
    2fb9:	53                   	push   %ebx
    2fba:	e8 11 fd ff ff       	call   2cd0 <recv_char>
    2fbf:	8d 74 76 0a          	lea    0xa(%esi,%esi,2),%esi
    2fc3:	83 c4 10             	add    $0x10,%esp
    2fc6:	85 c0                	test   %eax,%eax
    2fc8:	75 26                	jne    2ff0 <recv_eol+0x90>
    2fca:	89 f1                	mov    %esi,%ecx
    2fcc:	b8 01 00 00 00       	mov    $0x1,%eax
    2fd1:	38 4d e7             	cmp    %cl,-0x19(%ebp)
    2fd4:	75 ba                	jne    2f90 <recv_eol+0x30>
    2fd6:	89 fa                	mov    %edi,%edx
    2fd8:	89 d8                	mov    %ebx,%eax
    2fda:	e8 71 f9 ff ff       	call   2950 <recv_char.constprop.0>
    2fdf:	85 c0                	test   %eax,%eax
    2fe1:	75 0d                	jne    2ff0 <recv_eol+0x90>
    2fe3:	b8 02 00 00 00       	mov    $0x2,%eax
    2fe8:	eb a6                	jmp    2f90 <recv_eol+0x30>
    2fea:	8d b6 00 00 00 00    	lea    0x0(%esi),%esi
    2ff0:	3d 00 00 00 80       	cmp    $0x80000000,%eax
    2ff5:	83 d0 00             	adc    $0x0,%eax
    2ff8:	eb 96                	jmp    2f90 <recv_eol+0x30>
    2ffa:	8d b6 00 00 00 00    	lea    0x0(%esi),%esi

00003000 <recv_line>:
    3000:	55                   	push   %ebp
    3001:	89 e5                	mov    %esp,%ebp
    3003:	57                   	push   %edi
    3004:	56                   	push   %esi
    3005:	53                   	push   %ebx
    3006:	83 ec 1c             	sub    $0x1c,%esp
    3009:	31 db                	xor    %ebx,%ebx
    300b:	8b 75 10             	mov    0x10(%ebp),%esi
    300e:	8b 7d 0c             	mov    0xc(%ebp),%edi
    3011:	85 f6                	test   %esi,%esi
    3013:	75 17                	jne    302c <recv_line+0x2c>
    3015:	eb 31                	jmp    3048 <recv_line+0x48>
    3017:	90                   	nop
    3018:	8a 45 e6             	mov    -0x1a(%ebp),%al
    301b:	3c 0a                	cmp    $0xa,%al
    301d:	74 39                	je     3058 <recv_line+0x58>
    301f:	3c 0d                	cmp    $0xd,%al
    3021:	74 65                	je     3088 <recv_line+0x88>
    3023:	43                   	inc    %ebx
    3024:	39 de                	cmp    %ebx,%esi
    3026:	88 44 1f ff          	mov    %al,-0x1(%edi,%ebx,1)
    302a:	74 1c                	je     3048 <recv_line+0x48>
    302c:	8d 55 e6             	lea    -0x1a(%ebp),%edx
    302f:	8b 45 08             	mov    0x8(%ebp),%eax
    3032:	c6 45 e6 00          	movb   $0x0,-0x1a(%ebp)
    3036:	e8 15 f9 ff ff       	call   2950 <recv_char.constprop.0>
    303b:	85 c0                	test   %eax,%eax
    303d:	74 d9                	je     3018 <recv_line+0x18>
    303f:	8d 65 f4             	lea    -0xc(%ebp),%esp
    3042:	5b                   	pop    %ebx
    3043:	5e                   	pop    %esi
    3044:	5f                   	pop    %edi
    3045:	5d                   	pop    %ebp
    3046:	c3                   	ret    
    3047:	90                   	nop
    3048:	8d 65 f4             	lea    -0xc(%ebp),%esp
    304b:	b8 fd ff ff ff       	mov    $0xfffffffd,%eax
    3050:	5b                   	pop    %ebx
    3051:	5e                   	pop    %esi
    3052:	5f                   	pop    %edi
    3053:	5d                   	pop    %ebp
    3054:	c3                   	ret    
    3055:	8d 76 00             	lea    0x0(%esi),%esi
    3058:	8b 45 08             	mov    0x8(%ebp),%eax
    305b:	8d 75 e7             	lea    -0x19(%ebp),%esi
    305e:	c6 45 e7 00          	movb   $0x0,-0x19(%ebp)
    3062:	51                   	push   %ecx
    3063:	6a 00                	push   $0x0
    3065:	56                   	push   %esi
    3066:	50                   	push   %eax
    3067:	e8 64 fc ff ff       	call   2cd0 <recv_char>
    306c:	83 c4 10             	add    $0x10,%esp
    306f:	85 c0                	test   %eax,%eax
    3071:	75 06                	jne    3079 <recv_line+0x79>
    3073:	80 7d e7 0d          	cmpb   $0xd,-0x19(%ebp)
    3077:	74 30                	je     30a9 <recv_line+0xa9>
    3079:	c6 04 1f 00          	movb   $0x0,(%edi,%ebx,1)
    307d:	8d 65 f4             	lea    -0xc(%ebp),%esp
    3080:	8d 43 01             	lea    0x1(%ebx),%eax
    3083:	5b                   	pop    %ebx
    3084:	5e                   	pop    %esi
    3085:	5f                   	pop    %edi
    3086:	5d                   	pop    %ebp
    3087:	c3                   	ret    
    3088:	8b 55 08             	mov    0x8(%ebp),%edx
    308b:	8d 75 e7             	lea    -0x19(%ebp),%esi
    308e:	c6 45 e7 00          	movb   $0x0,-0x19(%ebp)
    3092:	50                   	push   %eax
    3093:	6a 00                	push   $0x0
    3095:	56                   	push   %esi
    3096:	52                   	push   %edx
    3097:	e8 34 fc ff ff       	call   2cd0 <recv_char>
    309c:	83 c4 10             	add    $0x10,%esp
    309f:	85 c0                	test   %eax,%eax
    30a1:	75 d6                	jne    3079 <recv_line+0x79>
    30a3:	80 7d e7 0a          	cmpb   $0xa,-0x19(%ebp)
    30a7:	75 d0                	jne    3079 <recv_line+0x79>
    30a9:	89 f2                	mov    %esi,%edx
    30ab:	8b 45 08             	mov    0x8(%ebp),%eax
    30ae:	e8 9d f8 ff ff       	call   2950 <recv_char.constprop.0>
    30b3:	eb c4                	jmp    3079 <recv_line+0x79>
    30b5:	66 90                	xchg   %ax,%ax
    30b7:	66 90                	xchg   %ax,%ax
    30b9:	66 90                	xchg   %ax,%ax
    30bb:	66 90                	xchg   %ax,%ax
    30bd:	66 90                	xchg   %ax,%ax
    30bf:	90                   	nop

000030c0 <uri_parse>:
    30c0:	55                   	push   %ebp
    30c1:	89 e5                	mov    %esp,%ebp
    30c3:	57                   	push   %edi
    30c4:	56                   	push   %esi
    30c5:	53                   	push   %ebx
    30c6:	83 ec 28             	sub    $0x28,%esp
    30c9:	8b 7d 08             	mov    0x8(%ebp),%edi
    30cc:	6a 20                	push   $0x20
    30ce:	e8 ad 12 00 00       	call   4380 <malloc@plt>
    30d3:	83 c4 10             	add    $0x10,%esp
    30d6:	89 c6                	mov    %eax,%esi
    30d8:	85 c0                	test   %eax,%eax
    30da:	0f 84 ad 00 00 00    	je     318d <uri_parse+0xcd>
    30e0:	52                   	push   %edx
    30e1:	6a 20                	push   $0x20
    30e3:	6a 00                	push   $0x0
    30e5:	50                   	push   %eax
    30e6:	e8 55 13 00 00       	call   4440 <memset@plt>
    30eb:	8a 07                	mov    (%edi),%al
    30ed:	83 c4 10             	add    $0x10,%esp
    30f0:	89 fb                	mov    %edi,%ebx
    30f2:	84 c0                	test   %al,%al
    30f4:	75 09                	jne    30ff <uri_parse+0x3f>
    30f6:	eb 0b                	jmp    3103 <uri_parse+0x43>
    30f8:	43                   	inc    %ebx
    30f9:	8a 03                	mov    (%ebx),%al
    30fb:	84 c0                	test   %al,%al
    30fd:	74 04                	je     3103 <uri_parse+0x43>
    30ff:	3c 3a                	cmp    $0x3a,%al
    3101:	75 f5                	jne    30f8 <uri_parse+0x38>
    3103:	84 c0                	test   %al,%al
    3105:	0f 84 a9 01 00 00    	je     32b4 <uri_parse+0x1f4>
    310b:	50                   	push   %eax
    310c:	50                   	push   %eax
    310d:	89 d8                	mov    %ebx,%eax
    310f:	29 f8                	sub    %edi,%eax
    3111:	50                   	push   %eax
    3112:	57                   	push   %edi
    3113:	e8 38 12 00 00       	call   4350 <str_ndup@plt>
    3118:	8a 53 01             	mov    0x1(%ebx),%dl
    311b:	83 c4 10             	add    $0x10,%esp
    311e:	89 06                	mov    %eax,(%esi)
    3120:	8d 7b 01             	lea    0x1(%ebx),%edi
    3123:	80 fa 2f             	cmp    $0x2f,%dl
    3126:	0f 84 e4 00 00 00    	je     3210 <uri_parse+0x150>
    312c:	89 7d e4             	mov    %edi,-0x1c(%ebp)
    312f:	84 d2                	test   %dl,%dl
    3131:	0f 95 c1             	setne  %cl
    3134:	80 fa 3f             	cmp    $0x3f,%dl
    3137:	0f 95 c0             	setne  %al
    313a:	84 c1                	test   %al,%cl
    313c:	0f 84 d5 01 00 00    	je     3317 <uri_parse+0x257>
    3142:	80 fa 23             	cmp    $0x23,%dl
    3145:	0f 84 cc 01 00 00    	je     3317 <uri_parse+0x257>
    314b:	89 fb                	mov    %edi,%ebx
    314d:	eb 05                	jmp    3154 <uri_parse+0x94>
    314f:	90                   	nop
    3150:	3c 23                	cmp    $0x23,%al
    3152:	74 11                	je     3165 <uri_parse+0xa5>
    3154:	43                   	inc    %ebx
    3155:	8a 03                	mov    (%ebx),%al
    3157:	84 c0                	test   %al,%al
    3159:	0f 95 c1             	setne  %cl
    315c:	3c 3f                	cmp    $0x3f,%al
    315e:	0f 95 c2             	setne  %dl
    3161:	84 d1                	test   %dl,%cl
    3163:	75 eb                	jne    3150 <uri_parse+0x90>
    3165:	89 d8                	mov    %ebx,%eax
    3167:	8b 4d e4             	mov    -0x1c(%ebp),%ecx
    316a:	29 c8                	sub    %ecx,%eax
    316c:	52                   	push   %edx
    316d:	52                   	push   %edx
    316e:	50                   	push   %eax
    316f:	57                   	push   %edi
    3170:	e8 db 11 00 00       	call   4350 <str_ndup@plt>
    3175:	83 c4 10             	add    $0x10,%esp
    3178:	89 46 14             	mov    %eax,0x14(%esi)
    317b:	8a 03                	mov    (%ebx),%al
    317d:	3c 3f                	cmp    $0x3f,%al
    317f:	74 47                	je     31c8 <uri_parse+0x108>
    3181:	3c 23                	cmp    $0x23,%al
    3183:	74 13                	je     3198 <uri_parse+0xd8>
    3185:	84 c0                	test   %al,%al
    3187:	0f 85 02 03 00 00    	jne    348f <uri_parse+0x3cf>
    318d:	8d 65 f4             	lea    -0xc(%ebp),%esp
    3190:	89 f0                	mov    %esi,%eax
    3192:	5b                   	pop    %ebx
    3193:	5e                   	pop    %esi
    3194:	5f                   	pop    %edi
    3195:	5d                   	pop    %ebp
    3196:	c3                   	ret    
    3197:	90                   	nop
    3198:	8d 43 01             	lea    0x1(%ebx),%eax
    319b:	80 7b 01 00          	cmpb   $0x0,0x1(%ebx)
    319f:	89 c3                	mov    %eax,%ebx
    31a1:	0f 84 79 01 00 00    	je     3320 <uri_parse+0x260>
    31a7:	90                   	nop
    31a8:	43                   	inc    %ebx
    31a9:	80 3b 00             	cmpb   $0x0,(%ebx)
    31ac:	75 fa                	jne    31a8 <uri_parse+0xe8>
    31ae:	89 da                	mov    %ebx,%edx
    31b0:	29 c2                	sub    %eax,%edx
    31b2:	51                   	push   %ecx
    31b3:	51                   	push   %ecx
    31b4:	52                   	push   %edx
    31b5:	50                   	push   %eax
    31b6:	e8 95 11 00 00       	call   4350 <str_ndup@plt>
    31bb:	83 c4 10             	add    $0x10,%esp
    31be:	89 46 1c             	mov    %eax,0x1c(%esi)
    31c1:	8a 03                	mov    (%ebx),%al
    31c3:	eb c0                	jmp    3185 <uri_parse+0xc5>
    31c5:	8d 76 00             	lea    0x0(%esi),%esi
    31c8:	8a 43 01             	mov    0x1(%ebx),%al
    31cb:	8d 53 01             	lea    0x1(%ebx),%edx
    31ce:	89 d3                	mov    %edx,%ebx
    31d0:	84 c0                	test   %al,%al
    31d2:	0f 84 4f 01 00 00    	je     3327 <uri_parse+0x267>
    31d8:	3c 23                	cmp    $0x23,%al
    31da:	75 10                	jne    31ec <uri_parse+0x12c>
    31dc:	e9 46 01 00 00       	jmp    3327 <uri_parse+0x267>
    31e1:	8d b4 26 00 00 00 00 	lea    0x0(%esi,%eiz,1),%esi
    31e8:	3c 23                	cmp    $0x23,%al
    31ea:	74 07                	je     31f3 <uri_parse+0x133>
    31ec:	43                   	inc    %ebx
    31ed:	8a 03                	mov    (%ebx),%al
    31ef:	84 c0                	test   %al,%al
    31f1:	75 f5                	jne    31e8 <uri_parse+0x128>
    31f3:	89 d8                	mov    %ebx,%eax
    31f5:	29 d0                	sub    %edx,%eax
    31f7:	57                   	push   %edi
    31f8:	57                   	push   %edi
    31f9:	50                   	push   %eax
    31fa:	52                   	push   %edx
    31fb:	e8 50 11 00 00       	call   4350 <str_ndup@plt>
    3200:	83 c4 10             	add    $0x10,%esp
    3203:	89 46 18             	mov    %eax,0x18(%esi)
    3206:	8a 03                	mov    (%ebx),%al
    3208:	e9 74 ff ff ff       	jmp    3181 <uri_parse+0xc1>
    320d:	8d 76 00             	lea    0x0(%esi),%esi
    3210:	80 7b 02 2f          	cmpb   $0x2f,0x2(%ebx)
    3214:	74 08                	je     321e <uri_parse+0x15e>
    3216:	89 7d e4             	mov    %edi,-0x1c(%ebp)
    3219:	e9 2d ff ff ff       	jmp    314b <uri_parse+0x8b>
    321e:	8a 43 03             	mov    0x3(%ebx),%al
    3221:	8d 4b 03             	lea    0x3(%ebx),%ecx
    3224:	84 c0                	test   %al,%al
    3226:	0f 95 c3             	setne  %bl
    3229:	3c 23                	cmp    $0x23,%al
    322b:	0f 95 c2             	setne  %dl
    322e:	21 d3                	and    %edx,%ebx
    3230:	3c 3a                	cmp    $0x3a,%al
    3232:	0f 95 c2             	setne  %dl
    3235:	21 d3                	and    %edx,%ebx
    3237:	3c 2f                	cmp    $0x2f,%al
    3239:	0f 95 c2             	setne  %dl
    323c:	84 d3                	test   %dl,%bl
    323e:	0f 84 33 02 00 00    	je     3477 <uri_parse+0x3b7>
    3244:	83 e8 3f             	sub    $0x3f,%eax
    3247:	3c 01                	cmp    $0x1,%al
    3249:	0f 86 28 02 00 00    	jbe    3477 <uri_parse+0x3b7>
    324f:	89 cf                	mov    %ecx,%edi
    3251:	eb 0c                	jmp    325f <uri_parse+0x19f>
    3253:	90                   	nop
    3254:	8d 74 26 00          	lea    0x0(%esi,%eiz,1),%esi
    3258:	83 e8 3f             	sub    $0x3f,%eax
    325b:	3c 01                	cmp    $0x1,%al
    325d:	76 1f                	jbe    327e <uri_parse+0x1be>
    325f:	47                   	inc    %edi
    3260:	8a 07                	mov    (%edi),%al
    3262:	3c 23                	cmp    $0x23,%al
    3264:	0f 95 c3             	setne  %bl
    3267:	84 c0                	test   %al,%al
    3269:	0f 95 c2             	setne  %dl
    326c:	21 d3                	and    %edx,%ebx
    326e:	3c 3a                	cmp    $0x3a,%al
    3270:	0f 95 c2             	setne  %dl
    3273:	21 d3                	and    %edx,%ebx
    3275:	3c 2f                	cmp    $0x2f,%al
    3277:	0f 95 c2             	setne  %dl
    327a:	84 d3                	test   %dl,%bl
    327c:	75 da                	jne    3258 <uri_parse+0x198>
    327e:	89 f8                	mov    %edi,%eax
    3280:	89 7d e4             	mov    %edi,-0x1c(%ebp)
    3283:	29 c8                	sub    %ecx,%eax
    3285:	53                   	push   %ebx
    3286:	53                   	push   %ebx
    3287:	50                   	push   %eax
    3288:	51                   	push   %ecx
    3289:	e8 c2 10 00 00       	call   4350 <str_ndup@plt>
    328e:	8a 17                	mov    (%edi),%dl
    3290:	89 c3                	mov    %eax,%ebx
    3292:	83 c4 10             	add    $0x10,%esp
    3295:	31 c0                	xor    %eax,%eax
    3297:	80 fa 3a             	cmp    $0x3a,%dl
    329a:	0f 84 6d 01 00 00    	je     340d <uri_parse+0x34d>
    32a0:	80 fa 40             	cmp    $0x40,%dl
    32a3:	0f 84 85 00 00 00    	je     332e <uri_parse+0x26e>
    32a9:	89 5e 0c             	mov    %ebx,0xc(%esi)
    32ac:	89 46 10             	mov    %eax,0x10(%esi)
    32af:	e9 7b fe ff ff       	jmp    312f <uri_parse+0x6f>
    32b4:	83 ec 0c             	sub    $0xc,%esp
    32b7:	8b 06                	mov    (%esi),%eax
    32b9:	50                   	push   %eax
    32ba:	e8 41 12 00 00       	call   4500 <free@plt>
    32bf:	58                   	pop    %eax
    32c0:	8b 46 04             	mov    0x4(%esi),%eax
    32c3:	50                   	push   %eax
    32c4:	e8 37 12 00 00       	call   4500 <free@plt>
    32c9:	58                   	pop    %eax
    32ca:	8b 46 08             	mov    0x8(%esi),%eax
    32cd:	50                   	push   %eax
    32ce:	e8 2d 12 00 00       	call   4500 <free@plt>
    32d3:	8b 4e 0c             	mov    0xc(%esi),%ecx
    32d6:	5a                   	pop    %edx
    32d7:	51                   	push   %ecx
    32d8:	e8 23 12 00 00       	call   4500 <free@plt>
    32dd:	8b 7e 10             	mov    0x10(%esi),%edi
    32e0:	5b                   	pop    %ebx
    32e1:	57                   	push   %edi
    32e2:	e8 19 12 00 00       	call   4500 <free@plt>
    32e7:	58                   	pop    %eax
    32e8:	8b 46 14             	mov    0x14(%esi),%eax
    32eb:	50                   	push   %eax
    32ec:	e8 0f 12 00 00       	call   4500 <free@plt>
    32f1:	58                   	pop    %eax
    32f2:	8b 46 18             	mov    0x18(%esi),%eax
    32f5:	50                   	push   %eax
    32f6:	e8 05 12 00 00       	call   4500 <free@plt>
    32fb:	58                   	pop    %eax
    32fc:	8b 46 1c             	mov    0x1c(%esi),%eax
    32ff:	50                   	push   %eax
    3300:	e8 fb 11 00 00       	call   4500 <free@plt>
    3305:	89 34 24             	mov    %esi,(%esp)
    3308:	e8 f3 11 00 00       	call   4500 <free@plt>
    330d:	31 f6                	xor    %esi,%esi
    330f:	83 c4 10             	add    $0x10,%esp
    3312:	e9 76 fe ff ff       	jmp    318d <uri_parse+0xcd>
    3317:	89 fb                	mov    %edi,%ebx
    3319:	31 c0                	xor    %eax,%eax
    331b:	e9 4c fe ff ff       	jmp    316c <uri_parse+0xac>
    3320:	31 d2                	xor    %edx,%edx
    3322:	e9 8b fe ff ff       	jmp    31b2 <uri_parse+0xf2>
    3327:	31 c0                	xor    %eax,%eax
    3329:	e9 c9 fe ff ff       	jmp    31f7 <uri_parse+0x137>
    332e:	89 46 08             	mov    %eax,0x8(%esi)
    3331:	8a 47 01             	mov    0x1(%edi),%al
    3334:	84 c0                	test   %al,%al
    3336:	89 5e 04             	mov    %ebx,0x4(%esi)
    3339:	0f 95 c3             	setne  %bl
    333c:	3c 23                	cmp    $0x23,%al
    333e:	8d 4f 01             	lea    0x1(%edi),%ecx
    3341:	0f 95 c2             	setne  %dl
    3344:	21 d3                	and    %edx,%ebx
    3346:	3c 3a                	cmp    $0x3a,%al
    3348:	0f 95 c2             	setne  %dl
    334b:	84 d3                	test   %dl,%bl
    334d:	0f 84 5d 01 00 00    	je     34b0 <uri_parse+0x3f0>
    3353:	83 e0 ef             	and    $0xffffffef,%eax
    3356:	3c 2f                	cmp    $0x2f,%al
    3358:	0f 84 52 01 00 00    	je     34b0 <uri_parse+0x3f0>
    335e:	89 cf                	mov    %ecx,%edi
    3360:	eb 0d                	jmp    336f <uri_parse+0x2af>
    3362:	8d b6 00 00 00 00    	lea    0x0(%esi),%esi
    3368:	83 e0 ef             	and    $0xffffffef,%eax
    336b:	3c 2f                	cmp    $0x2f,%al
    336d:	74 18                	je     3387 <uri_parse+0x2c7>
    336f:	47                   	inc    %edi
    3370:	8a 07                	mov    (%edi),%al
    3372:	84 c0                	test   %al,%al
    3374:	0f 95 c3             	setne  %bl
    3377:	3c 23                	cmp    $0x23,%al
    3379:	0f 95 c2             	setne  %dl
    337c:	21 d3                	and    %edx,%ebx
    337e:	3c 3a                	cmp    $0x3a,%al
    3380:	0f 95 c2             	setne  %dl
    3383:	84 d3                	test   %dl,%bl
    3385:	75 e1                	jne    3368 <uri_parse+0x2a8>
    3387:	89 f8                	mov    %edi,%eax
    3389:	89 7d e4             	mov    %edi,-0x1c(%ebp)
    338c:	29 c8                	sub    %ecx,%eax
    338e:	52                   	push   %edx
    338f:	52                   	push   %edx
    3390:	50                   	push   %eax
    3391:	51                   	push   %ecx
    3392:	e8 b9 0f 00 00       	call   4350 <str_ndup@plt>
    3397:	8a 17                	mov    (%edi),%dl
    3399:	83 c4 10             	add    $0x10,%esp
    339c:	89 46 0c             	mov    %eax,0xc(%esi)
    339f:	80 fa 3a             	cmp    $0x3a,%dl
    33a2:	0f 85 87 fd ff ff    	jne    312f <uri_parse+0x6f>
    33a8:	8a 5f 01             	mov    0x1(%edi),%bl
    33ab:	8d 4f 01             	lea    0x1(%edi),%ecx
    33ae:	80 fb 23             	cmp    $0x23,%bl
    33b1:	0f 95 c2             	setne  %dl
    33b4:	84 db                	test   %bl,%bl
    33b6:	0f 95 c0             	setne  %al
    33b9:	84 c2                	test   %al,%dl
    33bb:	0f 84 e3 00 00 00    	je     34a4 <uri_parse+0x3e4>
    33c1:	83 e3 ef             	and    $0xffffffef,%ebx
    33c4:	80 fb 2f             	cmp    $0x2f,%bl
    33c7:	0f 84 d7 00 00 00    	je     34a4 <uri_parse+0x3e4>
    33cd:	89 cf                	mov    %ecx,%edi
    33cf:	eb 0e                	jmp    33df <uri_parse+0x31f>
    33d1:	8d b4 26 00 00 00 00 	lea    0x0(%esi,%eiz,1),%esi
    33d8:	83 e0 ef             	and    $0xffffffef,%eax
    33db:	3c 2f                	cmp    $0x2f,%al
    33dd:	74 11                	je     33f0 <uri_parse+0x330>
    33df:	47                   	inc    %edi
    33e0:	8a 07                	mov    (%edi),%al
    33e2:	84 c0                	test   %al,%al
    33e4:	0f 95 c3             	setne  %bl
    33e7:	3c 23                	cmp    $0x23,%al
    33e9:	0f 95 c2             	setne  %dl
    33ec:	84 d3                	test   %dl,%bl
    33ee:	75 e8                	jne    33d8 <uri_parse+0x318>
    33f0:	89 f8                	mov    %edi,%eax
    33f2:	89 7d e4             	mov    %edi,-0x1c(%ebp)
    33f5:	29 c8                	sub    %ecx,%eax
    33f7:	53                   	push   %ebx
    33f8:	53                   	push   %ebx
    33f9:	50                   	push   %eax
    33fa:	51                   	push   %ecx
    33fb:	e8 50 0f 00 00       	call   4350 <str_ndup@plt>
    3400:	8a 17                	mov    (%edi),%dl
    3402:	89 46 10             	mov    %eax,0x10(%esi)
    3405:	83 c4 10             	add    $0x10,%esp
    3408:	e9 22 fd ff ff       	jmp    312f <uri_parse+0x6f>
    340d:	8d 47 01             	lea    0x1(%edi),%eax
    3410:	89 45 e0             	mov    %eax,-0x20(%ebp)
    3413:	8a 47 01             	mov    0x1(%edi),%al
    3416:	84 c0                	test   %al,%al
    3418:	0f 95 c1             	setne  %cl
    341b:	3c 23                	cmp    $0x23,%al
    341d:	0f 95 c2             	setne  %dl
    3420:	21 d1                	and    %edx,%ecx
    3422:	3c 2f                	cmp    $0x2f,%al
    3424:	0f 95 c2             	setne  %dl
    3427:	84 d1                	test   %dl,%cl
    3429:	74 58                	je     3483 <uri_parse+0x3c3>
    342b:	83 e8 3f             	sub    $0x3f,%eax
    342e:	3c 01                	cmp    $0x1,%al
    3430:	76 51                	jbe    3483 <uri_parse+0x3c3>
    3432:	8b 7d e0             	mov    -0x20(%ebp),%edi
    3435:	eb 08                	jmp    343f <uri_parse+0x37f>
    3437:	90                   	nop
    3438:	83 e8 3f             	sub    $0x3f,%eax
    343b:	3c 01                	cmp    $0x1,%al
    343d:	76 18                	jbe    3457 <uri_parse+0x397>
    343f:	47                   	inc    %edi
    3440:	8a 07                	mov    (%edi),%al
    3442:	84 c0                	test   %al,%al
    3444:	0f 95 c1             	setne  %cl
    3447:	3c 23                	cmp    $0x23,%al
    3449:	0f 95 c2             	setne  %dl
    344c:	21 d1                	and    %edx,%ecx
    344e:	3c 2f                	cmp    $0x2f,%al
    3450:	0f 95 c2             	setne  %dl
    3453:	84 d1                	test   %dl,%cl
    3455:	75 e1                	jne    3438 <uri_parse+0x378>
    3457:	89 f8                	mov    %edi,%eax
    3459:	8b 55 e0             	mov    -0x20(%ebp),%edx
    345c:	89 7d e4             	mov    %edi,-0x1c(%ebp)
    345f:	29 d0                	sub    %edx,%eax
    3461:	51                   	push   %ecx
    3462:	51                   	push   %ecx
    3463:	50                   	push   %eax
    3464:	8b 45 e0             	mov    -0x20(%ebp),%eax
    3467:	50                   	push   %eax
    3468:	e8 e3 0e 00 00       	call   4350 <str_ndup@plt>
    346d:	8a 17                	mov    (%edi),%dl
    346f:	83 c4 10             	add    $0x10,%esp
    3472:	e9 29 fe ff ff       	jmp    32a0 <uri_parse+0x1e0>
    3477:	89 4d e4             	mov    %ecx,-0x1c(%ebp)
    347a:	89 cf                	mov    %ecx,%edi
    347c:	31 c0                	xor    %eax,%eax
    347e:	e9 02 fe ff ff       	jmp    3285 <uri_parse+0x1c5>
    3483:	8b 45 e0             	mov    -0x20(%ebp),%eax
    3486:	89 45 e4             	mov    %eax,-0x1c(%ebp)
    3489:	89 c7                	mov    %eax,%edi
    348b:	31 c0                	xor    %eax,%eax
    348d:	eb d2                	jmp    3461 <uri_parse+0x3a1>
    348f:	50                   	push   %eax
    3490:	68 86 00 00 00       	push   $0x86
    3495:	68 7b 41 00 00       	push   $0x417b
    349a:	68 81 41 00 00       	push   $0x4181
    349f:	e8 0c 0f 00 00       	call   43b0 <assert_abort@plt>
    34a4:	89 4d e4             	mov    %ecx,-0x1c(%ebp)
    34a7:	89 cf                	mov    %ecx,%edi
    34a9:	31 c0                	xor    %eax,%eax
    34ab:	e9 47 ff ff ff       	jmp    33f7 <uri_parse+0x337>
    34b0:	89 4d e4             	mov    %ecx,-0x1c(%ebp)
    34b3:	89 cf                	mov    %ecx,%edi
    34b5:	31 c0                	xor    %eax,%eax
    34b7:	e9 d2 fe ff ff       	jmp    338e <uri_parse+0x2ce>
    34bc:	8d 74 26 00          	lea    0x0(%esi,%eiz,1),%esi

000034c0 <uri_scheme_parse>:
    34c0:	55                   	push   %ebp
    34c1:	89 e5                	mov    %esp,%ebp
    34c3:	56                   	push   %esi
    34c4:	53                   	push   %ebx
    34c5:	8b 4d 08             	mov    0x8(%ebp),%ecx
    34c8:	8b 75 0c             	mov    0xc(%ebp),%esi
    34cb:	8a 01                	mov    (%ecx),%al
    34cd:	84 c0                	test   %al,%al
    34cf:	74 52                	je     3523 <uri_scheme_parse+0x63>
    34d1:	83 e0 df             	and    $0xffffffdf,%eax
    34d4:	83 e8 41             	sub    $0x41,%eax
    34d7:	3c 19                	cmp    $0x19,%al
    34d9:	77 3d                	ja     3518 <uri_scheme_parse+0x58>
    34db:	90                   	nop
    34dc:	8d 74 26 00          	lea    0x0(%esi,%eiz,1),%esi
    34e0:	8a 11                	mov    (%ecx),%dl
    34e2:	88 d0                	mov    %dl,%al
    34e4:	83 e0 df             	and    $0xffffffdf,%eax
    34e7:	83 e8 41             	sub    $0x41,%eax
    34ea:	3c 19                	cmp    $0x19,%al
    34ec:	76 1e                	jbe    350c <uri_scheme_parse+0x4c>
    34ee:	0f be c2             	movsbl %dl,%eax
    34f1:	83 e8 30             	sub    $0x30,%eax
    34f4:	83 f8 09             	cmp    $0x9,%eax
    34f7:	0f 96 c3             	setbe  %bl
    34fa:	80 fa 2b             	cmp    $0x2b,%dl
    34fd:	0f 94 c0             	sete   %al
    3500:	08 c3                	or     %al,%bl
    3502:	75 08                	jne    350c <uri_scheme_parse+0x4c>
    3504:	83 ea 2d             	sub    $0x2d,%edx
    3507:	80 fa 01             	cmp    $0x1,%dl
    350a:	77 04                	ja     3510 <uri_scheme_parse+0x50>
    350c:	41                   	inc    %ecx
    350d:	eb d1                	jmp    34e0 <uri_scheme_parse+0x20>
    350f:	90                   	nop
    3510:	89 0e                	mov    %ecx,(%esi)
    3512:	31 c0                	xor    %eax,%eax
    3514:	5b                   	pop    %ebx
    3515:	5e                   	pop    %esi
    3516:	5d                   	pop    %ebp
    3517:	c3                   	ret    
    3518:	89 0e                	mov    %ecx,(%esi)
    351a:	b8 f2 ff ff ff       	mov    $0xfffffff2,%eax
    351f:	5b                   	pop    %ebx
    3520:	5e                   	pop    %esi
    3521:	5d                   	pop    %ebp
    3522:	c3                   	ret    
    3523:	89 0e                	mov    %ecx,(%esi)
    3525:	b8 fd ff ff ff       	mov    $0xfffffffd,%eax
    352a:	eb e8                	jmp    3514 <uri_scheme_parse+0x54>
    352c:	8d 74 26 00          	lea    0x0(%esi,%eiz,1),%esi

00003530 <uri_scheme_validate>:
    3530:	55                   	push   %ebp
    3531:	89 e5                	mov    %esp,%ebp
    3533:	53                   	push   %ebx
    3534:	8b 4d 08             	mov    0x8(%ebp),%ecx
    3537:	8a 01                	mov    (%ecx),%al
    3539:	84 c0                	test   %al,%al
    353b:	74 4b                	je     3588 <uri_scheme_validate+0x58>
    353d:	83 e0 df             	and    $0xffffffdf,%eax
    3540:	8d 50 bf             	lea    -0x41(%eax),%edx
    3543:	31 c0                	xor    %eax,%eax
    3545:	80 fa 19             	cmp    $0x19,%dl
    3548:	77 3b                	ja     3585 <uri_scheme_validate+0x55>
    354a:	8d b6 00 00 00 00    	lea    0x0(%esi),%esi
    3550:	8a 11                	mov    (%ecx),%dl
    3552:	88 d0                	mov    %dl,%al
    3554:	83 e0 df             	and    $0xffffffdf,%eax
    3557:	83 e8 41             	sub    $0x41,%eax
    355a:	3c 19                	cmp    $0x19,%al
    355c:	76 1d                	jbe    357b <uri_scheme_validate+0x4b>
    355e:	0f be c2             	movsbl %dl,%eax
    3561:	83 e8 30             	sub    $0x30,%eax
    3564:	83 f8 09             	cmp    $0x9,%eax
    3567:	0f 96 c3             	setbe  %bl
    356a:	80 fa 2b             	cmp    $0x2b,%dl
    356d:	0f 94 c0             	sete   %al
    3570:	08 c3                	or     %al,%bl
    3572:	75 07                	jne    357b <uri_scheme_validate+0x4b>
    3574:	8d 42 d3             	lea    -0x2d(%edx),%eax
    3577:	3c 01                	cmp    $0x1,%al
    3579:	77 05                	ja     3580 <uri_scheme_validate+0x50>
    357b:	41                   	inc    %ecx
    357c:	eb d2                	jmp    3550 <uri_scheme_validate+0x20>
    357e:	66 90                	xchg   %ax,%ax
    3580:	84 d2                	test   %dl,%dl
    3582:	0f 94 c0             	sete   %al
    3585:	5b                   	pop    %ebx
    3586:	5d                   	pop    %ebp
    3587:	c3                   	ret    
    3588:	31 c0                	xor    %eax,%eax
    358a:	eb f9                	jmp    3585 <uri_scheme_validate+0x55>
    358c:	8d 74 26 00          	lea    0x0(%esi,%eiz,1),%esi

00003590 <uri_percent_parse>:
    3590:	55                   	push   %ebp
    3591:	89 e5                	mov    %esp,%ebp
    3593:	57                   	push   %edi
    3594:	56                   	push   %esi
    3595:	53                   	push   %ebx
    3596:	83 ec 0c             	sub    $0xc,%esp
    3599:	8b 75 0c             	mov    0xc(%ebp),%esi
    359c:	8b 5d 08             	mov    0x8(%ebp),%ebx
    359f:	8b 7d 10             	mov    0x10(%ebp),%edi
    35a2:	89 1e                	mov    %ebx,(%esi)
    35a4:	8a 13                	mov    (%ebx),%dl
    35a6:	84 d2                	test   %dl,%dl
    35a8:	0f 84 82 00 00 00    	je     3630 <uri_percent_parse+0xa0>
    35ae:	8a 43 01             	mov    0x1(%ebx),%al
    35b1:	84 c0                	test   %al,%al
    35b3:	74 7b                	je     3630 <uri_percent_parse+0xa0>
    35b5:	8a 4b 02             	mov    0x2(%ebx),%cl
    35b8:	84 c9                	test   %cl,%cl
    35ba:	74 74                	je     3630 <uri_percent_parse+0xa0>
    35bc:	80 fa 25             	cmp    $0x25,%dl
    35bf:	75 49                	jne    360a <uri_percent_parse+0x7a>
    35c1:	8d 50 d0             	lea    -0x30(%eax),%edx
    35c4:	80 fa 09             	cmp    $0x9,%dl
    35c7:	77 37                	ja     3600 <uri_percent_parse+0x70>
    35c9:	8d 41 d0             	lea    -0x30(%ecx),%eax
    35cc:	3c 09                	cmp    $0x9,%al
    35ce:	77 48                	ja     3618 <uri_percent_parse+0x88>
    35d0:	85 ff                	test   %edi,%edi
    35d2:	74 1a                	je     35ee <uri_percent_parse+0x5e>
    35d4:	83 ec 0c             	sub    $0xc,%esp
    35d7:	8d 43 01             	lea    0x1(%ebx),%eax
    35da:	57                   	push   %edi
    35db:	6a 01                	push   $0x1
    35dd:	6a 10                	push   $0x10
    35df:	6a 00                	push   $0x0
    35e1:	50                   	push   %eax
    35e2:	e8 09 0e 00 00       	call   43f0 <str_uint8_t@plt>
    35e7:	83 c4 20             	add    $0x20,%esp
    35ea:	85 c0                	test   %eax,%eax
    35ec:	75 07                	jne    35f5 <uri_percent_parse+0x65>
    35ee:	83 c3 03             	add    $0x3,%ebx
    35f1:	31 c0                	xor    %eax,%eax
    35f3:	89 1e                	mov    %ebx,(%esi)
    35f5:	8d 65 f4             	lea    -0xc(%ebp),%esp
    35f8:	5b                   	pop    %ebx
    35f9:	5e                   	pop    %esi
    35fa:	5f                   	pop    %edi
    35fb:	5d                   	pop    %ebp
    35fc:	c3                   	ret    
    35fd:	8d 76 00             	lea    0x0(%esi),%esi
    3600:	83 e0 df             	and    $0xffffffdf,%eax
    3603:	83 e8 41             	sub    $0x41,%eax
    3606:	3c 05                	cmp    $0x5,%al
    3608:	76 bf                	jbe    35c9 <uri_percent_parse+0x39>
    360a:	b8 f2 ff ff ff       	mov    $0xfffffff2,%eax
    360f:	8d 65 f4             	lea    -0xc(%ebp),%esp
    3612:	5b                   	pop    %ebx
    3613:	5e                   	pop    %esi
    3614:	5f                   	pop    %edi
    3615:	5d                   	pop    %ebp
    3616:	c3                   	ret    
    3617:	90                   	nop
    3618:	83 e1 df             	and    $0xffffffdf,%ecx
    361b:	83 e9 41             	sub    $0x41,%ecx
    361e:	80 f9 05             	cmp    $0x5,%cl
    3621:	76 ad                	jbe    35d0 <uri_percent_parse+0x40>
    3623:	b8 f2 ff ff ff       	mov    $0xfffffff2,%eax
    3628:	eb e5                	jmp    360f <uri_percent_parse+0x7f>
    362a:	8d b6 00 00 00 00    	lea    0x0(%esi),%esi
    3630:	8d 65 f4             	lea    -0xc(%ebp),%esp
    3633:	b8 fd ff ff ff       	mov    $0xfffffffd,%eax
    3638:	5b                   	pop    %ebx
    3639:	5e                   	pop    %esi
    363a:	5f                   	pop    %edi
    363b:	5d                   	pop    %ebp
    363c:	c3                   	ret    
    363d:	8d 76 00             	lea    0x0(%esi),%esi

00003640 <uri_user_info_parse>:
    3640:	55                   	push   %ebp
    3641:	89 e5                	mov    %esp,%ebp
    3643:	53                   	push   %ebx
    3644:	8b 4d 08             	mov    0x8(%ebp),%ecx
    3647:	80 39 00             	cmpb   $0x0,(%ecx)
    364a:	0f 84 a8 00 00 00    	je     36f8 <uri_user_info_parse+0xb8>
    3650:	8a 01                	mov    (%ecx),%al
    3652:	88 c2                	mov    %al,%dl
    3654:	83 e2 df             	and    $0xffffffdf,%edx
    3657:	83 ea 41             	sub    $0x41,%edx
    365a:	80 fa 19             	cmp    $0x19,%dl
    365d:	76 39                	jbe    3698 <uri_user_info_parse+0x58>
    365f:	0f be d0             	movsbl %al,%edx
    3662:	83 ea 30             	sub    $0x30,%edx
    3665:	83 fa 09             	cmp    $0x9,%edx
    3668:	76 2e                	jbe    3698 <uri_user_info_parse+0x58>
    366a:	8d 50 d3             	lea    -0x2d(%eax),%edx
    366d:	80 fa 01             	cmp    $0x1,%dl
    3670:	76 26                	jbe    3698 <uri_user_info_parse+0x58>
    3672:	3c 5f                	cmp    $0x5f,%al
    3674:	74 22                	je     3698 <uri_user_info_parse+0x58>
    3676:	3c 7e                	cmp    $0x7e,%al
    3678:	74 1e                	je     3698 <uri_user_info_parse+0x58>
    367a:	8d 50 df             	lea    -0x21(%eax),%edx
    367d:	80 fa 1c             	cmp    $0x1c,%dl
    3680:	77 0e                	ja     3690 <uri_user_info_parse+0x50>
    3682:	81 e2 ff 00 00 00    	and    $0xff,%edx
    3688:	ff 24 95 8c 41 00 00 	jmp    *0x418c(,%edx,4)
    368f:	90                   	nop
    3690:	3c 3a                	cmp    $0x3a,%al
    3692:	75 0c                	jne    36a0 <uri_user_info_parse+0x60>
    3694:	8d 74 26 00          	lea    0x0(%esi,%eiz,1),%esi
    3698:	41                   	inc    %ecx
    3699:	eb b5                	jmp    3650 <uri_user_info_parse+0x10>
    369b:	90                   	nop
    369c:	8d 74 26 00          	lea    0x0(%esi,%eiz,1),%esi
    36a0:	84 c0                	test   %al,%al
    36a2:	74 54                	je     36f8 <uri_user_info_parse+0xb8>
    36a4:	8a 51 01             	mov    0x1(%ecx),%dl
    36a7:	84 d2                	test   %dl,%dl
    36a9:	74 57                	je     3702 <uri_user_info_parse+0xc2>
    36ab:	8a 59 02             	mov    0x2(%ecx),%bl
    36ae:	84 db                	test   %bl,%bl
    36b0:	74 50                	je     3702 <uri_user_info_parse+0xc2>
    36b2:	3c 25                	cmp    $0x25,%al
    36b4:	75 12                	jne    36c8 <uri_user_info_parse+0x88>
    36b6:	8d 42 d0             	lea    -0x30(%edx),%eax
    36b9:	3c 09                	cmp    $0x9,%al
    36bb:	76 1b                	jbe    36d8 <uri_user_info_parse+0x98>
    36bd:	83 e2 df             	and    $0xffffffdf,%edx
    36c0:	83 ea 41             	sub    $0x41,%edx
    36c3:	80 fa 05             	cmp    $0x5,%dl
    36c6:	76 10                	jbe    36d8 <uri_user_info_parse+0x98>
    36c8:	b8 f2 ff ff ff       	mov    $0xfffffff2,%eax
    36cd:	8b 5d 0c             	mov    0xc(%ebp),%ebx
    36d0:	89 0b                	mov    %ecx,(%ebx)
    36d2:	5b                   	pop    %ebx
    36d3:	5d                   	pop    %ebp
    36d4:	c3                   	ret    
    36d5:	8d 76 00             	lea    0x0(%esi),%esi
    36d8:	8d 43 d0             	lea    -0x30(%ebx),%eax
    36db:	3c 09                	cmp    $0x9,%al
    36dd:	76 0b                	jbe    36ea <uri_user_info_parse+0xaa>
    36df:	83 e3 df             	and    $0xffffffdf,%ebx
    36e2:	83 eb 41             	sub    $0x41,%ebx
    36e5:	80 fb 05             	cmp    $0x5,%bl
    36e8:	77 de                	ja     36c8 <uri_user_info_parse+0x88>
    36ea:	8a 41 03             	mov    0x3(%ecx),%al
    36ed:	83 c1 03             	add    $0x3,%ecx
    36f0:	84 c0                	test   %al,%al
    36f2:	0f 85 58 ff ff ff    	jne    3650 <uri_user_info_parse+0x10>
    36f8:	8b 45 0c             	mov    0xc(%ebp),%eax
    36fb:	89 08                	mov    %ecx,(%eax)
    36fd:	31 c0                	xor    %eax,%eax
    36ff:	5b                   	pop    %ebx
    3700:	5d                   	pop    %ebp
    3701:	c3                   	ret    
    3702:	b8 fd ff ff ff       	mov    $0xfffffffd,%eax
    3707:	eb c4                	jmp    36cd <uri_user_info_parse+0x8d>
    3709:	8d b4 26 00 00 00 00 	lea    0x0(%esi,%eiz,1),%esi

00003710 <uri_user_info_validate>:
    3710:	55                   	push   %ebp
    3711:	89 e5                	mov    %esp,%ebp
    3713:	83 ec 10             	sub    $0x10,%esp
    3716:	8d 45 fc             	lea    -0x4(%ebp),%eax
    3719:	c7 45 fc 00 00 00 00 	movl   $0x0,-0x4(%ebp)
    3720:	50                   	push   %eax
    3721:	8b 45 08             	mov    0x8(%ebp),%eax
    3724:	50                   	push   %eax
    3725:	e8 16 ff ff ff       	call   3640 <uri_user_info_parse>
    372a:	5a                   	pop    %edx
    372b:	31 d2                	xor    %edx,%edx
    372d:	59                   	pop    %ecx
    372e:	85 c0                	test   %eax,%eax
    3730:	75 09                	jne    373b <uri_user_info_validate+0x2b>
    3732:	8b 45 fc             	mov    -0x4(%ebp),%eax
    3735:	80 38 00             	cmpb   $0x0,(%eax)
    3738:	0f 94 c2             	sete   %dl
    373b:	88 d0                	mov    %dl,%al
    373d:	c9                   	leave  
    373e:	c3                   	ret    
    373f:	90                   	nop

00003740 <uri_port_parse>:
    3740:	55                   	push   %ebp
    3741:	89 e5                	mov    %esp,%ebp
    3743:	8b 55 08             	mov    0x8(%ebp),%edx
    3746:	0f be 02             	movsbl (%edx),%eax
    3749:	84 c0                	test   %al,%al
    374b:	74 20                	je     376d <uri_port_parse+0x2d>
    374d:	83 e8 30             	sub    $0x30,%eax
    3750:	83 f8 09             	cmp    $0x9,%eax
    3753:	77 1f                	ja     3774 <uri_port_parse+0x34>
    3755:	8d 76 00             	lea    0x0(%esi),%esi
    3758:	42                   	inc    %edx
    3759:	0f be 02             	movsbl (%edx),%eax
    375c:	83 e8 30             	sub    $0x30,%eax
    375f:	83 f8 09             	cmp    $0x9,%eax
    3762:	76 f4                	jbe    3758 <uri_port_parse+0x18>
    3764:	8b 45 0c             	mov    0xc(%ebp),%eax
    3767:	89 10                	mov    %edx,(%eax)
    3769:	31 c0                	xor    %eax,%eax
    376b:	5d                   	pop    %ebp
    376c:	c3                   	ret    
    376d:	b8 fd ff ff ff       	mov    $0xfffffffd,%eax
    3772:	5d                   	pop    %ebp
    3773:	c3                   	ret    
    3774:	b8 f2 ff ff ff       	mov    $0xfffffff2,%eax
    3779:	5d                   	pop    %ebp
    377a:	c3                   	ret    
    377b:	90                   	nop
    377c:	8d 74 26 00          	lea    0x0(%esi,%eiz,1),%esi

00003780 <uri_port_validate>:
    3780:	55                   	push   %ebp
    3781:	89 e5                	mov    %esp,%ebp
    3783:	8b 55 08             	mov    0x8(%ebp),%edx
    3786:	8a 02                	mov    (%edx),%al
    3788:	8d 48 d0             	lea    -0x30(%eax),%ecx
    378b:	31 c0                	xor    %eax,%eax
    378d:	80 f9 09             	cmp    $0x9,%cl
    3790:	76 06                	jbe    3798 <uri_port_validate+0x18>
    3792:	5d                   	pop    %ebp
    3793:	c3                   	ret    
    3794:	8d 74 26 00          	lea    0x0(%esi,%eiz,1),%esi
    3798:	42                   	inc    %edx
    3799:	0f be 02             	movsbl (%edx),%eax
    379c:	89 c1                	mov    %eax,%ecx
    379e:	83 e8 30             	sub    $0x30,%eax
    37a1:	83 f8 09             	cmp    $0x9,%eax
    37a4:	76 f2                	jbe    3798 <uri_port_validate+0x18>
    37a6:	84 c9                	test   %cl,%cl
    37a8:	5d                   	pop    %ebp
    37a9:	0f 94 c0             	sete   %al
    37ac:	c3                   	ret    
    37ad:	8d 76 00             	lea    0x0(%esi),%esi

000037b0 <uri_validate>:
    37b0:	55                   	push   %ebp
    37b1:	89 e5                	mov    %esp,%ebp
    37b3:	56                   	push   %esi
    37b4:	53                   	push   %ebx
    37b5:	83 ec 10             	sub    $0x10,%esp
    37b8:	8b 5d 08             	mov    0x8(%ebp),%ebx
    37bb:	8b 33                	mov    (%ebx),%esi
    37bd:	85 f6                	test   %esi,%esi
    37bf:	74 57                	je     3818 <uri_validate+0x68>
    37c1:	8a 06                	mov    (%esi),%al
    37c3:	84 c0                	test   %al,%al
    37c5:	0f 84 d5 00 00 00    	je     38a0 <uri_validate+0xf0>
    37cb:	83 e0 df             	and    $0xffffffdf,%eax
    37ce:	83 e8 41             	sub    $0x41,%eax
    37d1:	3c 19                	cmp    $0x19,%al
    37d3:	0f 87 c7 00 00 00    	ja     38a0 <uri_validate+0xf0>
    37d9:	8d b4 26 00 00 00 00 	lea    0x0(%esi,%eiz,1),%esi
    37e0:	8a 16                	mov    (%esi),%dl
    37e2:	88 d0                	mov    %dl,%al
    37e4:	83 e0 df             	and    $0xffffffdf,%eax
    37e7:	83 e8 41             	sub    $0x41,%eax
    37ea:	3c 19                	cmp    $0x19,%al
    37ec:	76 1d                	jbe    380b <uri_validate+0x5b>
    37ee:	0f be c2             	movsbl %dl,%eax
    37f1:	83 e8 30             	sub    $0x30,%eax
    37f4:	83 f8 09             	cmp    $0x9,%eax
    37f7:	0f 96 c1             	setbe  %cl
    37fa:	80 fa 2b             	cmp    $0x2b,%dl
    37fd:	0f 94 c0             	sete   %al
    3800:	08 c1                	or     %al,%cl
    3802:	75 07                	jne    380b <uri_validate+0x5b>
    3804:	8d 42 d3             	lea    -0x2d(%edx),%eax
    3807:	3c 01                	cmp    $0x1,%al
    3809:	77 05                	ja     3810 <uri_validate+0x60>
    380b:	46                   	inc    %esi
    380c:	eb d2                	jmp    37e0 <uri_validate+0x30>
    380e:	66 90                	xchg   %ax,%ax
    3810:	84 d2                	test   %dl,%dl
    3812:	0f 85 88 00 00 00    	jne    38a0 <uri_validate+0xf0>
    3818:	8b 43 04             	mov    0x4(%ebx),%eax
    381b:	85 c0                	test   %eax,%eax
    381d:	74 21                	je     3840 <uri_validate+0x90>
    381f:	8d 55 f4             	lea    -0xc(%ebp),%edx
    3822:	c7 45 f4 00 00 00 00 	movl   $0x0,-0xc(%ebp)
    3829:	52                   	push   %edx
    382a:	50                   	push   %eax
    382b:	e8 10 fe ff ff       	call   3640 <uri_user_info_parse>
    3830:	5e                   	pop    %esi
    3831:	31 c9                	xor    %ecx,%ecx
    3833:	5a                   	pop    %edx
    3834:	85 c0                	test   %eax,%eax
    3836:	75 6a                	jne    38a2 <uri_validate+0xf2>
    3838:	8b 45 f4             	mov    -0xc(%ebp),%eax
    383b:	80 38 00             	cmpb   $0x0,(%eax)
    383e:	75 60                	jne    38a0 <uri_validate+0xf0>
    3840:	8b 43 08             	mov    0x8(%ebx),%eax
    3843:	85 c0                	test   %eax,%eax
    3845:	74 21                	je     3868 <uri_validate+0xb8>
    3847:	8d 55 f4             	lea    -0xc(%ebp),%edx
    384a:	c7 45 f4 00 00 00 00 	movl   $0x0,-0xc(%ebp)
    3851:	52                   	push   %edx
    3852:	50                   	push   %eax
    3853:	e8 e8 fd ff ff       	call   3640 <uri_user_info_parse>
    3858:	5a                   	pop    %edx
    3859:	59                   	pop    %ecx
    385a:	31 c9                	xor    %ecx,%ecx
    385c:	85 c0                	test   %eax,%eax
    385e:	75 42                	jne    38a2 <uri_validate+0xf2>
    3860:	8b 45 f4             	mov    -0xc(%ebp),%eax
    3863:	80 38 00             	cmpb   $0x0,(%eax)
    3866:	75 38                	jne    38a0 <uri_validate+0xf0>
    3868:	8b 53 10             	mov    0x10(%ebx),%edx
    386b:	b1 01                	mov    $0x1,%cl
    386d:	85 d2                	test   %edx,%edx
    386f:	74 31                	je     38a2 <uri_validate+0xf2>
    3871:	8a 02                	mov    (%edx),%al
    3873:	31 c9                	xor    %ecx,%ecx
    3875:	83 e8 30             	sub    $0x30,%eax
    3878:	3c 09                	cmp    $0x9,%al
    387a:	77 26                	ja     38a2 <uri_validate+0xf2>
    387c:	89 d0                	mov    %edx,%eax
    387e:	66 90                	xchg   %ax,%ax
    3880:	40                   	inc    %eax
    3881:	0f be 10             	movsbl (%eax),%edx
    3884:	89 d1                	mov    %edx,%ecx
    3886:	83 ea 30             	sub    $0x30,%edx
    3889:	83 fa 09             	cmp    $0x9,%edx
    388c:	76 f2                	jbe    3880 <uri_validate+0xd0>
    388e:	84 c9                	test   %cl,%cl
    3890:	0f 94 c1             	sete   %cl
    3893:	8d 65 f8             	lea    -0x8(%ebp),%esp
    3896:	88 c8                	mov    %cl,%al
    3898:	5b                   	pop    %ebx
    3899:	5e                   	pop    %esi
    389a:	5d                   	pop    %ebp
    389b:	c3                   	ret    
    389c:	8d 74 26 00          	lea    0x0(%esi,%eiz,1),%esi
    38a0:	31 c9                	xor    %ecx,%ecx
    38a2:	8d 65 f8             	lea    -0x8(%ebp),%esp
    38a5:	88 c8                	mov    %cl,%al
    38a7:	5b                   	pop    %ebx
    38a8:	5e                   	pop    %esi
    38a9:	5d                   	pop    %ebp
    38aa:	c3                   	ret    
    38ab:	90                   	nop
    38ac:	8d 74 26 00          	lea    0x0(%esi,%eiz,1),%esi

000038b0 <uri_destroy>:
    38b0:	55                   	push   %ebp
    38b1:	89 e5                	mov    %esp,%ebp
    38b3:	53                   	push   %ebx
    38b4:	83 ec 10             	sub    $0x10,%esp
    38b7:	8b 5d 08             	mov    0x8(%ebp),%ebx
    38ba:	8b 03                	mov    (%ebx),%eax
    38bc:	50                   	push   %eax
    38bd:	e8 3e 0c 00 00       	call   4500 <free@plt>
    38c2:	8b 4b 04             	mov    0x4(%ebx),%ecx
    38c5:	5a                   	pop    %edx
    38c6:	51                   	push   %ecx
    38c7:	e8 34 0c 00 00       	call   4500 <free@plt>
    38cc:	58                   	pop    %eax
    38cd:	8b 43 08             	mov    0x8(%ebx),%eax
    38d0:	50                   	push   %eax
    38d1:	e8 2a 0c 00 00       	call   4500 <free@plt>
    38d6:	58                   	pop    %eax
    38d7:	8b 43 0c             	mov    0xc(%ebx),%eax
    38da:	50                   	push   %eax
    38db:	e8 20 0c 00 00       	call   4500 <free@plt>
    38e0:	58                   	pop    %eax
    38e1:	8b 43 10             	mov    0x10(%ebx),%eax
    38e4:	50                   	push   %eax
    38e5:	e8 16 0c 00 00       	call   4500 <free@plt>
    38ea:	8b 4b 14             	mov    0x14(%ebx),%ecx
    38ed:	5a                   	pop    %edx
    38ee:	51                   	push   %ecx
    38ef:	e8 0c 0c 00 00       	call   4500 <free@plt>
    38f4:	58                   	pop    %eax
    38f5:	8b 43 18             	mov    0x18(%ebx),%eax
    38f8:	50                   	push   %eax
    38f9:	e8 02 0c 00 00       	call   4500 <free@plt>
    38fe:	58                   	pop    %eax
    38ff:	8b 43 1c             	mov    0x1c(%ebx),%eax
    3902:	50                   	push   %eax
    3903:	e8 f8 0b 00 00       	call   4500 <free@plt>
    3908:	89 5d 08             	mov    %ebx,0x8(%ebp)
    390b:	83 c4 10             	add    $0x10,%esp
    390e:	8b 5d fc             	mov    -0x4(%ebp),%ebx
    3911:	c9                   	leave  
    3912:	e9 e9 0b 00 00       	jmp    4500 <free@plt>
    3917:	55                   	push   %ebp
    3918:	73 61                	jae    397b <uri_destroy+0xcb>
    391a:	67 65 3a 20          	cmp    %gs:(%bx,%si),%ah
    391e:	64 6f                	outsl  %fs:(%esi),(%dx)
    3920:	77 6e                	ja     3990 <uri_destroy+0xe0>
    3922:	6c                   	insb   (%dx),%es:(%edi)
    3923:	6f                   	outsl  %ds:(%esi),(%dx)
    3924:	61                   	popa   
    3925:	64 20 3c 75 72 6c 3e 	and    %bh,%fs:0xa3e6c72(,%esi,2)
    392c:	0a 
    392d:	00 46 61             	add    %al,0x61(%esi)
    3930:	69 6c 65 64 20 70 61 	imul   $0x72617020,0x64(%ebp,%eiz,2),%ebp
    3937:	72 
    3938:	73 69                	jae    39a3 <uri_destroy+0xf3>
    393a:	6e                   	outsb  %ds:(%esi),(%dx)
    393b:	67 20 55 52          	and    %dl,0x52(%di)
    393f:	49                   	dec    %ecx
    3940:	0a 00                	or     (%eax),%al
    3942:	54                   	push   %esp
    3943:	68 65 20 55 52       	push   $0x52552065
    3948:	49                   	dec    %ecx
    3949:	20 69 73             	and    %ch,0x73(%ecx)
    394c:	20 69 6e             	and    %ch,0x6e(%ecx)
    394f:	76 61                	jbe    39b2 <uri_destroy+0x102>
    3951:	6c                   	insb   (%dx),%es:(%edi)
    3952:	69 64 0a 00 68 74 74 	imul   $0x70747468,0x0(%edx,%ecx,1),%esp
    3959:	70 
    395a:	00 68 6f             	add    %ch,0x6f(%eax)
    395d:	73 74                	jae    39d3 <uri_destroy+0x123>
    395f:	20 6e 6f             	and    %ch,0x6f(%esi)
    3962:	74 20                	je     3984 <uri_destroy+0xd4>
    3964:	73 65                	jae    39cb <uri_destroy+0x11b>
    3966:	74 0a                	je     3972 <uri_destroy+0xc2>
    3968:	00 49 6e             	add    %cl,0x6e(%ecx)
    396b:	76 61                	jbe    39ce <uri_destroy+0x11e>
    396d:	6c                   	insb   (%dx),%es:(%edi)
    396e:	69 64 20 70 6f 72 74 	imul   $0x2074726f,0x70(%eax,%eiz,1),%esp
    3975:	20 
    3976:	6e                   	outsb  %ds:(%esi),(%dx)
    3977:	75 6d                	jne    39e6 <uri_destroy+0x136>
    3979:	62 65 72             	bound  %esp,0x72(%ebp)
    397c:	3a 20                	cmp    (%eax),%ah
    397e:	25 73 0a 00 46       	and    $0x46000a73,%eax
    3983:	61                   	popa   
    3984:	69 6c 65 64 20 61 6c 	imul   $0x6c6c6120,0x64(%ebp,%eiz,2),%ebp
    398b:	6c 
    398c:	6f                   	outsl  %ds:(%esi),(%dx)
    398d:	63 61 74             	arpl   %sp,0x74(%ecx)
    3990:	69 6e 67 20 70 61 74 	imul   $0x74617020,0x67(%esi),%ebp
    3997:	68 0a 00 25 73       	push   $0x7325000a
    399c:	3f                   	aas    
    399d:	25 73 00 47 45       	and    $0x45470073,%eax
    39a2:	54                   	push   %esp
    39a3:	00 46 61             	add    %al,0x61(%esi)
    39a6:	69 6c 65 64 20 63 72 	imul   $0x65726320,0x64(%ebp,%eiz,2),%ebp
    39ad:	65 
    39ae:	61                   	popa   
    39af:	74 69                	je     3a1a <uri_destroy+0x16a>
    39b1:	6e                   	outsb  %ds:(%esi),(%dx)
    39b2:	67 20 72 65          	and    %dh,0x65(%bp,%si)
    39b6:	71 75                	jno    3a2d <uri_destroy+0x17d>
    39b8:	65 73 74             	gs jae 3a2f <uri_destroy+0x17f>
    39bb:	0a 00                	or     (%eax),%al
    39bd:	48                   	dec    %eax
    39be:	6f                   	outsl  %ds:(%esi),(%dx)
    39bf:	73 74                	jae    3a35 <uri_destroy+0x185>
    39c1:	00 55 73             	add    %dl,0x73(%ebp)
    39c4:	65 72 2d             	gs jb  39f4 <uri_destroy+0x144>
    39c7:	41                   	inc    %ecx
    39c8:	67 65 6e             	outsb  %gs:(%si),(%dx)
    39cb:	74 00                	je     39cd <uri_destroy+0x11d>
    39cd:	46                   	inc    %esi
    39ce:	61                   	popa   
    39cf:	69 6c 65 64 20 63 72 	imul   $0x65726320,0x64(%ebp,%eiz,2),%ebp
    39d6:	65 
    39d7:	61                   	popa   
    39d8:	74 69                	je     3a43 <uri_destroy+0x193>
    39da:	6e                   	outsb  %ds:(%esi),(%dx)
    39db:	67 20 48 54          	and    %cl,0x54(%bx,%si)
    39df:	54                   	push   %esp
    39e0:	50                   	push   %eax
    39e1:	20 6f 62             	and    %ch,0x62(%edi)
    39e4:	6a 65                	push   $0x65
    39e6:	63 74 0a 00          	arpl   %si,0x0(%edx,%ecx,1)
    39ea:	46                   	inc    %esi
    39eb:	61                   	popa   
    39ec:	69 6c 65 64 20 63 6f 	imul   $0x6e6f6320,0x64(%ebp,%eiz,2),%ebp
    39f3:	6e 
    39f4:	6e                   	outsb  %ds:(%esi),(%dx)
    39f5:	65 63 74 69 6e       	arpl   %si,%gs:0x6e(%ecx,%ebp,2)
    39fa:	67 3a 20             	cmp    (%bx,%si),%ah
    39fd:	25 73 0a 00 46       	and    $0x46000a73,%eax
    3a02:	61                   	popa   
    3a03:	69 6c 65 64 20 73 65 	imul   $0x6e657320,0x64(%ebp,%eiz,2),%ebp
    3a0a:	6e 
    3a0b:	64 69 6e 67 20 72 65 	imul   $0x71657220,%fs:0x67(%esi),%ebp
    3a12:	71 
    3a13:	75 65                	jne    3a7a <uri_destroy+0x1ca>
    3a15:	73 74                	jae    3a8b <uri_destroy+0x1db>
    3a17:	3a 20                	cmp    (%eax),%ah
    3a19:	25 73 0a 00 53       	and    $0x53000a73,%eax
    3a1e:	65 72 76             	gs jb  3a97 <uri_destroy+0x1e7>
    3a21:	65 72 20             	gs jb  3a44 <uri_destroy+0x194>
    3a24:	72 65                	jb     3a8b <uri_destroy+0x1db>
    3a26:	74 75                	je     3a9d <uri_destroy+0x1ed>
    3a28:	72 6e                	jb     3a98 <uri_destroy+0x1e8>
    3a2a:	65 64 20 73 74       	gs and %dh,%fs:0x74(%ebx)
    3a2f:	61                   	popa   
    3a30:	74 75                	je     3aa7 <uri_destroy+0x1f7>
    3a32:	73 20                	jae    3a54 <uri_destroy+0x1a4>
    3a34:	25 64 20 25 73       	and    $0x73252064,%eax
    3a39:	0a 00                	or     (%eax),%al
    3a3b:	46                   	inc    %esi
    3a3c:	61                   	popa   
    3a3d:	69 6c 65 64 20 61 6c 	imul   $0x6c6c6120,0x64(%ebp,%eiz,2),%ebp
    3a44:	6c 
    3a45:	6f                   	outsl  %ds:(%esi),(%dx)
    3a46:	63 61 74             	arpl   %sp,0x74(%ecx)
    3a49:	69 6e 67 20 62 75 66 	imul   $0x66756220,0x67(%esi),%ebp
    3a50:	66 65 72 0a          	data16 gs jb 3a5e <uri_destroy+0x1ae>
    3a54:	29 00                	sub    %eax,(%eax)
    3a56:	46                   	inc    %esi
    3a57:	61                   	popa   
    3a58:	69 6c 65 64 20 72 65 	imul   $0x63657220,0x64(%ebp,%eiz,2),%ebp
    3a5f:	63 
    3a60:	65 69 76 69 6e 67 20 	imul   $0x6220676e,%gs:0x69(%esi),%esi
    3a67:	62 
    3a68:	6f                   	outsl  %ds:(%esi),(%dx)
    3a69:	64 79 3a             	fs jns 3aa6 <uri_destroy+0x1f6>
    3a6c:	20 25 73 00 20 20    	and    %ah,0x20200073
    3a72:	54                   	push   %esp
    3a73:	68 69 73 20 77       	push   $0x77207369
    3a78:	69 6c 6c 20 77 72 69 	imul   $0x74697277,0x20(%esp,%ebp,2),%ebp
    3a7f:	74 
    3a80:	65 20 74 68 65       	and    %dh,%gs:0x65(%eax,%ebp,2)
    3a85:	20 64 61 74          	and    %ah,0x74(%ecx,%eiz,2)
    3a89:	61                   	popa   
    3a8a:	20 74 6f 20          	and    %dh,0x20(%edi,%ebp,2)
    3a8e:	73 74                	jae    3b04 <uri_destroy+0x254>
    3a90:	64 6f                	outsl  %fs:(%esi),(%dx)
    3a92:	75 74                	jne    3b08 <uri_destroy+0x258>
    3a94:	2c 20                	sub    $0x20,%al
    3a96:	73 6f                	jae    3b07 <uri_destroy+0x257>
    3a98:	20 79 6f             	and    %bh,0x6f(%ecx)
    3a9b:	75 20                	jne    3abd <uri_destroy+0x20d>
    3a9d:	6d                   	insl   (%dx),%es:(%edi)
    3a9e:	61                   	popa   
    3a9f:	79 20                	jns    3ac1 <uri_destroy+0x211>
    3aa1:	77 61                	ja     3b04 <uri_destroy+0x254>
    3aa3:	6e                   	outsb  %ds:(%esi),(%dx)
    3aa4:	74 0a                	je     3ab0 <uri_destroy+0x200>
    3aa6:	00 00                	add    %al,(%eax)
    3aa8:	20 20                	and    %ah,(%eax)
    3aaa:	74 6f                	je     3b1b <uri_destroy+0x26b>
    3aac:	20 72 65             	and    %dh,0x65(%edx)
    3aaf:	64 69 72 65 63 74 20 	imul   $0x74207463,%fs:0x65(%edx),%esi
    3ab6:	74 
    3ab7:	68 65 20 6f 75       	push   $0x756f2065
    3abc:	74 70                	je     3b2e <uri_destroy+0x27e>
    3abe:	75 74                	jne    3b34 <uri_destroy+0x284>
    3ac0:	2c 20                	sub    $0x20,%al
    3ac2:	65 2e 67 2e 0a 00    	gs cs or %cs:(%bx,%si),%al
    3ac8:	20 20                	and    %ah,(%eax)
    3aca:	20 20                	and    %ah,(%eax)
    3acc:	64 6f                	outsl  %fs:(%esi),(%dx)
    3ace:	77 6e                	ja     3b3e <uri_destroy+0x28e>
    3ad0:	6c                   	insb   (%dx),%es:(%edi)
    3ad1:	6f                   	outsl  %ds:(%esi),(%dx)
    3ad2:	61                   	popa   
    3ad3:	64 20 68 74          	and    %ch,%fs:0x74(%eax)
    3ad7:	74 70                	je     3b49 <uri_destroy+0x299>
    3ad9:	3a 2f                	cmp    (%edi),%ch
    3adb:	2f                   	das    
    3adc:	68 65 6c 65 6e       	push   $0x6e656c65
    3ae1:	6f                   	outsl  %ds:(%esi),(%dx)
    3ae2:	73 2e                	jae    3b12 <uri_destroy+0x262>
    3ae4:	6f                   	outsl  %ds:(%esi),(%dx)
    3ae5:	72 67                	jb     3b4e <uri_destroy+0x29e>
    3ae7:	2f                   	das    
    3ae8:	20 7c 20 74          	and    %bh,0x74(%eax,%eiz,1)
    3aec:	6f                   	outsl  %ds:(%esi),(%dx)
    3aed:	20 68 65             	and    %ch,0x65(%eax)
    3af0:	6c                   	insb   (%dx),%es:(%edi)
    3af1:	65 6e                	outsb  %gs:(%esi),(%dx)
    3af3:	6f                   	outsl  %ds:(%esi),(%dx)
    3af4:	73 2e                	jae    3b24 <uri_destroy+0x274>
    3af6:	68 74 6d 6c 0a       	push   $0xa6c6d74
    3afb:	0a 00                	or     (%eax),%al
    3afd:	00 00                	add    %al,(%eax)
    3aff:	00 4f 6e             	add    %cl,0x6e(%edi)
    3b02:	6c                   	insb   (%dx),%es:(%edi)
    3b03:	79 20                	jns    3b25 <uri_destroy+0x275>
    3b05:	68 74 74 70 20       	push   $0x20707474
    3b0a:	73 63                	jae    3b6f <uri_destroy+0x2bf>
    3b0c:	68 65 6d 65 20       	push   $0x20656d65
    3b11:	69 73 20 73 75 70 70 	imul   $0x70707573,0x20(%ebx),%esi
    3b18:	6f                   	outsl  %ds:(%esi),(%dx)
    3b19:	72 74                	jb     3b8f <uri_destroy+0x2df>
    3b1b:	65 64 20 61 74       	gs and %ah,%fs:0x74(%ecx)
    3b20:	20 74 68 65          	and    %dh,0x65(%eax,%ebp,2)
    3b24:	20 6d 6f             	and    %ch,0x6f(%ebp)
    3b27:	6d                   	insl   (%dx),%es:(%edi)
    3b28:	65 6e                	outsb  %gs:(%esi),(%dx)
    3b2a:	74 0a                	je     3b36 <uri_destroy+0x286>
    3b2c:	00 00                	add    %al,(%eax)
    3b2e:	00 00                	add    %al,(%eax)
    3b30:	46                   	inc    %esi
    3b31:	61                   	popa   
    3b32:	69 6c 65 64 20 73 65 	imul   $0x74657320,0x64(%ebp,%eiz,2),%ebp
    3b39:	74 
    3b3a:	74 69                	je     3ba5 <uri_destroy+0x2f5>
    3b3c:	6e                   	outsb  %ds:(%esi),(%dx)
    3b3d:	67 20 48 6f          	and    %cl,0x6f(%bx,%si)
    3b41:	73 74                	jae    3bb7 <uri_destroy+0x307>
    3b43:	20 68 65             	and    %ch,0x65(%eax)
    3b46:	61                   	popa   
    3b47:	64 65 72 3a          	fs gs jb 3b85 <uri_destroy+0x2d5>
    3b4b:	20 25 73 0a 00 48    	and    %ah,0x48000a73
    3b51:	65 6c                	gs insb (%dx),%es:(%edi)
    3b53:	65 6e                	outsb  %gs:(%esi),(%dx)
    3b55:	4f                   	dec    %edi
    3b56:	53                   	push   %ebx
    3b57:	2d 64 6f 77 6e       	sub    $0x6e776f64,%eax
    3b5c:	6c                   	insb   (%dx),%es:(%edi)
    3b5d:	6f                   	outsl  %ds:(%esi),(%dx)
    3b5e:	61                   	popa   
    3b5f:	64 2f                	fs das 
    3b61:	30 2e                	xor    %ch,(%esi)
    3b63:	36 2e 30 2d 31 34 39 	ss xor %ch,%cs:0x30393431
    3b6a:	30 
    3b6b:	34 33                	xor    $0x33,%al
    3b6d:	30 37                	xor    %dh,(%edi)
    3b6f:	36 34 00             	ss xor $0x0,%al
    3b72:	00 00                	add    %al,(%eax)
    3b74:	46                   	inc    %esi
    3b75:	61                   	popa   
    3b76:	69 6c 65 64 20 63 72 	imul   $0x65726320,0x64(%ebp,%eiz,2),%ebp
    3b7d:	65 
    3b7e:	61                   	popa   
    3b7f:	74 69                	je     3bea <uri_destroy+0x33a>
    3b81:	6e                   	outsb  %ds:(%esi),(%dx)
    3b82:	67 20 55 73          	and    %dl,0x73(%di)
    3b86:	65 72 2d             	gs jb  3bb6 <uri_destroy+0x306>
    3b89:	41                   	inc    %ecx
    3b8a:	67 65 6e             	outsb  %gs:(%si),(%dx)
    3b8d:	74 20                	je     3baf <uri_destroy+0x2ff>
    3b8f:	68 65 61 64 65       	push   $0x65646165
    3b94:	72 3a                	jb     3bd0 <uri_destroy+0x320>
    3b96:	20 25 73 0a 00 00    	and    %ah,0xa73
    3b9c:	46                   	inc    %esi
    3b9d:	61                   	popa   
    3b9e:	69 6c 65 64 20 72 65 	imul   $0x63657220,0x64(%ebp,%eiz,2),%ebp
    3ba5:	63 
    3ba6:	65 69 76 69 6e 67 20 	imul   $0x7220676e,%gs:0x69(%esi),%esi
    3bad:	72 
    3bae:	65 73 70             	gs jae 3c21 <uri_destroy+0x371>
    3bb1:	6f                   	outsl  %ds:(%esi),(%dx)
    3bb2:	6e                   	outsb  %ds:(%esi),(%dx)
    3bb3:	73 65                	jae    3c1a <uri_destroy+0x36a>
    3bb5:	3a 20                	cmp    (%eax),%ah
    3bb7:	25 73 0a 00 00       	and    $0xa73,%eax
    3bbc:	25 73 3a 20 25       	and    $0x25203a73,%eax
    3bc1:	73 0d                	jae    3bd0 <uri_destroy+0x320>
    3bc3:	0a 00                	or     (%eax),%al
    3bc5:	66 90                	xchg   %ax,%ax
    3bc7:	90                   	nop
    3bc8:	48                   	dec    %eax
    3bc9:	19 00                	sbb    %eax,(%eax)
    3bcb:	00 30                	add    %dh,(%eax)
    3bcd:	19 00                	sbb    %eax,(%eax)
    3bcf:	00 30                	add    %dh,(%eax)
    3bd1:	19 00                	sbb    %eax,(%eax)
    3bd3:	00 30                	add    %dh,(%eax)
    3bd5:	19 00                	sbb    %eax,(%eax)
    3bd7:	00 30                	add    %dh,(%eax)
    3bd9:	19 00                	sbb    %eax,(%eax)
    3bdb:	00 30                	add    %dh,(%eax)
    3bdd:	19 00                	sbb    %eax,(%eax)
    3bdf:	00 30                	add    %dh,(%eax)
    3be1:	19 00                	sbb    %eax,(%eax)
    3be3:	00 30                	add    %dh,(%eax)
    3be5:	19 00                	sbb    %eax,(%eax)
    3be7:	00 30                	add    %dh,(%eax)
    3be9:	19 00                	sbb    %eax,(%eax)
    3beb:	00 30                	add    %dh,(%eax)
    3bed:	19 00                	sbb    %eax,(%eax)
    3bef:	00 30                	add    %dh,(%eax)
    3bf1:	19 00                	sbb    %eax,(%eax)
    3bf3:	00 30                	add    %dh,(%eax)
    3bf5:	19 00                	sbb    %eax,(%eax)
    3bf7:	00 30                	add    %dh,(%eax)
    3bf9:	19 00                	sbb    %eax,(%eax)
    3bfb:	00 30                	add    %dh,(%eax)
    3bfd:	19 00                	sbb    %eax,(%eax)
    3bff:	00 30                	add    %dh,(%eax)
    3c01:	19 00                	sbb    %eax,(%eax)
    3c03:	00 30                	add    %dh,(%eax)
    3c05:	19 00                	sbb    %eax,(%eax)
    3c07:	00 30                	add    %dh,(%eax)
    3c09:	19 00                	sbb    %eax,(%eax)
    3c0b:	00 30                	add    %dh,(%eax)
    3c0d:	19 00                	sbb    %eax,(%eax)
    3c0f:	00 30                	add    %dh,(%eax)
    3c11:	19 00                	sbb    %eax,(%eax)
    3c13:	00 30                	add    %dh,(%eax)
    3c15:	19 00                	sbb    %eax,(%eax)
    3c17:	00 30                	add    %dh,(%eax)
    3c19:	19 00                	sbb    %eax,(%eax)
    3c1b:	00 30                	add    %dh,(%eax)
    3c1d:	19 00                	sbb    %eax,(%eax)
    3c1f:	00 30                	add    %dh,(%eax)
    3c21:	19 00                	sbb    %eax,(%eax)
    3c23:	00 48 19             	add    %cl,0x19(%eax)
    3c26:	00 00                	add    %al,(%eax)
    3c28:	30 19                	xor    %bl,(%ecx)
    3c2a:	00 00                	add    %al,(%eax)
    3c2c:	48                   	dec    %eax
    3c2d:	19 00                	sbb    %eax,(%eax)
    3c2f:	00 30                	add    %dh,(%eax)
    3c31:	19 00                	sbb    %eax,(%eax)
    3c33:	00 30                	add    %dh,(%eax)
    3c35:	19 00                	sbb    %eax,(%eax)
    3c37:	00 30                	add    %dh,(%eax)
    3c39:	19 00                	sbb    %eax,(%eax)
    3c3b:	00 30                	add    %dh,(%eax)
    3c3d:	19 00                	sbb    %eax,(%eax)
    3c3f:	00 30                	add    %dh,(%eax)
    3c41:	19 00                	sbb    %eax,(%eax)
    3c43:	00 48 19             	add    %cl,0x19(%eax)
    3c46:	00 00                	add    %al,(%eax)
    3c48:	48                   	dec    %eax
    3c49:	19 00                	sbb    %eax,(%eax)
    3c4b:	00 30                	add    %dh,(%eax)
    3c4d:	19 00                	sbb    %eax,(%eax)
    3c4f:	00 30                	add    %dh,(%eax)
    3c51:	19 00                	sbb    %eax,(%eax)
    3c53:	00 48 19             	add    %cl,0x19(%eax)
    3c56:	00 00                	add    %al,(%eax)
    3c58:	30 19                	xor    %bl,(%ecx)
    3c5a:	00 00                	add    %al,(%eax)
    3c5c:	30 19                	xor    %bl,(%ecx)
    3c5e:	00 00                	add    %al,(%eax)
    3c60:	48                   	dec    %eax
    3c61:	19 00                	sbb    %eax,(%eax)
    3c63:	00 30                	add    %dh,(%eax)
    3c65:	19 00                	sbb    %eax,(%eax)
    3c67:	00 30                	add    %dh,(%eax)
    3c69:	19 00                	sbb    %eax,(%eax)
    3c6b:	00 30                	add    %dh,(%eax)
    3c6d:	19 00                	sbb    %eax,(%eax)
    3c6f:	00 30                	add    %dh,(%eax)
    3c71:	19 00                	sbb    %eax,(%eax)
    3c73:	00 30                	add    %dh,(%eax)
    3c75:	19 00                	sbb    %eax,(%eax)
    3c77:	00 30                	add    %dh,(%eax)
    3c79:	19 00                	sbb    %eax,(%eax)
    3c7b:	00 30                	add    %dh,(%eax)
    3c7d:	19 00                	sbb    %eax,(%eax)
    3c7f:	00 30                	add    %dh,(%eax)
    3c81:	19 00                	sbb    %eax,(%eax)
    3c83:	00 30                	add    %dh,(%eax)
    3c85:	19 00                	sbb    %eax,(%eax)
    3c87:	00 30                	add    %dh,(%eax)
    3c89:	19 00                	sbb    %eax,(%eax)
    3c8b:	00 48 19             	add    %cl,0x19(%eax)
    3c8e:	00 00                	add    %al,(%eax)
    3c90:	48                   	dec    %eax
    3c91:	19 00                	sbb    %eax,(%eax)
    3c93:	00 48 19             	add    %cl,0x19(%eax)
    3c96:	00 00                	add    %al,(%eax)
    3c98:	48                   	dec    %eax
    3c99:	19 00                	sbb    %eax,(%eax)
    3c9b:	00 48 19             	add    %cl,0x19(%eax)
    3c9e:	00 00                	add    %al,(%eax)
    3ca0:	48                   	dec    %eax
    3ca1:	19 00                	sbb    %eax,(%eax)
    3ca3:	00 48 19             	add    %cl,0x19(%eax)
    3ca6:	00 00                	add    %al,(%eax)
    3ca8:	30 19                	xor    %bl,(%ecx)
    3caa:	00 00                	add    %al,(%eax)
    3cac:	30 19                	xor    %bl,(%ecx)
    3cae:	00 00                	add    %al,(%eax)
    3cb0:	30 19                	xor    %bl,(%ecx)
    3cb2:	00 00                	add    %al,(%eax)
    3cb4:	30 19                	xor    %bl,(%ecx)
    3cb6:	00 00                	add    %al,(%eax)
    3cb8:	30 19                	xor    %bl,(%ecx)
    3cba:	00 00                	add    %al,(%eax)
    3cbc:	30 19                	xor    %bl,(%ecx)
    3cbe:	00 00                	add    %al,(%eax)
    3cc0:	30 19                	xor    %bl,(%ecx)
    3cc2:	00 00                	add    %al,(%eax)
    3cc4:	30 19                	xor    %bl,(%ecx)
    3cc6:	00 00                	add    %al,(%eax)
    3cc8:	30 19                	xor    %bl,(%ecx)
    3cca:	00 00                	add    %al,(%eax)
    3ccc:	30 19                	xor    %bl,(%ecx)
    3cce:	00 00                	add    %al,(%eax)
    3cd0:	30 19                	xor    %bl,(%ecx)
    3cd2:	00 00                	add    %al,(%eax)
    3cd4:	30 19                	xor    %bl,(%ecx)
    3cd6:	00 00                	add    %al,(%eax)
    3cd8:	30 19                	xor    %bl,(%ecx)
    3cda:	00 00                	add    %al,(%eax)
    3cdc:	30 19                	xor    %bl,(%ecx)
    3cde:	00 00                	add    %al,(%eax)
    3ce0:	30 19                	xor    %bl,(%ecx)
    3ce2:	00 00                	add    %al,(%eax)
    3ce4:	30 19                	xor    %bl,(%ecx)
    3ce6:	00 00                	add    %al,(%eax)
    3ce8:	30 19                	xor    %bl,(%ecx)
    3cea:	00 00                	add    %al,(%eax)
    3cec:	30 19                	xor    %bl,(%ecx)
    3cee:	00 00                	add    %al,(%eax)
    3cf0:	30 19                	xor    %bl,(%ecx)
    3cf2:	00 00                	add    %al,(%eax)
    3cf4:	30 19                	xor    %bl,(%ecx)
    3cf6:	00 00                	add    %al,(%eax)
    3cf8:	30 19                	xor    %bl,(%ecx)
    3cfa:	00 00                	add    %al,(%eax)
    3cfc:	30 19                	xor    %bl,(%ecx)
    3cfe:	00 00                	add    %al,(%eax)
    3d00:	30 19                	xor    %bl,(%ecx)
    3d02:	00 00                	add    %al,(%eax)
    3d04:	30 19                	xor    %bl,(%ecx)
    3d06:	00 00                	add    %al,(%eax)
    3d08:	30 19                	xor    %bl,(%ecx)
    3d0a:	00 00                	add    %al,(%eax)
    3d0c:	30 19                	xor    %bl,(%ecx)
    3d0e:	00 00                	add    %al,(%eax)
    3d10:	48                   	dec    %eax
    3d11:	19 00                	sbb    %eax,(%eax)
    3d13:	00 48 19             	add    %cl,0x19(%eax)
    3d16:	00 00                	add    %al,(%eax)
    3d18:	48                   	dec    %eax
    3d19:	19 00                	sbb    %eax,(%eax)
    3d1b:	00 30                	add    %dh,(%eax)
    3d1d:	19 00                	sbb    %eax,(%eax)
    3d1f:	00 30                	add    %dh,(%eax)
    3d21:	19 00                	sbb    %eax,(%eax)
    3d23:	00 30                	add    %dh,(%eax)
    3d25:	19 00                	sbb    %eax,(%eax)
    3d27:	00 30                	add    %dh,(%eax)
    3d29:	19 00                	sbb    %eax,(%eax)
    3d2b:	00 30                	add    %dh,(%eax)
    3d2d:	19 00                	sbb    %eax,(%eax)
    3d2f:	00 30                	add    %dh,(%eax)
    3d31:	19 00                	sbb    %eax,(%eax)
    3d33:	00 30                	add    %dh,(%eax)
    3d35:	19 00                	sbb    %eax,(%eax)
    3d37:	00 30                	add    %dh,(%eax)
    3d39:	19 00                	sbb    %eax,(%eax)
    3d3b:	00 30                	add    %dh,(%eax)
    3d3d:	19 00                	sbb    %eax,(%eax)
    3d3f:	00 30                	add    %dh,(%eax)
    3d41:	19 00                	sbb    %eax,(%eax)
    3d43:	00 30                	add    %dh,(%eax)
    3d45:	19 00                	sbb    %eax,(%eax)
    3d47:	00 30                	add    %dh,(%eax)
    3d49:	19 00                	sbb    %eax,(%eax)
    3d4b:	00 30                	add    %dh,(%eax)
    3d4d:	19 00                	sbb    %eax,(%eax)
    3d4f:	00 30                	add    %dh,(%eax)
    3d51:	19 00                	sbb    %eax,(%eax)
    3d53:	00 30                	add    %dh,(%eax)
    3d55:	19 00                	sbb    %eax,(%eax)
    3d57:	00 30                	add    %dh,(%eax)
    3d59:	19 00                	sbb    %eax,(%eax)
    3d5b:	00 30                	add    %dh,(%eax)
    3d5d:	19 00                	sbb    %eax,(%eax)
    3d5f:	00 30                	add    %dh,(%eax)
    3d61:	19 00                	sbb    %eax,(%eax)
    3d63:	00 30                	add    %dh,(%eax)
    3d65:	19 00                	sbb    %eax,(%eax)
    3d67:	00 30                	add    %dh,(%eax)
    3d69:	19 00                	sbb    %eax,(%eax)
    3d6b:	00 30                	add    %dh,(%eax)
    3d6d:	19 00                	sbb    %eax,(%eax)
    3d6f:	00 30                	add    %dh,(%eax)
    3d71:	19 00                	sbb    %eax,(%eax)
    3d73:	00 30                	add    %dh,(%eax)
    3d75:	19 00                	sbb    %eax,(%eax)
    3d77:	00 30                	add    %dh,(%eax)
    3d79:	19 00                	sbb    %eax,(%eax)
    3d7b:	00 30                	add    %dh,(%eax)
    3d7d:	19 00                	sbb    %eax,(%eax)
    3d7f:	00 30                	add    %dh,(%eax)
    3d81:	19 00                	sbb    %eax,(%eax)
    3d83:	00 30                	add    %dh,(%eax)
    3d85:	19 00                	sbb    %eax,(%eax)
    3d87:	00 30                	add    %dh,(%eax)
    3d89:	19 00                	sbb    %eax,(%eax)
    3d8b:	00 30                	add    %dh,(%eax)
    3d8d:	19 00                	sbb    %eax,(%eax)
    3d8f:	00 48 19             	add    %cl,0x19(%eax)
    3d92:	00 00                	add    %al,(%eax)
    3d94:	30 19                	xor    %bl,(%ecx)
    3d96:	00 00                	add    %al,(%eax)
    3d98:	48                   	dec    %eax
    3d99:	19 00                	sbb    %eax,(%eax)
    3d9b:	00 48 19             	add    %cl,0x19(%eax)
    3d9e:	00 00                	add    %al,(%eax)
    3da0:	60                   	pusha  
    3da1:	19 00                	sbb    %eax,(%eax)
    3da3:	00 60 19             	add    %ah,0x19(%eax)
    3da6:	00 00                	add    %al,(%eax)
    3da8:	60                   	pusha  
    3da9:	19 00                	sbb    %eax,(%eax)
    3dab:	00 60 19             	add    %ah,0x19(%eax)
    3dae:	00 00                	add    %al,(%eax)
    3db0:	60                   	pusha  
    3db1:	19 00                	sbb    %eax,(%eax)
    3db3:	00 60 19             	add    %ah,0x19(%eax)
    3db6:	00 00                	add    %al,(%eax)
    3db8:	60                   	pusha  
    3db9:	19 00                	sbb    %eax,(%eax)
    3dbb:	00 60 19             	add    %ah,0x19(%eax)
    3dbe:	00 00                	add    %al,(%eax)
    3dc0:	60                   	pusha  
    3dc1:	19 00                	sbb    %eax,(%eax)
    3dc3:	00 60 19             	add    %ah,0x19(%eax)
    3dc6:	00 00                	add    %al,(%eax)
    3dc8:	60                   	pusha  
    3dc9:	19 00                	sbb    %eax,(%eax)
    3dcb:	00 60 19             	add    %ah,0x19(%eax)
    3dce:	00 00                	add    %al,(%eax)
    3dd0:	60                   	pusha  
    3dd1:	19 00                	sbb    %eax,(%eax)
    3dd3:	00 60 19             	add    %ah,0x19(%eax)
    3dd6:	00 00                	add    %al,(%eax)
    3dd8:	60                   	pusha  
    3dd9:	19 00                	sbb    %eax,(%eax)
    3ddb:	00 60 19             	add    %ah,0x19(%eax)
    3dde:	00 00                	add    %al,(%eax)
    3de0:	60                   	pusha  
    3de1:	19 00                	sbb    %eax,(%eax)
    3de3:	00 60 19             	add    %ah,0x19(%eax)
    3de6:	00 00                	add    %al,(%eax)
    3de8:	60                   	pusha  
    3de9:	19 00                	sbb    %eax,(%eax)
    3deb:	00 60 19             	add    %ah,0x19(%eax)
    3dee:	00 00                	add    %al,(%eax)
    3df0:	60                   	pusha  
    3df1:	19 00                	sbb    %eax,(%eax)
    3df3:	00 60 19             	add    %ah,0x19(%eax)
    3df6:	00 00                	add    %al,(%eax)
    3df8:	48                   	dec    %eax
    3df9:	19 00                	sbb    %eax,(%eax)
    3dfb:	00 60 19             	add    %ah,0x19(%eax)
    3dfe:	00 00                	add    %al,(%eax)
    3e00:	48                   	dec    %eax
    3e01:	19 00                	sbb    %eax,(%eax)
    3e03:	00 60 19             	add    %ah,0x19(%eax)
    3e06:	00 00                	add    %al,(%eax)
    3e08:	60                   	pusha  
    3e09:	19 00                	sbb    %eax,(%eax)
    3e0b:	00 60 19             	add    %ah,0x19(%eax)
    3e0e:	00 00                	add    %al,(%eax)
    3e10:	60                   	pusha  
    3e11:	19 00                	sbb    %eax,(%eax)
    3e13:	00 60 19             	add    %ah,0x19(%eax)
    3e16:	00 00                	add    %al,(%eax)
    3e18:	48                   	dec    %eax
    3e19:	19 00                	sbb    %eax,(%eax)
    3e1b:	00 48 19             	add    %cl,0x19(%eax)
    3e1e:	00 00                	add    %al,(%eax)
    3e20:	60                   	pusha  
    3e21:	19 00                	sbb    %eax,(%eax)
    3e23:	00 60 19             	add    %ah,0x19(%eax)
    3e26:	00 00                	add    %al,(%eax)
    3e28:	48                   	dec    %eax
    3e29:	19 00                	sbb    %eax,(%eax)
    3e2b:	00 60 19             	add    %ah,0x19(%eax)
    3e2e:	00 00                	add    %al,(%eax)
    3e30:	60                   	pusha  
    3e31:	19 00                	sbb    %eax,(%eax)
    3e33:	00 48 19             	add    %cl,0x19(%eax)
    3e36:	00 00                	add    %al,(%eax)
    3e38:	60                   	pusha  
    3e39:	19 00                	sbb    %eax,(%eax)
    3e3b:	00 60 19             	add    %ah,0x19(%eax)
    3e3e:	00 00                	add    %al,(%eax)
    3e40:	60                   	pusha  
    3e41:	19 00                	sbb    %eax,(%eax)
    3e43:	00 60 19             	add    %ah,0x19(%eax)
    3e46:	00 00                	add    %al,(%eax)
    3e48:	60                   	pusha  
    3e49:	19 00                	sbb    %eax,(%eax)
    3e4b:	00 60 19             	add    %ah,0x19(%eax)
    3e4e:	00 00                	add    %al,(%eax)
    3e50:	60                   	pusha  
    3e51:	19 00                	sbb    %eax,(%eax)
    3e53:	00 60 19             	add    %ah,0x19(%eax)
    3e56:	00 00                	add    %al,(%eax)
    3e58:	60                   	pusha  
    3e59:	19 00                	sbb    %eax,(%eax)
    3e5b:	00 60 19             	add    %ah,0x19(%eax)
    3e5e:	00 00                	add    %al,(%eax)
    3e60:	48                   	dec    %eax
    3e61:	19 00                	sbb    %eax,(%eax)
    3e63:	00 48 19             	add    %cl,0x19(%eax)
    3e66:	00 00                	add    %al,(%eax)
    3e68:	48                   	dec    %eax
    3e69:	19 00                	sbb    %eax,(%eax)
    3e6b:	00 48 19             	add    %cl,0x19(%eax)
    3e6e:	00 00                	add    %al,(%eax)
    3e70:	48                   	dec    %eax
    3e71:	19 00                	sbb    %eax,(%eax)
    3e73:	00 48 19             	add    %cl,0x19(%eax)
    3e76:	00 00                	add    %al,(%eax)
    3e78:	48                   	dec    %eax
    3e79:	19 00                	sbb    %eax,(%eax)
    3e7b:	00 60 19             	add    %ah,0x19(%eax)
    3e7e:	00 00                	add    %al,(%eax)
    3e80:	60                   	pusha  
    3e81:	19 00                	sbb    %eax,(%eax)
    3e83:	00 60 19             	add    %ah,0x19(%eax)
    3e86:	00 00                	add    %al,(%eax)
    3e88:	60                   	pusha  
    3e89:	19 00                	sbb    %eax,(%eax)
    3e8b:	00 60 19             	add    %ah,0x19(%eax)
    3e8e:	00 00                	add    %al,(%eax)
    3e90:	60                   	pusha  
    3e91:	19 00                	sbb    %eax,(%eax)
    3e93:	00 60 19             	add    %ah,0x19(%eax)
    3e96:	00 00                	add    %al,(%eax)
    3e98:	60                   	pusha  
    3e99:	19 00                	sbb    %eax,(%eax)
    3e9b:	00 60 19             	add    %ah,0x19(%eax)
    3e9e:	00 00                	add    %al,(%eax)
    3ea0:	60                   	pusha  
    3ea1:	19 00                	sbb    %eax,(%eax)
    3ea3:	00 60 19             	add    %ah,0x19(%eax)
    3ea6:	00 00                	add    %al,(%eax)
    3ea8:	60                   	pusha  
    3ea9:	19 00                	sbb    %eax,(%eax)
    3eab:	00 60 19             	add    %ah,0x19(%eax)
    3eae:	00 00                	add    %al,(%eax)
    3eb0:	60                   	pusha  
    3eb1:	19 00                	sbb    %eax,(%eax)
    3eb3:	00 60 19             	add    %ah,0x19(%eax)
    3eb6:	00 00                	add    %al,(%eax)
    3eb8:	60                   	pusha  
    3eb9:	19 00                	sbb    %eax,(%eax)
    3ebb:	00 60 19             	add    %ah,0x19(%eax)
    3ebe:	00 00                	add    %al,(%eax)
    3ec0:	60                   	pusha  
    3ec1:	19 00                	sbb    %eax,(%eax)
    3ec3:	00 60 19             	add    %ah,0x19(%eax)
    3ec6:	00 00                	add    %al,(%eax)
    3ec8:	60                   	pusha  
    3ec9:	19 00                	sbb    %eax,(%eax)
    3ecb:	00 60 19             	add    %ah,0x19(%eax)
    3ece:	00 00                	add    %al,(%eax)
    3ed0:	60                   	pusha  
    3ed1:	19 00                	sbb    %eax,(%eax)
    3ed3:	00 60 19             	add    %ah,0x19(%eax)
    3ed6:	00 00                	add    %al,(%eax)
    3ed8:	60                   	pusha  
    3ed9:	19 00                	sbb    %eax,(%eax)
    3edb:	00 60 19             	add    %ah,0x19(%eax)
    3ede:	00 00                	add    %al,(%eax)
    3ee0:	60                   	pusha  
    3ee1:	19 00                	sbb    %eax,(%eax)
    3ee3:	00 48 19             	add    %cl,0x19(%eax)
    3ee6:	00 00                	add    %al,(%eax)
    3ee8:	48                   	dec    %eax
    3ee9:	19 00                	sbb    %eax,(%eax)
    3eeb:	00 48 19             	add    %cl,0x19(%eax)
    3eee:	00 00                	add    %al,(%eax)
    3ef0:	60                   	pusha  
    3ef1:	19 00                	sbb    %eax,(%eax)
    3ef3:	00 60 19             	add    %ah,0x19(%eax)
    3ef6:	00 00                	add    %al,(%eax)
    3ef8:	60                   	pusha  
    3ef9:	19 00                	sbb    %eax,(%eax)
    3efb:	00 60 19             	add    %ah,0x19(%eax)
    3efe:	00 00                	add    %al,(%eax)
    3f00:	60                   	pusha  
    3f01:	19 00                	sbb    %eax,(%eax)
    3f03:	00 60 19             	add    %ah,0x19(%eax)
    3f06:	00 00                	add    %al,(%eax)
    3f08:	60                   	pusha  
    3f09:	19 00                	sbb    %eax,(%eax)
    3f0b:	00 60 19             	add    %ah,0x19(%eax)
    3f0e:	00 00                	add    %al,(%eax)
    3f10:	60                   	pusha  
    3f11:	19 00                	sbb    %eax,(%eax)
    3f13:	00 60 19             	add    %ah,0x19(%eax)
    3f16:	00 00                	add    %al,(%eax)
    3f18:	60                   	pusha  
    3f19:	19 00                	sbb    %eax,(%eax)
    3f1b:	00 60 19             	add    %ah,0x19(%eax)
    3f1e:	00 00                	add    %al,(%eax)
    3f20:	60                   	pusha  
    3f21:	19 00                	sbb    %eax,(%eax)
    3f23:	00 60 19             	add    %ah,0x19(%eax)
    3f26:	00 00                	add    %al,(%eax)
    3f28:	60                   	pusha  
    3f29:	19 00                	sbb    %eax,(%eax)
    3f2b:	00 60 19             	add    %ah,0x19(%eax)
    3f2e:	00 00                	add    %al,(%eax)
    3f30:	60                   	pusha  
    3f31:	19 00                	sbb    %eax,(%eax)
    3f33:	00 60 19             	add    %ah,0x19(%eax)
    3f36:	00 00                	add    %al,(%eax)
    3f38:	60                   	pusha  
    3f39:	19 00                	sbb    %eax,(%eax)
    3f3b:	00 60 19             	add    %ah,0x19(%eax)
    3f3e:	00 00                	add    %al,(%eax)
    3f40:	60                   	pusha  
    3f41:	19 00                	sbb    %eax,(%eax)
    3f43:	00 60 19             	add    %ah,0x19(%eax)
    3f46:	00 00                	add    %al,(%eax)
    3f48:	60                   	pusha  
    3f49:	19 00                	sbb    %eax,(%eax)
    3f4b:	00 60 19             	add    %ah,0x19(%eax)
    3f4e:	00 00                	add    %al,(%eax)
    3f50:	60                   	pusha  
    3f51:	19 00                	sbb    %eax,(%eax)
    3f53:	00 60 19             	add    %ah,0x19(%eax)
    3f56:	00 00                	add    %al,(%eax)
    3f58:	60                   	pusha  
    3f59:	19 00                	sbb    %eax,(%eax)
    3f5b:	00 60 19             	add    %ah,0x19(%eax)
    3f5e:	00 00                	add    %al,(%eax)
    3f60:	60                   	pusha  
    3f61:	19 00                	sbb    %eax,(%eax)
    3f63:	00 48 19             	add    %cl,0x19(%eax)
    3f66:	00 00                	add    %al,(%eax)
    3f68:	60                   	pusha  
    3f69:	19 00                	sbb    %eax,(%eax)
    3f6b:	00 48 19             	add    %cl,0x19(%eax)
    3f6e:	00 00                	add    %al,(%eax)
    3f70:	50                   	push   %eax
    3f71:	1b 00                	sbb    (%eax),%eax
    3f73:	00 20                	add    %ah,(%eax)
    3f75:	1b 00                	sbb    (%eax),%eax
    3f77:	00 20                	add    %ah,(%eax)
    3f79:	1b 00                	sbb    (%eax),%eax
    3f7b:	00 20                	add    %ah,(%eax)
    3f7d:	1b 00                	sbb    (%eax),%eax
    3f7f:	00 20                	add    %ah,(%eax)
    3f81:	1b 00                	sbb    (%eax),%eax
    3f83:	00 20                	add    %ah,(%eax)
    3f85:	1b 00                	sbb    (%eax),%eax
    3f87:	00 20                	add    %ah,(%eax)
    3f89:	1b 00                	sbb    (%eax),%eax
    3f8b:	00 20                	add    %ah,(%eax)
    3f8d:	1b 00                	sbb    (%eax),%eax
    3f8f:	00 20                	add    %ah,(%eax)
    3f91:	1b 00                	sbb    (%eax),%eax
    3f93:	00 20                	add    %ah,(%eax)
    3f95:	1b 00                	sbb    (%eax),%eax
    3f97:	00 20                	add    %ah,(%eax)
    3f99:	1b 00                	sbb    (%eax),%eax
    3f9b:	00 20                	add    %ah,(%eax)
    3f9d:	1b 00                	sbb    (%eax),%eax
    3f9f:	00 20                	add    %ah,(%eax)
    3fa1:	1b 00                	sbb    (%eax),%eax
    3fa3:	00 20                	add    %ah,(%eax)
    3fa5:	1b 00                	sbb    (%eax),%eax
    3fa7:	00 20                	add    %ah,(%eax)
    3fa9:	1b 00                	sbb    (%eax),%eax
    3fab:	00 20                	add    %ah,(%eax)
    3fad:	1b 00                	sbb    (%eax),%eax
    3faf:	00 20                	add    %ah,(%eax)
    3fb1:	1b 00                	sbb    (%eax),%eax
    3fb3:	00 20                	add    %ah,(%eax)
    3fb5:	1b 00                	sbb    (%eax),%eax
    3fb7:	00 20                	add    %ah,(%eax)
    3fb9:	1b 00                	sbb    (%eax),%eax
    3fbb:	00 20                	add    %ah,(%eax)
    3fbd:	1b 00                	sbb    (%eax),%eax
    3fbf:	00 20                	add    %ah,(%eax)
    3fc1:	1b 00                	sbb    (%eax),%eax
    3fc3:	00 20                	add    %ah,(%eax)
    3fc5:	1b 00                	sbb    (%eax),%eax
    3fc7:	00 20                	add    %ah,(%eax)
    3fc9:	1b 00                	sbb    (%eax),%eax
    3fcb:	00 50 1b             	add    %dl,0x1b(%eax)
    3fce:	00 00                	add    %al,(%eax)
    3fd0:	20 1b                	and    %bl,(%ebx)
    3fd2:	00 00                	add    %al,(%eax)
    3fd4:	50                   	push   %eax
    3fd5:	1b 00                	sbb    (%eax),%eax
    3fd7:	00 20                	add    %ah,(%eax)
    3fd9:	1b 00                	sbb    (%eax),%eax
    3fdb:	00 20                	add    %ah,(%eax)
    3fdd:	1b 00                	sbb    (%eax),%eax
    3fdf:	00 20                	add    %ah,(%eax)
    3fe1:	1b 00                	sbb    (%eax),%eax
    3fe3:	00 20                	add    %ah,(%eax)
    3fe5:	1b 00                	sbb    (%eax),%eax
    3fe7:	00 20                	add    %ah,(%eax)
    3fe9:	1b 00                	sbb    (%eax),%eax
    3feb:	00 50 1b             	add    %dl,0x1b(%eax)
    3fee:	00 00                	add    %al,(%eax)
    3ff0:	50                   	push   %eax
    3ff1:	1b 00                	sbb    (%eax),%eax
    3ff3:	00 20                	add    %ah,(%eax)
    3ff5:	1b 00                	sbb    (%eax),%eax
    3ff7:	00 20                	add    %ah,(%eax)
    3ff9:	1b 00                	sbb    (%eax),%eax
    3ffb:	00 50 1b             	add    %dl,0x1b(%eax)
    3ffe:	00 00                	add    %al,(%eax)
    4000:	20 1b                	and    %bl,(%ebx)
    4002:	00 00                	add    %al,(%eax)
    4004:	20 1b                	and    %bl,(%ebx)
    4006:	00 00                	add    %al,(%eax)
    4008:	50                   	push   %eax
    4009:	1b 00                	sbb    (%eax),%eax
    400b:	00 20                	add    %ah,(%eax)
    400d:	1b 00                	sbb    (%eax),%eax
    400f:	00 20                	add    %ah,(%eax)
    4011:	1b 00                	sbb    (%eax),%eax
    4013:	00 20                	add    %ah,(%eax)
    4015:	1b 00                	sbb    (%eax),%eax
    4017:	00 20                	add    %ah,(%eax)
    4019:	1b 00                	sbb    (%eax),%eax
    401b:	00 20                	add    %ah,(%eax)
    401d:	1b 00                	sbb    (%eax),%eax
    401f:	00 20                	add    %ah,(%eax)
    4021:	1b 00                	sbb    (%eax),%eax
    4023:	00 20                	add    %ah,(%eax)
    4025:	1b 00                	sbb    (%eax),%eax
    4027:	00 20                	add    %ah,(%eax)
    4029:	1b 00                	sbb    (%eax),%eax
    402b:	00 20                	add    %ah,(%eax)
    402d:	1b 00                	sbb    (%eax),%eax
    402f:	00 20                	add    %ah,(%eax)
    4031:	1b 00                	sbb    (%eax),%eax
    4033:	00 50 1b             	add    %dl,0x1b(%eax)
    4036:	00 00                	add    %al,(%eax)
    4038:	50                   	push   %eax
    4039:	1b 00                	sbb    (%eax),%eax
    403b:	00 50 1b             	add    %dl,0x1b(%eax)
    403e:	00 00                	add    %al,(%eax)
    4040:	50                   	push   %eax
    4041:	1b 00                	sbb    (%eax),%eax
    4043:	00 50 1b             	add    %dl,0x1b(%eax)
    4046:	00 00                	add    %al,(%eax)
    4048:	50                   	push   %eax
    4049:	1b 00                	sbb    (%eax),%eax
    404b:	00 50 1b             	add    %dl,0x1b(%eax)
    404e:	00 00                	add    %al,(%eax)
    4050:	20 1b                	and    %bl,(%ebx)
    4052:	00 00                	add    %al,(%eax)
    4054:	20 1b                	and    %bl,(%ebx)
    4056:	00 00                	add    %al,(%eax)
    4058:	20 1b                	and    %bl,(%ebx)
    405a:	00 00                	add    %al,(%eax)
    405c:	20 1b                	and    %bl,(%ebx)
    405e:	00 00                	add    %al,(%eax)
    4060:	20 1b                	and    %bl,(%ebx)
    4062:	00 00                	add    %al,(%eax)
    4064:	20 1b                	and    %bl,(%ebx)
    4066:	00 00                	add    %al,(%eax)
    4068:	20 1b                	and    %bl,(%ebx)
    406a:	00 00                	add    %al,(%eax)
    406c:	20 1b                	and    %bl,(%ebx)
    406e:	00 00                	add    %al,(%eax)
    4070:	20 1b                	and    %bl,(%ebx)
    4072:	00 00                	add    %al,(%eax)
    4074:	20 1b                	and    %bl,(%ebx)
    4076:	00 00                	add    %al,(%eax)
    4078:	20 1b                	and    %bl,(%ebx)
    407a:	00 00                	add    %al,(%eax)
    407c:	20 1b                	and    %bl,(%ebx)
    407e:	00 00                	add    %al,(%eax)
    4080:	20 1b                	and    %bl,(%ebx)
    4082:	00 00                	add    %al,(%eax)
    4084:	20 1b                	and    %bl,(%ebx)
    4086:	00 00                	add    %al,(%eax)
    4088:	20 1b                	and    %bl,(%ebx)
    408a:	00 00                	add    %al,(%eax)
    408c:	20 1b                	and    %bl,(%ebx)
