
fdisk:     file format elf32-i386


Disassembly of section .init:

000010f4 <__entry>:
    10f4:	66 8c d0             	mov    %ss,%ax
    10f7:	8e d8                	mov    %eax,%ds
    10f9:	8e c0                	mov    %eax,%es
    10fb:	8e e0                	mov    %eax,%fs
    10fd:	b8 01 00 00 00       	mov    $0x1,%eax
    1102:	0f a2                	cpuid  
    1104:	0f ba e2 0b          	bt     $0xb,%edx
    1108:	73 0c                	jae    1116 <__entry+0x22>
    110a:	8d 05 78 aa 00 00    	lea    0xaa78,%eax
    1110:	c7 00 b0 8f 00 00    	movl   $0x8fb0,(%eax)
    1116:	6a 00                	push   $0x0
    1118:	6a 00                	push   $0x0
    111a:	89 e5                	mov    %esp,%ebp
    111c:	57                   	push   %edi
    111d:	e8 3e 7b 00 00       	call   8c60 <__main@plt>

Disassembly of section .text:

00001140 <fdsk_confirm>:
    1140:	55                   	push   %ebp
    1141:	89 e5                	mov    %esp,%ebp
    1143:	57                   	push   %edi
    1144:	56                   	push   %esi
    1145:	53                   	push   %ebx
    1146:	83 ec 2c             	sub    $0x2c,%esp
    1149:	89 d7                	mov    %edx,%edi
    114b:	89 45 d4             	mov    %eax,-0x2c(%ebp)
    114e:	e8 6d 22 00 00       	call   33c0 <tinput_new>
    1153:	bb fe ff ff ff       	mov    $0xfffffffe,%ebx
    1158:	85 c0                	test   %eax,%eax
    115a:	0f 84 b5 00 00 00    	je     1215 <fdsk_confirm+0xd5>
    1160:	89 c6                	mov    %eax,%esi
    1162:	51                   	push   %ecx
    1163:	51                   	push   %ecx
    1164:	68 d1 7f 00 00       	push   $0x7fd1
    1169:	50                   	push   %eax
    116a:	e8 e1 22 00 00       	call   3450 <tinput_set_prompt>
    116f:	83 c4 10             	add    $0x10,%esp
    1172:	89 c3                	mov    %eax,%ebx
    1174:	85 c0                	test   %eax,%eax
    1176:	0f 85 85 00 00 00    	jne    1201 <fdsk_confirm+0xc1>
    117c:	51                   	push   %ecx
    117d:	51                   	push   %ecx
    117e:	ff 75 d4             	pushl  -0x2c(%ebp)
    1181:	68 b6 80 00 00       	push   $0x80b6
    1186:	e8 25 7b 00 00       	call   8cb0 <printf@plt>
    118b:	58                   	pop    %eax
    118c:	8d 45 e4             	lea    -0x1c(%ebp),%eax
    118f:	5a                   	pop    %edx
    1190:	50                   	push   %eax
    1191:	56                   	push   %esi
    1192:	e8 a9 3c 00 00       	call   4e40 <tinput_read>
    1197:	83 c4 10             	add    $0x10,%esp
    119a:	83 f8 ff             	cmp    $0xffffffff,%eax
    119d:	74 43                	je     11e2 <fdsk_confirm+0xa2>
    119f:	85 c0                	test   %eax,%eax
    11a1:	75 5e                	jne    1201 <fdsk_confirm+0xc1>
    11a3:	52                   	push   %edx
    11a4:	52                   	push   %edx
    11a5:	68 cc 89 00 00       	push   $0x89cc
    11aa:	ff 75 e4             	pushl  -0x1c(%ebp)
    11ad:	e8 0e 7d 00 00       	call   8ec0 <str_cmp@plt>
    11b2:	83 c4 10             	add    $0x10,%esp
    11b5:	85 c0                	test   %eax,%eax
    11b7:	75 13                	jne    11cc <fdsk_confirm+0x8c>
    11b9:	83 ec 0c             	sub    $0xc,%esp
    11bc:	c6 07 01             	movb   $0x1,(%edi)
    11bf:	ff 75 e4             	pushl  -0x1c(%ebp)
    11c2:	e8 19 7e 00 00       	call   8fe0 <free@plt>
    11c7:	83 c4 10             	add    $0x10,%esp
    11ca:	eb 27                	jmp    11f3 <fdsk_confirm+0xb3>
    11cc:	50                   	push   %eax
    11cd:	50                   	push   %eax
    11ce:	68 a8 80 00 00       	push   $0x80a8
    11d3:	ff 75 e4             	pushl  -0x1c(%ebp)
    11d6:	e8 e5 7c 00 00       	call   8ec0 <str_cmp@plt>
    11db:	83 c4 10             	add    $0x10,%esp
    11de:	85 c0                	test   %eax,%eax
    11e0:	75 9a                	jne    117c <fdsk_confirm+0x3c>
    11e2:	83 ec 0c             	sub    $0xc,%esp
    11e5:	c6 07 00             	movb   $0x0,(%edi)
    11e8:	ff 75 e4             	pushl  -0x1c(%ebp)
    11eb:	e8 f0 7d 00 00       	call   8fe0 <free@plt>
    11f0:	83 c4 10             	add    $0x10,%esp
    11f3:	83 ec 0c             	sub    $0xc,%esp
    11f6:	56                   	push   %esi
    11f7:	e8 24 22 00 00       	call   3420 <tinput_destroy>
    11fc:	83 c4 10             	add    $0x10,%esp
    11ff:	eb 14                	jmp    1215 <fdsk_confirm+0xd5>
    1201:	83 ec 0c             	sub    $0xc,%esp
    1204:	89 45 d4             	mov    %eax,-0x2c(%ebp)
    1207:	56                   	push   %esi
    1208:	e8 13 22 00 00       	call   3420 <tinput_destroy>
    120d:	8b 45 d4             	mov    -0x2c(%ebp),%eax
    1210:	83 c4 10             	add    $0x10,%esp
    1213:	89 c3                	mov    %eax,%ebx
    1215:	8d 65 f4             	lea    -0xc(%ebp),%esp
    1218:	89 d8                	mov    %ebx,%eax
    121a:	5b                   	pop    %ebx
    121b:	5e                   	pop    %esi
    121c:	5f                   	pop    %edi
    121d:	5d                   	pop    %ebp
    121e:	c3                   	ret    

0000121f <fdsk_create_part>:
    121f:	55                   	push   %ebp
    1220:	89 e5                	mov    %esp,%ebp
    1222:	57                   	push   %edi
    1223:	56                   	push   %esi
    1224:	53                   	push   %ebx
    1225:	83 ec 70             	sub    $0x70,%esp
    1228:	89 45 90             	mov    %eax,-0x70(%ebp)
    122b:	31 c0                	xor    %eax,%eax
    122d:	8d 75 c0             	lea    -0x40(%ebp),%esi
    1230:	83 fa 02             	cmp    $0x2,%edx
    1233:	56                   	push   %esi
    1234:	0f 94 c0             	sete   %al
    1237:	50                   	push   %eax
    1238:	89 55 94             	mov    %edx,-0x6c(%ebp)
    123b:	ff 75 90             	pushl  -0x70(%ebp)
    123e:	c7 45 a4 00 00 00 00 	movl   $0x0,-0x5c(%ebp)
    1245:	e8 a6 5b 00 00       	call   6df0 <fdisk_part_get_max_avail>
    124a:	83 c4 10             	add    $0x10,%esp
    124d:	85 c0                	test   %eax,%eax
    124f:	0f 85 55 02 00 00    	jne    14aa <fdsk_create_part+0x28b>
    1255:	83 ec 0c             	sub    $0xc,%esp
    1258:	56                   	push   %esi
    1259:	e8 12 3e 00 00       	call   5070 <fdisk_cap_simplify>
    125e:	58                   	pop    %eax
    125f:	8d 45 a4             	lea    -0x5c(%ebp),%eax
    1262:	5a                   	pop    %edx
    1263:	50                   	push   %eax
    1264:	56                   	push   %esi
    1265:	e8 e6 3f 00 00       	call   5250 <fdisk_cap_format>
    126a:	83 c4 10             	add    $0x10,%esp
    126d:	85 c0                	test   %eax,%eax
    126f:	74 0c                	je     127d <fdsk_create_part+0x5e>
    1271:	31 f6                	xor    %esi,%esi
    1273:	bb fe ff ff ff       	mov    $0xfffffffe,%ebx
    1278:	e9 38 02 00 00       	jmp    14b5 <fdsk_create_part+0x296>
    127d:	e8 3e 21 00 00       	call   33c0 <tinput_new>
    1282:	89 c6                	mov    %eax,%esi
    1284:	85 c0                	test   %eax,%eax
    1286:	74 e9                	je     1271 <fdsk_create_part+0x52>
    1288:	50                   	push   %eax
    1289:	50                   	push   %eax
    128a:	68 d7 7f 00 00       	push   $0x7fd7
    128f:	56                   	push   %esi
    1290:	e8 bb 21 00 00       	call   3450 <tinput_set_prompt>
    1295:	83 c4 10             	add    $0x10,%esp
    1298:	89 c3                	mov    %eax,%ebx
    129a:	85 c0                	test   %eax,%eax
    129c:	0f 85 13 02 00 00    	jne    14b5 <fdsk_create_part+0x296>
    12a2:	8d 7d a0             	lea    -0x60(%ebp),%edi
    12a5:	83 ec 0c             	sub    $0xc,%esp
    12a8:	68 c0 82 00 00       	push   $0x82c0
    12ad:	e8 fe 79 00 00       	call   8cb0 <printf@plt>
    12b2:	83 c4 0c             	add    $0xc,%esp
    12b5:	57                   	push   %edi
    12b6:	ff 75 a4             	pushl  -0x5c(%ebp)
    12b9:	56                   	push   %esi
    12ba:	e8 e1 21 00 00       	call   34a0 <tinput_read_i>
    12bf:	83 c4 10             	add    $0x10,%esp
    12c2:	85 c0                	test   %eax,%eax
    12c4:	0f 85 e9 01 00 00    	jne    14b3 <fdsk_create_part+0x294>
    12ca:	50                   	push   %eax
    12cb:	50                   	push   %eax
    12cc:	8d 45 b0             	lea    -0x50(%ebp),%eax
    12cf:	50                   	push   %eax
    12d0:	ff 75 a0             	pushl  -0x60(%ebp)
    12d3:	e8 78 40 00 00       	call   5350 <fdisk_cap_parse>
    12d8:	83 c4 10             	add    $0x10,%esp
    12db:	85 c0                	test   %eax,%eax
    12dd:	75 c6                	jne    12a5 <fdsk_create_part+0x86>
    12df:	83 ec 0c             	sub    $0xc,%esp
    12e2:	56                   	push   %esi
    12e3:	e8 38 21 00 00       	call   3420 <tinput_destroy>
    12e8:	58                   	pop    %eax
    12e9:	ff 75 a4             	pushl  -0x5c(%ebp)
    12ec:	e8 ef 7c 00 00       	call   8fe0 <free@plt>
    12f1:	83 c4 10             	add    $0x10,%esp
    12f4:	c7 45 a4 00 00 00 00 	movl   $0x0,-0x5c(%ebp)
    12fb:	83 7d 94 01          	cmpl   $0x1,-0x6c(%ebp)
    12ff:	0f 84 51 01 00 00    	je     1456 <fdsk_create_part+0x237>
    1305:	83 ec 0c             	sub    $0xc,%esp
    1308:	8d 45 a8             	lea    -0x58(%ebp),%eax
    130b:	c7 45 a8 00 00 00 00 	movl   $0x0,-0x58(%ebp)
    1312:	50                   	push   %eax
    1313:	e8 a8 15 00 00       	call   28c0 <nchoice_create>
    1318:	83 c4 10             	add    $0x10,%esp
    131b:	85 c0                	test   %eax,%eax
    131d:	74 34                	je     1353 <fdsk_create_part+0x134>
    131f:	83 f8 fe             	cmp    $0xfffffffe,%eax
    1322:	74 15                	je     1339 <fdsk_create_part+0x11a>
    1324:	57                   	push   %edi
    1325:	68 8c 01 00 00       	push   $0x18c
    132a:	68 94 89 00 00       	push   $0x8994
    132f:	68 db 7f 00 00       	push   $0x7fdb
    1334:	e8 f7 7a 00 00       	call   8e30 <assert_abort@plt>
    1339:	83 ec 0c             	sub    $0xc,%esp
    133c:	bb fe ff ff ff       	mov    $0xfffffffe,%ebx
    1341:	68 13 81 00 00       	push   $0x8113
    1346:	e8 65 79 00 00       	call   8cb0 <printf@plt>
    134b:	83 c4 10             	add    $0x10,%esp
    134e:	e9 dc 00 00 00       	jmp    142f <fdsk_create_part+0x210>
    1353:	56                   	push   %esi
    1354:	56                   	push   %esi
    1355:	68 e8 7f 00 00       	push   $0x7fe8
    135a:	ff 75 a8             	pushl  -0x58(%ebp)
    135d:	e8 1e 16 00 00       	call   2980 <nchoice_set_prompt>
    1362:	83 c4 10             	add    $0x10,%esp
    1365:	89 c7                	mov    %eax,%edi
    1367:	85 c0                	test   %eax,%eax
    1369:	74 1a                	je     1385 <fdsk_create_part+0x166>
    136b:	83 f8 fe             	cmp    $0xfffffffe,%eax
    136e:	74 c9                	je     1339 <fdsk_create_part+0x11a>
    1370:	53                   	push   %ebx
    1371:	68 93 01 00 00       	push   $0x193
    1376:	68 94 89 00 00       	push   $0x8994
    137b:	68 db 7f 00 00       	push   $0x7fdb
    1380:	e8 ab 7a 00 00       	call   8e30 <assert_abort@plt>
    1385:	8d 75 d0             	lea    -0x30(%ebp),%esi
    1388:	51                   	push   %ecx
    1389:	51                   	push   %ecx
    138a:	56                   	push   %esi
    138b:	57                   	push   %edi
    138c:	e8 af 6b 00 00       	call   7f40 <fdisk_fstype_format>
    1391:	83 c4 10             	add    $0x10,%esp
    1394:	85 c0                	test   %eax,%eax
    1396:	0f 85 91 00 00 00    	jne    142d <fdsk_create_part+0x20e>
    139c:	31 c0                	xor    %eax,%eax
    139e:	83 ff 02             	cmp    $0x2,%edi
    13a1:	0f 94 c0             	sete   %al
    13a4:	50                   	push   %eax
    13a5:	57                   	push   %edi
    13a6:	ff 75 d0             	pushl  -0x30(%ebp)
    13a9:	ff 75 a8             	pushl  -0x58(%ebp)
    13ac:	e8 0f 16 00 00       	call   29c0 <nchoice_add>
    13b1:	83 c4 10             	add    $0x10,%esp
    13b4:	85 c0                	test   %eax,%eax
    13b6:	74 1e                	je     13d6 <fdsk_create_part+0x1b7>
    13b8:	83 f8 fe             	cmp    $0xfffffffe,%eax
    13bb:	0f 84 78 ff ff ff    	je     1339 <fdsk_create_part+0x11a>
    13c1:	52                   	push   %edx
    13c2:	68 a0 01 00 00       	push   $0x1a0
    13c7:	68 94 89 00 00       	push   $0x8994
    13cc:	68 db 7f 00 00       	push   $0x7fdb
    13d1:	e8 5a 7a 00 00       	call   8e30 <assert_abort@plt>
    13d6:	83 ec 0c             	sub    $0xc,%esp
    13d9:	47                   	inc    %edi
    13da:	ff 75 d0             	pushl  -0x30(%ebp)
    13dd:	e8 fe 7b 00 00       	call   8fe0 <free@plt>
    13e2:	83 c4 10             	add    $0x10,%esp
    13e5:	c7 45 d0 00 00 00 00 	movl   $0x0,-0x30(%ebp)
    13ec:	83 ff 04             	cmp    $0x4,%edi
    13ef:	75 97                	jne    1388 <fdsk_create_part+0x169>
    13f1:	50                   	push   %eax
    13f2:	50                   	push   %eax
    13f3:	8d 45 ac             	lea    -0x54(%ebp),%eax
    13f6:	50                   	push   %eax
    13f7:	ff 75 a8             	pushl  -0x58(%ebp)
    13fa:	e8 71 16 00 00       	call   2a70 <nchoice_get>
    13ff:	83 c4 10             	add    $0x10,%esp
    1402:	89 c3                	mov    %eax,%ebx
    1404:	85 c0                	test   %eax,%eax
    1406:	74 12                	je     141a <fdsk_create_part+0x1fb>
    1408:	83 ec 0c             	sub    $0xc,%esp
    140b:	68 e4 82 00 00       	push   $0x82e4
    1410:	e8 9b 78 00 00       	call   8cb0 <printf@plt>
    1415:	83 c4 10             	add    $0x10,%esp
    1418:	eb 15                	jmp    142f <fdsk_create_part+0x210>
    141a:	83 ec 0c             	sub    $0xc,%esp
    141d:	ff 75 a8             	pushl  -0x58(%ebp)
    1420:	e8 2b 15 00 00       	call   2950 <nchoice_destroy>
    1425:	8b 45 ac             	mov    -0x54(%ebp),%eax
    1428:	83 c4 10             	add    $0x10,%esp
    142b:	eb 2b                	jmp    1458 <fdsk_create_part+0x239>
    142d:	89 c3                	mov    %eax,%ebx
    142f:	83 ec 0c             	sub    $0xc,%esp
    1432:	ff 75 d0             	pushl  -0x30(%ebp)
    1435:	e8 a6 7b 00 00       	call   8fe0 <free@plt>
    143a:	8b 45 a8             	mov    -0x58(%ebp),%eax
    143d:	83 c4 10             	add    $0x10,%esp
    1440:	85 c0                	test   %eax,%eax
    1442:	0f 84 8d 00 00 00    	je     14d5 <fdsk_create_part+0x2b6>
    1448:	83 ec 0c             	sub    $0xc,%esp
    144b:	50                   	push   %eax
    144c:	e8 ff 14 00 00       	call   2950 <nchoice_destroy>
    1451:	83 c4 10             	add    $0x10,%esp
    1454:	eb 7f                	jmp    14d5 <fdsk_create_part+0x2b6>
    1456:	31 c0                	xor    %eax,%eax
    1458:	83 ec 0c             	sub    $0xc,%esp
    145b:	8d 5d d0             	lea    -0x30(%ebp),%ebx
    145e:	89 45 8c             	mov    %eax,-0x74(%ebp)
    1461:	89 df                	mov    %ebx,%edi
    1463:	53                   	push   %ebx
    1464:	e8 77 6a 00 00       	call   7ee0 <fdisk_pspec_init>
    1469:	83 c4 0c             	add    $0xc,%esp
    146c:	8d 75 b0             	lea    -0x50(%ebp),%esi
    146f:	b9 04 00 00 00       	mov    $0x4,%ecx
    1474:	8b 45 94             	mov    -0x6c(%ebp),%eax
    1477:	f3 a5                	rep movsl %ds:(%esi),%es:(%edi)
    1479:	6a 00                	push   $0x0
    147b:	53                   	push   %ebx
    147c:	ff 75 90             	pushl  -0x70(%ebp)
    147f:	89 45 e0             	mov    %eax,-0x20(%ebp)
    1482:	8b 45 8c             	mov    -0x74(%ebp),%eax
    1485:	89 45 e4             	mov    %eax,-0x1c(%ebp)
    1488:	e8 a3 5d 00 00       	call   7230 <fdisk_part_create>
    148d:	83 c4 10             	add    $0x10,%esp
    1490:	89 c3                	mov    %eax,%ebx
    1492:	85 c0                	test   %eax,%eax
    1494:	74 43                	je     14d9 <fdsk_create_part+0x2ba>
    1496:	83 ec 0c             	sub    $0xc,%esp
    1499:	31 f6                	xor    %esi,%esi
    149b:	68 00 80 00 00       	push   $0x8000
    14a0:	e8 0b 78 00 00       	call   8cb0 <printf@plt>
    14a5:	83 c4 10             	add    $0x10,%esp
    14a8:	eb 0b                	jmp    14b5 <fdsk_create_part+0x296>
    14aa:	31 f6                	xor    %esi,%esi
    14ac:	bb f6 fe ff ff       	mov    $0xfffffef6,%ebx
    14b1:	eb 02                	jmp    14b5 <fdsk_create_part+0x296>
    14b3:	89 c3                	mov    %eax,%ebx
    14b5:	83 ec 0c             	sub    $0xc,%esp
    14b8:	ff 75 a4             	pushl  -0x5c(%ebp)
    14bb:	e8 20 7b 00 00       	call   8fe0 <free@plt>
    14c0:	83 c4 10             	add    $0x10,%esp
    14c3:	85 f6                	test   %esi,%esi
    14c5:	74 12                	je     14d9 <fdsk_create_part+0x2ba>
    14c7:	83 ec 0c             	sub    $0xc,%esp
    14ca:	56                   	push   %esi
    14cb:	e8 50 1f 00 00       	call   3420 <tinput_destroy>
    14d0:	83 c4 10             	add    $0x10,%esp
    14d3:	eb 04                	jmp    14d9 <fdsk_create_part+0x2ba>
    14d5:	31 f6                	xor    %esi,%esi
    14d7:	eb dc                	jmp    14b5 <fdsk_create_part+0x296>
    14d9:	8d 65 f4             	lea    -0xc(%ebp),%esp
    14dc:	89 d8                	mov    %ebx,%eax
    14de:	5b                   	pop    %ebx
    14df:	5e                   	pop    %esi
    14e0:	5f                   	pop    %edi
    14e1:	5d                   	pop    %ebp
    14e2:	c3                   	ret    
    14e3:	66 90                	xchg   %ax,%ax
    14e5:	66 90                	xchg   %ax,%ax
    14e7:	66 90                	xchg   %ax,%ax
    14e9:	66 90                	xchg   %ax,%ax
    14eb:	66 90                	xchg   %ax,%ax
    14ed:	66 90                	xchg   %ax,%ax
    14ef:	90                   	nop

000014f0 <main>:
    14f0:	8d 4c 24 04          	lea    0x4(%esp),%ecx
    14f4:	83 e4 f0             	and    $0xfffffff0,%esp
    14f7:	ff 71 fc             	pushl  -0x4(%ecx)
    14fa:	55                   	push   %ebp
    14fb:	89 e5                	mov    %esp,%ebp
    14fd:	57                   	push   %edi
    14fe:	56                   	push   %esi
    14ff:	53                   	push   %ebx
    1500:	51                   	push   %ecx
    1501:	81 ec c4 00 00 00    	sub    $0xc4,%esp
    1507:	68 7c aa 00 00       	push   $0xaa7c
    150c:	e8 4f 49 00 00       	call   5e60 <fdisk_create>
    1511:	83 c4 10             	add    $0x10,%esp
    1514:	85 c0                	test   %eax,%eax
    1516:	0f 85 b2 00 00 00    	jne    15ce <main+0xde>
    151c:	83 ec 0c             	sub    $0xc,%esp
    151f:	8d 45 80             	lea    -0x80(%ebp),%eax
    1522:	c7 85 7c ff ff ff 00 	movl   $0x0,-0x84(%ebp)
    1529:	00 00 00 
    152c:	c7 45 80 00 00 00 00 	movl   $0x0,-0x80(%ebp)
    1533:	50                   	push   %eax
    1534:	c7 45 84 00 00 00 00 	movl   $0x0,-0x7c(%ebp)
    153b:	c7 45 88 00 00 00 00 	movl   $0x0,-0x78(%ebp)
    1542:	c7 45 90 00 00 00 00 	movl   $0x0,-0x70(%ebp)
    1549:	e8 72 13 00 00       	call   28c0 <nchoice_create>
    154e:	83 c4 10             	add    $0x10,%esp
    1551:	85 c0                	test   %eax,%eax
    1553:	0f 84 8c 00 00 00    	je     15e5 <main+0xf5>
    1559:	83 f8 fe             	cmp    $0xfffffffe,%eax
    155c:	0f 85 df 0a 00 00    	jne    2041 <main+0xb51>
    1562:	83 ec 0c             	sub    $0xc,%esp
    1565:	68 13 81 00 00       	push   $0x8113
    156a:	e8 41 77 00 00       	call   8cb0 <printf@plt>
    156f:	83 c4 10             	add    $0x10,%esp
    1572:	8b 85 7c ff ff ff    	mov    -0x84(%ebp),%eax
    1578:	85 c0                	test   %eax,%eax
    157a:	74 0c                	je     1588 <main+0x98>
    157c:	83 ec 0c             	sub    $0xc,%esp
    157f:	50                   	push   %eax
    1580:	e8 0b 4b 00 00       	call   6090 <fdisk_dev_list_free>
    1585:	83 c4 10             	add    $0x10,%esp
    1588:	8b 45 80             	mov    -0x80(%ebp),%eax
    158b:	85 c0                	test   %eax,%eax
    158d:	74 0c                	je     159b <main+0xab>
    158f:	83 ec 0c             	sub    $0xc,%esp
    1592:	50                   	push   %eax
    1593:	e8 b8 13 00 00       	call   2950 <nchoice_destroy>
    1598:	83 c4 10             	add    $0x10,%esp
    159b:	83 ec 0c             	sub    $0xc,%esp
    159e:	ff 75 90             	pushl  -0x70(%ebp)
    15a1:	e8 3a 7a 00 00       	call   8fe0 <free@plt>
    15a6:	59                   	pop    %ecx
    15a7:	ff 75 84             	pushl  -0x7c(%ebp)
    15aa:	e8 31 7a 00 00       	call   8fe0 <free@plt>
    15af:	5b                   	pop    %ebx
    15b0:	ff 75 88             	pushl  -0x78(%ebp)
    15b3:	e8 28 7a 00 00       	call   8fe0 <free@plt>
    15b8:	83 c4 10             	add    $0x10,%esp
    15bb:	bf 01 00 00 00       	mov    $0x1,%edi
    15c0:	8d 65 f0             	lea    -0x10(%ebp),%esp
    15c3:	89 f8                	mov    %edi,%eax
    15c5:	59                   	pop    %ecx
    15c6:	5b                   	pop    %ebx
    15c7:	5e                   	pop    %esi
    15c8:	5f                   	pop    %edi
    15c9:	5d                   	pop    %ebp
    15ca:	8d 61 fc             	lea    -0x4(%ecx),%esp
    15cd:	c3                   	ret    
    15ce:	83 ec 0c             	sub    $0xc,%esp
    15d1:	bf 01 00 00 00       	mov    $0x1,%edi
    15d6:	68 1b 80 00 00       	push   $0x801b
    15db:	e8 d0 76 00 00       	call   8cb0 <printf@plt>
    15e0:	83 c4 10             	add    $0x10,%esp
    15e3:	eb db                	jmp    15c0 <main+0xd0>
    15e5:	57                   	push   %edi
    15e6:	57                   	push   %edi
    15e7:	68 36 80 00 00       	push   $0x8036
    15ec:	ff 75 80             	pushl  -0x80(%ebp)
    15ef:	e8 8c 13 00 00       	call   2980 <nchoice_set_prompt>
    15f4:	83 c4 10             	add    $0x10,%esp
    15f7:	85 c0                	test   %eax,%eax
    15f9:	74 1e                	je     1619 <main+0x129>
    15fb:	83 f8 fe             	cmp    $0xfffffffe,%eax
    15fe:	0f 84 5e ff ff ff    	je     1562 <main+0x72>
    1604:	56                   	push   %esi
    1605:	68 a9 00 00 00       	push   $0xa9
    160a:	68 94 89 00 00       	push   $0x8994
    160f:	68 db 7f 00 00       	push   $0x7fdb
    1614:	e8 17 78 00 00       	call   8e30 <assert_abort@plt>
    1619:	8d 85 7c ff ff ff    	lea    -0x84(%ebp),%eax
    161f:	53                   	push   %ebx
    1620:	53                   	push   %ebx
    1621:	50                   	push   %eax
    1622:	ff 35 7c aa 00 00    	pushl  0xaa7c
    1628:	e8 03 49 00 00       	call   5f30 <fdisk_dev_list_get>
    162d:	83 c4 10             	add    $0x10,%esp
    1630:	89 85 44 ff ff ff    	mov    %eax,-0xbc(%ebp)
    1636:	85 c0                	test   %eax,%eax
    1638:	75 5b                	jne    1695 <main+0x1a5>
    163a:	83 ec 0c             	sub    $0xc,%esp
    163d:	8d 75 84             	lea    -0x7c(%ebp),%esi
    1640:	ff b5 7c ff ff ff    	pushl  -0x84(%ebp)
    1646:	e8 c5 4a 00 00       	call   6110 <fdisk_dev_first>
    164b:	8d 7d cc             	lea    -0x34(%ebp),%edi
    164e:	89 c3                	mov    %eax,%ebx
    1650:	83 c4 10             	add    $0x10,%esp
    1653:	85 db                	test   %ebx,%ebx
    1655:	0f 84 0f 01 00 00    	je     176a <main+0x27a>
    165b:	51                   	push   %ecx
    165c:	51                   	push   %ecx
    165d:	56                   	push   %esi
    165e:	53                   	push   %ebx
    165f:	e8 fc 4a 00 00       	call   6160 <fdisk_dev_info_get_svcname>
    1664:	83 c4 10             	add    $0x10,%esp
    1667:	85 c0                	test   %eax,%eax
    1669:	74 3f                	je     16aa <main+0x1ba>
    166b:	50                   	push   %eax
    166c:	50                   	push   %eax
    166d:	8d 45 a0             	lea    -0x60(%ebp),%eax
    1670:	50                   	push   %eax
    1671:	53                   	push   %ebx
    1672:	e8 d9 4a 00 00       	call   6150 <fdisk_dev_info_get_svcid>
    1677:	58                   	pop    %eax
    1678:	5a                   	pop    %edx
    1679:	ff 75 a0             	pushl  -0x60(%ebp)
    167c:	68 04 83 00 00       	push   $0x8304
    1681:	e8 2a 76 00 00       	call   8cb0 <printf@plt>
    1686:	89 1c 24             	mov    %ebx,(%esp)
    1689:	e8 a2 4a 00 00       	call   6130 <fdisk_dev_next>
    168e:	83 c4 10             	add    $0x10,%esp
    1691:	89 c3                	mov    %eax,%ebx
    1693:	eb be                	jmp    1653 <main+0x163>
    1695:	83 ec 0c             	sub    $0xc,%esp
    1698:	68 44 80 00 00       	push   $0x8044
    169d:	e8 0e 76 00 00       	call   8cb0 <printf@plt>
    16a2:	83 c4 10             	add    $0x10,%esp
    16a5:	e9 c8 fe ff ff       	jmp    1572 <main+0x82>
    16aa:	50                   	push   %eax
    16ab:	50                   	push   %eax
    16ac:	57                   	push   %edi
    16ad:	53                   	push   %ebx
    16ae:	e8 0d 4b 00 00       	call   61c0 <fdisk_dev_info_capacity>
    16b3:	83 c4 10             	add    $0x10,%esp
    16b6:	85 c0                	test   %eax,%eax
    16b8:	74 0c                	je     16c6 <main+0x1d6>
    16ba:	51                   	push   %ecx
    16bb:	51                   	push   %ecx
    16bc:	ff 75 84             	pushl  -0x7c(%ebp)
    16bf:	68 3c 83 00 00       	push   $0x833c
    16c4:	eb bb                	jmp    1681 <main+0x191>
    16c6:	83 ec 0c             	sub    $0xc,%esp
    16c9:	57                   	push   %edi
    16ca:	e8 a1 39 00 00       	call   5070 <fdisk_cap_simplify>
    16cf:	58                   	pop    %eax
    16d0:	8d 45 88             	lea    -0x78(%ebp),%eax
    16d3:	5a                   	pop    %edx
    16d4:	50                   	push   %eax
    16d5:	57                   	push   %edi
    16d6:	e8 75 3b 00 00       	call   5250 <fdisk_cap_format>
    16db:	83 c4 10             	add    $0x10,%esp
    16de:	85 c0                	test   %eax,%eax
    16e0:	0f 85 d8 00 00 00    	jne    17be <main+0x2ce>
    16e6:	ff 75 88             	pushl  -0x78(%ebp)
    16e9:	ff 75 84             	pushl  -0x7c(%ebp)
    16ec:	8d 45 90             	lea    -0x70(%ebp),%eax
    16ef:	68 60 80 00 00       	push   $0x8060
    16f4:	50                   	push   %eax
    16f5:	e8 26 78 00 00       	call   8f20 <asprintf@plt>
    16fa:	83 c4 10             	add    $0x10,%esp
    16fd:	85 c0                	test   %eax,%eax
    16ff:	0f 88 5d fe ff ff    	js     1562 <main+0x72>
    1705:	83 ec 0c             	sub    $0xc,%esp
    1708:	ff 75 84             	pushl  -0x7c(%ebp)
    170b:	e8 d0 78 00 00       	call   8fe0 <free@plt>
    1710:	58                   	pop    %eax
    1711:	ff 75 88             	pushl  -0x78(%ebp)
    1714:	c7 45 84 00 00 00 00 	movl   $0x0,-0x7c(%ebp)
    171b:	e8 c0 78 00 00       	call   8fe0 <free@plt>
    1720:	6a 00                	push   $0x0
    1722:	53                   	push   %ebx
    1723:	ff 75 90             	pushl  -0x70(%ebp)
    1726:	ff 75 80             	pushl  -0x80(%ebp)
    1729:	c7 45 88 00 00 00 00 	movl   $0x0,-0x78(%ebp)
    1730:	e8 8b 12 00 00       	call   29c0 <nchoice_add>
    1735:	83 c4 20             	add    $0x20,%esp
    1738:	85 c0                	test   %eax,%eax
    173a:	0f 85 9c 00 00 00    	jne    17dc <main+0x2ec>
    1740:	83 ec 0c             	sub    $0xc,%esp
    1743:	ff 85 44 ff ff ff    	incl   -0xbc(%ebp)
    1749:	ff 75 90             	pushl  -0x70(%ebp)
    174c:	e8 8f 78 00 00       	call   8fe0 <free@plt>
    1751:	89 1c 24             	mov    %ebx,(%esp)
    1754:	c7 45 90 00 00 00 00 	movl   $0x0,-0x70(%ebp)
    175b:	e8 d0 49 00 00       	call   6130 <fdisk_dev_next>
    1760:	83 c4 10             	add    $0x10,%esp
    1763:	89 c3                	mov    %eax,%ebx
    1765:	e9 e9 fe ff ff       	jmp    1653 <main+0x163>
    176a:	83 bd 44 ff ff ff 00 	cmpl   $0x0,-0xbc(%ebp)
    1771:	75 15                	jne    1788 <main+0x298>
    1773:	83 ec 0c             	sub    $0xc,%esp
    1776:	68 68 80 00 00       	push   $0x8068
    177b:	e8 30 75 00 00       	call   8cb0 <printf@plt>
    1780:	83 c4 10             	add    $0x10,%esp
    1783:	e9 ea fd ff ff       	jmp    1572 <main+0x82>
    1788:	6a 00                	push   $0x0
    178a:	6a 00                	push   $0x0
    178c:	68 80 80 00 00       	push   $0x8080
    1791:	ff 75 80             	pushl  -0x80(%ebp)
    1794:	e8 27 12 00 00       	call   29c0 <nchoice_add>
    1799:	83 c4 10             	add    $0x10,%esp
    179c:	85 c0                	test   %eax,%eax
    179e:	74 5a                	je     17fa <main+0x30a>
    17a0:	83 f8 fe             	cmp    $0xfffffffe,%eax
    17a3:	0f 84 b9 fd ff ff    	je     1562 <main+0x72>
    17a9:	53                   	push   %ebx
    17aa:	68 f4 00 00 00       	push   $0xf4
    17af:	68 94 89 00 00       	push   $0x8994
    17b4:	68 db 7f 00 00       	push   $0x7fdb
    17b9:	e8 72 76 00 00       	call   8e30 <assert_abort@plt>
    17be:	83 f8 fe             	cmp    $0xfffffffe,%eax
    17c1:	0f 84 9b fd ff ff    	je     1562 <main+0x72>
    17c7:	50                   	push   %eax
    17c8:	68 cc 00 00 00       	push   $0xcc
    17cd:	68 94 89 00 00       	push   $0x8994
    17d2:	68 db 7f 00 00       	push   $0x7fdb
    17d7:	e8 54 76 00 00       	call   8e30 <assert_abort@plt>
    17dc:	83 f8 fe             	cmp    $0xfffffffe,%eax
    17df:	0f 84 7d fd ff ff    	je     1562 <main+0x72>
    17e5:	56                   	push   %esi
    17e6:	68 df 00 00 00       	push   $0xdf
    17eb:	68 94 89 00 00       	push   $0x8994
    17f0:	68 db 7f 00 00       	push   $0x7fdb
    17f5:	e8 36 76 00 00       	call   8e30 <assert_abort@plt>
    17fa:	8d 45 b0             	lea    -0x50(%ebp),%eax
    17fd:	51                   	push   %ecx
    17fe:	51                   	push   %ecx
    17ff:	50                   	push   %eax
    1800:	ff 75 80             	pushl  -0x80(%ebp)
    1803:	e8 68 12 00 00       	call   2a70 <nchoice_get>
    1808:	83 c4 10             	add    $0x10,%esp
    180b:	89 c7                	mov    %eax,%edi
    180d:	85 c0                	test   %eax,%eax
    180f:	0f 85 87 06 00 00    	jne    1e9c <main+0x9ac>
    1815:	8b 45 b0             	mov    -0x50(%ebp),%eax
    1818:	85 c0                	test   %eax,%eax
    181a:	0f 84 70 06 00 00    	je     1e90 <main+0x9a0>
    1820:	52                   	push   %edx
    1821:	52                   	push   %edx
    1822:	8d 55 a0             	lea    -0x60(%ebp),%edx
    1825:	52                   	push   %edx
    1826:	50                   	push   %eax
    1827:	e8 24 49 00 00       	call   6150 <fdisk_dev_info_get_svcid>
    182c:	83 c4 10             	add    $0x10,%esp
    182f:	83 ec 0c             	sub    $0xc,%esp
    1832:	ff b5 7c ff ff ff    	pushl  -0x84(%ebp)
    1838:	e8 53 48 00 00       	call   6090 <fdisk_dev_list_free>
    183d:	5e                   	pop    %esi
    183e:	ff 75 80             	pushl  -0x80(%ebp)
    1841:	e8 0a 11 00 00       	call   2950 <nchoice_destroy>
    1846:	8b 45 a0             	mov    -0x60(%ebp),%eax
    1849:	83 c4 10             	add    $0x10,%esp
    184c:	85 c0                	test   %eax,%eax
    184e:	0f 84 6c fd ff ff    	je     15c0 <main+0xd0>
    1854:	52                   	push   %edx
    1855:	8d 95 4c ff ff ff    	lea    -0xb4(%ebp),%edx
    185b:	52                   	push   %edx
    185c:	50                   	push   %eax
    185d:	ff 35 7c aa 00 00    	pushl  0xaa7c
    1863:	e8 a8 49 00 00       	call   6210 <fdisk_dev_open>
    1868:	83 c4 10             	add    $0x10,%esp
    186b:	89 c7                	mov    %eax,%edi
    186d:	85 c0                	test   %eax,%eax
    186f:	0f 85 58 02 00 00    	jne    1acd <main+0x5dd>
    1875:	80 3d 80 aa 00 00 00 	cmpb   $0x0,0xaa80
    187c:	0f 85 d9 01 00 00    	jne    1a5b <main+0x56b>
    1882:	89 85 44 ff ff ff    	mov    %eax,-0xbc(%ebp)
    1888:	83 ec 0c             	sub    $0xc,%esp
    188b:	8d 85 50 ff ff ff    	lea    -0xb0(%ebp),%eax
    1891:	8b 9d 4c ff ff ff    	mov    -0xb4(%ebp),%ebx
    1897:	c7 85 50 ff ff ff 00 	movl   $0x0,-0xb0(%ebp)
    189e:	00 00 00 
    18a1:	50                   	push   %eax
    18a2:	c7 85 58 ff ff ff 00 	movl   $0x0,-0xa8(%ebp)
    18a9:	00 00 00 
    18ac:	c7 85 5c ff ff ff 00 	movl   $0x0,-0xa4(%ebp)
    18b3:	00 00 00 
    18b6:	c7 85 60 ff ff ff 00 	movl   $0x0,-0xa0(%ebp)
    18bd:	00 00 00 
    18c0:	c7 85 64 ff ff ff 00 	movl   $0x0,-0x9c(%ebp)
    18c7:	00 00 00 
    18ca:	c7 85 68 ff ff ff 00 	movl   $0x0,-0x98(%ebp)
    18d1:	00 00 00 
    18d4:	e8 e7 0f 00 00       	call   28c0 <nchoice_create>
    18d9:	83 c4 10             	add    $0x10,%esp
    18dc:	85 c0                	test   %eax,%eax
    18de:	0f 84 89 00 00 00    	je     196d <main+0x47d>
    18e4:	83 f8 fe             	cmp    $0xfffffffe,%eax
    18e7:	0f 85 ac 06 00 00    	jne    1f99 <main+0xaa9>
    18ed:	83 ec 0c             	sub    $0xc,%esp
    18f0:	31 f6                	xor    %esi,%esi
    18f2:	68 13 81 00 00       	push   $0x8113
    18f7:	e8 b4 73 00 00       	call   8cb0 <printf@plt>
    18fc:	83 c4 10             	add    $0x10,%esp
    18ff:	83 ec 0c             	sub    $0xc,%esp
    1902:	8b 8d 5c ff ff ff    	mov    -0xa4(%ebp),%ecx
    1908:	51                   	push   %ecx
    1909:	e8 d2 76 00 00       	call   8fe0 <free@plt>
    190e:	8b bd 60 ff ff ff    	mov    -0xa0(%ebp),%edi
    1914:	5b                   	pop    %ebx
    1915:	57                   	push   %edi
    1916:	e8 c5 76 00 00       	call   8fe0 <free@plt>
    191b:	58                   	pop    %eax
    191c:	8b 85 64 ff ff ff    	mov    -0x9c(%ebp),%eax
    1922:	50                   	push   %eax
    1923:	e8 b8 76 00 00       	call   8fe0 <free@plt>
    1928:	89 34 24             	mov    %esi,(%esp)
    192b:	e8 b0 76 00 00       	call   8fe0 <free@plt>
    1930:	58                   	pop    %eax
    1931:	8b 85 68 ff ff ff    	mov    -0x98(%ebp),%eax
    1937:	50                   	push   %eax
    1938:	e8 a3 76 00 00       	call   8fe0 <free@plt>
    193d:	8b 85 50 ff ff ff    	mov    -0xb0(%ebp),%eax
    1943:	83 c4 10             	add    $0x10,%esp
    1946:	85 c0                	test   %eax,%eax
    1948:	74 0c                	je     1956 <main+0x466>
    194a:	83 ec 0c             	sub    $0xc,%esp
    194d:	50                   	push   %eax
    194e:	e8 fd 0f 00 00       	call   2950 <nchoice_destroy>
    1953:	83 c4 10             	add    $0x10,%esp
    1956:	83 ec 0c             	sub    $0xc,%esp
    1959:	8b 85 4c ff ff ff    	mov    -0xb4(%ebp),%eax
    195f:	50                   	push   %eax
    1960:	e8 fb 4b 00 00       	call   6560 <fdisk_dev_close>
    1965:	83 c4 10             	add    $0x10,%esp
    1968:	e9 4e fc ff ff       	jmp    15bb <main+0xcb>
    196d:	56                   	push   %esi
    196e:	56                   	push   %esi
    196f:	68 9c 80 00 00       	push   $0x809c
    1974:	ff b5 50 ff ff ff    	pushl  -0xb0(%ebp)
    197a:	e8 01 10 00 00       	call   2980 <nchoice_set_prompt>
    197f:	83 c4 10             	add    $0x10,%esp
    1982:	85 c0                	test   %eax,%eax
    1984:	74 1e                	je     19a4 <main+0x4b4>
    1986:	83 f8 fe             	cmp    $0xfffffffe,%eax
    1989:	0f 84 5e ff ff ff    	je     18ed <main+0x3fd>
    198f:	53                   	push   %ebx
    1990:	68 b4 02 00 00       	push   $0x2b4
    1995:	68 94 89 00 00       	push   $0x8994
    199a:	68 db 7f 00 00       	push   $0x7fdb
    199f:	e8 8c 74 00 00       	call   8e30 <assert_abort@plt>
    19a4:	8d 75 90             	lea    -0x70(%ebp),%esi
    19a7:	51                   	push   %ecx
    19a8:	51                   	push   %ecx
    19a9:	56                   	push   %esi
    19aa:	53                   	push   %ebx
    19ab:	e8 e0 4d 00 00       	call   6790 <fdisk_dev_capacity>
    19b0:	83 c4 10             	add    $0x10,%esp
    19b3:	85 c0                	test   %eax,%eax
    19b5:	0f 84 c2 00 00 00    	je     1a7d <main+0x58d>
    19bb:	83 ec 0c             	sub    $0xc,%esp
    19be:	31 f6                	xor    %esi,%esi
    19c0:	68 68 83 00 00       	push   $0x8368
    19c5:	e8 e6 72 00 00       	call   8cb0 <printf@plt>
    19ca:	83 c4 10             	add    $0x10,%esp
    19cd:	e9 2d ff ff ff       	jmp    18ff <main+0x40f>
    19d2:	83 ec 0c             	sub    $0xc,%esp
    19d5:	ff b5 74 ff ff ff    	pushl  -0x8c(%ebp)
    19db:	e8 70 0f 00 00       	call   2950 <nchoice_destroy>
    19e0:	83 c4 10             	add    $0x10,%esp
    19e3:	c7 85 74 ff ff ff 00 	movl   $0x0,-0x8c(%ebp)
    19ea:	00 00 00 
    19ed:	83 7d 84 00          	cmpl   $0x0,-0x7c(%ebp)
    19f1:	74 43                	je     1a36 <main+0x546>
    19f3:	8d 95 4b ff ff ff    	lea    -0xb5(%ebp),%edx
    19f9:	b8 d8 84 00 00       	mov    $0x84d8,%eax
    19fe:	e8 3d f7 ff ff       	call   1140 <fdsk_confirm>
    1a03:	85 c0                	test   %eax,%eax
    1a05:	0f 85 7c 0e 00 00    	jne    2887 <main+0x1397>
    1a0b:	80 bd 4b ff ff ff 00 	cmpb   $0x0,-0xb5(%ebp)
    1a12:	74 22                	je     1a36 <main+0x546>
    1a14:	83 ec 0c             	sub    $0xc,%esp
    1a17:	ff 75 84             	pushl  -0x7c(%ebp)
    1a1a:	e8 b1 63 00 00       	call   7dd0 <fdisk_part_destroy>
    1a1f:	83 c4 10             	add    $0x10,%esp
    1a22:	85 c0                	test   %eax,%eax
    1a24:	74 10                	je     1a36 <main+0x546>
    1a26:	83 ec 0c             	sub    $0xc,%esp
    1a29:	68 a2 82 00 00       	push   $0x82a2
    1a2e:	e8 7d 72 00 00       	call   8cb0 <printf@plt>
    1a33:	83 c4 10             	add    $0x10,%esp
    1a36:	83 ec 0c             	sub    $0xc,%esp
    1a39:	8b 85 50 ff ff ff    	mov    -0xb0(%ebp),%eax
    1a3f:	50                   	push   %eax
    1a40:	e8 0b 0f 00 00       	call   2950 <nchoice_destroy>
    1a45:	83 c4 10             	add    $0x10,%esp
    1a48:	80 3d 80 aa 00 00 00 	cmpb   $0x0,0xaa80
    1a4f:	0f 84 33 fe ff ff    	je     1888 <main+0x398>
    1a55:	8b bd 44 ff ff ff    	mov    -0xbc(%ebp),%edi
    1a5b:	83 ec 0c             	sub    $0xc,%esp
    1a5e:	ff b5 4c ff ff ff    	pushl  -0xb4(%ebp)
    1a64:	e8 f7 4a 00 00       	call   6560 <fdisk_dev_close>
    1a69:	5a                   	pop    %edx
    1a6a:	ff 35 7c aa 00 00    	pushl  0xaa7c
    1a70:	e8 7b 44 00 00       	call   5ef0 <fdisk_destroy>
    1a75:	83 c4 10             	add    $0x10,%esp
    1a78:	e9 43 fb ff ff       	jmp    15c0 <main+0xd0>
    1a7d:	83 ec 0c             	sub    $0xc,%esp
    1a80:	56                   	push   %esi
    1a81:	e8 ea 35 00 00       	call   5070 <fdisk_cap_simplify>
    1a86:	58                   	pop    %eax
    1a87:	8d 85 5c ff ff ff    	lea    -0xa4(%ebp),%eax
    1a8d:	5a                   	pop    %edx
    1a8e:	50                   	push   %eax
    1a8f:	56                   	push   %esi
    1a90:	e8 bb 37 00 00       	call   5250 <fdisk_cap_format>
    1a95:	83 c4 10             	add    $0x10,%esp
    1a98:	85 c0                	test   %eax,%eax
    1a9a:	0f 85 4d fe ff ff    	jne    18ed <main+0x3fd>
    1aa0:	50                   	push   %eax
    1aa1:	50                   	push   %eax
    1aa2:	8d 85 68 ff ff ff    	lea    -0x98(%ebp),%eax
    1aa8:	50                   	push   %eax
    1aa9:	53                   	push   %ebx
    1aaa:	e8 b1 4c 00 00       	call   6760 <fdisk_dev_get_svcname>
    1aaf:	83 c4 10             	add    $0x10,%esp
    1ab2:	85 c0                	test   %eax,%eax
    1ab4:	74 31                	je     1ae7 <main+0x5f7>
    1ab6:	83 ec 0c             	sub    $0xc,%esp
    1ab9:	31 f6                	xor    %esi,%esi
    1abb:	68 88 83 00 00       	push   $0x8388
    1ac0:	e8 eb 71 00 00       	call   8cb0 <printf@plt>
    1ac5:	83 c4 10             	add    $0x10,%esp
    1ac8:	e9 32 fe ff ff       	jmp    18ff <main+0x40f>
    1acd:	83 ec 0c             	sub    $0xc,%esp
    1ad0:	bf 01 00 00 00       	mov    $0x1,%edi
    1ad5:	68 85 80 00 00       	push   $0x8085
    1ada:	e8 d1 71 00 00       	call   8cb0 <printf@plt>
    1adf:	83 c4 10             	add    $0x10,%esp
    1ae2:	e9 d9 fa ff ff       	jmp    15c0 <main+0xd0>
    1ae7:	8d 85 54 ff ff ff    	lea    -0xac(%ebp),%eax
    1aed:	51                   	push   %ecx
    1aee:	51                   	push   %ecx
    1aef:	50                   	push   %eax
    1af0:	53                   	push   %ebx
    1af1:	e8 0a 4c 00 00       	call   6700 <fdisk_dev_get_flags>
    1af6:	83 c4 0c             	add    $0xc,%esp
    1af9:	ff b5 68 ff ff ff    	pushl  -0x98(%ebp)
    1aff:	ff b5 5c ff ff ff    	pushl  -0xa4(%ebp)
    1b05:	68 aa 80 00 00       	push   $0x80aa
    1b0a:	e8 a1 71 00 00       	call   8cb0 <printf@plt>
    1b0f:	5e                   	pop    %esi
    1b10:	ff b5 5c ff ff ff    	pushl  -0xa4(%ebp)
    1b16:	e8 c5 74 00 00       	call   8fe0 <free@plt>
    1b1b:	5f                   	pop    %edi
    1b1c:	58                   	pop    %eax
    1b1d:	8d 45 88             	lea    -0x78(%ebp),%eax
    1b20:	50                   	push   %eax
    1b21:	c7 85 5c ff ff ff 00 	movl   $0x0,-0xa4(%ebp)
    1b28:	00 00 00 
    1b2b:	53                   	push   %ebx
    1b2c:	e8 8f 4c 00 00       	call   67c0 <fdisk_label_get_info>
    1b31:	83 c4 10             	add    $0x10,%esp
    1b34:	89 c6                	mov    %eax,%esi
    1b36:	85 c0                	test   %eax,%eax
    1b38:	0f 85 e7 01 00 00    	jne    1d25 <main+0x835>
    1b3e:	8b 45 88             	mov    -0x78(%ebp),%eax
    1b41:	85 c0                	test   %eax,%eax
    1b43:	0f 85 a4 01 00 00    	jne    1ced <main+0x7fd>
    1b49:	83 ec 0c             	sub    $0xc,%esp
    1b4c:	68 ba 80 00 00       	push   $0x80ba
    1b51:	e8 5a 71 00 00       	call   8cb0 <printf@plt>
    1b56:	83 c4 10             	add    $0x10,%esp
    1b59:	83 ec 0c             	sub    $0xc,%esp
    1b5c:	53                   	push   %ebx
    1b5d:	e8 0e 52 00 00       	call   6d70 <fdisk_part_first>
    1b62:	89 9d 40 ff ff ff    	mov    %ebx,-0xc0(%ebp)
    1b68:	89 c7                	mov    %eax,%edi
    1b6a:	83 c4 10             	add    $0x10,%esp
    1b6d:	89 f3                	mov    %esi,%ebx
    1b6f:	eb 6d                	jmp    1bde <main+0x6ee>
    1b71:	52                   	push   %edx
    1b72:	52                   	push   %edx
    1b73:	ff b5 60 ff ff ff    	pushl  -0xa0(%ebp)
    1b79:	68 f1 80 00 00       	push   $0x80f1
    1b7e:	e8 2d 71 00 00       	call   8cb0 <printf@plt>
    1b83:	83 c4 10             	add    $0x10,%esp
    1b86:	f6 45 8c 01          	testb  $0x1,-0x74(%ebp)
    1b8a:	0f 85 f0 00 00 00    	jne    1c80 <main+0x790>
    1b90:	83 7d c0 01          	cmpl   $0x1,-0x40(%ebp)
    1b94:	74 10                	je     1ba6 <main+0x6b6>
    1b96:	50                   	push   %eax
    1b97:	50                   	push   %eax
    1b98:	56                   	push   %esi
    1b99:	68 96 82 00 00       	push   $0x8296
    1b9e:	e8 0d 71 00 00       	call   8cb0 <printf@plt>
    1ba3:	83 c4 10             	add    $0x10,%esp
    1ba6:	83 ec 0c             	sub    $0xc,%esp
    1ba9:	68 7e 80 00 00       	push   $0x807e
    1bae:	e8 fd 70 00 00       	call   8cb0 <printf@plt>
    1bb3:	58                   	pop    %eax
    1bb4:	ff b5 60 ff ff ff    	pushl  -0xa0(%ebp)
    1bba:	e8 21 74 00 00       	call   8fe0 <free@plt>
    1bbf:	89 34 24             	mov    %esi,(%esp)
    1bc2:	c7 85 60 ff ff ff 00 	movl   $0x0,-0xa0(%ebp)
    1bc9:	00 00 00 
    1bcc:	e8 0f 74 00 00       	call   8fe0 <free@plt>
    1bd1:	89 3c 24             	mov    %edi,(%esp)
    1bd4:	e8 b7 51 00 00       	call   6d90 <fdisk_part_next>
    1bd9:	83 c4 10             	add    $0x10,%esp
    1bdc:	89 c7                	mov    %eax,%edi
    1bde:	85 ff                	test   %edi,%edi
    1be0:	0f 84 56 01 00 00    	je     1d3c <main+0x84c>
    1be6:	50                   	push   %eax
    1be7:	50                   	push   %eax
    1be8:	8d 45 b0             	lea    -0x50(%ebp),%eax
    1beb:	43                   	inc    %ebx
    1bec:	50                   	push   %eax
    1bed:	57                   	push   %edi
    1bee:	e8 bd 51 00 00       	call   6db0 <fdisk_part_get_info>
    1bf3:	83 c4 10             	add    $0x10,%esp
    1bf6:	85 c0                	test   %eax,%eax
    1bf8:	0f 85 4b 02 00 00    	jne    1e49 <main+0x959>
    1bfe:	83 ec 0c             	sub    $0xc,%esp
    1c01:	8d 45 b0             	lea    -0x50(%ebp),%eax
    1c04:	50                   	push   %eax
    1c05:	e8 66 34 00 00       	call   5070 <fdisk_cap_simplify>
    1c0a:	5e                   	pop    %esi
    1c0b:	58                   	pop    %eax
    1c0c:	8d 85 60 ff ff ff    	lea    -0xa0(%ebp),%eax
    1c12:	50                   	push   %eax
    1c13:	8d 45 b0             	lea    -0x50(%ebp),%eax
    1c16:	50                   	push   %eax
    1c17:	e8 34 36 00 00       	call   5250 <fdisk_cap_format>
    1c1c:	83 c4 10             	add    $0x10,%esp
    1c1f:	85 c0                	test   %eax,%eax
    1c21:	0f 85 c6 fc ff ff    	jne    18ed <main+0x3fd>
    1c27:	8b 45 c4             	mov    -0x3c(%ebp),%eax
    1c2a:	83 f8 01             	cmp    $0x1,%eax
    1c2d:	0f 84 9c 00 00 00    	je     1ccf <main+0x7df>
    1c33:	0f 82 89 00 00 00    	jb     1cc2 <main+0x7d2>
    1c39:	83 f8 02             	cmp    $0x2,%eax
    1c3c:	75 1b                	jne    1c59 <main+0x769>
    1c3e:	83 ec 0c             	sub    $0xc,%esp
    1c41:	68 e9 80 00 00       	push   $0x80e9
    1c46:	e8 35 72 00 00       	call   8e80 <str_dup@plt>
    1c4b:	83 c4 10             	add    $0x10,%esp
    1c4e:	89 45 cc             	mov    %eax,-0x34(%ebp)
    1c51:	85 c0                	test   %eax,%eax
    1c53:	0f 84 94 fc ff ff    	je     18ed <main+0x3fd>
    1c59:	8b 75 cc             	mov    -0x34(%ebp),%esi
    1c5c:	83 7d 88 00          	cmpl   $0x0,-0x78(%ebp)
    1c60:	0f 84 0b ff ff ff    	je     1b71 <main+0x681>
    1c66:	50                   	push   %eax
    1c67:	ff b5 60 ff ff ff    	pushl  -0xa0(%ebp)
    1c6d:	53                   	push   %ebx
    1c6e:	68 01 81 00 00       	push   $0x8101
    1c73:	e8 38 70 00 00       	call   8cb0 <printf@plt>
    1c78:	83 c4 10             	add    $0x10,%esp
    1c7b:	e9 06 ff ff ff       	jmp    1b86 <main+0x696>
    1c80:	50                   	push   %eax
    1c81:	50                   	push   %eax
    1c82:	8d 85 6c ff ff ff    	lea    -0x94(%ebp),%eax
    1c88:	50                   	push   %eax
    1c89:	ff 75 c0             	pushl  -0x40(%ebp)
    1c8c:	e8 ef 62 00 00       	call   7f80 <fdisk_pkind_format>
    1c91:	83 c4 10             	add    $0x10,%esp
    1c94:	85 c0                	test   %eax,%eax
    1c96:	0f 85 12 03 00 00    	jne    1fae <main+0xabe>
    1c9c:	50                   	push   %eax
    1c9d:	50                   	push   %eax
    1c9e:	ff b5 6c ff ff ff    	pushl  -0x94(%ebp)
    1ca4:	68 96 82 00 00       	push   $0x8296
    1ca9:	e8 02 70 00 00       	call   8cb0 <printf@plt>
    1cae:	58                   	pop    %eax
    1caf:	ff b5 6c ff ff ff    	pushl  -0x94(%ebp)
    1cb5:	e8 26 73 00 00       	call   8fe0 <free@plt>
    1cba:	83 c4 10             	add    $0x10,%esp
    1cbd:	e9 ce fe ff ff       	jmp    1b90 <main+0x6a0>
    1cc2:	83 ec 0c             	sub    $0xc,%esp
    1cc5:	68 e3 80 00 00       	push   $0x80e3
    1cca:	e9 77 ff ff ff       	jmp    1c46 <main+0x756>
    1ccf:	8d 45 cc             	lea    -0x34(%ebp),%eax
    1cd2:	51                   	push   %ecx
    1cd3:	51                   	push   %ecx
    1cd4:	50                   	push   %eax
    1cd5:	ff 75 c8             	pushl  -0x38(%ebp)
    1cd8:	e8 63 62 00 00       	call   7f40 <fdisk_fstype_format>
    1cdd:	83 c4 10             	add    $0x10,%esp
    1ce0:	85 c0                	test   %eax,%eax
    1ce2:	0f 84 71 ff ff ff    	je     1c59 <main+0x769>
    1ce8:	e9 00 fc ff ff       	jmp    18ed <main+0x3fd>
    1ced:	52                   	push   %edx
    1cee:	52                   	push   %edx
    1cef:	8d 95 58 ff ff ff    	lea    -0xa8(%ebp),%edx
    1cf5:	52                   	push   %edx
    1cf6:	50                   	push   %eax
    1cf7:	e8 04 62 00 00       	call   7f00 <fdisk_ltype_format>
    1cfc:	83 c4 10             	add    $0x10,%esp
    1cff:	85 c0                	test   %eax,%eax
    1d01:	0f 84 59 01 00 00    	je     1e60 <main+0x970>
    1d07:	83 f8 fe             	cmp    $0xfffffffe,%eax
    1d0a:	0f 84 dd fb ff ff    	je     18ed <main+0x3fd>
    1d10:	50                   	push   %eax
    1d11:	68 e0 02 00 00       	push   $0x2e0
    1d16:	68 94 89 00 00       	push   $0x8994
    1d1b:	68 db 7f 00 00       	push   $0x7fdb
    1d20:	e8 0b 71 00 00       	call   8e30 <assert_abort@plt>
    1d25:	83 ec 0c             	sub    $0xc,%esp
    1d28:	31 f6                	xor    %esi,%esi
    1d2a:	68 ac 83 00 00       	push   $0x83ac
    1d2f:	e8 7c 6f 00 00       	call   8cb0 <printf@plt>
    1d34:	83 c4 10             	add    $0x10,%esp
    1d37:	e9 c3 fb ff ff       	jmp    18ff <main+0x40f>
    1d3c:	8b 45 8c             	mov    -0x74(%ebp),%eax
    1d3f:	8b 9d 40 ff ff ff    	mov    -0xc0(%ebp),%ebx
    1d45:	a8 04                	test   $0x4,%al
    1d47:	0f 85 64 01 00 00    	jne    1eb1 <main+0x9c1>
    1d4d:	a8 10                	test   $0x10,%al
    1d4f:	0f 84 b9 00 00 00    	je     1e0e <main+0x91e>
    1d55:	8d 75 a0             	lea    -0x60(%ebp),%esi
    1d58:	51                   	push   %ecx
    1d59:	56                   	push   %esi
    1d5a:	6a 01                	push   $0x1
    1d5c:	53                   	push   %ebx
    1d5d:	e8 8e 50 00 00       	call   6df0 <fdisk_part_get_max_avail>
    1d62:	83 c4 10             	add    $0x10,%esp
    1d65:	85 c0                	test   %eax,%eax
    1d67:	74 07                	je     1d70 <main+0x880>
    1d69:	31 f6                	xor    %esi,%esi
    1d6b:	e9 8f fb ff ff       	jmp    18ff <main+0x40f>
    1d70:	83 ec 0c             	sub    $0xc,%esp
    1d73:	8d bd 64 ff ff ff    	lea    -0x9c(%ebp),%edi
    1d79:	56                   	push   %esi
    1d7a:	e8 f1 32 00 00       	call   5070 <fdisk_cap_simplify>
    1d7f:	58                   	pop    %eax
    1d80:	5a                   	pop    %edx
    1d81:	57                   	push   %edi
    1d82:	56                   	push   %esi
    1d83:	e8 c8 34 00 00       	call   5250 <fdisk_cap_format>
    1d88:	83 c4 10             	add    $0x10,%esp
    1d8b:	85 c0                	test   %eax,%eax
    1d8d:	75 da                	jne    1d69 <main+0x879>
    1d8f:	51                   	push   %ecx
    1d90:	51                   	push   %ecx
    1d91:	ff b5 64 ff ff ff    	pushl  -0x9c(%ebp)
    1d97:	68 18 84 00 00       	push   $0x8418
    1d9c:	e8 0f 6f 00 00       	call   8cb0 <printf@plt>
    1da1:	58                   	pop    %eax
    1da2:	ff b5 64 ff ff ff    	pushl  -0x9c(%ebp)
    1da8:	e8 33 72 00 00       	call   8fe0 <free@plt>
    1dad:	83 c4 0c             	add    $0xc,%esp
    1db0:	c7 85 64 ff ff ff 00 	movl   $0x0,-0x9c(%ebp)
    1db7:	00 00 00 
    1dba:	56                   	push   %esi
    1dbb:	6a 01                	push   $0x1
    1dbd:	53                   	push   %ebx
    1dbe:	e8 dd 50 00 00       	call   6ea0 <fdisk_part_get_tot_avail>
    1dc3:	83 c4 10             	add    $0x10,%esp
    1dc6:	85 c0                	test   %eax,%eax
    1dc8:	75 9f                	jne    1d69 <main+0x879>
    1dca:	83 ec 0c             	sub    $0xc,%esp
    1dcd:	56                   	push   %esi
    1dce:	e8 9d 32 00 00       	call   5070 <fdisk_cap_simplify>
    1dd3:	58                   	pop    %eax
    1dd4:	5a                   	pop    %edx
    1dd5:	57                   	push   %edi
    1dd6:	56                   	push   %esi
    1dd7:	e8 74 34 00 00       	call   5250 <fdisk_cap_format>
    1ddc:	83 c4 10             	add    $0x10,%esp
    1ddf:	85 c0                	test   %eax,%eax
    1de1:	75 86                	jne    1d69 <main+0x879>
    1de3:	56                   	push   %esi
    1de4:	56                   	push   %esi
    1de5:	ff b5 64 ff ff ff    	pushl  -0x9c(%ebp)
    1deb:	68 6f 81 00 00       	push   $0x816f
    1df0:	e8 bb 6e 00 00       	call   8cb0 <printf@plt>
    1df5:	5f                   	pop    %edi
    1df6:	ff b5 64 ff ff ff    	pushl  -0x9c(%ebp)
    1dfc:	e8 df 71 00 00       	call   8fe0 <free@plt>
    1e01:	c7 85 64 ff ff ff 00 	movl   $0x0,-0x9c(%ebp)
    1e08:	00 00 00 
    1e0b:	83 c4 10             	add    $0x10,%esp
    1e0e:	51                   	push   %ecx
    1e0f:	51                   	push   %ecx
    1e10:	68 9c 80 00 00       	push   $0x809c
    1e15:	ff b5 50 ff ff ff    	pushl  -0xb0(%ebp)
    1e1b:	e8 60 0b 00 00       	call   2980 <nchoice_set_prompt>
    1e20:	83 c4 10             	add    $0x10,%esp
    1e23:	85 c0                	test   %eax,%eax
    1e25:	0f 84 98 01 00 00    	je     1fc3 <main+0xad3>
    1e2b:	83 f8 fe             	cmp    $0xfffffffe,%eax
    1e2e:	0f 84 b9 fa ff ff    	je     18ed <main+0x3fd>
    1e34:	52                   	push   %edx
    1e35:	68 79 03 00 00       	push   $0x379
    1e3a:	68 94 89 00 00       	push   $0x8994
    1e3f:	68 db 7f 00 00       	push   $0x7fdb
    1e44:	e8 e7 6f 00 00       	call   8e30 <assert_abort@plt>
    1e49:	83 ec 0c             	sub    $0xc,%esp
    1e4c:	31 f6                	xor    %esi,%esi
    1e4e:	68 d0 83 00 00       	push   $0x83d0
    1e53:	e8 58 6e 00 00       	call   8cb0 <printf@plt>
    1e58:	83 c4 10             	add    $0x10,%esp
    1e5b:	e9 9f fa ff ff       	jmp    18ff <main+0x40f>
    1e60:	50                   	push   %eax
    1e61:	50                   	push   %eax
    1e62:	ff b5 58 ff ff ff    	pushl  -0xa8(%ebp)
    1e68:	68 d3 80 00 00       	push   $0x80d3
    1e6d:	e8 3e 6e 00 00       	call   8cb0 <printf@plt>
    1e72:	58                   	pop    %eax
    1e73:	ff b5 58 ff ff ff    	pushl  -0xa8(%ebp)
    1e79:	e8 62 71 00 00       	call   8fe0 <free@plt>
    1e7e:	c7 85 58 ff ff ff 00 	movl   $0x0,-0xa8(%ebp)
    1e85:	00 00 00 
    1e88:	83 c4 10             	add    $0x10,%esp
    1e8b:	e9 c9 fc ff ff       	jmp    1b59 <main+0x669>
    1e90:	c7 45 a0 00 00 00 00 	movl   $0x0,-0x60(%ebp)
    1e97:	e9 93 f9 ff ff       	jmp    182f <main+0x33f>
    1e9c:	83 ec 0c             	sub    $0xc,%esp
    1e9f:	68 e4 82 00 00       	push   $0x82e4
    1ea4:	e8 07 6e 00 00       	call   8cb0 <printf@plt>
    1ea9:	83 c4 10             	add    $0x10,%esp
    1eac:	e9 0a f7 ff ff       	jmp    15bb <main+0xcb>
    1eb1:	8d 75 a0             	lea    -0x60(%ebp),%esi
    1eb4:	51                   	push   %ecx
    1eb5:	56                   	push   %esi
    1eb6:	6a 00                	push   $0x0
    1eb8:	53                   	push   %ebx
    1eb9:	e8 32 4f 00 00       	call   6df0 <fdisk_part_get_max_avail>
    1ebe:	83 c4 10             	add    $0x10,%esp
    1ec1:	85 c0                	test   %eax,%eax
    1ec3:	0f 85 a0 fe ff ff    	jne    1d69 <main+0x879>
    1ec9:	83 ec 0c             	sub    $0xc,%esp
    1ecc:	8d bd 64 ff ff ff    	lea    -0x9c(%ebp),%edi
    1ed2:	56                   	push   %esi
    1ed3:	e8 98 31 00 00       	call   5070 <fdisk_cap_simplify>
    1ed8:	58                   	pop    %eax
    1ed9:	5a                   	pop    %edx
    1eda:	57                   	push   %edi
    1edb:	56                   	push   %esi
    1edc:	e8 6f 33 00 00       	call   5250 <fdisk_cap_format>
    1ee1:	83 c4 10             	add    $0x10,%esp
    1ee4:	85 c0                	test   %eax,%eax
    1ee6:	0f 85 7d fe ff ff    	jne    1d69 <main+0x879>
    1eec:	f6 45 8c 01          	testb  $0x1,-0x74(%ebp)
    1ef0:	0f 84 e2 01 00 00    	je     20d8 <main+0xbe8>
    1ef6:	50                   	push   %eax
    1ef7:	50                   	push   %eax
    1ef8:	ff b5 64 ff ff ff    	pushl  -0x9c(%ebp)
    1efe:	68 f8 83 00 00       	push   $0x83f8
    1f03:	e8 a8 6d 00 00       	call   8cb0 <printf@plt>
    1f08:	83 c4 10             	add    $0x10,%esp
    1f0b:	83 ec 0c             	sub    $0xc,%esp
    1f0e:	ff b5 64 ff ff ff    	pushl  -0x9c(%ebp)
    1f14:	e8 c7 70 00 00       	call   8fe0 <free@plt>
    1f19:	83 c4 0c             	add    $0xc,%esp
    1f1c:	c7 85 64 ff ff ff 00 	movl   $0x0,-0x9c(%ebp)
    1f23:	00 00 00 
    1f26:	56                   	push   %esi
    1f27:	6a 00                	push   $0x0
    1f29:	53                   	push   %ebx
    1f2a:	e8 71 4f 00 00       	call   6ea0 <fdisk_part_get_tot_avail>
    1f2f:	83 c4 10             	add    $0x10,%esp
    1f32:	85 c0                	test   %eax,%eax
    1f34:	0f 85 2f fe ff ff    	jne    1d69 <main+0x879>
    1f3a:	83 ec 0c             	sub    $0xc,%esp
    1f3d:	56                   	push   %esi
    1f3e:	e8 2d 31 00 00       	call   5070 <fdisk_cap_simplify>
    1f43:	58                   	pop    %eax
    1f44:	5a                   	pop    %edx
    1f45:	57                   	push   %edi
    1f46:	56                   	push   %esi
    1f47:	e8 04 33 00 00       	call   5250 <fdisk_cap_format>
    1f4c:	83 c4 10             	add    $0x10,%esp
    1f4f:	85 c0                	test   %eax,%eax
    1f51:	0f 85 12 fe ff ff    	jne    1d69 <main+0x879>
    1f57:	f6 45 8c 01          	testb  $0x1,-0x74(%ebp)
    1f5b:	0f 84 5d 01 00 00    	je     20be <main+0xbce>
    1f61:	57                   	push   %edi
    1f62:	57                   	push   %edi
    1f63:	ff b5 64 ff ff ff    	pushl  -0x9c(%ebp)
    1f69:	68 3b 81 00 00       	push   $0x813b
    1f6e:	e8 3d 6d 00 00       	call   8cb0 <printf@plt>
    1f73:	83 c4 10             	add    $0x10,%esp
    1f76:	83 ec 0c             	sub    $0xc,%esp
    1f79:	ff b5 64 ff ff ff    	pushl  -0x9c(%ebp)
    1f7f:	e8 5c 70 00 00       	call   8fe0 <free@plt>
    1f84:	c7 85 64 ff ff ff 00 	movl   $0x0,-0x9c(%ebp)
    1f8b:	00 00 00 
    1f8e:	83 c4 10             	add    $0x10,%esp
    1f91:	8b 45 8c             	mov    -0x74(%ebp),%eax
    1f94:	e9 b4 fd ff ff       	jmp    1d4d <main+0x85d>
    1f99:	57                   	push   %edi
    1f9a:	68 ad 02 00 00       	push   $0x2ad
    1f9f:	68 94 89 00 00       	push   $0x8994
    1fa4:	68 db 7f 00 00       	push   $0x7fdb
    1fa9:	e8 82 6e 00 00       	call   8e30 <assert_abort@plt>
    1fae:	83 ec 0c             	sub    $0xc,%esp
    1fb1:	68 12 81 00 00       	push   $0x8112
    1fb6:	e8 f5 6c 00 00       	call   8cb0 <printf@plt>
    1fbb:	83 c4 10             	add    $0x10,%esp
    1fbe:	e9 3c f9 ff ff       	jmp    18ff <main+0x40f>
    1fc3:	8b 45 8c             	mov    -0x74(%ebp),%eax
    1fc6:	a8 01                	test   $0x1,%al
    1fc8:	0f 84 c5 00 00 00    	je     2093 <main+0xba3>
    1fce:	a8 04                	test   $0x4,%al
    1fd0:	0f 85 5f 02 00 00    	jne    2235 <main+0xd45>
    1fd6:	a8 08                	test   $0x8,%al
    1fd8:	0f 85 34 02 00 00    	jne    2212 <main+0xd22>
    1fde:	a8 10                	test   $0x10,%al
    1fe0:	0f 85 ef 01 00 00    	jne    21d5 <main+0xce5>
    1fe6:	a8 20                	test   $0x20,%al
    1fe8:	0f 85 6e 01 00 00    	jne    215c <main+0xc6c>
    1fee:	8b 85 54 ff ff ff    	mov    -0xac(%ebp),%eax
    1ff4:	a8 01                	test   $0x1,%al
    1ff6:	0f 85 3a 01 00 00    	jne    2136 <main+0xc46>
    1ffc:	a8 02                	test   $0x2,%al
    1ffe:	0f 85 0c 01 00 00    	jne    2110 <main+0xc20>
    2004:	a8 04                	test   $0x4,%al
    2006:	74 4e                	je     2056 <main+0xb66>
    2008:	6a 00                	push   $0x0
    200a:	6a 02                	push   $0x2
    200c:	68 15 82 00 00       	push   $0x8215
    2011:	ff b5 50 ff ff ff    	pushl  -0xb0(%ebp)
    2017:	e8 a4 09 00 00       	call   29c0 <nchoice_add>
    201c:	83 c4 10             	add    $0x10,%esp
    201f:	85 c0                	test   %eax,%eax
    2021:	74 33                	je     2056 <main+0xb66>
    2023:	83 f8 fe             	cmp    $0xfffffffe,%eax
    2026:	0f 84 c1 f8 ff ff    	je     18ed <main+0x3fd>
    202c:	56                   	push   %esi
    202d:	68 cd 03 00 00       	push   $0x3cd
    2032:	68 94 89 00 00       	push   $0x8994
    2037:	68 db 7f 00 00       	push   $0x7fdb
    203c:	e8 ef 6d 00 00       	call   8e30 <assert_abort@plt>
    2041:	50                   	push   %eax
    2042:	68 a2 00 00 00       	push   $0xa2
    2047:	68 94 89 00 00       	push   $0x8994
    204c:	68 db 7f 00 00       	push   $0x7fdb
    2051:	e8 da 6d 00 00       	call   8e30 <assert_abort@plt>
    2056:	6a 00                	push   $0x0
    2058:	6a 07                	push   $0x7
    205a:	68 80 80 00 00       	push   $0x8080
    205f:	ff b5 50 ff ff ff    	pushl  -0xb0(%ebp)
    2065:	e8 56 09 00 00       	call   29c0 <nchoice_add>
    206a:	83 c4 10             	add    $0x10,%esp
    206d:	85 c0                	test   %eax,%eax
    206f:	0f 84 e3 01 00 00    	je     2258 <main+0xd68>
    2075:	83 f8 fe             	cmp    $0xfffffffe,%eax
    2078:	0f 84 6f f8 ff ff    	je     18ed <main+0x3fd>
    207e:	53                   	push   %ebx
    207f:	68 d5 03 00 00       	push   $0x3d5
    2084:	68 94 89 00 00       	push   $0x8994
    2089:	68 db 7f 00 00       	push   $0x7fdb
    208e:	e8 9d 6d 00 00       	call   8e30 <assert_abort@plt>
    2093:	a8 04                	test   $0x4,%al
    2095:	0f 84 4b ff ff ff    	je     1fe6 <main+0xaf6>
    209b:	6a 00                	push   $0x0
    209d:	6a 03                	push   $0x3
    209f:	68 d9 81 00 00       	push   $0x81d9
    20a4:	ff b5 50 ff ff ff    	pushl  -0xb0(%ebp)
    20aa:	e8 11 09 00 00       	call   29c0 <nchoice_add>
    20af:	83 c4 10             	add    $0x10,%esp
    20b2:	85 c0                	test   %eax,%eax
    20b4:	75 3c                	jne    20f2 <main+0xc02>
    20b6:	8b 45 8c             	mov    -0x74(%ebp),%eax
    20b9:	e9 28 ff ff ff       	jmp    1fe6 <main+0xaf6>
    20be:	56                   	push   %esi
    20bf:	56                   	push   %esi
    20c0:	ff b5 64 ff ff ff    	pushl  -0x9c(%ebp)
    20c6:	68 59 81 00 00       	push   $0x8159
    20cb:	e8 e0 6b 00 00       	call   8cb0 <printf@plt>
    20d0:	83 c4 10             	add    $0x10,%esp
    20d3:	e9 9e fe ff ff       	jmp    1f76 <main+0xa86>
    20d8:	51                   	push   %ecx
    20d9:	51                   	push   %ecx
    20da:	ff b5 64 ff ff ff    	pushl  -0x9c(%ebp)
    20e0:	68 23 81 00 00       	push   $0x8123
    20e5:	e8 c6 6b 00 00       	call   8cb0 <printf@plt>
    20ea:	83 c4 10             	add    $0x10,%esp
    20ed:	e9 19 fe ff ff       	jmp    1f0b <main+0xa1b>
    20f2:	83 f8 fe             	cmp    $0xfffffffe,%eax
    20f5:	0f 84 f2 f7 ff ff    	je     18ed <main+0x3fd>
    20fb:	50                   	push   %eax
    20fc:	68 a4 03 00 00       	push   $0x3a4
    2101:	68 94 89 00 00       	push   $0x8994
    2106:	68 db 7f 00 00       	push   $0x7fdb
    210b:	e8 20 6d 00 00       	call   8e30 <assert_abort@plt>
    2110:	6a 00                	push   $0x0
    2112:	6a 01                	push   $0x1
    2114:	68 08 82 00 00       	push   $0x8208
    2119:	ff b5 50 ff ff ff    	pushl  -0xb0(%ebp)
    211f:	e8 9c 08 00 00       	call   29c0 <nchoice_add>
    2124:	83 c4 10             	add    $0x10,%esp
    2127:	85 c0                	test   %eax,%eax
    2129:	75 6e                	jne    2199 <main+0xca9>
    212b:	8b 85 54 ff ff ff    	mov    -0xac(%ebp),%eax
    2131:	e9 ce fe ff ff       	jmp    2004 <main+0xb14>
    2136:	6a 00                	push   $0x0
    2138:	6a 00                	push   $0x0
    213a:	68 fb 81 00 00       	push   $0x81fb
    213f:	ff b5 50 ff ff ff    	pushl  -0xb0(%ebp)
    2145:	e8 76 08 00 00       	call   29c0 <nchoice_add>
    214a:	83 c4 10             	add    $0x10,%esp
    214d:	85 c0                	test   %eax,%eax
    214f:	75 66                	jne    21b7 <main+0xcc7>
    2151:	8b 85 54 ff ff ff    	mov    -0xac(%ebp),%eax
    2157:	e9 a0 fe ff ff       	jmp    1ffc <main+0xb0c>
    215c:	6a 00                	push   $0x0
    215e:	6a 06                	push   $0x6
    2160:	68 ea 81 00 00       	push   $0x81ea
    2165:	ff b5 50 ff ff ff    	pushl  -0xb0(%ebp)
    216b:	e8 50 08 00 00       	call   29c0 <nchoice_add>
    2170:	83 c4 10             	add    $0x10,%esp
    2173:	85 c0                	test   %eax,%eax
    2175:	0f 84 73 fe ff ff    	je     1fee <main+0xafe>
    217b:	83 f8 fe             	cmp    $0xfffffffe,%eax
    217e:	0f 84 69 f7 ff ff    	je     18ed <main+0x3fd>
    2184:	50                   	push   %eax
    2185:	68 af 03 00 00       	push   $0x3af
    218a:	68 94 89 00 00       	push   $0x8994
    218f:	68 db 7f 00 00       	push   $0x7fdb
    2194:	e8 97 6c 00 00       	call   8e30 <assert_abort@plt>
    2199:	83 f8 fe             	cmp    $0xfffffffe,%eax
    219c:	0f 84 4b f7 ff ff    	je     18ed <main+0x3fd>
    21a2:	57                   	push   %edi
    21a3:	68 c3 03 00 00       	push   $0x3c3
    21a8:	68 94 89 00 00       	push   $0x8994
    21ad:	68 db 7f 00 00       	push   $0x7fdb
    21b2:	e8 79 6c 00 00       	call   8e30 <assert_abort@plt>
    21b7:	83 f8 fe             	cmp    $0xfffffffe,%eax
    21ba:	0f 84 2d f7 ff ff    	je     18ed <main+0x3fd>
    21c0:	50                   	push   %eax
    21c1:	68 b9 03 00 00       	push   $0x3b9
    21c6:	68 94 89 00 00       	push   $0x8994
    21cb:	68 db 7f 00 00       	push   $0x7fdb
    21d0:	e8 5b 6c 00 00       	call   8e30 <assert_abort@plt>
    21d5:	6a 00                	push   $0x0
    21d7:	6a 05                	push   $0x5
    21d9:	68 c0 81 00 00       	push   $0x81c0
    21de:	ff b5 50 ff ff ff    	pushl  -0xb0(%ebp)
    21e4:	e8 d7 07 00 00       	call   29c0 <nchoice_add>
    21e9:	83 c4 10             	add    $0x10,%esp
    21ec:	85 c0                	test   %eax,%eax
    21ee:	0f 84 c2 fe ff ff    	je     20b6 <main+0xbc6>
    21f4:	83 f8 fe             	cmp    $0xfffffffe,%eax
    21f7:	0f 84 f0 f6 ff ff    	je     18ed <main+0x3fd>
    21fd:	50                   	push   %eax
    21fe:	68 9a 03 00 00       	push   $0x39a
    2203:	68 94 89 00 00       	push   $0x8994
    2208:	68 db 7f 00 00       	push   $0x7fdb
    220d:	e8 1e 6c 00 00       	call   8e30 <assert_abort@plt>
    2212:	6a 00                	push   $0x0
    2214:	6a 04                	push   $0x4
    2216:	68 a6 81 00 00       	push   $0x81a6
    221b:	ff b5 50 ff ff ff    	pushl  -0xb0(%ebp)
    2221:	e8 9a 07 00 00       	call   29c0 <nchoice_add>
    2226:	83 c4 10             	add    $0x10,%esp
    2229:	85 c0                	test   %eax,%eax
    222b:	75 75                	jne    22a2 <main+0xdb2>
    222d:	8b 45 8c             	mov    -0x74(%ebp),%eax
    2230:	e9 a9 fd ff ff       	jmp    1fde <main+0xaee>
    2235:	6a 00                	push   $0x0
    2237:	6a 03                	push   $0x3
    2239:	68 8d 81 00 00       	push   $0x818d
    223e:	ff b5 50 ff ff ff    	pushl  -0xb0(%ebp)
    2244:	e8 77 07 00 00       	call   29c0 <nchoice_add>
    2249:	83 c4 10             	add    $0x10,%esp
    224c:	85 c0                	test   %eax,%eax
    224e:	75 70                	jne    22c0 <main+0xdd0>
    2250:	8b 45 8c             	mov    -0x74(%ebp),%eax
    2253:	e9 7e fd ff ff       	jmp    1fd6 <main+0xae6>
    2258:	8d 85 70 ff ff ff    	lea    -0x90(%ebp),%eax
    225e:	51                   	push   %ecx
    225f:	51                   	push   %ecx
    2260:	50                   	push   %eax
    2261:	ff b5 50 ff ff ff    	pushl  -0xb0(%ebp)
    2267:	e8 04 08 00 00       	call   2a70 <nchoice_get>
    226c:	83 c4 10             	add    $0x10,%esp
    226f:	85 c0                	test   %eax,%eax
    2271:	75 1a                	jne    228d <main+0xd9d>
    2273:	83 bd 70 ff ff ff 07 	cmpl   $0x7,-0x90(%ebp)
    227a:	0f 87 b6 f7 ff ff    	ja     1a36 <main+0x546>
    2280:	8b 85 70 ff ff ff    	mov    -0x90(%ebp),%eax
    2286:	ff 24 85 20 85 00 00 	jmp    *0x8520(,%eax,4)
    228d:	83 ec 0c             	sub    $0xc,%esp
    2290:	68 e4 82 00 00       	push   $0x82e4
    2295:	e8 16 6a 00 00       	call   8cb0 <printf@plt>
    229a:	83 c4 10             	add    $0x10,%esp
    229d:	e9 b4 f6 ff ff       	jmp    1956 <main+0x466>
    22a2:	83 f8 fe             	cmp    $0xfffffffe,%eax
    22a5:	0f 84 42 f6 ff ff    	je     18ed <main+0x3fd>
    22ab:	50                   	push   %eax
    22ac:	68 8f 03 00 00       	push   $0x38f
    22b1:	68 94 89 00 00       	push   $0x8994
    22b6:	68 db 7f 00 00       	push   $0x7fdb
    22bb:	e8 70 6b 00 00       	call   8e30 <assert_abort@plt>
    22c0:	83 f8 fe             	cmp    $0xfffffffe,%eax
    22c3:	0f 84 24 f6 ff ff    	je     18ed <main+0x3fd>
    22c9:	50                   	push   %eax
    22ca:	68 84 03 00 00       	push   $0x384
    22cf:	68 94 89 00 00       	push   $0x8994
    22d4:	68 db 7f 00 00       	push   $0x7fdb
    22d9:	e8 52 6b 00 00       	call   8e30 <assert_abort@plt>
    22de:	83 ec 0c             	sub    $0xc,%esp
    22e1:	8d 85 74 ff ff ff    	lea    -0x8c(%ebp),%eax
    22e7:	c7 85 74 ff ff ff 00 	movl   $0x0,-0x8c(%ebp)
    22ee:	00 00 00 
    22f1:	c7 85 78 ff ff ff 00 	movl   $0x0,-0x88(%ebp)
    22f8:	00 00 00 
    22fb:	50                   	push   %eax
    22fc:	c7 85 7c ff ff ff 00 	movl   $0x0,-0x84(%ebp)
    2303:	00 00 00 
    2306:	c7 45 80 00 00 00 00 	movl   $0x0,-0x80(%ebp)
    230d:	e8 ae 05 00 00       	call   28c0 <nchoice_create>
    2312:	83 c4 10             	add    $0x10,%esp
    2315:	85 c0                	test   %eax,%eax
    2317:	0f 84 8a 00 00 00    	je     23a7 <main+0xeb7>
    231d:	83 f8 fe             	cmp    $0xfffffffe,%eax
    2320:	75 70                	jne    2392 <main+0xea2>
    2322:	83 ec 0c             	sub    $0xc,%esp
    2325:	31 ff                	xor    %edi,%edi
    2327:	68 13 81 00 00       	push   $0x8113
    232c:	e8 7f 69 00 00       	call   8cb0 <printf@plt>
    2331:	83 c4 10             	add    $0x10,%esp
    2334:	83 ec 0c             	sub    $0xc,%esp
    2337:	ff b5 78 ff ff ff    	pushl  -0x88(%ebp)
    233d:	e8 9e 6c 00 00       	call   8fe0 <free@plt>
    2342:	58                   	pop    %eax
    2343:	ff b5 7c ff ff ff    	pushl  -0x84(%ebp)
    2349:	e8 92 6c 00 00       	call   8fe0 <free@plt>
    234e:	89 3c 24             	mov    %edi,(%esp)
    2351:	e8 8a 6c 00 00       	call   8fe0 <free@plt>
    2356:	5a                   	pop    %edx
    2357:	ff 75 80             	pushl  -0x80(%ebp)
    235a:	e8 81 6c 00 00       	call   8fe0 <free@plt>
    235f:	8b 85 74 ff ff ff    	mov    -0x8c(%ebp),%eax
    2365:	83 c4 10             	add    $0x10,%esp
    2368:	85 c0                	test   %eax,%eax
    236a:	0f 84 c6 f6 ff ff    	je     1a36 <main+0x546>
    2370:	83 ec 0c             	sub    $0xc,%esp
    2373:	50                   	push   %eax
    2374:	e8 d7 05 00 00       	call   2950 <nchoice_destroy>
    2379:	83 c4 10             	add    $0x10,%esp
    237c:	e9 b5 f6 ff ff       	jmp    1a36 <main+0x546>
    2381:	ba 02 00 00 00       	mov    $0x2,%edx
    2386:	89 d8                	mov    %ebx,%eax
    2388:	e8 92 ee ff ff       	call   121f <fdsk_create_part>
    238d:	e9 a4 f6 ff ff       	jmp    1a36 <main+0x546>
    2392:	57                   	push   %edi
    2393:	68 1a 02 00 00       	push   $0x21a
    2398:	68 94 89 00 00       	push   $0x8994
    239d:	68 db 7f 00 00       	push   $0x7fdb
    23a2:	e8 89 6a 00 00       	call   8e30 <assert_abort@plt>
    23a7:	56                   	push   %esi
    23a8:	56                   	push   %esi
    23a9:	68 75 82 00 00       	push   $0x8275
    23ae:	ff b5 74 ff ff ff    	pushl  -0x8c(%ebp)
    23b4:	e8 c7 05 00 00       	call   2980 <nchoice_set_prompt>
    23b9:	83 c4 10             	add    $0x10,%esp
    23bc:	85 c0                	test   %eax,%eax
    23be:	74 3d                	je     23fd <main+0xf0d>
    23c0:	83 f8 fe             	cmp    $0xfffffffe,%eax
    23c3:	0f 84 59 ff ff ff    	je     2322 <main+0xe32>
    23c9:	53                   	push   %ebx
    23ca:	68 21 02 00 00       	push   $0x221
    23cf:	68 94 89 00 00       	push   $0x8994
    23d4:	68 db 7f 00 00       	push   $0x7fdb
    23d9:	e8 52 6a 00 00       	call   8e30 <assert_abort@plt>
    23de:	ba 01 00 00 00       	mov    $0x1,%edx
    23e3:	89 d8                	mov    %ebx,%eax
    23e5:	e8 35 ee ff ff       	call   121f <fdsk_create_part>
    23ea:	e9 47 f6 ff ff       	jmp    1a36 <main+0x546>
    23ef:	31 d2                	xor    %edx,%edx
    23f1:	89 d8                	mov    %ebx,%eax
    23f3:	e8 27 ee ff ff       	call   121f <fdsk_create_part>
    23f8:	e9 39 f6 ff ff       	jmp    1a36 <main+0x546>
    23fd:	83 ec 0c             	sub    $0xc,%esp
    2400:	8d 75 cc             	lea    -0x34(%ebp),%esi
    2403:	53                   	push   %ebx
    2404:	e8 67 49 00 00       	call   6d70 <fdisk_part_first>
    2409:	83 c4 10             	add    $0x10,%esp
    240c:	89 c3                	mov    %eax,%ebx
    240e:	85 db                	test   %ebx,%ebx
    2410:	0f 84 32 03 00 00    	je     2748 <main+0x1258>
    2416:	51                   	push   %ecx
    2417:	51                   	push   %ecx
    2418:	56                   	push   %esi
    2419:	53                   	push   %ebx
    241a:	e8 91 49 00 00       	call   6db0 <fdisk_part_get_info>
    241f:	83 c4 10             	add    $0x10,%esp
    2422:	85 c0                	test   %eax,%eax
    2424:	0f 85 db 02 00 00    	jne    2705 <main+0x1215>
    242a:	83 ec 0c             	sub    $0xc,%esp
    242d:	56                   	push   %esi
    242e:	e8 3d 2c 00 00       	call   5070 <fdisk_cap_simplify>
    2433:	58                   	pop    %eax
    2434:	8d 85 78 ff ff ff    	lea    -0x88(%ebp),%eax
    243a:	5a                   	pop    %edx
    243b:	50                   	push   %eax
    243c:	56                   	push   %esi
    243d:	e8 0e 2e 00 00       	call   5250 <fdisk_cap_format>
    2442:	83 c4 10             	add    $0x10,%esp
    2445:	85 c0                	test   %eax,%eax
    2447:	0f 85 d5 fe ff ff    	jne    2322 <main+0xe32>
    244d:	50                   	push   %eax
    244e:	50                   	push   %eax
    244f:	8d 85 7c ff ff ff    	lea    -0x84(%ebp),%eax
    2455:	50                   	push   %eax
    2456:	ff 75 dc             	pushl  -0x24(%ebp)
    2459:	e8 22 5b 00 00       	call   7f80 <fdisk_pkind_format>
    245e:	83 c4 10             	add    $0x10,%esp
    2461:	85 c0                	test   %eax,%eax
    2463:	0f 85 b3 02 00 00    	jne    271c <main+0x122c>
    2469:	83 7d dc 01          	cmpl   $0x1,-0x24(%ebp)
    246d:	0f 84 1c 01 00 00    	je     258f <main+0x109f>
    2473:	8b 45 e0             	mov    -0x20(%ebp),%eax
    2476:	8b 55 e4             	mov    -0x1c(%ebp),%edx
    2479:	83 f8 01             	cmp    $0x1,%eax
    247c:	0f 84 d3 00 00 00    	je     2555 <main+0x1065>
    2482:	0f 82 c0 00 00 00    	jb     2548 <main+0x1058>
    2488:	83 f8 02             	cmp    $0x2,%eax
    248b:	75 1b                	jne    24a8 <main+0xfb8>
    248d:	83 ec 0c             	sub    $0xc,%esp
    2490:	68 e9 80 00 00       	push   $0x80e9
    2495:	e8 e6 69 00 00       	call   8e80 <str_dup@plt>
    249a:	83 c4 10             	add    $0x10,%esp
    249d:	89 45 84             	mov    %eax,-0x7c(%ebp)
    24a0:	85 c0                	test   %eax,%eax
    24a2:	0f 84 7a fe ff ff    	je     2322 <main+0xe32>
    24a8:	83 ec 0c             	sub    $0xc,%esp
    24ab:	8b 7d 84             	mov    -0x7c(%ebp),%edi
    24ae:	8d 45 80             	lea    -0x80(%ebp),%eax
    24b1:	57                   	push   %edi
    24b2:	ff b5 7c ff ff ff    	pushl  -0x84(%ebp)
    24b8:	ff b5 78 ff ff ff    	pushl  -0x88(%ebp)
    24be:	68 90 82 00 00       	push   $0x8290
    24c3:	50                   	push   %eax
    24c4:	e8 57 6a 00 00       	call   8f20 <asprintf@plt>
    24c9:	83 c4 20             	add    $0x20,%esp
    24cc:	85 c0                	test   %eax,%eax
    24ce:	0f 88 60 fe ff ff    	js     2334 <main+0xe44>
    24d4:	6a 00                	push   $0x0
    24d6:	53                   	push   %ebx
    24d7:	ff 75 80             	pushl  -0x80(%ebp)
    24da:	ff b5 74 ff ff ff    	pushl  -0x8c(%ebp)
    24e0:	e8 db 04 00 00       	call   29c0 <nchoice_add>
    24e5:	83 c4 10             	add    $0x10,%esp
    24e8:	85 c0                	test   %eax,%eax
    24ea:	0f 85 81 00 00 00    	jne    2571 <main+0x1081>
    24f0:	83 ec 0c             	sub    $0xc,%esp
    24f3:	ff b5 78 ff ff ff    	pushl  -0x88(%ebp)
    24f9:	e8 e2 6a 00 00       	call   8fe0 <free@plt>
    24fe:	58                   	pop    %eax
    24ff:	ff b5 7c ff ff ff    	pushl  -0x84(%ebp)
    2505:	c7 85 78 ff ff ff 00 	movl   $0x0,-0x88(%ebp)
    250c:	00 00 00 
    250f:	e8 cc 6a 00 00       	call   8fe0 <free@plt>
    2514:	89 3c 24             	mov    %edi,(%esp)
    2517:	c7 85 7c ff ff ff 00 	movl   $0x0,-0x84(%ebp)
    251e:	00 00 00 
    2521:	e8 ba 6a 00 00       	call   8fe0 <free@plt>
    2526:	58                   	pop    %eax
    2527:	ff 75 80             	pushl  -0x80(%ebp)
    252a:	e8 b1 6a 00 00       	call   8fe0 <free@plt>
    252f:	89 1c 24             	mov    %ebx,(%esp)
    2532:	c7 45 80 00 00 00 00 	movl   $0x0,-0x80(%ebp)
    2539:	e8 52 48 00 00       	call   6d90 <fdisk_part_next>
    253e:	83 c4 10             	add    $0x10,%esp
    2541:	89 c3                	mov    %eax,%ebx
    2543:	e9 c6 fe ff ff       	jmp    240e <main+0xf1e>
    2548:	83 ec 0c             	sub    $0xc,%esp
    254b:	68 e3 80 00 00       	push   $0x80e3
    2550:	e9 40 ff ff ff       	jmp    2495 <main+0xfa5>
    2555:	50                   	push   %eax
    2556:	50                   	push   %eax
    2557:	8d 45 84             	lea    -0x7c(%ebp),%eax
    255a:	50                   	push   %eax
    255b:	52                   	push   %edx
    255c:	e8 df 59 00 00       	call   7f40 <fdisk_fstype_format>
    2561:	83 c4 10             	add    $0x10,%esp
    2564:	85 c0                	test   %eax,%eax
    2566:	0f 84 3c ff ff ff    	je     24a8 <main+0xfb8>
    256c:	e9 b1 fd ff ff       	jmp    2322 <main+0xe32>
    2571:	83 f8 fe             	cmp    $0xfffffffe,%eax
    2574:	0f 85 b9 01 00 00    	jne    2733 <main+0x1243>
    257a:	83 ec 0c             	sub    $0xc,%esp
    257d:	68 13 81 00 00       	push   $0x8113
    2582:	e8 29 67 00 00       	call   8cb0 <printf@plt>
    2587:	83 c4 10             	add    $0x10,%esp
    258a:	e9 a5 fd ff ff       	jmp    2334 <main+0xe44>
    258f:	ff b5 7c ff ff ff    	pushl  -0x84(%ebp)
    2595:	ff b5 78 ff ff ff    	pushl  -0x88(%ebp)
    259b:	8d 45 80             	lea    -0x80(%ebp),%eax
    259e:	68 94 82 00 00       	push   $0x8294
    25a3:	50                   	push   %eax
    25a4:	e8 77 69 00 00       	call   8f20 <asprintf@plt>
    25a9:	31 ff                	xor    %edi,%edi
    25ab:	83 c4 10             	add    $0x10,%esp
    25ae:	85 c0                	test   %eax,%eax
    25b0:	0f 89 1e ff ff ff    	jns    24d4 <main+0xfe4>
    25b6:	e9 79 fd ff ff       	jmp    2334 <main+0xe44>
    25bb:	8d 7d cc             	lea    -0x34(%ebp),%edi
    25be:	b8 9c 84 00 00       	mov    $0x849c,%eax
    25c3:	89 fa                	mov    %edi,%edx
    25c5:	e8 76 eb ff ff       	call   1140 <fdsk_confirm>
    25ca:	85 c0                	test   %eax,%eax
    25cc:	75 79                	jne    2647 <main+0x1157>
    25ce:	80 7d cc 00          	cmpb   $0x0,-0x34(%ebp)
    25d2:	0f 84 5e f4 ff ff    	je     1a36 <main+0x546>
    25d8:	83 ec 0c             	sub    $0xc,%esp
    25db:	53                   	push   %ebx
    25dc:	e8 af 40 00 00       	call   6690 <fdisk_dev_erase>
    25e1:	83 c4 10             	add    $0x10,%esp
    25e4:	85 c0                	test   %eax,%eax
    25e6:	0f 84 4a f4 ff ff    	je     1a36 <main+0x546>
    25ec:	83 ec 0c             	sub    $0xc,%esp
    25ef:	68 60 82 00 00       	push   $0x8260
    25f4:	e8 b7 66 00 00       	call   8cb0 <printf@plt>
    25f9:	83 c4 10             	add    $0x10,%esp
    25fc:	e9 35 f4 ff ff       	jmp    1a36 <main+0x546>
    2601:	8d 7d cc             	lea    -0x34(%ebp),%edi
    2604:	b8 38 84 00 00       	mov    $0x8438,%eax
    2609:	89 fa                	mov    %edi,%edx
    260b:	e8 30 eb ff ff       	call   1140 <fdsk_confirm>
    2610:	85 c0                	test   %eax,%eax
    2612:	75 33                	jne    2647 <main+0x1157>
    2614:	80 7d cc 00          	cmpb   $0x0,-0x34(%ebp)
    2618:	0f 84 18 f4 ff ff    	je     1a36 <main+0x546>
    261e:	83 ec 0c             	sub    $0xc,%esp
    2621:	53                   	push   %ebx
    2622:	e8 69 45 00 00       	call   6b90 <fdisk_label_destroy>
    2627:	83 c4 10             	add    $0x10,%esp
    262a:	85 c0                	test   %eax,%eax
    262c:	0f 84 04 f4 ff ff    	je     1a36 <main+0x546>
    2632:	83 ec 0c             	sub    $0xc,%esp
    2635:	68 49 82 00 00       	push   $0x8249
    263a:	e8 71 66 00 00       	call   8cb0 <printf@plt>
    263f:	83 c4 10             	add    $0x10,%esp
    2642:	e9 ef f3 ff ff       	jmp    1a36 <main+0x546>
    2647:	83 ec 0c             	sub    $0xc,%esp
    264a:	68 78 84 00 00       	push   $0x8478
    264f:	e8 5c 66 00 00       	call   8cb0 <printf@plt>
    2654:	83 c4 10             	add    $0x10,%esp
    2657:	e9 da f3 ff ff       	jmp    1a36 <main+0x546>
    265c:	83 ec 0c             	sub    $0xc,%esp
    265f:	8d 45 80             	lea    -0x80(%ebp),%eax
    2662:	c7 45 80 00 00 00 00 	movl   $0x0,-0x80(%ebp)
    2669:	c7 45 cc 00 00 00 00 	movl   $0x0,-0x34(%ebp)
    2670:	50                   	push   %eax
    2671:	e8 4a 02 00 00       	call   28c0 <nchoice_create>
    2676:	83 c4 10             	add    $0x10,%esp
    2679:	85 c0                	test   %eax,%eax
    267b:	74 54                	je     26d1 <main+0x11e1>
    267d:	83 f8 fe             	cmp    $0xfffffffe,%eax
    2680:	75 3a                	jne    26bc <main+0x11cc>
    2682:	83 ec 0c             	sub    $0xc,%esp
    2685:	68 13 81 00 00       	push   $0x8113
    268a:	e8 21 66 00 00       	call   8cb0 <printf@plt>
    268f:	83 c4 10             	add    $0x10,%esp
    2692:	83 ec 0c             	sub    $0xc,%esp
    2695:	ff 75 cc             	pushl  -0x34(%ebp)
    2698:	e8 43 69 00 00       	call   8fe0 <free@plt>
    269d:	8b 45 80             	mov    -0x80(%ebp),%eax
    26a0:	83 c4 10             	add    $0x10,%esp
    26a3:	85 c0                	test   %eax,%eax
    26a5:	0f 85 c5 fc ff ff    	jne    2370 <main+0xe80>
    26ab:	e9 86 f3 ff ff       	jmp    1a36 <main+0x546>
    26b0:	c6 05 80 aa 00 00 01 	movb   $0x1,0xaa80
    26b7:	e9 7a f3 ff ff       	jmp    1a36 <main+0x546>
    26bc:	52                   	push   %edx
    26bd:	68 20 01 00 00       	push   $0x120
    26c2:	68 94 89 00 00       	push   $0x8994
    26c7:	68 db 7f 00 00       	push   $0x7fdb
    26cc:	e8 5f 67 00 00       	call   8e30 <assert_abort@plt>
    26d1:	50                   	push   %eax
    26d2:	50                   	push   %eax
    26d3:	68 20 82 00 00       	push   $0x8220
    26d8:	ff 75 80             	pushl  -0x80(%ebp)
    26db:	e8 a0 02 00 00       	call   2980 <nchoice_set_prompt>
    26e0:	83 c4 10             	add    $0x10,%esp
    26e3:	85 c0                	test   %eax,%eax
    26e5:	0f 84 9a 00 00 00    	je     2785 <main+0x1295>
    26eb:	83 f8 fe             	cmp    $0xfffffffe,%eax
    26ee:	74 92                	je     2682 <main+0x1192>
    26f0:	50                   	push   %eax
    26f1:	68 27 01 00 00       	push   $0x127
    26f6:	68 94 89 00 00       	push   $0x8994
    26fb:	68 db 7f 00 00       	push   $0x7fdb
    2700:	e8 2b 67 00 00       	call   8e30 <assert_abort@plt>
    2705:	83 ec 0c             	sub    $0xc,%esp
    2708:	31 ff                	xor    %edi,%edi
    270a:	68 d0 83 00 00       	push   $0x83d0
    270f:	e8 9c 65 00 00       	call   8cb0 <printf@plt>
    2714:	83 c4 10             	add    $0x10,%esp
    2717:	e9 18 fc ff ff       	jmp    2334 <main+0xe44>
    271c:	83 ec 0c             	sub    $0xc,%esp
    271f:	31 ff                	xor    %edi,%edi
    2721:	68 12 81 00 00       	push   $0x8112
    2726:	e8 85 65 00 00       	call   8cb0 <printf@plt>
    272b:	83 c4 10             	add    $0x10,%esp
    272e:	e9 01 fc ff ff       	jmp    2334 <main+0xe44>
    2733:	50                   	push   %eax
    2734:	68 53 02 00 00       	push   $0x253
    2739:	68 94 89 00 00       	push   $0x8994
    273e:	68 db 7f 00 00       	push   $0x7fdb
    2743:	e8 e8 66 00 00       	call   8e30 <assert_abort@plt>
    2748:	6a 00                	push   $0x0
    274a:	6a 00                	push   $0x0
    274c:	68 9b 82 00 00       	push   $0x829b
    2751:	ff b5 74 ff ff ff    	pushl  -0x8c(%ebp)
    2757:	e8 64 02 00 00       	call   29c0 <nchoice_add>
    275c:	83 c4 10             	add    $0x10,%esp
    275f:	85 c0                	test   %eax,%eax
    2761:	0f 84 9f 00 00 00    	je     2806 <main+0x1316>
    2767:	83 f8 fe             	cmp    $0xfffffffe,%eax
    276a:	0f 84 b2 fb ff ff    	je     2322 <main+0xe32>
    2770:	53                   	push   %ebx
    2771:	68 66 02 00 00       	push   $0x266
    2776:	68 94 89 00 00       	push   $0x8994
    277b:	68 db 7f 00 00       	push   $0x7fdb
    2780:	e8 ab 66 00 00       	call   8e30 <assert_abort@plt>
    2785:	be 01 00 00 00       	mov    $0x1,%esi
    278a:	8d 7d cc             	lea    -0x34(%ebp),%edi
    278d:	50                   	push   %eax
    278e:	50                   	push   %eax
    278f:	57                   	push   %edi
    2790:	56                   	push   %esi
    2791:	e8 6a 57 00 00       	call   7f00 <fdisk_ltype_format>
    2796:	83 c4 10             	add    $0x10,%esp
    2799:	85 c0                	test   %eax,%eax
    279b:	0f 85 f1 fe ff ff    	jne    2692 <main+0x11a2>
    27a1:	31 c0                	xor    %eax,%eax
    27a3:	83 fe 01             	cmp    $0x1,%esi
    27a6:	0f 94 c0             	sete   %al
    27a9:	50                   	push   %eax
    27aa:	56                   	push   %esi
    27ab:	ff 75 cc             	pushl  -0x34(%ebp)
    27ae:	ff 75 80             	pushl  -0x80(%ebp)
    27b1:	e8 0a 02 00 00       	call   29c0 <nchoice_add>
    27b6:	83 c4 10             	add    $0x10,%esp
    27b9:	85 c0                	test   %eax,%eax
    27bb:	0f 85 81 00 00 00    	jne    2842 <main+0x1352>
    27c1:	83 ec 0c             	sub    $0xc,%esp
    27c4:	46                   	inc    %esi
    27c5:	ff 75 cc             	pushl  -0x34(%ebp)
    27c8:	e8 13 68 00 00       	call   8fe0 <free@plt>
    27cd:	83 c4 10             	add    $0x10,%esp
    27d0:	c7 45 cc 00 00 00 00 	movl   $0x0,-0x34(%ebp)
    27d7:	83 fe 03             	cmp    $0x3,%esi
    27da:	75 b1                	jne    278d <main+0x129d>
    27dc:	50                   	push   %eax
    27dd:	50                   	push   %eax
    27de:	8d 45 84             	lea    -0x7c(%ebp),%eax
    27e1:	50                   	push   %eax
    27e2:	ff 75 80             	pushl  -0x80(%ebp)
    27e5:	e8 86 02 00 00       	call   2a70 <nchoice_get>
    27ea:	83 c4 10             	add    $0x10,%esp
    27ed:	85 c0                	test   %eax,%eax
    27ef:	74 6f                	je     2860 <main+0x1370>
    27f1:	83 ec 0c             	sub    $0xc,%esp
    27f4:	68 e4 82 00 00       	push   $0x82e4
    27f9:	e8 b2 64 00 00       	call   8cb0 <printf@plt>
    27fe:	83 c4 10             	add    $0x10,%esp
    2801:	e9 8c fe ff ff       	jmp    2692 <main+0x11a2>
    2806:	8d 45 84             	lea    -0x7c(%ebp),%eax
    2809:	51                   	push   %ecx
    280a:	51                   	push   %ecx
    280b:	50                   	push   %eax
    280c:	ff b5 74 ff ff ff    	pushl  -0x8c(%ebp)
    2812:	e8 59 02 00 00       	call   2a70 <nchoice_get>
    2817:	83 c4 10             	add    $0x10,%esp
    281a:	83 f8 ff             	cmp    $0xffffffff,%eax
    281d:	0f 84 13 f2 ff ff    	je     1a36 <main+0x546>
    2823:	85 c0                	test   %eax,%eax
    2825:	0f 84 a7 f1 ff ff    	je     19d2 <main+0x4e2>
    282b:	83 ec 0c             	sub    $0xc,%esp
    282e:	31 ff                	xor    %edi,%edi
    2830:	68 e4 82 00 00       	push   $0x82e4
    2835:	e8 76 64 00 00       	call   8cb0 <printf@plt>
    283a:	83 c4 10             	add    $0x10,%esp
    283d:	e9 f2 fa ff ff       	jmp    2334 <main+0xe44>
    2842:	83 f8 fe             	cmp    $0xfffffffe,%eax
    2845:	0f 84 37 fe ff ff    	je     2682 <main+0x1192>
    284b:	50                   	push   %eax
    284c:	68 34 01 00 00       	push   $0x134
    2851:	68 94 89 00 00       	push   $0x8994
    2856:	68 db 7f 00 00       	push   $0x7fdb
    285b:	e8 d0 65 00 00       	call   8e30 <assert_abort@plt>
    2860:	50                   	push   %eax
    2861:	50                   	push   %eax
    2862:	ff 75 84             	pushl  -0x7c(%ebp)
    2865:	53                   	push   %ebx
    2866:	e8 45 40 00 00       	call   68b0 <fdisk_label_create>
    286b:	83 c4 10             	add    $0x10,%esp
    286e:	85 c0                	test   %eax,%eax
    2870:	74 2c                	je     289e <main+0x13ae>
    2872:	83 ec 0c             	sub    $0xc,%esp
    2875:	68 32 82 00 00       	push   $0x8232
    287a:	e8 31 64 00 00       	call   8cb0 <printf@plt>
    287f:	83 c4 10             	add    $0x10,%esp
    2882:	e9 0b fe ff ff       	jmp    2692 <main+0x11a2>
    2887:	83 ec 0c             	sub    $0xc,%esp
    288a:	31 ff                	xor    %edi,%edi
    288c:	68 78 84 00 00       	push   $0x8478
    2891:	e8 1a 64 00 00       	call   8cb0 <printf@plt>
    2896:	83 c4 10             	add    $0x10,%esp
    2899:	e9 96 fa ff ff       	jmp    2334 <main+0xe44>
    289e:	83 ec 0c             	sub    $0xc,%esp
    28a1:	ff 75 80             	pushl  -0x80(%ebp)
    28a4:	e8 a7 00 00 00       	call   2950 <nchoice_destroy>
    28a9:	83 c4 10             	add    $0x10,%esp
    28ac:	e9 85 f1 ff ff       	jmp    1a36 <main+0x546>
    28b1:	66 90                	xchg   %ax,%ax
    28b3:	66 90                	xchg   %ax,%ax
    28b5:	66 90                	xchg   %ax,%ax
    28b7:	66 90                	xchg   %ax,%ax
    28b9:	66 90                	xchg   %ax,%ax
    28bb:	66 90                	xchg   %ax,%ax
    28bd:	66 90                	xchg   %ax,%ax
    28bf:	90                   	nop

000028c0 <nchoice_create>:
    28c0:	55                   	push   %ebp
    28c1:	89 e5                	mov    %esp,%ebp
    28c3:	53                   	push   %ebx
    28c4:	83 ec 0c             	sub    $0xc,%esp
    28c7:	6a 14                	push   $0x14
    28c9:	6a 01                	push   $0x1
    28cb:	e8 70 65 00 00       	call   8e40 <calloc@plt>
    28d0:	83 c4 10             	add    $0x10,%esp
    28d3:	85 c0                	test   %eax,%eax
    28d5:	74 47                	je     291e <nchoice_create+0x5e>
    28d7:	89 c3                	mov    %eax,%ebx
    28d9:	8d 40 04             	lea    0x4(%eax),%eax
    28dc:	89 43 04             	mov    %eax,0x4(%ebx)
    28df:	89 43 08             	mov    %eax,0x8(%ebx)
    28e2:	e8 d9 0a 00 00       	call   33c0 <tinput_new>
    28e7:	89 43 0c             	mov    %eax,0xc(%ebx)
    28ea:	85 c0                	test   %eax,%eax
    28ec:	74 1c                	je     290a <nchoice_create+0x4a>
    28ee:	52                   	push   %edx
    28ef:	52                   	push   %edx
    28f0:	68 40 85 00 00       	push   $0x8540
    28f5:	50                   	push   %eax
    28f6:	e8 55 0b 00 00       	call   3450 <tinput_set_prompt>
    28fb:	83 c4 10             	add    $0x10,%esp
    28fe:	85 c0                	test   %eax,%eax
    2900:	74 26                	je     2928 <nchoice_create+0x68>
    2902:	83 f8 fe             	cmp    $0xfffffffe,%eax
    2905:	75 2b                	jne    2932 <nchoice_create+0x72>
    2907:	8b 43 0c             	mov    0xc(%ebx),%eax
    290a:	83 ec 0c             	sub    $0xc,%esp
    290d:	50                   	push   %eax
    290e:	e8 0d 0b 00 00       	call   3420 <tinput_destroy>
    2913:	89 1c 24             	mov    %ebx,(%esp)
    2916:	e8 c5 66 00 00       	call   8fe0 <free@plt>
    291b:	83 c4 10             	add    $0x10,%esp
    291e:	b8 fe ff ff ff       	mov    $0xfffffffe,%eax
    2923:	8b 5d fc             	mov    -0x4(%ebp),%ebx
    2926:	c9                   	leave  
    2927:	c3                   	ret    
    2928:	8b 55 08             	mov    0x8(%ebp),%edx
    292b:	89 1a                	mov    %ebx,(%edx)
    292d:	8b 5d fc             	mov    -0x4(%ebp),%ebx
    2930:	c9                   	leave  
    2931:	c3                   	ret    
    2932:	50                   	push   %eax
    2933:	6a 3e                	push   $0x3e
    2935:	68 49 85 00 00       	push   $0x8549
    293a:	68 db 7f 00 00       	push   $0x7fdb
    293f:	e8 ec 64 00 00       	call   8e30 <assert_abort@plt>
    2944:	8d b6 00 00 00 00    	lea    0x0(%esi),%esi
    294a:	8d bf 00 00 00 00    	lea    0x0(%edi),%edi

00002950 <nchoice_destroy>:
    2950:	55                   	push   %ebp
    2951:	89 e5                	mov    %esp,%ebp
    2953:	53                   	push   %ebx
    2954:	52                   	push   %edx
    2955:	8b 5d 08             	mov    0x8(%ebp),%ebx
    2958:	85 db                	test   %ebx,%ebx
    295a:	74 1c                	je     2978 <nchoice_destroy+0x28>
    295c:	83 ec 0c             	sub    $0xc,%esp
    295f:	8b 43 0c             	mov    0xc(%ebx),%eax
    2962:	50                   	push   %eax
    2963:	e8 b8 0a 00 00       	call   3420 <tinput_destroy>
    2968:	89 5d 08             	mov    %ebx,0x8(%ebp)
    296b:	83 c4 10             	add    $0x10,%esp
    296e:	8b 5d fc             	mov    -0x4(%ebp),%ebx
    2971:	c9                   	leave  
    2972:	e9 69 66 00 00       	jmp    8fe0 <free@plt>
    2977:	90                   	nop
    2978:	8b 5d fc             	mov    -0x4(%ebp),%ebx
    297b:	c9                   	leave  
    297c:	c3                   	ret    
    297d:	8d 76 00             	lea    0x0(%esi),%esi

00002980 <nchoice_set_prompt>:
    2980:	55                   	push   %ebp
    2981:	89 e5                	mov    %esp,%ebp
    2983:	56                   	push   %esi
    2984:	53                   	push   %ebx
    2985:	83 ec 0c             	sub    $0xc,%esp
    2988:	8b 55 0c             	mov    0xc(%ebp),%edx
    298b:	8b 75 08             	mov    0x8(%ebp),%esi
    298e:	52                   	push   %edx
    298f:	e8 ec 64 00 00       	call   8e80 <str_dup@plt>
    2994:	83 c4 10             	add    $0x10,%esp
    2997:	85 c0                	test   %eax,%eax
    2999:	74 1d                	je     29b8 <nchoice_set_prompt+0x38>
    299b:	83 ec 0c             	sub    $0xc,%esp
    299e:	89 c3                	mov    %eax,%ebx
    29a0:	8b 06                	mov    (%esi),%eax
    29a2:	50                   	push   %eax
    29a3:	e8 38 66 00 00       	call   8fe0 <free@plt>
    29a8:	89 1e                	mov    %ebx,(%esi)
    29aa:	83 c4 10             	add    $0x10,%esp
    29ad:	31 c0                	xor    %eax,%eax
    29af:	8d 65 f8             	lea    -0x8(%ebp),%esp
    29b2:	5b                   	pop    %ebx
    29b3:	5e                   	pop    %esi
    29b4:	5d                   	pop    %ebp
    29b5:	c3                   	ret    
    29b6:	66 90                	xchg   %ax,%ax
    29b8:	b8 fe ff ff ff       	mov    $0xfffffffe,%eax
    29bd:	eb f0                	jmp    29af <nchoice_set_prompt+0x2f>
    29bf:	90                   	nop

000029c0 <nchoice_add>:
    29c0:	55                   	push   %ebp
    29c1:	89 e5                	mov    %esp,%ebp
    29c3:	56                   	push   %esi
    29c4:	53                   	push   %ebx
    29c5:	53                   	push   %ebx
    29c6:	8b 75 08             	mov    0x8(%ebp),%esi
    29c9:	53                   	push   %ebx
    29ca:	6a 10                	push   $0x10
    29cc:	6a 01                	push   $0x1
    29ce:	e8 6d 64 00 00       	call   8e40 <calloc@plt>
    29d3:	83 c4 10             	add    $0x10,%esp
    29d6:	85 c0                	test   %eax,%eax
    29d8:	74 5e                	je     2a38 <nchoice_add+0x78>
    29da:	83 ec 0c             	sub    $0xc,%esp
    29dd:	8b 4d 0c             	mov    0xc(%ebp),%ecx
    29e0:	89 c3                	mov    %eax,%ebx
    29e2:	51                   	push   %ecx
    29e3:	e8 98 64 00 00       	call   8e80 <str_dup@plt>
    29e8:	83 c4 10             	add    $0x10,%esp
    29eb:	85 c0                	test   %eax,%eax
    29ed:	74 50                	je     2a3f <nchoice_add+0x7f>
    29ef:	89 43 08             	mov    %eax,0x8(%ebx)
    29f2:	8b 45 10             	mov    0x10(%ebp),%eax
    29f5:	89 43 0c             	mov    %eax,0xc(%ebx)
    29f8:	8d 46 04             	lea    0x4(%esi),%eax
    29fb:	89 43 04             	mov    %eax,0x4(%ebx)
    29fe:	8b 46 04             	mov    0x4(%esi),%eax
    2a01:	89 03                	mov    %eax,(%ebx)
    2a03:	f6 45 14 01          	testb  $0x1,0x14(%ebp)
    2a07:	89 58 04             	mov    %ebx,0x4(%eax)
    2a0a:	89 5e 04             	mov    %ebx,0x4(%esi)
    2a0d:	74 19                	je     2a28 <nchoice_add+0x68>
    2a0f:	8b 56 10             	mov    0x10(%esi),%edx
    2a12:	85 d2                	test   %edx,%edx
    2a14:	75 3c                	jne    2a52 <nchoice_add+0x92>
    2a16:	89 5e 10             	mov    %ebx,0x10(%esi)
    2a19:	31 c0                	xor    %eax,%eax
    2a1b:	8d 65 f8             	lea    -0x8(%ebp),%esp
    2a1e:	5b                   	pop    %ebx
    2a1f:	5e                   	pop    %esi
    2a20:	5d                   	pop    %ebp
    2a21:	c3                   	ret    
    2a22:	8d b6 00 00 00 00    	lea    0x0(%esi),%esi
    2a28:	8d 65 f8             	lea    -0x8(%ebp),%esp
    2a2b:	31 c0                	xor    %eax,%eax
    2a2d:	5b                   	pop    %ebx
    2a2e:	5e                   	pop    %esi
    2a2f:	5d                   	pop    %ebp
    2a30:	c3                   	ret    
    2a31:	8d b4 26 00 00 00 00 	lea    0x0(%esi,%eiz,1),%esi
    2a38:	b8 fe ff ff ff       	mov    $0xfffffffe,%eax
    2a3d:	eb dc                	jmp    2a1b <nchoice_add+0x5b>
    2a3f:	83 ec 0c             	sub    $0xc,%esp
    2a42:	53                   	push   %ebx
    2a43:	e8 98 65 00 00       	call   8fe0 <free@plt>
    2a48:	83 c4 10             	add    $0x10,%esp
    2a4b:	b8 fe ff ff ff       	mov    $0xfffffffe,%eax
    2a50:	eb c9                	jmp    2a1b <nchoice_add+0x5b>
    2a52:	50                   	push   %eax
    2a53:	6a 78                	push   $0x78
    2a55:	68 49 85 00 00       	push   $0x8549
    2a5a:	68 53 85 00 00       	push   $0x8553
    2a5f:	e8 cc 63 00 00       	call   8e30 <assert_abort@plt>
    2a64:	8d b6 00 00 00 00    	lea    0x0(%esi),%esi
    2a6a:	8d bf 00 00 00 00    	lea    0x0(%edi),%edi

00002a70 <nchoice_get>:
    2a70:	55                   	push   %ebp
    2a71:	89 e5                	mov    %esp,%ebp
    2a73:	57                   	push   %edi
    2a74:	56                   	push   %esi
    2a75:	53                   	push   %ebx
    2a76:	83 ec 2c             	sub    $0x2c,%esp
    2a79:	8b 75 08             	mov    0x8(%ebp),%esi
    2a7c:	8d 46 04             	lea    0x4(%esi),%eax
    2a7f:	89 45 d4             	mov    %eax,-0x2c(%ebp)
    2a82:	53                   	push   %ebx
    2a83:	53                   	push   %ebx
    2a84:	8b 3e                	mov    (%esi),%edi
    2a86:	57                   	push   %edi
    2a87:	68 b6 80 00 00       	push   $0x80b6
    2a8c:	e8 1f 62 00 00       	call   8cb0 <printf@plt>
    2a91:	8b 5e 08             	mov    0x8(%esi),%ebx
    2a94:	83 c4 10             	add    $0x10,%esp
    2a97:	3b 5d d4             	cmp    -0x2c(%ebp),%ebx
    2a9a:	0f 84 00 01 00 00    	je     2ba0 <nchoice_get+0x130>
    2aa0:	bf 01 00 00 00       	mov    $0x1,%edi
    2aa5:	89 75 08             	mov    %esi,0x8(%ebp)
    2aa8:	8b 46 10             	mov    0x10(%esi),%eax
    2aab:	c7 45 d0 00 00 00 00 	movl   $0x0,-0x30(%ebp)
    2ab2:	89 fe                	mov    %edi,%esi
    2ab4:	8b 7d 08             	mov    0x8(%ebp),%edi
    2ab7:	eb 2a                	jmp    2ae3 <nchoice_get+0x73>
    2ab9:	8d b4 26 00 00 00 00 	lea    0x0(%esi,%eiz,1),%esi
    2ac0:	51                   	push   %ecx
    2ac1:	8b 4b 08             	mov    0x8(%ebx),%ecx
    2ac4:	51                   	push   %ecx
    2ac5:	56                   	push   %esi
    2ac6:	68 76 85 00 00       	push   $0x8576
    2acb:	e8 e0 61 00 00       	call   8cb0 <printf@plt>
    2ad0:	8b 47 10             	mov    0x10(%edi),%eax
    2ad3:	83 c4 10             	add    $0x10,%esp
    2ad6:	39 d8                	cmp    %ebx,%eax
    2ad8:	74 1e                	je     2af8 <nchoice_get+0x88>
    2ada:	8b 5b 04             	mov    0x4(%ebx),%ebx
    2add:	46                   	inc    %esi
    2ade:	3b 5d d4             	cmp    -0x2c(%ebp),%ebx
    2ae1:	74 25                	je     2b08 <nchoice_get+0x98>
    2ae3:	b9 7f 80 00 00       	mov    $0x807f,%ecx
    2ae8:	39 d8                	cmp    %ebx,%eax
    2aea:	75 d4                	jne    2ac0 <nchoice_get+0x50>
    2aec:	b9 6b 85 00 00       	mov    $0x856b,%ecx
    2af1:	eb cd                	jmp    2ac0 <nchoice_get+0x50>
    2af3:	90                   	nop
    2af4:	8d 74 26 00          	lea    0x0(%esi,%eiz,1),%esi
    2af8:	8b 5b 04             	mov    0x4(%ebx),%ebx
    2afb:	89 75 d0             	mov    %esi,-0x30(%ebp)
    2afe:	46                   	inc    %esi
    2aff:	3b 5d d4             	cmp    -0x2c(%ebp),%ebx
    2b02:	75 df                	jne    2ae3 <nchoice_get+0x73>
    2b04:	8d 74 26 00          	lea    0x0(%esi,%eiz,1),%esi
    2b08:	89 7d 08             	mov    %edi,0x8(%ebp)
    2b0b:	8b 45 d0             	mov    -0x30(%ebp),%eax
    2b0e:	89 f7                	mov    %esi,%edi
    2b10:	85 c0                	test   %eax,%eax
    2b12:	8b 75 08             	mov    0x8(%ebp),%esi
    2b15:	0f 84 8a 00 00 00    	je     2ba5 <nchoice_get+0x135>
    2b1b:	52                   	push   %edx
    2b1c:	50                   	push   %eax
    2b1d:	8d 45 e4             	lea    -0x1c(%ebp),%eax
    2b20:	68 80 85 00 00       	push   $0x8580
    2b25:	50                   	push   %eax
    2b26:	e8 f5 63 00 00       	call   8f20 <asprintf@plt>
    2b2b:	83 c4 10             	add    $0x10,%esp
    2b2e:	85 c0                	test   %eax,%eax
    2b30:	0f 88 8a 00 00 00    	js     2bc0 <nchoice_get+0x150>
    2b36:	8b 45 e4             	mov    -0x1c(%ebp),%eax
    2b39:	52                   	push   %edx
    2b3a:	8d 55 dc             	lea    -0x24(%ebp),%edx
    2b3d:	8b 4e 0c             	mov    0xc(%esi),%ecx
    2b40:	52                   	push   %edx
    2b41:	50                   	push   %eax
    2b42:	51                   	push   %ecx
    2b43:	e8 58 09 00 00       	call   34a0 <tinput_read_i>
    2b48:	89 c3                	mov    %eax,%ebx
    2b4a:	58                   	pop    %eax
    2b4b:	8b 45 e4             	mov    -0x1c(%ebp),%eax
    2b4e:	50                   	push   %eax
    2b4f:	e8 8c 64 00 00       	call   8fe0 <free@plt>
    2b54:	83 c4 10             	add    $0x10,%esp
    2b57:	85 db                	test   %ebx,%ebx
    2b59:	75 74                	jne    2bcf <nchoice_get+0x15f>
    2b5b:	50                   	push   %eax
    2b5c:	8d 45 e0             	lea    -0x20(%ebp),%eax
    2b5f:	6a 0a                	push   $0xa
    2b61:	50                   	push   %eax
    2b62:	8b 45 dc             	mov    -0x24(%ebp),%eax
    2b65:	50                   	push   %eax
    2b66:	e8 25 62 00 00       	call   8d90 <strtoul@plt>
    2b6b:	8b 4d e0             	mov    -0x20(%ebp),%ecx
    2b6e:	83 c4 10             	add    $0x10,%esp
    2b71:	80 39 00             	cmpb   $0x0,(%ecx)
    2b74:	75 0b                	jne    2b81 <nchoice_get+0x111>
    2b76:	85 c0                	test   %eax,%eax
    2b78:	74 07                	je     2b81 <nchoice_get+0x111>
    2b7a:	8d 57 ff             	lea    -0x1(%edi),%edx
    2b7d:	39 d0                	cmp    %edx,%eax
    2b7f:	76 6f                	jbe    2bf0 <nchoice_get+0x180>
    2b81:	83 ec 0c             	sub    $0xc,%esp
    2b84:	68 9d 85 00 00       	push   $0x859d
    2b89:	e8 22 61 00 00       	call   8cb0 <printf@plt>
    2b8e:	8b 5d dc             	mov    -0x24(%ebp),%ebx
    2b91:	59                   	pop    %ecx
    2b92:	53                   	push   %ebx
    2b93:	e8 48 64 00 00       	call   8fe0 <free@plt>
    2b98:	83 c4 10             	add    $0x10,%esp
    2b9b:	e9 e2 fe ff ff       	jmp    2a82 <nchoice_get+0x12>
    2ba0:	bf 01 00 00 00       	mov    $0x1,%edi
    2ba5:	83 ec 0c             	sub    $0xc,%esp
    2ba8:	68 7f 80 00 00       	push   $0x807f
    2bad:	e8 ce 62 00 00       	call   8e80 <str_dup@plt>
    2bb2:	83 c4 10             	add    $0x10,%esp
    2bb5:	89 45 e4             	mov    %eax,-0x1c(%ebp)
    2bb8:	85 c0                	test   %eax,%eax
    2bba:	0f 85 79 ff ff ff    	jne    2b39 <nchoice_get+0xc9>
    2bc0:	bb fe ff ff ff       	mov    $0xfffffffe,%ebx
    2bc5:	8d 65 f4             	lea    -0xc(%ebp),%esp
    2bc8:	89 d8                	mov    %ebx,%eax
    2bca:	5b                   	pop    %ebx
    2bcb:	5e                   	pop    %esi
    2bcc:	5f                   	pop    %edi
    2bcd:	5d                   	pop    %ebp
    2bce:	c3                   	ret    
    2bcf:	81 fb f6 fe ff ff    	cmp    $0xfffffef6,%ebx
    2bd5:	74 05                	je     2bdc <nchoice_get+0x16c>
    2bd7:	83 fb ff             	cmp    $0xffffffff,%ebx
    2bda:	75 78                	jne    2c54 <nchoice_get+0x1e4>
    2bdc:	83 fb ff             	cmp    $0xffffffff,%ebx
    2bdf:	74 e4                	je     2bc5 <nchoice_get+0x155>
    2be1:	8d 65 f4             	lea    -0xc(%ebp),%esp
    2be4:	bb f6 fe ff ff       	mov    $0xfffffef6,%ebx
    2be9:	89 d8                	mov    %ebx,%eax
    2beb:	5b                   	pop    %ebx
    2bec:	5e                   	pop    %esi
    2bed:	5f                   	pop    %edi
    2bee:	5d                   	pop    %ebp
    2bef:	c3                   	ret    
    2bf0:	83 ec 0c             	sub    $0xc,%esp
    2bf3:	8b 55 dc             	mov    -0x24(%ebp),%edx
    2bf6:	89 45 d0             	mov    %eax,-0x30(%ebp)
    2bf9:	52                   	push   %edx
    2bfa:	e8 e1 63 00 00       	call   8fe0 <free@plt>
    2bff:	8b 56 08             	mov    0x8(%esi),%edx
    2c02:	83 c4 10             	add    $0x10,%esp
    2c05:	3b 55 d4             	cmp    -0x2c(%ebp),%edx
    2c08:	74 23                	je     2c2d <nchoice_get+0x1bd>
    2c0a:	8b 45 d0             	mov    -0x30(%ebp),%eax
    2c0d:	83 f8 01             	cmp    $0x1,%eax
    2c10:	74 30                	je     2c42 <nchoice_get+0x1d2>
    2c12:	b9 01 00 00 00       	mov    $0x1,%ecx
    2c17:	eb 0b                	jmp    2c24 <nchoice_get+0x1b4>
    2c19:	8d b4 26 00 00 00 00 	lea    0x0(%esi,%eiz,1),%esi
    2c20:	39 c8                	cmp    %ecx,%eax
    2c22:	74 1e                	je     2c42 <nchoice_get+0x1d2>
    2c24:	8b 52 04             	mov    0x4(%edx),%edx
    2c27:	41                   	inc    %ecx
    2c28:	3b 55 d4             	cmp    -0x2c(%ebp),%edx
    2c2b:	75 f3                	jne    2c20 <nchoice_get+0x1b0>
    2c2d:	50                   	push   %eax
    2c2e:	68 c2 00 00 00       	push   $0xc2
    2c33:	68 49 85 00 00       	push   $0x8549
    2c38:	68 b9 85 00 00       	push   $0x85b9
    2c3d:	e8 ee 61 00 00       	call   8e30 <assert_abort@plt>
    2c42:	8b 45 0c             	mov    0xc(%ebp),%eax
    2c45:	8b 52 0c             	mov    0xc(%edx),%edx
    2c48:	89 10                	mov    %edx,(%eax)
    2c4a:	8d 65 f4             	lea    -0xc(%ebp),%esp
    2c4d:	89 d8                	mov    %ebx,%eax
    2c4f:	5b                   	pop    %ebx
    2c50:	5e                   	pop    %esi
    2c51:	5f                   	pop    %edi
    2c52:	5d                   	pop    %ebp
    2c53:	c3                   	ret    
    2c54:	50                   	push   %eax
    2c55:	68 a6 00 00 00       	push   $0xa6
    2c5a:	68 49 85 00 00       	push   $0x8549
    2c5f:	68 83 85 00 00       	push   $0x8583
    2c64:	e8 c7 61 00 00       	call   8e30 <assert_abort@plt>
    2c69:	66 90                	xchg   %ax,%ax
    2c6b:	66 90                	xchg   %ax,%ax
    2c6d:	66 90                	xchg   %ax,%ax
    2c6f:	90                   	nop

00002c70 <compl_cmp>:
    2c70:	55                   	push   %ebp
    2c71:	89 e5                	mov    %esp,%ebp
    2c73:	8b 45 0c             	mov    0xc(%ebp),%eax
    2c76:	8b 00                	mov    (%eax),%eax
    2c78:	89 45 0c             	mov    %eax,0xc(%ebp)
    2c7b:	8b 45 08             	mov    0x8(%ebp),%eax
    2c7e:	8b 00                	mov    (%eax),%eax
    2c80:	89 45 08             	mov    %eax,0x8(%ebp)
    2c83:	5d                   	pop    %ebp
    2c84:	e9 37 62 00 00       	jmp    8ec0 <str_cmp@plt>
    2c89:	8d b4 26 00 00 00 00 	lea    0x0(%esi,%eiz,1),%esi

00002c90 <tinput_display_tail>:
    2c90:	55                   	push   %ebp
    2c91:	89 e5                	mov    %esp,%ebp
    2c93:	57                   	push   %edi
    2c94:	56                   	push   %esi
    2c95:	53                   	push   %ebx
    2c96:	83 ec 28             	sub    $0x28,%esp
    2c99:	89 c6                	mov    %eax,%esi
    2c9b:	89 d3                	mov    %edx,%ebx
    2c9d:	89 cf                	mov    %ecx,%edi
    2c9f:	68 04 10 00 00       	push   $0x1004
    2ca4:	e8 d7 60 00 00       	call   8d80 <malloc@plt>
    2ca9:	83 c4 10             	add    $0x10,%esp
    2cac:	89 45 e4             	mov    %eax,-0x1c(%ebp)
    2caf:	85 c0                	test   %eax,%eax
    2cb1:	0f 84 b3 00 00 00    	je     2d6a <tinput_display_tail+0xda>
    2cb7:	8b 86 24 10 00 00    	mov    0x1024(%esi),%eax
    2cbd:	8b 8e 28 10 00 00    	mov    0x1028(%esi),%ecx
    2cc3:	89 c2                	mov    %eax,%edx
    2cc5:	89 45 e0             	mov    %eax,-0x20(%ebp)
    2cc8:	39 c1                	cmp    %eax,%ecx
    2cca:	0f 83 a8 00 00 00    	jae    2d78 <tinput_display_tail+0xe8>
    2cd0:	8b 86 14 10 00 00    	mov    0x1014(%esi),%eax
    2cd6:	31 d2                	xor    %edx,%edx
    2cd8:	01 d8                	add    %ebx,%eax
    2cda:	89 4d dc             	mov    %ecx,-0x24(%ebp)
    2cdd:	f7 b6 18 10 00 00    	divl   0x1018(%esi)
    2ce3:	51                   	push   %ecx
    2ce4:	50                   	push   %eax
    2ce5:	8b 06                	mov    (%esi),%eax
    2ce7:	52                   	push   %edx
    2ce8:	50                   	push   %eax
    2ce9:	e8 82 62 00 00       	call   8f70 <console_set_pos@plt>
    2cee:	8b 0e                	mov    (%esi),%ecx
    2cf0:	58                   	pop    %eax
    2cf1:	5a                   	pop    %edx
    2cf2:	6a 00                	push   $0x0
    2cf4:	51                   	push   %ecx
    2cf5:	e8 e6 61 00 00       	call   8ee0 <console_set_style@plt>
    2cfa:	8b 4d dc             	mov    -0x24(%ebp),%ecx
    2cfd:	83 c4 10             	add    $0x10,%esp
    2d00:	39 cb                	cmp    %ecx,%ebx
    2d02:	0f 82 18 01 00 00    	jb     2e20 <tinput_display_tail+0x190>
    2d08:	3b 5d e0             	cmp    -0x20(%ebp),%ebx
    2d0b:	0f 82 b7 00 00 00    	jb     2dc8 <tinput_display_tail+0x138>
    2d11:	83 ec 0c             	sub    $0xc,%esp
    2d14:	8b 06                	mov    (%esi),%eax
    2d16:	50                   	push   %eax
    2d17:	e8 24 62 00 00       	call   8f40 <console_flush@plt>
    2d1c:	8b 0e                	mov    (%esi),%ecx
    2d1e:	58                   	pop    %eax
    2d1f:	5a                   	pop    %edx
    2d20:	6a 00                	push   $0x0
    2d22:	51                   	push   %ecx
    2d23:	e8 b8 61 00 00       	call   8ee0 <console_set_style@plt>
    2d28:	8b 86 20 10 00 00    	mov    0x1020(%esi),%eax
    2d2e:	83 c4 10             	add    $0x10,%esp
    2d31:	39 c3                	cmp    %eax,%ebx
    2d33:	72 53                	jb     2d88 <tinput_display_tail+0xf8>
    2d35:	31 db                	xor    %ebx,%ebx
    2d37:	85 ff                	test   %edi,%edi
    2d39:	74 17                	je     2d52 <tinput_display_tail+0xc2>
    2d3b:	90                   	nop
    2d3c:	8d 74 26 00          	lea    0x0(%esi,%eiz,1),%esi
    2d40:	83 ec 0c             	sub    $0xc,%esp
    2d43:	43                   	inc    %ebx
    2d44:	6a 20                	push   $0x20
    2d46:	e8 05 5f 00 00       	call   8c50 <putchar@plt>
    2d4b:	83 c4 10             	add    $0x10,%esp
    2d4e:	39 df                	cmp    %ebx,%edi
    2d50:	75 ee                	jne    2d40 <tinput_display_tail+0xb0>
    2d52:	83 ec 0c             	sub    $0xc,%esp
    2d55:	8b 06                	mov    (%esi),%eax
    2d57:	50                   	push   %eax
    2d58:	e8 e3 61 00 00       	call   8f40 <console_flush@plt>
    2d5d:	8b 4d e4             	mov    -0x1c(%ebp),%ecx
    2d60:	5a                   	pop    %edx
    2d61:	51                   	push   %ecx
    2d62:	e8 79 62 00 00       	call   8fe0 <free@plt>
    2d67:	83 c4 10             	add    $0x10,%esp
    2d6a:	8d 65 f4             	lea    -0xc(%ebp),%esp
    2d6d:	5b                   	pop    %ebx
    2d6e:	5e                   	pop    %esi
    2d6f:	5f                   	pop    %edi
    2d70:	5d                   	pop    %ebp
    2d71:	c3                   	ret    
    2d72:	8d b6 00 00 00 00    	lea    0x0(%esi),%esi
    2d78:	89 c8                	mov    %ecx,%eax
    2d7a:	89 d1                	mov    %edx,%ecx
    2d7c:	89 45 e0             	mov    %eax,-0x20(%ebp)
    2d7f:	e9 4c ff ff ff       	jmp    2cd0 <tinput_display_tail+0x40>
    2d84:	8d 74 26 00          	lea    0x0(%esi,%eiz,1),%esi
    2d88:	29 d8                	sub    %ebx,%eax
    2d8a:	8b 4d e4             	mov    -0x1c(%ebp),%ecx
    2d8d:	c1 e0 02             	shl    $0x2,%eax
    2d90:	52                   	push   %edx
    2d91:	50                   	push   %eax
    2d92:	8d 44 9e 0c          	lea    0xc(%esi,%ebx,4),%eax
    2d96:	50                   	push   %eax
    2d97:	51                   	push   %ecx
    2d98:	e8 c3 5f 00 00       	call   8d60 <memcpy@plt>
    2d9d:	8b 86 20 10 00 00    	mov    0x1020(%esi),%eax
    2da3:	29 d8                	sub    %ebx,%eax
    2da5:	8b 4d e4             	mov    -0x1c(%ebp),%ecx
    2da8:	c7 04 81 00 00 00 00 	movl   $0x0,(%ecx,%eax,4)
    2daf:	5b                   	pop    %ebx
    2db0:	58                   	pop    %eax
    2db1:	51                   	push   %ecx
    2db2:	68 bf 85 00 00       	push   $0x85bf
    2db7:	e8 f4 5e 00 00       	call   8cb0 <printf@plt>
    2dbc:	83 c4 10             	add    $0x10,%esp
    2dbf:	e9 71 ff ff ff       	jmp    2d35 <tinput_display_tail+0xa5>
    2dc4:	8d 74 26 00          	lea    0x0(%esi,%eiz,1),%esi
    2dc8:	83 ec 0c             	sub    $0xc,%esp
    2dcb:	8b 06                	mov    (%esi),%eax
    2dcd:	50                   	push   %eax
    2dce:	e8 6d 61 00 00       	call   8f40 <console_flush@plt>
    2dd3:	8b 0e                	mov    (%esi),%ecx
    2dd5:	58                   	pop    %eax
    2dd6:	5a                   	pop    %edx
    2dd7:	6a 03                	push   $0x3
    2dd9:	51                   	push   %ecx
    2dda:	e8 01 61 00 00       	call   8ee0 <console_set_style@plt>
    2ddf:	8b 55 e0             	mov    -0x20(%ebp),%edx
    2de2:	83 c4 0c             	add    $0xc,%esp
    2de5:	29 da                	sub    %ebx,%edx
    2de7:	8d 44 9e 0c          	lea    0xc(%esi,%ebx,4),%eax
    2deb:	c1 e2 02             	shl    $0x2,%edx
    2dee:	8b 5d e4             	mov    -0x1c(%ebp),%ebx
    2df1:	52                   	push   %edx
    2df2:	89 55 dc             	mov    %edx,-0x24(%ebp)
    2df5:	50                   	push   %eax
    2df6:	53                   	push   %ebx
    2df7:	e8 64 5f 00 00       	call   8d60 <memcpy@plt>
    2dfc:	8b 55 dc             	mov    -0x24(%ebp),%edx
    2dff:	c7 04 13 00 00 00 00 	movl   $0x0,(%ebx,%edx,1)
    2e06:	58                   	pop    %eax
    2e07:	5a                   	pop    %edx
    2e08:	53                   	push   %ebx
    2e09:	68 bf 85 00 00       	push   $0x85bf
    2e0e:	e8 9d 5e 00 00       	call   8cb0 <printf@plt>
    2e13:	83 c4 10             	add    $0x10,%esp
    2e16:	8b 5d e0             	mov    -0x20(%ebp),%ebx
    2e19:	e9 f3 fe ff ff       	jmp    2d11 <tinput_display_tail+0x81>
    2e1e:	66 90                	xchg   %ax,%ax
    2e20:	89 ca                	mov    %ecx,%edx
    2e22:	8d 44 9e 0c          	lea    0xc(%esi,%ebx,4),%eax
    2e26:	29 da                	sub    %ebx,%edx
    2e28:	8b 5d e4             	mov    -0x1c(%ebp),%ebx
    2e2b:	c1 e2 02             	shl    $0x2,%edx
    2e2e:	89 4d d8             	mov    %ecx,-0x28(%ebp)
    2e31:	89 55 dc             	mov    %edx,-0x24(%ebp)
    2e34:	51                   	push   %ecx
    2e35:	52                   	push   %edx
    2e36:	50                   	push   %eax
    2e37:	53                   	push   %ebx
    2e38:	e8 23 5f 00 00       	call   8d60 <memcpy@plt>
    2e3d:	8b 55 dc             	mov    -0x24(%ebp),%edx
    2e40:	c7 04 13 00 00 00 00 	movl   $0x0,(%ebx,%edx,1)
    2e47:	58                   	pop    %eax
    2e48:	5a                   	pop    %edx
    2e49:	53                   	push   %ebx
    2e4a:	68 bf 85 00 00       	push   $0x85bf
    2e4f:	e8 5c 5e 00 00       	call   8cb0 <printf@plt>
    2e54:	8b 4d d8             	mov    -0x28(%ebp),%ecx
    2e57:	83 c4 10             	add    $0x10,%esp
    2e5a:	89 cb                	mov    %ecx,%ebx
    2e5c:	e9 a7 fe ff ff       	jmp    2d08 <tinput_display_tail+0x78>
    2e61:	eb 0d                	jmp    2e70 <tinput_history_seek.part.6>
    2e63:	90                   	nop
    2e64:	90                   	nop
    2e65:	90                   	nop
    2e66:	90                   	nop
    2e67:	90                   	nop
    2e68:	90                   	nop
    2e69:	90                   	nop
    2e6a:	90                   	nop
    2e6b:	90                   	nop
    2e6c:	90                   	nop
    2e6d:	90                   	nop
    2e6e:	90                   	nop
    2e6f:	90                   	nop

00002e70 <tinput_history_seek.part.6>:
    2e70:	55                   	push   %ebp
    2e71:	89 e5                	mov    %esp,%ebp
    2e73:	57                   	push   %edi
    2e74:	56                   	push   %esi
    2e75:	53                   	push   %ebx
    2e76:	83 ec 1c             	sub    $0x1c,%esp
    2e79:	89 c3                	mov    %eax,%ebx
    2e7b:	8b b0 5c 10 00 00    	mov    0x105c(%eax),%esi
    2e81:	81 c6 08 04 00 00    	add    $0x408,%esi
    2e87:	8b 44 b0 0c          	mov    0xc(%eax,%esi,4),%eax
    2e8b:	85 c0                	test   %eax,%eax
    2e8d:	74 26                	je     2eb5 <tinput_history_seek.part.6+0x45>
    2e8f:	83 ec 0c             	sub    $0xc,%esp
    2e92:	89 55 e4             	mov    %edx,-0x1c(%ebp)
    2e95:	50                   	push   %eax
    2e96:	e8 45 61 00 00       	call   8fe0 <free@plt>
    2e9b:	8b b3 5c 10 00 00    	mov    0x105c(%ebx),%esi
    2ea1:	83 c4 10             	add    $0x10,%esp
    2ea4:	81 c6 08 04 00 00    	add    $0x408,%esi
    2eaa:	8b 55 e4             	mov    -0x1c(%ebp),%edx
    2ead:	c7 44 b3 0c 00 00 00 	movl   $0x0,0xc(%ebx,%esi,4)
    2eb4:	00 
    2eb5:	83 ec 0c             	sub    $0xc,%esp
    2eb8:	8d 7b 0c             	lea    0xc(%ebx),%edi
    2ebb:	89 55 e4             	mov    %edx,-0x1c(%ebp)
    2ebe:	57                   	push   %edi
    2ebf:	e8 4c 60 00 00       	call   8f10 <wstr_to_astr@plt>
    2ec4:	8b 55 e4             	mov    -0x1c(%ebp),%edx
    2ec7:	89 44 b3 0c          	mov    %eax,0xc(%ebx,%esi,4)
    2ecb:	8b 83 5c 10 00 00    	mov    0x105c(%ebx),%eax
    2ed1:	8b b3 20 10 00 00    	mov    0x1020(%ebx),%esi
    2ed7:	01 c2                	add    %eax,%edx
    2ed9:	58                   	pop    %eax
    2eda:	89 93 5c 10 00 00    	mov    %edx,0x105c(%ebx)
    2ee0:	8b 84 93 2c 10 00 00 	mov    0x102c(%ebx,%edx,4),%eax
    2ee7:	50                   	push   %eax
    2ee8:	e8 73 60 00 00       	call   8f60 <str_length@plt>
    2eed:	29 c6                	sub    %eax,%esi
    2eef:	8b 83 5c 10 00 00    	mov    0x105c(%ebx),%eax
    2ef5:	83 c4 0c             	add    $0xc,%esp
    2ef8:	8b 84 83 2c 10 00 00 	mov    0x102c(%ebx,%eax,4),%eax
    2eff:	50                   	push   %eax
    2f00:	68 00 04 00 00       	push   $0x400
    2f05:	57                   	push   %edi
    2f06:	e8 85 60 00 00       	call   8f90 <str_to_wstr@plt>
    2f0b:	89 3c 24             	mov    %edi,(%esp)
    2f0e:	e8 8d 5d 00 00       	call   8ca0 <wstr_length@plt>
    2f13:	89 f1                	mov    %esi,%ecx
    2f15:	89 83 20 10 00 00    	mov    %eax,0x1020(%ebx)
    2f1b:	89 83 24 10 00 00    	mov    %eax,0x1024(%ebx)
    2f21:	89 83 28 10 00 00    	mov    %eax,0x1028(%ebx)
    2f27:	85 f6                	test   %esi,%esi
    2f29:	78 6d                	js     2f98 <tinput_history_seek.part.6+0x128>
    2f2b:	31 d2                	xor    %edx,%edx
    2f2d:	89 d8                	mov    %ebx,%eax
    2f2f:	e8 5c fd ff ff       	call   2c90 <tinput_display_tail>
    2f34:	8b 8b 14 10 00 00    	mov    0x1014(%ebx),%ecx
    2f3a:	8b 83 20 10 00 00    	mov    0x1020(%ebx),%eax
    2f40:	31 d2                	xor    %edx,%edx
    2f42:	01 c8                	add    %ecx,%eax
    2f44:	8b b3 18 10 00 00    	mov    0x1018(%ebx),%esi
    2f4a:	f7 f6                	div    %esi
    2f4c:	8b 93 1c 10 00 00    	mov    0x101c(%ebx),%edx
    2f52:	83 c4 10             	add    $0x10,%esp
    2f55:	39 d0                	cmp    %edx,%eax
    2f57:	72 1c                	jb     2f75 <tinput_history_seek.part.6+0x105>
    2f59:	29 d0                	sub    %edx,%eax
    2f5b:	8b bb 10 10 00 00    	mov    0x1010(%ebx),%edi
    2f61:	40                   	inc    %eax
    2f62:	0f af c6             	imul   %esi,%eax
    2f65:	29 c1                	sub    %eax,%ecx
    2f67:	29 c7                	sub    %eax,%edi
    2f69:	89 8b 14 10 00 00    	mov    %ecx,0x1014(%ebx)
    2f6f:	89 bb 10 10 00 00    	mov    %edi,0x1010(%ebx)
    2f75:	8b 83 24 10 00 00    	mov    0x1024(%ebx),%eax
    2f7b:	52                   	push   %edx
    2f7c:	01 c8                	add    %ecx,%eax
    2f7e:	31 d2                	xor    %edx,%edx
    2f80:	f7 f6                	div    %esi
    2f82:	8b 0b                	mov    (%ebx),%ecx
    2f84:	50                   	push   %eax
    2f85:	52                   	push   %edx
    2f86:	51                   	push   %ecx
    2f87:	e8 e4 5f 00 00       	call   8f70 <console_set_pos@plt>
    2f8c:	83 c4 10             	add    $0x10,%esp
    2f8f:	8d 65 f4             	lea    -0xc(%ebp),%esp
    2f92:	5b                   	pop    %ebx
    2f93:	5e                   	pop    %esi
    2f94:	5f                   	pop    %edi
    2f95:	5d                   	pop    %ebp
    2f96:	c3                   	ret    
    2f97:	90                   	nop
    2f98:	31 c9                	xor    %ecx,%ecx
    2f9a:	eb 8f                	jmp    2f2b <tinput_history_seek.part.6+0xbb>
    2f9c:	8d 74 26 00          	lea    0x0(%esi,%eiz,1),%esi

00002fa0 <tinput_display_tail.constprop.12>:
    2fa0:	55                   	push   %ebp
    2fa1:	89 e5                	mov    %esp,%ebp
    2fa3:	57                   	push   %edi
    2fa4:	56                   	push   %esi
    2fa5:	53                   	push   %ebx
    2fa6:	83 ec 28             	sub    $0x28,%esp
    2fa9:	89 c3                	mov    %eax,%ebx
    2fab:	89 d6                	mov    %edx,%esi
    2fad:	68 04 10 00 00       	push   $0x1004
    2fb2:	e8 c9 5d 00 00       	call   8d80 <malloc@plt>
    2fb7:	83 c4 10             	add    $0x10,%esp
    2fba:	85 c0                	test   %eax,%eax
    2fbc:	0f 84 96 00 00 00    	je     3058 <tinput_display_tail.constprop.12+0xb8>
    2fc2:	89 c7                	mov    %eax,%edi
    2fc4:	8b 8b 28 10 00 00    	mov    0x1028(%ebx),%ecx
    2fca:	8b 83 24 10 00 00    	mov    0x1024(%ebx),%eax
    2fd0:	89 c2                	mov    %eax,%edx
    2fd2:	89 45 e4             	mov    %eax,-0x1c(%ebp)
    2fd5:	39 c1                	cmp    %eax,%ecx
    2fd7:	0f 83 83 00 00 00    	jae    3060 <tinput_display_tail.constprop.12+0xc0>
    2fdd:	8b 83 14 10 00 00    	mov    0x1014(%ebx),%eax
    2fe3:	31 d2                	xor    %edx,%edx
    2fe5:	01 f0                	add    %esi,%eax
    2fe7:	89 4d e0             	mov    %ecx,-0x20(%ebp)
    2fea:	f7 b3 18 10 00 00    	divl   0x1018(%ebx)
    2ff0:	51                   	push   %ecx
    2ff1:	50                   	push   %eax
    2ff2:	8b 03                	mov    (%ebx),%eax
    2ff4:	52                   	push   %edx
    2ff5:	50                   	push   %eax
    2ff6:	e8 75 5f 00 00       	call   8f70 <console_set_pos@plt>
    2ffb:	8b 0b                	mov    (%ebx),%ecx
    2ffd:	58                   	pop    %eax
    2ffe:	5a                   	pop    %edx
    2fff:	6a 00                	push   $0x0
    3001:	51                   	push   %ecx
    3002:	e8 d9 5e 00 00       	call   8ee0 <console_set_style@plt>
    3007:	8b 4d e0             	mov    -0x20(%ebp),%ecx
    300a:	83 c4 10             	add    $0x10,%esp
    300d:	39 ce                	cmp    %ecx,%esi
    300f:	0f 82 eb 00 00 00    	jb     3100 <tinput_display_tail.constprop.12+0x160>
    3015:	3b 75 e4             	cmp    -0x1c(%ebp),%esi
    3018:	0f 82 8a 00 00 00    	jb     30a8 <tinput_display_tail.constprop.12+0x108>
    301e:	83 ec 0c             	sub    $0xc,%esp
    3021:	8b 03                	mov    (%ebx),%eax
    3023:	50                   	push   %eax
    3024:	e8 17 5f 00 00       	call   8f40 <console_flush@plt>
    3029:	8b 0b                	mov    (%ebx),%ecx
    302b:	58                   	pop    %eax
    302c:	5a                   	pop    %edx
    302d:	6a 00                	push   $0x0
    302f:	51                   	push   %ecx
    3030:	e8 ab 5e 00 00       	call   8ee0 <console_set_style@plt>
    3035:	8b 83 20 10 00 00    	mov    0x1020(%ebx),%eax
    303b:	83 c4 10             	add    $0x10,%esp
    303e:	39 f0                	cmp    %esi,%eax
    3040:	77 2e                	ja     3070 <tinput_display_tail.constprop.12+0xd0>
    3042:	83 ec 0c             	sub    $0xc,%esp
    3045:	8b 03                	mov    (%ebx),%eax
    3047:	50                   	push   %eax
    3048:	e8 f3 5e 00 00       	call   8f40 <console_flush@plt>
    304d:	89 3c 24             	mov    %edi,(%esp)
    3050:	e8 8b 5f 00 00       	call   8fe0 <free@plt>
    3055:	83 c4 10             	add    $0x10,%esp
    3058:	8d 65 f4             	lea    -0xc(%ebp),%esp
    305b:	5b                   	pop    %ebx
    305c:	5e                   	pop    %esi
    305d:	5f                   	pop    %edi
    305e:	5d                   	pop    %ebp
    305f:	c3                   	ret    
    3060:	89 c8                	mov    %ecx,%eax
    3062:	89 d1                	mov    %edx,%ecx
    3064:	89 45 e4             	mov    %eax,-0x1c(%ebp)
    3067:	e9 71 ff ff ff       	jmp    2fdd <tinput_display_tail.constprop.12+0x3d>
    306c:	8d 74 26 00          	lea    0x0(%esi,%eiz,1),%esi
    3070:	29 f0                	sub    %esi,%eax
    3072:	52                   	push   %edx
    3073:	c1 e0 02             	shl    $0x2,%eax
    3076:	50                   	push   %eax
    3077:	8d 44 b3 0c          	lea    0xc(%ebx,%esi,4),%eax
    307b:	50                   	push   %eax
    307c:	57                   	push   %edi
    307d:	e8 de 5c 00 00       	call   8d60 <memcpy@plt>
    3082:	8b 83 20 10 00 00    	mov    0x1020(%ebx),%eax
    3088:	29 f0                	sub    %esi,%eax
    308a:	c7 04 87 00 00 00 00 	movl   $0x0,(%edi,%eax,4)
    3091:	59                   	pop    %ecx
    3092:	5e                   	pop    %esi
    3093:	57                   	push   %edi
    3094:	68 bf 85 00 00       	push   $0x85bf
    3099:	e8 12 5c 00 00       	call   8cb0 <printf@plt>
    309e:	83 c4 10             	add    $0x10,%esp
    30a1:	eb 9f                	jmp    3042 <tinput_display_tail.constprop.12+0xa2>
    30a3:	90                   	nop
    30a4:	8d 74 26 00          	lea    0x0(%esi,%eiz,1),%esi
    30a8:	83 ec 0c             	sub    $0xc,%esp
    30ab:	8b 03                	mov    (%ebx),%eax
    30ad:	50                   	push   %eax
    30ae:	e8 8d 5e 00 00       	call   8f40 <console_flush@plt>
    30b3:	8b 0b                	mov    (%ebx),%ecx
    30b5:	58                   	pop    %eax
    30b6:	5a                   	pop    %edx
    30b7:	6a 03                	push   $0x3
    30b9:	51                   	push   %ecx
    30ba:	e8 21 5e 00 00       	call   8ee0 <console_set_style@plt>
    30bf:	8b 55 e4             	mov    -0x1c(%ebp),%edx
    30c2:	83 c4 0c             	add    $0xc,%esp
    30c5:	29 f2                	sub    %esi,%edx
    30c7:	8d 44 b3 0c          	lea    0xc(%ebx,%esi,4),%eax
    30cb:	c1 e2 02             	shl    $0x2,%edx
    30ce:	52                   	push   %edx
    30cf:	89 55 e0             	mov    %edx,-0x20(%ebp)
    30d2:	50                   	push   %eax
    30d3:	57                   	push   %edi
    30d4:	e8 87 5c 00 00       	call   8d60 <memcpy@plt>
    30d9:	8b 55 e0             	mov    -0x20(%ebp),%edx
    30dc:	c7 04 17 00 00 00 00 	movl   $0x0,(%edi,%edx,1)
    30e3:	5e                   	pop    %esi
    30e4:	58                   	pop    %eax
    30e5:	57                   	push   %edi
    30e6:	68 bf 85 00 00       	push   $0x85bf
    30eb:	e8 c0 5b 00 00       	call   8cb0 <printf@plt>
    30f0:	83 c4 10             	add    $0x10,%esp
    30f3:	8b 75 e4             	mov    -0x1c(%ebp),%esi
    30f6:	e9 23 ff ff ff       	jmp    301e <tinput_display_tail.constprop.12+0x7e>
    30fb:	90                   	nop
    30fc:	8d 74 26 00          	lea    0x0(%esi,%eiz,1),%esi
    3100:	89 ca                	mov    %ecx,%edx
    3102:	50                   	push   %eax
    3103:	29 f2                	sub    %esi,%edx
    3105:	8d 44 b3 0c          	lea    0xc(%ebx,%esi,4),%eax
    3109:	c1 e2 02             	shl    $0x2,%edx
    310c:	89 4d dc             	mov    %ecx,-0x24(%ebp)
    310f:	52                   	push   %edx
    3110:	89 55 e0             	mov    %edx,-0x20(%ebp)
    3113:	50                   	push   %eax
    3114:	57                   	push   %edi
    3115:	e8 46 5c 00 00       	call   8d60 <memcpy@plt>
    311a:	8b 55 e0             	mov    -0x20(%ebp),%edx
    311d:	c7 04 17 00 00 00 00 	movl   $0x0,(%edi,%edx,1)
    3124:	58                   	pop    %eax
    3125:	5a                   	pop    %edx
    3126:	57                   	push   %edi
    3127:	68 bf 85 00 00       	push   $0x85bf
    312c:	e8 7f 5b 00 00       	call   8cb0 <printf@plt>
    3131:	8b 4d dc             	mov    -0x24(%ebp),%ecx
    3134:	83 c4 10             	add    $0x10,%esp
    3137:	89 ce                	mov    %ecx,%esi
    3139:	e9 d7 fe ff ff       	jmp    3015 <tinput_display_tail.constprop.12+0x75>
    313e:	66 90                	xchg   %ax,%ax

00003140 <tinput_insert_string>:
    3140:	55                   	push   %ebp
    3141:	89 e5                	mov    %esp,%ebp
    3143:	57                   	push   %edi
    3144:	56                   	push   %esi
    3145:	53                   	push   %ebx
    3146:	83 ec 38             	sub    $0x38,%esp
    3149:	89 c6                	mov    %eax,%esi
    314b:	89 55 d0             	mov    %edx,-0x30(%ebp)
    314e:	bb 00 04 00 00       	mov    $0x400,%ebx
    3153:	52                   	push   %edx
    3154:	e8 07 5e 00 00       	call   8f60 <str_length@plt>
    3159:	8b 96 20 10 00 00    	mov    0x1020(%esi),%edx
    315f:	83 c4 10             	add    $0x10,%esp
    3162:	29 d3                	sub    %edx,%ebx
    3164:	39 d8                	cmp    %ebx,%eax
    3166:	0f 82 24 01 00 00    	jb     3290 <tinput_insert_string+0x150>
    316c:	85 db                	test   %ebx,%ebx
    316e:	74 28                	je     3198 <tinput_insert_string+0x58>
    3170:	8b be 18 10 00 00    	mov    0x1018(%esi),%edi
    3176:	31 d2                	xor    %edx,%edx
    3178:	8b 86 14 10 00 00    	mov    0x1014(%esi),%eax
    317e:	8b 8e 20 10 00 00    	mov    0x1020(%esi),%ecx
    3184:	f7 f7                	div    %edi
    3186:	8d 04 0a             	lea    (%edx,%ecx,1),%eax
    3189:	31 d2                	xor    %edx,%edx
    318b:	01 d8                	add    %ebx,%eax
    318d:	f7 f7                	div    %edi
    318f:	40                   	inc    %eax
    3190:	3b 86 1c 10 00 00    	cmp    0x101c(%esi),%eax
    3196:	72 08                	jb     31a0 <tinput_insert_string+0x60>
    3198:	8d 65 f4             	lea    -0xc(%ebp),%esp
    319b:	5b                   	pop    %ebx
    319c:	5e                   	pop    %esi
    319d:	5f                   	pop    %edi
    319e:	5d                   	pop    %ebp
    319f:	c3                   	ret    
    31a0:	85 c9                	test   %ecx,%ecx
    31a2:	0f 85 00 01 00 00    	jne    32a8 <tinput_insert_string+0x168>
    31a8:	89 5d d4             	mov    %ebx,-0x2c(%ebp)
    31ab:	c7 45 e4 00 00 00 00 	movl   $0x0,-0x1c(%ebp)
    31b2:	31 ff                	xor    %edi,%edi
    31b4:	8b 5d d0             	mov    -0x30(%ebp),%ebx
    31b7:	eb 28                	jmp    31e1 <tinput_insert_string+0xa1>
    31b9:	8d b4 26 00 00 00 00 	lea    0x0(%esi,%eiz,1),%esi
    31c0:	8b 96 24 10 00 00    	mov    0x1024(%esi),%edx
    31c6:	83 f8 20             	cmp    $0x20,%eax
    31c9:	8d 0c 3a             	lea    (%edx,%edi,1),%ecx
    31cc:	7d 05                	jge    31d3 <tinput_insert_string+0x93>
    31ce:	b8 20 00 00 00       	mov    $0x20,%eax
    31d3:	47                   	inc    %edi
    31d4:	89 44 8e 0c          	mov    %eax,0xc(%esi,%ecx,4)
    31d8:	39 7d d4             	cmp    %edi,-0x2c(%ebp)
    31db:	0f 84 f0 00 00 00    	je     32d1 <tinput_insert_string+0x191>
    31e1:	50                   	push   %eax
    31e2:	8d 45 e4             	lea    -0x1c(%ebp),%eax
    31e5:	6a ff                	push   $0xffffffff
    31e7:	50                   	push   %eax
    31e8:	53                   	push   %ebx
    31e9:	e8 22 5b 00 00       	call   8d10 <str_decode@plt>
    31ee:	83 c4 10             	add    $0x10,%esp
    31f1:	85 c0                	test   %eax,%eax
    31f3:	75 cb                	jne    31c0 <tinput_insert_string+0x80>
    31f5:	8b 5d d4             	mov    -0x2c(%ebp),%ebx
    31f8:	8b 96 24 10 00 00    	mov    0x1024(%esi),%edx
    31fe:	8b 8e 20 10 00 00    	mov    0x1020(%esi),%ecx
    3204:	8d 04 13             	lea    (%ebx,%edx,1),%eax
    3207:	01 cb                	add    %ecx,%ebx
    3209:	89 86 24 10 00 00    	mov    %eax,0x1024(%esi)
    320f:	89 9e 20 10 00 00    	mov    %ebx,0x1020(%esi)
    3215:	c7 44 9e 0c 00 00 00 	movl   $0x0,0xc(%esi,%ebx,4)
    321c:	00 
    321d:	89 86 28 10 00 00    	mov    %eax,0x1028(%esi)
    3223:	89 f0                	mov    %esi,%eax
    3225:	e8 76 fd ff ff       	call   2fa0 <tinput_display_tail.constprop.12>
    322a:	8b 8e 14 10 00 00    	mov    0x1014(%esi),%ecx
    3230:	8b 86 20 10 00 00    	mov    0x1020(%esi),%eax
    3236:	31 d2                	xor    %edx,%edx
    3238:	01 c8                	add    %ecx,%eax
    323a:	8b 9e 18 10 00 00    	mov    0x1018(%esi),%ebx
    3240:	f7 f3                	div    %ebx
    3242:	8b 96 1c 10 00 00    	mov    0x101c(%esi),%edx
    3248:	39 d0                	cmp    %edx,%eax
    324a:	72 1c                	jb     3268 <tinput_insert_string+0x128>
    324c:	29 d0                	sub    %edx,%eax
    324e:	8b be 10 10 00 00    	mov    0x1010(%esi),%edi
    3254:	40                   	inc    %eax
    3255:	0f af c3             	imul   %ebx,%eax
    3258:	29 c1                	sub    %eax,%ecx
    325a:	29 c7                	sub    %eax,%edi
    325c:	89 8e 14 10 00 00    	mov    %ecx,0x1014(%esi)
    3262:	89 be 10 10 00 00    	mov    %edi,0x1010(%esi)
    3268:	8b 86 24 10 00 00    	mov    0x1024(%esi),%eax
    326e:	52                   	push   %edx
    326f:	01 c8                	add    %ecx,%eax
    3271:	31 d2                	xor    %edx,%edx
    3273:	f7 f3                	div    %ebx
    3275:	8b 0e                	mov    (%esi),%ecx
    3277:	50                   	push   %eax
    3278:	52                   	push   %edx
    3279:	51                   	push   %ecx
    327a:	e8 f1 5c 00 00       	call   8f70 <console_set_pos@plt>
    327f:	83 c4 10             	add    $0x10,%esp
    3282:	8d 65 f4             	lea    -0xc(%ebp),%esp
    3285:	5b                   	pop    %ebx
    3286:	5e                   	pop    %esi
    3287:	5f                   	pop    %edi
    3288:	5d                   	pop    %ebp
    3289:	c3                   	ret    
    328a:	8d b6 00 00 00 00    	lea    0x0(%esi),%esi
    3290:	83 ec 0c             	sub    $0xc,%esp
    3293:	8b 45 d0             	mov    -0x30(%ebp),%eax
    3296:	50                   	push   %eax
    3297:	e8 c4 5c 00 00       	call   8f60 <str_length@plt>
    329c:	83 c4 10             	add    $0x10,%esp
    329f:	89 c3                	mov    %eax,%ebx
    32a1:	e9 c6 fe ff ff       	jmp    316c <tinput_insert_string+0x2c>
    32a6:	66 90                	xchg   %ax,%ax
    32a8:	8b 96 24 10 00 00    	mov    0x1024(%esi),%edx
    32ae:	39 d1                	cmp    %edx,%ecx
    32b0:	0f 86 f2 fe ff ff    	jbe    31a8 <tinput_insert_string+0x68>
    32b6:	8d 44 8e 08          	lea    0x8(%esi,%ecx,4),%eax
    32ba:	8d 4c 96 08          	lea    0x8(%esi,%edx,4),%ecx
    32be:	66 90                	xchg   %ax,%ax
    32c0:	8b 10                	mov    (%eax),%edx
    32c2:	89 14 98             	mov    %edx,(%eax,%ebx,4)
    32c5:	83 e8 04             	sub    $0x4,%eax
    32c8:	39 c1                	cmp    %eax,%ecx
    32ca:	75 f4                	jne    32c0 <tinput_insert_string+0x180>
    32cc:	e9 d7 fe ff ff       	jmp    31a8 <tinput_insert_string+0x68>
    32d1:	8b 5d d4             	mov    -0x2c(%ebp),%ebx
    32d4:	e9 25 ff ff ff       	jmp    31fe <tinput_insert_string+0xbe>
    32d9:	8d b4 26 00 00 00 00 	lea    0x0(%esi,%eiz,1),%esi

000032e0 <tinput_display>:
    32e0:	55                   	push   %ebp
    32e1:	89 e5                	mov    %esp,%ebp
    32e3:	57                   	push   %edi
    32e4:	56                   	push   %esi
    32e5:	53                   	push   %ebx
    32e6:	83 ec 20             	sub    $0x20,%esp
    32e9:	89 c3                	mov    %eax,%ebx
    32eb:	8d 45 e4             	lea    -0x1c(%ebp),%eax
    32ee:	50                   	push   %eax
    32ef:	8d 45 e0             	lea    -0x20(%ebp),%eax
    32f2:	50                   	push   %eax
    32f3:	8b 03                	mov    (%ebx),%eax
    32f5:	50                   	push   %eax
    32f6:	e8 f5 59 00 00       	call   8cf0 <console_get_pos@plt>
    32fb:	83 c4 10             	add    $0x10,%esp
    32fe:	85 c0                	test   %eax,%eax
    3300:	0f 85 b2 00 00 00    	jne    33b8 <tinput_display+0xd8>
    3306:	8b b3 18 10 00 00    	mov    0x1018(%ebx),%esi
    330c:	89 c7                	mov    %eax,%edi
    330e:	8b 45 e4             	mov    -0x1c(%ebp),%eax
    3311:	8b 55 e0             	mov    -0x20(%ebp),%edx
    3314:	0f af f0             	imul   %eax,%esi
    3317:	83 ec 0c             	sub    $0xc,%esp
    331a:	01 d6                	add    %edx,%esi
    331c:	8b 4b 04             	mov    0x4(%ebx),%ecx
    331f:	89 b3 10 10 00 00    	mov    %esi,0x1010(%ebx)
    3325:	51                   	push   %ecx
    3326:	e8 35 5c 00 00       	call   8f60 <str_length@plt>
    332b:	83 c4 0c             	add    $0xc,%esp
    332e:	01 c6                	add    %eax,%esi
    3330:	31 d2                	xor    %edx,%edx
    3332:	8b 83 10 10 00 00    	mov    0x1010(%ebx),%eax
    3338:	f7 b3 18 10 00 00    	divl   0x1018(%ebx)
    333e:	89 b3 14 10 00 00    	mov    %esi,0x1014(%ebx)
    3344:	8b 33                	mov    (%ebx),%esi
    3346:	50                   	push   %eax
    3347:	52                   	push   %edx
    3348:	56                   	push   %esi
    3349:	e8 22 5c 00 00       	call   8f70 <console_set_pos@plt>
    334e:	8b 0b                	mov    (%ebx),%ecx
    3350:	58                   	pop    %eax
    3351:	5a                   	pop    %edx
    3352:	6a 01                	push   $0x1
    3354:	51                   	push   %ecx
    3355:	e8 86 5b 00 00       	call   8ee0 <console_set_style@plt>
    335a:	5e                   	pop    %esi
    335b:	58                   	pop    %eax
    335c:	8b 43 04             	mov    0x4(%ebx),%eax
    335f:	50                   	push   %eax
    3360:	68 98 82 00 00       	push   $0x8298
    3365:	e8 46 59 00 00       	call   8cb0 <printf@plt>
    336a:	58                   	pop    %eax
    336b:	8b 03                	mov    (%ebx),%eax
    336d:	50                   	push   %eax
    336e:	e8 cd 5b 00 00       	call   8f40 <console_flush@plt>
    3373:	8b 0b                	mov    (%ebx),%ecx
    3375:	58                   	pop    %eax
    3376:	5a                   	pop    %edx
    3377:	6a 00                	push   $0x0
    3379:	51                   	push   %ecx
    337a:	e8 61 5b 00 00       	call   8ee0 <console_set_style@plt>
    337f:	31 d2                	xor    %edx,%edx
    3381:	89 d8                	mov    %ebx,%eax
    3383:	e8 18 fc ff ff       	call   2fa0 <tinput_display_tail.constprop.12>
    3388:	8b 83 24 10 00 00    	mov    0x1024(%ebx),%eax
    338e:	8b b3 14 10 00 00    	mov    0x1014(%ebx),%esi
    3394:	83 c4 0c             	add    $0xc,%esp
    3397:	01 f0                	add    %esi,%eax
    3399:	31 d2                	xor    %edx,%edx
    339b:	f7 b3 18 10 00 00    	divl   0x1018(%ebx)
    33a1:	50                   	push   %eax
    33a2:	8b 03                	mov    (%ebx),%eax
    33a4:	52                   	push   %edx
    33a5:	50                   	push   %eax
    33a6:	e8 c5 5b 00 00       	call   8f70 <console_set_pos@plt>
    33ab:	83 c4 10             	add    $0x10,%esp
    33ae:	8d 65 f4             	lea    -0xc(%ebp),%esp
    33b1:	89 f8                	mov    %edi,%eax
    33b3:	5b                   	pop    %ebx
    33b4:	5e                   	pop    %esi
    33b5:	5f                   	pop    %edi
    33b6:	5d                   	pop    %ebp
    33b7:	c3                   	ret    
    33b8:	bf f6 fe ff ff       	mov    $0xfffffef6,%edi
    33bd:	eb ef                	jmp    33ae <tinput_display+0xce>
    33bf:	90                   	nop

000033c0 <tinput_new>:
    33c0:	55                   	push   %ebp
    33c1:	89 e5                	mov    %esp,%ebp
    33c3:	53                   	push   %ebx
    33c4:	83 ec 0c             	sub    $0xc,%esp
    33c7:	68 64 10 00 00       	push   $0x1064
    33cc:	6a 01                	push   $0x1
    33ce:	e8 6d 5a 00 00       	call   8e40 <calloc@plt>
    33d3:	83 c4 10             	add    $0x10,%esp
    33d6:	89 c3                	mov    %eax,%ebx
    33d8:	85 c0                	test   %eax,%eax
    33da:	74 38                	je     3414 <tinput_new+0x54>
    33dc:	8b 15 60 aa 00 00    	mov    0xaa60,%edx
    33e2:	8b 0d 70 aa 00 00    	mov    0xaa70,%ecx
    33e8:	50                   	push   %eax
    33e9:	50                   	push   %eax
    33ea:	52                   	push   %edx
    33eb:	51                   	push   %ecx
    33ec:	e8 0f 5a 00 00       	call   8e00 <console_init@plt>
    33f1:	c7 83 58 10 00 00 00 	movl   $0x0,0x1058(%ebx)
    33f8:	00 00 00 
    33fb:	89 03                	mov    %eax,(%ebx)
    33fd:	c7 83 5c 10 00 00 00 	movl   $0x0,0x105c(%ebx)
    3404:	00 00 00 
    3407:	c7 83 2c 10 00 00 00 	movl   $0x0,0x102c(%ebx)
    340e:	00 00 00 
    3411:	83 c4 10             	add    $0x10,%esp
    3414:	89 d8                	mov    %ebx,%eax
    3416:	8b 5d fc             	mov    -0x4(%ebp),%ebx
    3419:	c9                   	leave  
    341a:	c3                   	ret    
    341b:	90                   	nop
    341c:	8d 74 26 00          	lea    0x0(%esi,%eiz,1),%esi

00003420 <tinput_destroy>:
    3420:	55                   	push   %ebp
    3421:	89 e5                	mov    %esp,%ebp
    3423:	53                   	push   %ebx
    3424:	50                   	push   %eax
    3425:	8b 5d 08             	mov    0x8(%ebp),%ebx
    3428:	8b 43 04             	mov    0x4(%ebx),%eax
    342b:	85 c0                	test   %eax,%eax
    342d:	74 0c                	je     343b <tinput_destroy+0x1b>
    342f:	83 ec 0c             	sub    $0xc,%esp
    3432:	50                   	push   %eax
    3433:	e8 a8 5b 00 00       	call   8fe0 <free@plt>
    3438:	83 c4 10             	add    $0x10,%esp
    343b:	89 5d 08             	mov    %ebx,0x8(%ebp)
    343e:	8b 5d fc             	mov    -0x4(%ebp),%ebx
    3441:	c9                   	leave  
    3442:	e9 99 5b 00 00       	jmp    8fe0 <free@plt>
    3447:	89 f6                	mov    %esi,%esi
    3449:	8d bc 27 00 00 00 00 	lea    0x0(%edi,%eiz,1),%edi

00003450 <tinput_set_prompt>:
    3450:	55                   	push   %ebp
    3451:	89 e5                	mov    %esp,%ebp
    3453:	53                   	push   %ebx
    3454:	52                   	push   %edx
    3455:	8b 5d 08             	mov    0x8(%ebp),%ebx
    3458:	8b 43 04             	mov    0x4(%ebx),%eax
    345b:	85 c0                	test   %eax,%eax
    345d:	74 0c                	je     346b <tinput_set_prompt+0x1b>
    345f:	83 ec 0c             	sub    $0xc,%esp
    3462:	50                   	push   %eax
    3463:	e8 78 5b 00 00       	call   8fe0 <free@plt>
    3468:	83 c4 10             	add    $0x10,%esp
    346b:	83 ec 0c             	sub    $0xc,%esp
    346e:	8b 45 0c             	mov    0xc(%ebp),%eax
    3471:	50                   	push   %eax
    3472:	e8 09 5a 00 00       	call   8e80 <str_dup@plt>
    3477:	83 c4 10             	add    $0x10,%esp
    347a:	83 f8 01             	cmp    $0x1,%eax
    347d:	89 43 04             	mov    %eax,0x4(%ebx)
    3480:	8b 5d fc             	mov    -0x4(%ebp),%ebx
    3483:	19 c0                	sbb    %eax,%eax
    3485:	c9                   	leave  
    3486:	83 e0 fe             	and    $0xfffffffe,%eax
    3489:	c3                   	ret    
    348a:	8d b6 00 00 00 00    	lea    0x0(%esi),%esi

00003490 <tinput_set_compl_ops>:
    3490:	55                   	push   %ebp
    3491:	89 e5                	mov    %esp,%ebp
    3493:	8b 45 08             	mov    0x8(%ebp),%eax
    3496:	8b 55 0c             	mov    0xc(%ebp),%edx
    3499:	89 50 08             	mov    %edx,0x8(%eax)
    349c:	5d                   	pop    %ebp
    349d:	c3                   	ret    
    349e:	66 90                	xchg   %ax,%ax

000034a0 <tinput_read_i>:
    34a0:	55                   	push   %ebp
    34a1:	89 e5                	mov    %esp,%ebp
    34a3:	57                   	push   %edi
    34a4:	56                   	push   %esi
    34a5:	53                   	push   %ebx
    34a6:	81 ec 88 00 00 00    	sub    $0x88,%esp
    34ac:	8b 7d 08             	mov    0x8(%ebp),%edi
    34af:	8b 07                	mov    (%edi),%eax
    34b1:	50                   	push   %eax
    34b2:	e8 89 5a 00 00       	call   8f40 <console_flush@plt>
    34b7:	83 c4 0c             	add    $0xc,%esp
    34ba:	8d 87 1c 10 00 00    	lea    0x101c(%edi),%eax
    34c0:	50                   	push   %eax
    34c1:	8d 87 18 10 00 00    	lea    0x1018(%edi),%eax
    34c7:	50                   	push   %eax
    34c8:	8b 07                	mov    (%edi),%eax
    34ca:	50                   	push   %eax
    34cb:	e8 70 57 00 00       	call   8c40 <console_get_size@plt>
    34d0:	83 c4 10             	add    $0x10,%esp
    34d3:	85 c0                	test   %eax,%eax
    34d5:	0f 85 e5 03 00 00    	jne    38c0 <tinput_read_i+0x420>
    34db:	8d 47 0c             	lea    0xc(%edi),%eax
    34de:	56                   	push   %esi
    34df:	89 c3                	mov    %eax,%ebx
    34e1:	89 45 a0             	mov    %eax,-0x60(%ebp)
    34e4:	8b 45 0c             	mov    0xc(%ebp),%eax
    34e7:	50                   	push   %eax
    34e8:	68 00 04 00 00       	push   $0x400
    34ed:	53                   	push   %ebx
    34ee:	e8 9d 5a 00 00       	call   8f90 <str_to_wstr@plt>
    34f3:	89 1c 24             	mov    %ebx,(%esp)
    34f6:	e8 a5 57 00 00       	call   8ca0 <wstr_length@plt>
    34fb:	c7 87 28 10 00 00 00 	movl   $0x0,0x1028(%edi)
    3502:	00 00 00 
    3505:	89 87 20 10 00 00    	mov    %eax,0x1020(%edi)
    350b:	89 87 24 10 00 00    	mov    %eax,0x1024(%edi)
    3511:	c6 87 60 10 00 00 00 	movb   $0x0,0x1060(%edi)
    3518:	c6 87 61 10 00 00 00 	movb   $0x0,0x1061(%edi)
    351f:	89 f8                	mov    %edi,%eax
    3521:	e8 ba fd ff ff       	call   32e0 <tinput_display>
    3526:	83 c4 10             	add    $0x10,%esp
    3529:	89 45 a4             	mov    %eax,-0x5c(%ebp)
    352c:	85 c0                	test   %eax,%eax
    352e:	0f 85 8c 03 00 00    	jne    38c0 <tinput_read_i+0x420>
    3534:	8d 5d c4             	lea    -0x3c(%ebp),%ebx
    3537:	90                   	nop
    3538:	80 bf 60 10 00 00 00 	cmpb   $0x0,0x1060(%edi)
    353f:	0f 85 03 01 00 00    	jne    3648 <tinput_read_i+0x1a8>
    3545:	83 ec 0c             	sub    $0xc,%esp
    3548:	8b 07                	mov    (%edi),%eax
    354a:	50                   	push   %eax
    354b:	e8 f0 59 00 00       	call   8f40 <console_flush@plt>
    3550:	8b 0f                	mov    (%edi),%ecx
    3552:	58                   	pop    %eax
    3553:	5a                   	pop    %edx
    3554:	53                   	push   %ebx
    3555:	51                   	push   %ecx
    3556:	e8 65 58 00 00       	call   8dc0 <console_get_event@plt>
    355b:	83 c4 10             	add    $0x10,%esp
    355e:	84 c0                	test   %al,%al
    3560:	0f 84 5a 03 00 00    	je     38c0 <tinput_read_i+0x420>
    3566:	8b 45 cc             	mov    -0x34(%ebp),%eax
    3569:	85 c0                	test   %eax,%eax
    356b:	0f 84 57 01 00 00    	je     36c8 <tinput_read_i+0x228>
    3571:	48                   	dec    %eax
    3572:	75 c4                	jne    3538 <tinput_read_i+0x98>
    3574:	83 7d d4 01          	cmpl   $0x1,-0x2c(%ebp)
    3578:	75 be                	jne    3538 <tinput_read_i+0x98>
    357a:	8b 45 dc             	mov    -0x24(%ebp),%eax
    357d:	66 8b b7 62 10 00 00 	mov    0x1062(%edi),%si
    3584:	89 45 98             	mov    %eax,-0x68(%ebp)
    3587:	8b 87 24 10 00 00    	mov    0x1024(%edi),%eax
    358d:	8b 4d e0             	mov    -0x20(%ebp),%ecx
    3590:	39 87 28 10 00 00    	cmp    %eax,0x1028(%edi)
    3596:	74 3e                	je     35d6 <tinput_read_i+0x136>
    3598:	66 85 f6             	test   %si,%si
    359b:	75 39                	jne    35d6 <tinput_read_i+0x136>
    359d:	89 87 28 10 00 00    	mov    %eax,0x1028(%edi)
    35a3:	31 d2                	xor    %edx,%edx
    35a5:	89 f8                	mov    %edi,%eax
    35a7:	89 4d 9c             	mov    %ecx,-0x64(%ebp)
    35aa:	e8 f1 f9 ff ff       	call   2fa0 <tinput_display_tail.constprop.12>
    35af:	8b 97 14 10 00 00    	mov    0x1014(%edi),%edx
    35b5:	8b 87 24 10 00 00    	mov    0x1024(%edi),%eax
    35bb:	51                   	push   %ecx
    35bc:	01 d0                	add    %edx,%eax
    35be:	31 d2                	xor    %edx,%edx
    35c0:	f7 b7 18 10 00 00    	divl   0x1018(%edi)
    35c6:	50                   	push   %eax
    35c7:	8b 07                	mov    (%edi),%eax
    35c9:	52                   	push   %edx
    35ca:	50                   	push   %eax
    35cb:	e8 a0 59 00 00       	call   8f70 <console_set_pos@plt>
    35d0:	83 c4 10             	add    $0x10,%esp
    35d3:	8b 4d 9c             	mov    -0x64(%ebp),%ecx
    35d6:	8b 87 18 10 00 00    	mov    0x1018(%edi),%eax
    35dc:	8b 55 98             	mov    -0x68(%ebp),%edx
    35df:	0f af c8             	imul   %eax,%ecx
    35e2:	01 ca                	add    %ecx,%edx
    35e4:	8b 8f 14 10 00 00    	mov    0x1014(%edi),%ecx
    35ea:	89 45 9c             	mov    %eax,-0x64(%ebp)
    35ed:	39 ca                	cmp    %ecx,%edx
    35ef:	0f 86 1a 04 00 00    	jbe    3a0f <tinput_read_i+0x56f>
    35f5:	29 ca                	sub    %ecx,%edx
    35f7:	8b 87 20 10 00 00    	mov    0x1020(%edi),%eax
    35fd:	89 97 24 10 00 00    	mov    %edx,0x1024(%edi)
    3603:	39 c2                	cmp    %eax,%edx
    3605:	0f 86 4d 17 00 00    	jbe    4d58 <tinput_read_i+0x18b8>
    360b:	89 87 24 10 00 00    	mov    %eax,0x1024(%edi)
    3611:	66 85 f6             	test   %si,%si
    3614:	0f 85 b5 05 00 00    	jne    3bcf <tinput_read_i+0x72f>
    361a:	89 87 28 10 00 00    	mov    %eax,0x1028(%edi)
    3620:	01 c8                	add    %ecx,%eax
    3622:	31 d2                	xor    %edx,%edx
    3624:	f7 75 9c             	divl   -0x64(%ebp)
    3627:	56                   	push   %esi
    3628:	8b 0f                	mov    (%edi),%ecx
    362a:	50                   	push   %eax
    362b:	52                   	push   %edx
    362c:	51                   	push   %ecx
    362d:	e8 3e 59 00 00       	call   8f70 <console_set_pos@plt>
    3632:	83 c4 10             	add    $0x10,%esp
    3635:	80 bf 60 10 00 00 00 	cmpb   $0x0,0x1060(%edi)
    363c:	0f 84 03 ff ff ff    	je     3545 <tinput_read_i+0xa5>
    3642:	8d b6 00 00 00 00    	lea    0x0(%esi),%esi
    3648:	80 bf 61 10 00 00 00 	cmpb   $0x0,0x1061(%edi)
    364f:	0f 85 7f 11 00 00    	jne    47d4 <tinput_read_i+0x1334>
    3655:	8b 87 20 10 00 00    	mov    0x1020(%edi),%eax
    365b:	8b 97 14 10 00 00    	mov    0x1014(%edi),%edx
    3661:	89 87 24 10 00 00    	mov    %eax,0x1024(%edi)
    3667:	01 d0                	add    %edx,%eax
    3669:	51                   	push   %ecx
    366a:	31 d2                	xor    %edx,%edx
    366c:	f7 b7 18 10 00 00    	divl   0x1018(%edi)
    3672:	8b 1f                	mov    (%edi),%ebx
    3674:	50                   	push   %eax
    3675:	52                   	push   %edx
    3676:	53                   	push   %ebx
    3677:	e8 f4 58 00 00       	call   8f70 <console_set_pos@plt>
    367c:	c7 04 24 0a 00 00 00 	movl   $0xa,(%esp)
    3683:	e8 c8 55 00 00       	call   8c50 <putchar@plt>
    3688:	8b 45 a0             	mov    -0x60(%ebp),%eax
    368b:	5e                   	pop    %esi
    368c:	50                   	push   %eax
    368d:	e8 7e 58 00 00       	call   8f10 <wstr_to_astr@plt>
    3692:	89 c3                	mov    %eax,%ebx
    3694:	58                   	pop    %eax
    3695:	5a                   	pop    %edx
    3696:	68 7f 80 00 00       	push   $0x807f
    369b:	53                   	push   %ebx
    369c:	e8 1f 58 00 00       	call   8ec0 <str_cmp@plt>
    36a1:	83 c4 10             	add    $0x10,%esp
    36a4:	85 c0                	test   %eax,%eax
    36a6:	0f 85 c0 03 00 00    	jne    3a6c <tinput_read_i+0x5cc>
    36ac:	8b 45 10             	mov    0x10(%ebp),%eax
    36af:	c7 87 5c 10 00 00 00 	movl   $0x0,0x105c(%edi)
    36b6:	00 00 00 
    36b9:	89 18                	mov    %ebx,(%eax)
    36bb:	8b 45 a4             	mov    -0x5c(%ebp),%eax
    36be:	8d 65 f4             	lea    -0xc(%ebp),%esp
    36c1:	5b                   	pop    %ebx
    36c2:	5e                   	pop    %esi
    36c3:	5f                   	pop    %edi
    36c4:	5d                   	pop    %ebp
    36c5:	c3                   	ret    
    36c6:	66 90                	xchg   %ax,%ax
    36c8:	8b 45 d8             	mov    -0x28(%ebp),%eax
    36cb:	85 c0                	test   %eax,%eax
    36cd:	74 21                	je     36f0 <tinput_read_i+0x250>
    36cf:	8b 45 dc             	mov    -0x24(%ebp),%eax
    36d2:	83 f8 2b             	cmp    $0x2b,%eax
    36d5:	0f 84 d5 01 00 00    	je     38b0 <tinput_read_i+0x410>
    36db:	83 f8 36             	cmp    $0x36,%eax
    36de:	0f 85 54 fe ff ff    	jne    3538 <tinput_read_i+0x98>
    36e4:	c6 87 63 10 00 00 00 	movb   $0x0,0x1063(%edi)
    36eb:	e9 48 fe ff ff       	jmp    3538 <tinput_read_i+0x98>
    36f0:	8b 55 dc             	mov    -0x24(%ebp),%edx
    36f3:	83 fa 2b             	cmp    $0x2b,%edx
    36f6:	0f 84 fc 02 00 00    	je     39f8 <tinput_read_i+0x558>
    36fc:	83 fa 36             	cmp    $0x36,%edx
    36ff:	0f 84 d3 01 00 00    	je     38d8 <tinput_read_i+0x438>
    3705:	8b 45 e0             	mov    -0x20(%ebp),%eax
    3708:	a8 0c                	test   $0xc,%al
    370a:	74 08                	je     3714 <tinput_read_i+0x274>
    370c:	a8 33                	test   $0x33,%al
    370e:	0f 84 2f 03 00 00    	je     3a43 <tinput_read_i+0x5a3>
    3714:	a8 03                	test   $0x3,%al
    3716:	74 10                	je     3728 <tinput_read_i+0x288>
    3718:	a8 3c                	test   $0x3c,%al
    371a:	0f 84 36 03 00 00    	je     3a56 <tinput_read_i+0x5b6>
    3720:	a8 0c                	test   $0xc,%al
    3722:	0f 85 1f 02 00 00    	jne    3947 <tinput_read_i+0x4a7>
    3728:	a8 3f                	test   $0x3f,%al
    372a:	0f 84 b0 02 00 00    	je     39e0 <tinput_read_i+0x540>
    3730:	8b 75 e4             	mov    -0x1c(%ebp),%esi
    3733:	83 fe 1f             	cmp    $0x1f,%esi
    3736:	0f 8e fc fd ff ff    	jle    3538 <tinput_read_i+0x98>
    373c:	8b 97 28 10 00 00    	mov    0x1028(%edi),%edx
    3742:	8b 8f 24 10 00 00    	mov    0x1024(%edi),%ecx
    3748:	39 ca                	cmp    %ecx,%edx
    374a:	0f 83 d0 02 00 00    	jae    3a20 <tinput_read_i+0x580>
    3750:	56                   	push   %esi
    3751:	8b 75 a0             	mov    -0x60(%ebp),%esi
    3754:	8b 87 20 10 00 00    	mov    0x1020(%edi),%eax
    375a:	89 4d 98             	mov    %ecx,-0x68(%ebp)
    375d:	29 c8                	sub    %ecx,%eax
    375f:	89 55 9c             	mov    %edx,-0x64(%ebp)
    3762:	c1 e0 02             	shl    $0x2,%eax
    3765:	50                   	push   %eax
    3766:	8d 04 8e             	lea    (%esi,%ecx,4),%eax
    3769:	50                   	push   %eax
    376a:	8d 04 96             	lea    (%esi,%edx,4),%eax
    376d:	50                   	push   %eax
    376e:	e8 5d 55 00 00       	call   8cd0 <memmove@plt>
    3773:	8b 55 9c             	mov    -0x64(%ebp),%edx
    3776:	8b 87 20 10 00 00    	mov    0x1020(%edi),%eax
    377c:	01 d0                	add    %edx,%eax
    377e:	8b 4d 98             	mov    -0x68(%ebp),%ecx
    3781:	29 c8                	sub    %ecx,%eax
    3783:	89 97 28 10 00 00    	mov    %edx,0x1028(%edi)
    3789:	89 97 24 10 00 00    	mov    %edx,0x1024(%edi)
    378f:	89 87 20 10 00 00    	mov    %eax,0x1020(%edi)
    3795:	29 d1                	sub    %edx,%ecx
    3797:	c7 44 87 0c 00 00 00 	movl   $0x0,0xc(%edi,%eax,4)
    379e:	00 
    379f:	89 f8                	mov    %edi,%eax
    37a1:	e8 ea f4 ff ff       	call   2c90 <tinput_display_tail>
    37a6:	8b 97 14 10 00 00    	mov    0x1014(%edi),%edx
    37ac:	8b 87 24 10 00 00    	mov    0x1024(%edi),%eax
    37b2:	83 c4 0c             	add    $0xc,%esp
    37b5:	01 d0                	add    %edx,%eax
    37b7:	31 d2                	xor    %edx,%edx
    37b9:	f7 b7 18 10 00 00    	divl   0x1018(%edi)
    37bf:	8b 0f                	mov    (%edi),%ecx
    37c1:	50                   	push   %eax
    37c2:	52                   	push   %edx
    37c3:	51                   	push   %ecx
    37c4:	e8 a7 57 00 00       	call   8f70 <console_set_pos@plt>
    37c9:	8b 75 e4             	mov    -0x1c(%ebp),%esi
    37cc:	83 c4 10             	add    $0x10,%esp
    37cf:	8b 8f 20 10 00 00    	mov    0x1020(%edi),%ecx
    37d5:	81 f9 00 04 00 00    	cmp    $0x400,%ecx
    37db:	0f 84 57 fd ff ff    	je     3538 <tinput_read_i+0x98>
    37e1:	8d 41 01             	lea    0x1(%ecx),%eax
    37e4:	31 d2                	xor    %edx,%edx
    37e6:	89 45 9c             	mov    %eax,-0x64(%ebp)
    37e9:	8b 87 14 10 00 00    	mov    0x1014(%edi),%eax
    37ef:	f7 b7 18 10 00 00    	divl   0x1018(%edi)
    37f5:	8d 41 01             	lea    0x1(%ecx),%eax
    37f8:	01 d0                	add    %edx,%eax
    37fa:	31 d2                	xor    %edx,%edx
    37fc:	f7 b7 18 10 00 00    	divl   0x1018(%edi)
    3802:	85 d2                	test   %edx,%edx
    3804:	0f 84 27 02 00 00    	je     3a31 <tinput_read_i+0x591>
    380a:	8b 97 24 10 00 00    	mov    0x1024(%edi),%edx
    3810:	39 d1                	cmp    %edx,%ecx
    3812:	76 1b                	jbe    382f <tinput_read_i+0x38f>
    3814:	8d 44 8f 08          	lea    0x8(%edi,%ecx,4),%eax
    3818:	89 55 98             	mov    %edx,-0x68(%ebp)
    381b:	8d 4c 97 08          	lea    0x8(%edi,%edx,4),%ecx
    381f:	90                   	nop
    3820:	8b 10                	mov    (%eax),%edx
    3822:	83 e8 04             	sub    $0x4,%eax
    3825:	89 50 08             	mov    %edx,0x8(%eax)
    3828:	39 c8                	cmp    %ecx,%eax
    382a:	75 f4                	jne    3820 <tinput_read_i+0x380>
    382c:	8b 55 98             	mov    -0x68(%ebp),%edx
    382f:	89 74 97 0c          	mov    %esi,0xc(%edi,%edx,4)
    3833:	8b 75 9c             	mov    -0x64(%ebp),%esi
    3836:	8d 42 01             	lea    0x1(%edx),%eax
    3839:	89 b7 20 10 00 00    	mov    %esi,0x1020(%edi)
    383f:	89 87 24 10 00 00    	mov    %eax,0x1024(%edi)
    3845:	c7 44 b7 0c 00 00 00 	movl   $0x0,0xc(%edi,%esi,4)
    384c:	00 
    384d:	89 87 28 10 00 00    	mov    %eax,0x1028(%edi)
    3853:	89 f8                	mov    %edi,%eax
    3855:	e8 46 f7 ff ff       	call   2fa0 <tinput_display_tail.constprop.12>
    385a:	8b 8f 14 10 00 00    	mov    0x1014(%edi),%ecx
    3860:	8b 87 20 10 00 00    	mov    0x1020(%edi),%eax
    3866:	31 d2                	xor    %edx,%edx
    3868:	01 c8                	add    %ecx,%eax
    386a:	8b b7 18 10 00 00    	mov    0x1018(%edi),%esi
    3870:	f7 f6                	div    %esi
    3872:	8b 97 1c 10 00 00    	mov    0x101c(%edi),%edx
    3878:	39 d0                	cmp    %edx,%eax
    387a:	72 1c                	jb     3898 <tinput_read_i+0x3f8>
    387c:	29 d0                	sub    %edx,%eax
    387e:	8b 97 10 10 00 00    	mov    0x1010(%edi),%edx
    3884:	40                   	inc    %eax
    3885:	0f af c6             	imul   %esi,%eax
    3888:	29 c1                	sub    %eax,%ecx
    388a:	29 c2                	sub    %eax,%edx
    388c:	89 8f 14 10 00 00    	mov    %ecx,0x1014(%edi)
    3892:	89 97 10 10 00 00    	mov    %edx,0x1010(%edi)
    3898:	8b 87 24 10 00 00    	mov    0x1024(%edi),%eax
    389e:	52                   	push   %edx
    389f:	01 c8                	add    %ecx,%eax
    38a1:	31 d2                	xor    %edx,%edx
    38a3:	f7 f6                	div    %esi
    38a5:	e9 7e fd ff ff       	jmp    3628 <tinput_read_i+0x188>
    38aa:	8d b6 00 00 00 00    	lea    0x0(%esi),%esi
    38b0:	c6 87 62 10 00 00 00 	movb   $0x0,0x1062(%edi)
    38b7:	e9 7c fc ff ff       	jmp    3538 <tinput_read_i+0x98>
    38bc:	8d 74 26 00          	lea    0x0(%esi,%eiz,1),%esi
    38c0:	c7 45 a4 f6 fe ff ff 	movl   $0xfffffef6,-0x5c(%ebp)
    38c7:	8b 45 a4             	mov    -0x5c(%ebp),%eax
    38ca:	8d 65 f4             	lea    -0xc(%ebp),%esp
    38cd:	5b                   	pop    %ebx
    38ce:	5e                   	pop    %esi
    38cf:	5f                   	pop    %edi
    38d0:	5d                   	pop    %ebp
    38d1:	c3                   	ret    
    38d2:	8d b6 00 00 00 00    	lea    0x0(%esi),%esi
    38d8:	8b 45 e0             	mov    -0x20(%ebp),%eax
    38db:	c6 87 63 10 00 00 01 	movb   $0x1,0x1063(%edi)
    38e2:	a8 0c                	test   $0xc,%al
    38e4:	0f 84 2a fe ff ff    	je     3714 <tinput_read_i+0x274>
    38ea:	e9 1d fe ff ff       	jmp    370c <tinput_read_i+0x26c>
    38ef:	8b 87 24 10 00 00    	mov    0x1024(%edi),%eax
    38f5:	8b 97 18 10 00 00    	mov    0x1018(%edi),%edx
    38fb:	39 c2                	cmp    %eax,%edx
    38fd:	77 08                	ja     3907 <tinput_read_i+0x467>
    38ff:	29 d0                	sub    %edx,%eax
    3901:	89 87 24 10 00 00    	mov    %eax,0x1024(%edi)
    3907:	31 d2                	xor    %edx,%edx
    3909:	89 f8                	mov    %edi,%eax
    390b:	e8 90 f6 ff ff       	call   2fa0 <tinput_display_tail.constprop.12>
    3910:	8b 97 14 10 00 00    	mov    0x1014(%edi),%edx
    3916:	8b 87 24 10 00 00    	mov    0x1024(%edi),%eax
    391c:	51                   	push   %ecx
    391d:	01 d0                	add    %edx,%eax
    391f:	31 d2                	xor    %edx,%edx
    3921:	f7 b7 18 10 00 00    	divl   0x1018(%edi)
    3927:	8b 37                	mov    (%edi),%esi
    3929:	50                   	push   %eax
    392a:	52                   	push   %edx
    392b:	56                   	push   %esi
    392c:	e8 3f 56 00 00       	call   8f70 <console_set_pos@plt>
    3931:	8b 45 e0             	mov    -0x20(%ebp),%eax
    3934:	83 c4 10             	add    $0x10,%esp
    3937:	a8 0c                	test   $0xc,%al
    3939:	0f 84 e9 fd ff ff    	je     3728 <tinput_read_i+0x288>
    393f:	a8 03                	test   $0x3,%al
    3941:	0f 84 e1 fd ff ff    	je     3728 <tinput_read_i+0x288>
    3947:	a8 30                	test   $0x30,%al
    3949:	0f 85 d9 fd ff ff    	jne    3728 <tinput_read_i+0x288>
    394f:	8b 55 dc             	mov    -0x24(%ebp),%edx
    3952:	83 fa 55             	cmp    $0x55,%edx
    3955:	0f 84 aa 0e 00 00    	je     4805 <tinput_read_i+0x1365>
    395b:	0f 86 de 09 00 00    	jbe    433f <tinput_read_i+0xe9f>
    3961:	83 fa 56             	cmp    $0x56,%edx
    3964:	0f 84 76 0e 00 00    	je     47e0 <tinput_read_i+0x1340>
    396a:	83 fa 57             	cmp    $0x57,%edx
    396d:	0f 85 b5 fd ff ff    	jne    3728 <tinput_read_i+0x288>
    3973:	8b 97 24 10 00 00    	mov    0x1024(%edi),%edx
    3979:	8b 8f 20 10 00 00    	mov    0x1020(%edi),%ecx
    397f:	39 d1                	cmp    %edx,%ecx
    3981:	0f 84 59 13 00 00    	je     4ce0 <tinput_read_i+0x1840>
    3987:	42                   	inc    %edx
    3988:	39 d1                	cmp    %edx,%ecx
    398a:	0f 84 0f 0f 00 00    	je     489f <tinput_read_i+0x13ff>
    3990:	83 7c 97 08 20       	cmpl   $0x20,0x8(%edi,%edx,4)
    3995:	75 f0                	jne    3987 <tinput_read_i+0x4e7>
    3997:	83 7c 97 0c 20       	cmpl   $0x20,0xc(%edi,%edx,4)
    399c:	74 e9                	je     3987 <tinput_read_i+0x4e7>
    399e:	89 97 24 10 00 00    	mov    %edx,0x1024(%edi)
    39a4:	31 d2                	xor    %edx,%edx
    39a6:	89 f8                	mov    %edi,%eax
    39a8:	e8 f3 f5 ff ff       	call   2fa0 <tinput_display_tail.constprop.12>
    39ad:	8b 87 24 10 00 00    	mov    0x1024(%edi),%eax
    39b3:	8b b7 14 10 00 00    	mov    0x1014(%edi),%esi
    39b9:	52                   	push   %edx
    39ba:	01 f0                	add    %esi,%eax
    39bc:	31 d2                	xor    %edx,%edx
    39be:	f7 b7 18 10 00 00    	divl   0x1018(%edi)
    39c4:	8b 0f                	mov    (%edi),%ecx
    39c6:	50                   	push   %eax
    39c7:	52                   	push   %edx
    39c8:	51                   	push   %ecx
    39c9:	e8 a2 55 00 00       	call   8f70 <console_set_pos@plt>
    39ce:	8b 45 e0             	mov    -0x20(%ebp),%eax
    39d1:	83 c4 10             	add    $0x10,%esp
    39d4:	e9 4f fd ff ff       	jmp    3728 <tinput_read_i+0x288>
    39d9:	8d b4 26 00 00 00 00 	lea    0x0(%esi,%eiz,1),%esi
    39e0:	8b 45 dc             	mov    -0x24(%ebp),%eax
    39e3:	83 e8 0e             	sub    $0xe,%eax
    39e6:	83 f8 4f             	cmp    $0x4f,%eax
    39e9:	0f 87 41 fd ff ff    	ja     3730 <tinput_read_i+0x290>
    39ef:	ff 24 85 dc 85 00 00 	jmp    *0x85dc(,%eax,4)
    39f6:	66 90                	xchg   %ax,%ax
    39f8:	8b 45 e0             	mov    -0x20(%ebp),%eax
    39fb:	c6 87 62 10 00 00 01 	movb   $0x1,0x1062(%edi)
    3a02:	a8 0c                	test   $0xc,%al
    3a04:	0f 84 0a fd ff ff    	je     3714 <tinput_read_i+0x274>
    3a0a:	e9 fd fc ff ff       	jmp    370c <tinput_read_i+0x26c>
    3a0f:	c7 87 24 10 00 00 00 	movl   $0x0,0x1024(%edi)
    3a16:	00 00 00 
    3a19:	31 c0                	xor    %eax,%eax
    3a1b:	e9 f1 fb ff ff       	jmp    3611 <tinput_read_i+0x171>
    3a20:	0f 84 a9 fd ff ff    	je     37cf <tinput_read_i+0x32f>
    3a26:	89 d0                	mov    %edx,%eax
    3a28:	89 ca                	mov    %ecx,%edx
    3a2a:	89 c1                	mov    %eax,%ecx
    3a2c:	e9 1f fd ff ff       	jmp    3750 <tinput_read_i+0x2b0>
    3a31:	40                   	inc    %eax
    3a32:	3b 87 1c 10 00 00    	cmp    0x101c(%edi),%eax
    3a38:	0f 82 cc fd ff ff    	jb     380a <tinput_read_i+0x36a>
    3a3e:	e9 f5 fa ff ff       	jmp    3538 <tinput_read_i+0x98>
    3a43:	83 ea 10             	sub    $0x10,%edx
    3a46:	83 fa 47             	cmp    $0x47,%edx
    3a49:	0f 87 c5 fc ff ff    	ja     3714 <tinput_read_i+0x274>
    3a4f:	ff 24 95 1c 87 00 00 	jmp    *0x871c(,%edx,4)
    3a56:	8b 75 dc             	mov    -0x24(%ebp),%esi
    3a59:	8d 56 b1             	lea    -0x4f(%esi),%edx
    3a5c:	83 fa 08             	cmp    $0x8,%edx
    3a5f:	0f 87 d2 fe ff ff    	ja     3937 <tinput_read_i+0x497>
    3a65:	ff 24 95 3c 88 00 00 	jmp    *0x883c(,%edx,4)
    3a6c:	8b 87 58 10 00 00    	mov    0x1058(%edi),%eax
    3a72:	83 f8 09             	cmp    $0x9,%eax
    3a75:	0f 87 77 01 00 00    	ja     3bf2 <tinput_read_i+0x752>
    3a7b:	40                   	inc    %eax
    3a7c:	89 87 58 10 00 00    	mov    %eax,0x1058(%edi)
    3a82:	83 f8 01             	cmp    $0x1,%eax
    3a85:	0f 86 09 01 00 00    	jbe    3b94 <tinput_read_i+0x6f4>
    3a8b:	8d 0c 87             	lea    (%edi,%eax,4),%ecx
    3a8e:	8d 50 ff             	lea    -0x1(%eax),%edx
    3a91:	83 fa 01             	cmp    $0x1,%edx
    3a94:	8b b1 28 10 00 00    	mov    0x1028(%ecx),%esi
    3a9a:	89 b1 2c 10 00 00    	mov    %esi,0x102c(%ecx)
    3aa0:	0f 84 ee 00 00 00    	je     3b94 <tinput_read_i+0x6f4>
    3aa6:	8d 14 97             	lea    (%edi,%edx,4),%edx
    3aa9:	8d 48 fe             	lea    -0x2(%eax),%ecx
    3aac:	83 f9 01             	cmp    $0x1,%ecx
    3aaf:	8b b2 28 10 00 00    	mov    0x1028(%edx),%esi
    3ab5:	89 b2 2c 10 00 00    	mov    %esi,0x102c(%edx)
    3abb:	0f 84 d3 00 00 00    	je     3b94 <tinput_read_i+0x6f4>
    3ac1:	8d 0c 8f             	lea    (%edi,%ecx,4),%ecx
    3ac4:	8d 50 fd             	lea    -0x3(%eax),%edx
    3ac7:	83 fa 01             	cmp    $0x1,%edx
    3aca:	8b b1 28 10 00 00    	mov    0x1028(%ecx),%esi
    3ad0:	89 b1 2c 10 00 00    	mov    %esi,0x102c(%ecx)
    3ad6:	0f 84 b8 00 00 00    	je     3b94 <tinput_read_i+0x6f4>
    3adc:	8d 14 97             	lea    (%edi,%edx,4),%edx
    3adf:	8d 48 fc             	lea    -0x4(%eax),%ecx
    3ae2:	83 f9 01             	cmp    $0x1,%ecx
    3ae5:	8b b2 28 10 00 00    	mov    0x1028(%edx),%esi
    3aeb:	89 b2 2c 10 00 00    	mov    %esi,0x102c(%edx)
    3af1:	0f 84 9d 00 00 00    	je     3b94 <tinput_read_i+0x6f4>
    3af7:	8d 0c 8f             	lea    (%edi,%ecx,4),%ecx
    3afa:	8d 50 fb             	lea    -0x5(%eax),%edx
    3afd:	83 fa 01             	cmp    $0x1,%edx
    3b00:	8b b1 28 10 00 00    	mov    0x1028(%ecx),%esi
    3b06:	89 b1 2c 10 00 00    	mov    %esi,0x102c(%ecx)
    3b0c:	0f 84 82 00 00 00    	je     3b94 <tinput_read_i+0x6f4>
    3b12:	8d 14 97             	lea    (%edi,%edx,4),%edx
    3b15:	8d 48 fa             	lea    -0x6(%eax),%ecx
    3b18:	83 f9 01             	cmp    $0x1,%ecx
    3b1b:	8b b2 28 10 00 00    	mov    0x1028(%edx),%esi
    3b21:	89 b2 2c 10 00 00    	mov    %esi,0x102c(%edx)
    3b27:	74 6b                	je     3b94 <tinput_read_i+0x6f4>
    3b29:	8d 0c 8f             	lea    (%edi,%ecx,4),%ecx
    3b2c:	8d 50 f9             	lea    -0x7(%eax),%edx
    3b2f:	83 fa 01             	cmp    $0x1,%edx
    3b32:	8b b1 28 10 00 00    	mov    0x1028(%ecx),%esi
    3b38:	89 b1 2c 10 00 00    	mov    %esi,0x102c(%ecx)
    3b3e:	74 54                	je     3b94 <tinput_read_i+0x6f4>
    3b40:	8d 14 97             	lea    (%edi,%edx,4),%edx
    3b43:	8d 48 f8             	lea    -0x8(%eax),%ecx
    3b46:	83 f9 01             	cmp    $0x1,%ecx
    3b49:	8b b2 28 10 00 00    	mov    0x1028(%edx),%esi
    3b4f:	89 b2 2c 10 00 00    	mov    %esi,0x102c(%edx)
    3b55:	74 3d                	je     3b94 <tinput_read_i+0x6f4>
    3b57:	8d 0c 8f             	lea    (%edi,%ecx,4),%ecx
    3b5a:	8d 50 f7             	lea    -0x9(%eax),%edx
    3b5d:	83 fa 01             	cmp    $0x1,%edx
    3b60:	8b b1 28 10 00 00    	mov    0x1028(%ecx),%esi
    3b66:	89 b1 2c 10 00 00    	mov    %esi,0x102c(%ecx)
    3b6c:	74 26                	je     3b94 <tinput_read_i+0x6f4>
    3b6e:	8d 14 97             	lea    (%edi,%edx,4),%edx
    3b71:	83 e8 0a             	sub    $0xa,%eax
    3b74:	83 f8 01             	cmp    $0x1,%eax
    3b77:	8b 8a 28 10 00 00    	mov    0x1028(%edx),%ecx
    3b7d:	89 8a 2c 10 00 00    	mov    %ecx,0x102c(%edx)
    3b83:	74 0f                	je     3b94 <tinput_read_i+0x6f4>
    3b85:	8d 04 87             	lea    (%edi,%eax,4),%eax
    3b88:	8b 90 28 10 00 00    	mov    0x1028(%eax),%edx
    3b8e:	89 90 2c 10 00 00    	mov    %edx,0x102c(%eax)
    3b94:	83 ec 0c             	sub    $0xc,%esp
    3b97:	53                   	push   %ebx
    3b98:	e8 e3 52 00 00       	call   8e80 <str_dup@plt>
    3b9d:	89 87 30 10 00 00    	mov    %eax,0x1030(%edi)
    3ba3:	8b 87 2c 10 00 00    	mov    0x102c(%edi),%eax
    3ba9:	83 c4 10             	add    $0x10,%esp
    3bac:	85 c0                	test   %eax,%eax
    3bae:	0f 84 f8 fa ff ff    	je     36ac <tinput_read_i+0x20c>
    3bb4:	83 ec 0c             	sub    $0xc,%esp
    3bb7:	50                   	push   %eax
    3bb8:	e8 23 54 00 00       	call   8fe0 <free@plt>
    3bbd:	c7 87 2c 10 00 00 00 	movl   $0x0,0x102c(%edi)
    3bc4:	00 00 00 
    3bc7:	83 c4 10             	add    $0x10,%esp
    3bca:	e9 dd fa ff ff       	jmp    36ac <tinput_read_i+0x20c>
    3bcf:	89 f8                	mov    %edi,%eax
    3bd1:	31 d2                	xor    %edx,%edx
    3bd3:	e8 c8 f3 ff ff       	call   2fa0 <tinput_display_tail.constprop.12>
    3bd8:	8b b7 18 10 00 00    	mov    0x1018(%edi),%esi
    3bde:	8b 8f 14 10 00 00    	mov    0x1014(%edi),%ecx
    3be4:	8b 87 24 10 00 00    	mov    0x1024(%edi),%eax
    3bea:	89 75 9c             	mov    %esi,-0x64(%ebp)
    3bed:	e9 2e fa ff ff       	jmp    3620 <tinput_read_i+0x180>
    3bf2:	8b 97 54 10 00 00    	mov    0x1054(%edi),%edx
    3bf8:	85 d2                	test   %edx,%edx
    3bfa:	0f 84 8b fe ff ff    	je     3a8b <tinput_read_i+0x5eb>
    3c00:	83 ec 0c             	sub    $0xc,%esp
    3c03:	52                   	push   %edx
    3c04:	e8 d7 53 00 00       	call   8fe0 <free@plt>
    3c09:	8b 87 58 10 00 00    	mov    0x1058(%edi),%eax
    3c0f:	83 c4 10             	add    $0x10,%esp
    3c12:	e9 6b fe ff ff       	jmp    3a82 <tinput_read_i+0x5e2>
    3c17:	8b 47 08             	mov    0x8(%edi),%eax
    3c1a:	85 c0                	test   %eax,%eax
    3c1c:	0f 84 0e fb ff ff    	je     3730 <tinput_read_i+0x290>
    3c22:	8d 75 b0             	lea    -0x50(%ebp),%esi
    3c25:	8b 8f 24 10 00 00    	mov    0x1024(%edi),%ecx
    3c2b:	56                   	push   %esi
    3c2c:	8d 75 b4             	lea    -0x4c(%ebp),%esi
    3c2f:	56                   	push   %esi
    3c30:	8b 75 a0             	mov    -0x60(%ebp),%esi
    3c33:	51                   	push   %ecx
    3c34:	56                   	push   %esi
    3c35:	ff 10                	call   *(%eax)
    3c37:	83 c4 10             	add    $0x10,%esp
    3c3a:	85 c0                	test   %eax,%eax
    3c3c:	0f 85 ee fa ff ff    	jne    3730 <tinput_read_i+0x290>
    3c42:	83 ec 0c             	sub    $0xc,%esp
    3c45:	6a 04                	push   $0x4
    3c47:	e8 34 51 00 00       	call   8d80 <malloc@plt>
    3c4c:	83 c4 10             	add    $0x10,%esp
    3c4f:	89 45 98             	mov    %eax,-0x68(%ebp)
    3c52:	85 c0                	test   %eax,%eax
    3c54:	0f 84 e9 10 00 00    	je     4d43 <tinput_read_i+0x18a3>
    3c5a:	c7 45 90 00 00 00 00 	movl   $0x0,-0x70(%ebp)
    3c61:	c7 45 9c 01 00 00 00 	movl   $0x1,-0x64(%ebp)
    3c68:	eb 5b                	jmp    3cc5 <tinput_read_i+0x825>
    3c6a:	8d b6 00 00 00 00    	lea    0x0(%esi),%esi
    3c70:	8b 45 9c             	mov    -0x64(%ebp),%eax
    3c73:	8b 75 90             	mov    -0x70(%ebp),%esi
    3c76:	39 f0                	cmp    %esi,%eax
    3c78:	77 22                	ja     3c9c <tinput_read_i+0x7fc>
    3c7a:	01 c0                	add    %eax,%eax
    3c7c:	8b 4d 98             	mov    -0x68(%ebp),%ecx
    3c7f:	89 45 9c             	mov    %eax,-0x64(%ebp)
    3c82:	52                   	push   %edx
    3c83:	c1 e0 02             	shl    $0x2,%eax
    3c86:	52                   	push   %edx
    3c87:	50                   	push   %eax
    3c88:	51                   	push   %ecx
    3c89:	e8 22 52 00 00       	call   8eb0 <realloc@plt>
    3c8e:	83 c4 10             	add    $0x10,%esp
    3c91:	89 45 98             	mov    %eax,-0x68(%ebp)
    3c94:	85 c0                	test   %eax,%eax
    3c96:	0f 84 54 10 00 00    	je     4cf0 <tinput_read_i+0x1850>
    3c9c:	8b 45 98             	mov    -0x68(%ebp),%eax
    3c9f:	8b 75 90             	mov    -0x70(%ebp),%esi
    3ca2:	83 ec 0c             	sub    $0xc,%esp
    3ca5:	8d 34 b0             	lea    (%eax,%esi,4),%esi
    3ca8:	8b 45 b8             	mov    -0x48(%ebp),%eax
    3cab:	50                   	push   %eax
    3cac:	e8 cf 51 00 00       	call   8e80 <str_dup@plt>
    3cb1:	83 c4 10             	add    $0x10,%esp
    3cb4:	89 06                	mov    %eax,(%esi)
    3cb6:	85 c0                	test   %eax,%eax
    3cb8:	0f 84 32 10 00 00    	je     4cf0 <tinput_read_i+0x1850>
    3cbe:	8b 4d 90             	mov    -0x70(%ebp),%ecx
    3cc1:	41                   	inc    %ecx
    3cc2:	89 4d 90             	mov    %ecx,-0x70(%ebp)
    3cc5:	56                   	push   %esi
    3cc6:	56                   	push   %esi
    3cc7:	8b 47 08             	mov    0x8(%edi),%eax
    3cca:	8b 55 b0             	mov    -0x50(%ebp),%edx
    3ccd:	8d 75 b8             	lea    -0x48(%ebp),%esi
    3cd0:	56                   	push   %esi
    3cd1:	52                   	push   %edx
    3cd2:	ff 50 04             	call   *0x4(%eax)
    3cd5:	83 c4 10             	add    $0x10,%esp
    3cd8:	85 c0                	test   %eax,%eax
    3cda:	74 94                	je     3c70 <tinput_read_i+0x7d0>
    3cdc:	83 ec 0c             	sub    $0xc,%esp
    3cdf:	8b 47 08             	mov    0x8(%edi),%eax
    3ce2:	8b 55 b0             	mov    -0x50(%ebp),%edx
    3ce5:	52                   	push   %edx
    3ce6:	ff 50 08             	call   *0x8(%eax)
    3ce9:	83 c4 10             	add    $0x10,%esp
    3cec:	83 7d 90 01          	cmpl   $0x1,-0x70(%ebp)
    3cf0:	0f 86 d2 0f 00 00    	jbe    4cc8 <tinput_read_i+0x1828>
    3cf6:	8b 45 98             	mov    -0x68(%ebp),%eax
    3cf9:	83 ec 0c             	sub    $0xc,%esp
    3cfc:	8b 00                	mov    (%eax),%eax
    3cfe:	50                   	push   %eax
    3cff:	e8 5c 52 00 00       	call   8f60 <str_length@plt>
    3d04:	89 45 88             	mov    %eax,-0x78(%ebp)
    3d07:	8d 45 c0             	lea    -0x40(%ebp),%eax
    3d0a:	83 c4 10             	add    $0x10,%esp
    3d0d:	c7 45 84 01 00 00 00 	movl   $0x1,-0x7c(%ebp)
    3d14:	89 45 9c             	mov    %eax,-0x64(%ebp)
    3d17:	89 7d 08             	mov    %edi,0x8(%ebp)
    3d1a:	8b 45 98             	mov    -0x68(%ebp),%eax
    3d1d:	8b 75 84             	mov    -0x7c(%ebp),%esi
    3d20:	c7 45 8c 00 00 00 00 	movl   $0x0,-0x74(%ebp)
    3d27:	8b 3c b0             	mov    (%eax,%esi,4),%edi
    3d2a:	8b 00                	mov    (%eax),%eax
    3d2c:	89 45 94             	mov    %eax,-0x6c(%ebp)
    3d2f:	c7 45 bc 00 00 00 00 	movl   $0x0,-0x44(%ebp)
    3d36:	c7 45 c0 00 00 00 00 	movl   $0x0,-0x40(%ebp)
    3d3d:	eb 0c                	jmp    3d4b <tinput_read_i+0x8ab>
    3d3f:	90                   	nop
    3d40:	39 c6                	cmp    %eax,%esi
    3d42:	75 39                	jne    3d7d <tinput_read_i+0x8dd>
    3d44:	8b 55 8c             	mov    -0x74(%ebp),%edx
    3d47:	42                   	inc    %edx
    3d48:	89 55 8c             	mov    %edx,-0x74(%ebp)
    3d4b:	8b 75 94             	mov    -0x6c(%ebp),%esi
    3d4e:	8d 45 bc             	lea    -0x44(%ebp),%eax
    3d51:	51                   	push   %ecx
    3d52:	6a ff                	push   $0xffffffff
    3d54:	50                   	push   %eax
    3d55:	56                   	push   %esi
    3d56:	e8 b5 4f 00 00       	call   8d10 <str_decode@plt>
    3d5b:	83 c4 0c             	add    $0xc,%esp
    3d5e:	89 c6                	mov    %eax,%esi
    3d60:	8b 45 9c             	mov    -0x64(%ebp),%eax
    3d63:	6a ff                	push   $0xffffffff
    3d65:	50                   	push   %eax
    3d66:	57                   	push   %edi
    3d67:	e8 a4 4f 00 00       	call   8d10 <str_decode@plt>
    3d6c:	83 c4 10             	add    $0x10,%esp
    3d6f:	85 f6                	test   %esi,%esi
    3d71:	0f 94 c1             	sete   %cl
    3d74:	85 c0                	test   %eax,%eax
    3d76:	0f 94 c2             	sete   %dl
    3d79:	08 d1                	or     %dl,%cl
    3d7b:	74 c3                	je     3d40 <tinput_read_i+0x8a0>
    3d7d:	8b 75 8c             	mov    -0x74(%ebp),%esi
    3d80:	39 75 88             	cmp    %esi,-0x78(%ebp)
    3d83:	0f 83 31 0c 00 00    	jae    49ba <tinput_read_i+0x151a>
    3d89:	8b 45 84             	mov    -0x7c(%ebp),%eax
    3d8c:	40                   	inc    %eax
    3d8d:	89 45 84             	mov    %eax,-0x7c(%ebp)
    3d90:	8b 45 84             	mov    -0x7c(%ebp),%eax
    3d93:	39 45 90             	cmp    %eax,-0x70(%ebp)
    3d96:	75 82                	jne    3d1a <tinput_read_i+0x87a>
    3d98:	8b 7d 08             	mov    0x8(%ebp),%edi
    3d9b:	51                   	push   %ecx
    3d9c:	51                   	push   %ecx
    3d9d:	8b 75 b4             	mov    -0x4c(%ebp),%esi
    3da0:	8b 87 24 10 00 00    	mov    0x1024(%edi),%eax
    3da6:	29 f0                	sub    %esi,%eax
    3da8:	50                   	push   %eax
    3da9:	8b 45 98             	mov    -0x68(%ebp),%eax
    3dac:	8b 00                	mov    (%eax),%eax
    3dae:	50                   	push   %eax
    3daf:	e8 0c 52 00 00       	call   8fc0 <str_lsize@plt>
    3db4:	8b 4d 88             	mov    -0x78(%ebp),%ecx
    3db7:	83 c4 10             	add    $0x10,%esp
    3dba:	89 c6                	mov    %eax,%esi
    3dbc:	39 c8                	cmp    %ecx,%eax
    3dbe:	0f 83 cd 0c 00 00    	jae    4a91 <tinput_read_i+0x15f1>
    3dc4:	50                   	push   %eax
    3dc5:	50                   	push   %eax
    3dc6:	8b 45 98             	mov    -0x68(%ebp),%eax
    3dc9:	29 f1                	sub    %esi,%ecx
    3dcb:	51                   	push   %ecx
    3dcc:	8b 00                	mov    (%eax),%eax
    3dce:	50                   	push   %eax
    3dcf:	e8 ec 51 00 00       	call   8fc0 <str_lsize@plt>
    3dd4:	5a                   	pop    %edx
    3dd5:	59                   	pop    %ecx
    3dd6:	50                   	push   %eax
    3dd7:	8b 45 98             	mov    -0x68(%ebp),%eax
    3dda:	8b 10                	mov    (%eax),%edx
    3ddc:	01 d6                	add    %edx,%esi
    3dde:	56                   	push   %esi
    3ddf:	e8 5c 4f 00 00       	call   8d40 <str_ndup@plt>
    3de4:	89 c2                	mov    %eax,%edx
    3de6:	89 c6                	mov    %eax,%esi
    3de8:	89 f8                	mov    %edi,%eax
    3dea:	e8 51 f3 ff ff       	call   3140 <tinput_insert_string>
    3def:	89 34 24             	mov    %esi,(%esp)
    3df2:	e8 e9 51 00 00       	call   8fe0 <free@plt>
    3df7:	83 c4 10             	add    $0x10,%esp
    3dfa:	31 f6                	xor    %esi,%esi
    3dfc:	8b 45 98             	mov    -0x68(%ebp),%eax
    3dff:	83 ec 0c             	sub    $0xc,%esp
    3e02:	8b 04 b0             	mov    (%eax,%esi,4),%eax
    3e05:	46                   	inc    %esi
    3e06:	50                   	push   %eax
    3e07:	e8 d4 51 00 00       	call   8fe0 <free@plt>
    3e0c:	83 c4 10             	add    $0x10,%esp
    3e0f:	39 75 90             	cmp    %esi,-0x70(%ebp)
    3e12:	77 e8                	ja     3dfc <tinput_read_i+0x95c>
    3e14:	83 ec 0c             	sub    $0xc,%esp
    3e17:	8b 45 98             	mov    -0x68(%ebp),%eax
    3e1a:	50                   	push   %eax
    3e1b:	e8 c0 51 00 00       	call   8fe0 <free@plt>
    3e20:	83 c4 10             	add    $0x10,%esp
    3e23:	e9 08 f9 ff ff       	jmp    3730 <tinput_read_i+0x290>
    3e28:	8b 8f 24 10 00 00    	mov    0x1024(%edi),%ecx
    3e2e:	8b 87 28 10 00 00    	mov    0x1028(%edi),%eax
    3e34:	39 c1                	cmp    %eax,%ecx
    3e36:	74 39                	je     3e71 <tinput_read_i+0x9d1>
    3e38:	31 d2                	xor    %edx,%edx
    3e3a:	89 8f 28 10 00 00    	mov    %ecx,0x1028(%edi)
    3e40:	89 f8                	mov    %edi,%eax
    3e42:	e8 59 f1 ff ff       	call   2fa0 <tinput_display_tail.constprop.12>
    3e47:	8b 87 24 10 00 00    	mov    0x1024(%edi),%eax
    3e4d:	8b b7 14 10 00 00    	mov    0x1014(%edi),%esi
    3e53:	52                   	push   %edx
    3e54:	01 f0                	add    %esi,%eax
    3e56:	31 d2                	xor    %edx,%edx
    3e58:	f7 b7 18 10 00 00    	divl   0x1018(%edi)
    3e5e:	8b 0f                	mov    (%edi),%ecx
    3e60:	50                   	push   %eax
    3e61:	52                   	push   %edx
    3e62:	51                   	push   %ecx
    3e63:	e8 08 51 00 00       	call   8f70 <console_set_pos@plt>
    3e68:	8b 87 24 10 00 00    	mov    0x1024(%edi),%eax
    3e6e:	83 c4 10             	add    $0x10,%esp
    3e71:	3b 87 20 10 00 00    	cmp    0x1020(%edi),%eax
    3e77:	73 07                	jae    3e80 <tinput_read_i+0x9e0>
    3e79:	40                   	inc    %eax
    3e7a:	89 87 24 10 00 00    	mov    %eax,0x1024(%edi)
    3e80:	8b 97 14 10 00 00    	mov    0x1014(%edi),%edx
    3e86:	89 87 28 10 00 00    	mov    %eax,0x1028(%edi)
    3e8c:	01 d0                	add    %edx,%eax
    3e8e:	51                   	push   %ecx
    3e8f:	31 d2                	xor    %edx,%edx
    3e91:	f7 b7 18 10 00 00    	divl   0x1018(%edi)
    3e97:	50                   	push   %eax
    3e98:	8b 07                	mov    (%edi),%eax
    3e9a:	52                   	push   %edx
    3e9b:	50                   	push   %eax
    3e9c:	e8 cf 50 00 00       	call   8f70 <console_set_pos@plt>
    3ea1:	83 c4 10             	add    $0x10,%esp
    3ea4:	e9 87 f8 ff ff       	jmp    3730 <tinput_read_i+0x290>
    3ea9:	c6 87 60 10 00 00 01 	movb   $0x1,0x1060(%edi)
    3eb0:	e9 7b f8 ff ff       	jmp    3730 <tinput_read_i+0x290>
    3eb5:	8b 87 24 10 00 00    	mov    0x1024(%edi),%eax
    3ebb:	3b 87 28 10 00 00    	cmp    0x1028(%edi),%eax
    3ec1:	74 33                	je     3ef6 <tinput_read_i+0xa56>
    3ec3:	89 87 28 10 00 00    	mov    %eax,0x1028(%edi)
    3ec9:	31 d2                	xor    %edx,%edx
    3ecb:	89 f8                	mov    %edi,%eax
    3ecd:	e8 ce f0 ff ff       	call   2fa0 <tinput_display_tail.constprop.12>
    3ed2:	8b 97 14 10 00 00    	mov    0x1014(%edi),%edx
    3ed8:	8b 87 24 10 00 00    	mov    0x1024(%edi),%eax
    3ede:	51                   	push   %ecx
    3edf:	01 d0                	add    %edx,%eax
    3ee1:	31 d2                	xor    %edx,%edx
    3ee3:	f7 b7 18 10 00 00    	divl   0x1018(%edi)
    3ee9:	8b 37                	mov    (%edi),%esi
    3eeb:	50                   	push   %eax
    3eec:	52                   	push   %edx
    3eed:	56                   	push   %esi
    3eee:	e8 7d 50 00 00       	call   8f70 <console_set_pos@plt>
    3ef3:	83 c4 10             	add    $0x10,%esp
    3ef6:	c7 87 24 10 00 00 00 	movl   $0x0,0x1024(%edi)
    3efd:	00 00 00 
    3f00:	c7 87 28 10 00 00 00 	movl   $0x0,0x1028(%edi)
    3f07:	00 00 00 
    3f0a:	8b 87 14 10 00 00    	mov    0x1014(%edi),%eax
    3f10:	56                   	push   %esi
    3f11:	e9 79 ff ff ff       	jmp    3e8f <tinput_read_i+0x9ef>
    3f16:	8b b7 24 10 00 00    	mov    0x1024(%edi),%esi
    3f1c:	8b 97 28 10 00 00    	mov    0x1028(%edi),%edx
    3f22:	39 d6                	cmp    %edx,%esi
    3f24:	0f 85 03 09 00 00    	jne    482d <tinput_read_i+0x138d>
    3f2a:	8b 8f 20 10 00 00    	mov    0x1020(%edi),%ecx
    3f30:	39 ce                	cmp    %ecx,%esi
    3f32:	0f 84 f8 f7 ff ff    	je     3730 <tinput_read_i+0x290>
    3f38:	8d 46 01             	lea    0x1(%esi),%eax
    3f3b:	89 87 24 10 00 00    	mov    %eax,0x1024(%edi)
    3f41:	89 87 28 10 00 00    	mov    %eax,0x1028(%edi)
    3f47:	85 c0                	test   %eax,%eax
    3f49:	0f 84 e1 f7 ff ff    	je     3730 <tinput_read_i+0x290>
    3f4f:	39 c1                	cmp    %eax,%ecx
    3f51:	76 1d                	jbe    3f70 <tinput_read_i+0xad0>
    3f53:	8d 44 b7 0c          	lea    0xc(%edi,%esi,4),%eax
    3f57:	8d 54 8f 08          	lea    0x8(%edi,%ecx,4),%edx
    3f5b:	89 4d 9c             	mov    %ecx,-0x64(%ebp)
    3f5e:	66 90                	xchg   %ax,%ax
    3f60:	8b 48 04             	mov    0x4(%eax),%ecx
    3f63:	83 c0 04             	add    $0x4,%eax
    3f66:	89 48 fc             	mov    %ecx,-0x4(%eax)
    3f69:	39 c2                	cmp    %eax,%edx
    3f6b:	75 f3                	jne    3f60 <tinput_read_i+0xac0>
    3f6d:	8b 4d 9c             	mov    -0x64(%ebp),%ecx
    3f70:	49                   	dec    %ecx
    3f71:	83 ec 0c             	sub    $0xc,%esp
    3f74:	89 b7 24 10 00 00    	mov    %esi,0x1024(%edi)
    3f7a:	89 8f 20 10 00 00    	mov    %ecx,0x1020(%edi)
    3f80:	c7 44 8f 0c 00 00 00 	movl   $0x0,0xc(%edi,%ecx,4)
    3f87:	00 
    3f88:	89 b7 28 10 00 00    	mov    %esi,0x1028(%edi)
    3f8e:	68 04 10 00 00       	push   $0x1004
    3f93:	e8 e8 4d 00 00       	call   8d80 <malloc@plt>
    3f98:	83 c4 10             	add    $0x10,%esp
    3f9b:	89 45 9c             	mov    %eax,-0x64(%ebp)
    3f9e:	85 c0                	test   %eax,%eax
    3fa0:	0f 84 85 03 00 00    	je     432b <tinput_read_i+0xe8b>
    3fa6:	8b 87 28 10 00 00    	mov    0x1028(%edi),%eax
    3fac:	8b 8f 24 10 00 00    	mov    0x1024(%edi),%ecx
    3fb2:	89 c2                	mov    %eax,%edx
    3fb4:	89 45 98             	mov    %eax,-0x68(%ebp)
    3fb7:	39 c8                	cmp    %ecx,%eax
    3fb9:	73 07                	jae    3fc2 <tinput_read_i+0xb22>
    3fbb:	89 c8                	mov    %ecx,%eax
    3fbd:	89 d1                	mov    %edx,%ecx
    3fbf:	89 45 98             	mov    %eax,-0x68(%ebp)
    3fc2:	8b 87 14 10 00 00    	mov    0x1014(%edi),%eax
    3fc8:	89 4d 94             	mov    %ecx,-0x6c(%ebp)
    3fcb:	01 f0                	add    %esi,%eax
    3fcd:	31 d2                	xor    %edx,%edx
    3fcf:	51                   	push   %ecx
    3fd0:	f7 b7 18 10 00 00    	divl   0x1018(%edi)
    3fd6:	50                   	push   %eax
    3fd7:	8b 07                	mov    (%edi),%eax
    3fd9:	52                   	push   %edx
    3fda:	50                   	push   %eax
    3fdb:	e8 90 4f 00 00       	call   8f70 <console_set_pos@plt>
    3fe0:	8b 0f                	mov    (%edi),%ecx
    3fe2:	58                   	pop    %eax
    3fe3:	5a                   	pop    %edx
    3fe4:	6a 00                	push   $0x0
    3fe6:	51                   	push   %ecx
    3fe7:	e8 f4 4e 00 00       	call   8ee0 <console_set_style@plt>
    3fec:	8b 4d 94             	mov    -0x6c(%ebp),%ecx
    3fef:	83 c4 10             	add    $0x10,%esp
    3ff2:	39 ce                	cmp    %ecx,%esi
    3ff4:	0f 82 fb 0d 00 00    	jb     4df5 <tinput_read_i+0x1955>
    3ffa:	3b 75 98             	cmp    -0x68(%ebp),%esi
    3ffd:	0f 82 9a 0d 00 00    	jb     4d9d <tinput_read_i+0x18fd>
    4003:	83 ec 0c             	sub    $0xc,%esp
    4006:	8b 0f                	mov    (%edi),%ecx
    4008:	51                   	push   %ecx
    4009:	e8 32 4f 00 00       	call   8f40 <console_flush@plt>
    400e:	8b 0f                	mov    (%edi),%ecx
    4010:	58                   	pop    %eax
    4011:	5a                   	pop    %edx
    4012:	6a 00                	push   $0x0
    4014:	51                   	push   %ecx
    4015:	e8 c6 4e 00 00       	call   8ee0 <console_set_style@plt>
    401a:	8b 87 20 10 00 00    	mov    0x1020(%edi),%eax
    4020:	83 c4 10             	add    $0x10,%esp
    4023:	39 f0                	cmp    %esi,%eax
    4025:	0f 87 34 0d 00 00    	ja     4d5f <tinput_read_i+0x18bf>
    402b:	83 ec 0c             	sub    $0xc,%esp
    402e:	6a 20                	push   $0x20
    4030:	e8 1b 4c 00 00       	call   8c50 <putchar@plt>
    4035:	8b 37                	mov    (%edi),%esi
    4037:	59                   	pop    %ecx
    4038:	56                   	push   %esi
    4039:	e8 02 4f 00 00       	call   8f40 <console_flush@plt>
    403e:	58                   	pop    %eax
    403f:	8b 45 9c             	mov    -0x64(%ebp),%eax
    4042:	50                   	push   %eax
    4043:	e8 98 4f 00 00       	call   8fe0 <free@plt>
    4048:	83 c4 10             	add    $0x10,%esp
    404b:	e9 db 02 00 00       	jmp    432b <tinput_read_i+0xe8b>
    4050:	8b 87 24 10 00 00    	mov    0x1024(%edi),%eax
    4056:	3b 87 28 10 00 00    	cmp    0x1028(%edi),%eax
    405c:	74 33                	je     4091 <tinput_read_i+0xbf1>
    405e:	31 d2                	xor    %edx,%edx
    4060:	89 87 28 10 00 00    	mov    %eax,0x1028(%edi)
    4066:	89 f8                	mov    %edi,%eax
    4068:	e8 33 ef ff ff       	call   2fa0 <tinput_display_tail.constprop.12>
    406d:	8b 87 24 10 00 00    	mov    0x1024(%edi),%eax
    4073:	8b b7 14 10 00 00    	mov    0x1014(%edi),%esi
    4079:	52                   	push   %edx
    407a:	01 f0                	add    %esi,%eax
    407c:	31 d2                	xor    %edx,%edx
    407e:	f7 b7 18 10 00 00    	divl   0x1018(%edi)
    4084:	8b 0f                	mov    (%edi),%ecx
    4086:	50                   	push   %eax
    4087:	52                   	push   %edx
    4088:	51                   	push   %ecx
    4089:	e8 e2 4e 00 00       	call   8f70 <console_set_pos@plt>
    408e:	83 c4 10             	add    $0x10,%esp
    4091:	8b 87 20 10 00 00    	mov    0x1020(%edi),%eax
    4097:	8b 97 14 10 00 00    	mov    0x1014(%edi),%edx
    409d:	89 87 24 10 00 00    	mov    %eax,0x1024(%edi)
    40a3:	89 87 28 10 00 00    	mov    %eax,0x1028(%edi)
    40a9:	01 d0                	add    %edx,%eax
    40ab:	51                   	push   %ecx
    40ac:	e9 de fd ff ff       	jmp    3e8f <tinput_read_i+0x9ef>
    40b1:	8b 87 5c 10 00 00    	mov    0x105c(%edi),%eax
    40b7:	40                   	inc    %eax
    40b8:	3b 87 58 10 00 00    	cmp    0x1058(%edi),%eax
    40be:	0f 87 6c f6 ff ff    	ja     3730 <tinput_read_i+0x290>
    40c4:	ba 01 00 00 00       	mov    $0x1,%edx
    40c9:	89 f8                	mov    %edi,%eax
    40cb:	e8 a0 ed ff ff       	call   2e70 <tinput_history_seek.part.6>
    40d0:	e9 5b f6 ff ff       	jmp    3730 <tinput_read_i+0x290>
    40d5:	8b 97 24 10 00 00    	mov    0x1024(%edi),%edx
    40db:	8b 87 28 10 00 00    	mov    0x1028(%edi),%eax
    40e1:	39 c2                	cmp    %eax,%edx
    40e3:	74 39                	je     411e <tinput_read_i+0xc7e>
    40e5:	89 97 28 10 00 00    	mov    %edx,0x1028(%edi)
    40eb:	89 f8                	mov    %edi,%eax
    40ed:	31 d2                	xor    %edx,%edx
    40ef:	e8 ac ee ff ff       	call   2fa0 <tinput_display_tail.constprop.12>
    40f4:	8b 87 24 10 00 00    	mov    0x1024(%edi),%eax
    40fa:	8b b7 14 10 00 00    	mov    0x1014(%edi),%esi
    4100:	52                   	push   %edx
    4101:	01 f0                	add    %esi,%eax
    4103:	31 d2                	xor    %edx,%edx
    4105:	f7 b7 18 10 00 00    	divl   0x1018(%edi)
    410b:	8b 0f                	mov    (%edi),%ecx
    410d:	50                   	push   %eax
    410e:	52                   	push   %edx
    410f:	51                   	push   %ecx
    4110:	e8 5b 4e 00 00       	call   8f70 <console_set_pos@plt>
    4115:	8b 87 24 10 00 00    	mov    0x1024(%edi),%eax
    411b:	83 c4 10             	add    $0x10,%esp
    411e:	85 c0                	test   %eax,%eax
    4120:	0f 84 5a fd ff ff    	je     3e80 <tinput_read_i+0x9e0>
    4126:	48                   	dec    %eax
    4127:	89 87 24 10 00 00    	mov    %eax,0x1024(%edi)
    412d:	e9 4e fd ff ff       	jmp    3e80 <tinput_read_i+0x9e0>
    4132:	8b 87 5c 10 00 00    	mov    0x105c(%edi),%eax
    4138:	85 c0                	test   %eax,%eax
    413a:	0f 84 f0 f5 ff ff    	je     3730 <tinput_read_i+0x290>
    4140:	83 ca ff             	or     $0xffffffff,%edx
    4143:	89 f8                	mov    %edi,%eax
    4145:	e8 26 ed ff ff       	call   2e70 <tinput_history_seek.part.6>
    414a:	e9 e1 f5 ff ff       	jmp    3730 <tinput_read_i+0x290>
    414f:	8b 97 24 10 00 00    	mov    0x1024(%edi),%edx
    4155:	8b b7 28 10 00 00    	mov    0x1028(%edi),%esi
    415b:	39 f2                	cmp    %esi,%edx
    415d:	0f 85 52 07 00 00    	jne    48b5 <tinput_read_i+0x1415>
    4163:	85 d2                	test   %edx,%edx
    4165:	0f 84 15 09 00 00    	je     4a80 <tinput_read_i+0x15e0>
    416b:	8b 87 20 10 00 00    	mov    0x1020(%edi),%eax
    4171:	39 c2                	cmp    %eax,%edx
    4173:	73 10                	jae    4185 <tinput_read_i+0xce5>
    4175:	8d 76 00             	lea    0x0(%esi),%esi
    4178:	8b 4c b7 0c          	mov    0xc(%edi,%esi,4),%ecx
    417c:	89 4c b7 08          	mov    %ecx,0x8(%edi,%esi,4)
    4180:	46                   	inc    %esi
    4181:	39 c6                	cmp    %eax,%esi
    4183:	72 f3                	jb     4178 <tinput_read_i+0xcd8>
    4185:	48                   	dec    %eax
    4186:	8d 4a ff             	lea    -0x1(%edx),%ecx
    4189:	83 ec 0c             	sub    $0xc,%esp
    418c:	89 8f 24 10 00 00    	mov    %ecx,0x1024(%edi)
    4192:	89 87 20 10 00 00    	mov    %eax,0x1020(%edi)
    4198:	c7 44 87 0c 00 00 00 	movl   $0x0,0xc(%edi,%eax,4)
    419f:	00 
    41a0:	89 8f 28 10 00 00    	mov    %ecx,0x1028(%edi)
    41a6:	89 4d 9c             	mov    %ecx,-0x64(%ebp)
    41a9:	68 04 10 00 00       	push   $0x1004
    41ae:	e8 cd 4b 00 00       	call   8d80 <malloc@plt>
    41b3:	83 c4 10             	add    $0x10,%esp
    41b6:	89 c6                	mov    %eax,%esi
    41b8:	85 c0                	test   %eax,%eax
    41ba:	8b 4d 9c             	mov    -0x64(%ebp),%ecx
    41bd:	0f 84 68 01 00 00    	je     432b <tinput_read_i+0xe8b>
    41c3:	8b 87 28 10 00 00    	mov    0x1028(%edi),%eax
    41c9:	8b 97 24 10 00 00    	mov    0x1024(%edi),%edx
    41cf:	89 55 98             	mov    %edx,-0x68(%ebp)
    41d2:	89 45 9c             	mov    %eax,-0x64(%ebp)
    41d5:	39 d0                	cmp    %edx,%eax
    41d7:	73 0b                	jae    41e4 <tinput_read_i+0xd44>
    41d9:	89 d0                	mov    %edx,%eax
    41db:	8b 55 9c             	mov    -0x64(%ebp),%edx
    41de:	89 55 98             	mov    %edx,-0x68(%ebp)
    41e1:	89 45 9c             	mov    %eax,-0x64(%ebp)
    41e4:	89 c8                	mov    %ecx,%eax
    41e6:	89 4d 94             	mov    %ecx,-0x6c(%ebp)
    41e9:	8b 8f 14 10 00 00    	mov    0x1014(%edi),%ecx
    41ef:	52                   	push   %edx
    41f0:	01 c8                	add    %ecx,%eax
    41f2:	31 d2                	xor    %edx,%edx
    41f4:	f7 b7 18 10 00 00    	divl   0x1018(%edi)
    41fa:	8b 0f                	mov    (%edi),%ecx
    41fc:	50                   	push   %eax
    41fd:	52                   	push   %edx
    41fe:	51                   	push   %ecx
    41ff:	e8 6c 4d 00 00       	call   8f70 <console_set_pos@plt>
    4204:	8b 0f                	mov    (%edi),%ecx
    4206:	58                   	pop    %eax
    4207:	5a                   	pop    %edx
    4208:	6a 00                	push   $0x0
    420a:	51                   	push   %ecx
    420b:	e8 d0 4c 00 00       	call   8ee0 <console_set_style@plt>
    4210:	8b 4d 94             	mov    -0x6c(%ebp),%ecx
    4213:	83 c4 10             	add    $0x10,%esp
    4216:	3b 4d 98             	cmp    -0x68(%ebp),%ecx
    4219:	73 37                	jae    4252 <tinput_read_i+0xdb2>
    421b:	8b 55 98             	mov    -0x68(%ebp),%edx
    421e:	50                   	push   %eax
    421f:	8b 45 a0             	mov    -0x60(%ebp),%eax
    4222:	29 ca                	sub    %ecx,%edx
    4224:	c1 e2 02             	shl    $0x2,%edx
    4227:	8d 04 88             	lea    (%eax,%ecx,4),%eax
    422a:	52                   	push   %edx
    422b:	89 55 94             	mov    %edx,-0x6c(%ebp)
    422e:	50                   	push   %eax
    422f:	56                   	push   %esi
    4230:	e8 2b 4b 00 00       	call   8d60 <memcpy@plt>
    4235:	8b 55 94             	mov    -0x6c(%ebp),%edx
    4238:	c7 04 16 00 00 00 00 	movl   $0x0,(%esi,%edx,1)
    423f:	58                   	pop    %eax
    4240:	5a                   	pop    %edx
    4241:	56                   	push   %esi
    4242:	68 bf 85 00 00       	push   $0x85bf
    4247:	e8 64 4a 00 00       	call   8cb0 <printf@plt>
    424c:	83 c4 10             	add    $0x10,%esp
    424f:	8b 4d 98             	mov    -0x68(%ebp),%ecx
    4252:	3b 4d 9c             	cmp    -0x64(%ebp),%ecx
    4255:	73 56                	jae    42ad <tinput_read_i+0xe0d>
    4257:	83 ec 0c             	sub    $0xc,%esp
    425a:	8b 07                	mov    (%edi),%eax
    425c:	89 4d 98             	mov    %ecx,-0x68(%ebp)
    425f:	50                   	push   %eax
    4260:	e8 db 4c 00 00       	call   8f40 <console_flush@plt>
    4265:	8b 0f                	mov    (%edi),%ecx
    4267:	58                   	pop    %eax
    4268:	5a                   	pop    %edx
    4269:	6a 03                	push   $0x3
    426b:	51                   	push   %ecx
    426c:	e8 6f 4c 00 00       	call   8ee0 <console_set_style@plt>
    4271:	8b 4d 98             	mov    -0x68(%ebp),%ecx
    4274:	8b 55 9c             	mov    -0x64(%ebp),%edx
    4277:	8b 45 a0             	mov    -0x60(%ebp),%eax
    427a:	83 c4 0c             	add    $0xc,%esp
    427d:	29 ca                	sub    %ecx,%edx
    427f:	c1 e2 02             	shl    $0x2,%edx
    4282:	8d 04 88             	lea    (%eax,%ecx,4),%eax
    4285:	52                   	push   %edx
    4286:	89 55 98             	mov    %edx,-0x68(%ebp)
    4289:	50                   	push   %eax
    428a:	56                   	push   %esi
    428b:	e8 d0 4a 00 00       	call   8d60 <memcpy@plt>
    4290:	8b 55 98             	mov    -0x68(%ebp),%edx
    4293:	c7 04 16 00 00 00 00 	movl   $0x0,(%esi,%edx,1)
    429a:	58                   	pop    %eax
    429b:	5a                   	pop    %edx
    429c:	56                   	push   %esi
    429d:	68 bf 85 00 00       	push   $0x85bf
    42a2:	e8 09 4a 00 00       	call   8cb0 <printf@plt>
    42a7:	83 c4 10             	add    $0x10,%esp
    42aa:	8b 4d 9c             	mov    -0x64(%ebp),%ecx
    42ad:	83 ec 0c             	sub    $0xc,%esp
    42b0:	8b 07                	mov    (%edi),%eax
    42b2:	89 4d 9c             	mov    %ecx,-0x64(%ebp)
    42b5:	50                   	push   %eax
    42b6:	e8 85 4c 00 00       	call   8f40 <console_flush@plt>
    42bb:	8b 0f                	mov    (%edi),%ecx
    42bd:	58                   	pop    %eax
    42be:	5a                   	pop    %edx
    42bf:	6a 00                	push   $0x0
    42c1:	51                   	push   %ecx
    42c2:	e8 19 4c 00 00       	call   8ee0 <console_set_style@plt>
    42c7:	8b 87 20 10 00 00    	mov    0x1020(%edi),%eax
    42cd:	8b 4d 9c             	mov    -0x64(%ebp),%ecx
    42d0:	83 c4 10             	add    $0x10,%esp
    42d3:	39 c8                	cmp    %ecx,%eax
    42d5:	76 36                	jbe    430d <tinput_read_i+0xe6d>
    42d7:	29 c8                	sub    %ecx,%eax
    42d9:	52                   	push   %edx
    42da:	c1 e0 02             	shl    $0x2,%eax
    42dd:	50                   	push   %eax
    42de:	8b 45 a0             	mov    -0x60(%ebp),%eax
    42e1:	8d 04 88             	lea    (%eax,%ecx,4),%eax
    42e4:	50                   	push   %eax
    42e5:	56                   	push   %esi
    42e6:	e8 75 4a 00 00       	call   8d60 <memcpy@plt>
    42eb:	8b 87 20 10 00 00    	mov    0x1020(%edi),%eax
    42f1:	8b 4d 9c             	mov    -0x64(%ebp),%ecx
    42f4:	29 c8                	sub    %ecx,%eax
    42f6:	c7 04 86 00 00 00 00 	movl   $0x0,(%esi,%eax,4)
    42fd:	59                   	pop    %ecx
    42fe:	58                   	pop    %eax
    42ff:	56                   	push   %esi
    4300:	68 bf 85 00 00       	push   $0x85bf
    4305:	e8 a6 49 00 00       	call   8cb0 <printf@plt>
    430a:	83 c4 10             	add    $0x10,%esp
    430d:	83 ec 0c             	sub    $0xc,%esp
    4310:	6a 20                	push   $0x20
    4312:	e8 39 49 00 00       	call   8c50 <putchar@plt>
    4317:	58                   	pop    %eax
    4318:	8b 07                	mov    (%edi),%eax
    431a:	50                   	push   %eax
    431b:	e8 20 4c 00 00       	call   8f40 <console_flush@plt>
    4320:	89 34 24             	mov    %esi,(%esp)
    4323:	e8 b8 4c 00 00       	call   8fe0 <free@plt>
    4328:	83 c4 10             	add    $0x10,%esp
    432b:	8b 87 24 10 00 00    	mov    0x1024(%edi),%eax
    4331:	8b b7 14 10 00 00    	mov    0x1014(%edi),%esi
    4337:	01 f0                	add    %esi,%eax
    4339:	52                   	push   %edx
    433a:	e9 50 fb ff ff       	jmp    3e8f <tinput_read_i+0x9ef>
    433f:	83 fa 54             	cmp    $0x54,%edx
    4342:	0f 85 e0 f3 ff ff    	jne    3728 <tinput_read_i+0x288>
    4348:	8b 87 24 10 00 00    	mov    0x1024(%edi),%eax
    434e:	8b 97 18 10 00 00    	mov    0x1018(%edi),%edx
    4354:	39 c2                	cmp    %eax,%edx
    4356:	0f 87 48 f6 ff ff    	ja     39a4 <tinput_read_i+0x504>
    435c:	29 d0                	sub    %edx,%eax
    435e:	89 87 24 10 00 00    	mov    %eax,0x1024(%edi)
    4364:	e9 3b f6 ff ff       	jmp    39a4 <tinput_read_i+0x504>
    4369:	8b 87 20 10 00 00    	mov    0x1020(%edi),%eax
    436f:	89 87 24 10 00 00    	mov    %eax,0x1024(%edi)
    4375:	e9 8d f5 ff ff       	jmp    3907 <tinput_read_i+0x467>
    437a:	c7 87 24 10 00 00 00 	movl   $0x0,0x1024(%edi)
    4381:	00 00 00 
    4384:	e9 7e f5 ff ff       	jmp    3907 <tinput_read_i+0x467>
    4389:	8b 87 24 10 00 00    	mov    0x1024(%edi),%eax
    438f:	8b 97 18 10 00 00    	mov    0x1018(%edi),%edx
    4395:	01 d0                	add    %edx,%eax
    4397:	3b 87 20 10 00 00    	cmp    0x1020(%edi),%eax
    439d:	0f 87 64 f5 ff ff    	ja     3907 <tinput_read_i+0x467>
    43a3:	eb ca                	jmp    436f <tinput_read_i+0xecf>
    43a5:	8b 87 24 10 00 00    	mov    0x1024(%edi),%eax
    43ab:	85 c0                	test   %eax,%eax
    43ad:	0f 84 54 f5 ff ff    	je     3907 <tinput_read_i+0x467>
    43b3:	48                   	dec    %eax
    43b4:	89 87 24 10 00 00    	mov    %eax,0x1024(%edi)
    43ba:	e9 48 f5 ff ff       	jmp    3907 <tinput_read_i+0x467>
    43bf:	8b 87 24 10 00 00    	mov    0x1024(%edi),%eax
    43c5:	39 87 20 10 00 00    	cmp    %eax,0x1020(%edi)
    43cb:	0f 86 36 f5 ff ff    	jbe    3907 <tinput_read_i+0x467>
    43d1:	40                   	inc    %eax
    43d2:	89 87 24 10 00 00    	mov    %eax,0x1024(%edi)
    43d8:	e9 2a f5 ff ff       	jmp    3907 <tinput_read_i+0x467>
    43dd:	c6 87 60 10 00 00 01 	movb   $0x1,0x1060(%edi)
    43e4:	c6 87 61 10 00 00 01 	movb   $0x1,0x1061(%edi)
    43eb:	e9 24 f3 ff ff       	jmp    3714 <tinput_read_i+0x274>
    43f0:	8b b7 28 10 00 00    	mov    0x1028(%edi),%esi
    43f6:	8b 97 24 10 00 00    	mov    0x1024(%edi),%edx
    43fc:	39 d6                	cmp    %edx,%esi
    43fe:	0f 82 0f 05 00 00    	jb     4913 <tinput_read_i+0x1473>
    4404:	0f 85 03 05 00 00    	jne    490d <tinput_read_i+0x146d>
    440a:	83 ec 0c             	sub    $0xc,%esp
    440d:	8d 45 c0             	lea    -0x40(%ebp),%eax
    4410:	50                   	push   %eax
    4411:	e8 7a 4a 00 00       	call   8e90 <clipboard_get_str@plt>
    4416:	83 c4 10             	add    $0x10,%esp
    4419:	85 c0                	test   %eax,%eax
    441b:	0f 85 93 00 00 00    	jne    44b4 <tinput_read_i+0x1014>
    4421:	8b 55 c0             	mov    -0x40(%ebp),%edx
    4424:	85 d2                	test   %edx,%edx
    4426:	0f 84 88 00 00 00    	je     44b4 <tinput_read_i+0x1014>
    442c:	89 f8                	mov    %edi,%eax
    442e:	e8 0d ed ff ff       	call   3140 <tinput_insert_string>
    4433:	83 ec 0c             	sub    $0xc,%esp
    4436:	8b 4d c0             	mov    -0x40(%ebp),%ecx
    4439:	51                   	push   %ecx
    443a:	e8 a1 4b 00 00       	call   8fe0 <free@plt>
    443f:	8b 45 e0             	mov    -0x20(%ebp),%eax
    4442:	83 c4 10             	add    $0x10,%esp
    4445:	e9 ca f2 ff ff       	jmp    3714 <tinput_read_i+0x274>
    444a:	8b 97 28 10 00 00    	mov    0x1028(%edi),%edx
    4450:	8b 87 24 10 00 00    	mov    0x1024(%edi),%eax
    4456:	39 c2                	cmp    %eax,%edx
    4458:	73 06                	jae    4460 <tinput_read_i+0xfc0>
    445a:	89 c1                	mov    %eax,%ecx
    445c:	89 d0                	mov    %edx,%eax
    445e:	89 ca                	mov    %ecx,%edx
    4460:	39 97 20 10 00 00    	cmp    %edx,0x1020(%edi)
    4466:	0f 86 35 05 00 00    	jbe    49a1 <tinput_read_i+0x1501>
    446c:	8d 34 97             	lea    (%edi,%edx,4),%esi
    446f:	83 ec 0c             	sub    $0xc,%esp
    4472:	8b 4e 0c             	mov    0xc(%esi),%ecx
    4475:	c7 46 0c 00 00 00 00 	movl   $0x0,0xc(%esi)
    447c:	89 4d 9c             	mov    %ecx,-0x64(%ebp)
    447f:	8b 4d a0             	mov    -0x60(%ebp),%ecx
    4482:	8d 04 81             	lea    (%ecx,%eax,4),%eax
    4485:	50                   	push   %eax
    4486:	e8 85 4a 00 00       	call   8f10 <wstr_to_astr@plt>
    448b:	8b 4d 9c             	mov    -0x64(%ebp),%ecx
    448e:	89 c2                	mov    %eax,%edx
    4490:	89 4e 0c             	mov    %ecx,0xc(%esi)
    4493:	83 c4 10             	add    $0x10,%esp
    4496:	85 d2                	test   %edx,%edx
    4498:	74 1a                	je     44b4 <tinput_read_i+0x1014>
    449a:	83 ec 0c             	sub    $0xc,%esp
    449d:	89 55 9c             	mov    %edx,-0x64(%ebp)
    44a0:	52                   	push   %edx
    44a1:	e8 7a 49 00 00       	call   8e20 <clipboard_put_str@plt>
    44a6:	83 c4 10             	add    $0x10,%esp
    44a9:	8b 55 9c             	mov    -0x64(%ebp),%edx
    44ac:	85 c0                	test   %eax,%eax
    44ae:	0f 84 9a 05 00 00    	je     4a4e <tinput_read_i+0x15ae>
    44b4:	8b 45 e0             	mov    -0x20(%ebp),%eax
    44b7:	e9 58 f2 ff ff       	jmp    3714 <tinput_read_i+0x274>
    44bc:	8b 97 28 10 00 00    	mov    0x1028(%edi),%edx
    44c2:	8b 87 24 10 00 00    	mov    0x1024(%edi),%eax
    44c8:	39 c2                	cmp    %eax,%edx
    44ca:	73 06                	jae    44d2 <tinput_read_i+0x1032>
    44cc:	89 c1                	mov    %eax,%ecx
    44ce:	89 d0                	mov    %edx,%eax
    44d0:	89 ca                	mov    %ecx,%edx
    44d2:	39 97 20 10 00 00    	cmp    %edx,0x1020(%edi)
    44d8:	0f 86 57 05 00 00    	jbe    4a35 <tinput_read_i+0x1595>
    44de:	8d 34 97             	lea    (%edi,%edx,4),%esi
    44e1:	83 ec 0c             	sub    $0xc,%esp
    44e4:	8b 4e 0c             	mov    0xc(%esi),%ecx
    44e7:	c7 46 0c 00 00 00 00 	movl   $0x0,0xc(%esi)
    44ee:	89 4d 9c             	mov    %ecx,-0x64(%ebp)
    44f1:	8b 4d a0             	mov    -0x60(%ebp),%ecx
    44f4:	8d 04 81             	lea    (%ecx,%eax,4),%eax
    44f7:	50                   	push   %eax
    44f8:	e8 13 4a 00 00       	call   8f10 <wstr_to_astr@plt>
    44fd:	8b 4d 9c             	mov    -0x64(%ebp),%ecx
    4500:	89 c2                	mov    %eax,%edx
    4502:	89 4e 0c             	mov    %ecx,0xc(%esi)
    4505:	83 c4 10             	add    $0x10,%esp
    4508:	85 d2                	test   %edx,%edx
    450a:	74 22                	je     452e <tinput_read_i+0x108e>
    450c:	83 ec 0c             	sub    $0xc,%esp
    450f:	89 55 9c             	mov    %edx,-0x64(%ebp)
    4512:	52                   	push   %edx
    4513:	e8 08 49 00 00       	call   8e20 <clipboard_put_str@plt>
    4518:	83 c4 10             	add    $0x10,%esp
    451b:	8b 55 9c             	mov    -0x64(%ebp),%edx
    451e:	85 c0                	test   %eax,%eax
    4520:	75 0c                	jne    452e <tinput_read_i+0x108e>
    4522:	83 ec 0c             	sub    $0xc,%esp
    4525:	52                   	push   %edx
    4526:	e8 b5 4a 00 00       	call   8fe0 <free@plt>
    452b:	83 c4 10             	add    $0x10,%esp
    452e:	8b b7 28 10 00 00    	mov    0x1028(%edi),%esi
    4534:	8b 97 24 10 00 00    	mov    0x1024(%edi),%edx
    453a:	39 d6                	cmp    %edx,%esi
    453c:	72 0c                	jb     454a <tinput_read_i+0x10aa>
    453e:	0f 84 70 ff ff ff    	je     44b4 <tinput_read_i+0x1014>
    4544:	89 f0                	mov    %esi,%eax
    4546:	89 d6                	mov    %edx,%esi
    4548:	89 c2                	mov    %eax,%edx
    454a:	50                   	push   %eax
    454b:	8b 4d a0             	mov    -0x60(%ebp),%ecx
    454e:	8b 87 20 10 00 00    	mov    0x1020(%edi),%eax
    4554:	89 55 9c             	mov    %edx,-0x64(%ebp)
    4557:	29 d0                	sub    %edx,%eax
    4559:	c1 e0 02             	shl    $0x2,%eax
    455c:	50                   	push   %eax
    455d:	8d 04 91             	lea    (%ecx,%edx,4),%eax
    4560:	50                   	push   %eax
    4561:	8d 04 b1             	lea    (%ecx,%esi,4),%eax
    4564:	50                   	push   %eax
    4565:	e8 66 47 00 00       	call   8cd0 <memmove@plt>
    456a:	8b 87 20 10 00 00    	mov    0x1020(%edi),%eax
    4570:	8b 55 9c             	mov    -0x64(%ebp),%edx
    4573:	01 f0                	add    %esi,%eax
    4575:	89 d1                	mov    %edx,%ecx
    4577:	29 d0                	sub    %edx,%eax
    4579:	89 b7 28 10 00 00    	mov    %esi,0x1028(%edi)
    457f:	89 87 20 10 00 00    	mov    %eax,0x1020(%edi)
    4585:	89 b7 24 10 00 00    	mov    %esi,0x1024(%edi)
    458b:	89 f2                	mov    %esi,%edx
    458d:	c7 44 87 0c 00 00 00 	movl   $0x0,0xc(%edi,%eax,4)
    4594:	00 
    4595:	29 f1                	sub    %esi,%ecx
    4597:	89 f8                	mov    %edi,%eax
    4599:	e8 f2 e6 ff ff       	call   2c90 <tinput_display_tail>
    459e:	8b 87 24 10 00 00    	mov    0x1024(%edi),%eax
    45a4:	8b 97 14 10 00 00    	mov    0x1014(%edi),%edx
    45aa:	83 c4 0c             	add    $0xc,%esp
    45ad:	01 d0                	add    %edx,%eax
    45af:	31 d2                	xor    %edx,%edx
    45b1:	f7 b7 18 10 00 00    	divl   0x1018(%edi)
    45b7:	8b 0f                	mov    (%edi),%ecx
    45b9:	50                   	push   %eax
    45ba:	52                   	push   %edx
    45bb:	51                   	push   %ecx
    45bc:	e8 af 49 00 00       	call   8f70 <console_set_pos@plt>
    45c1:	8b 45 e0             	mov    -0x20(%ebp),%eax
    45c4:	83 c4 10             	add    $0x10,%esp
    45c7:	e9 48 f1 ff ff       	jmp    3714 <tinput_read_i+0x274>
    45cc:	8b 87 20 10 00 00    	mov    0x1020(%edi),%eax
    45d2:	c7 87 28 10 00 00 00 	movl   $0x0,0x1028(%edi)
    45d9:	00 00 00 
    45dc:	89 87 24 10 00 00    	mov    %eax,0x1024(%edi)
    45e2:	31 d2                	xor    %edx,%edx
    45e4:	89 f8                	mov    %edi,%eax
    45e6:	e8 b5 e9 ff ff       	call   2fa0 <tinput_display_tail.constprop.12>
    45eb:	8b 87 24 10 00 00    	mov    0x1024(%edi),%eax
    45f1:	8b b7 14 10 00 00    	mov    0x1014(%edi),%esi
    45f7:	52                   	push   %edx
    45f8:	01 f0                	add    %esi,%eax
    45fa:	eb b3                	jmp    45af <tinput_read_i+0x110f>
    45fc:	8b 97 24 10 00 00    	mov    0x1024(%edi),%edx
    4602:	8b 87 28 10 00 00    	mov    0x1028(%edi),%eax
    4608:	39 c2                	cmp    %eax,%edx
    460a:	74 39                	je     4645 <tinput_read_i+0x11a5>
    460c:	89 97 28 10 00 00    	mov    %edx,0x1028(%edi)
    4612:	89 f8                	mov    %edi,%eax
    4614:	31 d2                	xor    %edx,%edx
    4616:	e8 85 e9 ff ff       	call   2fa0 <tinput_display_tail.constprop.12>
    461b:	8b 97 14 10 00 00    	mov    0x1014(%edi),%edx
    4621:	8b 87 24 10 00 00    	mov    0x1024(%edi),%eax
    4627:	51                   	push   %ecx
    4628:	01 d0                	add    %edx,%eax
    462a:	31 d2                	xor    %edx,%edx
    462c:	f7 b7 18 10 00 00    	divl   0x1018(%edi)
    4632:	8b 37                	mov    (%edi),%esi
    4634:	50                   	push   %eax
    4635:	52                   	push   %edx
    4636:	56                   	push   %esi
    4637:	e8 34 49 00 00       	call   8f70 <console_set_pos@plt>
    463c:	8b 87 24 10 00 00    	mov    0x1024(%edi),%eax
    4642:	83 c4 10             	add    $0x10,%esp
    4645:	8b 97 20 10 00 00    	mov    0x1020(%edi),%edx
    464b:	39 c2                	cmp    %eax,%edx
    464d:	0f 84 61 fe ff ff    	je     44b4 <tinput_read_i+0x1014>
    4653:	40                   	inc    %eax
    4654:	39 c2                	cmp    %eax,%edx
    4656:	0f 84 4e 02 00 00    	je     48aa <tinput_read_i+0x140a>
    465c:	83 7c 87 08 20       	cmpl   $0x20,0x8(%edi,%eax,4)
    4661:	75 f0                	jne    4653 <tinput_read_i+0x11b3>
    4663:	83 7c 87 0c 20       	cmpl   $0x20,0xc(%edi,%eax,4)
    4668:	74 e9                	je     4653 <tinput_read_i+0x11b3>
    466a:	89 87 24 10 00 00    	mov    %eax,0x1024(%edi)
    4670:	89 c2                	mov    %eax,%edx
    4672:	89 97 28 10 00 00    	mov    %edx,0x1028(%edi)
    4678:	89 d0                	mov    %edx,%eax
    467a:	e9 72 ff ff ff       	jmp    45f1 <tinput_read_i+0x1151>
    467f:	8b 97 24 10 00 00    	mov    0x1024(%edi),%edx
    4685:	8b 87 28 10 00 00    	mov    0x1028(%edi),%eax
    468b:	39 c2                	cmp    %eax,%edx
    468d:	74 39                	je     46c8 <tinput_read_i+0x1228>
    468f:	89 97 28 10 00 00    	mov    %edx,0x1028(%edi)
    4695:	89 f8                	mov    %edi,%eax
    4697:	31 d2                	xor    %edx,%edx
    4699:	e8 02 e9 ff ff       	call   2fa0 <tinput_display_tail.constprop.12>
    469e:	8b 87 24 10 00 00    	mov    0x1024(%edi),%eax
    46a4:	8b 8f 14 10 00 00    	mov    0x1014(%edi),%ecx
    46aa:	31 d2                	xor    %edx,%edx
    46ac:	56                   	push   %esi
    46ad:	01 c8                	add    %ecx,%eax
    46af:	f7 b7 18 10 00 00    	divl   0x1018(%edi)
    46b5:	50                   	push   %eax
    46b6:	8b 07                	mov    (%edi),%eax
    46b8:	52                   	push   %edx
    46b9:	50                   	push   %eax
    46ba:	e8 b1 48 00 00       	call   8f70 <console_set_pos@plt>
    46bf:	8b 87 24 10 00 00    	mov    0x1024(%edi),%eax
    46c5:	83 c4 10             	add    $0x10,%esp
    46c8:	8b 8f 18 10 00 00    	mov    0x1018(%edi),%ecx
    46ce:	8d 14 01             	lea    (%ecx,%eax,1),%edx
    46d1:	3b 97 20 10 00 00    	cmp    0x1020(%edi),%edx
    46d7:	77 08                	ja     46e1 <tinput_read_i+0x1241>
    46d9:	89 97 24 10 00 00    	mov    %edx,0x1024(%edi)
    46df:	89 d0                	mov    %edx,%eax
    46e1:	8b b7 14 10 00 00    	mov    0x1014(%edi),%esi
    46e7:	89 87 28 10 00 00    	mov    %eax,0x1028(%edi)
    46ed:	01 f0                	add    %esi,%eax
    46ef:	52                   	push   %edx
    46f0:	31 d2                	xor    %edx,%edx
    46f2:	f7 f1                	div    %ecx
    46f4:	e9 be fe ff ff       	jmp    45b7 <tinput_read_i+0x1117>
    46f9:	8b 97 24 10 00 00    	mov    0x1024(%edi),%edx
    46ff:	8b 87 28 10 00 00    	mov    0x1028(%edi),%eax
    4705:	39 c2                	cmp    %eax,%edx
    4707:	74 39                	je     4742 <tinput_read_i+0x12a2>
    4709:	89 97 28 10 00 00    	mov    %edx,0x1028(%edi)
    470f:	89 f8                	mov    %edi,%eax
    4711:	31 d2                	xor    %edx,%edx
    4713:	e8 88 e8 ff ff       	call   2fa0 <tinput_display_tail.constprop.12>
    4718:	8b 97 14 10 00 00    	mov    0x1014(%edi),%edx
    471e:	8b 87 24 10 00 00    	mov    0x1024(%edi),%eax
    4724:	51                   	push   %ecx
    4725:	01 d0                	add    %edx,%eax
    4727:	31 d2                	xor    %edx,%edx
    4729:	f7 b7 18 10 00 00    	divl   0x1018(%edi)
    472f:	8b 37                	mov    (%edi),%esi
    4731:	50                   	push   %eax
    4732:	52                   	push   %edx
    4733:	56                   	push   %esi
    4734:	e8 37 48 00 00       	call   8f70 <console_set_pos@plt>
    4739:	8b 87 24 10 00 00    	mov    0x1024(%edi),%eax
    473f:	83 c4 10             	add    $0x10,%esp
    4742:	85 c0                	test   %eax,%eax
    4744:	0f 84 6a fd ff ff    	je     44b4 <tinput_read_i+0x1014>
    474a:	48                   	dec    %eax
    474b:	0f 84 41 02 00 00    	je     4992 <tinput_read_i+0x14f2>
    4751:	83 7c 87 08 20       	cmpl   $0x20,0x8(%edi,%eax,4)
    4756:	75 f2                	jne    474a <tinput_read_i+0x12aa>
    4758:	83 7c 87 0c 20       	cmpl   $0x20,0xc(%edi,%eax,4)
    475d:	74 eb                	je     474a <tinput_read_i+0x12aa>
    475f:	89 87 24 10 00 00    	mov    %eax,0x1024(%edi)
    4765:	89 87 28 10 00 00    	mov    %eax,0x1028(%edi)
    476b:	e9 81 fe ff ff       	jmp    45f1 <tinput_read_i+0x1151>
    4770:	8b 97 24 10 00 00    	mov    0x1024(%edi),%edx
    4776:	8b 87 28 10 00 00    	mov    0x1028(%edi),%eax
    477c:	39 c2                	cmp    %eax,%edx
    477e:	74 39                	je     47b9 <tinput_read_i+0x1319>
    4780:	89 97 28 10 00 00    	mov    %edx,0x1028(%edi)
    4786:	89 f8                	mov    %edi,%eax
    4788:	31 d2                	xor    %edx,%edx
    478a:	e8 11 e8 ff ff       	call   2fa0 <tinput_display_tail.constprop.12>
    478f:	8b 97 14 10 00 00    	mov    0x1014(%edi),%edx
    4795:	8b 87 24 10 00 00    	mov    0x1024(%edi),%eax
    479b:	51                   	push   %ecx
    479c:	01 d0                	add    %edx,%eax
    479e:	31 d2                	xor    %edx,%edx
    47a0:	f7 b7 18 10 00 00    	divl   0x1018(%edi)
    47a6:	8b 37                	mov    (%edi),%esi
    47a8:	50                   	push   %eax
    47a9:	52                   	push   %edx
    47aa:	56                   	push   %esi
    47ab:	e8 c0 47 00 00       	call   8f70 <console_set_pos@plt>
    47b0:	8b 87 24 10 00 00    	mov    0x1024(%edi),%eax
    47b6:	83 c4 10             	add    $0x10,%esp
    47b9:	8b 8f 18 10 00 00    	mov    0x1018(%edi),%ecx
    47bf:	39 c1                	cmp    %eax,%ecx
    47c1:	0f 87 1a ff ff ff    	ja     46e1 <tinput_read_i+0x1241>
    47c7:	29 c8                	sub    %ecx,%eax
    47c9:	89 87 24 10 00 00    	mov    %eax,0x1024(%edi)
    47cf:	e9 0d ff ff ff       	jmp    46e1 <tinput_read_i+0x1241>
    47d4:	c7 45 a4 ff ff ff ff 	movl   $0xffffffff,-0x5c(%ebp)
    47db:	e9 e7 f0 ff ff       	jmp    38c7 <tinput_read_i+0x427>
    47e0:	8b 87 24 10 00 00    	mov    0x1024(%edi),%eax
    47e6:	8b b7 18 10 00 00    	mov    0x1018(%edi),%esi
    47ec:	01 f0                	add    %esi,%eax
    47ee:	3b 87 20 10 00 00    	cmp    0x1020(%edi),%eax
    47f4:	0f 87 aa f1 ff ff    	ja     39a4 <tinput_read_i+0x504>
    47fa:	89 87 24 10 00 00    	mov    %eax,0x1024(%edi)
    4800:	e9 9f f1 ff ff       	jmp    39a4 <tinput_read_i+0x504>
    4805:	8b 97 24 10 00 00    	mov    0x1024(%edi),%edx
    480b:	85 d2                	test   %edx,%edx
    480d:	0f 84 4f 02 00 00    	je     4a62 <tinput_read_i+0x15c2>
    4813:	4a                   	dec    %edx
    4814:	0f 84 0c 02 00 00    	je     4a26 <tinput_read_i+0x1586>
    481a:	83 7c 97 08 20       	cmpl   $0x20,0x8(%edi,%edx,4)
    481f:	75 f2                	jne    4813 <tinput_read_i+0x1373>
    4821:	83 7c 97 0c 20       	cmpl   $0x20,0xc(%edi,%edx,4)
    4826:	74 eb                	je     4813 <tinput_read_i+0x1373>
    4828:	e9 71 f1 ff ff       	jmp    399e <tinput_read_i+0x4fe>
    482d:	76 06                	jbe    4835 <tinput_read_i+0x1395>
    482f:	89 f0                	mov    %esi,%eax
    4831:	89 d6                	mov    %edx,%esi
    4833:	89 c2                	mov    %eax,%edx
    4835:	51                   	push   %ecx
    4836:	8b 4d a0             	mov    -0x60(%ebp),%ecx
    4839:	8b 87 20 10 00 00    	mov    0x1020(%edi),%eax
    483f:	89 55 9c             	mov    %edx,-0x64(%ebp)
    4842:	29 d0                	sub    %edx,%eax
    4844:	c1 e0 02             	shl    $0x2,%eax
    4847:	50                   	push   %eax
    4848:	8d 04 91             	lea    (%ecx,%edx,4),%eax
    484b:	50                   	push   %eax
    484c:	8d 04 b1             	lea    (%ecx,%esi,4),%eax
    484f:	50                   	push   %eax
    4850:	e8 7b 44 00 00       	call   8cd0 <memmove@plt>
    4855:	8b 87 20 10 00 00    	mov    0x1020(%edi),%eax
    485b:	8b 55 9c             	mov    -0x64(%ebp),%edx
    485e:	01 f0                	add    %esi,%eax
    4860:	89 d1                	mov    %edx,%ecx
    4862:	29 d0                	sub    %edx,%eax
    4864:	89 b7 28 10 00 00    	mov    %esi,0x1028(%edi)
    486a:	89 b7 24 10 00 00    	mov    %esi,0x1024(%edi)
    4870:	89 87 20 10 00 00    	mov    %eax,0x1020(%edi)
    4876:	29 f1                	sub    %esi,%ecx
    4878:	c7 44 87 0c 00 00 00 	movl   $0x0,0xc(%edi,%eax,4)
    487f:	00 
    4880:	89 f2                	mov    %esi,%edx
    4882:	89 f8                	mov    %edi,%eax
    4884:	e8 07 e4 ff ff       	call   2c90 <tinput_display_tail>
    4889:	8b 87 24 10 00 00    	mov    0x1024(%edi),%eax
    488f:	8b 97 14 10 00 00    	mov    0x1014(%edi),%edx
    4895:	83 c4 0c             	add    $0xc,%esp
    4898:	01 d0                	add    %edx,%eax
    489a:	e9 f0 f5 ff ff       	jmp    3e8f <tinput_read_i+0x9ef>
    489f:	89 8f 24 10 00 00    	mov    %ecx,0x1024(%edi)
    48a5:	e9 fa f0 ff ff       	jmp    39a4 <tinput_read_i+0x504>
    48aa:	89 97 24 10 00 00    	mov    %edx,0x1024(%edi)
    48b0:	e9 bd fd ff ff       	jmp    4672 <tinput_read_i+0x11d2>
    48b5:	76 06                	jbe    48bd <tinput_read_i+0x141d>
    48b7:	89 d0                	mov    %edx,%eax
    48b9:	89 f2                	mov    %esi,%edx
    48bb:	89 c6                	mov    %eax,%esi
    48bd:	50                   	push   %eax
    48be:	8b 4d a0             	mov    -0x60(%ebp),%ecx
    48c1:	8b 87 20 10 00 00    	mov    0x1020(%edi),%eax
    48c7:	89 55 9c             	mov    %edx,-0x64(%ebp)
    48ca:	29 f0                	sub    %esi,%eax
    48cc:	c1 e0 02             	shl    $0x2,%eax
    48cf:	50                   	push   %eax
    48d0:	8d 04 b1             	lea    (%ecx,%esi,4),%eax
    48d3:	50                   	push   %eax
    48d4:	8d 04 91             	lea    (%ecx,%edx,4),%eax
    48d7:	50                   	push   %eax
    48d8:	e8 f3 43 00 00       	call   8cd0 <memmove@plt>
    48dd:	8b 55 9c             	mov    -0x64(%ebp),%edx
    48e0:	8b 87 20 10 00 00    	mov    0x1020(%edi),%eax
    48e6:	01 d0                	add    %edx,%eax
    48e8:	89 97 28 10 00 00    	mov    %edx,0x1028(%edi)
    48ee:	29 f0                	sub    %esi,%eax
    48f0:	29 d6                	sub    %edx,%esi
    48f2:	89 97 24 10 00 00    	mov    %edx,0x1024(%edi)
    48f8:	89 87 20 10 00 00    	mov    %eax,0x1020(%edi)
    48fe:	89 f1                	mov    %esi,%ecx
    4900:	c7 44 87 0c 00 00 00 	movl   $0x0,0xc(%edi,%eax,4)
    4907:	00 
    4908:	e9 75 ff ff ff       	jmp    4882 <tinput_read_i+0x13e2>
    490d:	89 f0                	mov    %esi,%eax
    490f:	89 d6                	mov    %edx,%esi
    4911:	89 c2                	mov    %eax,%edx
    4913:	50                   	push   %eax
    4914:	8b 4d a0             	mov    -0x60(%ebp),%ecx
    4917:	8b 87 20 10 00 00    	mov    0x1020(%edi),%eax
    491d:	89 55 9c             	mov    %edx,-0x64(%ebp)
    4920:	29 d0                	sub    %edx,%eax
    4922:	c1 e0 02             	shl    $0x2,%eax
    4925:	50                   	push   %eax
    4926:	8d 04 91             	lea    (%ecx,%edx,4),%eax
    4929:	50                   	push   %eax
    492a:	8d 04 b1             	lea    (%ecx,%esi,4),%eax
    492d:	50                   	push   %eax
    492e:	e8 9d 43 00 00       	call   8cd0 <memmove@plt>
    4933:	8b 87 20 10 00 00    	mov    0x1020(%edi),%eax
    4939:	8b 55 9c             	mov    -0x64(%ebp),%edx
    493c:	01 f0                	add    %esi,%eax
    493e:	89 d1                	mov    %edx,%ecx
    4940:	29 d0                	sub    %edx,%eax
    4942:	89 b7 28 10 00 00    	mov    %esi,0x1028(%edi)
    4948:	89 87 20 10 00 00    	mov    %eax,0x1020(%edi)
    494e:	89 b7 24 10 00 00    	mov    %esi,0x1024(%edi)
    4954:	29 f1                	sub    %esi,%ecx
    4956:	c7 44 87 0c 00 00 00 	movl   $0x0,0xc(%edi,%eax,4)
    495d:	00 
    495e:	89 f2                	mov    %esi,%edx
    4960:	89 f8                	mov    %edi,%eax
    4962:	e8 29 e3 ff ff       	call   2c90 <tinput_display_tail>
    4967:	8b 97 14 10 00 00    	mov    0x1014(%edi),%edx
    496d:	8b 87 24 10 00 00    	mov    0x1024(%edi),%eax
    4973:	83 c4 0c             	add    $0xc,%esp
    4976:	01 d0                	add    %edx,%eax
    4978:	31 d2                	xor    %edx,%edx
    497a:	f7 b7 18 10 00 00    	divl   0x1018(%edi)
    4980:	8b 0f                	mov    (%edi),%ecx
    4982:	50                   	push   %eax
    4983:	52                   	push   %edx
    4984:	51                   	push   %ecx
    4985:	e8 e6 45 00 00       	call   8f70 <console_set_pos@plt>
    498a:	83 c4 10             	add    $0x10,%esp
    498d:	e9 78 fa ff ff       	jmp    440a <tinput_read_i+0xf6a>
    4992:	c7 87 24 10 00 00 00 	movl   $0x0,0x1024(%edi)
    4999:	00 00 00 
    499c:	e9 c4 fd ff ff       	jmp    4765 <tinput_read_i+0x12c5>
    49a1:	8b 75 a0             	mov    -0x60(%ebp),%esi
    49a4:	83 ec 0c             	sub    $0xc,%esp
    49a7:	8d 04 86             	lea    (%esi,%eax,4),%eax
    49aa:	50                   	push   %eax
    49ab:	e8 60 45 00 00       	call   8f10 <wstr_to_astr@plt>
    49b0:	83 c4 10             	add    $0x10,%esp
    49b3:	89 c2                	mov    %eax,%edx
    49b5:	e9 dc fa ff ff       	jmp    4496 <tinput_read_i+0xff6>
    49ba:	8b 45 98             	mov    -0x68(%ebp),%eax
    49bd:	8b 75 84             	mov    -0x7c(%ebp),%esi
    49c0:	c7 45 88 00 00 00 00 	movl   $0x0,-0x78(%ebp)
    49c7:	8b 3c b0             	mov    (%eax,%esi,4),%edi
    49ca:	8b 00                	mov    (%eax),%eax
    49cc:	89 45 94             	mov    %eax,-0x6c(%ebp)
    49cf:	c7 45 bc 00 00 00 00 	movl   $0x0,-0x44(%ebp)
    49d6:	c7 45 c0 00 00 00 00 	movl   $0x0,-0x40(%ebp)
    49dd:	eb 10                	jmp    49ef <tinput_read_i+0x154f>
    49df:	90                   	nop
    49e0:	39 c6                	cmp    %eax,%esi
    49e2:	0f 85 a1 f3 ff ff    	jne    3d89 <tinput_read_i+0x8e9>
    49e8:	8b 45 88             	mov    -0x78(%ebp),%eax
    49eb:	40                   	inc    %eax
    49ec:	89 45 88             	mov    %eax,-0x78(%ebp)
    49ef:	50                   	push   %eax
    49f0:	8d 45 bc             	lea    -0x44(%ebp),%eax
    49f3:	6a ff                	push   $0xffffffff
    49f5:	50                   	push   %eax
    49f6:	8b 45 94             	mov    -0x6c(%ebp),%eax
    49f9:	50                   	push   %eax
    49fa:	e8 11 43 00 00       	call   8d10 <str_decode@plt>
    49ff:	83 c4 0c             	add    $0xc,%esp
    4a02:	89 c6                	mov    %eax,%esi
    4a04:	8b 45 9c             	mov    -0x64(%ebp),%eax
    4a07:	6a ff                	push   $0xffffffff
    4a09:	50                   	push   %eax
    4a0a:	57                   	push   %edi
    4a0b:	e8 00 43 00 00       	call   8d10 <str_decode@plt>
    4a10:	83 c4 10             	add    $0x10,%esp
    4a13:	85 f6                	test   %esi,%esi
    4a15:	0f 94 c1             	sete   %cl
    4a18:	85 c0                	test   %eax,%eax
    4a1a:	0f 94 c2             	sete   %dl
    4a1d:	08 d1                	or     %dl,%cl
    4a1f:	74 bf                	je     49e0 <tinput_read_i+0x1540>
    4a21:	e9 63 f3 ff ff       	jmp    3d89 <tinput_read_i+0x8e9>
    4a26:	c7 87 24 10 00 00 00 	movl   $0x0,0x1024(%edi)
    4a2d:	00 00 00 
    4a30:	e9 6f ef ff ff       	jmp    39a4 <tinput_read_i+0x504>
    4a35:	8b 75 a0             	mov    -0x60(%ebp),%esi
    4a38:	83 ec 0c             	sub    $0xc,%esp
    4a3b:	8d 04 86             	lea    (%esi,%eax,4),%eax
    4a3e:	50                   	push   %eax
    4a3f:	e8 cc 44 00 00       	call   8f10 <wstr_to_astr@plt>
    4a44:	83 c4 10             	add    $0x10,%esp
    4a47:	89 c2                	mov    %eax,%edx
    4a49:	e9 ba fa ff ff       	jmp    4508 <tinput_read_i+0x1068>
    4a4e:	83 ec 0c             	sub    $0xc,%esp
    4a51:	52                   	push   %edx
    4a52:	e8 89 45 00 00       	call   8fe0 <free@plt>
    4a57:	8b 45 e0             	mov    -0x20(%ebp),%eax
    4a5a:	83 c4 10             	add    $0x10,%esp
    4a5d:	e9 b2 ec ff ff       	jmp    3714 <tinput_read_i+0x274>
    4a62:	a8 3f                	test   $0x3f,%al
    4a64:	0f 85 c6 ec ff ff    	jne    3730 <tinput_read_i+0x290>
    4a6a:	8b 87 28 10 00 00    	mov    0x1028(%edi),%eax
    4a70:	85 c0                	test   %eax,%eax
    4a72:	0f 85 6d f6 ff ff    	jne    40e5 <tinput_read_i+0xc45>
    4a78:	e9 03 f4 ff ff       	jmp    3e80 <tinput_read_i+0x9e0>
    4a7d:	8d 76 00             	lea    0x0(%esi),%esi
    4a80:	8b 75 e4             	mov    -0x1c(%ebp),%esi
    4a83:	83 fe 1f             	cmp    $0x1f,%esi
    4a86:	0f 8e ac ea ff ff    	jle    3538 <tinput_read_i+0x98>
    4a8c:	e9 3e ed ff ff       	jmp    37cf <tinput_read_i+0x32f>
    4a91:	83 ec 0c             	sub    $0xc,%esp
    4a94:	8b 45 90             	mov    -0x70(%ebp),%eax
    4a97:	6a 00                	push   $0x0
    4a99:	68 70 2c 00 00       	push   $0x2c70
    4a9e:	6a 04                	push   $0x4
    4aa0:	50                   	push   %eax
    4aa1:	8b 45 98             	mov    -0x68(%ebp),%eax
    4aa4:	50                   	push   %eax
    4aa5:	e8 a6 42 00 00       	call   8d50 <qsort@plt>
    4aaa:	8b 97 14 10 00 00    	mov    0x1014(%edi),%edx
    4ab0:	8b 87 20 10 00 00    	mov    0x1020(%edi),%eax
    4ab6:	83 c4 1c             	add    $0x1c,%esp
    4ab9:	01 d0                	add    %edx,%eax
    4abb:	31 d2                	xor    %edx,%edx
    4abd:	8b 0f                	mov    (%edi),%ecx
    4abf:	f7 b7 18 10 00 00    	divl   0x1018(%edi)
    4ac5:	50                   	push   %eax
    4ac6:	52                   	push   %edx
    4ac7:	51                   	push   %ecx
    4ac8:	e8 a3 44 00 00       	call   8f70 <console_set_pos@plt>
    4acd:	8b 07                	mov    (%edi),%eax
    4acf:	5e                   	pop    %esi
    4ad0:	50                   	push   %eax
    4ad1:	e8 6a 44 00 00       	call   8f40 <console_flush@plt>
    4ad6:	c7 04 24 0a 00 00 00 	movl   $0xa,(%esp)
    4add:	e8 6e 41 00 00       	call   8c50 <putchar@plt>
    4ae2:	31 d2                	xor    %edx,%edx
    4ae4:	89 7d 08             	mov    %edi,0x8(%ebp)
    4ae7:	83 c4 10             	add    $0x10,%esp
    4aea:	31 f6                	xor    %esi,%esi
    4aec:	89 d7                	mov    %edx,%edi
    4aee:	8b 45 98             	mov    -0x68(%ebp),%eax
    4af1:	83 ec 0c             	sub    $0xc,%esp
    4af4:	8b 04 b8             	mov    (%eax,%edi,4),%eax
    4af7:	50                   	push   %eax
    4af8:	e8 03 42 00 00       	call   8d00 <str_width@plt>
    4afd:	83 c4 10             	add    $0x10,%esp
    4b00:	39 c6                	cmp    %eax,%esi
    4b02:	77 14                	ja     4b18 <tinput_read_i+0x1678>
    4b04:	8b 45 98             	mov    -0x68(%ebp),%eax
    4b07:	83 ec 0c             	sub    $0xc,%esp
    4b0a:	8b 0c b8             	mov    (%eax,%edi,4),%ecx
    4b0d:	51                   	push   %ecx
    4b0e:	e8 ed 41 00 00       	call   8d00 <str_width@plt>
    4b13:	83 c4 10             	add    $0x10,%esp
    4b16:	89 c6                	mov    %eax,%esi
    4b18:	47                   	inc    %edi
    4b19:	39 7d 90             	cmp    %edi,-0x70(%ebp)
    4b1c:	75 d0                	jne    4aee <tinput_read_i+0x164e>
    4b1e:	8b 7d 08             	mov    0x8(%ebp),%edi
    4b21:	31 d2                	xor    %edx,%edx
    4b23:	8d 4e 01             	lea    0x1(%esi),%ecx
    4b26:	8b 87 18 10 00 00    	mov    0x1018(%edi),%eax
    4b2c:	89 45 94             	mov    %eax,-0x6c(%ebp)
    4b2f:	40                   	inc    %eax
    4b30:	89 45 8c             	mov    %eax,-0x74(%ebp)
    4b33:	f7 f1                	div    %ecx
    4b35:	89 c2                	mov    %eax,%edx
    4b37:	85 c0                	test   %eax,%eax
    4b39:	0f 84 76 01 00 00    	je     4cb5 <tinput_read_i+0x1815>
    4b3f:	89 55 88             	mov    %edx,-0x78(%ebp)
    4b42:	8b 45 90             	mov    -0x70(%ebp),%eax
    4b45:	31 d2                	xor    %edx,%edx
    4b47:	f7 75 88             	divl   -0x78(%ebp)
    4b4a:	31 c0                	xor    %eax,%eax
    4b4c:	85 d2                	test   %edx,%edx
    4b4e:	0f 95 c0             	setne  %al
    4b51:	89 45 9c             	mov    %eax,-0x64(%ebp)
    4b54:	8b 55 88             	mov    -0x78(%ebp),%edx
    4b57:	31 c0                	xor    %eax,%eax
    4b59:	0f af ca             	imul   %edx,%ecx
    4b5c:	8d 51 ff             	lea    -0x1(%ecx),%edx
    4b5f:	39 55 94             	cmp    %edx,-0x6c(%ebp)
    4b62:	76 05                	jbe    4b69 <tinput_read_i+0x16c9>
    4b64:	8b 45 8c             	mov    -0x74(%ebp),%eax
    4b67:	29 c8                	sub    %ecx,%eax
    4b69:	8b 4d 88             	mov    -0x78(%ebp),%ecx
    4b6c:	31 d2                	xor    %edx,%edx
    4b6e:	f7 f1                	div    %ecx
    4b70:	01 f0                	add    %esi,%eax
    4b72:	31 d2                	xor    %edx,%edx
    4b74:	89 45 94             	mov    %eax,-0x6c(%ebp)
    4b77:	8b 45 90             	mov    -0x70(%ebp),%eax
    4b7a:	f7 f1                	div    %ecx
    4b7c:	03 45 9c             	add    -0x64(%ebp),%eax
    4b7f:	8d 71 ff             	lea    -0x1(%ecx),%esi
    4b82:	c7 85 7c ff ff ff 00 	movl   $0x0,-0x84(%ebp)
    4b89:	00 00 00 
    4b8c:	89 75 80             	mov    %esi,-0x80(%ebp)
    4b8f:	89 45 84             	mov    %eax,-0x7c(%ebp)
    4b92:	0f 84 00 01 00 00    	je     4c98 <tinput_read_i+0x17f8>
    4b98:	89 7d 08             	mov    %edi,0x8(%ebp)
    4b9b:	8b 85 7c ff ff ff    	mov    -0x84(%ebp),%eax
    4ba1:	8b 7d 94             	mov    -0x6c(%ebp),%edi
    4ba4:	89 45 94             	mov    %eax,-0x6c(%ebp)
    4ba7:	31 d2                	xor    %edx,%edx
    4ba9:	c7 45 9c 00 00 00 00 	movl   $0x0,-0x64(%ebp)
    4bb0:	8b 75 94             	mov    -0x6c(%ebp),%esi
    4bb3:	39 75 90             	cmp    %esi,-0x70(%ebp)
    4bb6:	0f 86 9c 00 00 00    	jbe    4c58 <tinput_read_i+0x17b8>
    4bbc:	8b 45 9c             	mov    -0x64(%ebp),%eax
    4bbf:	89 55 8c             	mov    %edx,-0x74(%ebp)
    4bc2:	85 c0                	test   %eax,%eax
    4bc4:	0f 84 72 01 00 00    	je     4d3c <tinput_read_i+0x189c>
    4bca:	83 ec 0c             	sub    $0xc,%esp
    4bcd:	68 d9 7f 00 00       	push   $0x7fd9
    4bd2:	e8 d9 40 00 00       	call   8cb0 <printf@plt>
    4bd7:	8b 55 8c             	mov    -0x74(%ebp),%edx
    4bda:	83 c4 10             	add    $0x10,%esp
    4bdd:	8b 4d 94             	mov    -0x6c(%ebp),%ecx
    4be0:	8d 42 01             	lea    0x1(%edx),%eax
    4be3:	89 45 8c             	mov    %eax,-0x74(%ebp)
    4be6:	8b 75 98             	mov    -0x68(%ebp),%esi
    4be9:	50                   	push   %eax
    4bea:	50                   	push   %eax
    4beb:	8b 04 8e             	mov    (%esi,%ecx,4),%eax
    4bee:	50                   	push   %eax
    4bef:	68 98 82 00 00       	push   $0x8298
    4bf4:	e8 b7 40 00 00       	call   8cb0 <printf@plt>
    4bf9:	8b 4d 94             	mov    -0x6c(%ebp),%ecx
    4bfc:	58                   	pop    %eax
    4bfd:	8b 04 8e             	mov    (%esi,%ecx,4),%eax
    4c00:	50                   	push   %eax
    4c01:	e8 fa 40 00 00       	call   8d00 <str_width@plt>
    4c06:	89 c6                	mov    %eax,%esi
    4c08:	8b 45 8c             	mov    -0x74(%ebp),%eax
    4c0b:	8b 4d 80             	mov    -0x80(%ebp),%ecx
    4c0e:	83 c4 10             	add    $0x10,%esp
    4c11:	8d 14 06             	lea    (%esi,%eax,1),%edx
    4c14:	39 4d 9c             	cmp    %ecx,-0x64(%ebp)
    4c17:	73 21                	jae    4c3a <tinput_read_i+0x179a>
    4c19:	39 f7                	cmp    %esi,%edi
    4c1b:	76 1d                	jbe    4c3a <tinput_read_i+0x179a>
    4c1d:	8d 76 00             	lea    0x0(%esi),%esi
    4c20:	83 ec 0c             	sub    $0xc,%esp
    4c23:	46                   	inc    %esi
    4c24:	68 d9 7f 00 00       	push   $0x7fd9
    4c29:	e8 82 40 00 00       	call   8cb0 <printf@plt>
    4c2e:	83 c4 10             	add    $0x10,%esp
    4c31:	39 f7                	cmp    %esi,%edi
    4c33:	77 eb                	ja     4c20 <tinput_read_i+0x1780>
    4c35:	8b 55 8c             	mov    -0x74(%ebp),%edx
    4c38:	01 fa                	add    %edi,%edx
    4c3a:	8b 45 9c             	mov    -0x64(%ebp),%eax
    4c3d:	8b 75 94             	mov    -0x6c(%ebp),%esi
    4c40:	40                   	inc    %eax
    4c41:	8b 4d 84             	mov    -0x7c(%ebp),%ecx
    4c44:	89 45 9c             	mov    %eax,-0x64(%ebp)
    4c47:	01 ce                	add    %ecx,%esi
    4c49:	8b 45 9c             	mov    -0x64(%ebp),%eax
    4c4c:	89 75 94             	mov    %esi,-0x6c(%ebp)
    4c4f:	39 45 88             	cmp    %eax,-0x78(%ebp)
    4c52:	0f 85 58 ff ff ff    	jne    4bb0 <tinput_read_i+0x1710>
    4c58:	8b 75 08             	mov    0x8(%ebp),%esi
    4c5b:	89 d0                	mov    %edx,%eax
    4c5d:	31 d2                	xor    %edx,%edx
    4c5f:	f7 b6 18 10 00 00    	divl   0x1018(%esi)
    4c65:	85 d2                	test   %edx,%edx
    4c67:	74 10                	je     4c79 <tinput_read_i+0x17d9>
    4c69:	83 ec 0c             	sub    $0xc,%esp
    4c6c:	68 7e 80 00 00       	push   $0x807e
    4c71:	e8 3a 40 00 00       	call   8cb0 <printf@plt>
    4c76:	83 c4 10             	add    $0x10,%esp
    4c79:	8b 85 7c ff ff ff    	mov    -0x84(%ebp),%eax
    4c7f:	40                   	inc    %eax
    4c80:	89 85 7c ff ff ff    	mov    %eax,-0x84(%ebp)
    4c86:	8b 85 7c ff ff ff    	mov    -0x84(%ebp),%eax
    4c8c:	39 45 84             	cmp    %eax,-0x7c(%ebp)
    4c8f:	0f 85 0f ff ff ff    	jne    4ba4 <tinput_read_i+0x1704>
    4c95:	8b 7d 08             	mov    0x8(%ebp),%edi
    4c98:	83 ec 0c             	sub    $0xc,%esp
    4c9b:	a1 60 aa 00 00       	mov    0xaa60,%eax
    4ca0:	50                   	push   %eax
    4ca1:	e8 0a 41 00 00       	call   8db0 <fflush@plt>
    4ca6:	89 f8                	mov    %edi,%eax
    4ca8:	e8 33 e6 ff ff       	call   32e0 <tinput_display>
    4cad:	83 c4 10             	add    $0x10,%esp
    4cb0:	e9 45 f1 ff ff       	jmp    3dfa <tinput_read_i+0x95a>
    4cb5:	c7 45 9c 00 00 00 00 	movl   $0x0,-0x64(%ebp)
    4cbc:	c7 45 88 01 00 00 00 	movl   $0x1,-0x78(%ebp)
    4cc3:	e9 8c fe ff ff       	jmp    4b54 <tinput_read_i+0x16b4>
    4cc8:	74 3b                	je     4d05 <tinput_read_i+0x1865>
    4cca:	8b 45 90             	mov    -0x70(%ebp),%eax
    4ccd:	85 c0                	test   %eax,%eax
    4ccf:	0f 85 25 f1 ff ff    	jne    3dfa <tinput_read_i+0x95a>
    4cd5:	e9 3a f1 ff ff       	jmp    3e14 <tinput_read_i+0x974>
    4cda:	8d b6 00 00 00 00    	lea    0x0(%esi),%esi
    4ce0:	a8 3f                	test   $0x3f,%al
    4ce2:	0f 85 48 ea ff ff    	jne    3730 <tinput_read_i+0x290>
    4ce8:	e9 41 f1 ff ff       	jmp    3e2e <tinput_read_i+0x98e>
    4ced:	8d 76 00             	lea    0x0(%esi),%esi
    4cf0:	83 ec 0c             	sub    $0xc,%esp
    4cf3:	68 c3 85 00 00       	push   $0x85c3
    4cf8:	e8 b3 3f 00 00       	call   8cb0 <printf@plt>
    4cfd:	83 c4 10             	add    $0x10,%esp
    4d00:	e9 d7 ef ff ff       	jmp    3cdc <tinput_read_i+0x83c>
    4d05:	8b 75 98             	mov    -0x68(%ebp),%esi
    4d08:	50                   	push   %eax
    4d09:	50                   	push   %eax
    4d0a:	8b 55 b4             	mov    -0x4c(%ebp),%edx
    4d0d:	8b 87 24 10 00 00    	mov    0x1024(%edi),%eax
    4d13:	8b 0e                	mov    (%esi),%ecx
    4d15:	29 d0                	sub    %edx,%eax
    4d17:	50                   	push   %eax
    4d18:	51                   	push   %ecx
    4d19:	e8 a2 42 00 00       	call   8fc0 <str_lsize@plt>
    4d1e:	8b 16                	mov    (%esi),%edx
    4d20:	01 d0                	add    %edx,%eax
    4d22:	89 c2                	mov    %eax,%edx
    4d24:	89 f8                	mov    %edi,%eax
    4d26:	e8 15 e4 ff ff       	call   3140 <tinput_insert_string>
    4d2b:	8b 36                	mov    (%esi),%esi
    4d2d:	59                   	pop    %ecx
    4d2e:	56                   	push   %esi
    4d2f:	e8 ac 42 00 00       	call   8fe0 <free@plt>
    4d34:	83 c4 10             	add    $0x10,%esp
    4d37:	e9 d8 f0 ff ff       	jmp    3e14 <tinput_read_i+0x974>
    4d3c:	89 f1                	mov    %esi,%ecx
    4d3e:	e9 a3 fe ff ff       	jmp    4be6 <tinput_read_i+0x1746>
    4d43:	83 ec 0c             	sub    $0xc,%esp
    4d46:	68 c3 85 00 00       	push   $0x85c3
    4d4b:	e8 60 3f 00 00       	call   8cb0 <printf@plt>
    4d50:	83 c4 10             	add    $0x10,%esp
    4d53:	e9 d8 e9 ff ff       	jmp    3730 <tinput_read_i+0x290>
    4d58:	89 d0                	mov    %edx,%eax
    4d5a:	e9 b2 e8 ff ff       	jmp    3611 <tinput_read_i+0x171>
    4d5f:	29 f0                	sub    %esi,%eax
    4d61:	52                   	push   %edx
    4d62:	c1 e0 02             	shl    $0x2,%eax
    4d65:	8b 4d 9c             	mov    -0x64(%ebp),%ecx
    4d68:	50                   	push   %eax
    4d69:	8b 45 a0             	mov    -0x60(%ebp),%eax
    4d6c:	8d 04 b0             	lea    (%eax,%esi,4),%eax
    4d6f:	50                   	push   %eax
    4d70:	51                   	push   %ecx
    4d71:	e8 ea 3f 00 00       	call   8d60 <memcpy@plt>
    4d76:	8b 87 20 10 00 00    	mov    0x1020(%edi),%eax
    4d7c:	29 f0                	sub    %esi,%eax
    4d7e:	8b 75 9c             	mov    -0x64(%ebp),%esi
    4d81:	c7 04 86 00 00 00 00 	movl   $0x0,(%esi,%eax,4)
    4d88:	58                   	pop    %eax
    4d89:	5a                   	pop    %edx
    4d8a:	56                   	push   %esi
    4d8b:	68 bf 85 00 00       	push   $0x85bf
    4d90:	e8 1b 3f 00 00       	call   8cb0 <printf@plt>
    4d95:	83 c4 10             	add    $0x10,%esp
    4d98:	e9 8e f2 ff ff       	jmp    402b <tinput_read_i+0xb8b>
    4d9d:	83 ec 0c             	sub    $0xc,%esp
    4da0:	8b 07                	mov    (%edi),%eax
    4da2:	50                   	push   %eax
    4da3:	e8 98 41 00 00       	call   8f40 <console_flush@plt>
    4da8:	8b 0f                	mov    (%edi),%ecx
    4daa:	58                   	pop    %eax
    4dab:	5a                   	pop    %edx
    4dac:	6a 03                	push   $0x3
    4dae:	51                   	push   %ecx
    4daf:	e8 2c 41 00 00       	call   8ee0 <console_set_style@plt>
    4db4:	8b 55 98             	mov    -0x68(%ebp),%edx
    4db7:	8b 45 a0             	mov    -0x60(%ebp),%eax
    4dba:	83 c4 0c             	add    $0xc,%esp
    4dbd:	29 f2                	sub    %esi,%edx
    4dbf:	c1 e2 02             	shl    $0x2,%edx
    4dc2:	8d 04 b0             	lea    (%eax,%esi,4),%eax
    4dc5:	8b 75 9c             	mov    -0x64(%ebp),%esi
    4dc8:	52                   	push   %edx
    4dc9:	89 55 94             	mov    %edx,-0x6c(%ebp)
    4dcc:	50                   	push   %eax
    4dcd:	56                   	push   %esi
    4dce:	e8 8d 3f 00 00       	call   8d60 <memcpy@plt>
    4dd3:	8b 55 94             	mov    -0x6c(%ebp),%edx
    4dd6:	c7 04 16 00 00 00 00 	movl   $0x0,(%esi,%edx,1)
    4ddd:	58                   	pop    %eax
    4dde:	5a                   	pop    %edx
    4ddf:	56                   	push   %esi
    4de0:	68 bf 85 00 00       	push   $0x85bf
    4de5:	e8 c6 3e 00 00       	call   8cb0 <printf@plt>
    4dea:	83 c4 10             	add    $0x10,%esp
    4ded:	8b 75 98             	mov    -0x68(%ebp),%esi
    4df0:	e9 0e f2 ff ff       	jmp    4003 <tinput_read_i+0xb63>
    4df5:	89 ca                	mov    %ecx,%edx
    4df7:	8b 45 a0             	mov    -0x60(%ebp),%eax
    4dfa:	29 f2                	sub    %esi,%edx
    4dfc:	89 4d 90             	mov    %ecx,-0x70(%ebp)
    4dff:	c1 e2 02             	shl    $0x2,%edx
    4e02:	8d 04 b0             	lea    (%eax,%esi,4),%eax
    4e05:	8b 75 9c             	mov    -0x64(%ebp),%esi
    4e08:	89 55 94             	mov    %edx,-0x6c(%ebp)
    4e0b:	51                   	push   %ecx
    4e0c:	52                   	push   %edx
    4e0d:	50                   	push   %eax
    4e0e:	56                   	push   %esi
    4e0f:	e8 4c 3f 00 00       	call   8d60 <memcpy@plt>
    4e14:	8b 55 94             	mov    -0x6c(%ebp),%edx
    4e17:	c7 04 16 00 00 00 00 	movl   $0x0,(%esi,%edx,1)
    4e1e:	58                   	pop    %eax
    4e1f:	5a                   	pop    %edx
    4e20:	56                   	push   %esi
    4e21:	68 bf 85 00 00       	push   $0x85bf
