
fdisk:     file format elf32-i386


Disassembly of section .init:

000010f4 <__entry>:
    10f4:	66 8c d0             	mov    %ss,%ax
    10f7:	8e d8                	mov    %eax,%ds
    10f9:	8e c0                	mov    %eax,%es
    10fb:	8e e0                	mov    %eax,%fs
    10fd:	b8 01 00 00 00       	mov    $0x1,%eax
    1102:	0f a2                	cpuid  
    1104:	0f ba e2 0b          	bt     $0xb,%edx
    1108:	73 0c                	jae    1116 <__entry+0x22>
    110a:	8d 05 78 aa 00 00    	lea    0xaa78,%eax
    1110:	c7 00 b0 8f 00 00    	movl   $0x8fb0,(%eax)
    1116:	6a 00                	push   $0x0
    1118:	6a 00                	push   $0x0
    111a:	89 e5                	mov    %esp,%ebp
    111c:	57                   	push   %edi
    111d:	e8 3e 7b 00 00       	call   8c60 <__main@plt>

Disassembly of section .text:

00001140 <fdsk_confirm>:
    1140:	55                   	push   %ebp
    1141:	89 e5                	mov    %esp,%ebp
    1143:	57                   	push   %edi
    1144:	56                   	push   %esi
    1145:	53                   	push   %ebx
    1146:	83 ec 2c             	sub    $0x2c,%esp
    1149:	89 d7                	mov    %edx,%edi
    114b:	89 45 d4             	mov    %eax,-0x2c(%ebp)
    114e:	e8 6d 22 00 00       	call   33c0 <tinput_new>
    1153:	bb fe ff ff ff       	mov    $0xfffffffe,%ebx
    1158:	85 c0                	test   %eax,%eax
    115a:	0f 84 b5 00 00 00    	je     1215 <fdsk_confirm+0xd5>
    1160:	89 c6                	mov    %eax,%esi
    1162:	51                   	push   %ecx
    1163:	51                   	push   %ecx
    1164:	68 d1 7f 00 00       	push   $0x7fd1
    1169:	50                   	push   %eax
    116a:	e8 e1 22 00 00       	call   3450 <tinput_set_prompt>
    116f:	83 c4 10             	add    $0x10,%esp
    1172:	89 c3                	mov    %eax,%ebx
    1174:	85 c0                	test   %eax,%eax
    1176:	0f 85 85 00 00 00    	jne    1201 <fdsk_confirm+0xc1>
    117c:	51                   	push   %ecx
    117d:	51                   	push   %ecx
    117e:	ff 75 d4             	pushl  -0x2c(%ebp)
    1181:	68 b6 80 00 00       	push   $0x80b6
    1186:	e8 25 7b 00 00       	call   8cb0 <printf@plt>
    118b:	58                   	pop    %eax
    118c:	8d 45 e4             	lea    -0x1c(%ebp),%eax
    118f:	5a                   	pop    %edx
    1190:	50                   	push   %eax
    1191:	56                   	push   %esi
    1192:	e8 a9 3c 00 00       	call   4e40 <tinput_read>
    1197:	83 c4 10             	add    $0x10,%esp
    119a:	83 f8 ff             	cmp    $0xffffffff,%eax
    119d:	74 43                	je     11e2 <fdsk_confirm+0xa2>
    119f:	85 c0                	test   %eax,%eax
    11a1:	75 5e                	jne    1201 <fdsk_confirm+0xc1>
    11a3:	52                   	push   %edx
    11a4:	52                   	push   %edx
    11a5:	68 cc 89 00 00       	push   $0x89cc
    11aa:	ff 75 e4             	pushl  -0x1c(%ebp)
    11ad:	e8 0e 7d 00 00       	call   8ec0 <str_cmp@plt>
    11b2:	83 c4 10             	add    $0x10,%esp
    11b5:	85 c0                	test   %eax,%eax
    11b7:	75 13                	jne    11cc <fdsk_confirm+0x8c>
    11b9:	83 ec 0c             	sub    $0xc,%esp
    11bc:	c6 07 01             	movb   $0x1,(%edi)
    11bf:	ff 75 e4             	pushl  -0x1c(%ebp)
    11c2:	e8 19 7e 00 00       	call   8fe0 <free@plt>
    11c7:	83 c4 10             	add    $0x10,%esp
    11ca:	eb 27                	jmp    11f3 <fdsk_confirm+0xb3>
    11cc:	50                   	push   %eax
    11cd:	50                   	push   %eax
    11ce:	68 a8 80 00 00       	push   $0x80a8
    11d3:	ff 75 e4             	pushl  -0x1c(%ebp)
    11d6:	e8 e5 7c 00 00       	call   8ec0 <str_cmp@plt>
    11db:	83 c4 10             	add    $0x10,%esp
    11de:	85 c0                	test   %eax,%eax
    11e0:	75 9a                	jne    117c <fdsk_confirm+0x3c>
    11e2:	83 ec 0c             	sub    $0xc,%esp
    11e5:	c6 07 00             	movb   $0x0,(%edi)
    11e8:	ff 75 e4             	pushl  -0x1c(%ebp)
    11eb:	e8 f0 7d 00 00       	call   8fe0 <free@plt>
    11f0:	83 c4 10             	add    $0x10,%esp
    11f3:	83 ec 0c             	sub    $0xc,%esp
    11f6:	56                   	push   %esi
    11f7:	e8 24 22 00 00       	call   3420 <tinput_destroy>
    11fc:	83 c4 10             	add    $0x10,%esp
    11ff:	eb 14                	jmp    1215 <fdsk_confirm+0xd5>
    1201:	83 ec 0c             	sub    $0xc,%esp
    1204:	89 45 d4             	mov    %eax,-0x2c(%ebp)
    1207:	56                   	push   %esi
    1208:	e8 13 22 00 00       	call   3420 <tinput_destroy>
    120d:	8b 45 d4             	mov    -0x2c(%ebp),%eax
    1210:	83 c4 10             	add    $0x10,%esp
    1213:	89 c3                	mov    %eax,%ebx
    1215:	8d 65 f4             	lea    -0xc(%ebp),%esp
    1218:	89 d8                	mov    %ebx,%eax
    121a:	5b                   	pop    %ebx
    121b:	5e                   	pop    %esi
    121c:	5f                   	pop    %edi
    121d:	5d                   	pop    %ebp
    121e:	c3                   	ret    

0000121f <fdsk_create_part>:
    121f:	55                   	push   %ebp
    1220:	89 e5                	mov    %esp,%ebp
    1222:	57                   	push   %edi
    1223:	56                   	push   %esi
    1224:	53                   	push   %ebx
    1225:	83 ec 70             	sub    $0x70,%esp
    1228:	89 45 90             	mov    %eax,-0x70(%ebp)
    122b:	31 c0                	xor    %eax,%eax
    122d:	8d 75 c0             	lea    -0x40(%ebp),%esi
    1230:	83 fa 02             	cmp    $0x2,%edx
    1233:	56                   	push   %esi
    1234:	0f 94 c0             	sete   %al
    1237:	50                   	push   %eax
    1238:	89 55 94             	mov    %edx,-0x6c(%ebp)
    123b:	ff 75 90             	pushl  -0x70(%ebp)
    123e:	c7 45 a4 00 00 00 00 	movl   $0x0,-0x5c(%ebp)
    1245:	e8 a6 5b 00 00       	call   6df0 <fdisk_part_get_max_avail>
    124a:	83 c4 10             	add    $0x10,%esp
    124d:	85 c0                	test   %eax,%eax
    124f:	0f 85 55 02 00 00    	jne    14aa <fdsk_create_part+0x28b>
    1255:	83 ec 0c             	sub    $0xc,%esp
    1258:	56                   	push   %esi
    1259:	e8 12 3e 00 00       	call   5070 <fdisk_cap_simplify>
    125e:	58                   	pop    %eax
    125f:	8d 45 a4             	lea    -0x5c(%ebp),%eax
    1262:	5a                   	pop    %edx
    1263:	50                   	push   %eax
    1264:	56                   	push   %esi
    1265:	e8 e6 3f 00 00       	call   5250 <fdisk_cap_format>
    126a:	83 c4 10             	add    $0x10,%esp
    126d:	85 c0                	test   %eax,%eax
    126f:	74 0c                	je     127d <fdsk_create_part+0x5e>
    1271:	31 f6                	xor    %esi,%esi
    1273:	bb fe ff ff ff       	mov    $0xfffffffe,%ebx
    1278:	e9 38 02 00 00       	jmp    14b5 <fdsk_create_part+0x296>
    127d:	e8 3e 21 00 00       	call   33c0 <tinput_new>
    1282:	89 c6                	mov    %eax,%esi
    1284:	85 c0                	test   %eax,%eax
    1286:	74 e9                	je     1271 <fdsk_create_part+0x52>
    1288:	50                   	push   %eax
    1289:	50                   	push   %eax
    128a:	68 d7 7f 00 00       	push   $0x7fd7
    128f:	56                   	push   %esi
    1290:	e8 bb 21 00 00       	call   3450 <tinput_set_prompt>
    1295:	83 c4 10             	add    $0x10,%esp
    1298:	89 c3                	mov    %eax,%ebx
    129a:	85 c0                	test   %eax,%eax
    129c:	0f 85 13 02 00 00    	jne    14b5 <fdsk_create_part+0x296>
    12a2:	8d 7d a0             	lea    -0x60(%ebp),%edi
    12a5:	83 ec 0c             	sub    $0xc,%esp
    12a8:	68 c0 82 00 00       	push   $0x82c0
    12ad:	e8 fe 79 00 00       	call   8cb0 <printf@plt>
    12b2:	83 c4 0c             	add    $0xc,%esp
    12b5:	57                   	push   %edi
    12b6:	ff 75 a4             	pushl  -0x5c(%ebp)
    12b9:	56                   	push   %esi
    12ba:	e8 e1 21 00 00       	call   34a0 <tinput_read_i>
    12bf:	83 c4 10             	add    $0x10,%esp
    12c2:	85 c0                	test   %eax,%eax
    12c4:	0f 85 e9 01 00 00    	jne    14b3 <fdsk_create_part+0x294>
    12ca:	50                   	push   %eax
    12cb:	50                   	push   %eax
    12cc:	8d 45 b0             	lea    -0x50(%ebp),%eax
    12cf:	50                   	push   %eax
    12d0:	ff 75 a0             	pushl  -0x60(%ebp)
    12d3:	e8 78 40 00 00       	call   5350 <fdisk_cap_parse>
    12d8:	83 c4 10             	add    $0x10,%esp
    12db:	85 c0                	test   %eax,%eax
    12dd:	75 c6                	jne    12a5 <fdsk_create_part+0x86>
    12df:	83 ec 0c             	sub    $0xc,%esp
    12e2:	56                   	push   %esi
    12e3:	e8 38 21 00 00       	call   3420 <tinput_destroy>
    12e8:	58                   	pop    %eax
    12e9:	ff 75 a4             	pushl  -0x5c(%ebp)
    12ec:	e8 ef 7c 00 00       	call   8fe0 <free@plt>
    12f1:	83 c4 10             	add    $0x10,%esp
    12f4:	c7 45 a4 00 00 00 00 	movl   $0x0,-0x5c(%ebp)
    12fb:	83 7d 94 01          	cmpl   $0x1,-0x6c(%ebp)
    12ff:	0f 84 51 01 00 00    	je     1456 <fdsk_create_part+0x237>
    1305:	83 ec 0c             	sub    $0xc,%esp
    1308:	8d 45 a8             	lea    -0x58(%ebp),%eax
    130b:	c7 45 a8 00 00 00 00 	movl   $0x0,-0x58(%ebp)
    1312:	50                   	push   %eax
    1313:	e8 a8 15 00 00       	call   28c0 <nchoice_create>
    1318:	83 c4 10             	add    $0x10,%esp
    131b:	85 c0                	test   %eax,%eax
    131d:	74 34                	je     1353 <fdsk_create_part+0x134>
    131f:	83 f8 fe             	cmp    $0xfffffffe,%eax
    1322:	74 15                	je     1339 <fdsk_create_part+0x11a>
    1324:	57                   	push   %edi
    1325:	68 8c 01 00 00       	push   $0x18c
    132a:	68 94 89 00 00       	push   $0x8994
    132f:	68 db 7f 00 00       	push   $0x7fdb
    1334:	e8 f7 7a 00 00       	call   8e30 <assert_abort@plt>
    1339:	83 ec 0c             	sub    $0xc,%esp
    133c:	bb fe ff ff ff       	mov    $0xfffffffe,%ebx
    1341:	68 13 81 00 00       	push   $0x8113
    1346:	e8 65 79 00 00       	call   8cb0 <printf@plt>
    134b:	83 c4 10             	add    $0x10,%esp
    134e:	e9 dc 00 00 00       	jmp    142f <fdsk_create_part+0x210>
    1353:	56                   	push   %esi
    1354:	56                   	push   %esi
    1355:	68 e8 7f 00 00       	push   $0x7fe8
    135a:	ff 75 a8             	pushl  -0x58(%ebp)
    135d:	e8 1e 16 00 00       	call   2980 <nchoice_set_prompt>
    1362:	83 c4 10             	add    $0x10,%esp
    1365:	89 c7                	mov    %eax,%edi
    1367:	85 c0                	test   %eax,%eax
    1369:	74 1a                	je     1385 <fdsk_create_part+0x166>
    136b:	83 f8 fe             	cmp    $0xfffffffe,%eax
    136e:	74 c9                	je     1339 <fdsk_create_part+0x11a>
    1370:	53                   	push   %ebx
    1371:	68 93 01 00 00       	push   $0x193
    1376:	68 94 89 00 00       	push   $0x8994
    137b:	68 db 7f 00 00       	push   $0x7fdb
    1380:	e8 ab 7a 00 00       	call   8e30 <assert_abort@plt>
    1385:	8d 75 d0             	lea    -0x30(%ebp),%esi
    1388:	51                   	push   %ecx
    1389:	51                   	push   %ecx
    138a:	56                   	push   %esi
    138b:	57                   	push   %edi
    138c:	e8 af 6b 00 00       	call   7f40 <fdisk_fstype_format>
    1391:	83 c4 10             	add    $0x10,%esp
    1394:	85 c0                	test   %eax,%eax
    1396:	0f 85 91 00 00 00    	jne    142d <fdsk_create_part+0x20e>
    139c:	31 c0                	xor    %eax,%eax
    139e:	83 ff 02             	cmp    $0x2,%edi
    13a1:	0f 94 c0             	sete   %al
    13a4:	50                   	push   %eax
    13a5:	57                   	push   %edi
    13a6:	ff 75 d0             	pushl  -0x30(%ebp)
    13a9:	ff 75 a8             	pushl  -0x58(%ebp)
    13ac:	e8 0f 16 00 00       	call   29c0 <nchoice_add>
    13b1:	83 c4 10             	add    $0x10,%esp
    13b4:	85 c0                	test   %eax,%eax
    13b6:	74 1e                	je     13d6 <fdsk_create_part+0x1b7>
    13b8:	83 f8 fe             	cmp    $0xfffffffe,%eax
    13bb:	0f 84 78 ff ff ff    	je     1339 <fdsk_create_part+0x11a>
    13c1:	52                   	push   %edx
    13c2:	68 a0 01 00 00       	push   $0x1a0
    13c7:	68 94 89 00 00       	push   $0x8994
    13cc:	68 db 7f 00 00       	push   $0x7fdb
    13d1:	e8 5a 7a 00 00       	call   8e30 <assert_abort@plt>
    13d6:	83 ec 0c             	sub    $0xc,%esp
    13d9:	47                   	inc    %edi
    13da:	ff 75 d0             	pushl  -0x30(%ebp)
    13dd:	e8 fe 7b 00 00       	call   8fe0 <free@plt>
    13e2:	83 c4 10             	add    $0x10,%esp
    13e5:	c7 45 d0 00 00 00 00 	movl   $0x0,-0x30(%ebp)
    13ec:	83 ff 04             	cmp    $0x4,%edi
    13ef:	75 97                	jne    1388 <fdsk_create_part+0x169>
    13f1:	50                   	push   %eax
    13f2:	50                   	push   %eax
    13f3:	8d 45 ac             	lea    -0x54(%ebp),%eax
    13f6:	50                   	push   %eax
    13f7:	ff 75 a8             	pushl  -0x58(%ebp)
    13fa:	e8 71 16 00 00       	call   2a70 <nchoice_get>
    13ff:	83 c4 10             	add    $0x10,%esp
    1402:	89 c3                	mov    %eax,%ebx
    1404:	85 c0                	test   %eax,%eax
    1406:	74 12                	je     141a <fdsk_create_part+0x1fb>
    1408:	83 ec 0c             	sub    $0xc,%esp
    140b:	68 e4 82 00 00       	push   $0x82e4
    1410:	e8 9b 78 00 00       	call   8cb0 <printf@plt>
    1415:	83 c4 10             	add    $0x10,%esp
    1418:	eb 15                	jmp    142f <fdsk_create_part+0x210>
    141a:	83 ec 0c             	sub    $0xc,%esp
    141d:	ff 75 a8             	pushl  -0x58(%ebp)
    1420:	e8 2b 15 00 00       	call   2950 <nchoice_destroy>
    1425:	8b 45 ac             	mov    -0x54(%ebp),%eax
    1428:	83 c4 10             	add    $0x10,%esp
    142b:	eb 2b                	jmp    1458 <fdsk_create_part+0x239>
    142d:	89 c3                	mov    %eax,%ebx
    142f:	83 ec 0c             	sub    $0xc,%esp
    1432:	ff 75 d0             	pushl  -0x30(%ebp)
    1435:	e8 a6 7b 00 00       	call   8fe0 <free@plt>
    143a:	8b 45 a8             	mov    -0x58(%ebp),%eax
    143d:	83 c4 10             	add    $0x10,%esp
    1440:	85 c0                	test   %eax,%eax
    1442:	0f 84 8d 00 00 00    	je     14d5 <fdsk_create_part+0x2b6>
    1448:	83 ec 0c             	sub    $0xc,%esp
    144b:	50                   	push   %eax
    144c:	e8 ff 14 00 00       	call   2950 <nchoice_destroy>
    1451:	83 c4 10             	add    $0x10,%esp
    1454:	eb 7f                	jmp    14d5 <fdsk_create_part+0x2b6>
    1456:	31 c0                	xor    %eax,%eax
    1458:	83 ec 0c             	sub    $0xc,%esp
    145b:	8d 5d d0             	lea    -0x30(%ebp),%ebx
    145e:	89 45 8c             	mov    %eax,-0x74(%ebp)
    1461:	89 df                	mov    %ebx,%edi
    1463:	53                   	push   %ebx
    1464:	e8 77 6a 00 00       	call   7ee0 <fdisk_pspec_init>
    1469:	83 c4 0c             	add    $0xc,%esp
    146c:	8d 75 b0             	lea    -0x50(%ebp),%esi
    146f:	b9 04 00 00 00       	mov    $0x4,%ecx
    1474:	8b 45 94             	mov    -0x6c(%ebp),%eax
    1477:	f3 a5                	rep movsl %ds:(%esi),%es:(%edi)
    1479:	6a 00                	push   $0x0
    147b:	53                   	push   %ebx
    147c:	ff 75 90             	pushl  -0x70(%ebp)
    147f:	89 45 e0             	mov    %eax,-0x20(%ebp)
    1482:	8b 45 8c             	mov    -0x74(%ebp),%eax
    1485:	89 45 e4             	mov    %eax,-0x1c(%ebp)
    1488:	e8 a3 5d 00 00       	call   7230 <fdisk_part_create>
    148d:	83 c4 10             	add    $0x10,%esp
    1490:	89 c3                	mov    %eax,%ebx
    1492:	85 c0                	test   %eax,%eax
    1494:	74 43                	je     14d9 <fdsk_create_part+0x2ba>
    1496:	83 ec 0c             	sub    $0xc,%esp
    1499:	31 f6                	xor    %esi,%esi
    149b:	68 00 80 00 00       	push   $0x8000
    14a0:	e8 0b 78 00 00       	call   8cb0 <printf@plt>
    14a5:	83 c4 10             	add    $0x10,%esp
    14a8:	eb 0b                	jmp    14b5 <fdsk_create_part+0x296>
    14aa:	31 f6                	xor    %esi,%esi
    14ac:	bb f6 fe ff ff       	mov    $0xfffffef6,%ebx
    14b1:	eb 02                	jmp    14b5 <fdsk_create_part+0x296>
    14b3:	89 c3                	mov    %eax,%ebx
    14b5:	83 ec 0c             	sub    $0xc,%esp
    14b8:	ff 75 a4             	pushl  -0x5c(%ebp)
    14bb:	e8 20 7b 00 00       	call   8fe0 <free@plt>
    14c0:	83 c4 10             	add    $0x10,%esp
    14c3:	85 f6                	test   %esi,%esi
    14c5:	74 12                	je     14d9 <fdsk_create_part+0x2ba>
    14c7:	83 ec 0c             	sub    $0xc,%esp
    14ca:	56                   	push   %esi
    14cb:	e8 50 1f 00 00       	call   3420 <tinput_destroy>
    14d0:	83 c4 10             	add    $0x10,%esp
    14d3:	eb 04                	jmp    14d9 <fdsk_create_part+0x2ba>
    14d5:	31 f6                	xor    %esi,%esi
    14d7:	eb dc                	jmp    14b5 <fdsk_create_part+0x296>
    14d9:	8d 65 f4             	lea    -0xc(%ebp),%esp
    14dc:	89 d8                	mov    %ebx,%eax
    14de:	5b                   	pop    %ebx
    14df:	5e                   	pop    %esi
    14e0:	5f                   	pop    %edi
    14e1:	5d                   	pop    %ebp
    14e2:	c3                   	ret    
    14e3:	66 90                	xchg   %ax,%ax
    14e5:	66 90                	xchg   %ax,%ax
    14e7:	66 90                	xchg   %ax,%ax
    14e9:	66 90                	xchg   %ax,%ax
    14eb:	66 90                	xchg   %ax,%ax
    14ed:	66 90                	xchg   %ax,%ax
    14ef:	90                   	nop

000014f0 <main>:
    14f0:	8d 4c 24 04          	lea    0x4(%esp),%ecx
    14f4:	83 e4 f0             	and    $0xfffffff0,%esp
    14f7:	ff 71 fc             	pushl  -0x4(%ecx)
    14fa:	55                   	push   %ebp
    14fb:	89 e5                	mov    %esp,%ebp
    14fd:	57                   	push   %edi
    14fe:	56                   	push   %esi
    14ff:	53                   	push   %ebx
    1500:	51                   	push   %ecx
    1501:	81 ec c4 00 00 00    	sub    $0xc4,%esp
    1507:	68 7c aa 00 00       	push   $0xaa7c
    150c:	e8 4f 49 00 00       	call   5e60 <fdisk_create>
    1511:	83 c4 10             	add    $0x10,%esp
    1514:	85 c0                	test   %eax,%eax
    1516:	0f 85 b2 00 00 00    	jne    15ce <main+0xde>
    151c:	83 ec 0c             	sub    $0xc,%esp
    151f:	8d 45 80             	lea    -0x80(%ebp),%eax
    1522:	c7 85 7c ff ff ff 00 	movl   $0x0,-0x84(%ebp)
    1529:	00 00 00 
    152c:	c7 45 80 00 00 00 00 	movl   $0x0,-0x80(%ebp)
    1533:	50                   	push   %eax
    1534:	c7 45 84 00 00 00 00 	movl   $0x0,-0x7c(%ebp)
    153b:	c7 45 88 00 00 00 00 	movl   $0x0,-0x78(%ebp)
    1542:	c7 45 90 00 00 00 00 	movl   $0x0,-0x70(%ebp)
    1549:	e8 72 13 00 00       	call   28c0 <nchoice_create>
    154e:	83 c4 10             	add    $0x10,%esp
    1551:	85 c0                	test   %eax,%eax
    1553:	0f 84 8c 00 00 00    	je     15e5 <main+0xf5>
    1559:	83 f8 fe             	cmp    $0xfffffffe,%eax
    155c:	0f 85 df 0a 00 00    	jne    2041 <main+0xb51>
    1562:	83 ec 0c             	sub    $0xc,%esp
    1565:	68 13 81 00 00       	push   $0x8113
    156a:	e8 41 77 00 00       	call   8cb0 <printf@plt>
    156f:	83 c4 10             	add    $0x10,%esp
    1572:	8b 85 7c ff ff ff    	mov    -0x84(%ebp),%eax
    1578:	85 c0                	test   %eax,%eax
    157a:	74 0c                	je     1588 <main+0x98>
    157c:	83 ec 0c             	sub    $0xc,%esp
    157f:	50                   	push   %eax
    1580:	e8 0b 4b 00 00       	call   6090 <fdisk_dev_list_free>
    1585:	83 c4 10             	add    $0x10,%esp
    1588:	8b 45 80             	mov    -0x80(%ebp),%eax
    158b:	85 c0                	test   %eax,%eax
    158d:	74 0c                	je     159b <main+0xab>
    158f:	83 ec 0c             	sub    $0xc,%esp
    1592:	50                   	push   %eax
    1593:	e8 b8 13 00 00       	call   2950 <nchoice_destroy>
    1598:	83 c4 10             	add    $0x10,%esp
    159b:	83 ec 0c             	sub    $0xc,%esp
    159e:	ff 75 90             	pushl  -0x70(%ebp)
    15a1:	e8 3a 7a 00 00       	call   8fe0 <free@plt>
    15a6:	59                   	pop    %ecx
    15a7:	ff 75 84             	pushl  -0x7c(%ebp)
    15aa:	e8 31 7a 00 00       	call   8fe0 <free@plt>
    15af:	5b                   	pop    %ebx
    15b0:	ff 75 88             	pushl  -0x78(%ebp)
    15b3:	e8 28 7a 00 00       	call   8fe0 <free@plt>
    15b8:	83 c4 10             	add    $0x10,%esp
    15bb:	bf 01 00 00 00       	mov    $0x1,%edi
    15c0:	8d 65 f0             	lea    -0x10(%ebp),%esp
    15c3:	89 f8                	mov    %edi,%eax
    15c5:	59                   	pop    %ecx
    15c6:	5b                   	pop    %ebx
    15c7:	5e                   	pop    %esi
    15c8:	5f                   	pop    %edi
    15c9:	5d                   	pop    %ebp
    15ca:	8d 61 fc             	lea    -0x4(%ecx),%esp
    15cd:	c3                   	ret    
    15ce:	83 ec 0c             	sub    $0xc,%esp
    15d1:	bf 01 00 00 00       	mov    $0x1,%edi
    15d6:	68 1b 80 00 00       	push   $0x801b
    15db:	e8 d0 76 00 00       	call   8cb0 <printf@plt>
    15e0:	83 c4 10             	add    $0x10,%esp
    15e3:	eb db                	jmp    15c0 <main+0xd0>
    15e5:	57                   	push   %edi
    15e6:	57                   	push   %edi
    15e7:	68 36 80 00 00       	push   $0x8036
    15ec:	ff 75 80             	pushl  -0x80(%ebp)
    15ef:	e8 8c 13 00 00       	call   2980 <nchoice_set_prompt>
    15f4:	83 c4 10             	add    $0x10,%esp
    15f7:	85 c0                	test   %eax,%eax
    15f9:	74 1e                	je     1619 <main+0x129>
    15fb:	83 f8 fe             	cmp    $0xfffffffe,%eax
    15fe:	0f 84 5e ff ff ff    	je     1562 <main+0x72>
    1604:	56                   	push   %esi
    1605:	68 a9 00 00 00       	push   $0xa9
    160a:	68 94 89 00 00       	push   $0x8994
    160f:	68 db 7f 00 00       	push   $0x7fdb
    1614:	e8 17 78 00 00       	call   8e30 <assert_abort@plt>
    1619:	8d 85 7c ff ff ff    	lea    -0x84(%ebp),%eax
    161f:	53                   	push   %ebx
    1620:	53                   	push   %ebx
    1621:	50                   	push   %eax
    1622:	ff 35 7c aa 00 00    	pushl  0xaa7c
    1628:	e8 03 49 00 00       	call   5f30 <fdisk_dev_list_get>
    162d:	83 c4 10             	add    $0x10,%esp
    1630:	89 85 44 ff ff ff    	mov    %eax,-0xbc(%ebp)
    1636:	85 c0                	test   %eax,%eax
    1638:	75 5b                	jne    1695 <main+0x1a5>
    163a:	83 ec 0c             	sub    $0xc,%esp
    163d:	8d 75 84             	lea    -0x7c(%ebp),%esi
    1640:	ff b5 7c ff ff ff    	pushl  -0x84(%ebp)
    1646:	e8 c5 4a 00 00       	call   6110 <fdisk_dev_first>
    164b:	8d 7d cc             	lea    -0x34(%ebp),%edi
    164e:	89 c3                	mov    %eax,%ebx
    1650:	83 c4 10             	add    $0x10,%esp
    1653:	85 db                	test   %ebx,%ebx
    1655:	0f 84 0f 01 00 00    	je     176a <main+0x27a>
    165b:	51                   	push   %ecx
    165c:	51                   	push   %ecx
    165d:	56                   	push   %esi
    165e:	53                   	push   %ebx
    165f:	e8 fc 4a 00 00       	call   6160 <fdisk_dev_info_get_svcname>
    1664:	83 c4 10             	add    $0x10,%esp
    1667:	85 c0                	test   %eax,%eax
    1669:	74 3f                	je     16aa <main+0x1ba>
    166b:	50                   	push   %eax
    166c:	50                   	push   %eax
    166d:	8d 45 a0             	lea    -0x60(%ebp),%eax
    1670:	50                   	push   %eax
    1671:	53                   	push   %ebx
    1672:	e8 d9 4a 00 00       	call   6150 <fdisk_dev_info_get_svcid>
    1677:	58                   	pop    %eax
    1678:	5a                   	pop    %edx
    1679:	ff 75 a0             	pushl  -0x60(%ebp)
    167c:	68 04 83 00 00       	push   $0x8304
    1681:	e8 2a 76 00 00       	call   8cb0 <printf@plt>
    1686:	89 1c 24             	mov    %ebx,(%esp)
    1689:	e8 a2 4a 00 00       	call   6130 <fdisk_dev_next>
    168e:	83 c4 10             	add    $0x10,%esp
    1691:	89 c3                	mov    %eax,%ebx
    1693:	eb be                	jmp    1653 <main+0x163>
    1695:	83 ec 0c             	sub    $0xc,%esp
    1698:	68 44 80 00 00       	push   $0x8044
    169d:	e8 0e 76 00 00       	call   8cb0 <printf@plt>
    16a2:	83 c4 10             	add    $0x10,%esp
    16a5:	e9 c8 fe ff ff       	jmp    1572 <main+0x82>
    16aa:	50                   	push   %eax
    16ab:	50                   	push   %eax
    16ac:	57                   	push   %edi
    16ad:	53                   	push   %ebx
    16ae:	e8 0d 4b 00 00       	call   61c0 <fdisk_dev_info_capacity>
    16b3:	83 c4 10             	add    $0x10,%esp
    16b6:	85 c0                	test   %eax,%eax
    16b8:	74 0c                	je     16c6 <main+0x1d6>
    16ba:	51                   	push   %ecx
    16bb:	51                   	push   %ecx
    16bc:	ff 75 84             	pushl  -0x7c(%ebp)
    16bf:	68 3c 83 00 00       	push   $0x833c
    16c4:	eb bb                	jmp    1681 <main+0x191>
    16c6:	83 ec 0c             	sub    $0xc,%esp
    16c9:	57                   	push   %edi
    16ca:	e8 a1 39 00 00       	call   5070 <fdisk_cap_simplify>
    16cf:	58                   	pop    %eax
    16d0:	8d 45 88             	lea    -0x78(%ebp),%eax
    16d3:	5a                   	pop    %edx
    16d4:	50                   	push   %eax
    16d5:	57                   	push   %edi
    16d6:	e8 75 3b 00 00       	call   5250 <fdisk_cap_format>
    16db:	83 c4 10             	add    $0x10,%esp
    16de:	85 c0                	test   %eax,%eax
    16e0:	0f 85 d8 00 00 00    	jne    17be <main+0x2ce>
    16e6:	ff 75 88             	pushl  -0x78(%ebp)
    16e9:	ff 75 84             	pushl  -0x7c(%ebp)
    16ec:	8d 45 90             	lea    -0x70(%ebp),%eax
    16ef:	68 60 80 00 00       	push   $0x8060
    16f4:	50                   	push   %eax
    16f5:	e8 26 78 00 00       	call   8f20 <asprintf@plt>
    16fa:	83 c4 10             	add    $0x10,%esp
    16fd:	85 c0                	test   %eax,%eax
    16ff:	0f 88 5d fe ff ff    	js     1562 <main+0x72>
    1705:	83 ec 0c             	sub    $0xc,%esp
    1708:	ff 75 84             	pushl  -0x7c(%ebp)
    170b:	e8 d0 78 00 00       	call   8fe0 <free@plt>
    1710:	58                   	pop    %eax
    1711:	ff 75 88             	pushl  -0x78(%ebp)
    1714:	c7 45 84 00 00 00 00 	movl   $0x0,-0x7c(%ebp)
    171b:	e8 c0 78 00 00       	call   8fe0 <free@plt>
    1720:	6a 00                	push   $0x0
    1722:	53                   	push   %ebx
    1723:	ff 75 90             	pushl  -0x70(%ebp)
    1726:	ff 75 80             	pushl  -0x80(%ebp)
    1729:	c7 45 88 00 00 00 00 	movl   $0x0,-0x78(%ebp)
    1730:	e8 8b 12 00 00       	call   29c0 <nchoice_add>
    1735:	83 c4 20             	add    $0x20,%esp
    1738:	85 c0                	test   %eax,%eax
    173a:	0f 85 9c 00 00 00    	jne    17dc <main+0x2ec>
    1740:	83 ec 0c             	sub    $0xc,%esp
    1743:	ff 85 44 ff ff ff    	incl   -0xbc(%ebp)
    1749:	ff 75 90             	pushl  -0x70(%ebp)
    174c:	e8 8f 78 00 00       	call   8fe0 <free@plt>
    1751:	89 1c 24             	mov    %ebx,(%esp)
    1754:	c7 45 90 00 00 00 00 	movl   $0x0,-0x70(%ebp)
    175b:	e8 d0 49 00 00       	call   6130 <fdisk_dev_next>
    1760:	83 c4 10             	add    $0x10,%esp
    1763:	89 c3                	mov    %eax,%ebx
    1765:	e9 e9 fe ff ff       	jmp    1653 <main+0x163>
    176a:	83 bd 44 ff ff ff 00 	cmpl   $0x0,-0xbc(%ebp)
    1771:	75 15                	jne    1788 <main+0x298>
    1773:	83 ec 0c             	sub    $0xc,%esp
    1776:	68 68 80 00 00       	push   $0x8068
    177b:	e8 30 75 00 00       	call   8cb0 <printf@plt>
    1780:	83 c4 10             	add    $0x10,%esp
    1783:	e9 ea fd ff ff       	jmp    1572 <main+0x82>
    1788:	6a 00                	push   $0x0
    178a:	6a 00                	push   $0x0
    178c:	68 80 80 00 00       	push   $0x8080
    1791:	ff 75 80             	pushl  -0x80(%ebp)
    1794:	e8 27 12 00 00       	call   29c0 <nchoice_add>
    1799:	83 c4 10             	add    $0x10,%esp
    179c:	85 c0                	test   %eax,%eax
    179e:	74 5a                	je     17fa <main+0x30a>
    17a0:	83 f8 fe             	cmp    $0xfffffffe,%eax
    17a3:	0f 84 b9 fd ff ff    	je     1562 <main+0x72>
    17a9:	53                   	push   %ebx
    17aa:	68 f4 00 00 00       	push   $0xf4
    17af:	68 94 89 00 00       	push   $0x8994
    17b4:	68 db 7f 00 00       	push   $0x7fdb
    17b9:	e8 72 76 00 00       	call   8e30 <assert_abort@plt>
    17be:	83 f8 fe             	cmp    $0xfffffffe,%eax
    17c1:	0f 84 9b fd ff ff    	je     1562 <main+0x72>
    17c7:	50                   	push   %eax
    17c8:	68 cc 00 00 00       	push   $0xcc
    17cd:	68 94 89 00 00       	push   $0x8994
    17d2:	68 db 7f 00 00       	push   $0x7fdb
    17d7:	e8 54 76 00 00       	call   8e30 <assert_abort@plt>
    17dc:	83 f8 fe             	cmp    $0xfffffffe,%eax
    17df:	0f 84 7d fd ff ff    	je     1562 <main+0x72>
    17e5:	56                   	push   %esi
    17e6:	68 df 00 00 00       	push   $0xdf
    17eb:	68 94 89 00 00       	push   $0x8994
    17f0:	68 db 7f 00 00       	push   $0x7fdb
    17f5:	e8 36 76 00 00       	call   8e30 <assert_abort@plt>
    17fa:	8d 45 b0             	lea    -0x50(%ebp),%eax
    17fd:	51                   	push   %ecx
    17fe:	51                   	push   %ecx
    17ff:	50                   	push   %eax
    1800:	ff 75 80             	pushl  -0x80(%ebp)
    1803:	e8 68 12 00 00       	call   2a70 <nchoice_get>
    1808:	83 c4 10             	add    $0x10,%esp
    180b:	89 c7                	mov    %eax,%edi
    180d:	85 c0                	test   %eax,%eax
    180f:	0f 85 87 06 00 00    	jne    1e9c <main+0x9ac>
    1815:	8b 45 b0             	mov    -0x50(%ebp),%eax
    1818:	85 c0                	test   %eax,%eax
    181a:	0f 84 70 06 00 00    	je     1e90 <main+0x9a0>
    1820:	52                   	push   %edx
    1821:	52                   	push   %edx
    1822:	8d 55 a0             	lea    -0x60(%ebp),%edx
    1825:	52                   	push   %edx
    1826:	50                   	push   %eax
    1827:	e8 24 49 00 00       	call   6150 <fdisk_dev_info_get_svcid>
    182c:	83 c4 10             	add    $0x10,%esp
    182f:	83 ec 0c             	sub    $0xc,%esp
    1832:	ff b5 7c ff ff ff    	pushl  -0x84(%ebp)
    1838:	e8 53 48 00 00       	call   6090 <fdisk_dev_list_free>
    183d:	5e                   	pop    %esi
    183e:	ff 75 80             	pushl  -0x80(%ebp)
    1841:	e8 0a 11 00 00       	call   2950 <nchoice_destroy>
    1846:	8b 45 a0             	mov    -0x60(%ebp),%eax
    1849:	83 c4 10             	add    $0x10,%esp
    184c:	85 c0                	test   %eax,%eax
    184e:	0f 84 6c fd ff ff    	je     15c0 <main+0xd0>
    1854:	52                   	push   %edx
    1855:	8d 95 4c ff ff ff    	lea    -0xb4(%ebp),%edx
    185b:	52                   	push   %edx
    185c:	50                   	push   %eax
    185d:	ff 35 7c aa 00 00    	pushl  0xaa7c
    1863:	e8 a8 49 00 00       	call   6210 <fdisk_dev_open>
    1868:	83 c4 10             	add    $0x10,%esp
    186b:	89 c7                	mov    %eax,%edi
    186d:	85 c0                	test   %eax,%eax
    186f:	0f 85 58 02 00 00    	jne    1acd <main+0x5dd>
    1875:	80 3d 80 aa 00 00 00 	cmpb   $0x0,0xaa80
    187c:	0f 85 d9 01 00 00    	jne    1a5b <main+0x56b>
    1882:	89 85 44 ff ff ff    	mov    %eax,-0xbc(%ebp)
    1888:	83 ec 0c             	sub    $0xc,%esp
    188b:	8d 85 50 ff ff ff    	lea    -0xb0(%ebp),%eax
    1891:	8b 9d 4c ff ff ff    	mov    -0xb4(%ebp),%ebx
    1897:	c7 85 50 ff ff ff 00 	movl   $0x0,-0xb0(%ebp)
    189e:	00 00 00 
    18a1:	50                   	push   %eax
    18a2:	c7 85 58 ff ff ff 00 	movl   $0x0,-0xa8(%ebp)
    18a9:	00 00 00 
    18ac:	c7 85 5c ff ff ff 00 	movl   $0x0,-0xa4(%ebp)
    18b3:	00 00 00 
    18b6:	c7 85 60 ff ff ff 00 	movl   $0x0,-0xa0(%ebp)
    18bd:	00 00 00 
    18c0:	c7 85 64 ff ff ff 00 	movl   $0x0,-0x9c(%ebp)
    18c7:	00 00 00 
    18ca:	c7 85 68 ff ff ff 00 	movl   $0x0,-0x98(%ebp)
    18d1:	00 00 00 
    18d4:	e8 e7 0f 00 00       	call   28c0 <nchoice_create>
    18d9:	83 c4 10             	add    $0x10,%esp
    18dc:	85 c0                	test   %eax,%eax
    18de:	0f 84 89 00 00 00    	je     196d <main+0x47d>
    18e4:	83 f8 fe             	cmp    $0xfffffffe,%eax
    18e7:	0f 85 ac 06 00 00    	jne    1f99 <main+0xaa9>
    18ed:	83 ec 0c             	sub    $0xc,%esp
    18f0:	31 f6                	xor    %esi,%esi
    18f2:	68 13 81 00 00       	push   $0x8113
    18f7:	e8 b4 73 00 00       	call   8cb0 <printf@plt>
    18fc:	83 c4 10             	add    $0x10,%esp
    18ff:	83 ec 0c             	sub    $0xc,%esp
    1902:	8b 8d 5c ff ff ff    	mov    -0xa4(%ebp),%ecx
    1908:	51                   	push   %ecx
    1909:	e8 d2 76 00 00       	call   8fe0 <free@plt>
    190e:	8b bd 60 ff ff ff    	mov    -0xa0(%ebp),%edi
    1914:	5b                   	pop    %ebx
    1915:	57                   	push   %edi
    1916:	e8 c5 76 00 00       	call   8fe0 <free@plt>
    191b:	58                   	pop    %eax
    191c:	8b 85 64 ff ff ff    	mov    -0x9c(%ebp),%eax
    1922:	50                   	push   %eax
    1923:	e8 b8 76 00 00       	call   8fe0 <free@plt>
    1928:	89 34 24             	mov    %esi,(%esp)
    192b:	e8 b0 76 00 00       	call   8fe0 <free@plt>
    1930:	58                   	pop    %eax
    1931:	8b 85 68 ff ff ff    	mov    -0x98(%ebp),%eax
    1937:	50                   	push   %eax
    1938:	e8 a3 76 00 00       	call   8fe0 <free@plt>
    193d:	8b 85 50 ff ff ff    	mov    -0xb0(%ebp),%eax
    1943:	83 c4 10             	add    $0x10,%esp
    1946:	85 c0                	test   %eax,%eax
    1948:	74 0c                	je     1956 <main+0x466>
    194a:	83 ec 0c             	sub    $0xc,%esp
    194d:	50                   	push   %eax
    194e:	e8 fd 0f 00 00       	call   2950 <nchoice_destroy>
    1953:	83 c4 10             	add    $0x10,%esp
    1956:	83 ec 0c             	sub    $0xc,%esp
    1959:	8b 85 4c ff ff ff    	mov    -0xb4(%ebp),%eax
    195f:	50                   	push   %eax
    1960:	e8 fb 4b 00 00       	call   6560 <fdisk_dev_close>
    1965:	83 c4 10             	add    $0x10,%esp
    1968:	e9 4e fc ff ff       	jmp    15bb <main+0xcb>
    196d:	56                   	push   %esi
    196e:	56                   	push   %esi
    196f:	68 9c 80 00 00       	push   $0x809c
    1974:	ff b5 50 ff ff ff    	pushl  -0xb0(%ebp)
    197a:	e8 01 10 00 00       	call   2980 <nchoice_set_prompt>
    197f:	83 c4 10             	add    $0x10,%esp
    1982:	85 c0                	test   %eax,%eax
    1984:	74 1e                	je     19a4 <main+0x4b4>
    1986:	83 f8 fe             	cmp    $0xfffffffe,%eax
    1989:	0f 84 5e ff ff ff    	je     18ed <main+0x3fd>
    198f:	53                   	push   %ebx
    1990:	68 b4 02 00 00       	push   $0x2b4
    1995:	68 94 89 00 00       	push   $0x8994
    199a:	68 db 7f 00 00       	push   $0x7fdb
    199f:	e8 8c 74 00 00       	call   8e30 <assert_abort@plt>
    19a4:	8d 75 90             	lea    -0x70(%ebp),%esi
    19a7:	51                   	push   %ecx
    19a8:	51                   	push   %ecx
    19a9:	56                   	push   %esi
    19aa:	53                   	push   %ebx
    19ab:	e8 e0 4d 00 00       	call   6790 <fdisk_dev_capacity>
    19b0:	83 c4 10             	add    $0x10,%esp
    19b3:	85 c0                	test   %eax,%eax
    19b5:	0f 84 c2 00 00 00    	je     1a7d <main+0x58d>
    19bb:	83 ec 0c             	sub    $0xc,%esp
    19be:	31 f6                	xor    %esi,%esi
    19c0:	68 68 83 00 00       	push   $0x8368
    19c5:	e8 e6 72 00 00       	call   8cb0 <printf@plt>
    19ca:	83 c4 10             	add    $0x10,%esp
    19cd:	e9 2d ff ff ff       	jmp    18ff <main+0x40f>
    19d2:	83 ec 0c             	sub    $0xc,%esp
    19d5:	ff b5 74 ff ff ff    	pushl  -0x8c(%ebp)
    19db:	e8 70 0f 00 00       	call   2950 <nchoice_destroy>
    19e0:	83 c4 10             	add    $0x10,%esp
    19e3:	c7 85 74 ff ff ff 00 	movl   $0x0,-0x8c(%ebp)
    19ea:	00 00 00 
    19ed:	83 7d 84 00          	cmpl   $0x0,-0x7c(%ebp)
    19f1:	74 43                	je     1a36 <main+0x546>
    19f3:	8d 95 4b ff ff ff    	lea    -0xb5(%ebp),%edx
    19f9:	b8 d8 84 00 00       	mov    $0x84d8,%eax
    19fe:	e8 3d f7 ff ff       	call   1140 <fdsk_confirm>
    1a03:	85 c0                	test   %eax,%eax
    1a05:	0f 85 7c 0e 00 00    	jne    2887 <main+0x1397>
    1a0b:	80 bd 4b ff ff ff 00 	cmpb   $0x0,-0xb5(%ebp)
    1a12:	74 22                	je     1a36 <main+0x546>
    1a14:	83 ec 0c             	sub    $0xc,%esp
    1a17:	ff 75 84             	pushl  -0x7c(%ebp)
    1a1a:	e8 b1 63 00 00       	call   7dd0 <fdisk_part_destroy>
    1a1f:	83 c4 10             	add    $0x10,%esp
    1a22:	85 c0                	test   %eax,%eax
    1a24:	74 10                	je     1a36 <main+0x546>
    1a26:	83 ec 0c             	sub    $0xc,%esp
    1a29:	68 a2 82 00 00       	push   $0x82a2
    1a2e:	e8 7d 72 00 00       	call   8cb0 <printf@plt>
    1a33:	83 c4 10             	add    $0x10,%esp
    1a36:	83 ec 0c             	sub    $0xc,%esp
    1a39:	8b 85 50 ff ff ff    	mov    -0xb0(%ebp),%eax
    1a3f:	50                   	push   %eax
    1a40:	e8 0b 0f 00 00       	call   2950 <nchoice_destroy>
    1a45:	83 c4 10             	add    $0x10,%esp
    1a48:	80 3d 80 aa 00 00 00 	cmpb   $0x0,0xaa80
    1a4f:	0f 84 33 fe ff ff    	je     1888 <main+0x398>
    1a55:	8b bd 44 ff ff ff    	mov    -0xbc(%ebp),%edi
    1a5b:	83 ec 0c             	sub    $0xc,%esp
    1a5e:	ff b5 4c ff ff ff    	pushl  -0xb4(%ebp)
    1a64:	e8 f7 4a 00 00       	call   6560 <fdisk_dev_close>
    1a69:	5a                   	pop    %edx
    1a6a:	ff 35 7c aa 00 00    	pushl  0xaa7c
    1a70:	e8 7b 44 00 00       	call   5ef0 <fdisk_destroy>
    1a75:	83 c4 10             	add    $0x10,%esp
    1a78:	e9 43 fb ff ff       	jmp    15c0 <main+0xd0>
    1a7d:	83 ec 0c             	sub    $0xc,%esp
    1a80:	56                   	push   %esi
    1a81:	e8 ea 35 00 00       	call   5070 <fdisk_cap_simplify>
    1a86:	58                   	pop    %eax
    1a87:	8d 85 5c ff ff ff    	lea    -0xa4(%ebp),%eax
    1a8d:	5a                   	pop    %edx
    1a8e:	50                   	push   %eax
    1a8f:	56                   	push   %esi
    1a90:	e8 bb 37 00 00       	call   5250 <fdisk_cap_format>
    1a95:	83 c4 10             	add    $0x10,%esp
    1a98:	85 c0                	test   %eax,%eax
    1a9a:	0f 85 4d fe ff ff    	jne    18ed <main+0x3fd>
    1aa0:	50                   	push   %eax
    1aa1:	50                   	push   %eax
    1aa2:	8d 85 68 ff ff ff    	lea    -0x98(%ebp),%eax
    1aa8:	50                   	push   %eax
    1aa9:	53                   	push   %ebx
    1aaa:	e8 b1 4c 00 00       	call   6760 <fdisk_dev_get_svcname>
    1aaf:	83 c4 10             	add    $0x10,%esp
    1ab2:	85 c0                	test   %eax,%eax
    1ab4:	74 31                	je     1ae7 <main+0x5f7>
    1ab6:	83 ec 0c             	sub    $0xc,%esp
    1ab9:	31 f6                	xor    %esi,%esi
    1abb:	68 88 83 00 00       	push   $0x8388
    1ac0:	e8 eb 71 00 00       	call   8cb0 <printf@plt>
    1ac5:	83 c4 10             	add    $0x10,%esp
    1ac8:	e9 32 fe ff ff       	jmp    18ff <main+0x40f>
    1acd:	83 ec 0c             	sub    $0xc,%esp
    1ad0:	bf 01 00 00 00       	mov    $0x1,%edi
    1ad5:	68 85 80 00 00       	push   $0x8085
    1ada:	e8 d1 71 00 00       	call   8cb0 <printf@plt>
    1adf:	83 c4 10             	add    $0x10,%esp
    1ae2:	e9 d9 fa ff ff       	jmp    15c0 <main+0xd0>
    1ae7:	8d 85 54 ff ff ff    	lea    -0xac(%ebp),%eax
    1aed:	51                   	push   %ecx
    1aee:	51                   	push   %ecx
    1aef:	50                   	push   %eax
    1af0:	53                   	push   %ebx
    1af1:	e8 0a 4c 00 00       	call   6700 <fdisk_dev_get_flags>
    1af6:	83 c4 0c             	add    $0xc,%esp
    1af9:	ff b5 68 ff ff ff    	pushl  -0x98(%ebp)
    1aff:	ff b5 5c ff ff ff    	pushl  -0xa4(%ebp)
    1b05:	68 aa 80 00 00       	push   $0x80aa
    1b0a:	e8 a1 71 00 00       	call   8cb0 <printf@plt>
    1b0f:	5e                   	pop    %esi
    1b10:	ff b5 5c ff ff ff    	pushl  -0xa4(%ebp)
    1b16:	e8 c5 74 00 00       	call   8fe0 <free@plt>
    1b1b:	5f                   	pop    %edi
    1b1c:	58                   	pop    %eax
    1b1d:	8d 45 88             	lea    -0x78(%ebp),%eax
    1b20:	50                   	push   %eax
    1b21:	c7 85 5c ff ff ff 00 	movl   $0x0,-0xa4(%ebp)
    1b28:	00 00 00 
    1b2b:	53                   	push   %ebx
    1b2c:	e8 8f 4c 00 00       	call   67c0 <fdisk_label_get_info>
    1b31:	83 c4 10             	add    $0x10,%esp
    1b34:	89 c6                	mov    %eax,%esi
    1b36:	85 c0                	test   %eax,%eax
    1b38:	0f 85 e7 01 00 00    	jne    1d25 <main+0x835>
    1b3e:	8b 45 88             	mov    -0x78(%ebp),%eax
    1b41:	85 c0                	test   %eax,%eax
    1b43:	0f 85 a4 01 00 00    	jne    1ced <main+0x7fd>
    1b49:	83 ec 0c             	sub    $0xc,%esp
    1b4c:	68 ba 80 00 00       	push   $0x80ba
    1b51:	e8 5a 71 00 00       	call   8cb0 <printf@plt>
    1b56:	83 c4 10             	add    $0x10,%esp
    1b59:	83 ec 0c             	sub    $0xc,%esp
    1b5c:	53                   	push   %ebx
    1b5d:	e8 0e 52 00 00       	call   6d70 <fdisk_part_first>
    1b62:	89 9d 40 ff ff ff    	mov    %ebx,-0xc0(%ebp)
    1b68:	89 c7                	mov    %eax,%edi
    1b6a:	83 c4 10             	add    $0x10,%esp
    1b6d:	89 f3                	mov    %esi,%ebx
    1b6f:	eb 6d                	jmp    1bde <main+0x6ee>
    1b71:	52                   	push   %edx
    1b72:	52                   	push   %edx
    1b73:	ff b5 60 ff ff ff    	pushl  -0xa0(%ebp)
    1b79:	68 f1 80 00 00       	push   $0x80f1
    1b7e:	e8 2d 71 00 00       	call   8cb0 <printf@plt>
    1b83:	83 c4 10             	add    $0x10,%esp
    1b86:	f6 45 8c 01          	testb  $0x1,-0x74(%ebp)
    1b8a:	0f 85 f0 00 00 00    	jne    1c80 <main+0x790>
    1b90:	83 7d c0 01          	cmpl   $0x1,-0x40(%ebp)
    1b94:	74 10                	je     1ba6 <main+0x6b6>
    1b96:	50                   	push   %eax
    1b97:	50                   	push   %eax
    1b98:	56                   	push   %esi
    1b99:	68 96 82 00 00       	push   $0x8296
    1b9e:	e8 0d 71 00 00       	call   8cb0 <printf@plt>
    1ba3:	83 c4 10             	add    $0x10,%esp
    1ba6:	83 ec 0c             	sub    $0xc,%esp
    1ba9:	68 7e 80 00 00       	push   $0x807e
    1bae:	e8 fd 70 00 00       	call   8cb0 <printf@plt>
    1bb3:	58                   	pop    %eax
    1bb4:	ff b5 60 ff ff ff    	pushl  -0xa0(%ebp)
    1bba:	e8 21 74 00 00       	call   8fe0 <free@plt>
    1bbf:	89 34 24             	mov    %esi,(%esp)
    1bc2:	c7 85 60 ff ff ff 00 	movl   $0x0,-0xa0(%ebp)
    1bc9:	00 00 00 
    1bcc:	e8 0f 74 00 00       	call   8fe0 <free@plt>
    1bd1:	89 3c 24             	mov    %edi,(%esp)
    1bd4:	e8 b7 51 00 00       	call   6d90 <fdisk_part_next>
    1bd9:	83 c4 10             	add    $0x10,%esp
    1bdc:	89 c7                	mov    %eax,%edi
    1bde:	85 ff                	test   %edi,%edi
    1be0:	0f 84 56 01 00 00    	je     1d3c <main+0x84c>
    1be6:	50                   	push   %eax
    1be7:	50                   	push   %eax
    1be8:	8d 45 b0             	lea    -0x50(%ebp),%eax
    1beb:	43                   	inc    %ebx
    1bec:	50                   	push   %eax
    1bed:	57                   	push   %edi
    1bee:	e8 bd 51 00 00       	call   6db0 <fdisk_part_get_info>
    1bf3:	83 c4 10             	add    $0x10,%esp
    1bf6:	85 c0                	test   %eax,%eax
    1bf8:	0f 85 4b 02 00 00    	jne    1e49 <main+0x959>
    1bfe:	83 ec 0c             	sub    $0xc,%esp
    1c01:	8d 45 b0             	lea    -0x50(%ebp),%eax
    1c04:	50                   	push   %eax
    1c05:	e8 66 34 00 00       	call   5070 <fdisk_cap_simplify>
    1c0a:	5e                   	pop    %esi
    1c0b:	58                   	pop    %eax
    1c0c:	8d 85 60 ff ff ff    	lea    -0xa0(%ebp),%eax
    1c12:	50                   	push   %eax
    1c13:	8d 45 b0             	lea    -0x50(%ebp),%eax
    1c16:	50                   	push   %eax
    1c17:	e8 34 36 00 00       	call   5250 <fdisk_cap_format>
    1c1c:	83 c4 10             	add    $0x10,%esp
    1c1f:	85 c0                	test   %eax,%eax
    1c21:	0f 85 c6 fc ff ff    	jne    18ed <main+0x3fd>
    1c27:	8b 45 c4             	mov    -0x3c(%ebp),%eax
    1c2a:	83 f8 01             	cmp    $0x1,%eax
    1c2d:	0f 84 9c 00 00 00    	je     1ccf <main+0x7df>
    1c33:	0f 82 89 00 00 00    	jb     1cc2 <main+0x7d2>
    1c39:	83 f8 02             	cmp    $0x2,%eax
    1c3c:	75 1b                	jne    1c59 <main+0x769>
    1c3e:	83 ec 0c             	sub    $0xc,%esp
    1c41:	68 e9 80 00 00       	push   $0x80e9
    1c46:	e8 35 72 00 00       	call   8e80 <str_dup@plt>
    1c4b:	83 c4 10             	add    $0x10,%esp
    1c4e:	89 45 cc             	mov    %eax,-0x34(%ebp)
    1c51:	85 c0                	test   %eax,%eax
    1c53:	0f 84 94 fc ff ff    	je     18ed <main+0x3fd>
    1c59:	8b 75 cc             	mov    -0x34(%ebp),%esi
    1c5c:	83 7d 88 00          	cmpl   $0x0,-0x78(%ebp)
    1c60:	0f 84 0b ff ff ff    	je     1b71 <main+0x681>
    1c66:	50                   	push   %eax
    1c67:	ff b5 60 ff ff ff    	pushl  -0xa0(%ebp)
    1c6d:	53                   	push   %ebx
    1c6e:	68 01 81 00 00       	push   $0x8101
    1c73:	e8 38 70 00 00       	call   8cb0 <printf@plt>
    1c78:	83 c4 10             	add    $0x10,%esp
    1c7b:	e9 06 ff ff ff       	jmp    1b86 <main+0x696>
    1c80:	50                   	push   %eax
    1c81:	50                   	push   %eax
    1c82:	8d 85 6c ff ff ff    	lea    -0x94(%ebp),%eax
    1c88:	50                   	push   %eax
    1c89:	ff 75 c0             	pushl  -0x40(%ebp)
    1c8c:	e8 ef 62 00 00       	call   7f80 <fdisk_pkind_format>
    1c91:	83 c4 10             	add    $0x10,%esp
    1c94:	85 c0                	test   %eax,%eax
    1c96:	0f 85 12 03 00 00    	jne    1fae <main+0xabe>
    1c9c:	50                   	push   %eax
    1c9d:	50                   	push   %eax
    1c9e:	ff b5 6c ff ff ff    	pushl  -0x94(%ebp)
    1ca4:	68 96 82 00 00       	push   $0x8296
    1ca9:	e8 02 70 00 00       	call   8cb0 <printf@plt>
    1cae:	58                   	pop    %eax
    1caf:	ff b5 6c ff ff ff    	pushl  -0x94(%ebp)
    1cb5:	e8 26 73 00 00       	call   8fe0 <free@plt>
    1cba:	83 c4 10             	add    $0x10,%esp
    1cbd:	e9 ce fe ff ff       	jmp    1b90 <main+0x6a0>
    1cc2:	83 ec 0c             	sub    $0xc,%esp
    1cc5:	68 e3 80 00 00       	push   $0x80e3
    1cca:	e9 77 ff ff ff       	jmp    1c46 <main+0x756>
    1ccf:	8d 45 cc             	lea    -0x34(%ebp),%eax
    1cd2:	51                   	push   %ecx
    1cd3:	51                   	push   %ecx
    1cd4:	50                   	push   %eax
    1cd5:	ff 75 c8             	pushl  -0x38(%ebp)
    1cd8:	e8 63 62 00 00       	call   7f40 <fdisk_fstype_format>
    1cdd:	83 c4 10             	add    $0x10,%esp
    1ce0:	85 c0                	test   %eax,%eax
    1ce2:	0f 84 71 ff ff ff    	je     1c59 <main+0x769>
    1ce8:	e9 00 fc ff ff       	jmp    18ed <main+0x3fd>
    1ced:	52                   	push   %edx
    1cee:	52                   	push   %edx
    1cef:	8d 95 58 ff ff ff    	lea    -0xa8(%ebp),%edx
    1cf5:	52                   	push   %edx
    1cf6:	50                   	push   %eax
    1cf7:	e8 04 62 00 00       	call   7f00 <fdisk_ltype_format>
    1cfc:	83 c4 10             	add    $0x10,%esp
    1cff:	85 c0                	test   %eax,%eax
    1d01:	0f 84 59 01 00 00    	je     1e60 <main+0x970>
    1d07:	83 f8 fe             	cmp    $0xfffffffe,%eax
    1d0a:	0f 84 dd fb ff ff    	je     18ed <main+0x3fd>
    1d10:	50                   	push   %eax
    1d11:	68 e0 02 00 00       	push   $0x2e0
    1d16:	68 94 89 00 00       	push   $0x8994
    1d1b:	68 db 7f 00 00       	push   $0x7fdb
    1d20:	e8 0b 71 00 00       	call   8e30 <assert_abort@plt>
    1d25:	83 ec 0c             	sub    $0xc,%esp
    1d28:	31 f6                	xor    %esi,%esi
    1d2a:	68 ac 83 00 00       	push   $0x83ac
    1d2f:	e8 7c 6f 00 00       	call   8cb0 <printf@plt>
    1d34:	83 c4 10             	add    $0x10,%esp
    1d37:	e9 c3 fb ff ff       	jmp    18ff <main+0x40f>
    1d3c:	8b 45 8c             	mov    -0x74(%ebp),%eax
    1d3f:	8b 9d 40 ff ff ff    	mov    -0xc0(%ebp),%ebx
    1d45:	a8 04                	test   $0x4,%al
    1d47:	0f 85 64 01 00 00    	jne    1eb1 <main+0x9c1>
    1d4d:	a8 10                	test   $0x10,%al
    1d4f:	0f 84 b9 00 00 00    	je     1e0e <main+0x91e>
    1d55:	8d 75 a0             	lea    -0x60(%ebp),%esi
    1d58:	51                   	push   %ecx
    1d59:	56                   	push   %esi
    1d5a:	6a 01                	push   $0x1
    1d5c:	53                   	push   %ebx
    1d5d:	e8 8e 50 00 00       	call   6df0 <fdisk_part_get_max_avail>
    1d62:	83 c4 10             	add    $0x10,%esp
    1d65:	85 c0                	test   %eax,%eax
    1d67:	74 07                	je     1d70 <main+0x880>
    1d69:	31 f6                	xor    %esi,%esi
    1d6b:	e9 8f fb ff ff       	jmp    18ff <main+0x40f>
    1d70:	83 ec 0c             	sub    $0xc,%esp
    1d73:	8d bd 64 ff ff ff    	lea    -0x9c(%ebp),%edi
    1d79:	56                   	push   %esi
    1d7a:	e8 f1 32 00 00       	call   5070 <fdisk_cap_simplify>
    1d7f:	58                   	pop    %eax
    1d80:	5a                   	pop    %edx
    1d81:	57                   	push   %edi
    1d82:	56                   	push   %esi
    1d83:	e8 c8 34 00 00       	call   5250 <fdisk_cap_format>
    1d88:	83 c4 10             	add    $0x10,%esp
    1d8b:	85 c0                	test   %eax,%eax
    1d8d:	75 da                	jne    1d69 <main+0x879>
    1d8f:	51                   	push   %ecx
    1d90:	51                   	push   %ecx
    1d91:	ff b5 64 ff ff ff    	pushl  -0x9c(%ebp)
    1d97:	68 18 84 00 00       	push   $0x8418
    1d9c:	e8 0f 6f 00 00       	call   8cb0 <printf@plt>
    1da1:	58                   	pop    %eax
    1da2:	ff b5 64 ff ff ff    	pushl  -0x9c(%ebp)
    1da8:	e8 33 72 00 00       	call   8fe0 <free@plt>
    1dad:	83 c4 0c             	add    $0xc,%esp
    1db0:	c7 85 64 ff ff ff 00 	movl   $0x0,-0x9c(%ebp)
    1db7:	00 00 00 
    1dba:	56                   	push   %esi
    1dbb:	6a 01                	push   $0x1
    1dbd:	53                   	push   %ebx
    1dbe:	e8 dd 50 00 00       	call   6ea0 <fdisk_part_get_tot_avail>
    1dc3:	83 c4 10             	add    $0x10,%esp
    1dc6:	85 c0                	test   %eax,%eax
    1dc8:	75 9f                	jne    1d69 <main+0x879>
    1dca:	83 ec 0c             	sub    $0xc,%esp
    1dcd:	56                   	push   %esi
    1dce:	e8 9d 32 00 00       	call   5070 <fdisk_cap_simplify>
    1dd3:	58                   	pop    %eax
    1dd4:	5a                   	pop    %edx
    1dd5:	57                   	push   %edi
    1dd6:	56                   	push   %esi
    1dd7:	e8 74 34 00 00       	call   5250 <fdisk_cap_format>
    1ddc:	83 c4 10             	add    $0x10,%esp
    1ddf:	85 c0                	test   %eax,%eax
    1de1:	75 86                	jne    1d69 <main+0x879>
    1de3:	56                   	push   %esi
    1de4:	56                   	push   %esi
    1de5:	ff b5 64 ff ff ff    	pushl  -0x9c(%ebp)
    1deb:	68 6f 81 00 00       	push   $0x816f
    1df0:	e8 bb 6e 00 00       	call   8cb0 <printf@plt>
    1df5:	5f                   	pop    %edi
    1df6:	ff b5 64 ff ff ff    	pushl  -0x9c(%ebp)
    1dfc:	e8 df 71 00 00       	call   8fe0 <free@plt>
    1e01:	c7 85 64 ff ff ff 00 	movl   $0x0,-0x9c(%ebp)
    1e08:	00 00 00 
    1e0b:	83 c4 10             	add    $0x10,%esp
    1e0e:	51                   	push   %ecx
    1e0f:	51                   	push   %ecx
    1e10:	68 9c 80 00 00       	push   $0x809c
    1e15:	ff b5 50 ff ff ff    	pushl  -0xb0(%ebp)
    1e1b:	e8 60 0b 00 00       	call   2980 <nchoice_set_prompt>
    1e20:	83 c4 10             	add    $0x10,%esp
    1e23:	85 c0                	test   %eax,%eax
    1e25:	0f 84 98 01 00 00    	je     1fc3 <main+0xad3>
    1e2b:	83 f8 fe             	cmp    $0xfffffffe,%eax
    1e2e:	0f 84 b9 fa ff ff    	je     18ed <main+0x3fd>
    1e34:	52                   	push   %edx
    1e35:	68 79 03 00 00       	push   $0x379
    1e3a:	68 94 89 00 00       	push   $0x8994
    1e3f:	68 db 7f 00 00       	push   $0x7fdb
    1e44:	e8 e7 6f 00 00       	call   8e30 <assert_abort@plt>
    1e49:	83 ec 0c             	sub    $0xc,%esp
    1e4c:	31 f6                	xor    %esi,%esi
    1e4e:	68 d0 83 00 00       	push   $0x83d0
    1e53:	e8 58 6e 00 00       	call   8cb0 <printf@plt>
    1e58:	83 c4 10             	add    $0x10,%esp
    1e5b:	e9 9f fa ff ff       	jmp    18ff <main+0x40f>
    1e60:	50                   	push   %eax
    1e61:	50                   	push   %eax
    1e62:	ff b5 58 ff ff ff    	pushl  -0xa8(%ebp)
    1e68:	68 d3 80 00 00       	push   $0x80d3
    1e6d:	e8 3e 6e 00 00       	call   8cb0 <printf@plt>
    1e72:	58                   	pop    %eax
    1e73:	ff b5 58 ff ff ff    	pushl  -0xa8(%ebp)
    1e79:	e8 62 71 00 00       	call   8fe0 <free@plt>
    1e7e:	c7 85 58 ff ff ff 00 	movl   $0x0,-0xa8(%ebp)
    1e85:	00 00 00 
    1e88:	83 c4 10             	add    $0x10,%esp
    1e8b:	e9 c9 fc ff ff       	jmp    1b59 <main+0x669>
    1e90:	c7 45 a0 00 00 00 00 	movl   $0x0,-0x60(%ebp)
    1e97:	e9 93 f9 ff ff       	jmp    182f <main+0x33f>
    1e9c:	83 ec 0c             	sub    $0xc,%esp
    1e9f:	68 e4 82 00 00       	push   $0x82e4
    1ea4:	e8 07 6e 00 00       	call   8cb0 <printf@plt>
    1ea9:	83 c4 10             	add    $0x10,%esp
    1eac:	e9 0a f7 ff ff       	jmp    15bb <main+0xcb>
    1eb1:	8d 75 a0             	lea    -0x60(%ebp),%esi
    1eb4:	51                   	push   %ecx
    1eb5:	56                   	push   %esi
    1eb6:	6a 00                	push   $0x0
    1eb8:	53                   	push   %ebx
    1eb9:	e8 32 4f 00 00       	call   6df0 <fdisk_part_get_max_avail>
    1ebe:	83 c4 10             	add    $0x10,%esp
    1ec1:	85 c0                	test   %eax,%eax
    1ec3:	0f 85 a0 fe ff ff    	jne    1d69 <main+0x879>
    1ec9:	83 ec 0c             	sub    $0xc,%esp
    1ecc:	8d bd 64 ff ff ff    	lea    -0x9c(%ebp),%edi
    1ed2:	56                   	push   %esi
    1ed3:	e8 98 31 00 00       	call   5070 <fdisk_cap_simplify>
    1ed8:	58                   	pop    %eax
    1ed9:	5a                   	pop    %edx
    1eda:	57                   	push   %edi
    1edb:	56                   	push   %esi
    1edc:	e8 6f 33 00 00       	call   5250 <fdisk_cap_format>
    1ee1:	83 c4 10             	add    $0x10,%esp
    1ee4:	85 c0                	test   %eax,%eax
    1ee6:	0f 85 7d fe ff ff    	jne    1d69 <main+0x879>
    1eec:	f6 45 8c 01          	testb  $0x1,-0x74(%ebp)
    1ef0:	0f 84 e2 01 00 00    	je     20d8 <main+0xbe8>
    1ef6:	50                   	push   %eax
    1ef7:	50                   	push   %eax
    1ef8:	ff b5 64 ff ff ff    	pushl  -0x9c(%ebp)
    1efe:	68 f8 83 00 00       	push   $0x83f8
    1f03:	e8 a8 6d 00 00       	call   8cb0 <printf@plt>
    1f08:	83 c4 10             	add    $0x10,%esp
    1f0b:	83 ec 0c             	sub    $0xc,%esp
    1f0e:	ff b5 64 ff ff ff    	pushl  -0x9c(%ebp)
    1f14:	e8 c7 70 00 00       	call   8fe0 <free@plt>
    1f19:	83 c4 0c             	add    $0xc,%esp
    1f1c:	c7 85 64 ff ff ff 00 	movl   $0x0,-0x9c(%ebp)
    1f23:	00 00 00 
    1f26:	56                   	push   %esi
    1f27:	6a 00                	push   $0x0
    1f29:	53                   	push   %ebx
    1f2a:	e8 71 4f 00 00       	call   6ea0 <fdisk_part_get_tot_avail>
    1f2f:	83 c4 10             	add    $0x10,%esp
    1f32:	85 c0                	test   %eax,%eax
    1f34:	0f 85 2f fe ff ff    	jne    1d69 <main+0x879>
    1f3a:	83 ec 0c             	sub    $0xc,%esp
    1f3d:	56                   	push   %esi
    1f3e:	e8 2d 31 00 00       	call   5070 <fdisk_cap_simplify>
    1f43:	58                   	pop    %eax
    1f44:	5a                   	pop    %edx
    1f45:	57                   	push   %edi
    1f46:	56                   	push   %esi
    1f47:	e8 04 33 00 00       	call   5250 <fdisk_cap_format>
    1f4c:	83 c4 10             	add    $0x10,%esp
    1f4f:	85 c0                	test   %eax,%eax
    1f51:	0f 85 12 fe ff ff    	jne    1d69 <main+0x879>
    1f57:	f6 45 8c 01          	testb  $0x1,-0x74(%ebp)
    1f5b:	0f 84 5d 01 00 00    	je     20be <main+0xbce>
    1f61:	57                   	push   %edi
    1f62:	57                   	push   %edi
    1f63:	ff b5 64 ff ff ff    	pushl  -0x9c(%ebp)
    1f69:	68 3b 81 00 00       	push   $0x813b
    1f6e:	e8 3d 6d 00 00       	call   8cb0 <printf@plt>
    1f73:	83 c4 10             	add    $0x10,%esp
    1f76:	83 ec 0c             	sub    $0xc,%esp
    1f79:	ff b5 64 ff ff ff    	pushl  -0x9c(%ebp)
    1f7f:	e8 5c 70 00 00       	call   8fe0 <free@plt>
    1f84:	c7 85 64 ff ff ff 00 	movl   $0x0,-0x9c(%ebp)
    1f8b:	00 00 00 
    1f8e:	83 c4 10             	add    $0x10,%esp
    1f91:	8b 45 8c             	mov    -0x74(%ebp),%eax
    1f94:	e9 b4 fd ff ff       	jmp    1d4d <main+0x85d>
    1f99:	57                   	push   %edi
    1f9a:	68 ad 02 00 00       	push   $0x2ad
    1f9f:	68 94 89 00 00       	push   $0x8994
    1fa4:	68 db 7f 00 00       	push   $0x7fdb
    1fa9:	e8 82 6e 00 00       	call   8e30 <assert_abort@plt>
    1fae:	83 ec 0c             	sub    $0xc,%esp
    1fb1:	68 12 81 00 00       	push   $0x8112
    1fb6:	e8 f5 6c 00 00       	call   8cb0 <printf@plt>
    1fbb:	83 c4 10             	add    $0x10,%esp
    1fbe:	e9 3c f9 ff ff       	jmp    18ff <main+0x40f>
    1fc3:	8b 45 8c             	mov    -0x74(%ebp),%eax
    1fc6:	a8 01                	test   $0x1,%al
    1fc8:	0f 84 c5 00 00 00    	je     2093 <main+0xba3>
    1fce:	a8 04                	test   $0x4,%al
    1fd0:	0f 85 5f 02 00 00    	jne    2235 <main+0xd45>
    1fd6:	a8 08                	test   $0x8,%al
    1fd8:	0f 85 34 02 00 00    	jne    2212 <main+0xd22>
    1fde:	a8 10                	test   $0x10,%al
    1fe0:	0f 85 ef 01 00 00    	jne    21d5 <main+0xce5>
    1fe6:	a8 20                	test   $0x20,%al
    1fe8:	0f 85 6e 01 00 00    	jne    215c <main+0xc6c>
    1fee:	8b 85 54 ff ff ff    	mov    -0xac(%ebp),%eax
    1ff4:	a8 01                	test   $0x1,%al
    1ff6:	0f 85 3a 01 00 00    	jne    2136 <main+0xc46>
    1ffc:	a8 02                	test   $0x2,%al
    1ffe:	0f 85 0c 01 00 00    	jne    2110 <main+0xc20>
    2004:	a8 04                	test   $0x4,%al
    2006:	74 4e                	je     2056 <main+0xb66>
    2008:	6a 00                	push   $0x0
    200a:	6a 02                	push   $0x2
    200c:	68 15 82 00 00       	push   $0x8215
    2011:	ff b5 50 ff ff ff    	pushl  -0xb0(%ebp)
    2017:	e8 a4 09 00 00       	call   29c0 <nchoice_add>
    201c:	83 c4 10             	add    $0x10,%esp
    201f:	85 c0                	test   %eax,%eax
    2021:	74 33                	je     2056 <main+0xb66>
    2023:	83 f8 fe             	cmp    $0xfffffffe,%eax
    2026:	0f 84 c1 f8 ff ff    	je     18ed <main+0x3fd>
    202c:	56                   	push   %esi
    202d:	68 cd 03 00 00       	push   $0x3cd
    2032:	68 94 89 00 00       	push   $0x8994
    2037:	68 db 7f 00 00       	push   $0x7fdb
    203c:	e8 ef 6d 00 00       	call   8e30 <assert_abort@plt>
    2041:	50                   	push   %eax
    2042:	68 a2 00 00 00       	push   $0xa2
    2047:	68 94 89 00 00       	push   $0x8994
    204c:	68 db 7f 00 00       	push   $0x7fdb
    2051:	e8 da 6d 00 00       	call   8e30 <assert_abort@plt>
    2056:	6a 00                	push   $0x0
    2058:	6a 07                	push   $0x7
    205a:	68 80 80 00 00       	push   $0x8080
    205f:	ff b5 50 ff ff ff    	pushl  -0xb0(%ebp)
    2065:	e8 56 09 00 00       	call   29c0 <nchoice_add>
    206a:	83 c4 10             	add    $0x10,%esp
    206d:	85 c0                	test   %eax,%eax
    206f:	0f 84 e3 01 00 00    	je     2258 <main+0xd68>
    2075:	83 f8 fe             	cmp    $0xfffffffe,%eax
    2078:	0f 84 6f f8 ff ff    	je     18ed <main+0x3fd>
    207e:	53                   	push   %ebx
    207f:	68 d5 03 00 00       	push   $0x3d5
    2084:	68 94 89 00 00       	push   $0x8994
    2089:	68 db 7f 00 00       	push   $0x7fdb
    208e:	e8 9d 6d 00 00       	call   8e30 <assert_abort@plt>
    2093:	a8 04                	test   $0x4,%al
    2095:	0f 84 4b ff ff ff    	je     1fe6 <main+0xaf6>
    209b:	6a 00                	push   $0x0
    209d:	6a 03                	push   $0x3
    209f:	68 d9 81 00 00       	push   $0x81d9
    20a4:	ff b5 50 ff ff ff    	pushl  -0xb0(%ebp)
    20aa:	e8 11 09 00 00       	call   29c0 <nchoice_add>
    20af:	83 c4 10             	add    $0x10,%esp
    20b2:	85 c0                	test   %eax,%eax
    20b4:	75 3c                	jne    20f2 <main+0xc02>
    20b6:	8b 45 8c             	mov    -0x74(%ebp),%eax
    20b9:	e9 28 ff ff ff       	jmp    1fe6 <main+0xaf6>
    20be:	56                   	push   %esi
    20bf:	56                   	push   %esi
    20c0:	ff b5 64 ff ff ff    	pushl  -0x9c(%ebp)
    20c6:	68 59 81 00 00       	push   $0x8159
    20cb:	e8 e0 6b 00 00       	call   8cb0 <printf@plt>
    20d0:	83 c4 10             	add    $0x10,%esp
    20d3:	e9 9e fe ff ff       	jmp    1f76 <main+0xa86>
    20d8:	51                   	push   %ecx
    20d9:	51                   	push   %ecx
    20da:	ff b5 64 ff ff ff    	pushl  -0x9c(%ebp)
    20e0:	68 23 81 00 00       	push   $0x8123
    20e5:	e8 c6 6b 00 00       	call   8cb0 <printf@plt>
    20ea:	83 c4 10             	add    $0x10,%esp
    20ed:	e9 19 fe ff ff       	jmp    1f0b <main+0xa1b>
    20f2:	83 f8 fe             	cmp    $0xfffffffe,%eax
    20f5:	0f 84 f2 f7 ff ff    	je     18ed <main+0x3fd>
    20fb:	50                   	push   %eax
    20fc:	68 a4 03 00 00       	push   $0x3a4
    2101:	68 94 89 00 00       	push   $0x8994
    2106:	68 db 7f 00 00       	push   $0x7fdb
    210b:	e8 20 6d 00 00       	call   8e30 <assert_abort@plt>
    2110:	6a 00                	push   $0x0
    2112:	6a 01                	push   $0x1
    2114:	68 08 82 00 00       	push   $0x8208
    2119:	ff b5 50 ff ff ff    	pushl  -0xb0(%ebp)
    211f:	e8 9c 08 00 00       	call   29c0 <nchoice_add>
    2124:	83 c4 10             	add    $0x10,%esp
    2127:	85 c0                	test   %eax,%eax
    2129:	75 6e                	jne    2199 <main+0xca9>
    212b:	8b 85 54 ff ff ff    	mov    -0xac(%ebp),%eax
    2131:	e9 ce fe ff ff       	jmp    2004 <main+0xb14>
    2136:	6a 00                	push   $0x0
    2138:	6a 00                	push   $0x0
    213a:	68 fb 81 00 00       	push   $0x81fb
    213f:	ff b5 50 ff ff ff    	pushl  -0xb0(%ebp)
    2145:	e8 76 08 00 00       	call   29c0 <nchoice_add>
    214a:	83 c4 10             	add    $0x10,%esp
    214d:	85 c0                	test   %eax,%eax
    214f:	75 66                	jne    21b7 <main+0xcc7>
    2151:	8b 85 54 ff ff ff    	mov    -0xac(%ebp),%eax
    2157:	e9 a0 fe ff ff       	jmp    1ffc <main+0xb0c>
    215c:	6a 00                	push   $0x0
    215e:	6a 06                	push   $0x6
    2160:	68 ea 81 00 00       	push   $0x81ea
    2165:	ff b5 50 ff ff ff    	pushl  -0xb0(%ebp)
    216b:	e8 50 08 00 00       	call   29c0 <nchoice_add>
    2170:	83 c4 10             	add    $0x10,%esp
    2173:	85 c0                	test   %eax,%eax
    2175:	0f 84 73 fe ff ff    	je     1fee <main+0xafe>
    217b:	83 f8 fe             	cmp    $0xfffffffe,%eax
    217e:	0f 84 69 f7 ff ff    	je     18ed <main+0x3fd>
    2184:	50                   	push   %eax
    2185:	68 af 03 00 00       	push   $0x3af
    218a:	68 94 89 00 00       	push   $0x8994
    218f:	68 db 7f 00 00       	push   $0x7fdb
    2194:	e8 97 6c 00 00       	call   8e30 <assert_abort@plt>
    2199:	83 f8 fe             	cmp    $0xfffffffe,%eax
    219c:	0f 84 4b f7 ff ff    	je     18ed <main+0x3fd>
    21a2:	57                   	push   %edi
    21a3:	68 c3 03 00 00       	push   $0x3c3
    21a8:	68 94 89 00 00       	push   $0x8994
    21ad:	68 db 7f 00 00       	push   $0x7fdb
    21b2:	e8 79 6c 00 00       	call   8e30 <assert_abort@plt>
    21b7:	83 f8 fe             	cmp    $0xfffffffe,%eax
    21ba:	0f 84 2d f7 ff ff    	je     18ed <main+0x3fd>
    21c0:	50                   	push   %eax
    21c1:	68 b9 03 00 00       	push   $0x3b9
    21c6:	68 94 89 00 00       	push   $0x8994
    21cb:	68 db 7f 00 00       	push   $0x7fdb
    21d0:	e8 5b 6c 00 00       	call   8e30 <assert_abort@plt>
    21d5:	6a 00                	push   $0x0
    21d7:	6a 05                	push   $0x5
    21d9:	68 c0 81 00 00       	push   $0x81c0
    21de:	ff b5 50 ff ff ff    	pushl  -0xb0(%ebp)
    21e4:	e8 d7 07 00 00       	call   29c0 <nchoice_add>
    21e9:	83 c4 10             	add    $0x10,%esp
    21ec:	85 c0                	test   %eax,%eax
    21ee:	0f 84 c2 fe ff ff    	je     20b6 <main+0xbc6>
    21f4:	83 f8 fe             	cmp    $0xfffffffe,%eax
    21f7:	0f 84 f0 f6 ff ff    	je     18ed <main+0x3fd>
    21fd:	50                   	push   %eax
    21fe:	68 9a 03 00 00       	push   $0x39a
    2203:	68 94 89 00 00       	push   $0x8994
    2208:	68 db 7f 00 00       	push   $0x7fdb
    220d:	e8 1e 6c 00 00       	call   8e30 <assert_abort@plt>
    2212:	6a 00                	push   $0x0
    2214:	6a 04                	push   $0x4
    2216:	68 a6 81 00 00       	push   $0x81a6
    221b:	ff b5 50 ff ff ff    	pushl  -0xb0(%ebp)
    2221:	e8 9a 07 00 00       	call   29c0 <nchoice_add>
    2226:	83 c4 10             	add    $0x10,%esp
    2229:	85 c0                	test   %eax,%eax
    222b:	75 75                	jne    22a2 <main+0xdb2>
    222d:	8b 45 8c             	mov    -0x74(%ebp),%eax
    2230:	e9 a9 fd ff ff       	jmp    1fde <main+0xaee>
    2235:	6a 00                	push   $0x0
    2237:	6a 03                	push   $0x3
    2239:	68 8d 81 00 00       	push   $0x818d
    223e:	ff b5 50 ff ff ff    	pushl  -0xb0(%ebp)
    2244:	e8 77 07 00 00       	call   29c0 <nchoice_add>
    2249:	83 c4 10             	add    $0x10,%esp
    224c:	85 c0                	test   %eax,%eax
    224e:	75 70                	jne    22c0 <main+0xdd0>
    2250:	8b 45 8c             	mov    -0x74(%ebp),%eax
    2253:	e9 7e fd ff ff       	jmp    1fd6 <main+0xae6>
    2258:	8d 85 70 ff ff ff    	lea    -0x90(%ebp),%eax
    225e:	51                   	push   %ecx
    225f:	51                   	push   %ecx
    2260:	50                   	push   %eax
    2261:	ff b5 50 ff ff ff    	pushl  -0xb0(%ebp)
    2267:	e8 04 08 00 00       	call   2a70 <nchoice_get>
    226c:	83 c4 10             	add    $0x10,%esp
    226f:	85 c0                	test   %eax,%eax
    2271:	75 1a                	jne    228d <main+0xd9d>
    2273:	83 bd 70 ff ff ff 07 	cmpl   $0x7,-0x90(%ebp)
    227a:	0f 87 b6 f7 ff ff    	ja     1a36 <main+0x546>
    2280:	8b 85 70 ff ff ff    	mov    -0x90(%ebp),%eax
    2286:	ff 24 85 20 85 00 00 	jmp    *0x8520(,%eax,4)
    228d:	83 ec 0c             	sub    $0xc,%esp
    2290:	68 e4 82 00 00       	push   $0x82e4
    2295:	e8 16 6a 00 00       	call   8cb0 <printf@plt>
    229a:	83 c4 10             	add    $0x10,%esp
    229d:	e9 b4 f6 ff ff       	jmp    1956 <main+0x466>
    22a2:	83 f8 fe             	cmp    $0xfffffffe,%eax
    22a5:	0f 84 42 f6 ff ff    	je     18ed <main+0x3fd>
    22ab:	50                   	push   %eax
    22ac:	68 8f 03 00 00       	push   $0x38f
    22b1:	68 94 89 00 00       	push   $0x8994
    22b6:	68 db 7f 00 00       	push   $0x7fdb
    22bb:	e8 70 6b 00 00       	call   8e30 <assert_abort@plt>
    22c0:	83 f8 fe             	cmp    $0xfffffffe,%eax
    22c3:	0f 84 24 f6 ff ff    	je     18ed <main+0x3fd>
    22c9:	50                   	push   %eax
    22ca:	68 84 03 00 00       	push   $0x384
    22cf:	68 94 89 00 00       	push   $0x8994
    22d4:	68 db 7f 00 00       	push   $0x7fdb
    22d9:	e8 52 6b 00 00       	call   8e30 <assert_abort@plt>
    22de:	83 ec 0c             	sub    $0xc,%esp
    22e1:	8d 85 74 ff ff ff    	lea    -0x8c(%ebp),%eax
    22e7:	c7 85 74 ff ff ff 00 	movl   $0x0,-0x8c(%ebp)
    22ee:	00 00 00 
    22f1:	c7 85 78 ff ff ff 00 	movl   $0x0,-0x88(%ebp)
    22f8:	00 00 00 
    22fb:	50                   	push   %eax
    22fc:	c7 85 7c ff ff ff 00 	movl   $0x0,-0x84(%ebp)
    2303:	00 00 00 
    2306:	c7 45 80 00 00 00 00 	movl   $0x0,-0x80(%ebp)
    230d:	e8 ae 05 00 00       	call   28c0 <nchoice_create>
    2312:	83 c4 10             	add    $0x10,%esp
    2315:	85 c0                	test   %eax,%eax
    2317:	0f 84 8a 00 00 00    	je     23a7 <main+0xeb7>
    231d:	83 f8 fe             	cmp    $0xfffffffe,%eax
    2320:	75 70                	jne    2392 <main+0xea2>
    2322:	83 ec 0c             	sub    $0xc,%esp
    2325:	31 ff                	xor    %edi,%edi
    2327:	68 13 81 00 00       	push   $0x8113
    232c:	e8 7f 69 00 00       	call   8cb0 <printf@plt>
    2331:	83 c4 10             	add    $0x10,%esp
    2334:	83 ec 0c             	sub    $0xc,%esp
    2337:	ff b5 78 ff ff ff    	pushl  -0x88(%ebp)
    233d:	e8 9e 6c 00 00       	call   8fe0 <free@plt>
    2342:	58                   	pop    %eax
    2343:	ff b5 7c ff ff ff    	pushl  -0x84(%ebp)
    2349:	e8 92 6c 00 00       	call   8fe0 <free@plt>
    234e:	89 3c 24             	mov    %edi,(%esp)
    2351:	e8 8a 6c 00 00       	call   8fe0 <free@plt>
    2356:	5a                   	pop    %edx
    2357:	ff 75 80             	pushl  -0x80(%ebp)
    235a:	e8 81 6c 00 00       	call   8fe0 <free@plt>
    235f:	8b 85 74 ff ff ff    	mov    -0x8c(%ebp),%eax
    2365:	83 c4 10             	add    $0x10,%esp
    2368:	85 c0                	test   %eax,%eax
    236a:	0f 84 c6 f6 ff ff    	je     1a36 <main+0x546>
    2370:	83 ec 0c             	sub    $0xc,%esp
    2373:	50                   	push   %eax
    2374:	e8 d7 05 00 00       	call   2950 <nchoice_destroy>
    2379:	83 c4 10             	add    $0x10,%esp
    237c:	e9 b5 f6 ff ff       	jmp    1a36 <main+0x546>
    2381:	ba 02 00 00 00       	mov    $0x2,%edx
    2386:	89 d8                	mov    %ebx,%eax
    2388:	e8 92 ee ff ff       	call   121f <fdsk_create_part>
    238d:	e9 a4 f6 ff ff       	jmp    1a36 <main+0x546>
    2392:	57                   	push   %edi
    2393:	68 1a 02 00 00       	push   $0x21a
    2398:	68 94 89 00 00       	push   $0x8994
    239d:	68 db 7f 00 00       	push   $0x7fdb
    23a2:	e8 89 6a 00 00       	call   8e30 <assert_abort@plt>
    23a7:	56                   	push   %esi
    23a8:	56                   	push   %esi
    23a9:	68 75 82 00 00       	push   $0x8275
    23ae:	ff b5 74 ff ff ff    	pushl  -0x8c(%ebp)
    23b4:	e8 c7 05 00 00       	call   2980 <nchoice_set_prompt>
    23b9:	83 c4 10             	add    $0x10,%esp
    23bc:	85 c0                	test   %eax,%eax
    23be:	74 3d                	je     23fd <main+0xf0d>
    23c0:	83 f8 fe             	cmp    $0xfffffffe,%eax
    23c3:	0f 84 59 ff ff ff    	je     2322 <main+0xe32>
    23c9:	53                   	push   %ebx
    23ca:	68 21 02 00 00       	push   $0x221
    23cf:	68 94 89 00 00       	push   $0x8994
    23d4:	68 db 7f 00 00       	push   $0x7fdb
    23d9:	e8 52 6a 00 00       	call   8e30 <assert_abort@plt>
    23de:	ba 01 00 00 00       	mov    $0x1,%edx
    23e3:	89 d8                	mov    %ebx,%eax
    23e5:	e8 35 ee ff ff       	call   121f <fdsk_create_part>
    23ea:	e9 47 f6 ff ff       	jmp    1a36 <main+0x546>
    23ef:	31 d2                	xor    %edx,%edx
    23f1:	89 d8                	mov    %ebx,%eax
    23f3:	e8 27 ee ff ff       	call   121f <fdsk_create_part>
    23f8:	e9 39 f6 ff ff       	jmp    1a36 <main+0x546>
    23fd:	83 ec 0c             	sub    $0xc,%esp
    2400:	8d 75 cc             	lea    -0x34(%ebp),%esi
    2403:	53                   	push   %ebx
    2404:	e8 67 49 00 00       	call   6d70 <fdisk_part_first>
    2409:	83 c4 10             	add    $0x10,%esp
    240c:	89 c3                	mov    %eax,%ebx
    240e:	85 db                	test   %ebx,%ebx
    2410:	0f 84 32 03 00 00    	je     2748 <main+0x1258>
    2416:	51                   	push   %ecx
    2417:	51                   	push   %ecx
    2418:	56                   	push   %esi
    2419:	53                   	push   %ebx
    241a:	e8 91 49 00 00       	call   6db0 <fdisk_part_get_info>
    241f:	83 c4 10             	add    $0x10,%esp
    2422:	85 c0                	test   %eax,%eax
    2424:	0f 85 db 02 00 00    	jne    2705 <main+0x1215>
    242a:	83 ec 0c             	sub    $0xc,%esp
    242d:	56                   	push   %esi
    242e:	e8 3d 2c 00 00       	call   5070 <fdisk_cap_simplify>
    2433:	58                   	pop    %eax
    2434:	8d 85 78 ff ff ff    	lea    -0x88(%ebp),%eax
    243a:	5a                   	pop    %edx
    243b:	50                   	push   %eax
    243c:	56                   	push   %esi
    243d:	e8 0e 2e 00 00       	call   5250 <fdisk_cap_format>
    2442:	83 c4 10             	add    $0x10,%esp
    2445:	85 c0                	test   %eax,%eax
    2447:	0f 85 d5 fe ff ff    	jne    2322 <main+0xe32>
    244d:	50                   	push   %eax
    244e:	50                   	push   %eax
    244f:	8d 85 7c ff ff ff    	lea    -0x84(%ebp),%eax
    2455:	50                   	push   %eax
    2456:	ff 75 dc             	pushl  -0x24(%ebp)
    2459:	e8 22 5b 00 00       	call   7f80 <fdisk_pkind_format>
    245e:	83 c4 10             	add    $0x10,%esp
    2461:	85 c0                	test   %eax,%eax
    2463:	0f 85 b3 02 00 00    	jne    271c <main+0x122c>
    2469:	83 7d dc 01          	cmpl   $0x1,-0x24(%ebp)
    246d:	0f 84 1c 01 00 00    	je     258f <main+0x109f>
    2473:	8b 45 e0             	mov    -0x20(%ebp),%eax
    2476:	8b 55 e4             	mov    -0x1c(%ebp),%edx
    2479:	83 f8 01             	cmp    $0x1,%eax
    247c:	0f 84 d3 00 00 00    	je     2555 <main+0x1065>
    2482:	0f 82 c0 00 00 00    	jb     2548 <main+0x1058>
    2488:	83 f8 02             	cmp    $0x2,%eax
    248b:	75 1b                	jne    24a8 <main+0xfb8>
    248d:	83 ec 0c             	sub    $0xc,%esp
    2490:	68 e9 80 00 00       	push   $0x80e9
    2495:	e8 e6 69 00 00       	call   8e80 <str_dup@plt>
    249a:	83 c4 10             	add    $0x10,%esp
    249d:	89 45 84             	mov    %eax,-0x7c(%ebp)
    24a0:	85 c0                	test   %eax,%eax
    24a2:	0f 84 7a fe ff ff    	je     2322 <main+0xe32>
    24a8:	83 ec 0c             	sub    $0xc,%esp
    24ab:	8b 7d 84             	mov    -0x7c(%ebp),%edi
    24ae:	8d 45 80             	lea    -0x80(%ebp),%eax
    24b1:	57                   	push   %edi
    24b2:	ff b5 7c ff ff ff    	pushl  -0x84(%ebp)
    24b8:	ff b5 78 ff ff ff    	pushl  -0x88(%ebp)
    24be:	68 90 82 00 00       	push   $0x8290
    24c3:	50                   	push   %eax
    24c4:	e8 57 6a 00 00       	call   8f20 <asprintf@plt>
    24c9:	83 c4 20             	add    $0x20,%esp
    24cc:	85 c0                	test   %eax,%eax
    24ce:	0f 88 60 fe ff ff    	js     2334 <main+0xe44>
    24d4:	6a 00                	push   $0x0
    24d6:	53                   	push   %ebx
    24d7:	ff 75 80             	pushl  -0x80(%ebp)
    24da:	ff b5 74 ff ff ff    	pushl  -0x8c(%ebp)
    24e0:	e8 db 04 00 00       	call   29c0 <nchoice_add>
    24e5:	83 c4 10             	add    $0x10,%esp
    24e8:	85 c0                	test   %eax,%eax
    24ea:	0f 85 81 00 00 00    	jne    2571 <main+0x1081>
    24f0:	83 ec 0c             	sub    $0xc,%esp
    24f3:	ff b5 78 ff ff ff    	pushl  -0x88(%ebp)
    24f9:	e8 e2 6a 00 00       	call   8fe0 <free@plt>
    24fe:	58                   	pop    %eax
    24ff:	ff b5 7c ff ff ff    	pushl  -0x84(%ebp)
    2505:	c7 85 78 ff ff ff 00 	movl   $0x0,-0x88(%ebp)
    250c:	00 00 00 
    250f:	e8 cc 6a 00 00       	call   8fe0 <free@plt>
    2514:	89 3c 24             	mov    %edi,(%esp)
    2517:	c7 85 7c ff ff ff 00 	movl   $0x0,-0x84(%ebp)
    251e:	00 00 00 
    2521:	e8 ba 6a 00 00       	call   8fe0 <free@plt>
    2526:	58                   	pop    %eax
    2527:	ff 75 80             	pushl  -0x80(%ebp)
    252a:	e8 b1 6a 00 00       	call   8fe0 <free@plt>
    252f:	89 1c 24             	mov    %ebx,(%esp)
    2532:	c7 45 80 00 00 00 00 	movl   $0x0,-0x80(%ebp)
    2539:	e8 52 48 00 00       	call   6d90 <fdisk_part_next>
    253e:	83 c4 10             	add    $0x10,%esp
    2541:	89 c3                	mov    %eax,%ebx
    2543:	e9 c6 fe ff ff       	jmp    240e <main+0xf1e>
    2548:	83 ec 0c             	sub    $0xc,%esp
    254b:	68 e3 80 00 00       	push   $0x80e3
    2550:	e9 40 ff ff ff       	jmp    2495 <main+0xfa5>
    2555:	50                   	push   %eax
    2556:	50                   	push   %eax
    2557:	8d 45 84             	lea    -0x7c(%ebp),%eax
    255a:	50                   	push   %eax
    255b:	52                   	push   %edx
    255c:	e8 df 59 00 00       	call   7f40 <fdisk_fstype_format>
    2561:	83 c4 10             	add    $0x10,%esp
    2564:	85 c0                	test   %eax,%eax
    2566:	0f 84 3c ff ff ff    	je     24a8 <main+0xfb8>
    256c:	e9 b1 fd ff ff       	jmp    2322 <main+0xe32>
    2571:	83 f8 fe             	cmp    $0xfffffffe,%eax
    2574:	0f 85 b9 01 00 00    	jne    2733 <main+0x1243>
    257a:	83 ec 0c             	sub    $0xc,%esp
    257d:	68 13 81 00 00       	push   $0x8113
    2582:	e8 29 67 00 00       	call   8cb0 <printf@plt>
    2587:	83 c4 10             	add    $0x10,%esp
    258a:	e9 a5 fd ff ff       	jmp    2334 <main+0xe44>
    258f:	ff b5 7c ff ff ff    	pushl  -0x84(%ebp)
    2595:	ff b5 78 ff ff ff    	pushl  -0x88(%ebp)
    259b:	8d 45 80             	lea    -0x80(%ebp),%eax
    259e:	68 94 82 00 00       	push   $0x8294
    25a3:	50                   	push   %eax
    25a4:	e8 77 69 00 00       	call   8f20 <asprintf@plt>
    25a9:	31 ff                	xor    %edi,%edi
    25ab:	83 c4 10             	add    $0x10,%esp
    25ae:	85 c0                	test   %eax,%eax
    25b0:	0f 89 1e ff ff ff    	jns    24d4 <main+0xfe4>
    25b6:	e9 79 fd ff ff       	jmp    2334 <main+0xe44>
    25bb:	8d 7d cc             	lea    -0x34(%ebp),%edi
    25be:	b8 9c 84 00 00       	mov    $0x849c,%eax
    25c3:	89 fa                	mov    %edi,%edx
    25c5:	e8 76 eb ff ff       	call   1140 <fdsk_confirm>
    25ca:	85 c0                	test   %eax,%eax
    25cc:	75 79                	jne    2647 <main+0x1157>
    25ce:	80 7d cc 00          	cmpb   $0x0,-0x34(%ebp)
    25d2:	0f 84 5e f4 ff ff    	je     1a36 <main+0x546>
    25d8:	83 ec 0c             	sub    $0xc,%esp
    25db:	53                   	push   %ebx
    25dc:	e8 af 40 00 00       	call   6690 <fdisk_dev_erase>
    25e1:	83 c4 10             	add    $0x10,%esp
    25e4:	85 c0                	test   %eax,%eax
    25e6:	0f 84 4a f4 ff ff    	je     1a36 <main+0x546>
    25ec:	83 ec 0c             	sub    $0xc,%esp
    25ef:	68 60 82 00 00       	push   $0x8260
    25f4:	e8 b7 66 00 00       	call   8cb0 <printf@plt>
    25f9:	83 c4 10             	add    $0x10,%esp
    25fc:	e9 35 f4 ff ff       	jmp    1a36 <main+0x546>
    2601:	8d 7d cc             	lea    -0x34(%ebp),%edi
    2604:	b8 38 84 00 00       	mov    $0x8438,%eax
    2609:	89 fa                	mov    %edi,%edx
    260b:	e8 30 eb ff ff       	call   1140 <fdsk_confirm>
    2610:	85 c0                	test   %eax,%eax
    2612:	75 33                	jne    2647 <main+0x1157>
    2614:	80 7d cc 00          	cmpb   $0x0,-0x34(%ebp)
    2618:	0f 84 18 f4 ff ff    	je     1a36 <main+0x546>
    261e:	83 ec 0c             	sub    $0xc,%esp
    2621:	53                   	push   %ebx
    2622:	e8 69 45 00 00       	call   6b90 <fdisk_label_destroy>
    2627:	83 c4 10             	add    $0x10,%esp
    262a:	85 c0                	test   %eax,%eax
    262c:	0f 84 04 f4 ff ff    	je     1a36 <main+0x546>
    2632:	83 ec 0c             	sub    $0xc,%esp
    2635:	68 49 82 00 00       	push   $0x8249
    263a:	e8 71 66 00 00       	call   8cb0 <printf@plt>
    263f:	83 c4 10             	add    $0x10,%esp
    2642:	e9 ef f3 ff ff       	jmp    1a36 <main+0x546>
    2647:	83 ec 0c             	sub    $0xc,%esp
    264a:	68 78 84 00 00       	push   $0x8478
    264f:	e8 5c 66 00 00       	call   8cb0 <printf@plt>
    2654:	83 c4 10             	add    $0x10,%esp
    2657:	e9 da f3 ff ff       	jmp    1a36 <main+0x546>
    265c:	83 ec 0c             	sub    $0xc,%esp
    265f:	8d 45 80             	lea    -0x80(%ebp),%eax
    2662:	c7 45 80 00 00 00 00 	movl   $0x0,-0x80(%ebp)
    2669:	c7 45 cc 00 00 00 00 	movl   $0x0,-0x34(%ebp)
    2670:	50                   	push   %eax
    2671:	e8 4a 02 00 00       	call   28c0 <nchoice_create>
    2676:	83 c4 10             	add    $0x10,%esp
    2679:	85 c0                	test   %eax,%eax
    267b:	74 54                	je     26d1 <main+0x11e1>
    267d:	83 f8 fe             	cmp    $0xfffffffe,%eax
    2680:	75 3a                	jne    26bc <main+0x11cc>
    2682:	83 ec 0c             	sub    $0xc,%esp
    2685:	68 13 81 00 00       	push   $0x8113
    268a:	e8 21 66 00 00       	call   8cb0 <printf@plt>
    268f:	83 c4 10             	add    $0x10,%esp
    2692:	83 ec 0c             	sub    $0xc,%esp
    2695:	ff 75 cc             	pushl  -0x34(%ebp)
    2698:	e8 43 69 00 00       	call   8fe0 <free@plt>
    269d:	8b 45 80             	mov    -0x80(%ebp),%eax
    26a0:	83 c4 10             	add    $0x10,%esp
    26a3:	85 c0                	test   %eax,%eax
    26a5:	0f 85 c5 fc ff ff    	jne    2370 <main+0xe80>
    26ab:	e9 86 f3 ff ff       	jmp    1a36 <main+0x546>
    26b0:	c6 05 80 aa 00 00 01 	movb   $0x1,0xaa80
    26b7:	e9 7a f3 ff ff       	jmp    1a36 <main+0x546>
    26bc:	52                   	push   %edx
    26bd:	68 20 01 00 00       	push   $0x120
    26c2:	68 94 89 00 00       	push   $0x8994
    26c7:	68 db 7f 00 00       	push   $0x7fdb
    26cc:	e8 5f 67 00 00       	call   8e30 <assert_abort@plt>
    26d1:	50                   	push   %eax
    26d2:	50                   	push   %eax
    26d3:	68 20 82 00 00       	push   $0x8220
    26d8:	ff 75 80             	pushl  -0x80(%ebp)
    26db:	e8 a0 02 00 00       	call   2980 <nchoice_set_prompt>
    26e0:	83 c4 10             	add    $0x10,%esp
    26e3:	85 c0                	test   %eax,%eax
    26e5:	0f 84 9a 00 00 00    	je     2785 <main+0x1295>
    26eb:	83 f8 fe             	cmp    $0xfffffffe,%eax
    26ee:	74 92                	je     2682 <main+0x1192>
    26f0:	50                   	push   %eax
    26f1:	68 27 01 00 00       	push   $0x127
    26f6:	68 94 89 00 00       	push   $0x8994
    26fb:	68 db 7f 00 00       	push   $0x7fdb
    2700:	e8 2b 67 00 00       	call   8e30 <assert_abort@plt>
    2705:	83 ec 0c             	sub    $0xc,%esp
    2708:	31 ff                	xor    %edi,%edi
    270a:	68 d0 83 00 00       	push   $0x83d0
    270f:	e8 9c 65 00 00       	call   8cb0 <printf@plt>
    2714:	83 c4 10             	add    $0x10,%esp
    2717:	e9 18 fc ff ff       	jmp    2334 <main+0xe44>
    271c:	83 ec 0c             	sub    $0xc,%esp
    271f:	31 ff                	xor    %edi,%edi
    2721:	68 12 81 00 00       	push   $0x8112
    2726:	e8 85 65 00 00       	call   8cb0 <printf@plt>
    272b:	83 c4 10             	add    $0x10,%esp
    272e:	e9 01 fc ff ff       	jmp    2334 <main+0xe44>
    2733:	50                   	push   %eax
    2734:	68 53 02 00 00       	push   $0x253
    2739:	68 94 89 00 00       	push   $0x8994
    273e:	68 db 7f 00 00       	push   $0x7fdb
    2743:	e8 e8 66 00 00       	call   8e30 <assert_abort@plt>
    2748:	6a 00                	push   $0x0
    274a:	6a 00                	push   $0x0
    274c:	68 9b 82 00 00       	push   $0x829b
    2751:	ff b5 74 ff ff ff    	pushl  -0x8c(%ebp)
    2757:	e8 64 02 00 00       	call   29c0 <nchoice_add>
    275c:	83 c4 10             	add    $0x10,%esp
    275f:	85 c0                	test   %eax,%eax
    2761:	0f 84 9f 00 00 00    	je     2806 <main+0x1316>
    2767:	83 f8 fe             	cmp    $0xfffffffe,%eax
    276a:	0f 84 b2 fb ff ff    	je     2322 <main+0xe32>
    2770:	53                   	push   %ebx
    2771:	68 66 02 00 00       	push   $0x266
    2776:	68 94 89 00 00       	push   $0x8994
    277b:	68 db 7f 00 00       	push   $0x7fdb
    2780:	e8 ab 66 00 00       	call   8e30 <assert_abort@plt>
    2785:	be 01 00 00 00       	mov    $0x1,%esi
    278a:	8d 7d cc             	lea    -0x34(%ebp),%edi
    278d:	50                   	push   %eax
    278e:	50                   	push   %eax
    278f:	57                   	push   %edi
    2790:	56                   	push   %esi
    2791:	e8 6a 57 00 00       	call   7f00 <fdisk_ltype_format>
    2796:	83 c4 10             	add    $0x10,%esp
    2799:	85 c0                	test   %eax,%eax
    279b:	0f 85 f1 fe ff ff    	jne    2692 <main+0x11a2>
    27a1:	31 c0                	xor    %eax,%eax
    27a3:	83 fe 01             	cmp    $0x1,%esi
    27a6:	0f 94 c0             	sete   %al
    27a9:	50                   	push   %eax
    27aa:	56                   	push   %esi
    27ab:	ff 75 cc             	pushl  -0x34(%ebp)
    27ae:	ff 75 80             	pushl  -0x80(%ebp)
    27b1:	e8 0a 02 00 00       	call   29c0 <nchoice_add>
    27b6:	83 c4 10             	add    $0x10,%esp
    27b9:	85 c0                	test   %eax,%eax
    27bb:	0f 85 81 00 00 00    	jne    2842 <main+0x1352>
    27c1:	83 ec 0c             	sub    $0xc,%esp
    27c4:	46                   	inc    %esi
    27c5:	ff 75 cc             	pushl  -0x34(%ebp)
    27c8:	e8 13 68 00 00       	call   8fe0 <free@plt>
    27cd:	83 c4 10             	add    $0x10,%esp
    27d0:	c7 45 cc 00 00 00 00 	movl   $0x0,-0x34(%ebp)
    27d7:	83 fe 03             	cmp    $0x3,%esi
    27da:	75 b1                	jne    278d <main+0x129d>
    27dc:	50                   	push   %eax
    27dd:	50                   	push   %eax
    27de:	8d 45 84             	lea    -0x7c(%ebp),%eax
    27e1:	50                   	push   %eax
    27e2:	ff 75 80             	pushl  -0x80(%ebp)
    27e5:	e8 86 02 00 00       	call   2a70 <nchoice_get>
    27ea:	83 c4 10             	add    $0x10,%esp
    27ed:	85 c0                	test   %eax,%eax
    27ef:	74 6f                	je     2860 <main+0x1370>
    27f1:	83 ec 0c             	sub    $0xc,%esp
    27f4:	68 e4 82 00 00       	push   $0x82e4
    27f9:	e8 b2 64 00 00       	call   8cb0 <printf@plt>
    27fe:	83 c4 10             	add    $0x10,%esp
    2801:	e9 8c fe ff ff       	jmp    2692 <main+0x11a2>
    2806:	8d 45 84             	lea    -0x7c(%ebp),%eax
    2809:	51                   	push   %ecx
    280a:	51                   	push   %ecx
    280b:	50                   	push   %eax
    280c:	ff b5 74 ff ff ff    	pushl  -0x8c(%ebp)
    2812:	e8 59 02 00 00       	call   2a70 <nchoice_get>
    2817:	83 c4 10             	add    $0x10,%esp
    281a:	83 f8 ff             	cmp    $0xffffffff,%eax
    281d:	0f 84 13 f2 ff ff    	je     1a36 <main+0x546>
    2823:	85 c0                	test   %eax,%eax
    2825:	0f 84 a7 f1 ff ff    	je     19d2 <main+0x4e2>
    282b:	83 ec 0c             	sub    $0xc,%esp
    282e:	31 ff                	xor    %edi,%edi
    2830:	68 e4 82 00 00       	push   $0x82e4
    2835:	e8 76 64 00 00       	call   8cb0 <printf@plt>
    283a:	83 c4 10             	add    $0x10,%esp
    283d:	e9 f2 fa ff ff       	jmp    2334 <main+0xe44>
    2842:	83 f8 fe             	cmp    $0xfffffffe,%eax
    2845:	0f 84 37 fe ff ff    	je     2682 <main+0x1192>
    284b:	50                   	push   %eax
    284c:	68 34 01 00 00       	push   $0x134
    2851:	68 94 89 00 00       	push   $0x8994
    2856:	68 db 7f 00 00       	push   $0x7fdb
    285b:	e8 d0 65 00 00       	call   8e30 <assert_abort@plt>
    2860:	50                   	push   %eax
    2861:	50                   	push   %eax
    2862:	ff 75 84             	pushl  -0x7c(%ebp)
    2865:	53                   	push   %ebx
    2866:	e8 45 40 00 00       	call   68b0 <fdisk_label_create>
    286b:	83 c4 10             	add    $0x10,%esp
    286e:	85 c0                	test   %eax,%eax
    2870:	74 2c                	je     289e <main+0x13ae>
    2872:	83 ec 0c             	sub    $0xc,%esp
    2875:	68 32 82 00 00       	push   $0x8232
    287a:	e8 31 64 00 00       	call   8cb0 <printf@plt>
    287f:	83 c4 10             	add    $0x10,%esp
    2882:	e9 0b fe ff ff       	jmp    2692 <main+0x11a2>
    2887:	83 ec 0c             	sub    $0xc,%esp
    288a:	31 ff                	xor    %edi,%edi
    288c:	68 78 84 00 00       	push   $0x8478
    2891:	e8 1a 64 00 00       	call   8cb0 <printf@plt>
    2896:	83 c4 10             	add    $0x10,%esp
    2899:	e9 96 fa ff ff       	jmp    2334 <main+0xe44>
    289e:	83 ec 0c             	sub    $0xc,%esp
    28a1:	ff 75 80             	pushl  -0x80(%ebp)
    28a4:	e8 a7 00 00 00       	call   2950 <nchoice_destroy>
    28a9:	83 c4 10             	add    $0x10,%esp
    28ac:	e9 85 f1 ff ff       	jmp    1a36 <main+0x546>
    28b1:	66 90                	xchg   %ax,%ax
    28b3:	66 90                	xchg   %ax,%ax
    28b5:	66 90                	xchg   %ax,%ax
    28b7:	66 90                	xchg   %ax,%ax
    28b9:	66 90                	xchg   %ax,%ax
    28bb:	66 90                	xchg   %ax,%ax
    28bd:	66 90                	xchg   %ax,%ax
    28bf:	90                   	nop

000028c0 <nchoice_create>:
    28c0:	55                   	push   %ebp
    28c1:	89 e5                	mov    %esp,%ebp
    28c3:	53                   	push   %ebx
    28c4:	83 ec 0c             	sub    $0xc,%esp
    28c7:	6a 14                	push   $0x14
    28c9:	6a 01                	push   $0x1
    28cb:	e8 70 65 00 00       	call   8e40 <calloc@plt>
    28d0:	83 c4 10             	add    $0x10,%esp
    28d3:	85 c0                	test   %eax,%eax
    28d5:	74 47                	je     291e <nchoice_create+0x5e>
    28d7:	89 c3                	mov    %eax,%ebx
    28d9:	8d 40 04             	lea    0x4(%eax),%eax
    28dc:	89 43 04             	mov    %eax,0x4(%ebx)
    28df:	89 43 08             	mov    %eax,0x8(%ebx)
    28e2:	e8 d9 0a 00 00       	call   33c0 <tinput_new>
    28e7:	89 43 0c             	mov    %eax,0xc(%ebx)
    28ea:	85 c0                	test   %eax,%eax
    28ec:	74 1c                	je     290a <nchoice_create+0x4a>
    28ee:	52                   	push   %edx
    28ef:	52                   	push   %edx
    28f0:	68 40 85 00 00       	push   $0x8540
    28f5:	50                   	push   %eax
    28f6:	e8 55 0b 00 00       	call   3450 <tinput_set_prompt>
    28fb:	83 c4 10             	add    $0x10,%esp
    28fe:	85 c0                	test   %eax,%eax
    2900:	74 26                	je     2928 <nchoice_create+0x68>
    2902:	83 f8 fe             	cmp    $0xfffffffe,%eax
    2905:	75 2b                	jne    2932 <nchoice_create+0x72>
    2907:	8b 43 0c             	mov    0xc(%ebx),%eax
    290a:	83 ec 0c             	sub    $0xc,%esp
    290d:	50                   	push   %eax
    290e:	e8 0d 0b 00 00       	call   3420 <tinput_destroy>
    2913:	89 1c 24             	mov    %ebx,(%esp)
    2916:	e8 c5 66 00 00       	call   8fe0 <free@plt>
    291b:	83 c4 10             	add    $0x10,%esp
    291e:	b8 fe ff ff ff       	mov    $0xfffffffe,%eax
    2923:	8b 5d fc             	mov    -0x4(%ebp),%ebx
    2926:	c9                   	leave  
    2927:	c3                   	ret    
    2928:	8b 55 08             	mov    0x8(%ebp),%edx
    292b:	89 1a                	mov    %ebx,(%edx)
    292d:	8b 5d fc             	mov    -0x4(%ebp),%ebx
    2930:	c9                   	leave  
    2931:	c3                   	ret    
    2932:	50                   	push   %eax
    2933:	6a 3e                	push   $0x3e
    2935:	68 49 85 00 00       	push   $0x8549
    293a:	68 db 7f 00 00       	push   $0x7fdb
    293f:	e8 ec 64 00 00       	call   8e30 <assert_abort@plt>
    2944:	8d b6 00 00 00 00    	lea    0x0(%esi),%esi
    294a:	8d bf 00 00 00 00    	lea    0x0(%edi),%edi

00002950 <nchoice_destroy>:
    2950:	55                   	push   %ebp
    2951:	89 e5                	mov    %esp,%ebp
    2953:	53                   	push   %ebx
    2954:	52                   	push   %edx
    2955:	8b 5d 08             	mov    0x8(%ebp),%ebx
    2958:	85 db                	test   %ebx,%ebx
    295a:	74 1c                	je     2978 <nchoice_destroy+0x28>
    295c:	83 ec 0c             	sub    $0xc,%esp
    295f:	8b 43 0c             	mov    0xc(%ebx),%eax
    2962:	50                   	push   %eax
    2963:	e8 b8 0a 00 00       	call   3420 <tinput_destroy>
    2968:	89 5d 08             	mov    %ebx,0x8(%ebp)
    296b:	83 c4 10             	add    $0x10,%esp
    296e:	8b 5d fc             	mov    -0x4(%ebp),%ebx
    2971:	c9                   	leave  
    2972:	e9 69 66 00 00       	jmp    8fe0 <free@plt>
    2977:	90                   	nop
    2978:	8b 5d fc             	mov    -0x4(%ebp),%ebx
    297b:	c9                   	leave  
    297c:	c3                   	ret    
    297d:	8d 76 00             	lea    0x0(%esi),%esi

00002980 <nchoice_set_prompt>:
    2980:	55                   	push   %ebp
    2981:	89 e5                	mov    %esp,%ebp
    2983:	56                   	push   %esi
    2984:	53                   	push   %ebx
    2985:	83 ec 0c             	sub    $0xc,%esp
    2988:	8b 55 0c             	mov    0xc(%ebp),%edx
    298b:	8b 75 08             	mov    0x8(%ebp),%esi
    298e:	52                   	push   %edx
    298f:	e8 ec 64 00 00       	call   8e80 <str_dup@plt>
    2994:	83 c4 10             	add    $0x10,%esp
    2997:	85 c0                	test   %eax,%eax
    2999:	74 1d                	je     29b8 <nchoice_set_prompt+0x38>
    299b:	83 ec 0c             	sub    $0xc,%esp
    299e:	89 c3                	mov    %eax,%ebx
    29a0:	8b 06                	mov    (%esi),%eax
    29a2:	50                   	push   %eax
    29a3:	e8 38 66 00 00       	call   8fe0 <free@plt>
    29a8:	89 1e                	mov    %ebx,(%esi)
    29aa:	83 c4 10             	add    $0x10,%esp
    29ad:	31 c0                	xor    %eax,%eax
    29af:	8d 65 f8             	lea    -0x8(%ebp),%esp
    29b2:	5b                   	pop    %ebx
    29b3:	5e                   	pop    %esi
    29b4:	5d                   	pop    %ebp
    29b5:	c3                   	ret    
    29b6:	66 90                	xchg   %ax,%ax
    29b8:	b8 fe ff ff ff       	mov    $0xfffffffe,%eax
    29bd:	eb f0                	jmp    29af <nchoice_set_prompt+0x2f>
    29bf:	90                   	nop

000029c0 <nchoice_add>:
    29c0:	55                   	push   %ebp
    29c1:	89 e5                	mov    %esp,%ebp
    29c3:	56                   	push   %esi
    29c4:	53                   	push   %ebx
    29c5:	53                   	push   %ebx
    29c6:	8b 75 08             	mov    0x8(%ebp),%esi
    29c9:	53                   	push   %ebx
    29ca:	6a 10                	push   $0x10
    29cc:	6a 01                	push   $0x1
    29ce:	e8 6d 64 00 00       	call   8e40 <calloc@plt>
    29d3:	83 c4 10             	add    $0x10,%esp
    29d6:	85 c0                	test   %eax,%eax
    29d8:	74 5e                	je     2a38 <nchoice_add+0x78>
    29da:	83 ec 0c             	sub    $0xc,%esp
    29dd:	8b 4d 0c             	mov    0xc(%ebp),%ecx
    29e0:	89 c3                	mov    %eax,%ebx
    29e2:	51                   	push   %ecx
    29e3:	e8 98 64 00 00       	call   8e80 <str_dup@plt>
    29e8:	83 c4 10             	add    $0x10,%esp
    29eb:	85 c0                	test   %eax,%eax
    29ed:	74 50                	je     2a3f <nchoice_add+0x7f>
    29ef:	89 43 08             	mov    %eax,0x8(%ebx)
    29f2:	8b 45 10             	mov    0x10(%ebp),%eax
    29f5:	89 43 0c             	mov    %eax,0xc(%ebx)
    29f8:	8d 46 04             	lea    0x4(%esi),%eax
    29fb:	89 43 04             	mov    %eax,0x4(%ebx)
    29fe:	8b 46 04             	mov    0x4(%esi),%eax
    2a01:	89 03                	mov    %eax,(%ebx)
    2a03:	f6 45 14 01          	testb  $0x1,0x14(%ebp)
    2a07:	89 58 04             	mov    %ebx,0x4(%eax)
    2a0a:	89 5e 04             	mov    %ebx,0x4(%esi)
    2a0d:	74 19                	je     2a28 <nchoice_add+0x68>
    2a0f:	8b 56 10             	mov    0x10(%esi),%edx
    2a12:	85 d2                	test   %edx,%edx
    2a14:	75 3c                	jne    2a52 <nchoice_add+0x92>
    2a16:	89 5e 10             	mov    %ebx,0x10(%esi)
    2a19:	31 c0                	xor    %eax,%eax
    2a1b:	8d 65 f8             	lea    -0x8(%ebp),%esp
    2a1e:	5b                   	pop    %ebx
    2a1f:	5e                   	pop    %esi
    2a20:	5d                   	pop    %ebp
    2a21:	c3                   	ret    
    2a22:	8d b6 00 00 00 00    	lea    0x0(%esi),%esi
    2a28:	8d 65 f8             	lea    -0x8(%ebp),%esp
    2a2b:	31 c0                	xor    %eax,%eax
    2a2d:	5b                   	pop    %ebx
    2a2e:	5e                   	pop    %esi
    2a2f:	5d                   	pop    %ebp
    2a30:	c3                   	ret    
    2a31:	8d b4 26 00 00 00 00 	lea    0x0(%esi,%eiz,1),%esi
    2a38:	b8 fe ff ff ff       	mov    $0xfffffffe,%eax
    2a3d:	eb dc                	jmp    2a1b <nchoice_add+0x5b>
    2a3f:	83 ec 0c             	sub    $0xc,%esp
    2a42:	53                   	push   %ebx
    2a43:	e8 98 65 00 00       	call   8fe0 <free@plt>
    2a48:	83 c4 10             	add    $0x10,%esp
    2a4b:	b8 fe ff ff ff       	mov    $0xfffffffe,%eax
    2a50:	eb c9                	jmp    2a1b <nchoice_add+0x5b>
    2a52:	50                   	push   %eax
    2a53:	6a 78                	push   $0x78
    2a55:	68 49 85 00 00       	push   $0x8549
    2a5a:	68 53 85 00 00       	push   $0x8553
    2a5f:	e8 cc 63 00 00       	call   8e30 <assert_abort@plt>
    2a64:	8d b6 00 00 00 00    	lea    0x0(%esi),%esi
    2a6a:	8d bf 00 00 00 00    	lea    0x0(%edi),%edi

00002a70 <nchoice_get>:
    2a70:	55                   	push   %ebp
    2a71:	89 e5                	mov    %esp,%ebp
    2a73:	57                   	push   %edi
    2a74:	56                   	push   %esi
    2a75:	53                   	push   %ebx
    2a76:	83 ec 2c             	sub    $0x2c,%esp
    2a79:	8b 75 08             	mov    0x8(%ebp),%esi
    2a7c:	8d 46 04             	lea    0x4(%esi),%eax
    2a7f:	89 45 d4             	mov    %eax,-0x2c(%ebp)
    2a82:	53                   	push   %ebx
    2a83:	53                   	push   %ebx
    2a84:	8b 3e                	mov    (%esi),%edi
    2a86:	57                   	push   %edi
    2a87:	68 b6 80 00 00       	push   $0x80b6
    2a8c:	e8 1f 62 00 00       	call   8cb0 <printf@plt>
    2a91:	8b 5e 08             	mov    0x8(%esi),%ebx
    2a94:	83 c4 10             	add    $0x10,%esp
    2a97:	3b 5d d4             	cmp    -0x2c(%ebp),%ebx
    2a9a:	0f 84 00 01 00 00    	je     2ba0 <nchoice_get+0x130>
    2aa0:	bf 01 00 00 00       	mov    $0x1,%edi
    2aa5:	89 75 08             	mov    %esi,0x8(%ebp)
    2aa8:	8b 46 10             	mov    0x10(%esi),%eax
    2aab:	c7 45 d0 00 00 00 00 	movl   $0x0,-0x30(%ebp)
    2ab2:	89 fe                	mov    %edi,%esi
    2ab4:	8b 7d 08             	mov    0x8(%ebp),%edi
    2ab7:	eb 2a                	jmp    2ae3 <nchoice_get+0x73>
    2ab9:	8d b4 26 00 00 00 00 	lea    0x0(%esi,%eiz,1),%esi
    2ac0:	51                   	push   %ecx
    2ac1:	8b 4b 08             	mov    0x8(%ebx),%ecx
    2ac4:	51                   	push   %ecx
    2ac5:	56                   	push   %esi
    2ac6:	68 76 85 00 00       	push   $0x8576
    2acb:	e8 e0 61 00 00       	call   8cb0 <printf@plt>
    2ad0:	8b 47 10             	mov    0x10(%edi),%eax
    2ad3:	83 c4 10             	add    $0x10,%esp
    2ad6:	39 d8                	cmp    %ebx,%eax
    2ad8:	74 1e                	je     2af8 <nchoice_get+0x88>
    2ada:	8b 5b 04             	mov    0x4(%ebx),%ebx
    2add:	46                   	inc    %esi
    2ade:	3b 5d d4             	cmp    -0x2c(%ebp),%ebx
    2ae1:	74 25                	je     2b08 <nchoice_get+0x98>
    2ae3:	b9 7f 80 00 00       	mov    $0x807f,%ecx
    2ae8:	39 d8                	cmp    %ebx,%eax
    2aea:	75 d4                	jne    2ac0 <nchoice_get+0x50>
    2aec:	b9 6b 85 00 00       	mov    $0x856b,%ecx
    2af1:	eb cd                	jmp    2ac0 <nchoice_get+0x50>
    2af3:	90                   	nop
    2af4:	8d 74 26 00          	lea    0x0(%esi,%eiz,1),%esi
    2af8:	8b 5b 04             	mov    0x4(%ebx),%ebx
    2afb:	89 75 d0             	mov    %esi,-0x30(%ebp)
    2afe:	46                   	inc    %esi
    2aff:	3b 5d d4             	cmp    -0x2c(%ebp),%ebx
    2b02:	75 df                	jne    2ae3 <nchoice_get+0x73>
    2b04:	8d 74 26 00          	lea    0x0(%esi,%eiz,1),%esi
    2b08:	89 7d 08             	mov    %edi,0x8(%ebp)
    2b0b:	8b 45 d0             	mov    -0x30(%ebp),%eax
    2b0e:	89 f7                	mov    %esi,%edi
    2b10:	85 c0                	test   %eax,%eax
    2b12:	8b 75 08             	mov    0x8(%ebp),%esi
    2b15:	0f 84 8a 00 00 00    	je     2ba5 <nchoice_get+0x135>
    2b1b:	52                   	push   %edx
    2b1c:	50                   	push   %eax
    2b1d:	8d 45 e4             	lea    -0x1c(%ebp),%eax
    2b20:	68 80 85 00 00       	push   $0x8580
    2b25:	50                   	push   %eax
    2b26:	e8 f5 63 00 00       	call   8f20 <asprintf@plt>
    2b2b:	83 c4 10             	add    $0x10,%esp
    2b2e:	85 c0                	test   %eax,%eax
    2b30:	0f 88 8a 00 00 00    	js     2bc0 <nchoice_get+0x150>
    2b36:	8b 45 e4             	mov    -0x1c(%ebp),%eax
    2b39:	52                   	push   %edx
    2b3a:	8d 55 dc             	lea    -0x24(%ebp),%edx
    2b3d:	8b 4e 0c             	mov    0xc(%esi),%ecx
    2b40:	52                   	push   %edx
    2b41:	50                   	push   %eax
    2b42:	51                   	push   %ecx
    2b43:	e8 58 09 00 00       	call   34a0 <tinput_read_i>
    2b48:	89 c3                	mov    %eax,%ebx
    2b4a:	58                   	pop    %eax
    2b4b:	8b 45 e4             	mov    -0x1c(%ebp),%eax
    2b4e:	50                   	push   %eax
    2b4f:	e8 8c 64 00 00       	call   8fe0 <free@plt>
    2b54:	83 c4 10             	add    $0x10,%esp
    2b57:	85 db                	test   %ebx,%ebx
    2b59:	75 74                	jne    2bcf <nchoice_get+0x15f>
    2b5b:	50                   	push   %eax
    2b5c:	8d 45 e0             	lea    -0x20(%ebp),%eax
    2b5f:	6a 0a                	push   $0xa
    2b61:	50                   	push   %eax
    2b62:	8b 45 dc             	mov    -0x24(%ebp),%eax
    2b65:	50                   	push   %eax
    2b66:	e8 25 62 00 00       	call   8d90 <strtoul@plt>
    2b6b:	8b 4d e0             	mov    -0x20(%ebp),%ecx
    2b6e:	83 c4 10             	add    $0x10,%esp
    2b71:	80 39 00             	cmpb   $0x0,(%ecx)
    2b74:	75 0b                	jne    2b81 <nchoice_get+0x111>
    2b76:	85 c0                	test   %eax,%eax
    2b78:	74 07                	je     2b81 <nchoice_get+0x111>
    2b7a:	8d 57 ff             	lea    -0x1(%edi),%edx
    2b7d:	39 d0                	cmp    %edx,%eax
    2b7f:	76 6f                	jbe    2bf0 <nchoice_get+0x180>
    2b81:	83 ec 0c             	sub    $0xc,%esp
    2b84:	68 9d 85 00 00       	push   $0x859d
    2b89:	e8 22 61 00 00       	call   8cb0 <printf@plt>
    2b8e:	8b 5d dc             	mov    -0x24(%ebp),%ebx
    2b91:	59                   	pop    %ecx
    2b92:	53                   	push   %ebx
    2b93:	e8 48 64 00 00       	call   8fe0 <free@plt>
    2b98:	83 c4 10             	add    $0x10,%esp
    2b9b:	e9 e2 fe ff ff       	jmp    2a82 <nchoice_get+0x12>
    2ba0:	bf 01 00 00 00       	mov    $0x1,%edi
    2ba5:	83 ec 0c             	sub    $0xc,%esp
    2ba8:	68 7f 80 00 00       	push   $0x807f
    2bad:	e8 ce 62 00 00       	call   8e80 <str_dup@plt>
    2bb2:	83 c4 10             	add    $0x10,%esp
    2bb5:	89 45 e4             	mov    %eax,-0x1c(%ebp)
    2bb8:	85 c0                	test   %eax,%eax
    2bba:	0f 85 79 ff ff ff    	jne    2b39 <nchoice_get+0xc9>
    2bc0:	bb fe ff ff ff       	mov    $0xfffffffe,%ebx
    2bc5:	8d 65 f4             	lea    -0xc(%ebp),%esp
    2bc8:	89 d8                	mov    %ebx,%eax
    2bca:	5b                   	pop    %ebx
    2bcb:	5e                   	pop    %esi
    2bcc:	5f                   	pop    %edi
    2bcd:	5d                   	pop    %ebp
    2bce:	c3                   	ret    
    2bcf:	81 fb f6 fe ff ff    	cmp    $0xfffffef6,%ebx
    2bd5:	74 05                	je     2bdc <nchoice_get+0x16c>
    2bd7:	83 fb ff             	cmp    $0xffffffff,%ebx
    2bda:	75 78                	jne    2c54 <nchoice_get+0x1e4>
    2bdc:	83 fb ff             	cmp    $0xffffffff,%ebx
    2bdf:	74 e4                	je     2bc5 <nchoice_get+0x155>
    2be1:	8d 65 f4             	lea    -0xc(%ebp),%esp
    2be4:	bb f6 fe ff ff       	mov    $0xfffffef6,%ebx
    2be9:	89 d8                	mov    %ebx,%eax
    2beb:	5b                   	pop    %ebx
    2bec:	5e                   	pop    %esi
    2bed:	5f                   	pop    %edi
    2bee:	5d                   	pop    %ebp
    2bef:	c3                   	ret    
    2bf0:	83 ec 0c             	sub    $0xc,%esp
    2bf3:	8b 55 dc             	mov    -0x24(%ebp),%edx
    2bf6:	89 45 d0             	mov    %eax,-0x30(%ebp)
    2bf9:	52                   	push   %edx
    2bfa:	e8 e1 63 00 00       	call   8fe0 <free@plt>
    2bff:	8b 56 08             	mov    0x8(%esi),%edx
    2c02:	83 c4 10             	add    $0x10,%esp
    2c05:	3b 55 d4             	cmp    -0x2c(%ebp),%edx
    2c08:	74 23                	je     2c2d <nchoice_get+0x1bd>
    2c0a:	8b 45 d0             	mov    -0x30(%ebp),%eax
    2c0d:	83 f8 01             	cmp    $0x1,%eax
    2c10:	74 30                	je     2c42 <nchoice_get+0x1d2>
    2c12:	b9 01 00 00 00       	mov    $0x1,%ecx
    2c17:	eb 0b                	jmp    2c24 <nchoice_get+0x1b4>
    2c19:	8d b4 26 00 00 00 00 	lea    0x0(%esi,%eiz,1),%esi
    2c20:	39 c8                	cmp    %ecx,%eax
    2c22:	74 1e                	je     2c42 <nchoice_get+0x1d2>
    2c24:	8b 52 04             	mov    0x4(%edx),%edx
    2c27:	41                   	inc    %ecx
    2c28:	3b 55 d4             	cmp    -0x2c(%ebp),%edx
    2c2b:	75 f3                	jne    2c20 <nchoice_get+0x1b0>
    2c2d:	50                   	push   %eax
    2c2e:	68 c2 00 00 00       	push   $0xc2
    2c33:	68 49 85 00 00       	push   $0x8549
    2c38:	68 b9 85 00 00       	push   $0x85b9
    2c3d:	e8 ee 61 00 00       	call   8e30 <assert_abort@plt>
    2c42:	8b 45 0c             	mov    0xc(%ebp),%eax
    2c45:	8b 52 0c             	mov    0xc(%edx),%edx
    2c48:	89 10                	mov    %edx,(%eax)
    2c4a:	8d 65 f4             	lea    -0xc(%ebp),%esp
    2c4d:	89 d8                	mov    %ebx,%eax
    2c4f:	5b                   	pop    %ebx
    2c50:	5e                   	pop    %esi
    2c51:	5f                   	pop    %edi
    2c52:	5d                   	pop    %ebp
    2c53:	c3                   	ret    
    2c54:	50                   	push   %eax
    2c55:	68 a6 00 00 00       	push   $0xa6
    2c5a:	68 49 85 00 00       	push   $0x8549
    2c5f:	68 83 85 00 00       	push   $0x8583
    2c64:	e8 c7 61 00 00       	call   8e30 <assert_abort@plt>
    2c69:	66 90                	xchg   %ax,%ax
    2c6b:	66 90                	xchg   %ax,%ax
    2c6d:	66 90                	xchg   %ax,%ax
    2c6f:	90                   	nop

00002c70 <compl_cmp>:
    2c70:	55                   	push   %ebp
    2c71:	89 e5                	mov    %esp,%ebp
    2c73:	8b 45 0c             	mov    0xc(%ebp),%eax
    2c76:	8b 00                	mov    (%eax),%eax
    2c78:	89 45 0c             	mov    %eax,0xc(%ebp)
    2c7b:	8b 45 08             	mov    0x8(%ebp),%eax
    2c7e:	8b 00                	mov    (%eax),%eax
    2c80:	89 45 08             	mov    %eax,0x8(%ebp)
    2c83:	5d                   	pop    %ebp
    2c84:	e9 37 62 00 00       	jmp    8ec0 <str_cmp@plt>
    2c89:	8d b4 26 00 00 00 00 	lea    0x0(%esi,%eiz,1),%esi

00002c90 <tinput_display_tail>:
    2c90:	55                   	push   %ebp
    2c91:	89 e5                	mov    %esp,%ebp
    2c93:	57                   	push   %edi
    2c94:	56                   	push   %esi
    2c95:	53                   	push   %ebx
    2c96:	83 ec 28             	sub    $0x28,%esp
    2c99:	89 c6                	mov    %eax,%esi
    2c9b:	89 d3                	mov    %edx,%ebx
    2c9d:	89 cf                	mov    %ecx,%edi
    2c9f:	68 04 10 00 00       	push   $0x1004
    2ca4:	e8 d7 60 00 00       	call   8d80 <malloc@plt>
    2ca9:	83 c4 10             	add    $0x10,%esp
    2cac:	89 45 e4             	mov    %eax,-0x1c(%ebp)
    2caf:	85 c0                	test   %eax,%eax
    2cb1:	0f 84 b3 00 00 00    	je     2d6a <tinput_display_tail+0xda>
    2cb7:	8b 86 24 10 00 00    	mov    0x1024(%esi),%eax
    2cbd:	8b 8e 28 10 00 00    	mov    0x1028(%esi),%ecx
    2cc3:	89 c2                	mov    %eax,%edx
    2cc5:	89 45 e0             	mov    %eax,-0x20(%ebp)
    2cc8:	39 c1                	cmp    %eax,%ecx
    2cca:	0f 83 a8 00 00 00    	jae    2d78 <tinput_display_tail+0xe8>
    2cd0:	8b 86 14 10 00 00    	mov    0x1014(%esi),%eax
    2cd6:	31 d2                	xor    %edx,%edx
    2cd8:	01 d8                	add    %ebx,%eax
    2cda:	89 4d dc             	mov    %ecx,-0x24(%ebp)
    2cdd:	f7 b6 18 10 00 00    	divl   0x1018(%esi)
    2ce3:	51                   	push   %ecx
    2ce4:	50                   	push   %eax
    2ce5:	8b 06                	mov    (%esi),%eax
    2ce7:	52                   	push   %edx
    2ce8:	50                   	push   %eax
    2ce9:	e8 82 62 00 00       	call   8f70 <console_set_pos@plt>
    2cee:	8b 0e                	mov    (%esi),%ecx
    2cf0:	58                   	pop    %eax
    2cf1:	5a                   	pop    %edx
    2cf2:	6a 00                	push   $0x0
    2cf4:	51                   	push   %ecx
    2cf5:	e8 e6 61 00 00       	call   8ee0 <console_set_style@plt>
    2cfa:	8b 4d dc             	mov    -0x24(%ebp),%ecx
    2cfd:	83 c4 10             	add    $0x10,%esp
    2d00:	39 cb                	cmp    %ecx,%ebx
    2d02:	0f 82 18 01 00 00    	jb     2e20 <tinput_display_tail+0x190>
    2d08:	3b 5d e0             	cmp    -0x20(%ebp),%ebx
    2d0b:	0f 82 b7 00 00 00    	jb     2dc8 <tinput_display_tail+0x138>
    2d11:	83 ec 0c             	sub    $0xc,%esp
    2d14:	8b 06                	mov    (%esi),%eax
    2d16:	50                   	push   %eax
    2d17:	e8 24 62 00 00       	call   8f40 <console_flush@plt>
    2d1c:	8b 0e                	mov    (%esi),%ecx
    2d1e:	58                   	pop    %eax
    2d1f:	5a                   	pop    %edx
    2d20:	6a 00                	push   $0x0
    2d22:	51                   	push   %ecx
    2d23:	e8 b8 61 00 00       	call   8ee0 <console_set_style@plt>
    2d28:	8b 86 20 10 00 00    	mov    0x1020(%esi),%eax
    2d2e:	83 c4 10             	add    $0x10,%esp
    2d31:	39 c3                	cmp    %eax,%ebx
    2d33:	72 53                	jb     2d88 <tinput_display_tail+0xf8>
    2d35:	31 db                	xor    %ebx,%ebx
    2d37:	85 ff                	test   %edi,%edi
    2d39:	74 17                	je     2d52 <tinput_display_tail+0xc2>
    2d3b:	90                   	nop
    2d3c:	8d 74 26 00          	lea    0x0(%esi,%eiz,1),%esi
    2d40:	83 ec 0c             	sub    $0xc,%esp
    2d43:	43                   	inc    %ebx
    2d44:	6a 20                	push   $0x20
    2d46:	e8 05 5f 00 00       	call   8c50 <putchar@plt>
    2d4b:	83 c4 10             	add    $0x10,%esp
    2d4e:	39 df                	cmp    %ebx,%edi
    2d50:	75 ee                	jne    2d40 <tinput_display_tail+0xb0>
    2d52:	83 ec 0c             	sub    $0xc,%esp
    2d55:	8b 06                	mov    (%esi),%eax
    2d57:	50                   	push   %eax
    2d58:	e8 e3 61 00 00       	call   8f40 <console_flush@plt>
    2d5d:	8b 4d e4             	mov    -0x1c(%ebp),%ecx
    2d60:	5a                   	pop    %edx
    2d61:	51                   	push   %ecx
    2d62:	e8 79 62 00 00       	call   8fe0 <free@plt>
    2d67:	83 c4 10             	add    $0x10,%esp
    2d6a:	8d 65 f4             	lea    -0xc(%ebp),%esp
    2d6d:	5b                   	pop    %ebx
    2d6e:	5e                   	pop    %esi
    2d6f:	5f                   	pop    %edi
    2d70:	5d                   	pop    %ebp
    2d71:	c3                   	ret    
    2d72:	8d b6 00 00 00 00    	lea    0x0(%esi),%esi
    2d78:	89 c8                	mov    %ecx,%eax
    2d7a:	89 d1                	mov    %edx,%ecx
    2d7c:	89 45 e0             	mov    %eax,-0x20(%ebp)
    2d7f:	e9 4c ff ff ff       	jmp    2cd0 <tinput_display_tail+0x40>
    2d84:	8d 74 26 00          	lea    0x0(%esi,%eiz,1),%esi
    2d88:	29 d8                	sub    %ebx,%eax
    2d8a:	8b 4d e4             	mov    -0x1c(%ebp),%ecx
    2d8d:	c1 e0 02             	shl    $0x2,%eax
    2d90:	52                   	push   %edx
    2d91:	50                   	push   %eax
    2d92:	8d 44 9e 0c          	lea    0xc(%esi,%ebx,4),%eax
    2d96:	50                   	push   %eax
    2d97:	51                   	push   %ecx
    2d98:	e8 c3 5f 00 00       	call   8d60 <memcpy@plt>
    2d9d:	8b 86 20 10 00 00    	mov    0x1020(%esi),%eax
    2da3:	29 d8                	sub    %ebx,%eax
    2da5:	8b 4d e4             	mov    -0x1c(%ebp),%ecx
    2da8:	c7 04 81 00 00 00 00 	movl   $0x0,(%ecx,%eax,4)
    2daf:	5b                   	pop    %ebx
    2db0:	58                   	pop    %eax
    2db1:	51                   	push   %ecx
    2db2:	68 bf 85 00 00       	push   $0x85bf
    2db7:	e8 f4 5e 00 00       	call   8cb0 <printf@plt>
    2dbc:	83 c4 10             	add    $0x10,%esp
    2dbf:	e9 71 ff ff ff       	jmp    2d35 <tinput_display_tail+0xa5>
    2dc4:	8d 74 26 00          	lea    0x0(%esi,%eiz,1),%esi
    2dc8:	83 ec 0c             	sub    $0xc,%esp
    2dcb:	8b 06                	mov    (%esi),%eax
    2dcd:	50                   	push   %eax
    2dce:	e8 6d 61 00 00       	call   8f40 <console_flush@plt>
    2dd3:	8b 0e                	mov    (%esi),%ecx
    2dd5:	58                   	pop    %eax
    2dd6:	5a                   	pop    %edx
    2dd7:	6a 03                	push   $0x3
    2dd9:	51                   	push   %ecx
    2dda:	e8 01 61 00 00       	call   8ee0 <console_set_style@plt>
    2ddf:	8b 55 e0             	mov    -0x20(%ebp),%edx
    2de2:	83 c4 0c             	add    $0xc,%esp
    2de5:	29 da                	sub    %ebx,%edx
    2de7:	8d 44 9e 0c          	lea    0xc(%esi,%ebx,4),%eax
    2deb:	c1 e2 02             	shl    $0x2,%edx
    2dee:	8b 5d e4             	mov    -0x1c(%ebp),%ebx
    2df1:	52                   	push   %edx
    2df2:	89 55 dc             	mov    %edx,-0x24(%ebp)
    2df5:	50                   	push   %eax
    2df6:	53                   	push   %ebx
    2df7:	e8 64 5f 00 00       	call   8d60 <memcpy@plt>
    2dfc:	8b 55 dc             	mov    -0x24(%ebp),%edx
    2dff:	c7 04 13 00 00 00 00 	movl   $0x0,(%ebx,%edx,1)
    2e06:	58                   	pop    %eax
    2e07:	5a                   	pop    %edx
    2e08:	53                   	push   %ebx
    2e09:	68 bf 85 00 00       	push   $0x85bf
    2e0e:	e8 9d 5e 00 00       	call   8cb0 <printf@plt>
    2e13:	83 c4 10             	add    $0x10,%esp
    2e16:	8b 5d e0             	mov    -0x20(%ebp),%ebx
    2e19:	e9 f3 fe ff ff       	jmp    2d11 <tinput_display_tail+0x81>
    2e1e:	66 90                	xchg   %ax,%ax
    2e20:	89 ca                	mov    %ecx,%edx
    2e22:	8d 44 9e 0c          	lea    0xc(%esi,%ebx,4),%eax
    2e26:	29 da                	sub    %ebx,%edx
    2e28:	8b 5d e4             	mov    -0x1c(%ebp),%ebx
    2e2b:	c1 e2 02             	shl    $0x2,%edx
    2e2e:	89 4d d8             	mov    %ecx,-0x28(%ebp)
    2e31:	89 55 dc             	mov    %edx,-0x24(%ebp)
    2e34:	51                   	push   %ecx
    2e35:	52                   	push   %edx
    2e36:	50                   	push   %eax
    2e37:	53                   	push   %ebx
    2e38:	e8 23 5f 00 00       	call   8d60 <memcpy@plt>
    2e3d:	8b 55 dc             	mov    -0x24(%ebp),%edx
    2e40:	c7 04 13 00 00 00 00 	movl   $0x0,(%ebx,%edx,1)
    2e47:	58                   	pop    %eax
    2e48:	5a                   	pop    %edx
    2e49:	53                   	push   %ebx
    2e4a:	68 bf 85 00 00       	push   $0x85bf
    2e4f:	e8 5c 5e 00 00       	call   8cb0 <printf@plt>
    2e54:	8b 4d d8             	mov    -0x28(%ebp),%ecx
    2e57:	83 c4 10             	add    $0x10,%esp
    2e5a:	89 cb                	mov    %ecx,%ebx
    2e5c:	e9 a7 fe ff ff       	jmp    2d08 <tinput_display_tail+0x78>
    2e61:	eb 0d                	jmp    2e70 <tinput_history_seek.part.6>
    2e63:	90                   	nop
    2e64:	90                   	nop
    2e65:	90                   	nop
    2e66:	90                   	nop
    2e67:	90                   	nop
    2e68:	90                   	nop
    2e69:	90                   	nop
    2e6a:	90                   	nop
    2e6b:	90                   	nop
    2e6c:	90                   	nop
    2e6d:	90                   	nop
    2e6e:	90                   	nop
    2e6f:	90                   	nop

00002e70 <tinput_history_seek.part.6>:
    2e70:	55                   	push   %ebp
    2e71:	89 e5                	mov    %esp,%ebp
    2e73:	57                   	push   %edi
    2e74:	56                   	push   %esi
    2e75:	53                   	push   %ebx
    2e76:	83 ec 1c             	sub    $0x1c,%esp
    2e79:	89 c3                	mov    %eax,%ebx
    2e7b:	8b b0 5c 10 00 00    	mov    0x105c(%eax),%esi
    2e81:	81 c6 08 04 00 00    	add    $0x408,%esi
    2e87:	8b 44 b0 0c          	mov    0xc(%eax,%esi,4),%eax
    2e8b:	85 c0                	test   %eax,%eax
    2e8d:	74 26                	je     2eb5 <tinput_history_seek.part.6+0x45>
    2e8f:	83 ec 0c             	sub    $0xc,%esp
    2e92:	89 55 e4             	mov    %edx,-0x1c(%ebp)
    2e95:	50                   	push   %eax
    2e96:	e8 45 61 00 00       	call   8fe0 <free@plt>
    2e9b:	8b b3 5c 10 00 00    	mov    0x105c(%ebx),%esi
    2ea1:	83 c4 10             	add    $0x10,%esp
    2ea4:	81 c6 08 04 00 00    	add    $0x408,%esi
    2eaa:	8b 55 e4             	mov    -0x1c(%ebp),%edx
    2ead:	c7 44 b3 0c 00 00 00 	movl   $0x0,0xc(%ebx,%esi,4)
    2eb4:	00 
    2eb5:	83 ec 0c             	sub    $0xc,%esp
    2eb8:	8d 7b 0c             	lea    0xc(%ebx),%edi
    2ebb:	89 55 e4             	mov    %edx,-0x1c(%ebp)
    2ebe:	57                   	push   %edi
    2ebf:	e8 4c 60 00 00       	call   8f10 <wstr_to_astr@plt>
    2ec4:	8b 55 e4             	mov    -0x1c(%ebp),%edx
    2ec7:	89 44 b3 0c          	mov    %eax,0xc(%ebx,%esi,4)
    2ecb:	8b 83 5c 10 00 00    	mov    0x105c(%ebx),%eax
    2ed1:	8b b3 20 10 00 00    	mov    0x1020(%ebx),%esi
    2ed7:	01 c2                	add    %eax,%edx
    2ed9:	58                   	pop    %eax
    2eda:	89 93 5c 10 00 00    	mov    %edx,0x105c(%ebx)
    2ee0:	8b 84 93 2c 10 00 00 	mov    0x102c(%ebx,%edx,4),%eax
    2ee7:	50                   	push   %eax
    2ee8:	e8 73 60 00 00       	call   8f60 <str_length@plt>
    2eed:	29 c6                	sub    %eax,%esi
    2eef:	8b 83 5c 10 00 00    	mov    0x105c(%ebx),%eax
    2ef5:	83 c4 0c             	add    $0xc,%esp
    2ef8:	8b 84 83 2c 10 00 00 	mov    0x102c(%ebx,%eax,4),%eax
    2eff:	50                   	push   %eax
    2f00:	68 00 04 00 00       	push   $0x400
    2f05:	57                   	push   %edi
    2f06:	e8 85 60 00 00       	call   8f90 <str_to_wstr@plt>
    2f0b:	89 3c 24             	mov    %edi,(%esp)
    2f0e:	e8 8d 5d 00 00       	call   8ca0 <wstr_length@plt>
    2f13:	89 f1                	mov    %esi,%ecx
    2f15:	89 83 20 10 00 00    	mov    %eax,0x1020(%ebx)
    2f1b:	89 83 24 10 00 00    	mov    %eax,0x1024(%ebx)
    2f21:	89 83 28 10 00 00    	mov    %eax,0x1028(%ebx)
    2f27:	85 f6                	test   %esi,%esi
    2f29:	78 6d                	js     2f98 <tinput_history_seek.part.6+0x128>
    2f2b:	31 d2                	xor    %edx,%edx
    2f2d:	89 d8                	mov    %ebx,%eax
    2f2f:	e8 5c fd ff ff       	call   2c90 <tinput_display_tail>
    2f34:	8b 8b 14 10 00 00    	mov    0x1014(%ebx),%ecx
    2f3a:	8b 83 20 10 00 00    	mov    0x1020(%ebx),%eax
    2f40:	31 d2                	xor    %edx,%edx
    2f42:	01 c8                	add    %ecx,%eax
    2f44:	8b b3 18 10 00 00    	mov    0x1018(%ebx),%esi
    2f4a:	f7 f6                	div    %esi
    2f4c:	8b 93 1c 10 00 00    	mov    0x101c(%ebx),%edx
    2f52:	83 c4 10             	add    $0x10,%esp
    2f55:	39 d0                	cmp    %edx,%eax
    2f57:	72 1c                	jb     2f75 <tinput_history_seek.part.6+0x105>
    2f59:	29 d0                	sub    %edx,%eax
    2f5b:	8b bb 10 10 00 00    	mov    0x1010(%ebx),%edi
    2f61:	40                   	inc    %eax
    2f62:	0f af c6             	imul   %esi,%eax
    2f65:	29 c1                	sub    %eax,%ecx
    2f67:	29 c7                	sub    %eax,%edi
    2f69:	89 8b 14 10 00 00    	mov    %ecx,0x1014(%ebx)
    2f6f:	89 bb 10 10 00 00    	mov    %edi,0x1010(%ebx)
    2f75:	8b 83 24 10 00 00    	mov    0x1024(%ebx),%eax
    2f7b:	52                   	push   %edx
    2f7c:	01 c8                	add    %ecx,%eax
    2f7e:	31 d2                	xor    %edx,%edx
    2f80:	f7 f6                	div    %esi
    2f82:	8b 0b                	mov    (%ebx),%ecx
    2f84:	50                   	push   %eax
    2f85:	52                   	push   %edx
    2f86:	51                   	push   %ecx
    2f87:	e8 e4 5f 00 00       	call   8f70 <console_set_pos@plt>
    2f8c:	83 c4 10             	add    $0x10,%esp
    2f8f:	8d 65 f4             	lea    -0xc(%ebp),%esp
    2f92:	5b                   	pop    %ebx
    2f93:	5e                   	pop    %esi
    2f94:	5f                   	pop    %edi
    2f95:	5d                   	pop    %ebp
    2f96:	c3                   	ret    
    2f97:	90                   	nop
    2f98:	31 c9                	xor    %ecx,%ecx
    2f9a:	eb 8f                	jmp    2f2b <tinput_history_seek.part.6+0xbb>
    2f9c:	8d 74 26 00          	lea    0x0(%esi,%eiz,1),%esi

00002fa0 <tinput_display_tail.constprop.12>:
    2fa0:	55                   	push   %ebp
    2fa1:	89 e5                	mov    %esp,%ebp
    2fa3:	57                   	push   %edi
    2fa4:	56                   	push   %esi
    2fa5:	53                   	push   %ebx
    2fa6:	83 ec 28             	sub    $0x28,%esp
    2fa9:	89 c3                	mov    %eax,%ebx
    2fab:	89 d6                	mov    %edx,%esi
    2fad:	68 04 10 00 00       	push   $0x1004
    2fb2:	e8 c9 5d 00 00       	call   8d80 <malloc@plt>
    2fb7:	83 c4 10             	add    $0x10,%esp
    2fba:	85 c0                	test   %eax,%eax
    2fbc:	0f 84 96 00 00 00    	je     3058 <tinput_display_tail.constprop.12+0xb8>
    2fc2:	89 c7                	mov    %eax,%edi
    2fc4:	8b 8b 28 10 00 00    	mov    0x1028(%ebx),%ecx
    2fca:	8b 83 24 10 00 00    	mov    0x1024(%ebx),%eax
    2fd0:	89 c2                	mov    %eax,%edx
    2fd2:	89 45 e4             	mov    %eax,-0x1c(%ebp)
    2fd5:	39 c1                	cmp    %eax,%ecx
    2fd7:	0f 83 83 00 00 00    	jae    3060 <tinput_display_tail.constprop.12+0xc0>
    2fdd:	8b 83 14 10 00 00    	mov    0x1014(%ebx),%eax
    2fe3:	31 d2                	xor    %edx,%edx
    2fe5:	01 f0                	add    %esi,%eax
    2fe7:	89 4d e0             	mov    %ecx,-0x20(%ebp)
    2fea:	f7 b3 18 10 00 00    	divl   0x1018(%ebx)
    2ff0:	51                   	push   %ecx
    2ff1:	50                   	push   %eax
    2ff2:	8b 03                	mov    (%ebx),%eax
    2ff4:	52                   	push   %edx
    2ff5:	50                   	push   %eax
    2ff6:	e8 75 5f 00 00       	call   8f70 <console_set_pos@plt>
    2ffb:	8b 0b                	mov    (%ebx),%ecx
    2ffd:	58                   	pop    %eax
    2ffe:	5a                   	pop    %edx
    2fff:	6a 00                	push   $0x0
    3001:	51                   	push   %ecx
    3002:	e8 d9 5e 00 00       	call   8ee0 <console_set_style@plt>
    3007:	8b 4d e0             	mov    -0x20(%ebp),%ecx
    300a:	83 c4 10             	add    $0x10,%esp
    300d:	39 ce                	cmp    %ecx,%esi
    300f:	0f 82 eb 00 00 00    	jb     3100 <tinput_display_tail.constprop.12+0x160>
    3015:	3b 75 e4             	cmp    -0x1c(%ebp),%esi
    3018:	0f 82 8a 00 00 00    	jb     30a8 <tinput_display_tail.constprop.12+0x108>
    301e:	83 ec 0c             	sub    $0xc,%esp
    3021:	8b 03                	mov    (%ebx),%eax
    3023:	50                   	push   %eax
    3024:	e8 17 5f 00 00       	call   8f40 <console_flush@plt>
    3029:	8b 0b                	mov    (%ebx),%ecx
    302b:	58                   	pop    %eax
    302c:	5a                   	pop    %edx
    302d:	6a 00                	push   $0x0
    302f:	51                   	push   %ecx
    3030:	e8 ab 5e 00 00       	call   8ee0 <console_set_style@plt>
    3035:	8b 83 20 10 00 00    	mov    0x1020(%ebx),%eax
    303b:	83 c4 10             	add    $0x10,%esp
    303e:	39 f0                	cmp    %esi,%eax
    3040:	77 2e                	ja     3070 <tinput_display_tail.constprop.12+0xd0>
    3042:	83 ec 0c             	sub    $0xc,%esp
    3045:	8b 03                	mov    (%ebx),%eax
    3047:	50                   	push   %eax
    3048:	e8 f3 5e 00 00       	call   8f40 <console_flush@plt>
    304d:	89 3c 24             	mov    %edi,(%esp)
    3050:	e8 8b 5f 00 00       	call   8fe0 <free@plt>
    3055:	83 c4 10             	add    $0x10,%esp
    3058:	8d 65 f4             	lea    -0xc(%ebp),%esp
    305b:	5b                   	pop    %ebx
    305c:	5e                   	pop    %esi
    305d:	5f                   	pop    %edi
    305e:	5d                   	pop    %ebp
    305f:	c3                   	ret    
    3060:	89 c8                	mov    %ecx,%eax
    3062:	89 d1                	mov    %edx,%ecx
    3064:	89 45 e4             	mov    %eax,-0x1c(%ebp)
    3067:	e9 71 ff ff ff       	jmp    2fdd <tinput_display_tail.constprop.12+0x3d>
    306c:	8d 74 26 00          	lea    0x0(%esi,%eiz,1),%esi
    3070:	29 f0                	sub    %esi,%eax
    3072:	52                   	push   %edx
    3073:	c1 e0 02             	shl    $0x2,%eax
    3076:	50                   	push   %eax
    3077:	8d 44 b3 0c          	lea    0xc(%ebx,%esi,4),%eax
    307b:	50                   	push   %eax
    307c:	57                   	push   %edi
    307d:	e8 de 5c 00 00       	call   8d60 <memcpy@plt>
    3082:	8b 83 20 10 00 00    	mov    0x1020(%ebx),%eax
    3088:	29 f0                	sub    %esi,%eax
    308a:	c7 04 87 00 00 00 00 	movl   $0x0,(%edi,%eax,4)
    3091:	59                   	pop    %ecx
    3092:	5e                   	pop    %esi
    3093:	57                   	push   %edi
    3094:	68 bf 85 00 00       	push   $0x85bf
    3099:	e8 12 5c 00 00       	call   8cb0 <printf@plt>
    309e:	83 c4 10             	add    $0x10,%esp
    30a1:	eb 9f                	jmp    3042 <tinput_display_tail.constprop.12+0xa2>
    30a3:	90                   	nop
    30a4:	8d 74 26 00          	lea    0x0(%esi,%eiz,1),%esi
    30a8:	83 ec 0c             	sub    $0xc,%esp
    30ab:	8b 03                	mov    (%ebx),%eax
    30ad:	50                   	push   %eax
    30ae:	e8 8d 5e 00 00       	call   8f40 <console_flush@plt>
    30b3:	8b 0b                	mov    (%ebx),%ecx
    30b5:	58                   	pop    %eax
    30b6:	5a                   	pop    %edx
    30b7:	6a 03                	push   $0x3
    30b9:	51                   	push   %ecx
    30ba:	e8 21 5e 00 00       	call   8ee0 <console_set_style@plt>
    30bf:	8b 55 e4             	mov    -0x1c(%ebp),%edx
    30c2:	83 c4 0c             	add    $0xc,%esp
    30c5:	29 f2                	sub    %esi,%edx
    30c7:	8d 44 b3 0c          	lea    0xc(%ebx,%esi,4),%eax
    30cb:	c1 e2 02             	shl    $0x2,%edx
    30ce:	52                   	push   %edx
    30cf:	89 55 e0             	mov    %edx,-0x20(%ebp)
    30d2:	50                   	push   %eax
    30d3:	57                   	push   %edi
    30d4:	e8 87 5c 00 00       	call   8d60 <memcpy@plt>
    30d9:	8b 55 e0             	mov    -0x20(%ebp),%edx
    30dc:	c7 04 17 00 00 00 00 	movl   $0x0,(%edi,%edx,1)
    30e3:	5e                   	pop    %esi
    30e4:	58                   	pop    %eax
    30e5:	57                   	push   %edi
    30e6:	68 bf 85 00 00       	push   $0x85bf
    30eb:	e8 c0 5b 00 00       	call   8cb0 <printf@plt>
    30f0:	83 c4 10             	add    $0x10,%esp
    30f3:	8b 75 e4             	mov    -0x1c(%ebp),%esi
    30f6:	e9 23 ff ff ff       	jmp    301e <tinput_display_tail.constprop.12+0x7e>
    30fb:	90                   	nop
    30fc:	8d 74 26 00          	lea    0x0(%esi,%eiz,1),%esi
    3100:	89 ca                	mov    %ecx,%edx
    3102:	50                   	push   %eax
    3103:	29 f2                	sub    %esi,%edx
    3105:	8d 44 b3 0c          	lea    0xc(%ebx,%esi,4),%eax
    3109:	c1 e2 02             	shl    $0x2,%edx
    310c:	89 4d dc             	mov    %ecx,-0x24(%ebp)
    310f:	52                   	push   %edx
    3110:	89 55 e0             	mov    %edx,-0x20(%ebp)
    3113:	50                   	push   %eax
    3114:	57                   	push   %edi
    3115:	e8 46 5c 00 00       	call   8d60 <memcpy@plt>
    311a:	8b 55 e0             	mov    -0x20(%ebp),%edx
    311d:	c7 04 17 00 00 00 00 	movl   $0x0,(%edi,%edx,1)
    3124:	58                   	pop    %eax
    3125:	5a                   	pop    %edx
    3126:	57                   	push   %edi
    3127:	68 bf 85 00 00       	push   $0x85bf
    312c:	e8 7f 5b 00 00       	call   8cb0 <printf@plt>
    3131:	8b 4d dc             	mov    -0x24(%ebp),%ecx
    3134:	83 c4 10             	add    $0x10,%esp
    3137:	89 ce                	mov    %ecx,%esi
    3139:	e9 d7 fe ff ff       	jmp    3015 <tinput_display_tail.constprop.12+0x75>
    313e:	66 90                	xchg   %ax,%ax

00003140 <tinput_insert_string>:
    3140:	55                   	push   %ebp
    3141:	89 e5                	mov    %esp,%ebp
    3143:	57                   	push   %edi
    3144:	56                   	push   %esi
    3145:	53                   	push   %ebx
    3146:	83 ec 38             	sub    $0x38,%esp
    3149:	89 c6                	mov    %eax,%esi
    314b:	89 55 d0             	mov    %edx,-0x30(%ebp)
    314e:	bb 00 04 00 00       	mov    $0x400,%ebx
    3153:	52                   	push   %edx
    3154:	e8 07 5e 00 00       	call   8f60 <str_length@plt>
    3159:	8b 96 20 10 00 00    	mov    0x1020(%esi),%edx
    315f:	83 c4 10             	add    $0x10,%esp
    3162:	29 d3                	sub    %edx,%ebx
    3164:	39 d8                	cmp    %ebx,%eax
    3166:	0f 82 24 01 00 00    	jb     3290 <tinput_insert_string+0x150>
    316c:	85 db                	test   %ebx,%ebx
    316e:	74 28                	je     3198 <tinput_insert_string+0x58>
    3170:	8b be 18 10 00 00    	mov    0x1018(%esi),%edi
    3176:	31 d2                	xor    %edx,%edx
    3178:	8b 86 14 10 00 00    	mov    0x1014(%esi),%eax
    317e:	8b 8e 20 10 00 00    	mov    0x1020(%esi),%ecx
    3184:	f7 f7                	div    %edi
    3186:	8d 04 0a             	lea    (%edx,%ecx,1),%eax
    3189:	31 d2                	xor    %edx,%edx
    318b:	01 d8                	add    %ebx,%eax
    318d:	f7 f7                	div    %edi
    318f:	40                   	inc    %eax
    3190:	3b 86 1c 10 00 00    	cmp    0x101c(%esi),%eax
    3196:	72 08                	jb     31a0 <tinput_insert_string+0x60>
    3198:	8d 65 f4             	lea    -0xc(%ebp),%esp
    319b:	5b                   	pop    %ebx
    319c:	5e                   	pop    %esi
    319d:	5f                   	pop    %edi
    319e:	5d                   	pop    %ebp
    319f:	c3                   	ret    
    31a0:	85 c9                	test   %ecx,%ecx
    31a2:	0f 85 00 01 00 00    	jne    32a8 <tinput_insert_string+0x168>
    31a8:	89 5d d4             	mov    %ebx,-0x2c(%ebp)
    31ab:	c7 45 e4 00 00 00 00 	movl   $0x0,-0x1c(%ebp)
    31b2:	31 ff                	xor    %edi,%edi
    31b4:	8b 5d d0             	mov    -0x30(%ebp),%ebx
    31b7:	eb 28                	jmp    31e1 <tinput_insert_string+0xa1>
    31b9:	8d b4 26 00 00 00 00 	lea    0x0(%esi,%eiz,1),%esi
    31c0:	8b 96 24 10 00 00    	mov    0x1024(%esi),%edx
    31c6:	83 f8 20             	cmp    $0x20,%eax
    31c9:	8d 0c 3a             	lea    (%edx,%edi,1),%ecx
    31cc:	7d 05                	jge    31d3 <tinput_insert_string+0x93>
    31ce:	b8 20 00 00 00       	mov    $0x20,%eax
    31d3:	47                   	inc    %edi
    31d4:	89 44 8e 0c          	mov    %eax,0xc(%esi,%ecx,4)
    31d8:	39 7d d4             	cmp    %edi,-0x2c(%ebp)
    31db:	0f 84 f0 00 00 00    	je     32d1 <tinput_insert_string+0x191>
    31e1:	50                   	push   %eax
    31e2:	8d 45 e4             	lea    -0x1c(%ebp),%eax
    31e5:	6a ff                	push   $0xffffffff
    31e7:	50                   	push   %eax
    31e8:	53                   	push   %ebx
    31e9:	e8 22 5b 00 00       	call   8d10 <str_decode@plt>
    31ee:	83 c4 10             	add    $0x10,%esp
    31f1:	85 c0                	test   %eax,%eax
    31f3:	75 cb                	jne    31c0 <tinput_insert_string+0x80>
    31f5:	8b 5d d4             	mov    -0x2c(%ebp),%ebx
    31f8:	8b 96 24 10 00 00    	mov    0x1024(%esi),%edx
    31fe:	8b 8e 20 10 00 00    	mov    0x1020(%esi),%ecx
    3204:	8d 04 13             	lea    (%ebx,%edx,1),%eax
    3207:	01 cb                	add    %ecx,%ebx
    3209:	89 86 24 10 00 00    	mov    %eax,0x1024(%esi)
    320f:	89 9e 20 10 00 00    	mov    %ebx,0x1020(%esi)
    3215:	c7 44 9e 0c 00 00 00 	movl   $0x0,0xc(%esi,%ebx,4)
    321c:	00 
    321d:	89 86 28 10 00 00    	mov    %eax,0x1028(%esi)
    3223:	89 f0                	mov    %esi,%eax
    3225:	e8 76 fd ff ff       	call   2fa0 <tinput_display_tail.constprop.12>
    322a:	8b 8e 14 10 00 00    	mov    0x1014(%esi),%ecx
    3230:	8b 86 20 10 00 00    	mov    0x1020(%esi),%eax
    3236:	31 d2                	xor    %edx,%edx
    3238:	01 c8                	add    %ecx,%eax
    323a:	8b 9e 18 10 00 00    	mov    0x1018(%esi),%ebx
    3240:	f7 f3                	div    %ebx
    3242:	8b 96 1c 10 00 00    	mov    0x101c(%esi),%edx
    3248:	39 d0                	cmp    %edx,%eax
    324a:	72 1c                	jb     3268 <tinput_insert_string+0x128>
    324c:	29 d0                	sub    %edx,%eax
    324e:	8b be 10 10 00 00    	mov    0x1010(%esi),%edi
    3254:	40                   	inc    %eax
    3255:	0f af c3             	imul   %ebx,%eax
    3258:	29 c1                	sub    %eax,%ecx
    325a:	29 c7                	sub    %eax,%edi
    325c:	89 8e 14 10 00 00    	mov    %ecx,0x1014(%esi)
    3262:	89 be 10 10 00 00    	mov    %edi,0x1010(%esi)
    3268:	8b 86 24 10 00 00    	mov    0x1024(%esi),%eax
    326e:	52                   	push   %edx
    326f:	01 c8                	add    %ecx,%eax
    3271:	31 d2                	xor    %edx,%edx
    3273:	f7 f3                	div    %ebx
    3275:	8b 0e                	mov    (%esi),%ecx
    3277:	50                   	push   %eax
    3278:	52                   	push   %edx
    3279:	51                   	push   %ecx
    327a:	e8 f1 5c 00 00       	call   8f70 <console_set_pos@plt>
    327f:	83 c4 10             	add    $0x10,%esp
    3282:	8d 65 f4             	lea    -0xc(%ebp),%esp
    3285:	5b                   	pop    %ebx
    3286:	5e                   	pop    %esi
    3287:	5f                   	pop    %edi
    3288:	5d                   	pop    %ebp
    3289:	c3                   	ret    
    328a:	8d b6 00 00 00 00    	lea    0x0(%esi),%esi
    3290:	83 ec 0c             	sub    $0xc,%esp
    3293:	8b 45 d0             	mov    -0x30(%ebp),%eax
    3296:	50                   	push   %eax
    3297:	e8 c4 5c 00 00       	call   8f60 <str_length@plt>
    329c:	83 c4 10             	add    $0x10,%esp
    329f:	89 c3                	mov    %eax,%ebx
    32a1:	e9 c6 fe ff ff       	jmp    316c <tinput_insert_string+0x2c>
    32a6:	66 90                	xchg   %ax,%ax
    32a8:	8b 96 24 10 00 00    	mov    0x1024(%esi),%edx
    32ae:	39 d1                	cmp    %edx,%ecx
    32b0:	0f 86 f2 fe ff ff    	jbe    31a8 <tinput_insert_string+0x68>
    32b6:	8d 44 8e 08          	lea    0x8(%esi,%ecx,4),%eax
    32ba:	8d 4c 96 08          	lea    0x8(%esi,%edx,4),%ecx
    32be:	66 90                	xchg   %ax,%ax
    32c0:	8b 10                	mov    (%eax),%edx
    32c2:	89 14 98             	mov    %edx,(%eax,%ebx,4)
    32c5:	83 e8 04             	sub    $0x4,%eax
    32c8:	39 c1                	cmp    %eax,%ecx
    32ca:	75 f4                	jne    32c0 <tinput_insert_string+0x180>
    32cc:	e9 d7 fe ff ff       	jmp    31a8 <tinput_insert_string+0x68>
    32d1:	8b 5d d4             	mov    -0x2c(%ebp),%ebx
    32d4:	e9 25 ff ff ff       	jmp    31fe <tinput_insert_string+0xbe>
    32d9:	8d b4 26 00 00 00 00 	lea    0x0(%esi,%eiz,1),%esi

000032e0 <tinput_display>:
    32e0:	55                   	push   %ebp
    32e1:	89 e5                	mov    %esp,%ebp
    32e3:	57                   	push   %edi
    32e4:	56                   	push   %esi
    32e5:	53                   	push   %ebx
    32e6:	83 ec 20             	sub    $0x20,%esp
    32e9:	89 c3                	mov    %eax,%ebx
    32eb:	8d 45 e4             	lea    -0x1c(%ebp),%eax
    32ee:	50                   	push   %eax
    32ef:	8d 45 e0             	lea    -0x20(%ebp),%eax
    32f2:	50                   	push   %eax
    32f3:	8b 03                	mov    (%ebx),%eax
    32f5:	50                   	push   %eax
    32f6:	e8 f5 59 00 00       	call   8cf0 <console_get_pos@plt>
    32fb:	83 c4 10             	add    $0x10,%esp
    32fe:	85 c0                	test   %eax,%eax
    3300:	0f 85 b2 00 00 00    	jne    33b8 <tinput_display+0xd8>
    3306:	8b b3 18 10 00 00    	mov    0x1018(%ebx),%esi
    330c:	89 c7                	mov    %eax,%edi
    330e:	8b 45 e4             	mov    -0x1c(%ebp),%eax
    3311:	8b 55 e0             	mov    -0x20(%ebp),%edx
    3314:	0f af f0             	imul   %eax,%esi
    3317:	83 ec 0c             	sub    $0xc,%esp
    331a:	01 d6                	add    %edx,%esi
    331c:	8b 4b 04             	mov    0x4(%ebx),%ecx
    331f:	89 b3 10 10 00 00    	mov    %esi,0x1010(%ebx)
    3325:	51                   	push   %ecx
    3326:	e8 35 5c 00 00       	call   8f60 <str_length@plt>
    332b:	83 c4 0c             	add    $0xc,%esp
    332e:	01 c6                	add    %eax,%esi
    3330:	31 d2                	xor    %edx,%edx
    3332:	8b 83 10 10 00 00    	mov    0x1010(%ebx),%eax
    3338:	f7 b3 18 10 00 00    	divl   0x1018(%ebx)
    333e:	89 b3 14 10 00 00    	mov    %esi,0x1014(%ebx)
    3344:	8b 33                	mov    (%ebx),%esi
    3346:	50                   	push   %eax
    3347:	52                   	push   %edx
    3348:	56                   	push   %esi
    3349:	e8 22 5c 00 00       	call   8f70 <console_set_pos@plt>
    334e:	8b 0b                	mov    (%ebx),%ecx
    3350:	58                   	pop    %eax
    3351:	5a                   	pop    %edx
    3352:	6a 01                	push   $0x1
    3354:	51                   	push   %ecx
    3355:	e8 86 5b 00 00       	call   8ee0 <console_set_style@plt>
    335a:	5e                   	pop    %esi
    335b:	58                   	pop    %eax
    335c:	8b 43 04             	mov    0x4(%ebx),%eax
    335f:	50                   	push   %eax
    3360:	68 98 82 00 00       	push   $0x8298
    3365:	e8 46 59 00 00       	call   8cb0 <printf@plt>
    336a:	58                   	pop    %eax
    336b:	8b 03                	mov    (%ebx),%eax
    336d:	50                   	push   %eax
    336e:	e8 cd 5b 00 00       	call   8f40 <console_flush@plt>
    3373:	8b 0b                	mov    (%ebx),%ecx
    3375:	58                   	pop    %eax
    3376:	5a                   	pop    %edx
    3377:	6a 00                	push   $0x0
    3379:	51                   	push   %ecx
    337a:	e8 61 5b 00 00       	call   8ee0 <console_set_style@plt>
    337f:	31 d2                	xor    %edx,%edx
    3381:	89 d8                	mov    %ebx,%eax
    3383:	e8 18 fc ff ff       	call   2fa0 <tinput_display_tail.constprop.12>
    3388:	8b 83 24 10 00 00    	mov    0x1024(%ebx),%eax
    338e:	8b b3 14 10 00 00    	mov    0x1014(%ebx),%esi
    3394:	83 c4 0c             	add    $0xc,%esp
    3397:	01 f0                	add    %esi,%eax
    3399:	31 d2                	xor    %edx,%edx
    339b:	f7 b3 18 10 00 00    	divl   0x1018(%ebx)
    33a1:	50                   	push   %eax
    33a2:	8b 03                	mov    (%ebx),%eax
    33a4:	52                   	push   %edx
    33a5:	50                   	push   %eax
    33a6:	e8 c5 5b 00 00       	call   8f70 <console_set_pos@plt>
    33ab:	83 c4 10             	add    $0x10,%esp
    33ae:	8d 65 f4             	lea    -0xc(%ebp),%esp
    33b1:	89 f8                	mov    %edi,%eax
    33b3:	5b                   	pop    %ebx
    33b4:	5e                   	pop    %esi
    33b5:	5f                   	pop    %edi
    33b6:	5d                   	pop    %ebp
    33b7:	c3                   	ret    
    33b8:	bf f6 fe ff ff       	mov    $0xfffffef6,%edi
    33bd:	eb ef                	jmp    33ae <tinput_display+0xce>
    33bf:	90                   	nop

000033c0 <tinput_new>:
    33c0:	55                   	push   %ebp
    33c1:	89 e5                	mov    %esp,%ebp
    33c3:	53                   	push   %ebx
    33c4:	83 ec 0c             	sub    $0xc,%esp
    33c7:	68 64 10 00 00       	push   $0x1064
    33cc:	6a 01                	push   $0x1
    33ce:	e8 6d 5a 00 00       	call   8e40 <calloc@plt>
    33d3:	83 c4 10             	add    $0x10,%esp
    33d6:	89 c3                	mov    %eax,%ebx
    33d8:	85 c0                	test   %eax,%eax
    33da:	74 38                	je     3414 <tinput_new+0x54>
    33dc:	8b 15 60 aa 00 00    	mov    0xaa60,%edx
    33e2:	8b 0d 70 aa 00 00    	mov    0xaa70,%ecx
    33e8:	50                   	push   %eax
    33e9:	50                   	push   %eax
    33ea:	52                   	push   %edx
    33eb:	51                   	push   %ecx
    33ec:	e8 0f 5a 00 00       	call   8e00 <console_init@plt>
    33f1:	c7 83 58 10 00 00 00 	movl   $0x0,0x1058(%ebx)
    33f8:	00 00 00 
    33fb:	89 03                	mov    %eax,(%ebx)
    33fd:	c7 83 5c 10 00 00 00 	movl   $0x0,0x105c(%ebx)
    3404:	00 00 00 
    3407:	c7 83 2c 10 00 00 00 	movl   $0x0,0x102c(%ebx)
    340e:	00 00 00 
    3411:	83 c4 10             	add    $0x10,%esp
    3414:	89 d8                	mov    %ebx,%eax
    3416:	8b 5d fc             	mov    -0x4(%ebp),%ebx
    3419:	c9                   	leave  
    341a:	c3                   	ret    
    341b:	90                   	nop
    341c:	8d 74 26 00          	lea    0x0(%esi,%eiz,1),%esi

00003420 <tinput_destroy>:
    3420:	55                   	push   %ebp
    3421:	89 e5                	mov    %esp,%ebp
    3423:	53                   	push   %ebx
    3424:	50                   	push   %eax
    3425:	8b 5d 08             	mov    0x8(%ebp),%ebx
    3428:	8b 43 04             	mov    0x4(%ebx),%eax
    342b:	85 c0                	test   %eax,%eax
    342d:	74 0c                	je     343b <tinput_destroy+0x1b>
    342f:	83 ec 0c             	sub    $0xc,%esp
    3432:	50                   	push   %eax
    3433:	e8 a8 5b 00 00       	call   8fe0 <free@plt>
    3438:	83 c4 10             	add    $0x10,%esp
    343b:	89 5d 08             	mov    %ebx,0x8(%ebp)
    343e:	8b 5d fc             	mov    -0x4(%ebp),%ebx
    3441:	c9                   	leave  
    3442:	e9 99 5b 00 00       	jmp    8fe0 <free@plt>
    3447:	89 f6                	mov    %esi,%esi
    3449:	8d bc 27 00 00 00 00 	lea    0x0(%edi,%eiz,1),%edi

00003450 <tinput_set_prompt>:
    3450:	55                   	push   %ebp
    3451:	89 e5                	mov    %esp,%ebp
    3453:	53                   	push   %ebx
    3454:	52                   	push   %edx
    3455:	8b 5d 08             	mov    0x8(%ebp),%ebx
    3458:	8b 43 04             	mov    0x4(%ebx),%eax
    345b:	85 c0                	test   %eax,%eax
    345d:	74 0c                	je     346b <tinput_set_prompt+0x1b>
    345f:	83 ec 0c             	sub    $0xc,%esp
    3462:	50                   	push   %eax
    3463:	e8 78 5b 00 00       	call   8fe0 <free@plt>
    3468:	83 c4 10             	add    $0x10,%esp
    346b:	83 ec 0c             	sub    $0xc,%esp
    346e:	8b 45 0c             	mov    0xc(%ebp),%eax
    3471:	50                   	push   %eax
    3472:	e8 09 5a 00 00       	call   8e80 <str_dup@plt>
    3477:	83 c4 10             	add    $0x10,%esp
    347a:	83 f8 01             	cmp    $0x1,%eax
    347d:	89 43 04             	mov    %eax,0x4(%ebx)
    3480:	8b 5d fc             	mov    -0x4(%ebp),%ebx
    3483:	19 c0                	sbb    %eax,%eax
    3485:	c9                   	leave  
    3486:	83 e0 fe             	and    $0xfffffffe,%eax
    3489:	c3                   	ret    
    348a:	8d b6 00 00 00 00    	lea    0x0(%esi),%esi

00003490 <tinput_set_compl_ops>:
    3490:	55                   	push   %ebp
    3491:	89 e5                	mov    %esp,%ebp
    3493:	8b 45 08             	mov    0x8(%ebp),%eax
    3496:	8b 55 0c             	mov    0xc(%ebp),%edx
    3499:	89 50 08             	mov    %edx,0x8(%eax)
    349c:	5d                   	pop    %ebp
    349d:	c3                   	ret    
    349e:	66 90                	xchg   %ax,%ax

000034a0 <tinput_read_i>:
    34a0:	55                   	push   %ebp
    34a1:	89 e5                	mov    %esp,%ebp
    34a3:	57                   	push   %edi
    34a4:	56                   	push   %esi
    34a5:	53                   	push   %ebx
    34a6:	81 ec 88 00 00 00    	sub    $0x88,%esp
    34ac:	8b 7d 08             	mov    0x8(%ebp),%edi
    34af:	8b 07                	mov    (%edi),%eax
    34b1:	50                   	push   %eax
    34b2:	e8 89 5a 00 00       	call   8f40 <console_flush@plt>
    34b7:	83 c4 0c             	add    $0xc,%esp
    34ba:	8d 87 1c 10 00 00    	lea    0x101c(%edi),%eax
    34c0:	50                   	push   %eax
    34c1:	8d 87 18 10 00 00    	lea    0x1018(%edi),%eax
    34c7:	50                   	push   %eax
    34c8:	8b 07                	mov    (%edi),%eax
    34ca:	50                   	push   %eax
    34cb:	e8 70 57 00 00       	call   8c40 <console_get_size@plt>
    34d0:	83 c4 10             	add    $0x10,%esp
    34d3:	85 c0                	test   %eax,%eax
    34d5:	0f 85 e5 03 00 00    	jne    38c0 <tinput_read_i+0x420>
    34db:	8d 47 0c             	lea    0xc(%edi),%eax
    34de:	56                   	push   %esi
    34df:	89 c3                	mov    %eax,%ebx
    34e1:	89 45 a0             	mov    %eax,-0x60(%ebp)
    34e4:	8b 45 0c             	mov    0xc(%ebp),%eax
    34e7:	50                   	push   %eax
    34e8:	68 00 04 00 00       	push   $0x400
    34ed:	53                   	push   %ebx
    34ee:	e8 9d 5a 00 00       	call   8f90 <str_to_wstr@plt>
    34f3:	89 1c 24             	mov    %ebx,(%esp)
    34f6:	e8 a5 57 00 00       	call   8ca0 <wstr_length@plt>
    34fb:	c7 87 28 10 00 00 00 	movl   $0x0,0x1028(%edi)
    3502:	00 00 00 
    3505:	89 87 20 10 00 00    	mov    %eax,0x1020(%edi)
    350b:	89 87 24 10 00 00    	mov    %eax,0x1024(%edi)
    3511:	c6 87 60 10 00 00 00 	movb   $0x0,0x1060(%edi)
    3518:	c6 87 61 10 00 00 00 	movb   $0x0,0x1061(%edi)
    351f:	89 f8                	mov    %edi,%eax
    3521:	e8 ba fd ff ff       	call   32e0 <tinput_display>
    3526:	83 c4 10             	add    $0x10,%esp
    3529:	89 45 a4             	mov    %eax,-0x5c(%ebp)
    352c:	85 c0                	test   %eax,%eax
    352e:	0f 85 8c 03 00 00    	jne    38c0 <tinput_read_i+0x420>
    3534:	8d 5d c4             	lea    -0x3c(%ebp),%ebx
    3537:	90                   	nop
    3538:	80 bf 60 10 00 00 00 	cmpb   $0x0,0x1060(%edi)
    353f:	0f 85 03 01 00 00    	jne    3648 <tinput_read_i+0x1a8>
    3545:	83 ec 0c             	sub    $0xc,%esp
    3548:	8b 07                	mov    (%edi),%eax
    354a:	50                   	push   %eax
    354b:	e8 f0 59 00 00       	call   8f40 <console_flush@plt>
    3550:	8b 0f                	mov    (%edi),%ecx
    3552:	58                   	pop    %eax
    3553:	5a                   	pop    %edx
    3554:	53                   	push   %ebx
    3555:	51                   	push   %ecx
    3556:	e8 65 58 00 00       	call   8dc0 <console_get_event@plt>
    355b:	83 c4 10             	add    $0x10,%esp
    355e:	84 c0                	test   %al,%al
    3560:	0f 84 5a 03 00 00    	je     38c0 <tinput_read_i+0x420>
    3566:	8b 45 cc             	mov    -0x34(%ebp),%eax
    3569:	85 c0                	test   %eax,%eax
    356b:	0f 84 57 01 00 00    	je     36c8 <tinput_read_i+0x228>
    3571:	48                   	dec    %eax
    3572:	75 c4                	jne    3538 <tinput_read_i+0x98>
    3574:	83 7d d4 01          	cmpl   $0x1,-0x2c(%ebp)
    3578:	75 be                	jne    3538 <tinput_read_i+0x98>
    357a:	8b 45 dc             	mov    -0x24(%ebp),%eax
    357d:	66 8b b7 62 10 00 00 	mov    0x1062(%edi),%si
    3584:	89 45 98             	mov    %eax,-0x68(%ebp)
    3587:	8b 87 24 10 00 00    	mov    0x1024(%edi),%eax
    358d:	8b 4d e0             	mov    -0x20(%ebp),%ecx
    3590:	39 87 28 10 00 00    	cmp    %eax,0x1028(%edi)
    3596:	74 3e                	je     35d6 <tinput_read_i+0x136>
    3598:	66 85 f6             	test   %si,%si
    359b:	75 39                	jne    35d6 <tinput_read_i+0x136>
    359d:	89 87 28 10 00 00    	mov    %eax,0x1028(%edi)
    35a3:	31 d2                	xor    %edx,%edx
    35a5:	89 f8                	mov    %edi,%eax
    35a7:	89 4d 9c             	mov    %ecx,-0x64(%ebp)
    35aa:	e8 f1 f9 ff ff       	call   2fa0 <tinput_display_tail.constprop.12>
    35af:	8b 97 14 10 00 00    	mov    0x1014(%edi),%edx
    35b5:	8b 87 24 10 00 00    	mov    0x1024(%edi),%eax
    35bb:	51                   	push   %ecx
    35bc:	01 d0                	add    %edx,%eax
    35be:	31 d2                	xor    %edx,%edx
    35c0:	f7 b7 18 10 00 00    	divl   0x1018(%edi)
    35c6:	50                   	push   %eax
    35c7:	8b 07                	mov    (%edi),%eax
    35c9:	52                   	push   %edx
    35ca:	50                   	push   %eax
    35cb:	e8 a0 59 00 00       	call   8f70 <console_set_pos@plt>
    35d0:	83 c4 10             	add    $0x10,%esp
    35d3:	8b 4d 9c             	mov    -0x64(%ebp),%ecx
    35d6:	8b 87 18 10 00 00    	mov    0x1018(%edi),%eax
    35dc:	8b 55 98             	mov    -0x68(%ebp),%edx
    35df:	0f af c8             	imul   %eax,%ecx
    35e2:	01 ca                	add    %ecx,%edx
    35e4:	8b 8f 14 10 00 00    	mov    0x1014(%edi),%ecx
    35ea:	89 45 9c             	mov    %eax,-0x64(%ebp)
    35ed:	39 ca                	cmp    %ecx,%edx
    35ef:	0f 86 1a 04 00 00    	jbe    3a0f <tinput_read_i+0x56f>
    35f5:	29 ca                	sub    %ecx,%edx
    35f7:	8b 87 20 10 00 00    	mov    0x1020(%edi),%eax
    35fd:	89 97 24 10 00 00    	mov    %edx,0x1024(%edi)
    3603:	39 c2                	cmp    %eax,%edx
    3605:	0f 86 4d 17 00 00    	jbe    4d58 <tinput_read_i+0x18b8>
    360b:	89 87 24 10 00 00    	mov    %eax,0x1024(%edi)
    3611:	66 85 f6             	test   %si,%si
    3614:	0f 85 b5 05 00 00    	jne    3bcf <tinput_read_i+0x72f>
    361a:	89 87 28 10 00 00    	mov    %eax,0x1028(%edi)
    3620:	01 c8                	add    %ecx,%eax
    3622:	31 d2                	xor    %edx,%edx
    3624:	f7 75 9c             	divl   -0x64(%ebp)
    3627:	56                   	push   %esi
    3628:	8b 0f                	mov    (%edi),%ecx
    362a:	50                   	push   %eax
    362b:	52                   	push   %edx
    362c:	51                   	push   %ecx
    362d:	e8 3e 59 00 00       	call   8f70 <console_set_pos@plt>
    3632:	83 c4 10             	add    $0x10,%esp
    3635:	80 bf 60 10 00 00 00 	cmpb   $0x0,0x1060(%edi)
    363c:	0f 84 03 ff ff ff    	je     3545 <tinput_read_i+0xa5>
    3642:	8d b6 00 00 00 00    	lea    0x0(%esi),%esi
    3648:	80 bf 61 10 00 00 00 	cmpb   $0x0,0x1061(%edi)
    364f:	0f 85 7f 11 00 00    	jne    47d4 <tinput_read_i+0x1334>
    3655:	8b 87 20 10 00 00    	mov    0x1020(%edi),%eax
    365b:	8b 97 14 10 00 00    	mov    0x1014(%edi),%edx
    3661:	89 87 24 10 00 00    	mov    %eax,0x1024(%edi)
    3667:	01 d0                	add    %edx,%eax
    3669:	51                   	push   %ecx
    366a:	31 d2                	xor    %edx,%edx
    366c:	f7 b7 18 10 00 00    	divl   0x1018(%edi)
    3672:	8b 1f                	mov    (%edi),%ebx
    3674:	50                   	push   %eax
    3675:	52                   	push   %edx
    3676:	53                   	push   %ebx
    3677:	e8 f4 58 00 00       	call   8f70 <console_set_pos@plt>
    367c:	c7 04 24 0a 00 00 00 	movl   $0xa,(%esp)
    3683:	e8 c8 55 00 00       	call   8c50 <putchar@plt>
    3688:	8b 45 a0             	mov    -0x60(%ebp),%eax
    368b:	5e                   	pop    %esi
    368c:	50                   	push   %eax
    368d:	e8 7e 58 00 00       	call   8f10 <wstr_to_astr@plt>
    3692:	89 c3                	mov    %eax,%ebx
    3694:	58                   	pop    %eax
    3695:	5a                   	pop    %edx
    3696:	68 7f 80 00 00       	push   $0x807f
    369b:	53                   	push   %ebx
    369c:	e8 1f 58 00 00       	call   8ec0 <str_cmp@plt>
    36a1:	83 c4 10             	add    $0x10,%esp
    36a4:	85 c0                	test   %eax,%eax
    36a6:	0f 85 c0 03 00 00    	jne    3a6c <tinput_read_i+0x5cc>
    36ac:	8b 45 10             	mov    0x10(%ebp),%eax
    36af:	c7 87 5c 10 00 00 00 	movl   $0x0,0x105c(%edi)
    36b6:	00 00 00 
    36b9:	89 18                	mov    %ebx,(%eax)
    36bb:	8b 45 a4             	mov    -0x5c(%ebp),%eax
    36be:	8d 65 f4             	lea    -0xc(%ebp),%esp
    36c1:	5b                   	pop    %ebx
    36c2:	5e                   	pop    %esi
    36c3:	5f                   	pop    %edi
    36c4:	5d                   	pop    %ebp
    36c5:	c3                   	ret    
    36c6:	66 90                	xchg   %ax,%ax
    36c8:	8b 45 d8             	mov    -0x28(%ebp),%eax
    36cb:	85 c0                	test   %eax,%eax
    36cd:	74 21                	je     36f0 <tinput_read_i+0x250>
    36cf:	8b 45 dc             	mov    -0x24(%ebp),%eax
    36d2:	83 f8 2b             	cmp    $0x2b,%eax
    36d5:	0f 84 d5 01 00 00    	je     38b0 <tinput_read_i+0x410>
    36db:	83 f8 36             	cmp    $0x36,%eax
    36de:	0f 85 54 fe ff ff    	jne    3538 <tinput_read_i+0x98>
    36e4:	c6 87 63 10 00 00 00 	movb   $0x0,0x1063(%edi)
    36eb:	e9 48 fe ff ff       	jmp    3538 <tinput_read_i+0x98>
    36f0:	8b 55 dc             	mov    -0x24(%ebp),%edx
    36f3:	83 fa 2b             	cmp    $0x2b,%edx
    36f6:	0f 84 fc 02 00 00    	je     39f8 <tinput_read_i+0x558>
    36fc:	83 fa 36             	cmp    $0x36,%edx
    36ff:	0f 84 d3 01 00 00    	je     38d8 <tinput_read_i+0x438>
    3705:	8b 45 e0             	mov    -0x20(%ebp),%eax
    3708:	a8 0c                	test   $0xc,%al
    370a:	74 08                	je     3714 <tinput_read_i+0x274>
    370c:	a8 33                	test   $0x33,%al
    370e:	0f 84 2f 03 00 00    	je     3a43 <tinput_read_i+0x5a3>
    3714:	a8 03                	test   $0x3,%al
    3716:	74 10                	je     3728 <tinput_read_i+0x288>
    3718:	a8 3c                	test   $0x3c,%al
    371a:	0f 84 36 03 00 00    	je     3a56 <tinput_read_i+0x5b6>
    3720:	a8 0c                	test   $0xc,%al
    3722:	0f 85 1f 02 00 00    	jne    3947 <tinput_read_i+0x4a7>
    3728:	a8 3f                	test   $0x3f,%al
    372a:	0f 84 b0 02 00 00    	je     39e0 <tinput_read_i+0x540>
    3730:	8b 75 e4             	mov    -0x1c(%ebp),%esi
    3733:	83 fe 1f             	cmp    $0x1f,%esi
    3736:	0f 8e fc fd ff ff    	jle    3538 <tinput_read_i+0x98>
    373c:	8b 97 28 10 00 00    	mov    0x1028(%edi),%edx
    3742:	8b 8f 24 10 00 00    	mov    0x1024(%edi),%ecx
    3748:	39 ca                	cmp    %ecx,%edx
    374a:	0f 83 d0 02 00 00    	jae    3a20 <tinput_read_i+0x580>
    3750:	56                   	push   %esi
    3751:	8b 75 a0             	mov    -0x60(%ebp),%esi
    3754:	8b 87 20 10 00 00    	mov    0x1020(%edi),%eax
    375a:	89 4d 98             	mov    %ecx,-0x68(%ebp)
    375d:	29 c8                	sub    %ecx,%eax
    375f:	89 55 9c             	mov    %edx,-0x64(%ebp)
    3762:	c1 e0 02             	shl    $0x2,%eax
    3765:	50                   	push   %eax
    3766:	8d 04 8e             	lea    (%esi,%ecx,4),%eax
    3769:	50                   	push   %eax
    376a:	8d 04 96             	lea    (%esi,%edx,4),%eax
    376d:	50                   	push   %eax
    376e:	e8 5d 55 00 00       	call   8cd0 <memmove@plt>
    3773:	8b 55 9c             	mov    -0x64(%ebp),%edx
    3776:	8b 87 20 10 00 00    	mov    0x1020(%edi),%eax
    377c:	01 d0                	add    %edx,%eax
    377e:	8b 4d 98             	mov    -0x68(%ebp),%ecx
    3781:	29 c8                	sub    %ecx,%eax
    3783:	89 97 28 10 00 00    	mov    %edx,0x1028(%edi)
    3789:	89 97 24 10 00 00    	mov    %edx,0x1024(%edi)
    378f:	89 87 20 10 00 00    	mov    %eax,0x1020(%edi)
    3795:	29 d1                	sub    %edx,%ecx
    3797:	c7 44 87 0c 00 00 00 	movl   $0x0,0xc(%edi,%eax,4)
    379e:	00 
    379f:	89 f8                	mov    %edi,%eax
    37a1:	e8 ea f4 ff ff       	call   2c90 <tinput_display_tail>
    37a6:	8b 97 14 10 00 00    	mov    0x1014(%edi),%edx
    37ac:	8b 87 24 10 00 00    	mov    0x1024(%edi),%eax
    37b2:	83 c4 0c             	add    $0xc,%esp
    37b5:	01 d0                	add    %edx,%eax
    37b7:	31 d2                	xor    %edx,%edx
    37b9:	f7 b7 18 10 00 00    	divl   0x1018(%edi)
    37bf:	8b 0f                	mov    (%edi),%ecx
    37c1:	50                   	push   %eax
    37c2:	52                   	push   %edx
    37c3:	51                   	push   %ecx
    37c4:	e8 a7 57 00 00       	call   8f70 <console_set_pos@plt>
    37c9:	8b 75 e4             	mov    -0x1c(%ebp),%esi
    37cc:	83 c4 10             	add    $0x10,%esp
    37cf:	8b 8f 20 10 00 00    	mov    0x1020(%edi),%ecx
    37d5:	81 f9 00 04 00 00    	cmp    $0x400,%ecx
    37db:	0f 84 57 fd ff ff    	je     3538 <tinput_read_i+0x98>
    37e1:	8d 41 01             	lea    0x1(%ecx),%eax
    37e4:	31 d2                	xor    %edx,%edx
    37e6:	89 45 9c             	mov    %eax,-0x64(%ebp)
    37e9:	8b 87 14 10 00 00    	mov    0x1014(%edi),%eax
    37ef:	f7 b7 18 10 00 00    	divl   0x1018(%edi)
    37f5:	8d 41 01             	lea    0x1(%ecx),%eax
    37f8:	01 d0                	add    %edx,%eax
    37fa:	31 d2                	xor    %edx,%edx
    37fc:	f7 b7 18 10 00 00    	divl   0x1018(%edi)
    3802:	85 d2                	test   %edx,%edx
    3804:	0f 84 27 02 00 00    	je     3a31 <tinput_read_i+0x591>
    380a:	8b 97 24 10 00 00    	mov    0x1024(%edi),%edx
    3810:	39 d1                	cmp    %edx,%ecx
    3812:	76 1b                	jbe    382f <tinput_read_i+0x38f>
    3814:	8d 44 8f 08          	lea    0x8(%edi,%ecx,4),%eax
    3818:	89 55 98             	mov    %edx,-0x68(%ebp)
    381b:	8d 4c 97 08          	lea    0x8(%edi,%edx,4),%ecx
    381f:	90                   	nop
    3820:	8b 10                	mov    (%eax),%edx
    3822:	83 e8 04             	sub    $0x4,%eax
    3825:	89 50 08             	mov    %edx,0x8(%eax)
    3828:	39 c8                	cmp    %ecx,%eax
    382a:	75 f4                	jne    3820 <tinput_read_i+0x380>
    382c:	8b 55 98             	mov    -0x68(%ebp),%edx
    382f:	89 74 97 0c          	mov    %esi,0xc(%edi,%edx,4)
    3833:	8b 75 9c             	mov    -0x64(%ebp),%esi
    3836:	8d 42 01             	lea    0x1(%edx),%eax
    3839:	89 b7 20 10 00 00    	mov    %esi,0x1020(%edi)
    383f:	89 87 24 10 00 00    	mov    %eax,0x1024(%edi)
    3845:	c7 44 b7 0c 00 00 00 	movl   $0x0,0xc(%edi,%esi,4)
    384c:	00 
    384d:	89 87 28 10 00 00    	mov    %eax,0x1028(%edi)
    3853:	89 f8                	mov    %edi,%eax
    3855:	e8 46 f7 ff ff       	call   2fa0 <tinput_display_tail.constprop.12>
    385a:	8b 8f 14 10 00 00    	mov    0x1014(%edi),%ecx
    3860:	8b 87 20 10 00 00    	mov    0x1020(%edi),%eax
    3866:	31 d2                	xor    %edx,%edx
    3868:	01 c8                	add    %ecx,%eax
    386a:	8b b7 18 10 00 00    	mov    0x1018(%edi),%esi
    3870:	f7 f6                	div    %esi
    3872:	8b 97 1c 10 00 00    	mov    0x101c(%edi),%edx
    3878:	39 d0                	cmp    %edx,%eax
    387a:	72 1c                	jb     3898 <tinput_read_i+0x3f8>
    387c:	29 d0                	sub    %edx,%eax
    387e:	8b 97 10 10 00 00    	mov    0x1010(%edi),%edx
    3884:	40                   	inc    %eax
    3885:	0f af c6             	imul   %esi,%eax
    3888:	29 c1                	sub    %eax,%ecx
    388a:	29 c2                	sub    %eax,%edx
    388c:	89 8f 14 10 00 00    	mov    %ecx,0x1014(%edi)
    3892:	89 97 10 10 00 00    	mov    %edx,0x1010(%edi)
    3898:	8b 87 24 10 00 00    	mov    0x1024(%edi),%eax
    389e:	52                   	push   %edx
    389f:	01 c8                	add    %ecx,%eax
    38a1:	31 d2                	xor    %edx,%edx
    38a3:	f7 f6                	div    %esi
    38a5:	e9 7e fd ff ff       	jmp    3628 <tinput_read_i+0x188>
    38aa:	8d b6 00 00 00 00    	lea    0x0(%esi),%esi
    38b0:	c6 87 62 10 00 00 00 	movb   $0x0,0x1062(%edi)
    38b7:	e9 7c fc ff ff       	jmp    3538 <tinput_read_i+0x98>
    38bc:	8d 74 26 00          	lea    0x0(%esi,%eiz,1),%esi
    38c0:	c7 45 a4 f6 fe ff ff 	movl   $0xfffffef6,-0x5c(%ebp)
    38c7:	8b 45 a4             	mov    -0x5c(%ebp),%eax
    38ca:	8d 65 f4             	lea    -0xc(%ebp),%esp
    38cd:	5b                   	pop    %ebx
    38ce:	5e                   	pop    %esi
    38cf:	5f                   	pop    %edi
    38d0:	5d                   	pop    %ebp
    38d1:	c3                   	ret    
    38d2:	8d b6 00 00 00 00    	lea    0x0(%esi),%esi
    38d8:	8b 45 e0             	mov    -0x20(%ebp),%eax
    38db:	c6 87 63 10 00 00 01 	movb   $0x1,0x1063(%edi)
    38e2:	a8 0c                	test   $0xc,%al
    38e4:	0f 84 2a fe ff ff    	je     3714 <tinput_read_i+0x274>
    38ea:	e9 1d fe ff ff       	jmp    370c <tinput_read_i+0x26c>
    38ef:	8b 87 24 10 00 00    	mov    0x1024(%edi),%eax
    38f5:	8b 97 18 10 00 00    	mov    0x1018(%edi),%edx
    38fb:	39 c2                	cmp    %eax,%edx
    38fd:	77 08                	ja     3907 <tinput_read_i+0x467>
    38ff:	29 d0                	sub    %edx,%eax
    3901:	89 87 24 10 00 00    	mov    %eax,0x1024(%edi)
    3907:	31 d2                	xor    %edx,%edx
    3909:	89 f8                	mov    %edi,%eax
    390b:	e8 90 f6 ff ff       	call   2fa0 <tinput_display_tail.constprop.12>
    3910:	8b 97 14 10 00 00    	mov    0x1014(%edi),%edx
    3916:	8b 87 24 10 00 00    	mov    0x1024(%edi),%eax
    391c:	51                   	push   %ecx
    391d:	01 d0                	add    %edx,%eax
    391f:	31 d2                	xor    %edx,%edx
    3921:	f7 b7 18 10 00 00    	divl   0x1018(%edi)
    3927:	8b 37                	mov    (%edi),%esi
    3929:	50                   	push   %eax
    392a:	52                   	push   %edx
    392b:	56                   	push   %esi
    392c:	e8 3f 56 00 00       	call   8f70 <console_set_pos@plt>
    3931:	8b 45 e0             	mov    -0x20(%ebp),%eax
    3934:	83 c4 10             	add    $0x10,%esp
    3937:	a8 0c                	test   $0xc,%al
    3939:	0f 84 e9 fd ff ff    	je     3728 <tinput_read_i+0x288>
    393f:	a8 03                	test   $0x3,%al
    3941:	0f 84 e1 fd ff ff    	je     3728 <tinput_read_i+0x288>
    3947:	a8 30                	test   $0x30,%al
    3949:	0f 85 d9 fd ff ff    	jne    3728 <tinput_read_i+0x288>
    394f:	8b 55 dc             	mov    -0x24(%ebp),%edx
    3952:	83 fa 55             	cmp    $0x55,%edx
    3955:	0f 84 aa 0e 00 00    	je     4805 <tinput_read_i+0x1365>
    395b:	0f 86 de 09 00 00    	jbe    433f <tinput_read_i+0xe9f>
    3961:	83 fa 56             	cmp    $0x56,%edx
    3964:	0f 84 76 0e 00 00    	je     47e0 <tinput_read_i+0x1340>
    396a:	83 fa 57             	cmp    $0x57,%edx
    396d:	0f 85 b5 fd ff ff    	jne    3728 <tinput_read_i+0x288>
    3973:	8b 97 24 10 00 00    	mov    0x1024(%edi),%edx
    3979:	8b 8f 20 10 00 00    	mov    0x1020(%edi),%ecx
    397f:	39 d1                	cmp    %edx,%ecx
    3981:	0f 84 59 13 00 00    	je     4ce0 <tinput_read_i+0x1840>
    3987:	42                   	inc    %edx
    3988:	39 d1                	cmp    %edx,%ecx
    398a:	0f 84 0f 0f 00 00    	je     489f <tinput_read_i+0x13ff>
    3990:	83 7c 97 08 20       	cmpl   $0x20,0x8(%edi,%edx,4)
    3995:	75 f0                	jne    3987 <tinput_read_i+0x4e7>
    3997:	83 7c 97 0c 20       	cmpl   $0x20,0xc(%edi,%edx,4)
    399c:	74 e9                	je     3987 <tinput_read_i+0x4e7>
    399e:	89 97 24 10 00 00    	mov    %edx,0x1024(%edi)
    39a4:	31 d2                	xor    %edx,%edx
    39a6:	89 f8                	mov    %edi,%eax
    39a8:	e8 f3 f5 ff ff       	call   2fa0 <tinput_display_tail.constprop.12>
    39ad:	8b 87 24 10 00 00    	mov    0x1024(%edi),%eax
    39b3:	8b b7 14 10 00 00    	mov    0x1014(%edi),%esi
    39b9:	52                   	push   %edx
    39ba:	01 f0                	add    %esi,%eax
    39bc:	31 d2                	xor    %edx,%edx
    39be:	f7 b7 18 10 00 00    	divl   0x1018(%edi)
    39c4:	8b 0f                	mov    (%edi),%ecx
    39c6:	50                   	push   %eax
    39c7:	52                   	push   %edx
    39c8:	51                   	push   %ecx
    39c9:	e8 a2 55 00 00       	call   8f70 <console_set_pos@plt>
    39ce:	8b 45 e0             	mov    -0x20(%ebp),%eax
    39d1:	83 c4 10             	add    $0x10,%esp
    39d4:	e9 4f fd ff ff       	jmp    3728 <tinput_read_i+0x288>
    39d9:	8d b4 26 00 00 00 00 	lea    0x0(%esi,%eiz,1),%esi
    39e0:	8b 45 dc             	mov    -0x24(%ebp),%eax
    39e3:	83 e8 0e             	sub    $0xe,%eax
    39e6:	83 f8 4f             	cmp    $0x4f,%eax
    39e9:	0f 87 41 fd ff ff    	ja     3730 <tinput_read_i+0x290>
    39ef:	ff 24 85 dc 85 00 00 	jmp    *0x85dc(,%eax,4)
    39f6:	66 90                	xchg   %ax,%ax
    39f8:	8b 45 e0             	mov    -0x20(%ebp),%eax
    39fb:	c6 87 62 10 00 00 01 	movb   $0x1,0x1062(%edi)
    3a02:	a8 0c                	test   $0xc,%al
    3a04:	0f 84 0a fd ff ff    	je     3714 <tinput_read_i+0x274>
    3a0a:	e9 fd fc ff ff       	jmp    370c <tinput_read_i+0x26c>
    3a0f:	c7 87 24 10 00 00 00 	movl   $0x0,0x1024(%edi)
    3a16:	00 00 00 
    3a19:	31 c0                	xor    %eax,%eax
    3a1b:	e9 f1 fb ff ff       	jmp    3611 <tinput_read_i+0x171>
    3a20:	0f 84 a9 fd ff ff    	je     37cf <tinput_read_i+0x32f>
    3a26:	89 d0                	mov    %edx,%eax
    3a28:	89 ca                	mov    %ecx,%edx
    3a2a:	89 c1                	mov    %eax,%ecx
    3a2c:	e9 1f fd ff ff       	jmp    3750 <tinput_read_i+0x2b0>
    3a31:	40                   	inc    %eax
    3a32:	3b 87 1c 10 00 00    	cmp    0x101c(%edi),%eax
    3a38:	0f 82 cc fd ff ff    	jb     380a <tinput_read_i+0x36a>
    3a3e:	e9 f5 fa ff ff       	jmp    3538 <tinput_read_i+0x98>
    3a43:	83 ea 10             	sub    $0x10,%edx
    3a46:	83 fa 47             	cmp    $0x47,%edx
    3a49:	0f 87 c5 fc ff ff    	ja     3714 <tinput_read_i+0x274>
    3a4f:	ff 24 95 1c 87 00 00 	jmp    *0x871c(,%edx,4)
    3a56:	8b 75 dc             	mov    -0x24(%ebp),%esi
    3a59:	8d 56 b1             	lea    -0x4f(%esi),%edx
    3a5c:	83 fa 08             	cmp    $0x8,%edx
    3a5f:	0f 87 d2 fe ff ff    	ja     3937 <tinput_read_i+0x497>
    3a65:	ff 24 95 3c 88 00 00 	jmp    *0x883c(,%edx,4)
    3a6c:	8b 87 58 10 00 00    	mov    0x1058(%edi),%eax
    3a72:	83 f8 09             	cmp    $0x9,%eax
    3a75:	0f 87 77 01 00 00    	ja     3bf2 <tinput_read_i+0x752>
    3a7b:	40                   	inc    %eax
    3a7c:	89 87 58 10 00 00    	mov    %eax,0x1058(%edi)
    3a82:	83 f8 01             	cmp    $0x1,%eax
    3a85:	0f 86 09 01 00 00    	jbe    3b94 <tinput_read_i+0x6f4>
    3a8b:	8d 0c 87             	lea    (%edi,%eax,4),%ecx
    3a8e:	8d 50 ff             	lea    -0x1(%eax),%edx
    3a91:	83 fa 01             	cmp    $0x1,%edx
    3a94:	8b b1 28 10 00 00    	mov    0x1028(%ecx),%esi
    3a9a:	89 b1 2c 10 00 00    	mov    %esi,0x102c(%ecx)
    3aa0:	0f 84 ee 00 00 00    	je     3b94 <tinput_read_i+0x6f4>
    3aa6:	8d 14 97             	lea    (%edi,%edx,4),%edx
    3aa9:	8d 48 fe             	lea    -0x2(%eax),%ecx
    3aac:	83 f9 01             	cmp    $0x1,%ecx
    3aaf:	8b b2 28 10 00 00    	mov    0x1028(%edx),%esi
    3ab5:	89 b2 2c 10 00 00    	mov    %esi,0x102c(%edx)
    3abb:	0f 84 d3 00 00 00    	je     3b94 <tinput_read_i+0x6f4>
    3ac1:	8d 0c 8f             	lea    (%edi,%ecx,4),%ecx
    3ac4:	8d 50 fd             	lea    -0x3(%eax),%edx
    3ac7:	83 fa 01             	cmp    $0x1,%edx
    3aca:	8b b1 28 10 00 00    	mov    0x1028(%ecx),%esi
    3ad0:	89 b1 2c 10 00 00    	mov    %esi,0x102c(%ecx)
    3ad6:	0f 84 b8 00 00 00    	je     3b94 <tinput_read_i+0x6f4>
    3adc:	8d 14 97             	lea    (%edi,%edx,4),%edx
    3adf:	8d 48 fc             	lea    -0x4(%eax),%ecx
    3ae2:	83 f9 01             	cmp    $0x1,%ecx
    3ae5:	8b b2 28 10 00 00    	mov    0x1028(%edx),%esi
    3aeb:	89 b2 2c 10 00 00    	mov    %esi,0x102c(%edx)
    3af1:	0f 84 9d 00 00 00    	je     3b94 <tinput_read_i+0x6f4>
    3af7:	8d 0c 8f             	lea    (%edi,%ecx,4),%ecx
    3afa:	8d 50 fb             	lea    -0x5(%eax),%edx
    3afd:	83 fa 01             	cmp    $0x1,%edx
    3b00:	8b b1 28 10 00 00    	mov    0x1028(%ecx),%esi
    3b06:	89 b1 2c 10 00 00    	mov    %esi,0x102c(%ecx)
    3b0c:	0f 84 82 00 00 00    	je     3b94 <tinput_read_i+0x6f4>
    3b12:	8d 14 97             	lea    (%edi,%edx,4),%edx
    3b15:	8d 48 fa             	lea    -0x6(%eax),%ecx
    3b18:	83 f9 01             	cmp    $0x1,%ecx
    3b1b:	8b b2 28 10 00 00    	mov    0x1028(%edx),%esi
    3b21:	89 b2 2c 10 00 00    	mov    %esi,0x102c(%edx)
    3b27:	74 6b                	je     3b94 <tinput_read_i+0x6f4>
    3b29:	8d 0c 8f             	lea    (%edi,%ecx,4),%ecx
    3b2c:	8d 50 f9             	lea    -0x7(%eax),%edx
    3b2f:	83 fa 01             	cmp    $0x1,%edx
    3b32:	8b b1 28 10 00 00    	mov    0x1028(%ecx),%esi
    3b38:	89 b1 2c 10 00 00    	mov    %esi,0x102c(%ecx)
    3b3e:	74 54                	je     3b94 <tinput_read_i+0x6f4>
    3b40:	8d 14 97             	lea    (%edi,%edx,4),%edx
    3b43:	8d 48 f8             	lea    -0x8(%eax),%ecx
    3b46:	83 f9 01             	cmp    $0x1,%ecx
    3b49:	8b b2 28 10 00 00    	mov    0x1028(%edx),%esi
    3b4f:	89 b2 2c 10 00 00    	mov    %esi,0x102c(%edx)
    3b55:	74 3d                	je     3b94 <tinput_read_i+0x6f4>
    3b57:	8d 0c 8f             	lea    (%edi,%ecx,4),%ecx
    3b5a:	8d 50 f7             	lea    -0x9(%eax),%edx
    3b5d:	83 fa 01             	cmp    $0x1,%edx
    3b60:	8b b1 28 10 00 00    	mov    0x1028(%ecx),%esi
    3b66:	89 b1 2c 10 00 00    	mov    %esi,0x102c(%ecx)
    3b6c:	74 26                	je     3b94 <tinput_read_i+0x6f4>
    3b6e:	8d 14 97             	lea    (%edi,%edx,4),%edx
    3b71:	83 e8 0a             	sub    $0xa,%eax
    3b74:	83 f8 01             	cmp    $0x1,%eax
    3b77:	8b 8a 28 10 00 00    	mov    0x1028(%edx),%ecx
    3b7d:	89 8a 2c 10 00 00    	mov    %ecx,0x102c(%edx)
    3b83:	74 0f                	je     3b94 <tinput_read_i+0x6f4>
    3b85:	8d 04 87             	lea    (%edi,%eax,4),%eax
    3b88:	8b 90 28 10 00 00    	mov    0x1028(%eax),%edx
    3b8e:	89 90 2c 10 00 00    	mov    %edx,0x102c(%eax)
    3b94:	83 ec 0c             	sub    $0xc,%esp
    3b97:	53                   	push   %ebx
    3b98:	e8 e3 52 00 00       	call   8e80 <str_dup@plt>
    3b9d:	89 87 30 10 00 00    	mov    %eax,0x1030(%edi)
    3ba3:	8b 87 2c 10 00 00    	mov    0x102c(%edi),%eax
    3ba9:	83 c4 10             	add    $0x10,%esp
    3bac:	85 c0                	test   %eax,%eax
    3bae:	0f 84 f8 fa ff ff    	je     36ac <tinput_read_i+0x20c>
    3bb4:	83 ec 0c             	sub    $0xc,%esp
    3bb7:	50                   	push   %eax
    3bb8:	e8 23 54 00 00       	call   8fe0 <free@plt>
    3bbd:	c7 87 2c 10 00 00 00 	movl   $0x0,0x102c(%edi)
    3bc4:	00 00 00 
    3bc7:	83 c4 10             	add    $0x10,%esp
    3bca:	e9 dd fa ff ff       	jmp    36ac <tinput_read_i+0x20c>
    3bcf:	89 f8                	mov    %edi,%eax
    3bd1:	31 d2                	xor    %edx,%edx
    3bd3:	e8 c8 f3 ff ff       	call   2fa0 <tinput_display_tail.constprop.12>
    3bd8:	8b b7 18 10 00 00    	mov    0x1018(%edi),%esi
    3bde:	8b 8f 14 10 00 00    	mov    0x1014(%edi),%ecx
    3be4:	8b 87 24 10 00 00    	mov    0x1024(%edi),%eax
    3bea:	89 75 9c             	mov    %esi,-0x64(%ebp)
    3bed:	e9 2e fa ff ff       	jmp    3620 <tinput_read_i+0x180>
    3bf2:	8b 97 54 10 00 00    	mov    0x1054(%edi),%edx
    3bf8:	85 d2                	test   %edx,%edx
    3bfa:	0f 84 8b fe ff ff    	je     3a8b <tinput_read_i+0x5eb>
    3c00:	83 ec 0c             	sub    $0xc,%esp
    3c03:	52                   	push   %edx
    3c04:	e8 d7 53 00 00       	call   8fe0 <free@plt>
    3c09:	8b 87 58 10 00 00    	mov    0x1058(%edi),%eax
    3c0f:	83 c4 10             	add    $0x10,%esp
    3c12:	e9 6b fe ff ff       	jmp    3a82 <tinput_read_i+0x5e2>
    3c17:	8b 47 08             	mov    0x8(%edi),%eax
    3c1a:	85 c0                	test   %eax,%eax
    3c1c:	0f 84 0e fb ff ff    	je     3730 <tinput_read_i+0x290>
    3c22:	8d 75 b0             	lea    -0x50(%ebp),%esi
    3c25:	8b 8f 24 10 00 00    	mov    0x1024(%edi),%ecx
    3c2b:	56                   	push   %esi
    3c2c:	8d 75 b4             	lea    -0x4c(%ebp),%esi
    3c2f:	56                   	push   %esi
    3c30:	8b 75 a0             	mov    -0x60(%ebp),%esi
    3c33:	51                   	push   %ecx
    3c34:	56                   	push   %esi
    3c35:	ff 10                	call   *(%eax)
    3c37:	83 c4 10             	add    $0x10,%esp
    3c3a:	85 c0                	test   %eax,%eax
    3c3c:	0f 85 ee fa ff ff    	jne    3730 <tinput_read_i+0x290>
    3c42:	83 ec 0c             	sub    $0xc,%esp
    3c45:	6a 04                	push   $0x4
    3c47:	e8 34 51 00 00       	call   8d80 <malloc@plt>
    3c4c:	83 c4 10             	add    $0x10,%esp
    3c4f:	89 45 98             	mov    %eax,-0x68(%ebp)
    3c52:	85 c0                	test   %eax,%eax
    3c54:	0f 84 e9 10 00 00    	je     4d43 <tinput_read_i+0x18a3>
    3c5a:	c7 45 90 00 00 00 00 	movl   $0x0,-0x70(%ebp)
    3c61:	c7 45 9c 01 00 00 00 	movl   $0x1,-0x64(%ebp)
    3c68:	eb 5b                	jmp    3cc5 <tinput_read_i+0x825>
    3c6a:	8d b6 00 00 00 00    	lea    0x0(%esi),%esi
    3c70:	8b 45 9c             	mov    -0x64(%ebp),%eax
    3c73:	8b 75 90             	mov    -0x70(%ebp),%esi
    3c76:	39 f0                	cmp    %esi,%eax
    3c78:	77 22                	ja     3c9c <tinput_read_i+0x7fc>
    3c7a:	01 c0                	add    %eax,%eax
    3c7c:	8b 4d 98             	mov    -0x68(%ebp),%ecx
    3c7f:	89 45 9c             	mov    %eax,-0x64(%ebp)
    3c82:	52                   	push   %edx
    3c83:	c1 e0 02             	shl    $0x2,%eax
    3c86:	52                   	push   %edx
    3c87:	50                   	push   %eax
    3c88:	51                   	push   %ecx
    3c89:	e8 22 52 00 00       	call   8eb0 <realloc@plt>
    3c8e:	83 c4 10             	add    $0x10,%esp
    3c91:	89 45 98             	mov    %eax,-0x68(%ebp)
    3c94:	85 c0                	test   %eax,%eax
    3c96:	0f 84 54 10 00 00    	je     4cf0 <tinput_read_i+0x1850>
    3c9c:	8b 45 98             	mov    -0x68(%ebp),%eax
    3c9f:	8b 75 90             	mov    -0x70(%ebp),%esi
    3ca2:	83 ec 0c             	sub    $0xc,%esp
    3ca5:	8d 34 b0             	lea    (%eax,%esi,4),%esi
    3ca8:	8b 45 b8             	mov    -0x48(%ebp),%eax
    3cab:	50                   	push   %eax
    3cac:	e8 cf 51 00 00       	call   8e80 <str_dup@plt>
    3cb1:	83 c4 10             	add    $0x10,%esp
    3cb4:	89 06                	mov    %eax,(%esi)
    3cb6:	85 c0                	test   %eax,%eax
    3cb8:	0f 84 32 10 00 00    	je     4cf0 <tinput_read_i+0x1850>
    3cbe:	8b 4d 90             	mov    -0x70(%ebp),%ecx
    3cc1:	41                   	inc    %ecx
    3cc2:	89 4d 90             	mov    %ecx,-0x70(%ebp)
    3cc5:	56                   	push   %esi
    3cc6:	56                   	push   %esi
    3cc7:	8b 47 08             	mov    0x8(%edi),%eax
    3cca:	8b 55 b0             	mov    -0x50(%ebp),%edx
    3ccd:	8d 75 b8             	lea    -0x48(%ebp),%esi
    3cd0:	56                   	push   %esi
    3cd1:	52                   	push   %edx
    3cd2:	ff 50 04             	call   *0x4(%eax)
    3cd5:	83 c4 10             	add    $0x10,%esp
    3cd8:	85 c0                	test   %eax,%eax
    3cda:	74 94                	je     3c70 <tinput_read_i+0x7d0>
    3cdc:	83 ec 0c             	sub    $0xc,%esp
    3cdf:	8b 47 08             	mov    0x8(%edi),%eax
    3ce2:	8b 55 b0             	mov    -0x50(%ebp),%edx
    3ce5:	52                   	push   %edx
    3ce6:	ff 50 08             	call   *0x8(%eax)
    3ce9:	83 c4 10             	add    $0x10,%esp
    3cec:	83 7d 90 01          	cmpl   $0x1,-0x70(%ebp)
    3cf0:	0f 86 d2 0f 00 00    	jbe    4cc8 <tinput_read_i+0x1828>
    3cf6:	8b 45 98             	mov    -0x68(%ebp),%eax
    3cf9:	83 ec 0c             	sub    $0xc,%esp
    3cfc:	8b 00                	mov    (%eax),%eax
    3cfe:	50                   	push   %eax
    3cff:	e8 5c 52 00 00       	call   8f60 <str_length@plt>
    3d04:	89 45 88             	mov    %eax,-0x78(%ebp)
    3d07:	8d 45 c0             	lea    -0x40(%ebp),%eax
    3d0a:	83 c4 10             	add    $0x10,%esp
    3d0d:	c7 45 84 01 00 00 00 	movl   $0x1,-0x7c(%ebp)
    3d14:	89 45 9c             	mov    %eax,-0x64(%ebp)
    3d17:	89 7d 08             	mov    %edi,0x8(%ebp)
    3d1a:	8b 45 98             	mov    -0x68(%ebp),%eax
    3d1d:	8b 75 84             	mov    -0x7c(%ebp),%esi
    3d20:	c7 45 8c 00 00 00 00 	movl   $0x0,-0x74(%ebp)
    3d27:	8b 3c b0             	mov    (%eax,%esi,4),%edi
    3d2a:	8b 00                	mov    (%eax),%eax
    3d2c:	89 45 94             	mov    %eax,-0x6c(%ebp)
    3d2f:	c7 45 bc 00 00 00 00 	movl   $0x0,-0x44(%ebp)
    3d36:	c7 45 c0 00 00 00 00 	movl   $0x0,-0x40(%ebp)
    3d3d:	eb 0c                	jmp    3d4b <tinput_read_i+0x8ab>
    3d3f:	90                   	nop
    3d40:	39 c6                	cmp    %eax,%esi
    3d42:	75 39                	jne    3d7d <tinput_read_i+0x8dd>
    3d44:	8b 55 8c             	mov    -0x74(%ebp),%edx
    3d47:	42                   	inc    %edx
    3d48:	89 55 8c             	mov    %edx,-0x74(%ebp)
    3d4b:	8b 75 94             	mov    -0x6c(%ebp),%esi
    3d4e:	8d 45 bc             	lea    -0x44(%ebp),%eax
    3d51:	51                   	push   %ecx
    3d52:	6a ff                	push   $0xffffffff
    3d54:	50                   	push   %eax
    3d55:	56                   	push   %esi
    3d56:	e8 b5 4f 00 00       	call   8d10 <str_decode@plt>
    3d5b:	83 c4 0c             	add    $0xc,%esp
    3d5e:	89 c6                	mov    %eax,%esi
    3d60:	8b 45 9c             	mov    -0x64(%ebp),%eax
    3d63:	6a ff                	push   $0xffffffff
    3d65:	50                   	push   %eax
    3d66:	57                   	push   %edi
    3d67:	e8 a4 4f 00 00       	call   8d10 <str_decode@plt>
    3d6c:	83 c4 10             	add    $0x10,%esp
    3d6f:	85 f6                	test   %esi,%esi
    3d71:	0f 94 c1             	sete   %cl
    3d74:	85 c0                	test   %eax,%eax
    3d76:	0f 94 c2             	sete   %dl
    3d79:	08 d1                	or     %dl,%cl
    3d7b:	74 c3                	je     3d40 <tinput_read_i+0x8a0>
    3d7d:	8b 75 8c             	mov    -0x74(%ebp),%esi
    3d80:	39 75 88             	cmp    %esi,-0x78(%ebp)
    3d83:	0f 83 31 0c 00 00    	jae    49ba <tinput_read_i+0x151a>
    3d89:	8b 45 84             	mov    -0x7c(%ebp),%eax
    3d8c:	40                   	inc    %eax
    3d8d:	89 45 84             	mov    %eax,-0x7c(%ebp)
    3d90:	8b 45 84             	mov    -0x7c(%ebp),%eax
    3d93:	39 45 90             	cmp    %eax,-0x70(%ebp)
    3d96:	75 82                	jne    3d1a <tinput_read_i+0x87a>
    3d98:	8b 7d 08             	mov    0x8(%ebp),%edi
    3d9b:	51                   	push   %ecx
    3d9c:	51                   	push   %ecx
    3d9d:	8b 75 b4             	mov    -0x4c(%ebp),%esi
    3da0:	8b 87 24 10 00 00    	mov    0x1024(%edi),%eax
    3da6:	29 f0                	sub    %esi,%eax
    3da8:	50                   	push   %eax
    3da9:	8b 45 98             	mov    -0x68(%ebp),%eax
    3dac:	8b 00                	mov    (%eax),%eax
    3dae:	50                   	push   %eax
    3daf:	e8 0c 52 00 00       	call   8fc0 <str_lsize@plt>
    3db4:	8b 4d 88             	mov    -0x78(%ebp),%ecx
    3db7:	83 c4 10             	add    $0x10,%esp
    3dba:	89 c6                	mov    %eax,%esi
    3dbc:	39 c8                	cmp    %ecx,%eax
    3dbe:	0f 83 cd 0c 00 00    	jae    4a91 <tinput_read_i+0x15f1>
    3dc4:	50                   	push   %eax
    3dc5:	50                   	push   %eax
    3dc6:	8b 45 98             	mov    -0x68(%ebp),%eax
    3dc9:	29 f1                	sub    %esi,%ecx
    3dcb:	51                   	push   %ecx
    3dcc:	8b 00                	mov    (%eax),%eax
    3dce:	50                   	push   %eax
    3dcf:	e8 ec 51 00 00       	call   8fc0 <str_lsize@plt>
    3dd4:	5a                   	pop    %edx
    3dd5:	59                   	pop    %ecx
    3dd6:	50                   	push   %eax
    3dd7:	8b 45 98             	mov    -0x68(%ebp),%eax
    3dda:	8b 10                	mov    (%eax),%edx
    3ddc:	01 d6                	add    %edx,%esi
    3dde:	56                   	push   %esi
    3ddf:	e8 5c 4f 00 00       	call   8d40 <str_ndup@plt>
    3de4:	89 c2                	mov    %eax,%edx
    3de6:	89 c6                	mov    %eax,%esi
    3de8:	89 f8                	mov    %edi,%eax
    3dea:	e8 51 f3 ff ff       	call   3140 <tinput_insert_string>
    3def:	89 34 24             	mov    %esi,(%esp)
    3df2:	e8 e9 51 00 00       	call   8fe0 <free@plt>
    3df7:	83 c4 10             	add    $0x10,%esp
    3dfa:	31 f6                	xor    %esi,%esi
    3dfc:	8b 45 98             	mov    -0x68(%ebp),%eax
    3dff:	83 ec 0c             	sub    $0xc,%esp
    3e02:	8b 04 b0             	mov    (%eax,%esi,4),%eax
    3e05:	46                   	inc    %esi
    3e06:	50                   	push   %eax
    3e07:	e8 d4 51 00 00       	call   8fe0 <free@plt>
    3e0c:	83 c4 10             	add    $0x10,%esp
    3e0f:	39 75 90             	cmp    %esi,-0x70(%ebp)
    3e12:	77 e8                	ja     3dfc <tinput_read_i+0x95c>
    3e14:	83 ec 0c             	sub    $0xc,%esp
    3e17:	8b 45 98             	mov    -0x68(%ebp),%eax
    3e1a:	50                   	push   %eax
    3e1b:	e8 c0 51 00 00       	call   8fe0 <free@plt>
    3e20:	83 c4 10             	add    $0x10,%esp
    3e23:	e9 08 f9 ff ff       	jmp    3730 <tinput_read_i+0x290>
    3e28:	8b 8f 24 10 00 00    	mov    0x1024(%edi),%ecx
    3e2e:	8b 87 28 10 00 00    	mov    0x1028(%edi),%eax
    3e34:	39 c1                	cmp    %eax,%ecx
    3e36:	74 39                	je     3e71 <tinput_read_i+0x9d1>
    3e38:	31 d2                	xor    %edx,%edx
    3e3a:	89 8f 28 10 00 00    	mov    %ecx,0x1028(%edi)
    3e40:	89 f8                	mov    %edi,%eax
    3e42:	e8 59 f1 ff ff       	call   2fa0 <tinput_display_tail.constprop.12>
    3e47:	8b 87 24 10 00 00    	mov    0x1024(%edi),%eax
    3e4d:	8b b7 14 10 00 00    	mov    0x1014(%edi),%esi
    3e53:	52                   	push   %edx
    3e54:	01 f0                	add    %esi,%eax
    3e56:	31 d2                	xor    %edx,%edx
    3e58:	f7 b7 18 10 00 00    	divl   0x1018(%edi)
    3e5e:	8b 0f                	mov    (%edi),%ecx
    3e60:	50                   	push   %eax
    3e61:	52                   	push   %edx
    3e62:	51                   	push   %ecx
    3e63:	e8 08 51 00 00       	call   8f70 <console_set_pos@plt>
    3e68:	8b 87 24 10 00 00    	mov    0x1024(%edi),%eax
    3e6e:	83 c4 10             	add    $0x10,%esp
    3e71:	3b 87 20 10 00 00    	cmp    0x1020(%edi),%eax
    3e77:	73 07                	jae    3e80 <tinput_read_i+0x9e0>
    3e79:	40                   	inc    %eax
    3e7a:	89 87 24 10 00 00    	mov    %eax,0x1024(%edi)
    3e80:	8b 97 14 10 00 00    	mov    0x1014(%edi),%edx
    3e86:	89 87 28 10 00 00    	mov    %eax,0x1028(%edi)
    3e8c:	01 d0                	add    %edx,%eax
    3e8e:	51                   	push   %ecx
    3e8f:	31 d2                	xor    %edx,%edx
    3e91:	f7 b7 18 10 00 00    	divl   0x1018(%edi)
    3e97:	50                   	push   %eax
    3e98:	8b 07                	mov    (%edi),%eax
    3e9a:	52                   	push   %edx
    3e9b:	50                   	push   %eax
    3e9c:	e8 cf 50 00 00       	call   8f70 <console_set_pos@plt>
    3ea1:	83 c4 10             	add    $0x10,%esp
    3ea4:	e9 87 f8 ff ff       	jmp    3730 <tinput_read_i+0x290>
    3ea9:	c6 87 60 10 00 00 01 	movb   $0x1,0x1060(%edi)
    3eb0:	e9 7b f8 ff ff       	jmp    3730 <tinput_read_i+0x290>
    3eb5:	8b 87 24 10 00 00    	mov    0x1024(%edi),%eax
    3ebb:	3b 87 28 10 00 00    	cmp    0x1028(%edi),%eax
    3ec1:	74 33                	je     3ef6 <tinput_read_i+0xa56>
    3ec3:	89 87 28 10 00 00    	mov    %eax,0x1028(%edi)
    3ec9:	31 d2                	xor    %edx,%edx
    3ecb:	89 f8                	mov    %edi,%eax
    3ecd:	e8 ce f0 ff ff       	call   2fa0 <tinput_display_tail.constprop.12>
    3ed2:	8b 97 14 10 00 00    	mov    0x1014(%edi),%edx
    3ed8:	8b 87 24 10 00 00    	mov    0x1024(%edi),%eax
    3ede:	51                   	push   %ecx
    3edf:	01 d0                	add    %edx,%eax
    3ee1:	31 d2                	xor    %edx,%edx
    3ee3:	f7 b7 18 10 00 00    	divl   0x1018(%edi)
    3ee9:	8b 37                	mov    (%edi),%esi
    3eeb:	50                   	push   %eax
    3eec:	52                   	push   %edx
    3eed:	56                   	push   %esi
    3eee:	e8 7d 50 00 00       	call   8f70 <console_set_pos@plt>
    3ef3:	83 c4 10             	add    $0x10,%esp
    3ef6:	c7 87 24 10 00 00 00 	movl   $0x0,0x1024(%edi)
    3efd:	00 00 00 
    3f00:	c7 87 28 10 00 00 00 	movl   $0x0,0x1028(%edi)
    3f07:	00 00 00 
    3f0a:	8b 87 14 10 00 00    	mov    0x1014(%edi),%eax
    3f10:	56                   	push   %esi
    3f11:	e9 79 ff ff ff       	jmp    3e8f <tinput_read_i+0x9ef>
    3f16:	8b b7 24 10 00 00    	mov    0x1024(%edi),%esi
    3f1c:	8b 97 28 10 00 00    	mov    0x1028(%edi),%edx
    3f22:	39 d6                	cmp    %edx,%esi
    3f24:	0f 85 03 09 00 00    	jne    482d <tinput_read_i+0x138d>
    3f2a:	8b 8f 20 10 00 00    	mov    0x1020(%edi),%ecx
    3f30:	39 ce                	cmp    %ecx,%esi
    3f32:	0f 84 f8 f7 ff ff    	je     3730 <tinput_read_i+0x290>
    3f38:	8d 46 01             	lea    0x1(%esi),%eax
    3f3b:	89 87 24 10 00 00    	mov    %eax,0x1024(%edi)
    3f41:	89 87 28 10 00 00    	mov    %eax,0x1028(%edi)
    3f47:	85 c0                	test   %eax,%eax
    3f49:	0f 84 e1 f7 ff ff    	je     3730 <tinput_read_i+0x290>
    3f4f:	39 c1                	cmp    %eax,%ecx
    3f51:	76 1d                	jbe    3f70 <tinput_read_i+0xad0>
    3f53:	8d 44 b7 0c          	lea    0xc(%edi,%esi,4),%eax
    3f57:	8d 54 8f 08          	lea    0x8(%edi,%ecx,4),%edx
    3f5b:	89 4d 9c             	mov    %ecx,-0x64(%ebp)
    3f5e:	66 90                	xchg   %ax,%ax
    3f60:	8b 48 04             	mov    0x4(%eax),%ecx
    3f63:	83 c0 04             	add    $0x4,%eax
    3f66:	89 48 fc             	mov    %ecx,-0x4(%eax)
    3f69:	39 c2                	cmp    %eax,%edx
    3f6b:	75 f3                	jne    3f60 <tinput_read_i+0xac0>
    3f6d:	8b 4d 9c             	mov    -0x64(%ebp),%ecx
    3f70:	49                   	dec    %ecx
    3f71:	83 ec 0c             	sub    $0xc,%esp
    3f74:	89 b7 24 10 00 00    	mov    %esi,0x1024(%edi)
    3f7a:	89 8f 20 10 00 00    	mov    %ecx,0x1020(%edi)
    3f80:	c7 44 8f 0c 00 00 00 	movl   $0x0,0xc(%edi,%ecx,4)
    3f87:	00 
    3f88:	89 b7 28 10 00 00    	mov    %esi,0x1028(%edi)
    3f8e:	68 04 10 00 00       	push   $0x1004
    3f93:	e8 e8 4d 00 00       	call   8d80 <malloc@plt>
    3f98:	83 c4 10             	add    $0x10,%esp
    3f9b:	89 45 9c             	mov    %eax,-0x64(%ebp)
    3f9e:	85 c0                	test   %eax,%eax
    3fa0:	0f 84 85 03 00 00    	je     432b <tinput_read_i+0xe8b>
    3fa6:	8b 87 28 10 00 00    	mov    0x1028(%edi),%eax
    3fac:	8b 8f 24 10 00 00    	mov    0x1024(%edi),%ecx
    3fb2:	89 c2                	mov    %eax,%edx
    3fb4:	89 45 98             	mov    %eax,-0x68(%ebp)
    3fb7:	39 c8                	cmp    %ecx,%eax
    3fb9:	73 07                	jae    3fc2 <tinput_read_i+0xb22>
    3fbb:	89 c8                	mov    %ecx,%eax
    3fbd:	89 d1                	mov    %edx,%ecx
    3fbf:	89 45 98             	mov    %eax,-0x68(%ebp)
    3fc2:	8b 87 14 10 00 00    	mov    0x1014(%edi),%eax
    3fc8:	89 4d 94             	mov    %ecx,-0x6c(%ebp)
    3fcb:	01 f0                	add    %esi,%eax
    3fcd:	31 d2                	xor    %edx,%edx
    3fcf:	51                   	push   %ecx
    3fd0:	f7 b7 18 10 00 00    	divl   0x1018(%edi)
    3fd6:	50                   	push   %eax
    3fd7:	8b 07                	mov    (%edi),%eax
    3fd9:	52                   	push   %edx
    3fda:	50                   	push   %eax
    3fdb:	e8 90 4f 00 00       	call   8f70 <console_set_pos@plt>
    3fe0:	8b 0f                	mov    (%edi),%ecx
    3fe2:	58                   	pop    %eax
    3fe3:	5a                   	pop    %edx
    3fe4:	6a 00                	push   $0x0
    3fe6:	51                   	push   %ecx
    3fe7:	e8 f4 4e 00 00       	call   8ee0 <console_set_style@plt>
    3fec:	8b 4d 94             	mov    -0x6c(%ebp),%ecx
    3fef:	83 c4 10             	add    $0x10,%esp
    3ff2:	39 ce                	cmp    %ecx,%esi
    3ff4:	0f 82 fb 0d 00 00    	jb     4df5 <tinput_read_i+0x1955>
    3ffa:	3b 75 98             	cmp    -0x68(%ebp),%esi
    3ffd:	0f 82 9a 0d 00 00    	jb     4d9d <tinput_read_i+0x18fd>
    4003:	83 ec 0c             	sub    $0xc,%esp
    4006:	8b 0f                	mov    (%edi),%ecx
    4008:	51                   	push   %ecx
    4009:	e8 32 4f 00 00       	call   8f40 <console_flush@plt>
    400e:	8b 0f                	mov    (%edi),%ecx
    4010:	58                   	pop    %eax
    4011:	5a                   	pop    %edx
    4012:	6a 00                	push   $0x0
    4014:	51                   	push   %ecx
    4015:	e8 c6 4e 00 00       	call   8ee0 <console_set_style@plt>
    401a:	8b 87 20 10 00 00    	mov    0x1020(%edi),%eax
    4020:	83 c4 10             	add    $0x10,%esp
    4023:	39 f0                	cmp    %esi,%eax
    4025:	0f 87 34 0d 00 00    	ja     4d5f <tinput_read_i+0x18bf>
    402b:	83 ec 0c             	sub    $0xc,%esp
    402e:	6a 20                	push   $0x20
    4030:	e8 1b 4c 00 00       	call   8c50 <putchar@plt>
    4035:	8b 37                	mov    (%edi),%esi
    4037:	59                   	pop    %ecx
    4038:	56                   	push   %esi
    4039:	e8 02 4f 00 00       	call   8f40 <console_flush@plt>
    403e:	58                   	pop    %eax
    403f:	8b 45 9c             	mov    -0x64(%ebp),%eax
    4042:	50                   	push   %eax
    4043:	e8 98 4f 00 00       	call   8fe0 <free@plt>
    4048:	83 c4 10             	add    $0x10,%esp
    404b:	e9 db 02 00 00       	jmp    432b <tinput_read_i+0xe8b>
    4050:	8b 87 24 10 00 00    	mov    0x1024(%edi),%eax
    4056:	3b 87 28 10 00 00    	cmp    0x1028(%edi),%eax
    405c:	74 33                	je     4091 <tinput_read_i+0xbf1>
    405e:	31 d2                	xor    %edx,%edx
    4060:	89 87 28 10 00 00    	mov    %eax,0x1028(%edi)
    4066:	89 f8                	mov    %edi,%eax
    4068:	e8 33 ef ff ff       	call   2fa0 <tinput_display_tail.constprop.12>
    406d:	8b 87 24 10 00 00    	mov    0x1024(%edi),%eax
    4073:	8b b7 14 10 00 00    	mov    0x1014(%edi),%esi
    4079:	52                   	push   %edx
    407a:	01 f0                	add    %esi,%eax
    407c:	31 d2                	xor    %edx,%edx
    407e:	f7 b7 18 10 00 00    	divl   0x1018(%edi)
    4084:	8b 0f                	mov    (%edi),%ecx
    4086:	50                   	push   %eax
    4087:	52                   	push   %edx
    4088:	51                   	push   %ecx
    4089:	e8 e2 4e 00 00       	call   8f70 <console_set_pos@plt>
    408e:	83 c4 10             	add    $0x10,%esp
    4091:	8b 87 20 10 00 00    	mov    0x1020(%edi),%eax
    4097:	8b 97 14 10 00 00    	mov    0x1014(%edi),%edx
    409d:	89 87 24 10 00 00    	mov    %eax,0x1024(%edi)
    40a3:	89 87 28 10 00 00    	mov    %eax,0x1028(%edi)
    40a9:	01 d0                	add    %edx,%eax
    40ab:	51                   	push   %ecx
    40ac:	e9 de fd ff ff       	jmp    3e8f <tinput_read_i+0x9ef>
    40b1:	8b 87 5c 10 00 00    	mov    0x105c(%edi),%eax
    40b7:	40                   	inc    %eax
    40b8:	3b 87 58 10 00 00    	cmp    0x1058(%edi),%eax
    40be:	0f 87 6c f6 ff ff    	ja     3730 <tinput_read_i+0x290>
    40c4:	ba 01 00 00 00       	mov    $0x1,%edx
    40c9:	89 f8                	mov    %edi,%eax
    40cb:	e8 a0 ed ff ff       	call   2e70 <tinput_history_seek.part.6>
    40d0:	e9 5b f6 ff ff       	jmp    3730 <tinput_read_i+0x290>
    40d5:	8b 97 24 10 00 00    	mov    0x1024(%edi),%edx
    40db:	8b 87 28 10 00 00    	mov    0x1028(%edi),%eax
    40e1:	39 c2                	cmp    %eax,%edx
    40e3:	74 39                	je     411e <tinput_read_i+0xc7e>
    40e5:	89 97 28 10 00 00    	mov    %edx,0x1028(%edi)
    40eb:	89 f8                	mov    %edi,%eax
    40ed:	31 d2                	xor    %edx,%edx
    40ef:	e8 ac ee ff ff       	call   2fa0 <tinput_display_tail.constprop.12>
    40f4:	8b 87 24 10 00 00    	mov    0x1024(%edi),%eax
    40fa:	8b b7 14 10 00 00    	mov    0x1014(%edi),%esi
    4100:	52                   	push   %edx
    4101:	01 f0                	add    %esi,%eax
    4103:	31 d2                	xor    %edx,%edx
    4105:	f7 b7 18 10 00 00    	divl   0x1018(%edi)
    410b:	8b 0f                	mov    (%edi),%ecx
    410d:	50                   	push   %eax
    410e:	52                   	push   %edx
    410f:	51                   	push   %ecx
    4110:	e8 5b 4e 00 00       	call   8f70 <console_set_pos@plt>
    4115:	8b 87 24 10 00 00    	mov    0x1024(%edi),%eax
    411b:	83 c4 10             	add    $0x10,%esp
    411e:	85 c0                	test   %eax,%eax
    4120:	0f 84 5a fd ff ff    	je     3e80 <tinput_read_i+0x9e0>
    4126:	48                   	dec    %eax
    4127:	89 87 24 10 00 00    	mov    %eax,0x1024(%edi)
    412d:	e9 4e fd ff ff       	jmp    3e80 <tinput_read_i+0x9e0>
    4132:	8b 87 5c 10 00 00    	mov    0x105c(%edi),%eax
    4138:	85 c0                	test   %eax,%eax
    413a:	0f 84 f0 f5 ff ff    	je     3730 <tinput_read_i+0x290>
    4140:	83 ca ff             	or     $0xffffffff,%edx
    4143:	89 f8                	mov    %edi,%eax
    4145:	e8 26 ed ff ff       	call   2e70 <tinput_history_seek.part.6>
    414a:	e9 e1 f5 ff ff       	jmp    3730 <tinput_read_i+0x290>
    414f:	8b 97 24 10 00 00    	mov    0x1024(%edi),%edx
    4155:	8b b7 28 10 00 00    	mov    0x1028(%edi),%esi
    415b:	39 f2                	cmp    %esi,%edx
    415d:	0f 85 52 07 00 00    	jne    48b5 <tinput_read_i+0x1415>
    4163:	85 d2                	test   %edx,%edx
    4165:	0f 84 15 09 00 00    	je     4a80 <tinput_read_i+0x15e0>
    416b:	8b 87 20 10 00 00    	mov    0x1020(%edi),%eax
    4171:	39 c2                	cmp    %eax,%edx
    4173:	73 10                	jae    4185 <tinput_read_i+0xce5>
    4175:	8d 76 00             	lea    0x0(%esi),%esi
    4178:	8b 4c b7 0c          	mov    0xc(%edi,%esi,4),%ecx
    417c:	89 4c b7 08          	mov    %ecx,0x8(%edi,%esi,4)
    4180:	46                   	inc    %esi
    4181:	39 c6                	cmp    %eax,%esi
    4183:	72 f3                	jb     4178 <tinput_read_i+0xcd8>
    4185:	48                   	dec    %eax
    4186:	8d 4a ff             	lea    -0x1(%edx),%ecx
    4189:	83 ec 0c             	sub    $0xc,%esp
    418c:	89 8f 24 10 00 00    	mov    %ecx,0x1024(%edi)
    4192:	89 87 20 10 00 00    	mov    %eax,0x1020(%edi)
    4198:	c7 44 87 0c 00 00 00 	movl   $0x0,0xc(%edi,%eax,4)
    419f:	00 
    41a0:	89 8f 28 10 00 00    	mov    %ecx,0x1028(%edi)
    41a6:	89 4d 9c             	mov    %ecx,-0x64(%ebp)
    41a9:	68 04 10 00 00       	push   $0x1004
    41ae:	e8 cd 4b 00 00       	call   8d80 <malloc@plt>
    41b3:	83 c4 10             	add    $0x10,%esp
    41b6:	89 c6                	mov    %eax,%esi
    41b8:	85 c0                	test   %eax,%eax
    41ba:	8b 4d 9c             	mov    -0x64(%ebp),%ecx
    41bd:	0f 84 68 01 00 00    	je     432b <tinput_read_i+0xe8b>
    41c3:	8b 87 28 10 00 00    	mov    0x1028(%edi),%eax
    41c9:	8b 97 24 10 00 00    	mov    0x1024(%edi),%edx
    41cf:	89 55 98             	mov    %edx,-0x68(%ebp)
    41d2:	89 45 9c             	mov    %eax,-0x64(%ebp)
    41d5:	39 d0                	cmp    %edx,%eax
    41d7:	73 0b                	jae    41e4 <tinput_read_i+0xd44>
    41d9:	89 d0                	mov    %edx,%eax
    41db:	8b 55 9c             	mov    -0x64(%ebp),%edx
    41de:	89 55 98             	mov    %edx,-0x68(%ebp)
    41e1:	89 45 9c             	mov    %eax,-0x64(%ebp)
    41e4:	89 c8                	mov    %ecx,%eax
    41e6:	89 4d 94             	mov    %ecx,-0x6c(%ebp)
    41e9:	8b 8f 14 10 00 00    	mov    0x1014(%edi),%ecx
    41ef:	52                   	push   %edx
    41f0:	01 c8                	add    %ecx,%eax
    41f2:	31 d2                	xor    %edx,%edx
    41f4:	f7 b7 18 10 00 00    	divl   0x1018(%edi)
    41fa:	8b 0f                	mov    (%edi),%ecx
    41fc:	50                   	push   %eax
    41fd:	52                   	push   %edx
    41fe:	51                   	push   %ecx
    41ff:	e8 6c 4d 00 00       	call   8f70 <console_set_pos@plt>
    4204:	8b 0f                	mov    (%edi),%ecx
    4206:	58                   	pop    %eax
    4207:	5a                   	pop    %edx
    4208:	6a 00                	push   $0x0
    420a:	51                   	push   %ecx
    420b:	e8 d0 4c 00 00       	call   8ee0 <console_set_style@plt>
    4210:	8b 4d 94             	mov    -0x6c(%ebp),%ecx
    4213:	83 c4 10             	add    $0x10,%esp
    4216:	3b 4d 98             	cmp    -0x68(%ebp),%ecx
    4219:	73 37                	jae    4252 <tinput_read_i+0xdb2>
    421b:	8b 55 98             	mov    -0x68(%ebp),%edx
    421e:	50                   	push   %eax
    421f:	8b 45 a0             	mov    -0x60(%ebp),%eax
    4222:	29 ca                	sub    %ecx,%edx
    4224:	c1 e2 02             	shl    $0x2,%edx
    4227:	8d 04 88             	lea    (%eax,%ecx,4),%eax
    422a:	52                   	push   %edx
    422b:	89 55 94             	mov    %edx,-0x6c(%ebp)
    422e:	50                   	push   %eax
    422f:	56                   	push   %esi
    4230:	e8 2b 4b 00 00       	call   8d60 <memcpy@plt>
    4235:	8b 55 94             	mov    -0x6c(%ebp),%edx
    4238:	c7 04 16 00 00 00 00 	movl   $0x0,(%esi,%edx,1)
    423f:	58                   	pop    %eax
    4240:	5a                   	pop    %edx
    4241:	56                   	push   %esi
    4242:	68 bf 85 00 00       	push   $0x85bf
    4247:	e8 64 4a 00 00       	call   8cb0 <printf@plt>
    424c:	83 c4 10             	add    $0x10,%esp
    424f:	8b 4d 98             	mov    -0x68(%ebp),%ecx
    4252:	3b 4d 9c             	cmp    -0x64(%ebp),%ecx
    4255:	73 56                	jae    42ad <tinput_read_i+0xe0d>
    4257:	83 ec 0c             	sub    $0xc,%esp
    425a:	8b 07                	mov    (%edi),%eax
    425c:	89 4d 98             	mov    %ecx,-0x68(%ebp)
    425f:	50                   	push   %eax
    4260:	e8 db 4c 00 00       	call   8f40 <console_flush@plt>
    4265:	8b 0f                	mov    (%edi),%ecx
    4267:	58                   	pop    %eax
    4268:	5a                   	pop    %edx
    4269:	6a 03                	push   $0x3
    426b:	51                   	push   %ecx
    426c:	e8 6f 4c 00 00       	call   8ee0 <console_set_style@plt>
    4271:	8b 4d 98             	mov    -0x68(%ebp),%ecx
    4274:	8b 55 9c             	mov    -0x64(%ebp),%edx
    4277:	8b 45 a0             	mov    -0x60(%ebp),%eax
    427a:	83 c4 0c             	add    $0xc,%esp
    427d:	29 ca                	sub    %ecx,%edx
    427f:	c1 e2 02             	shl    $0x2,%edx
    4282:	8d 04 88             	lea    (%eax,%ecx,4),%eax
    4285:	52                   	push   %edx
    4286:	89 55 98             	mov    %edx,-0x68(%ebp)
    4289:	50                   	push   %eax
    428a:	56                   	push   %esi
    428b:	e8 d0 4a 00 00       	call   8d60 <memcpy@plt>
    4290:	8b 55 98             	mov    -0x68(%ebp),%edx
    4293:	c7 04 16 00 00 00 00 	movl   $0x0,(%esi,%edx,1)
    429a:	58                   	pop    %eax
    429b:	5a                   	pop    %edx
    429c:	56                   	push   %esi
    429d:	68 bf 85 00 00       	push   $0x85bf
    42a2:	e8 09 4a 00 00       	call   8cb0 <printf@plt>
    42a7:	83 c4 10             	add    $0x10,%esp
    42aa:	8b 4d 9c             	mov    -0x64(%ebp),%ecx
    42ad:	83 ec 0c             	sub    $0xc,%esp
    42b0:	8b 07                	mov    (%edi),%eax
    42b2:	89 4d 9c             	mov    %ecx,-0x64(%ebp)
    42b5:	50                   	push   %eax
    42b6:	e8 85 4c 00 00       	call   8f40 <console_flush@plt>
    42bb:	8b 0f                	mov    (%edi),%ecx
    42bd:	58                   	pop    %eax
    42be:	5a                   	pop    %edx
    42bf:	6a 00                	push   $0x0
    42c1:	51                   	push   %ecx
    42c2:	e8 19 4c 00 00       	call   8ee0 <console_set_style@plt>
    42c7:	8b 87 20 10 00 00    	mov    0x1020(%edi),%eax
    42cd:	8b 4d 9c             	mov    -0x64(%ebp),%ecx
    42d0:	83 c4 10             	add    $0x10,%esp
    42d3:	39 c8                	cmp    %ecx,%eax
    42d5:	76 36                	jbe    430d <tinput_read_i+0xe6d>
    42d7:	29 c8                	sub    %ecx,%eax
    42d9:	52                   	push   %edx
    42da:	c1 e0 02             	shl    $0x2,%eax
    42dd:	50                   	push   %eax
    42de:	8b 45 a0             	mov    -0x60(%ebp),%eax
    42e1:	8d 04 88             	lea    (%eax,%ecx,4),%eax
    42e4:	50                   	push   %eax
    42e5:	56                   	push   %esi
    42e6:	e8 75 4a 00 00       	call   8d60 <memcpy@plt>
    42eb:	8b 87 20 10 00 00    	mov    0x1020(%edi),%eax
    42f1:	8b 4d 9c             	mov    -0x64(%ebp),%ecx
    42f4:	29 c8                	sub    %ecx,%eax
    42f6:	c7 04 86 00 00 00 00 	movl   $0x0,(%esi,%eax,4)
    42fd:	59                   	pop    %ecx
    42fe:	58                   	pop    %eax
    42ff:	56                   	push   %esi
    4300:	68 bf 85 00 00       	push   $0x85bf
    4305:	e8 a6 49 00 00       	call   8cb0 <printf@plt>
    430a:	83 c4 10             	add    $0x10,%esp
    430d:	83 ec 0c             	sub    $0xc,%esp
    4310:	6a 20                	push   $0x20
    4312:	e8 39 49 00 00       	call   8c50 <putchar@plt>
    4317:	58                   	pop    %eax
    4318:	8b 07                	mov    (%edi),%eax
    431a:	50                   	push   %eax
    431b:	e8 20 4c 00 00       	call   8f40 <console_flush@plt>
    4320:	89 34 24             	mov    %esi,(%esp)
    4323:	e8 b8 4c 00 00       	call   8fe0 <free@plt>
    4328:	83 c4 10             	add    $0x10,%esp
    432b:	8b 87 24 10 00 00    	mov    0x1024(%edi),%eax
    4331:	8b b7 14 10 00 00    	mov    0x1014(%edi),%esi
    4337:	01 f0                	add    %esi,%eax
    4339:	52                   	push   %edx
    433a:	e9 50 fb ff ff       	jmp    3e8f <tinput_read_i+0x9ef>
    433f:	83 fa 54             	cmp    $0x54,%edx
    4342:	0f 85 e0 f3 ff ff    	jne    3728 <tinput_read_i+0x288>
    4348:	8b 87 24 10 00 00    	mov    0x1024(%edi),%eax
    434e:	8b 97 18 10 00 00    	mov    0x1018(%edi),%edx
    4354:	39 c2                	cmp    %eax,%edx
    4356:	0f 87 48 f6 ff ff    	ja     39a4 <tinput_read_i+0x504>
    435c:	29 d0                	sub    %edx,%eax
    435e:	89 87 24 10 00 00    	mov    %eax,0x1024(%edi)
    4364:	e9 3b f6 ff ff       	jmp    39a4 <tinput_read_i+0x504>
    4369:	8b 87 20 10 00 00    	mov    0x1020(%edi),%eax
    436f:	89 87 24 10 00 00    	mov    %eax,0x1024(%edi)
    4375:	e9 8d f5 ff ff       	jmp    3907 <tinput_read_i+0x467>
    437a:	c7 87 24 10 00 00 00 	movl   $0x0,0x1024(%edi)
    4381:	00 00 00 
    4384:	e9 7e f5 ff ff       	jmp    3907 <tinput_read_i+0x467>
    4389:	8b 87 24 10 00 00    	mov    0x1024(%edi),%eax
    438f:	8b 97 18 10 00 00    	mov    0x1018(%edi),%edx
    4395:	01 d0                	add    %edx,%eax
    4397:	3b 87 20 10 00 00    	cmp    0x1020(%edi),%eax
    439d:	0f 87 64 f5 ff ff    	ja     3907 <tinput_read_i+0x467>
    43a3:	eb ca                	jmp    436f <tinput_read_i+0xecf>
    43a5:	8b 87 24 10 00 00    	mov    0x1024(%edi),%eax
    43ab:	85 c0                	test   %eax,%eax
    43ad:	0f 84 54 f5 ff ff    	je     3907 <tinput_read_i+0x467>
    43b3:	48                   	dec    %eax
    43b4:	89 87 24 10 00 00    	mov    %eax,0x1024(%edi)
    43ba:	e9 48 f5 ff ff       	jmp    3907 <tinput_read_i+0x467>
    43bf:	8b 87 24 10 00 00    	mov    0x1024(%edi),%eax
    43c5:	39 87 20 10 00 00    	cmp    %eax,0x1020(%edi)
    43cb:	0f 86 36 f5 ff ff    	jbe    3907 <tinput_read_i+0x467>
    43d1:	40                   	inc    %eax
    43d2:	89 87 24 10 00 00    	mov    %eax,0x1024(%edi)
    43d8:	e9 2a f5 ff ff       	jmp    3907 <tinput_read_i+0x467>
    43dd:	c6 87 60 10 00 00 01 	movb   $0x1,0x1060(%edi)
    43e4:	c6 87 61 10 00 00 01 	movb   $0x1,0x1061(%edi)
    43eb:	e9 24 f3 ff ff       	jmp    3714 <tinput_read_i+0x274>
    43f0:	8b b7 28 10 00 00    	mov    0x1028(%edi),%esi
    43f6:	8b 97 24 10 00 00    	mov    0x1024(%edi),%edx
    43fc:	39 d6                	cmp    %edx,%esi
    43fe:	0f 82 0f 05 00 00    	jb     4913 <tinput_read_i+0x1473>
    4404:	0f 85 03 05 00 00    	jne    490d <tinput_read_i+0x146d>
    440a:	83 ec 0c             	sub    $0xc,%esp
    440d:	8d 45 c0             	lea    -0x40(%ebp),%eax
    4410:	50                   	push   %eax
    4411:	e8 7a 4a 00 00       	call   8e90 <clipboard_get_str@plt>
    4416:	83 c4 10             	add    $0x10,%esp
    4419:	85 c0                	test   %eax,%eax
    441b:	0f 85 93 00 00 00    	jne    44b4 <tinput_read_i+0x1014>
    4421:	8b 55 c0             	mov    -0x40(%ebp),%edx
    4424:	85 d2                	test   %edx,%edx
    4426:	0f 84 88 00 00 00    	je     44b4 <tinput_read_i+0x1014>
    442c:	89 f8                	mov    %edi,%eax
    442e:	e8 0d ed ff ff       	call   3140 <tinput_insert_string>
    4433:	83 ec 0c             	sub    $0xc,%esp
    4436:	8b 4d c0             	mov    -0x40(%ebp),%ecx
    4439:	51                   	push   %ecx
    443a:	e8 a1 4b 00 00       	call   8fe0 <free@plt>
    443f:	8b 45 e0             	mov    -0x20(%ebp),%eax
    4442:	83 c4 10             	add    $0x10,%esp
    4445:	e9 ca f2 ff ff       	jmp    3714 <tinput_read_i+0x274>
    444a:	8b 97 28 10 00 00    	mov    0x1028(%edi),%edx
    4450:	8b 87 24 10 00 00    	mov    0x1024(%edi),%eax
    4456:	39 c2                	cmp    %eax,%edx
    4458:	73 06                	jae    4460 <tinput_read_i+0xfc0>
    445a:	89 c1                	mov    %eax,%ecx
    445c:	89 d0                	mov    %edx,%eax
    445e:	89 ca                	mov    %ecx,%edx
    4460:	39 97 20 10 00 00    	cmp    %edx,0x1020(%edi)
    4466:	0f 86 35 05 00 00    	jbe    49a1 <tinput_read_i+0x1501>
    446c:	8d 34 97             	lea    (%edi,%edx,4),%esi
    446f:	83 ec 0c             	sub    $0xc,%esp
    4472:	8b 4e 0c             	mov    0xc(%esi),%ecx
    4475:	c7 46 0c 00 00 00 00 	movl   $0x0,0xc(%esi)
    447c:	89 4d 9c             	mov    %ecx,-0x64(%ebp)
    447f:	8b 4d a0             	mov    -0x60(%ebp),%ecx
    4482:	8d 04 81             	lea    (%ecx,%eax,4),%eax
    4485:	50                   	push   %eax
    4486:	e8 85 4a 00 00       	call   8f10 <wstr_to_astr@plt>
    448b:	8b 4d 9c             	mov    -0x64(%ebp),%ecx
    448e:	89 c2                	mov    %eax,%edx
    4490:	89 4e 0c             	mov    %ecx,0xc(%esi)
    4493:	83 c4 10             	add    $0x10,%esp
    4496:	85 d2                	test   %edx,%edx
    4498:	74 1a                	je     44b4 <tinput_read_i+0x1014>
    449a:	83 ec 0c             	sub    $0xc,%esp
    449d:	89 55 9c             	mov    %edx,-0x64(%ebp)
    44a0:	52                   	push   %edx
    44a1:	e8 7a 49 00 00       	call   8e20 <clipboard_put_str@plt>
    44a6:	83 c4 10             	add    $0x10,%esp
    44a9:	8b 55 9c             	mov    -0x64(%ebp),%edx
    44ac:	85 c0                	test   %eax,%eax
    44ae:	0f 84 9a 05 00 00    	je     4a4e <tinput_read_i+0x15ae>
    44b4:	8b 45 e0             	mov    -0x20(%ebp),%eax
    44b7:	e9 58 f2 ff ff       	jmp    3714 <tinput_read_i+0x274>
    44bc:	8b 97 28 10 00 00    	mov    0x1028(%edi),%edx
    44c2:	8b 87 24 10 00 00    	mov    0x1024(%edi),%eax
    44c8:	39 c2                	cmp    %eax,%edx
    44ca:	73 06                	jae    44d2 <tinput_read_i+0x1032>
    44cc:	89 c1                	mov    %eax,%ecx
    44ce:	89 d0                	mov    %edx,%eax
    44d0:	89 ca                	mov    %ecx,%edx
    44d2:	39 97 20 10 00 00    	cmp    %edx,0x1020(%edi)
    44d8:	0f 86 57 05 00 00    	jbe    4a35 <tinput_read_i+0x1595>
    44de:	8d 34 97             	lea    (%edi,%edx,4),%esi
    44e1:	83 ec 0c             	sub    $0xc,%esp
    44e4:	8b 4e 0c             	mov    0xc(%esi),%ecx
    44e7:	c7 46 0c 00 00 00 00 	movl   $0x0,0xc(%esi)
    44ee:	89 4d 9c             	mov    %ecx,-0x64(%ebp)
    44f1:	8b 4d a0             	mov    -0x60(%ebp),%ecx
    44f4:	8d 04 81             	lea    (%ecx,%eax,4),%eax
    44f7:	50                   	push   %eax
    44f8:	e8 13 4a 00 00       	call   8f10 <wstr_to_astr@plt>
    44fd:	8b 4d 9c             	mov    -0x64(%ebp),%ecx
    4500:	89 c2                	mov    %eax,%edx
    4502:	89 4e 0c             	mov    %ecx,0xc(%esi)
    4505:	83 c4 10             	add    $0x10,%esp
    4508:	85 d2                	test   %edx,%edx
    450a:	74 22                	je     452e <tinput_read_i+0x108e>
    450c:	83 ec 0c             	sub    $0xc,%esp
    450f:	89 55 9c             	mov    %edx,-0x64(%ebp)
    4512:	52                   	push   %edx
    4513:	e8 08 49 00 00       	call   8e20 <clipboard_put_str@plt>
    4518:	83 c4 10             	add    $0x10,%esp
    451b:	8b 55 9c             	mov    -0x64(%ebp),%edx
    451e:	85 c0                	test   %eax,%eax
    4520:	75 0c                	jne    452e <tinput_read_i+0x108e>
    4522:	83 ec 0c             	sub    $0xc,%esp
    4525:	52                   	push   %edx
    4526:	e8 b5 4a 00 00       	call   8fe0 <free@plt>
    452b:	83 c4 10             	add    $0x10,%esp
    452e:	8b b7 28 10 00 00    	mov    0x1028(%edi),%esi
    4534:	8b 97 24 10 00 00    	mov    0x1024(%edi),%edx
    453a:	39 d6                	cmp    %edx,%esi
    453c:	72 0c                	jb     454a <tinput_read_i+0x10aa>
    453e:	0f 84 70 ff ff ff    	je     44b4 <tinput_read_i+0x1014>
    4544:	89 f0                	mov    %esi,%eax
    4546:	89 d6                	mov    %edx,%esi
    4548:	89 c2                	mov    %eax,%edx
    454a:	50                   	push   %eax
    454b:	8b 4d a0             	mov    -0x60(%ebp),%ecx
    454e:	8b 87 20 10 00 00    	mov    0x1020(%edi),%eax
    4554:	89 55 9c             	mov    %edx,-0x64(%ebp)
    4557:	29 d0                	sub    %edx,%eax
    4559:	c1 e0 02             	shl    $0x2,%eax
    455c:	50                   	push   %eax
    455d:	8d 04 91             	lea    (%ecx,%edx,4),%eax
    4560:	50                   	push   %eax
    4561:	8d 04 b1             	lea    (%ecx,%esi,4),%eax
    4564:	50                   	push   %eax
    4565:	e8 66 47 00 00       	call   8cd0 <memmove@plt>
    456a:	8b 87 20 10 00 00    	mov    0x1020(%edi),%eax
    4570:	8b 55 9c             	mov    -0x64(%ebp),%edx
    4573:	01 f0                	add    %esi,%eax
    4575:	89 d1                	mov    %edx,%ecx
    4577:	29 d0                	sub    %edx,%eax
    4579:	89 b7 28 10 00 00    	mov    %esi,0x1028(%edi)
    457f:	89 87 20 10 00 00    	mov    %eax,0x1020(%edi)
    4585:	89 b7 24 10 00 00    	mov    %esi,0x1024(%edi)
    458b:	89 f2                	mov    %esi,%edx
    458d:	c7 44 87 0c 00 00 00 	movl   $0x0,0xc(%edi,%eax,4)
    4594:	00 
    4595:	29 f1                	sub    %esi,%ecx
    4597:	89 f8                	mov    %edi,%eax
    4599:	e8 f2 e6 ff ff       	call   2c90 <tinput_display_tail>
    459e:	8b 87 24 10 00 00    	mov    0x1024(%edi),%eax
    45a4:	8b 97 14 10 00 00    	mov    0x1014(%edi),%edx
    45aa:	83 c4 0c             	add    $0xc,%esp
    45ad:	01 d0                	add    %edx,%eax
    45af:	31 d2                	xor    %edx,%edx
    45b1:	f7 b7 18 10 00 00    	divl   0x1018(%edi)
    45b7:	8b 0f                	mov    (%edi),%ecx
    45b9:	50                   	push   %eax
    45ba:	52                   	push   %edx
    45bb:	51                   	push   %ecx
    45bc:	e8 af 49 00 00       	call   8f70 <console_set_pos@plt>
    45c1:	8b 45 e0             	mov    -0x20(%ebp),%eax
    45c4:	83 c4 10             	add    $0x10,%esp
    45c7:	e9 48 f1 ff ff       	jmp    3714 <tinput_read_i+0x274>
    45cc:	8b 87 20 10 00 00    	mov    0x1020(%edi),%eax
    45d2:	c7 87 28 10 00 00 00 	movl   $0x0,0x1028(%edi)
    45d9:	00 00 00 
    45dc:	89 87 24 10 00 00    	mov    %eax,0x1024(%edi)
    45e2:	31 d2                	xor    %edx,%edx
    45e4:	89 f8                	mov    %edi,%eax
    45e6:	e8 b5 e9 ff ff       	call   2fa0 <tinput_display_tail.constprop.12>
    45eb:	8b 87 24 10 00 00    	mov    0x1024(%edi),%eax
    45f1:	8b b7 14 10 00 00    	mov    0x1014(%edi),%esi
    45f7:	52                   	push   %edx
    45f8:	01 f0                	add    %esi,%eax
    45fa:	eb b3                	jmp    45af <tinput_read_i+0x110f>
    45fc:	8b 97 24 10 00 00    	mov    0x1024(%edi),%edx
    4602:	8b 87 28 10 00 00    	mov    0x1028(%edi),%eax
    4608:	39 c2                	cmp    %eax,%edx
    460a:	74 39                	je     4645 <tinput_read_i+0x11a5>
    460c:	89 97 28 10 00 00    	mov    %edx,0x1028(%edi)
    4612:	89 f8                	mov    %edi,%eax
    4614:	31 d2                	xor    %edx,%edx
    4616:	e8 85 e9 ff ff       	call   2fa0 <tinput_display_tail.constprop.12>
    461b:	8b 97 14 10 00 00    	mov    0x1014(%edi),%edx
    4621:	8b 87 24 10 00 00    	mov    0x1024(%edi),%eax
    4627:	51                   	push   %ecx
    4628:	01 d0                	add    %edx,%eax
    462a:	31 d2                	xor    %edx,%edx
    462c:	f7 b7 18 10 00 00    	divl   0x1018(%edi)
    4632:	8b 37                	mov    (%edi),%esi
    4634:	50                   	push   %eax
    4635:	52                   	push   %edx
    4636:	56                   	push   %esi
    4637:	e8 34 49 00 00       	call   8f70 <console_set_pos@plt>
    463c:	8b 87 24 10 00 00    	mov    0x1024(%edi),%eax
    4642:	83 c4 10             	add    $0x10,%esp
    4645:	8b 97 20 10 00 00    	mov    0x1020(%edi),%edx
    464b:	39 c2                	cmp    %eax,%edx
    464d:	0f 84 61 fe ff ff    	je     44b4 <tinput_read_i+0x1014>
    4653:	40                   	inc    %eax
    4654:	39 c2                	cmp    %eax,%edx
    4656:	0f 84 4e 02 00 00    	je     48aa <tinput_read_i+0x140a>
    465c:	83 7c 87 08 20       	cmpl   $0x20,0x8(%edi,%eax,4)
    4661:	75 f0                	jne    4653 <tinput_read_i+0x11b3>
    4663:	83 7c 87 0c 20       	cmpl   $0x20,0xc(%edi,%eax,4)
    4668:	74 e9                	je     4653 <tinput_read_i+0x11b3>
    466a:	89 87 24 10 00 00    	mov    %eax,0x1024(%edi)
    4670:	89 c2                	mov    %eax,%edx
    4672:	89 97 28 10 00 00    	mov    %edx,0x1028(%edi)
    4678:	89 d0                	mov    %edx,%eax
    467a:	e9 72 ff ff ff       	jmp    45f1 <tinput_read_i+0x1151>
    467f:	8b 97 24 10 00 00    	mov    0x1024(%edi),%edx
    4685:	8b 87 28 10 00 00    	mov    0x1028(%edi),%eax
    468b:	39 c2                	cmp    %eax,%edx
    468d:	74 39                	je     46c8 <tinput_read_i+0x1228>
    468f:	89 97 28 10 00 00    	mov    %edx,0x1028(%edi)
    4695:	89 f8                	mov    %edi,%eax
    4697:	31 d2                	xor    %edx,%edx
    4699:	e8 02 e9 ff ff       	call   2fa0 <tinput_display_tail.constprop.12>
    469e:	8b 87 24 10 00 00    	mov    0x1024(%edi),%eax
    46a4:	8b 8f 14 10 00 00    	mov    0x1014(%edi),%ecx
    46aa:	31 d2                	xor    %edx,%edx
    46ac:	56                   	push   %esi
    46ad:	01 c8                	add    %ecx,%eax
    46af:	f7 b7 18 10 00 00    	divl   0x1018(%edi)
    46b5:	50                   	push   %eax
    46b6:	8b 07                	mov    (%edi),%eax
    46b8:	52                   	push   %edx
    46b9:	50                   	push   %eax
    46ba:	e8 b1 48 00 00       	call   8f70 <console_set_pos@plt>
    46bf:	8b 87 24 10 00 00    	mov    0x1024(%edi),%eax
    46c5:	83 c4 10             	add    $0x10,%esp
    46c8:	8b 8f 18 10 00 00    	mov    0x1018(%edi),%ecx
    46ce:	8d 14 01             	lea    (%ecx,%eax,1),%edx
    46d1:	3b 97 20 10 00 00    	cmp    0x1020(%edi),%edx
    46d7:	77 08                	ja     46e1 <tinput_read_i+0x1241>
    46d9:	89 97 24 10 00 00    	mov    %edx,0x1024(%edi)
    46df:	89 d0                	mov    %edx,%eax
    46e1:	8b b7 14 10 00 00    	mov    0x1014(%edi),%esi
    46e7:	89 87 28 10 00 00    	mov    %eax,0x1028(%edi)
    46ed:	01 f0                	add    %esi,%eax
    46ef:	52                   	push   %edx
    46f0:	31 d2                	xor    %edx,%edx
    46f2:	f7 f1                	div    %ecx
    46f4:	e9 be fe ff ff       	jmp    45b7 <tinput_read_i+0x1117>
    46f9:	8b 97 24 10 00 00    	mov    0x1024(%edi),%edx
    46ff:	8b 87 28 10 00 00    	mov    0x1028(%edi),%eax
    4705:	39 c2                	cmp    %eax,%edx
    4707:	74 39                	je     4742 <tinput_read_i+0x12a2>
    4709:	89 97 28 10 00 00    	mov    %edx,0x1028(%edi)
    470f:	89 f8                	mov    %edi,%eax
    4711:	31 d2                	xor    %edx,%edx
    4713:	e8 88 e8 ff ff       	call   2fa0 <tinput_display_tail.constprop.12>
    4718:	8b 97 14 10 00 00    	mov    0x1014(%edi),%edx
    471e:	8b 87 24 10 00 00    	mov    0x1024(%edi),%eax
    4724:	51                   	push   %ecx
    4725:	01 d0                	add    %edx,%eax
    4727:	31 d2                	xor    %edx,%edx
    4729:	f7 b7 18 10 00 00    	divl   0x1018(%edi)
    472f:	8b 37                	mov    (%edi),%esi
    4731:	50                   	push   %eax
    4732:	52                   	push   %edx
    4733:	56                   	push   %esi
    4734:	e8 37 48 00 00       	call   8f70 <console_set_pos@plt>
    4739:	8b 87 24 10 00 00    	mov    0x1024(%edi),%eax
    473f:	83 c4 10             	add    $0x10,%esp
    4742:	85 c0                	test   %eax,%eax
    4744:	0f 84 6a fd ff ff    	je     44b4 <tinput_read_i+0x1014>
    474a:	48                   	dec    %eax
    474b:	0f 84 41 02 00 00    	je     4992 <tinput_read_i+0x14f2>
    4751:	83 7c 87 08 20       	cmpl   $0x20,0x8(%edi,%eax,4)
    4756:	75 f2                	jne    474a <tinput_read_i+0x12aa>
    4758:	83 7c 87 0c 20       	cmpl   $0x20,0xc(%edi,%eax,4)
    475d:	74 eb                	je     474a <tinput_read_i+0x12aa>
    475f:	89 87 24 10 00 00    	mov    %eax,0x1024(%edi)
    4765:	89 87 28 10 00 00    	mov    %eax,0x1028(%edi)
    476b:	e9 81 fe ff ff       	jmp    45f1 <tinput_read_i+0x1151>
    4770:	8b 97 24 10 00 00    	mov    0x1024(%edi),%edx
    4776:	8b 87 28 10 00 00    	mov    0x1028(%edi),%eax
    477c:	39 c2                	cmp    %eax,%edx
    477e:	74 39                	je     47b9 <tinput_read_i+0x1319>
    4780:	89 97 28 10 00 00    	mov    %edx,0x1028(%edi)
    4786:	89 f8                	mov    %edi,%eax
    4788:	31 d2                	xor    %edx,%edx
    478a:	e8 11 e8 ff ff       	call   2fa0 <tinput_display_tail.constprop.12>
    478f:	8b 97 14 10 00 00    	mov    0x1014(%edi),%edx
    4795:	8b 87 24 10 00 00    	mov    0x1024(%edi),%eax
    479b:	51                   	push   %ecx
    479c:	01 d0                	add    %edx,%eax
    479e:	31 d2                	xor    %edx,%edx
    47a0:	f7 b7 18 10 00 00    	divl   0x1018(%edi)
    47a6:	8b 37                	mov    (%edi),%esi
    47a8:	50                   	push   %eax
    47a9:	52                   	push   %edx
    47aa:	56                   	push   %esi
    47ab:	e8 c0 47 00 00       	call   8f70 <console_set_pos@plt>
    47b0:	8b 87 24 10 00 00    	mov    0x1024(%edi),%eax
    47b6:	83 c4 10             	add    $0x10,%esp
    47b9:	8b 8f 18 10 00 00    	mov    0x1018(%edi),%ecx
    47bf:	39 c1                	cmp    %eax,%ecx
    47c1:	0f 87 1a ff ff ff    	ja     46e1 <tinput_read_i+0x1241>
    47c7:	29 c8                	sub    %ecx,%eax
    47c9:	89 87 24 10 00 00    	mov    %eax,0x1024(%edi)
    47cf:	e9 0d ff ff ff       	jmp    46e1 <tinput_read_i+0x1241>
    47d4:	c7 45 a4 ff ff ff ff 	movl   $0xffffffff,-0x5c(%ebp)
    47db:	e9 e7 f0 ff ff       	jmp    38c7 <tinput_read_i+0x427>
    47e0:	8b 87 24 10 00 00    	mov    0x1024(%edi),%eax
    47e6:	8b b7 18 10 00 00    	mov    0x1018(%edi),%esi
    47ec:	01 f0                	add    %esi,%eax
    47ee:	3b 87 20 10 00 00    	cmp    0x1020(%edi),%eax
    47f4:	0f 87 aa f1 ff ff    	ja     39a4 <tinput_read_i+0x504>
    47fa:	89 87 24 10 00 00    	mov    %eax,0x1024(%edi)
    4800:	e9 9f f1 ff ff       	jmp    39a4 <tinput_read_i+0x504>
    4805:	8b 97 24 10 00 00    	mov    0x1024(%edi),%edx
    480b:	85 d2                	test   %edx,%edx
    480d:	0f 84 4f 02 00 00    	je     4a62 <tinput_read_i+0x15c2>
    4813:	4a                   	dec    %edx
    4814:	0f 84 0c 02 00 00    	je     4a26 <tinput_read_i+0x1586>
    481a:	83 7c 97 08 20       	cmpl   $0x20,0x8(%edi,%edx,4)
    481f:	75 f2                	jne    4813 <tinput_read_i+0x1373>
    4821:	83 7c 97 0c 20       	cmpl   $0x20,0xc(%edi,%edx,4)
    4826:	74 eb                	je     4813 <tinput_read_i+0x1373>
    4828:	e9 71 f1 ff ff       	jmp    399e <tinput_read_i+0x4fe>
    482d:	76 06                	jbe    4835 <tinput_read_i+0x1395>
    482f:	89 f0                	mov    %esi,%eax
    4831:	89 d6                	mov    %edx,%esi
    4833:	89 c2                	mov    %eax,%edx
    4835:	51                   	push   %ecx
    4836:	8b 4d a0             	mov    -0x60(%ebp),%ecx
    4839:	8b 87 20 10 00 00    	mov    0x1020(%edi),%eax
    483f:	89 55 9c             	mov    %edx,-0x64(%ebp)
    4842:	29 d0                	sub    %edx,%eax
    4844:	c1 e0 02             	shl    $0x2,%eax
    4847:	50                   	push   %eax
    4848:	8d 04 91             	lea    (%ecx,%edx,4),%eax
    484b:	50                   	push   %eax
    484c:	8d 04 b1             	lea    (%ecx,%esi,4),%eax
    484f:	50                   	push   %eax
    4850:	e8 7b 44 00 00       	call   8cd0 <memmove@plt>
    4855:	8b 87 20 10 00 00    	mov    0x1020(%edi),%eax
    485b:	8b 55 9c             	mov    -0x64(%ebp),%edx
    485e:	01 f0                	add    %esi,%eax
    4860:	89 d1                	mov    %edx,%ecx
    4862:	29 d0                	sub    %edx,%eax
    4864:	89 b7 28 10 00 00    	mov    %esi,0x1028(%edi)
    486a:	89 b7 24 10 00 00    	mov    %esi,0x1024(%edi)
    4870:	89 87 20 10 00 00    	mov    %eax,0x1020(%edi)
    4876:	29 f1                	sub    %esi,%ecx
    4878:	c7 44 87 0c 00 00 00 	movl   $0x0,0xc(%edi,%eax,4)
    487f:	00 
    4880:	89 f2                	mov    %esi,%edx
    4882:	89 f8                	mov    %edi,%eax
    4884:	e8 07 e4 ff ff       	call   2c90 <tinput_display_tail>
    4889:	8b 87 24 10 00 00    	mov    0x1024(%edi),%eax
    488f:	8b 97 14 10 00 00    	mov    0x1014(%edi),%edx
    4895:	83 c4 0c             	add    $0xc,%esp
    4898:	01 d0                	add    %edx,%eax
    489a:	e9 f0 f5 ff ff       	jmp    3e8f <tinput_read_i+0x9ef>
    489f:	89 8f 24 10 00 00    	mov    %ecx,0x1024(%edi)
    48a5:	e9 fa f0 ff ff       	jmp    39a4 <tinput_read_i+0x504>
    48aa:	89 97 24 10 00 00    	mov    %edx,0x1024(%edi)
    48b0:	e9 bd fd ff ff       	jmp    4672 <tinput_read_i+0x11d2>
    48b5:	76 06                	jbe    48bd <tinput_read_i+0x141d>
    48b7:	89 d0                	mov    %edx,%eax
    48b9:	89 f2                	mov    %esi,%edx
    48bb:	89 c6                	mov    %eax,%esi
    48bd:	50                   	push   %eax
    48be:	8b 4d a0             	mov    -0x60(%ebp),%ecx
    48c1:	8b 87 20 10 00 00    	mov    0x1020(%edi),%eax
    48c7:	89 55 9c             	mov    %edx,-0x64(%ebp)
    48ca:	29 f0                	sub    %esi,%eax
    48cc:	c1 e0 02             	shl    $0x2,%eax
    48cf:	50                   	push   %eax
    48d0:	8d 04 b1             	lea    (%ecx,%esi,4),%eax
    48d3:	50                   	push   %eax
    48d4:	8d 04 91             	lea    (%ecx,%edx,4),%eax
    48d7:	50                   	push   %eax
    48d8:	e8 f3 43 00 00       	call   8cd0 <memmove@plt>
    48dd:	8b 55 9c             	mov    -0x64(%ebp),%edx
    48e0:	8b 87 20 10 00 00    	mov    0x1020(%edi),%eax
    48e6:	01 d0                	add    %edx,%eax
    48e8:	89 97 28 10 00 00    	mov    %edx,0x1028(%edi)
    48ee:	29 f0                	sub    %esi,%eax
    48f0:	29 d6                	sub    %edx,%esi
    48f2:	89 97 24 10 00 00    	mov    %edx,0x1024(%edi)
    48f8:	89 87 20 10 00 00    	mov    %eax,0x1020(%edi)
    48fe:	89 f1                	mov    %esi,%ecx
    4900:	c7 44 87 0c 00 00 00 	movl   $0x0,0xc(%edi,%eax,4)
    4907:	00 
    4908:	e9 75 ff ff ff       	jmp    4882 <tinput_read_i+0x13e2>
    490d:	89 f0                	mov    %esi,%eax
    490f:	89 d6                	mov    %edx,%esi
    4911:	89 c2                	mov    %eax,%edx
    4913:	50                   	push   %eax
    4914:	8b 4d a0             	mov    -0x60(%ebp),%ecx
    4917:	8b 87 20 10 00 00    	mov    0x1020(%edi),%eax
    491d:	89 55 9c             	mov    %edx,-0x64(%ebp)
    4920:	29 d0                	sub    %edx,%eax
    4922:	c1 e0 02             	shl    $0x2,%eax
    4925:	50                   	push   %eax
    4926:	8d 04 91             	lea    (%ecx,%edx,4),%eax
    4929:	50                   	push   %eax
    492a:	8d 04 b1             	lea    (%ecx,%esi,4),%eax
    492d:	50                   	push   %eax
    492e:	e8 9d 43 00 00       	call   8cd0 <memmove@plt>
    4933:	8b 87 20 10 00 00    	mov    0x1020(%edi),%eax
    4939:	8b 55 9c             	mov    -0x64(%ebp),%edx
    493c:	01 f0                	add    %esi,%eax
    493e:	89 d1                	mov    %edx,%ecx
    4940:	29 d0                	sub    %edx,%eax
    4942:	89 b7 28 10 00 00    	mov    %esi,0x1028(%edi)
    4948:	89 87 20 10 00 00    	mov    %eax,0x1020(%edi)
    494e:	89 b7 24 10 00 00    	mov    %esi,0x1024(%edi)
    4954:	29 f1                	sub    %esi,%ecx
    4956:	c7 44 87 0c 00 00 00 	movl   $0x0,0xc(%edi,%eax,4)
    495d:	00 
    495e:	89 f2                	mov    %esi,%edx
    4960:	89 f8                	mov    %edi,%eax
    4962:	e8 29 e3 ff ff       	call   2c90 <tinput_display_tail>
    4967:	8b 97 14 10 00 00    	mov    0x1014(%edi),%edx
    496d:	8b 87 24 10 00 00    	mov    0x1024(%edi),%eax
    4973:	83 c4 0c             	add    $0xc,%esp
    4976:	01 d0                	add    %edx,%eax
    4978:	31 d2                	xor    %edx,%edx
    497a:	f7 b7 18 10 00 00    	divl   0x1018(%edi)
    4980:	8b 0f                	mov    (%edi),%ecx
    4982:	50                   	push   %eax
    4983:	52                   	push   %edx
    4984:	51                   	push   %ecx
    4985:	e8 e6 45 00 00       	call   8f70 <console_set_pos@plt>
    498a:	83 c4 10             	add    $0x10,%esp
    498d:	e9 78 fa ff ff       	jmp    440a <tinput_read_i+0xf6a>
    4992:	c7 87 24 10 00 00 00 	movl   $0x0,0x1024(%edi)
    4999:	00 00 00 
    499c:	e9 c4 fd ff ff       	jmp    4765 <tinput_read_i+0x12c5>
    49a1:	8b 75 a0             	mov    -0x60(%ebp),%esi
    49a4:	83 ec 0c             	sub    $0xc,%esp
    49a7:	8d 04 86             	lea    (%esi,%eax,4),%eax
    49aa:	50                   	push   %eax
    49ab:	e8 60 45 00 00       	call   8f10 <wstr_to_astr@plt>
    49b0:	83 c4 10             	add    $0x10,%esp
    49b3:	89 c2                	mov    %eax,%edx
    49b5:	e9 dc fa ff ff       	jmp    4496 <tinput_read_i+0xff6>
    49ba:	8b 45 98             	mov    -0x68(%ebp),%eax
    49bd:	8b 75 84             	mov    -0x7c(%ebp),%esi
    49c0:	c7 45 88 00 00 00 00 	movl   $0x0,-0x78(%ebp)
    49c7:	8b 3c b0             	mov    (%eax,%esi,4),%edi
    49ca:	8b 00                	mov    (%eax),%eax
    49cc:	89 45 94             	mov    %eax,-0x6c(%ebp)
    49cf:	c7 45 bc 00 00 00 00 	movl   $0x0,-0x44(%ebp)
    49d6:	c7 45 c0 00 00 00 00 	movl   $0x0,-0x40(%ebp)
    49dd:	eb 10                	jmp    49ef <tinput_read_i+0x154f>
    49df:	90                   	nop
    49e0:	39 c6                	cmp    %eax,%esi
    49e2:	0f 85 a1 f3 ff ff    	jne    3d89 <tinput_read_i+0x8e9>
    49e8:	8b 45 88             	mov    -0x78(%ebp),%eax
    49eb:	40                   	inc    %eax
    49ec:	89 45 88             	mov    %eax,-0x78(%ebp)
    49ef:	50                   	push   %eax
    49f0:	8d 45 bc             	lea    -0x44(%ebp),%eax
    49f3:	6a ff                	push   $0xffffffff
    49f5:	50                   	push   %eax
    49f6:	8b 45 94             	mov    -0x6c(%ebp),%eax
    49f9:	50                   	push   %eax
    49fa:	e8 11 43 00 00       	call   8d10 <str_decode@plt>
    49ff:	83 c4 0c             	add    $0xc,%esp
    4a02:	89 c6                	mov    %eax,%esi
    4a04:	8b 45 9c             	mov    -0x64(%ebp),%eax
    4a07:	6a ff                	push   $0xffffffff
    4a09:	50                   	push   %eax
    4a0a:	57                   	push   %edi
    4a0b:	e8 00 43 00 00       	call   8d10 <str_decode@plt>
    4a10:	83 c4 10             	add    $0x10,%esp
    4a13:	85 f6                	test   %esi,%esi
    4a15:	0f 94 c1             	sete   %cl
    4a18:	85 c0                	test   %eax,%eax
    4a1a:	0f 94 c2             	sete   %dl
    4a1d:	08 d1                	or     %dl,%cl
    4a1f:	74 bf                	je     49e0 <tinput_read_i+0x1540>
    4a21:	e9 63 f3 ff ff       	jmp    3d89 <tinput_read_i+0x8e9>
    4a26:	c7 87 24 10 00 00 00 	movl   $0x0,0x1024(%edi)
    4a2d:	00 00 00 
    4a30:	e9 6f ef ff ff       	jmp    39a4 <tinput_read_i+0x504>
    4a35:	8b 75 a0             	mov    -0x60(%ebp),%esi
    4a38:	83 ec 0c             	sub    $0xc,%esp
    4a3b:	8d 04 86             	lea    (%esi,%eax,4),%eax
    4a3e:	50                   	push   %eax
    4a3f:	e8 cc 44 00 00       	call   8f10 <wstr_to_astr@plt>
    4a44:	83 c4 10             	add    $0x10,%esp
    4a47:	89 c2                	mov    %eax,%edx
    4a49:	e9 ba fa ff ff       	jmp    4508 <tinput_read_i+0x1068>
    4a4e:	83 ec 0c             	sub    $0xc,%esp
    4a51:	52                   	push   %edx
    4a52:	e8 89 45 00 00       	call   8fe0 <free@plt>
    4a57:	8b 45 e0             	mov    -0x20(%ebp),%eax
    4a5a:	83 c4 10             	add    $0x10,%esp
    4a5d:	e9 b2 ec ff ff       	jmp    3714 <tinput_read_i+0x274>
    4a62:	a8 3f                	test   $0x3f,%al
    4a64:	0f 85 c6 ec ff ff    	jne    3730 <tinput_read_i+0x290>
    4a6a:	8b 87 28 10 00 00    	mov    0x1028(%edi),%eax
    4a70:	85 c0                	test   %eax,%eax
    4a72:	0f 85 6d f6 ff ff    	jne    40e5 <tinput_read_i+0xc45>
    4a78:	e9 03 f4 ff ff       	jmp    3e80 <tinput_read_i+0x9e0>
    4a7d:	8d 76 00             	lea    0x0(%esi),%esi
    4a80:	8b 75 e4             	mov    -0x1c(%ebp),%esi
    4a83:	83 fe 1f             	cmp    $0x1f,%esi
    4a86:	0f 8e ac ea ff ff    	jle    3538 <tinput_read_i+0x98>
    4a8c:	e9 3e ed ff ff       	jmp    37cf <tinput_read_i+0x32f>
    4a91:	83 ec 0c             	sub    $0xc,%esp
    4a94:	8b 45 90             	mov    -0x70(%ebp),%eax
    4a97:	6a 00                	push   $0x0
    4a99:	68 70 2c 00 00       	push   $0x2c70
    4a9e:	6a 04                	push   $0x4
    4aa0:	50                   	push   %eax
    4aa1:	8b 45 98             	mov    -0x68(%ebp),%eax
    4aa4:	50                   	push   %eax
    4aa5:	e8 a6 42 00 00       	call   8d50 <qsort@plt>
    4aaa:	8b 97 14 10 00 00    	mov    0x1014(%edi),%edx
    4ab0:	8b 87 20 10 00 00    	mov    0x1020(%edi),%eax
    4ab6:	83 c4 1c             	add    $0x1c,%esp
    4ab9:	01 d0                	add    %edx,%eax
    4abb:	31 d2                	xor    %edx,%edx
    4abd:	8b 0f                	mov    (%edi),%ecx
    4abf:	f7 b7 18 10 00 00    	divl   0x1018(%edi)
    4ac5:	50                   	push   %eax
    4ac6:	52                   	push   %edx
    4ac7:	51                   	push   %ecx
    4ac8:	e8 a3 44 00 00       	call   8f70 <console_set_pos@plt>
    4acd:	8b 07                	mov    (%edi),%eax
    4acf:	5e                   	pop    %esi
    4ad0:	50                   	push   %eax
    4ad1:	e8 6a 44 00 00       	call   8f40 <console_flush@plt>
    4ad6:	c7 04 24 0a 00 00 00 	movl   $0xa,(%esp)
    4add:	e8 6e 41 00 00       	call   8c50 <putchar@plt>
    4ae2:	31 d2                	xor    %edx,%edx
    4ae4:	89 7d 08             	mov    %edi,0x8(%ebp)
    4ae7:	83 c4 10             	add    $0x10,%esp
    4aea:	31 f6                	xor    %esi,%esi
    4aec:	89 d7                	mov    %edx,%edi
    4aee:	8b 45 98             	mov    -0x68(%ebp),%eax
    4af1:	83 ec 0c             	sub    $0xc,%esp
    4af4:	8b 04 b8             	mov    (%eax,%edi,4),%eax
    4af7:	50                   	push   %eax
    4af8:	e8 03 42 00 00       	call   8d00 <str_width@plt>
    4afd:	83 c4 10             	add    $0x10,%esp
    4b00:	39 c6                	cmp    %eax,%esi
    4b02:	77 14                	ja     4b18 <tinput_read_i+0x1678>
    4b04:	8b 45 98             	mov    -0x68(%ebp),%eax
    4b07:	83 ec 0c             	sub    $0xc,%esp
    4b0a:	8b 0c b8             	mov    (%eax,%edi,4),%ecx
    4b0d:	51                   	push   %ecx
    4b0e:	e8 ed 41 00 00       	call   8d00 <str_width@plt>
    4b13:	83 c4 10             	add    $0x10,%esp
    4b16:	89 c6                	mov    %eax,%esi
    4b18:	47                   	inc    %edi
    4b19:	39 7d 90             	cmp    %edi,-0x70(%ebp)
    4b1c:	75 d0                	jne    4aee <tinput_read_i+0x164e>
    4b1e:	8b 7d 08             	mov    0x8(%ebp),%edi
    4b21:	31 d2                	xor    %edx,%edx
    4b23:	8d 4e 01             	lea    0x1(%esi),%ecx
    4b26:	8b 87 18 10 00 00    	mov    0x1018(%edi),%eax
    4b2c:	89 45 94             	mov    %eax,-0x6c(%ebp)
    4b2f:	40                   	inc    %eax
    4b30:	89 45 8c             	mov    %eax,-0x74(%ebp)
    4b33:	f7 f1                	div    %ecx
    4b35:	89 c2                	mov    %eax,%edx
    4b37:	85 c0                	test   %eax,%eax
    4b39:	0f 84 76 01 00 00    	je     4cb5 <tinput_read_i+0x1815>
    4b3f:	89 55 88             	mov    %edx,-0x78(%ebp)
    4b42:	8b 45 90             	mov    -0x70(%ebp),%eax
    4b45:	31 d2                	xor    %edx,%edx
    4b47:	f7 75 88             	divl   -0x78(%ebp)
    4b4a:	31 c0                	xor    %eax,%eax
    4b4c:	85 d2                	test   %edx,%edx
    4b4e:	0f 95 c0             	setne  %al
    4b51:	89 45 9c             	mov    %eax,-0x64(%ebp)
    4b54:	8b 55 88             	mov    -0x78(%ebp),%edx
    4b57:	31 c0                	xor    %eax,%eax
    4b59:	0f af ca             	imul   %edx,%ecx
    4b5c:	8d 51 ff             	lea    -0x1(%ecx),%edx
    4b5f:	39 55 94             	cmp    %edx,-0x6c(%ebp)
    4b62:	76 05                	jbe    4b69 <tinput_read_i+0x16c9>
    4b64:	8b 45 8c             	mov    -0x74(%ebp),%eax
    4b67:	29 c8                	sub    %ecx,%eax
    4b69:	8b 4d 88             	mov    -0x78(%ebp),%ecx
    4b6c:	31 d2                	xor    %edx,%edx
    4b6e:	f7 f1                	div    %ecx
    4b70:	01 f0                	add    %esi,%eax
    4b72:	31 d2                	xor    %edx,%edx
    4b74:	89 45 94             	mov    %eax,-0x6c(%ebp)
    4b77:	8b 45 90             	mov    -0x70(%ebp),%eax
    4b7a:	f7 f1                	div    %ecx
    4b7c:	03 45 9c             	add    -0x64(%ebp),%eax
    4b7f:	8d 71 ff             	lea    -0x1(%ecx),%esi
    4b82:	c7 85 7c ff ff ff 00 	movl   $0x0,-0x84(%ebp)
    4b89:	00 00 00 
    4b8c:	89 75 80             	mov    %esi,-0x80(%ebp)
    4b8f:	89 45 84             	mov    %eax,-0x7c(%ebp)
    4b92:	0f 84 00 01 00 00    	je     4c98 <tinput_read_i+0x17f8>
    4b98:	89 7d 08             	mov    %edi,0x8(%ebp)
    4b9b:	8b 85 7c ff ff ff    	mov    -0x84(%ebp),%eax
    4ba1:	8b 7d 94             	mov    -0x6c(%ebp),%edi
    4ba4:	89 45 94             	mov    %eax,-0x6c(%ebp)
    4ba7:	31 d2                	xor    %edx,%edx
    4ba9:	c7 45 9c 00 00 00 00 	movl   $0x0,-0x64(%ebp)
    4bb0:	8b 75 94             	mov    -0x6c(%ebp),%esi
    4bb3:	39 75 90             	cmp    %esi,-0x70(%ebp)
    4bb6:	0f 86 9c 00 00 00    	jbe    4c58 <tinput_read_i+0x17b8>
    4bbc:	8b 45 9c             	mov    -0x64(%ebp),%eax
    4bbf:	89 55 8c             	mov    %edx,-0x74(%ebp)
    4bc2:	85 c0                	test   %eax,%eax
    4bc4:	0f 84 72 01 00 00    	je     4d3c <tinput_read_i+0x189c>
    4bca:	83 ec 0c             	sub    $0xc,%esp
    4bcd:	68 d9 7f 00 00       	push   $0x7fd9
    4bd2:	e8 d9 40 00 00       	call   8cb0 <printf@plt>
    4bd7:	8b 55 8c             	mov    -0x74(%ebp),%edx
    4bda:	83 c4 10             	add    $0x10,%esp
    4bdd:	8b 4d 94             	mov    -0x6c(%ebp),%ecx
    4be0:	8d 42 01             	lea    0x1(%edx),%eax
    4be3:	89 45 8c             	mov    %eax,-0x74(%ebp)
    4be6:	8b 75 98             	mov    -0x68(%ebp),%esi
    4be9:	50                   	push   %eax
    4bea:	50                   	push   %eax
    4beb:	8b 04 8e             	mov    (%esi,%ecx,4),%eax
    4bee:	50                   	push   %eax
    4bef:	68 98 82 00 00       	push   $0x8298
    4bf4:	e8 b7 40 00 00       	call   8cb0 <printf@plt>
    4bf9:	8b 4d 94             	mov    -0x6c(%ebp),%ecx
    4bfc:	58                   	pop    %eax
    4bfd:	8b 04 8e             	mov    (%esi,%ecx,4),%eax
    4c00:	50                   	push   %eax
    4c01:	e8 fa 40 00 00       	call   8d00 <str_width@plt>
    4c06:	89 c6                	mov    %eax,%esi
    4c08:	8b 45 8c             	mov    -0x74(%ebp),%eax
    4c0b:	8b 4d 80             	mov    -0x80(%ebp),%ecx
    4c0e:	83 c4 10             	add    $0x10,%esp
    4c11:	8d 14 06             	lea    (%esi,%eax,1),%edx
    4c14:	39 4d 9c             	cmp    %ecx,-0x64(%ebp)
    4c17:	73 21                	jae    4c3a <tinput_read_i+0x179a>
    4c19:	39 f7                	cmp    %esi,%edi
    4c1b:	76 1d                	jbe    4c3a <tinput_read_i+0x179a>
    4c1d:	8d 76 00             	lea    0x0(%esi),%esi
    4c20:	83 ec 0c             	sub    $0xc,%esp
    4c23:	46                   	inc    %esi
    4c24:	68 d9 7f 00 00       	push   $0x7fd9
    4c29:	e8 82 40 00 00       	call   8cb0 <printf@plt>
    4c2e:	83 c4 10             	add    $0x10,%esp
    4c31:	39 f7                	cmp    %esi,%edi
    4c33:	77 eb                	ja     4c20 <tinput_read_i+0x1780>
    4c35:	8b 55 8c             	mov    -0x74(%ebp),%edx
    4c38:	01 fa                	add    %edi,%edx
    4c3a:	8b 45 9c             	mov    -0x64(%ebp),%eax
    4c3d:	8b 75 94             	mov    -0x6c(%ebp),%esi
    4c40:	40                   	inc    %eax
    4c41:	8b 4d 84             	mov    -0x7c(%ebp),%ecx
    4c44:	89 45 9c             	mov    %eax,-0x64(%ebp)
    4c47:	01 ce                	add    %ecx,%esi
    4c49:	8b 45 9c             	mov    -0x64(%ebp),%eax
    4c4c:	89 75 94             	mov    %esi,-0x6c(%ebp)
    4c4f:	39 45 88             	cmp    %eax,-0x78(%ebp)
    4c52:	0f 85 58 ff ff ff    	jne    4bb0 <tinput_read_i+0x1710>
    4c58:	8b 75 08             	mov    0x8(%ebp),%esi
    4c5b:	89 d0                	mov    %edx,%eax
    4c5d:	31 d2                	xor    %edx,%edx
    4c5f:	f7 b6 18 10 00 00    	divl   0x1018(%esi)
    4c65:	85 d2                	test   %edx,%edx
    4c67:	74 10                	je     4c79 <tinput_read_i+0x17d9>
    4c69:	83 ec 0c             	sub    $0xc,%esp
    4c6c:	68 7e 80 00 00       	push   $0x807e
    4c71:	e8 3a 40 00 00       	call   8cb0 <printf@plt>
    4c76:	83 c4 10             	add    $0x10,%esp
    4c79:	8b 85 7c ff ff ff    	mov    -0x84(%ebp),%eax
    4c7f:	40                   	inc    %eax
    4c80:	89 85 7c ff ff ff    	mov    %eax,-0x84(%ebp)
    4c86:	8b 85 7c ff ff ff    	mov    -0x84(%ebp),%eax
    4c8c:	39 45 84             	cmp    %eax,-0x7c(%ebp)
    4c8f:	0f 85 0f ff ff ff    	jne    4ba4 <tinput_read_i+0x1704>
    4c95:	8b 7d 08             	mov    0x8(%ebp),%edi
    4c98:	83 ec 0c             	sub    $0xc,%esp
    4c9b:	a1 60 aa 00 00       	mov    0xaa60,%eax
    4ca0:	50                   	push   %eax
    4ca1:	e8 0a 41 00 00       	call   8db0 <fflush@plt>
    4ca6:	89 f8                	mov    %edi,%eax
    4ca8:	e8 33 e6 ff ff       	call   32e0 <tinput_display>
    4cad:	83 c4 10             	add    $0x10,%esp
    4cb0:	e9 45 f1 ff ff       	jmp    3dfa <tinput_read_i+0x95a>
    4cb5:	c7 45 9c 00 00 00 00 	movl   $0x0,-0x64(%ebp)
    4cbc:	c7 45 88 01 00 00 00 	movl   $0x1,-0x78(%ebp)
    4cc3:	e9 8c fe ff ff       	jmp    4b54 <tinput_read_i+0x16b4>
    4cc8:	74 3b                	je     4d05 <tinput_read_i+0x1865>
    4cca:	8b 45 90             	mov    -0x70(%ebp),%eax
    4ccd:	85 c0                	test   %eax,%eax
    4ccf:	0f 85 25 f1 ff ff    	jne    3dfa <tinput_read_i+0x95a>
    4cd5:	e9 3a f1 ff ff       	jmp    3e14 <tinput_read_i+0x974>
    4cda:	8d b6 00 00 00 00    	lea    0x0(%esi),%esi
    4ce0:	a8 3f                	test   $0x3f,%al
    4ce2:	0f 85 48 ea ff ff    	jne    3730 <tinput_read_i+0x290>
    4ce8:	e9 41 f1 ff ff       	jmp    3e2e <tinput_read_i+0x98e>
    4ced:	8d 76 00             	lea    0x0(%esi),%esi
    4cf0:	83 ec 0c             	sub    $0xc,%esp
    4cf3:	68 c3 85 00 00       	push   $0x85c3
    4cf8:	e8 b3 3f 00 00       	call   8cb0 <printf@plt>
    4cfd:	83 c4 10             	add    $0x10,%esp
    4d00:	e9 d7 ef ff ff       	jmp    3cdc <tinput_read_i+0x83c>
    4d05:	8b 75 98             	mov    -0x68(%ebp),%esi
    4d08:	50                   	push   %eax
    4d09:	50                   	push   %eax
    4d0a:	8b 55 b4             	mov    -0x4c(%ebp),%edx
    4d0d:	8b 87 24 10 00 00    	mov    0x1024(%edi),%eax
    4d13:	8b 0e                	mov    (%esi),%ecx
    4d15:	29 d0                	sub    %edx,%eax
    4d17:	50                   	push   %eax
    4d18:	51                   	push   %ecx
    4d19:	e8 a2 42 00 00       	call   8fc0 <str_lsize@plt>
    4d1e:	8b 16                	mov    (%esi),%edx
    4d20:	01 d0                	add    %edx,%eax
    4d22:	89 c2                	mov    %eax,%edx
    4d24:	89 f8                	mov    %edi,%eax
    4d26:	e8 15 e4 ff ff       	call   3140 <tinput_insert_string>
    4d2b:	8b 36                	mov    (%esi),%esi
    4d2d:	59                   	pop    %ecx
    4d2e:	56                   	push   %esi
    4d2f:	e8 ac 42 00 00       	call   8fe0 <free@plt>
    4d34:	83 c4 10             	add    $0x10,%esp
    4d37:	e9 d8 f0 ff ff       	jmp    3e14 <tinput_read_i+0x974>
    4d3c:	89 f1                	mov    %esi,%ecx
    4d3e:	e9 a3 fe ff ff       	jmp    4be6 <tinput_read_i+0x1746>
    4d43:	83 ec 0c             	sub    $0xc,%esp
    4d46:	68 c3 85 00 00       	push   $0x85c3
    4d4b:	e8 60 3f 00 00       	call   8cb0 <printf@plt>
    4d50:	83 c4 10             	add    $0x10,%esp
    4d53:	e9 d8 e9 ff ff       	jmp    3730 <tinput_read_i+0x290>
    4d58:	89 d0                	mov    %edx,%eax
    4d5a:	e9 b2 e8 ff ff       	jmp    3611 <tinput_read_i+0x171>
    4d5f:	29 f0                	sub    %esi,%eax
    4d61:	52                   	push   %edx
    4d62:	c1 e0 02             	shl    $0x2,%eax
    4d65:	8b 4d 9c             	mov    -0x64(%ebp),%ecx
    4d68:	50                   	push   %eax
    4d69:	8b 45 a0             	mov    -0x60(%ebp),%eax
    4d6c:	8d 04 b0             	lea    (%eax,%esi,4),%eax
    4d6f:	50                   	push   %eax
    4d70:	51                   	push   %ecx
    4d71:	e8 ea 3f 00 00       	call   8d60 <memcpy@plt>
    4d76:	8b 87 20 10 00 00    	mov    0x1020(%edi),%eax
    4d7c:	29 f0                	sub    %esi,%eax
    4d7e:	8b 75 9c             	mov    -0x64(%ebp),%esi
    4d81:	c7 04 86 00 00 00 00 	movl   $0x0,(%esi,%eax,4)
    4d88:	58                   	pop    %eax
    4d89:	5a                   	pop    %edx
    4d8a:	56                   	push   %esi
    4d8b:	68 bf 85 00 00       	push   $0x85bf
    4d90:	e8 1b 3f 00 00       	call   8cb0 <printf@plt>
    4d95:	83 c4 10             	add    $0x10,%esp
    4d98:	e9 8e f2 ff ff       	jmp    402b <tinput_read_i+0xb8b>
    4d9d:	83 ec 0c             	sub    $0xc,%esp
    4da0:	8b 07                	mov    (%edi),%eax
    4da2:	50                   	push   %eax
    4da3:	e8 98 41 00 00       	call   8f40 <console_flush@plt>
    4da8:	8b 0f                	mov    (%edi),%ecx
    4daa:	58                   	pop    %eax
    4dab:	5a                   	pop    %edx
    4dac:	6a 03                	push   $0x3
    4dae:	51                   	push   %ecx
    4daf:	e8 2c 41 00 00       	call   8ee0 <console_set_style@plt>
    4db4:	8b 55 98             	mov    -0x68(%ebp),%edx
    4db7:	8b 45 a0             	mov    -0x60(%ebp),%eax
    4dba:	83 c4 0c             	add    $0xc,%esp
    4dbd:	29 f2                	sub    %esi,%edx
    4dbf:	c1 e2 02             	shl    $0x2,%edx
    4dc2:	8d 04 b0             	lea    (%eax,%esi,4),%eax
    4dc5:	8b 75 9c             	mov    -0x64(%ebp),%esi
    4dc8:	52                   	push   %edx
    4dc9:	89 55 94             	mov    %edx,-0x6c(%ebp)
    4dcc:	50                   	push   %eax
    4dcd:	56                   	push   %esi
    4dce:	e8 8d 3f 00 00       	call   8d60 <memcpy@plt>
    4dd3:	8b 55 94             	mov    -0x6c(%ebp),%edx
    4dd6:	c7 04 16 00 00 00 00 	movl   $0x0,(%esi,%edx,1)
    4ddd:	58                   	pop    %eax
    4dde:	5a                   	pop    %edx
    4ddf:	56                   	push   %esi
    4de0:	68 bf 85 00 00       	push   $0x85bf
    4de5:	e8 c6 3e 00 00       	call   8cb0 <printf@plt>
    4dea:	83 c4 10             	add    $0x10,%esp
    4ded:	8b 75 98             	mov    -0x68(%ebp),%esi
    4df0:	e9 0e f2 ff ff       	jmp    4003 <tinput_read_i+0xb63>
    4df5:	89 ca                	mov    %ecx,%edx
    4df7:	8b 45 a0             	mov    -0x60(%ebp),%eax
    4dfa:	29 f2                	sub    %esi,%edx
    4dfc:	89 4d 90             	mov    %ecx,-0x70(%ebp)
    4dff:	c1 e2 02             	shl    $0x2,%edx
    4e02:	8d 04 b0             	lea    (%eax,%esi,4),%eax
    4e05:	8b 75 9c             	mov    -0x64(%ebp),%esi
    4e08:	89 55 94             	mov    %edx,-0x6c(%ebp)
    4e0b:	51                   	push   %ecx
    4e0c:	52                   	push   %edx
    4e0d:	50                   	push   %eax
    4e0e:	56                   	push   %esi
    4e0f:	e8 4c 3f 00 00       	call   8d60 <memcpy@plt>
    4e14:	8b 55 94             	mov    -0x6c(%ebp),%edx
    4e17:	c7 04 16 00 00 00 00 	movl   $0x0,(%esi,%edx,1)
    4e1e:	58                   	pop    %eax
    4e1f:	5a                   	pop    %edx
    4e20:	56                   	push   %esi
    4e21:	68 bf 85 00 00       	push   $0x85bf
    4e26:	e8 85 3e 00 00       	call   8cb0 <printf@plt>
    4e2b:	8b 4d 90             	mov    -0x70(%ebp),%ecx
    4e2e:	83 c4 10             	add    $0x10,%esp
    4e31:	89 ce                	mov    %ecx,%esi
    4e33:	e9 c2 f1 ff ff       	jmp    3ffa <tinput_read_i+0xb5a>
    4e38:	90                   	nop
    4e39:	8d b4 26 00 00 00 00 	lea    0x0(%esi,%eiz,1),%esi

00004e40 <tinput_read>:
    4e40:	55                   	push   %ebp
    4e41:	89 e5                	mov    %esp,%ebp
    4e43:	83 ec 0c             	sub    $0xc,%esp
    4e46:	8b 45 0c             	mov    0xc(%ebp),%eax
    4e49:	8b 55 08             	mov    0x8(%ebp),%edx
    4e4c:	50                   	push   %eax
    4e4d:	68 7f 80 00 00       	push   $0x807f
    4e52:	52                   	push   %edx
    4e53:	e8 48 e6 ff ff       	call   34a0 <tinput_read_i>
    4e58:	c9                   	leave  
    4e59:	c3                   	ret    
    4e5a:	66 90                	xchg   %ax,%ax
    4e5c:	66 90                	xchg   %ax,%ax
    4e5e:	66 90                	xchg   %ax,%ax

00004e60 <fdisk_cap_from_blocks>:
    4e60:	55                   	push   %ebp
    4e61:	89 e5                	mov    %esp,%ebp
    4e63:	57                   	push   %edi
    4e64:	56                   	push   %esi
    4e65:	8b 45 10             	mov    0x10(%ebp),%eax
    4e68:	8b 7d 0c             	mov    0xc(%ebp),%edi
    4e6b:	0f af f8             	imul   %eax,%edi
    4e6e:	f7 65 08             	mull   0x8(%ebp)
    4e71:	8b 75 14             	mov    0x14(%ebp),%esi
    4e74:	01 fa                	add    %edi,%edx
    4e76:	89 06                	mov    %eax,(%esi)
    4e78:	89 56 04             	mov    %edx,0x4(%esi)
    4e7b:	c7 46 08 00 00 00 00 	movl   $0x0,0x8(%esi)
    4e82:	c7 46 0c 00 00 00 00 	movl   $0x0,0xc(%esi)
    4e89:	5e                   	pop    %esi
    4e8a:	5f                   	pop    %edi
    4e8b:	5d                   	pop    %ebp
    4e8c:	c3                   	ret    
    4e8d:	8d 76 00             	lea    0x0(%esi),%esi

00004e90 <fdisk_cap_to_blocks>:
    4e90:	55                   	push   %ebp
    4e91:	89 e5                	mov    %esp,%ebp
    4e93:	57                   	push   %edi
    4e94:	56                   	push   %esi
    4e95:	53                   	push   %ebx
    4e96:	83 ec 3c             	sub    $0x3c,%esp
    4e99:	8b 75 08             	mov    0x8(%ebp),%esi
    4e9c:	8b 46 0c             	mov    0xc(%esi),%eax
    4e9f:	8d 04 40             	lea    (%eax,%eax,2),%eax
    4ea2:	2b 46 08             	sub    0x8(%esi),%eax
    4ea5:	0f 88 15 01 00 00    	js     4fc0 <fdisk_cap_to_blocks+0x130>
    4eab:	8d 55 e0             	lea    -0x20(%ebp),%edx
    4eae:	57                   	push   %edi
    4eaf:	57                   	push   %edi
    4eb0:	52                   	push   %edx
    4eb1:	50                   	push   %eax
    4eb2:	e8 c9 40 00 00       	call   8f80 <ipow10_u64@plt>
    4eb7:	83 c4 10             	add    $0x10,%esp
    4eba:	85 c0                	test   %eax,%eax
    4ebc:	0f 85 9b 00 00 00    	jne    4f5d <fdisk_cap_to_blocks+0xcd>
    4ec2:	8b 45 e0             	mov    -0x20(%ebp),%eax
    4ec5:	8b 55 e4             	mov    -0x1c(%ebp),%edx
    4ec8:	83 7d 0c 01          	cmpl   $0x1,0xc(%ebp)
    4ecc:	0f 84 9e 00 00 00    	je     4f70 <fdisk_cap_to_blocks+0xe0>
    4ed2:	83 7d 0c 02          	cmpl   $0x2,0xc(%ebp)
    4ed6:	89 45 d0             	mov    %eax,-0x30(%ebp)
    4ed9:	89 55 d4             	mov    %edx,-0x2c(%ebp)
    4edc:	0f 84 66 01 00 00    	je     5048 <fdisk_cap_to_blocks+0x1b8>
    4ee2:	c7 45 c8 00 00 00 00 	movl   $0x0,-0x38(%ebp)
    4ee9:	c7 45 cc 00 00 00 00 	movl   $0x0,-0x34(%ebp)
    4ef0:	89 c1                	mov    %eax,%ecx
    4ef2:	89 d3                	mov    %edx,%ebx
    4ef4:	8b 3e                	mov    (%esi),%edi
    4ef6:	8b 76 04             	mov    0x4(%esi),%esi
    4ef9:	89 d8                	mov    %ebx,%eax
    4efb:	89 f2                	mov    %esi,%edx
    4efd:	0f af d1             	imul   %ecx,%edx
    4f00:	0f af c7             	imul   %edi,%eax
    4f03:	01 d0                	add    %edx,%eax
    4f05:	8b 4d c8             	mov    -0x38(%ebp),%ecx
    4f08:	89 c3                	mov    %eax,%ebx
    4f0a:	89 f8                	mov    %edi,%eax
    4f0c:	f7 65 d0             	mull   -0x30(%ebp)
    4f0f:	01 da                	add    %ebx,%edx
    4f11:	01 c1                	add    %eax,%ecx
    4f13:	8b 5d cc             	mov    -0x34(%ebp),%ebx
    4f16:	89 4d c8             	mov    %ecx,-0x38(%ebp)
    4f19:	11 d3                	adc    %edx,%ebx
    4f1b:	8b 4d d4             	mov    -0x2c(%ebp),%ecx
    4f1e:	89 5d cc             	mov    %ebx,-0x34(%ebp)
    4f21:	8b 5d d0             	mov    -0x30(%ebp),%ebx
    4f24:	51                   	push   %ecx
    4f25:	53                   	push   %ebx
    4f26:	52                   	push   %edx
    4f27:	50                   	push   %eax
    4f28:	e8 c3 3e 00 00       	call   8df0 <__udivdi3@plt>
    4f2d:	83 c4 10             	add    $0x10,%esp
    4f30:	31 f8                	xor    %edi,%eax
    4f32:	31 f2                	xor    %esi,%edx
    4f34:	09 c2                	or     %eax,%edx
    4f36:	75 25                	jne    4f5d <fdisk_cap_to_blocks+0xcd>
    4f38:	31 ff                	xor    %edi,%edi
    4f3a:	8b 45 cc             	mov    -0x34(%ebp),%eax
    4f3d:	8b 55 c8             	mov    -0x38(%ebp),%edx
    4f40:	8b 75 10             	mov    0x10(%ebp),%esi
    4f43:	57                   	push   %edi
    4f44:	56                   	push   %esi
    4f45:	50                   	push   %eax
    4f46:	52                   	push   %edx
    4f47:	e8 94 3e 00 00       	call   8de0 <__umoddi3@plt>
    4f4c:	8b 4d c8             	mov    -0x38(%ebp),%ecx
    4f4f:	8b 5d cc             	mov    -0x34(%ebp),%ebx
    4f52:	83 c4 10             	add    $0x10,%esp
    4f55:	01 c8                	add    %ecx,%eax
    4f57:	11 da                	adc    %ebx,%edx
    4f59:	39 d3                	cmp    %edx,%ebx
    4f5b:	76 3b                	jbe    4f98 <fdisk_cap_to_blocks+0x108>
    4f5d:	8d 65 f4             	lea    -0xc(%ebp),%esp
    4f60:	b8 f8 fe ff ff       	mov    $0xfffffef8,%eax
    4f65:	5b                   	pop    %ebx
    4f66:	5e                   	pop    %esi
    4f67:	5f                   	pop    %edi
    4f68:	5d                   	pop    %ebp
    4f69:	c3                   	ret    
    4f6a:	8d b6 00 00 00 00    	lea    0x0(%esi),%esi
    4f70:	89 45 d0             	mov    %eax,-0x30(%ebp)
    4f73:	89 55 d4             	mov    %edx,-0x2c(%ebp)
    4f76:	0f ac d0 01          	shrd   $0x1,%edx,%eax
    4f7a:	d1 ea                	shr    %edx
    4f7c:	8b 4d d0             	mov    -0x30(%ebp),%ecx
    4f7f:	f7 d8                	neg    %eax
    4f81:	83 d2 00             	adc    $0x0,%edx
    4f84:	89 45 c8             	mov    %eax,-0x38(%ebp)
    4f87:	f7 da                	neg    %edx
    4f89:	89 55 cc             	mov    %edx,-0x34(%ebp)
    4f8c:	8b 5d d4             	mov    -0x2c(%ebp),%ebx
    4f8f:	e9 60 ff ff ff       	jmp    4ef4 <fdisk_cap_to_blocks+0x64>
    4f94:	8d 74 26 00          	lea    0x0(%esi,%eiz,1),%esi
    4f98:	72 04                	jb     4f9e <fdisk_cap_to_blocks+0x10e>
    4f9a:	39 c1                	cmp    %eax,%ecx
    4f9c:	77 bf                	ja     4f5d <fdisk_cap_to_blocks+0xcd>
    4f9e:	57                   	push   %edi
    4f9f:	56                   	push   %esi
    4fa0:	52                   	push   %edx
    4fa1:	50                   	push   %eax
    4fa2:	e8 49 3e 00 00       	call   8df0 <__udivdi3@plt>
    4fa7:	8b 4d 14             	mov    0x14(%ebp),%ecx
    4faa:	83 c4 10             	add    $0x10,%esp
    4fad:	89 01                	mov    %eax,(%ecx)
    4faf:	89 51 04             	mov    %edx,0x4(%ecx)
    4fb2:	8d 65 f4             	lea    -0xc(%ebp),%esp
    4fb5:	31 c0                	xor    %eax,%eax
    4fb7:	5b                   	pop    %ebx
    4fb8:	5e                   	pop    %esi
    4fb9:	5f                   	pop    %edi
    4fba:	5d                   	pop    %ebp
    4fbb:	c3                   	ret    
    4fbc:	8d 74 26 00          	lea    0x0(%esi,%eiz,1),%esi
    4fc0:	f7 d8                	neg    %eax
    4fc2:	52                   	push   %edx
    4fc3:	52                   	push   %edx
    4fc4:	8d 55 e0             	lea    -0x20(%ebp),%edx
    4fc7:	52                   	push   %edx
    4fc8:	50                   	push   %eax
    4fc9:	e8 b2 3f 00 00       	call   8f80 <ipow10_u64@plt>
    4fce:	83 c4 10             	add    $0x10,%esp
    4fd1:	85 c0                	test   %eax,%eax
    4fd3:	75 88                	jne    4f5d <fdisk_cap_to_blocks+0xcd>
    4fd5:	8b 06                	mov    (%esi),%eax
    4fd7:	8b 56 04             	mov    0x4(%esi),%edx
    4fda:	8b 7d e4             	mov    -0x1c(%ebp),%edi
    4fdd:	8b 75 e0             	mov    -0x20(%ebp),%esi
    4fe0:	89 fb                	mov    %edi,%ebx
    4fe2:	89 f1                	mov    %esi,%ecx
    4fe4:	0f ac d9 01          	shrd   $0x1,%ebx,%ecx
    4fe8:	89 45 d0             	mov    %eax,-0x30(%ebp)
    4feb:	89 55 d4             	mov    %edx,-0x2c(%ebp)
    4fee:	d1 eb                	shr    %ebx
    4ff0:	01 c8                	add    %ecx,%eax
    4ff2:	11 da                	adc    %ebx,%edx
    4ff4:	57                   	push   %edi
    4ff5:	89 4d c0             	mov    %ecx,-0x40(%ebp)
    4ff8:	56                   	push   %esi
    4ff9:	89 5d c4             	mov    %ebx,-0x3c(%ebp)
    4ffc:	52                   	push   %edx
    4ffd:	50                   	push   %eax
    4ffe:	e8 ed 3d 00 00       	call   8df0 <__udivdi3@plt>
    5003:	89 c3                	mov    %eax,%ebx
    5005:	89 45 c8             	mov    %eax,-0x38(%ebp)
    5008:	0f af df             	imul   %edi,%ebx
    500b:	89 f0                	mov    %esi,%eax
    500d:	89 d9                	mov    %ebx,%ecx
    500f:	89 d3                	mov    %edx,%ebx
    5011:	89 55 cc             	mov    %edx,-0x34(%ebp)
    5014:	0f af de             	imul   %esi,%ebx
    5017:	f7 65 c8             	mull   -0x38(%ebp)
    501a:	01 d9                	add    %ebx,%ecx
    501c:	89 c6                	mov    %eax,%esi
    501e:	89 d7                	mov    %edx,%edi
    5020:	83 c4 10             	add    $0x10,%esp
    5023:	01 cf                	add    %ecx,%edi
    5025:	2b 75 c0             	sub    -0x40(%ebp),%esi
    5028:	8b 4d d0             	mov    -0x30(%ebp),%ecx
    502b:	8b 5d d4             	mov    -0x2c(%ebp),%ebx
    502e:	1b 7d c4             	sbb    -0x3c(%ebp),%edi
    5031:	89 c8                	mov    %ecx,%eax
    5033:	89 da                	mov    %ebx,%edx
    5035:	31 f0                	xor    %esi,%eax
    5037:	31 fa                	xor    %edi,%edx
    5039:	09 c2                	or     %eax,%edx
    503b:	0f 84 f7 fe ff ff    	je     4f38 <fdisk_cap_to_blocks+0xa8>
    5041:	e9 17 ff ff ff       	jmp    4f5d <fdisk_cap_to_blocks+0xcd>
    5046:	66 90                	xchg   %ax,%ax
    5048:	0f ac d0 01          	shrd   $0x1,%edx,%eax
    504c:	d1 ea                	shr    %edx
    504e:	83 c0 ff             	add    $0xffffffff,%eax
    5051:	83 d2 ff             	adc    $0xffffffff,%edx
    5054:	89 45 c8             	mov    %eax,-0x38(%ebp)
    5057:	89 55 cc             	mov    %edx,-0x34(%ebp)
    505a:	8b 4d d0             	mov    -0x30(%ebp),%ecx
    505d:	8b 5d d4             	mov    -0x2c(%ebp),%ebx
    5060:	e9 8f fe ff ff       	jmp    4ef4 <fdisk_cap_to_blocks+0x64>
    5065:	8d 74 26 00          	lea    0x0(%esi,%eiz,1),%esi
    5069:	8d bc 27 00 00 00 00 	lea    0x0(%edi,%eiz,1),%edi

00005070 <fdisk_cap_simplify>:
    5070:	55                   	push   %ebp
    5071:	89 e5                	mov    %esp,%ebp
    5073:	57                   	push   %edi
    5074:	56                   	push   %esi
    5075:	53                   	push   %ebx
    5076:	83 ec 44             	sub    $0x44,%esp
    5079:	8d 45 e0             	lea    -0x20(%ebp),%eax
    507c:	50                   	push   %eax
    507d:	6a 03                	push   $0x3
    507f:	e8 fc 3e 00 00       	call   8f80 <ipow10_u64@plt>
    5084:	83 c4 10             	add    $0x10,%esp
    5087:	85 c0                	test   %eax,%eax
    5089:	0f 85 95 01 00 00    	jne    5224 <fdisk_cap_simplify+0x1b4>
    508f:	8d 45 d8             	lea    -0x28(%ebp),%eax
    5092:	51                   	push   %ecx
    5093:	51                   	push   %ecx
    5094:	50                   	push   %eax
    5095:	8b 45 08             	mov    0x8(%ebp),%eax
    5098:	8b 58 08             	mov    0x8(%eax),%ebx
    509b:	53                   	push   %ebx
    509c:	e8 df 3e 00 00       	call   8f80 <ipow10_u64@plt>
    50a1:	83 c4 10             	add    $0x10,%esp
    50a4:	85 c0                	test   %eax,%eax
    50a6:	0f 85 63 01 00 00    	jne    520f <fdisk_cap_simplify+0x19f>
    50ac:	8b 45 08             	mov    0x8(%ebp),%eax
    50af:	8b 4d e0             	mov    -0x20(%ebp),%ecx
    50b2:	89 4d c0             	mov    %ecx,-0x40(%ebp)
    50b5:	8b 75 d8             	mov    -0x28(%ebp),%esi
    50b8:	8b 50 04             	mov    0x4(%eax),%edx
    50bb:	8b 4d e4             	mov    -0x1c(%ebp),%ecx
    50be:	8b 00                	mov    (%eax),%eax
    50c0:	8b 7d dc             	mov    -0x24(%ebp),%edi
    50c3:	57                   	push   %edi
    50c4:	89 cb                	mov    %ecx,%ebx
    50c6:	56                   	push   %esi
    50c7:	89 45 c8             	mov    %eax,-0x38(%ebp)
    50ca:	52                   	push   %edx
    50cb:	89 55 cc             	mov    %edx,-0x34(%ebp)
    50ce:	50                   	push   %eax
    50cf:	89 4d c4             	mov    %ecx,-0x3c(%ebp)
    50d2:	e8 19 3d 00 00       	call   8df0 <__udivdi3@plt>
    50d7:	83 c4 10             	add    $0x10,%esp
    50da:	39 d3                	cmp    %edx,%ebx
    50dc:	0f 82 8f 00 00 00    	jb     5171 <fdisk_cap_simplify+0x101>
    50e2:	0f 86 80 00 00 00    	jbe    5168 <fdisk_cap_simplify+0xf8>
    50e8:	8b 55 c8             	mov    -0x38(%ebp),%edx
    50eb:	50                   	push   %eax
    50ec:	50                   	push   %eax
    50ed:	8b 45 cc             	mov    -0x34(%ebp),%eax
    50f0:	50                   	push   %eax
    50f1:	52                   	push   %edx
    50f2:	e8 d9 3c 00 00       	call   8dd0 <ilog10_u64@plt>
    50f7:	83 c4 10             	add    $0x10,%esp
    50fa:	8d 50 01             	lea    0x1(%eax),%edx
    50fd:	83 fa 04             	cmp    $0x4,%edx
    5100:	76 5c                	jbe    515e <fdisk_cap_simplify+0xee>
    5102:	8b 7d 08             	mov    0x8(%ebp),%edi
    5105:	83 e8 03             	sub    $0x3,%eax
    5108:	8b 5f 08             	mov    0x8(%edi),%ebx
    510b:	39 c3                	cmp    %eax,%ebx
    510d:	0f 87 f5 00 00 00    	ja     5208 <fdisk_cap_simplify+0x198>
    5113:	8d 45 d8             	lea    -0x28(%ebp),%eax
    5116:	56                   	push   %esi
    5117:	56                   	push   %esi
    5118:	50                   	push   %eax
    5119:	53                   	push   %ebx
    511a:	e8 61 3e 00 00       	call   8f80 <ipow10_u64@plt>
    511f:	83 c4 10             	add    $0x10,%esp
    5122:	85 c0                	test   %eax,%eax
    5124:	0f 85 0f 01 00 00    	jne    5239 <fdisk_cap_simplify+0x1c9>
    512a:	8b 7d dc             	mov    -0x24(%ebp),%edi
    512d:	8b 75 d8             	mov    -0x28(%ebp),%esi
    5130:	89 fa                	mov    %edi,%edx
    5132:	8b 4d 08             	mov    0x8(%ebp),%ecx
    5135:	89 f0                	mov    %esi,%eax
    5137:	0f ac d0 01          	shrd   $0x1,%edx,%eax
    513b:	d1 ea                	shr    %edx
    513d:	03 01                	add    (%ecx),%eax
    513f:	13 51 04             	adc    0x4(%ecx),%edx
    5142:	57                   	push   %edi
    5143:	56                   	push   %esi
    5144:	52                   	push   %edx
    5145:	50                   	push   %eax
    5146:	e8 a5 3c 00 00       	call   8df0 <__udivdi3@plt>
    514b:	8b 7d 08             	mov    0x8(%ebp),%edi
    514e:	83 c4 10             	add    $0x10,%esp
    5151:	89 57 04             	mov    %edx,0x4(%edi)
    5154:	8b 57 08             	mov    0x8(%edi),%edx
    5157:	29 da                	sub    %ebx,%edx
    5159:	89 07                	mov    %eax,(%edi)
    515b:	89 57 08             	mov    %edx,0x8(%edi)
    515e:	8d 65 f4             	lea    -0xc(%ebp),%esp
    5161:	5b                   	pop    %ebx
    5162:	5e                   	pop    %esi
    5163:	5f                   	pop    %edi
    5164:	5d                   	pop    %ebp
    5165:	c3                   	ret    
    5166:	66 90                	xchg   %ax,%ax
    5168:	39 45 c0             	cmp    %eax,-0x40(%ebp)
    516b:	0f 87 77 ff ff ff    	ja     50e8 <fdisk_cap_simplify+0x78>
    5171:	8b 45 08             	mov    0x8(%ebp),%eax
    5174:	8b 40 08             	mov    0x8(%eax),%eax
    5177:	89 45 d0             	mov    %eax,-0x30(%ebp)
    517a:	8b 45 08             	mov    0x8(%ebp),%eax
    517d:	8b 40 0c             	mov    0xc(%eax),%eax
    5180:	8d 58 01             	lea    0x1(%eax),%ebx
    5183:	90                   	nop
    5184:	8d 74 26 00          	lea    0x0(%esi,%eiz,1),%esi
    5188:	8b 45 d0             	mov    -0x30(%ebp),%eax
    518b:	89 fa                	mov    %edi,%edx
    518d:	83 c0 03             	add    $0x3,%eax
    5190:	89 45 d0             	mov    %eax,-0x30(%ebp)
    5193:	89 f0                	mov    %esi,%eax
    5195:	0f a4 c2 05          	shld   $0x5,%eax,%edx
    5199:	c1 e0 05             	shl    $0x5,%eax
    519c:	29 f0                	sub    %esi,%eax
    519e:	19 fa                	sbb    %edi,%edx
    51a0:	0f a4 c2 02          	shld   $0x2,%eax,%edx
    51a4:	c1 e0 02             	shl    $0x2,%eax
    51a7:	01 f0                	add    %esi,%eax
    51a9:	11 fa                	adc    %edi,%edx
    51ab:	0f a4 c2 03          	shld   $0x3,%eax,%edx
    51af:	c1 e0 03             	shl    $0x3,%eax
    51b2:	52                   	push   %edx
    51b3:	89 45 b8             	mov    %eax,-0x48(%ebp)
    51b6:	89 c6                	mov    %eax,%esi
    51b8:	8d 43 01             	lea    0x1(%ebx),%eax
    51bb:	56                   	push   %esi
    51bc:	89 45 d4             	mov    %eax,-0x2c(%ebp)
    51bf:	8b 45 cc             	mov    -0x34(%ebp),%eax
    51c2:	50                   	push   %eax
    51c3:	8b 45 c8             	mov    -0x38(%ebp),%eax
    51c6:	50                   	push   %eax
    51c7:	89 55 bc             	mov    %edx,-0x44(%ebp)
    51ca:	89 d7                	mov    %edx,%edi
    51cc:	e8 1f 3c 00 00       	call   8df0 <__udivdi3@plt>
    51d1:	83 c4 10             	add    $0x10,%esp
    51d4:	3b 55 c4             	cmp    -0x3c(%ebp),%edx
    51d7:	77 24                	ja     51fd <fdisk_cap_simplify+0x18d>
    51d9:	73 1d                	jae    51f8 <fdisk_cap_simplify+0x188>
    51db:	8b 45 08             	mov    0x8(%ebp),%eax
    51de:	8b 7d d0             	mov    -0x30(%ebp),%edi
    51e1:	8b 55 bc             	mov    -0x44(%ebp),%edx
    51e4:	89 58 0c             	mov    %ebx,0xc(%eax)
    51e7:	89 78 08             	mov    %edi,0x8(%eax)
    51ea:	8b 45 b8             	mov    -0x48(%ebp),%eax
    51ed:	89 55 dc             	mov    %edx,-0x24(%ebp)
    51f0:	89 45 d8             	mov    %eax,-0x28(%ebp)
    51f3:	e9 f0 fe ff ff       	jmp    50e8 <fdisk_cap_simplify+0x78>
    51f8:	3b 45 c0             	cmp    -0x40(%ebp),%eax
    51fb:	72 de                	jb     51db <fdisk_cap_simplify+0x16b>
    51fd:	8b 5d d4             	mov    -0x2c(%ebp),%ebx
    5200:	eb 86                	jmp    5188 <fdisk_cap_simplify+0x118>
    5202:	8d b6 00 00 00 00    	lea    0x0(%esi),%esi
    5208:	89 c3                	mov    %eax,%ebx
    520a:	e9 04 ff ff ff       	jmp    5113 <fdisk_cap_simplify+0xa3>
    520f:	50                   	push   %eax
    5210:	68 9a 00 00 00       	push   $0x9a
    5215:	68 60 88 00 00       	push   $0x8860
    521a:	68 6a 88 00 00       	push   $0x886a
    521f:	e8 0c 3c 00 00       	call   8e30 <assert_abort@plt>
    5224:	56                   	push   %esi
    5225:	68 97 00 00 00       	push   $0x97
    522a:	68 60 88 00 00       	push   $0x8860
    522f:	68 6a 88 00 00       	push   $0x886a
    5234:	e8 f7 3b 00 00       	call   8e30 <assert_abort@plt>
    5239:	51                   	push   %ecx
    523a:	68 ab 00 00 00       	push   $0xab
    523f:	68 60 88 00 00       	push   $0x8860
    5244:	68 6a 88 00 00       	push   $0x886a
    5249:	e8 e2 3b 00 00       	call   8e30 <assert_abort@plt>
    524e:	66 90                	xchg   %ax,%ax

00005250 <fdisk_cap_format>:
    5250:	55                   	push   %ebp
    5251:	89 e5                	mov    %esp,%ebp
    5253:	57                   	push   %edi
    5254:	56                   	push   %esi
    5255:	53                   	push   %ebx
    5256:	83 ec 3c             	sub    $0x3c,%esp
    5259:	8b 5d 08             	mov    0x8(%ebp),%ebx
    525c:	83 7b 0c 08          	cmpl   $0x8,0xc(%ebx)
    5260:	0f 87 c8 00 00 00    	ja     532e <fdisk_cap_format+0xde>
    5266:	50                   	push   %eax
    5267:	50                   	push   %eax
    5268:	8d 45 e0             	lea    -0x20(%ebp),%eax
    526b:	50                   	push   %eax
    526c:	8b 43 08             	mov    0x8(%ebx),%eax
    526f:	50                   	push   %eax
    5270:	e8 0b 3d 00 00       	call   8f80 <ipow10_u64@plt>
    5275:	83 c4 10             	add    $0x10,%esp
    5278:	89 c1                	mov    %eax,%ecx
    527a:	85 c0                	test   %eax,%eax
    527c:	75 61                	jne    52df <fdisk_cap_format+0x8f>
    527e:	8b 53 04             	mov    0x4(%ebx),%edx
    5281:	89 45 cc             	mov    %eax,-0x34(%ebp)
    5284:	8b 75 e0             	mov    -0x20(%ebp),%esi
    5287:	8b 03                	mov    (%ebx),%eax
    5289:	8b 7d e4             	mov    -0x1c(%ebp),%edi
    528c:	89 45 d0             	mov    %eax,-0x30(%ebp)
    528f:	57                   	push   %edi
    5290:	89 55 d4             	mov    %edx,-0x2c(%ebp)
    5293:	56                   	push   %esi
    5294:	52                   	push   %edx
    5295:	50                   	push   %eax
    5296:	e8 55 3b 00 00       	call   8df0 <__udivdi3@plt>
    529b:	89 45 c0             	mov    %eax,-0x40(%ebp)
    529e:	8b 43 0c             	mov    0xc(%ebx),%eax
    52a1:	8b 5b 08             	mov    0x8(%ebx),%ebx
    52a4:	83 c4 10             	add    $0x10,%esp
    52a7:	89 55 c4             	mov    %edx,-0x3c(%ebp)
    52aa:	8b 04 85 20 89 00 00 	mov    0x8920(,%eax,4),%eax
    52b1:	85 db                	test   %ebx,%ebx
    52b3:	8b 4d cc             	mov    -0x34(%ebp),%ecx
    52b6:	75 38                	jne    52f0 <fdisk_cap_format+0xa0>
    52b8:	83 ec 0c             	sub    $0xc,%esp
    52bb:	89 4d d0             	mov    %ecx,-0x30(%ebp)
    52be:	8b 55 c0             	mov    -0x40(%ebp),%edx
    52c1:	8b 4d 0c             	mov    0xc(%ebp),%ecx
    52c4:	50                   	push   %eax
    52c5:	8b 45 c4             	mov    -0x3c(%ebp),%eax
    52c8:	50                   	push   %eax
    52c9:	52                   	push   %edx
    52ca:	68 83 88 00 00       	push   $0x8883
    52cf:	51                   	push   %ecx
    52d0:	e8 4b 3c 00 00       	call   8f20 <asprintf@plt>
    52d5:	83 c4 20             	add    $0x20,%esp
    52d8:	8b 4d d0             	mov    -0x30(%ebp),%ecx
    52db:	85 c0                	test   %eax,%eax
    52dd:	78 48                	js     5327 <fdisk_cap_format+0xd7>
    52df:	8d 65 f4             	lea    -0xc(%ebp),%esp
    52e2:	89 c8                	mov    %ecx,%eax
    52e4:	5b                   	pop    %ebx
    52e5:	5e                   	pop    %esi
    52e6:	5f                   	pop    %edi
    52e7:	5d                   	pop    %ebp
    52e8:	c3                   	ret    
    52e9:	8d b4 26 00 00 00 00 	lea    0x0(%esi,%eiz,1),%esi
    52f0:	50                   	push   %eax
    52f1:	83 ec 0c             	sub    $0xc,%esp
    52f4:	57                   	push   %edi
    52f5:	8b 7d d0             	mov    -0x30(%ebp),%edi
    52f8:	56                   	push   %esi
    52f9:	8b 75 d4             	mov    -0x2c(%ebp),%esi
    52fc:	56                   	push   %esi
    52fd:	57                   	push   %edi
    52fe:	e8 dd 3a 00 00       	call   8de0 <__umoddi3@plt>
    5303:	83 c4 1c             	add    $0x1c,%esp
    5306:	52                   	push   %edx
    5307:	50                   	push   %eax
    5308:	8b 45 c4             	mov    -0x3c(%ebp),%eax
    530b:	53                   	push   %ebx
    530c:	50                   	push   %eax
    530d:	8b 45 c0             	mov    -0x40(%ebp),%eax
    5310:	50                   	push   %eax
    5311:	8b 45 0c             	mov    0xc(%ebp),%eax
    5314:	68 74 88 00 00       	push   $0x8874
    5319:	50                   	push   %eax
    531a:	e8 01 3c 00 00       	call   8f20 <asprintf@plt>
    531f:	83 c4 20             	add    $0x20,%esp
    5322:	8b 4d cc             	mov    -0x34(%ebp),%ecx
    5325:	eb b4                	jmp    52db <fdisk_cap_format+0x8b>
    5327:	b9 fe ff ff ff       	mov    $0xfffffffe,%ecx
    532c:	eb b1                	jmp    52df <fdisk_cap_format+0x8f>
    532e:	50                   	push   %eax
    532f:	68 bd 00 00 00       	push   $0xbd
    5334:	68 60 88 00 00       	push   $0x8860
    5339:	68 b9 85 00 00       	push   $0x85b9
    533e:	e8 ed 3a 00 00       	call   8e30 <assert_abort@plt>
    5343:	8d b6 00 00 00 00    	lea    0x0(%esi),%esi
    5349:	8d bc 27 00 00 00 00 	lea    0x0(%edi,%eiz,1),%edi

00005350 <fdisk_cap_parse>:
    5350:	55                   	push   %ebp
    5351:	89 e5                	mov    %esp,%ebp
    5353:	57                   	push   %edi
    5354:	56                   	push   %esi
    5355:	53                   	push   %ebx
    5356:	83 ec 1c             	sub    $0x1c,%esp
    5359:	31 ff                	xor    %edi,%edi
    535b:	8b 5d 08             	mov    0x8(%ebp),%ebx
    535e:	8a 0b                	mov    (%ebx),%cl
    5360:	8d 41 d0             	lea    -0x30(%ecx),%eax
    5363:	3c 09                	cmp    $0x9,%al
    5365:	77 29                	ja     5390 <fdisk_cap_parse+0x40>
    5367:	90                   	nop
    5368:	25 ff 00 00 00       	and    $0xff,%eax
    536d:	ff 24 85 c0 88 00 00 	jmp    *0x88c0(,%eax,4)
    5374:	8d 74 26 00          	lea    0x0(%esi,%eiz,1),%esi
    5378:	b8 01 00 00 00       	mov    $0x1,%eax
    537d:	8d 76 00             	lea    0x0(%esi),%esi
    5380:	43                   	inc    %ebx
    5381:	8d 14 bf             	lea    (%edi,%edi,4),%edx
    5384:	8a 0b                	mov    (%ebx),%cl
    5386:	8d 3c 50             	lea    (%eax,%edx,2),%edi
    5389:	8d 41 d0             	lea    -0x30(%ecx),%eax
    538c:	3c 09                	cmp    $0x9,%al
    538e:	76 d8                	jbe    5368 <fdisk_cap_parse+0x18>
    5390:	80 f9 2e             	cmp    $0x2e,%cl
    5393:	0f 84 2f 01 00 00    	je     54c8 <fdisk_cap_parse+0x178>
    5399:	c7 45 e4 00 00 00 00 	movl   $0x0,-0x1c(%ebp)
    53a0:	eb 09                	jmp    53ab <fdisk_cap_parse+0x5b>
    53a2:	8d b6 00 00 00 00    	lea    0x0(%esi),%esi
    53a8:	43                   	inc    %ebx
    53a9:	8a 0b                	mov    (%ebx),%cl
    53ab:	80 f9 20             	cmp    $0x20,%cl
    53ae:	74 f8                	je     53a8 <fdisk_cap_parse+0x58>
    53b0:	84 c9                	test   %cl,%cl
    53b2:	0f 85 90 00 00 00    	jne    5448 <fdisk_cap_parse+0xf8>
    53b8:	8b 45 0c             	mov    0xc(%ebp),%eax
    53bb:	c7 40 0c 00 00 00 00 	movl   $0x0,0xc(%eax)
    53c2:	8b 75 e4             	mov    -0x1c(%ebp),%esi
    53c5:	89 38                	mov    %edi,(%eax)
    53c7:	c7 40 04 00 00 00 00 	movl   $0x0,0x4(%eax)
    53ce:	89 70 08             	mov    %esi,0x8(%eax)
    53d1:	8d 65 f4             	lea    -0xc(%ebp),%esp
    53d4:	31 c0                	xor    %eax,%eax
    53d6:	5b                   	pop    %ebx
    53d7:	5e                   	pop    %esi
    53d8:	5f                   	pop    %edi
    53d9:	5d                   	pop    %ebp
    53da:	c3                   	ret    
    53db:	90                   	nop
    53dc:	8d 74 26 00          	lea    0x0(%esi,%eiz,1),%esi
    53e0:	b8 07 00 00 00       	mov    $0x7,%eax
    53e5:	eb 99                	jmp    5380 <fdisk_cap_parse+0x30>
    53e7:	90                   	nop
    53e8:	b8 04 00 00 00       	mov    $0x4,%eax
    53ed:	eb 91                	jmp    5380 <fdisk_cap_parse+0x30>
    53ef:	90                   	nop
    53f0:	b8 03 00 00 00       	mov    $0x3,%eax
    53f5:	eb 89                	jmp    5380 <fdisk_cap_parse+0x30>
    53f7:	90                   	nop
    53f8:	b8 02 00 00 00       	mov    $0x2,%eax
    53fd:	eb 81                	jmp    5380 <fdisk_cap_parse+0x30>
    53ff:	90                   	nop
    5400:	31 c0                	xor    %eax,%eax
    5402:	e9 79 ff ff ff       	jmp    5380 <fdisk_cap_parse+0x30>
    5407:	90                   	nop
    5408:	b8 08 00 00 00       	mov    $0x8,%eax
    540d:	e9 6e ff ff ff       	jmp    5380 <fdisk_cap_parse+0x30>
    5412:	8d b6 00 00 00 00    	lea    0x0(%esi),%esi
    5418:	b8 06 00 00 00       	mov    $0x6,%eax
    541d:	e9 5e ff ff ff       	jmp    5380 <fdisk_cap_parse+0x30>
    5422:	8d b6 00 00 00 00    	lea    0x0(%esi),%esi
    5428:	b8 05 00 00 00       	mov    $0x5,%eax
    542d:	e9 4e ff ff ff       	jmp    5380 <fdisk_cap_parse+0x30>
    5432:	8d b6 00 00 00 00    	lea    0x0(%esi),%esi
    5438:	b8 09 00 00 00       	mov    $0x9,%eax
    543d:	e9 3e ff ff ff       	jmp    5380 <fdisk_cap_parse+0x30>
    5442:	8d b6 00 00 00 00    	lea    0x0(%esi),%esi
    5448:	31 c9                	xor    %ecx,%ecx
    544a:	89 7d e0             	mov    %edi,-0x20(%ebp)
    544d:	89 cf                	mov    %ecx,%edi
    544f:	eb 0d                	jmp    545e <fdisk_cap_parse+0x10e>
    5451:	8d b4 26 00 00 00 00 	lea    0x0(%esi,%eiz,1),%esi
    5458:	47                   	inc    %edi
    5459:	83 ff 09             	cmp    $0x9,%edi
    545c:	74 5a                	je     54b8 <fdisk_cap_parse+0x168>
    545e:	83 ec 0c             	sub    $0xc,%esp
    5461:	8b 34 bd 20 89 00 00 	mov    0x8920(,%edi,4),%esi
    5468:	56                   	push   %esi
    5469:	e8 f2 3a 00 00       	call   8f60 <str_length@plt>
    546e:	83 c4 0c             	add    $0xc,%esp
    5471:	50                   	push   %eax
    5472:	56                   	push   %esi
    5473:	53                   	push   %ebx
    5474:	e8 e7 39 00 00       	call   8e60 <str_lcasecmp@plt>
    5479:	83 c4 10             	add    $0x10,%esp
    547c:	85 c0                	test   %eax,%eax
    547e:	75 d8                	jne    5458 <fdisk_cap_parse+0x108>
    5480:	83 ec 0c             	sub    $0xc,%esp
    5483:	56                   	push   %esi
    5484:	e8 c7 3a 00 00       	call   8f50 <str_size@plt>
    5489:	01 d8                	add    %ebx,%eax
    548b:	83 c4 10             	add    $0x10,%esp
    548e:	8a 10                	mov    (%eax),%dl
    5490:	80 fa 20             	cmp    $0x20,%dl
    5493:	75 0b                	jne    54a0 <fdisk_cap_parse+0x150>
    5495:	8d 76 00             	lea    0x0(%esi),%esi
    5498:	40                   	inc    %eax
    5499:	8a 10                	mov    (%eax),%dl
    549b:	80 fa 20             	cmp    $0x20,%dl
    549e:	74 f8                	je     5498 <fdisk_cap_parse+0x148>
    54a0:	84 d2                	test   %dl,%dl
    54a2:	75 b4                	jne    5458 <fdisk_cap_parse+0x108>
    54a4:	8b 45 0c             	mov    0xc(%ebp),%eax
    54a7:	89 f9                	mov    %edi,%ecx
    54a9:	8b 7d e0             	mov    -0x20(%ebp),%edi
    54ac:	89 48 0c             	mov    %ecx,0xc(%eax)
    54af:	e9 0e ff ff ff       	jmp    53c2 <fdisk_cap_parse+0x72>
    54b4:	8d 74 26 00          	lea    0x0(%esi,%eiz,1),%esi
    54b8:	8d 65 f4             	lea    -0xc(%ebp),%esp
    54bb:	b8 f2 ff ff ff       	mov    $0xfffffff2,%eax
    54c0:	5b                   	pop    %ebx
    54c1:	5e                   	pop    %esi
    54c2:	5f                   	pop    %edi
    54c3:	5d                   	pop    %ebp
    54c4:	c3                   	ret    
    54c5:	8d 76 00             	lea    0x0(%esi),%esi
    54c8:	43                   	inc    %ebx
    54c9:	8a 0b                	mov    (%ebx),%cl
    54cb:	31 d2                	xor    %edx,%edx
    54cd:	8d 41 d0             	lea    -0x30(%ecx),%eax
    54d0:	3c 09                	cmp    $0x9,%al
    54d2:	77 2d                	ja     5501 <fdisk_cap_parse+0x1b1>
    54d4:	8d 74 26 00          	lea    0x0(%esi,%eiz,1),%esi
    54d8:	25 ff 00 00 00       	and    $0xff,%eax
    54dd:	ff 24 85 e8 88 00 00 	jmp    *0x88e8(,%eax,4)
    54e4:	8d 74 26 00          	lea    0x0(%esi,%eiz,1),%esi
    54e8:	b9 01 00 00 00       	mov    $0x1,%ecx
    54ed:	8d 76 00             	lea    0x0(%esi),%esi
    54f0:	8d 04 bf             	lea    (%edi,%edi,4),%eax
    54f3:	43                   	inc    %ebx
    54f4:	42                   	inc    %edx
    54f5:	8d 3c 41             	lea    (%ecx,%eax,2),%edi
    54f8:	8a 0b                	mov    (%ebx),%cl
    54fa:	8d 41 d0             	lea    -0x30(%ecx),%eax
    54fd:	3c 09                	cmp    $0x9,%al
    54ff:	76 d7                	jbe    54d8 <fdisk_cap_parse+0x188>
    5501:	89 55 e4             	mov    %edx,-0x1c(%ebp)
    5504:	e9 a2 fe ff ff       	jmp    53ab <fdisk_cap_parse+0x5b>
    5509:	8d b4 26 00 00 00 00 	lea    0x0(%esi,%eiz,1),%esi
    5510:	31 c9                	xor    %ecx,%ecx
    5512:	eb dc                	jmp    54f0 <fdisk_cap_parse+0x1a0>
    5514:	8d 74 26 00          	lea    0x0(%esi,%eiz,1),%esi
    5518:	b9 09 00 00 00       	mov    $0x9,%ecx
    551d:	eb d1                	jmp    54f0 <fdisk_cap_parse+0x1a0>
    551f:	90                   	nop
    5520:	b9 08 00 00 00       	mov    $0x8,%ecx
    5525:	eb c9                	jmp    54f0 <fdisk_cap_parse+0x1a0>
    5527:	90                   	nop
    5528:	b9 07 00 00 00       	mov    $0x7,%ecx
    552d:	eb c1                	jmp    54f0 <fdisk_cap_parse+0x1a0>
    552f:	90                   	nop
    5530:	b9 06 00 00 00       	mov    $0x6,%ecx
    5535:	eb b9                	jmp    54f0 <fdisk_cap_parse+0x1a0>
    5537:	90                   	nop
    5538:	b9 05 00 00 00       	mov    $0x5,%ecx
    553d:	eb b1                	jmp    54f0 <fdisk_cap_parse+0x1a0>
    553f:	90                   	nop
    5540:	b9 04 00 00 00       	mov    $0x4,%ecx
    5545:	eb a9                	jmp    54f0 <fdisk_cap_parse+0x1a0>
    5547:	90                   	nop
    5548:	b9 03 00 00 00       	mov    $0x3,%ecx
    554d:	eb a1                	jmp    54f0 <fdisk_cap_parse+0x1a0>
    554f:	90                   	nop
    5550:	b9 02 00 00 00       	mov    $0x2,%ecx
    5555:	eb 99                	jmp    54f0 <fdisk_cap_parse+0x1a0>
    5557:	66 90                	xchg   %ax,%ax
    5559:	66 90                	xchg   %ax,%ax
    555b:	66 90                	xchg   %ax,%ax
    555d:	66 90                	xchg   %ax,%ax
    555f:	90                   	nop

00005560 <fdisk_part_add>:
    5560:	55                   	push   %ebp
    5561:	89 e5                	mov    %esp,%ebp
    5563:	57                   	push   %edi
    5564:	56                   	push   %esi
    5565:	53                   	push   %ebx
    5566:	83 ec 74             	sub    $0x74,%esp
    5569:	89 c7                	mov    %eax,%edi
    556b:	89 d6                	mov    %edx,%esi
    556d:	89 55 a0             	mov    %edx,-0x60(%ebp)
    5570:	6a 5c                	push   $0x5c
    5572:	89 4d 9c             	mov    %ecx,-0x64(%ebp)
    5575:	6a 01                	push   $0x1
    5577:	e8 c4 38 00 00       	call   8e40 <calloc@plt>
    557c:	83 c4 10             	add    $0x10,%esp
    557f:	85 c0                	test   %eax,%eax
    5581:	0f 84 12 03 00 00    	je     5899 <fdisk_part_add+0x339>
    5587:	89 c3                	mov    %eax,%ebx
    5589:	50                   	push   %eax
    558a:	8d 45 cc             	lea    -0x34(%ebp),%eax
    558d:	50                   	push   %eax
    558e:	8b 07                	mov    (%edi),%eax
    5590:	56                   	push   %esi
    5591:	8b 40 04             	mov    0x4(%eax),%eax
    5594:	50                   	push   %eax
    5595:	e8 d6 38 00 00       	call   8e70 <vbd_part_get_info@plt>
    559a:	83 c4 10             	add    $0x10,%esp
    559d:	89 45 a4             	mov    %eax,-0x5c(%ebp)
    55a0:	85 c0                	test   %eax,%eax
    55a2:	0f 85 88 02 00 00    	jne    5830 <fdisk_part_add+0x2d0>
    55a8:	8b 45 e4             	mov    -0x1c(%ebp),%eax
    55ab:	85 c0                	test   %eax,%eax
    55ad:	0f 85 9d 01 00 00    	jne    5750 <fdisk_part_add+0x1f0>
    55b3:	8b 55 d8             	mov    -0x28(%ebp),%edx
    55b6:	8b 4d d4             	mov    -0x2c(%ebp),%ecx
    55b9:	89 55 a8             	mov    %edx,-0x58(%ebp)
    55bc:	89 53 4c             	mov    %edx,0x4c(%ebx)
    55bf:	8b 55 dc             	mov    -0x24(%ebp),%edx
    55c2:	8b 75 cc             	mov    -0x34(%ebp),%esi
    55c5:	89 4d b0             	mov    %ecx,-0x50(%ebp)
    55c8:	89 4b 48             	mov    %ecx,0x48(%ebx)
    55cb:	89 55 90             	mov    %edx,-0x70(%ebp)
    55ce:	8b 4d e0             	mov    -0x20(%ebp),%ecx
    55d1:	89 53 50             	mov    %edx,0x50(%ebx)
    55d4:	8b 55 d0             	mov    -0x30(%ebp),%edx
    55d7:	89 3b                	mov    %edi,(%ebx)
    55d9:	89 73 44             	mov    %esi,0x44(%ebx)
    55dc:	89 4d 94             	mov    %ecx,-0x6c(%ebp)
    55df:	89 4b 54             	mov    %ecx,0x54(%ebx)
    55e2:	89 55 98             	mov    %edx,-0x68(%ebp)
    55e5:	89 53 34             	mov    %edx,0x34(%ebx)
    55e8:	89 43 58             	mov    %eax,0x58(%ebx)
    55eb:	83 fa 01             	cmp    $0x1,%edx
    55ee:	0f 86 cc 00 00 00    	jbe    56c0 <fdisk_part_add+0x160>
    55f4:	83 fa 02             	cmp    $0x2,%edx
    55f7:	0f 85 a3 00 00 00    	jne    56a0 <fdisk_part_add+0x140>
    55fd:	8b 47 24             	mov    0x24(%edi),%eax
    5600:	8d 77 20             	lea    0x20(%edi),%esi
    5603:	39 f0                	cmp    %esi,%eax
    5605:	0f 84 47 02 00 00    	je     5852 <fdisk_part_add+0x2f2>
    560b:	85 c0                	test   %eax,%eax
    560d:	0f 84 3f 02 00 00    	je     5852 <fdisk_part_add+0x2f2>
    5613:	8d 50 e4             	lea    -0x1c(%eax),%edx
    5616:	8b 4d a8             	mov    -0x58(%ebp),%ecx
    5619:	3b 4a 4c             	cmp    0x4c(%edx),%ecx
    561c:	0f 83 ce 01 00 00    	jae    57f0 <fdisk_part_add+0x290>
    5622:	8d b6 00 00 00 00    	lea    0x0(%esi),%esi
    5628:	8d 4a 1c             	lea    0x1c(%edx),%ecx
    562b:	8d 43 1c             	lea    0x1c(%ebx),%eax
    562e:	89 4b 20             	mov    %ecx,0x20(%ebx)
    5631:	8b 4a 1c             	mov    0x1c(%edx),%ecx
    5634:	89 4b 1c             	mov    %ecx,0x1c(%ebx)
    5637:	8b 4a 1c             	mov    0x1c(%edx),%ecx
    563a:	89 41 04             	mov    %eax,0x4(%ecx)
    563d:	89 42 1c             	mov    %eax,0x1c(%edx)
    5640:	8d 57 08             	lea    0x8(%edi),%edx
    5643:	8d 43 04             	lea    0x4(%ebx),%eax
    5646:	89 53 08             	mov    %edx,0x8(%ebx)
    5649:	8b 57 08             	mov    0x8(%edi),%edx
    564c:	89 53 04             	mov    %edx,0x4(%ebx)
    564f:	89 42 04             	mov    %eax,0x4(%edx)
    5652:	89 47 08             	mov    %eax,0x8(%edi)
    5655:	8d 43 24             	lea    0x24(%ebx),%eax
    5658:	8b 55 94             	mov    -0x6c(%ebp),%edx
    565b:	50                   	push   %eax
    565c:	8b 4d 90             	mov    -0x70(%ebp),%ecx
    565f:	8b 47 44             	mov    0x44(%edi),%eax
    5662:	50                   	push   %eax
    5663:	52                   	push   %edx
    5664:	51                   	push   %ecx
    5665:	e8 f6 f7 ff ff       	call   4e60 <fdisk_cap_from_blocks>
    566a:	8b 45 a0             	mov    -0x60(%ebp),%eax
    566d:	83 c4 10             	add    $0x10,%esp
    5670:	89 43 40             	mov    %eax,0x40(%ebx)
    5673:	8b 45 9c             	mov    -0x64(%ebp),%eax
    5676:	85 c0                	test   %eax,%eax
    5678:	74 02                	je     567c <fdisk_part_add+0x11c>
    567a:	89 18                	mov    %ebx,(%eax)
    567c:	8b 45 a4             	mov    -0x5c(%ebp),%eax
    567f:	8d 65 f4             	lea    -0xc(%ebp),%esp
    5682:	5b                   	pop    %ebx
    5683:	5e                   	pop    %esi
    5684:	5f                   	pop    %edi
    5685:	5d                   	pop    %ebp
    5686:	c3                   	ret    
    5687:	90                   	nop
    5688:	8d 4a 0c             	lea    0xc(%edx),%ecx
    568b:	8d 43 0c             	lea    0xc(%ebx),%eax
    568e:	89 4b 10             	mov    %ecx,0x10(%ebx)
    5691:	8b 4a 0c             	mov    0xc(%edx),%ecx
    5694:	89 4b 0c             	mov    %ecx,0xc(%ebx)
    5697:	8b 4a 0c             	mov    0xc(%edx),%ecx
    569a:	89 41 04             	mov    %eax,0x4(%ecx)
    569d:	89 42 0c             	mov    %eax,0xc(%edx)
    56a0:	8d 57 08             	lea    0x8(%edi),%edx
    56a3:	8d 43 04             	lea    0x4(%ebx),%eax
    56a6:	89 53 08             	mov    %edx,0x8(%ebx)
    56a9:	8b 57 08             	mov    0x8(%edi),%edx
    56ac:	89 53 04             	mov    %edx,0x4(%ebx)
    56af:	83 7d 98 01          	cmpl   $0x1,-0x68(%ebp)
    56b3:	89 42 04             	mov    %eax,0x4(%edx)
    56b6:	89 47 08             	mov    %eax,0x8(%edi)
    56b9:	75 9a                	jne    5655 <fdisk_part_add+0xf5>
    56bb:	89 5f 28             	mov    %ebx,0x28(%edi)
    56be:	eb 95                	jmp    5655 <fdisk_part_add+0xf5>
    56c0:	8d 4f 18             	lea    0x18(%edi),%ecx
    56c3:	8b 47 1c             	mov    0x1c(%edi),%eax
    56c6:	89 4d b4             	mov    %ecx,-0x4c(%ebp)
    56c9:	39 c8                	cmp    %ecx,%eax
    56cb:	0f 84 b1 01 00 00    	je     5882 <fdisk_part_add+0x322>
    56d1:	85 c0                	test   %eax,%eax
    56d3:	0f 84 a9 01 00 00    	je     5882 <fdisk_part_add+0x322>
    56d9:	8d 50 ec             	lea    -0x14(%eax),%edx
    56dc:	8b 4d a8             	mov    -0x58(%ebp),%ecx
    56df:	3b 4a 4c             	cmp    0x4c(%edx),%ecx
    56e2:	0f 83 b8 00 00 00    	jae    57a0 <fdisk_part_add+0x240>
    56e8:	8d 4a 14             	lea    0x14(%edx),%ecx
    56eb:	8d 43 14             	lea    0x14(%ebx),%eax
    56ee:	89 4b 18             	mov    %ecx,0x18(%ebx)
    56f1:	8b 4a 14             	mov    0x14(%edx),%ecx
    56f4:	89 4b 14             	mov    %ecx,0x14(%ebx)
    56f7:	8b 4a 14             	mov    0x14(%edx),%ecx
    56fa:	89 41 04             	mov    %eax,0x4(%ecx)
    56fd:	89 42 14             	mov    %eax,0x14(%edx)
    5700:	8b 47 14             	mov    0x14(%edi),%eax
    5703:	8d 4f 10             	lea    0x10(%edi),%ecx
    5706:	39 c8                	cmp    %ecx,%eax
    5708:	74 2d                	je     5737 <fdisk_part_add+0x1d7>
    570a:	85 c0                	test   %eax,%eax
    570c:	74 29                	je     5737 <fdisk_part_add+0x1d7>
    570e:	8d 50 f4             	lea    -0xc(%eax),%edx
    5711:	3b 72 44             	cmp    0x44(%edx),%esi
    5714:	7d 1a                	jge    5730 <fdisk_part_add+0x1d0>
    5716:	e9 6d ff ff ff       	jmp    5688 <fdisk_part_add+0x128>
    571b:	90                   	nop
    571c:	8d 74 26 00          	lea    0x0(%esi,%eiz,1),%esi
    5720:	85 c0                	test   %eax,%eax
    5722:	74 13                	je     5737 <fdisk_part_add+0x1d7>
    5724:	8d 50 f4             	lea    -0xc(%eax),%edx
    5727:	3b 70 38             	cmp    0x38(%eax),%esi
    572a:	0f 8c 58 ff ff ff    	jl     5688 <fdisk_part_add+0x128>
    5730:	8b 40 04             	mov    0x4(%eax),%eax
    5733:	39 c1                	cmp    %eax,%ecx
    5735:	75 e9                	jne    5720 <fdisk_part_add+0x1c0>
    5737:	8b 57 10             	mov    0x10(%edi),%edx
    573a:	8d 43 0c             	lea    0xc(%ebx),%eax
    573d:	89 4b 10             	mov    %ecx,0x10(%ebx)
    5740:	89 53 0c             	mov    %edx,0xc(%ebx)
    5743:	89 42 04             	mov    %eax,0x4(%edx)
    5746:	89 47 10             	mov    %eax,0x10(%edi)
    5749:	e9 52 ff ff ff       	jmp    56a0 <fdisk_part_add+0x140>
    574e:	66 90                	xchg   %ax,%ax
    5750:	52                   	push   %edx
    5751:	52                   	push   %edx
    5752:	50                   	push   %eax
    5753:	8b 07                	mov    (%edi),%eax
    5755:	8b 08                	mov    (%eax),%ecx
    5757:	51                   	push   %ecx
    5758:	e8 d3 37 00 00       	call   8f30 <vol_part_add@plt>
    575d:	83 c4 10             	add    $0x10,%esp
    5760:	85 c0                	test   %eax,%eax
    5762:	74 09                	je     576d <fdisk_part_add+0x20d>
    5764:	83 f8 f7             	cmp    $0xfffffff7,%eax
    5767:	0f 85 c3 00 00 00    	jne    5830 <fdisk_part_add+0x2d0>
    576d:	8d 45 c4             	lea    -0x3c(%ebp),%eax
    5770:	56                   	push   %esi
    5771:	50                   	push   %eax
    5772:	8b 45 e4             	mov    -0x1c(%ebp),%eax
    5775:	50                   	push   %eax
    5776:	8b 07                	mov    (%edi),%eax
    5778:	8b 00                	mov    (%eax),%eax
    577a:	50                   	push   %eax
    577b:	e8 50 38 00 00       	call   8fd0 <vol_part_info@plt>
    5780:	83 c4 10             	add    $0x10,%esp
    5783:	85 c0                	test   %eax,%eax
    5785:	0f 85 a5 00 00 00    	jne    5830 <fdisk_part_add+0x2d0>
    578b:	8b 45 c4             	mov    -0x3c(%ebp),%eax
    578e:	89 43 38             	mov    %eax,0x38(%ebx)
    5791:	8b 45 c8             	mov    -0x38(%ebp),%eax
    5794:	89 43 3c             	mov    %eax,0x3c(%ebx)
    5797:	8b 45 e4             	mov    -0x1c(%ebp),%eax
    579a:	e9 14 fe ff ff       	jmp    55b3 <fdisk_part_add+0x53>
    579f:	90                   	nop
    57a0:	77 0c                	ja     57ae <fdisk_part_add+0x24e>
    57a2:	8b 4d b0             	mov    -0x50(%ebp),%ecx
    57a5:	3b 4a 48             	cmp    0x48(%edx),%ecx
    57a8:	0f 82 3a ff ff ff    	jb     56e8 <fdisk_part_add+0x188>
    57ae:	8b 40 04             	mov    0x4(%eax),%eax
    57b1:	39 45 b4             	cmp    %eax,-0x4c(%ebp)
    57b4:	0f 84 c5 00 00 00    	je     587f <fdisk_part_add+0x31f>
    57ba:	89 5d ac             	mov    %ebx,-0x54(%ebp)
    57bd:	8b 4d a8             	mov    -0x58(%ebp),%ecx
    57c0:	85 c0                	test   %eax,%eax
    57c2:	0f 84 b4 00 00 00    	je     587c <fdisk_part_add+0x31c>
    57c8:	8d 50 ec             	lea    -0x14(%eax),%edx
    57cb:	3b 4a 4c             	cmp    0x4c(%edx),%ecx
    57ce:	0f 87 9c 00 00 00    	ja     5870 <fdisk_part_add+0x310>
    57d4:	72 0c                	jb     57e2 <fdisk_part_add+0x282>
    57d6:	8b 5d b0             	mov    -0x50(%ebp),%ebx
    57d9:	3b 5a 48             	cmp    0x48(%edx),%ebx
    57dc:	0f 83 8e 00 00 00    	jae    5870 <fdisk_part_add+0x310>
    57e2:	8b 5d ac             	mov    -0x54(%ebp),%ebx
    57e5:	e9 fe fe ff ff       	jmp    56e8 <fdisk_part_add+0x188>
    57ea:	8d b6 00 00 00 00    	lea    0x0(%esi),%esi
    57f0:	77 0c                	ja     57fe <fdisk_part_add+0x29e>
    57f2:	8b 4d b0             	mov    -0x50(%ebp),%ecx
    57f5:	3b 4a 48             	cmp    0x48(%edx),%ecx
    57f8:	0f 82 2a fe ff ff    	jb     5628 <fdisk_part_add+0xc8>
    57fe:	8b 40 04             	mov    0x4(%eax),%eax
    5801:	39 c6                	cmp    %eax,%esi
    5803:	74 4d                	je     5852 <fdisk_part_add+0x2f2>
    5805:	89 5d b4             	mov    %ebx,-0x4c(%ebp)
    5808:	8b 4d a8             	mov    -0x58(%ebp),%ecx
    580b:	90                   	nop
    580c:	8d 74 26 00          	lea    0x0(%esi,%eiz,1),%esi
    5810:	85 c0                	test   %eax,%eax
    5812:	74 3b                	je     584f <fdisk_part_add+0x2ef>
    5814:	8d 50 e4             	lea    -0x1c(%eax),%edx
    5817:	3b 4a 4c             	cmp    0x4c(%edx),%ecx
    581a:	77 2c                	ja     5848 <fdisk_part_add+0x2e8>
    581c:	72 08                	jb     5826 <fdisk_part_add+0x2c6>
    581e:	8b 5d b0             	mov    -0x50(%ebp),%ebx
    5821:	3b 5a 48             	cmp    0x48(%edx),%ebx
    5824:	73 22                	jae    5848 <fdisk_part_add+0x2e8>
    5826:	8b 5d b4             	mov    -0x4c(%ebp),%ebx
    5829:	e9 fa fd ff ff       	jmp    5628 <fdisk_part_add+0xc8>
    582e:	66 90                	xchg   %ax,%ax
    5830:	83 ec 0c             	sub    $0xc,%esp
    5833:	53                   	push   %ebx
    5834:	e8 a7 37 00 00       	call   8fe0 <free@plt>
    5839:	83 c4 10             	add    $0x10,%esp
    583c:	c7 45 a4 f6 fe ff ff 	movl   $0xfffffef6,-0x5c(%ebp)
    5843:	e9 34 fe ff ff       	jmp    567c <fdisk_part_add+0x11c>
    5848:	8b 40 04             	mov    0x4(%eax),%eax
    584b:	39 c6                	cmp    %eax,%esi
    584d:	75 c1                	jne    5810 <fdisk_part_add+0x2b0>
    584f:	8b 5d b4             	mov    -0x4c(%ebp),%ebx
    5852:	8b 57 20             	mov    0x20(%edi),%edx
    5855:	8d 43 1c             	lea    0x1c(%ebx),%eax
    5858:	89 73 20             	mov    %esi,0x20(%ebx)
    585b:	89 53 1c             	mov    %edx,0x1c(%ebx)
    585e:	89 42 04             	mov    %eax,0x4(%edx)
    5861:	89 47 20             	mov    %eax,0x20(%edi)
    5864:	e9 d7 fd ff ff       	jmp    5640 <fdisk_part_add+0xe0>
    5869:	8d b4 26 00 00 00 00 	lea    0x0(%esi,%eiz,1),%esi
    5870:	8b 40 04             	mov    0x4(%eax),%eax
    5873:	39 45 b4             	cmp    %eax,-0x4c(%ebp)
    5876:	0f 85 44 ff ff ff    	jne    57c0 <fdisk_part_add+0x260>
    587c:	8b 5d ac             	mov    -0x54(%ebp),%ebx
    587f:	8b 4d b4             	mov    -0x4c(%ebp),%ecx
    5882:	8b 57 18             	mov    0x18(%edi),%edx
    5885:	8d 43 14             	lea    0x14(%ebx),%eax
    5888:	89 4b 18             	mov    %ecx,0x18(%ebx)
    588b:	89 53 14             	mov    %edx,0x14(%ebx)
    588e:	89 42 04             	mov    %eax,0x4(%edx)
    5891:	89 47 18             	mov    %eax,0x18(%edi)
    5894:	e9 67 fe ff ff       	jmp    5700 <fdisk_part_add+0x1a0>
    5899:	c7 45 a4 fe ff ff ff 	movl   $0xfffffffe,-0x5c(%ebp)
    58a0:	e9 d7 fd ff ff       	jmp    567c <fdisk_part_add+0x11c>
    58a5:	8d 74 26 00          	lea    0x0(%esi,%eiz,1),%esi
    58a9:	8d bc 27 00 00 00 00 	lea    0x0(%edi,%eiz,1),%edi

000058b0 <fdisk_part_get_max_free_range>:
    58b0:	55                   	push   %ebp
    58b1:	89 e5                	mov    %esp,%ebp
    58b3:	57                   	push   %edi
    58b4:	56                   	push   %esi
    58b5:	53                   	push   %ebx
    58b6:	83 ec 4c             	sub    $0x4c,%esp
    58b9:	89 c7                	mov    %eax,%edi
    58bb:	89 45 ac             	mov    %eax,-0x54(%ebp)
    58be:	89 55 cc             	mov    %edx,-0x34(%ebp)
    58c1:	89 4d a8             	mov    %ecx,-0x58(%ebp)
    58c4:	85 d2                	test   %edx,%edx
    58c6:	0f 85 4c 02 00 00    	jne    5b18 <fdisk_part_get_max_free_range+0x268>
    58cc:	8b 40 50             	mov    0x50(%eax),%eax
    58cf:	8b 57 54             	mov    0x54(%edi),%edx
    58d2:	89 c3                	mov    %eax,%ebx
    58d4:	89 45 d0             	mov    %eax,-0x30(%ebp)
    58d7:	03 47 34             	add    0x34(%edi),%eax
    58da:	89 d6                	mov    %edx,%esi
    58dc:	89 55 d4             	mov    %edx,-0x2c(%ebp)
    58df:	13 57 38             	adc    0x38(%edi),%edx
    58e2:	83 c0 ff             	add    $0xffffffff,%eax
    58e5:	83 d2 ff             	adc    $0xffffffff,%edx
    58e8:	56                   	push   %esi
    58e9:	53                   	push   %ebx
    58ea:	52                   	push   %edx
    58eb:	50                   	push   %eax
    58ec:	e8 ff 34 00 00       	call   8df0 <__udivdi3@plt>
    58f1:	89 f1                	mov    %esi,%ecx
    58f3:	83 c4 10             	add    $0x10,%esp
    58f6:	0f af d3             	imul   %ebx,%edx
    58f9:	0f af c8             	imul   %eax,%ecx
    58fc:	01 d1                	add    %edx,%ecx
    58fe:	f7 e3                	mul    %ebx
    5900:	89 55 e4             	mov    %edx,-0x1c(%ebp)
    5903:	89 45 e0             	mov    %eax,-0x20(%ebp)
    5906:	8b 75 e4             	mov    -0x1c(%ebp),%esi
    5909:	89 f8                	mov    %edi,%eax
    590b:	01 ce                	add    %ecx,%esi
    590d:	8b 5f 1c             	mov    0x1c(%edi),%ebx
    5910:	83 c0 18             	add    $0x18,%eax
    5913:	89 75 e4             	mov    %esi,-0x1c(%ebp)
    5916:	39 c3                	cmp    %eax,%ebx
    5918:	0f 84 77 02 00 00    	je     5b95 <fdisk_part_get_max_free_range+0x2e5>
    591e:	85 db                	test   %ebx,%ebx
    5920:	0f 84 6f 02 00 00    	je     5b95 <fdisk_part_get_max_free_range+0x2e5>
    5926:	83 eb 14             	sub    $0x14,%ebx
    5929:	8b 45 d0             	mov    -0x30(%ebp),%eax
    592c:	8b 55 d4             	mov    -0x2c(%ebp),%edx
    592f:	83 c0 ff             	add    $0xffffffff,%eax
    5932:	c7 45 c8 00 00 00 00 	movl   $0x0,-0x38(%ebp)
    5939:	89 45 c0             	mov    %eax,-0x40(%ebp)
    593c:	8b 45 ac             	mov    -0x54(%ebp),%eax
    593f:	83 d2 ff             	adc    $0xffffffff,%edx
    5942:	c7 45 d8 00 00 00 00 	movl   $0x0,-0x28(%ebp)
    5949:	8d 78 20             	lea    0x20(%eax),%edi
    594c:	83 c0 18             	add    $0x18,%eax
    594f:	89 45 b8             	mov    %eax,-0x48(%ebp)
    5952:	c7 45 b0 00 00 00 00 	movl   $0x0,-0x50(%ebp)
    5959:	c7 45 b4 00 00 00 00 	movl   $0x0,-0x4c(%ebp)
    5960:	89 55 c4             	mov    %edx,-0x3c(%ebp)
    5963:	89 7d bc             	mov    %edi,-0x44(%ebp)
    5966:	89 5d dc             	mov    %ebx,-0x24(%ebp)
    5969:	89 d8                	mov    %ebx,%eax
    596b:	85 c0                	test   %eax,%eax
    596d:	0f 84 c5 00 00 00    	je     5a38 <fdisk_part_get_max_free_range+0x188>
    5973:	8b 70 48             	mov    0x48(%eax),%esi
    5976:	8b 78 4c             	mov    0x4c(%eax),%edi
    5979:	8b 55 d0             	mov    -0x30(%ebp),%edx
    597c:	8b 45 d4             	mov    -0x2c(%ebp),%eax
    597f:	50                   	push   %eax
    5980:	52                   	push   %edx
    5981:	57                   	push   %edi
    5982:	56                   	push   %esi
    5983:	e8 58 34 00 00       	call   8de0 <__umoddi3@plt>
    5988:	89 f1                	mov    %esi,%ecx
    598a:	83 c4 10             	add    $0x10,%esp
    598d:	89 fb                	mov    %edi,%ebx
    598f:	29 c1                	sub    %eax,%ecx
    5991:	19 d3                	sbb    %edx,%ebx
    5993:	89 c8                	mov    %ecx,%eax
    5995:	89 da                	mov    %ebx,%edx
    5997:	8b 5d e4             	mov    -0x1c(%ebp),%ebx
    599a:	8b 4d e0             	mov    -0x20(%ebp),%ecx
    599d:	39 da                	cmp    %ebx,%edx
    599f:	72 2a                	jb     59cb <fdisk_part_get_max_free_range+0x11b>
    59a1:	77 04                	ja     59a7 <fdisk_part_get_max_free_range+0xf7>
    59a3:	39 c8                	cmp    %ecx,%eax
    59a5:	72 24                	jb     59cb <fdisk_part_get_max_free_range+0x11b>
    59a7:	2b 45 e0             	sub    -0x20(%ebp),%eax
    59aa:	1b 55 e4             	sbb    -0x1c(%ebp),%edx
    59ad:	39 55 d8             	cmp    %edx,-0x28(%ebp)
    59b0:	72 07                	jb     59b9 <fdisk_part_get_max_free_range+0x109>
    59b2:	77 17                	ja     59cb <fdisk_part_get_max_free_range+0x11b>
    59b4:	39 45 c8             	cmp    %eax,-0x38(%ebp)
    59b7:	73 12                	jae    59cb <fdisk_part_get_max_free_range+0x11b>
    59b9:	89 45 c8             	mov    %eax,-0x38(%ebp)
    59bc:	89 55 d8             	mov    %edx,-0x28(%ebp)
    59bf:	8b 45 e0             	mov    -0x20(%ebp),%eax
    59c2:	8b 55 e4             	mov    -0x1c(%ebp),%edx
    59c5:	89 45 b0             	mov    %eax,-0x50(%ebp)
    59c8:	89 55 b4             	mov    %edx,-0x4c(%ebp)
    59cb:	8b 45 dc             	mov    -0x24(%ebp),%eax
    59ce:	03 75 c0             	add    -0x40(%ebp),%esi
    59d1:	13 7d c4             	adc    -0x3c(%ebp),%edi
    59d4:	03 70 50             	add    0x50(%eax),%esi
    59d7:	13 78 54             	adc    0x54(%eax),%edi
    59da:	8b 55 d0             	mov    -0x30(%ebp),%edx
    59dd:	8b 45 d4             	mov    -0x2c(%ebp),%eax
    59e0:	50                   	push   %eax
    59e1:	52                   	push   %edx
    59e2:	57                   	push   %edi
    59e3:	56                   	push   %esi
    59e4:	e8 07 34 00 00       	call   8df0 <__udivdi3@plt>
    59e9:	8b 7d d4             	mov    -0x2c(%ebp),%edi
    59ec:	89 c3                	mov    %eax,%ebx
    59ee:	8b 75 d0             	mov    -0x30(%ebp),%esi
    59f1:	89 f9                	mov    %edi,%ecx
    59f3:	89 d8                	mov    %ebx,%eax
    59f5:	0f af d6             	imul   %esi,%edx
    59f8:	0f af cb             	imul   %ebx,%ecx
    59fb:	01 d1                	add    %edx,%ecx
    59fd:	83 c4 10             	add    $0x10,%esp
    5a00:	f7 e6                	mul    %esi
    5a02:	89 55 e4             	mov    %edx,-0x1c(%ebp)
    5a05:	8b 75 cc             	mov    -0x34(%ebp),%esi
    5a08:	8b 5d e4             	mov    -0x1c(%ebp),%ebx
    5a0b:	89 45 e0             	mov    %eax,-0x20(%ebp)
    5a0e:	01 cb                	add    %ecx,%ebx
    5a10:	8b 45 dc             	mov    -0x24(%ebp),%eax
    5a13:	89 5d e4             	mov    %ebx,-0x1c(%ebp)
    5a16:	85 f6                	test   %esi,%esi
    5a18:	0f 85 b2 00 00 00    	jne    5ad0 <fdisk_part_get_max_free_range+0x220>
    5a1e:	8b 58 18             	mov    0x18(%eax),%ebx
    5a21:	3b 5d b8             	cmp    -0x48(%ebp),%ebx
    5a24:	74 22                	je     5a48 <fdisk_part_get_max_free_range+0x198>
    5a26:	85 db                	test   %ebx,%ebx
    5a28:	74 1e                	je     5a48 <fdisk_part_get_max_free_range+0x198>
    5a2a:	8d 43 ec             	lea    -0x14(%ebx),%eax
    5a2d:	89 45 dc             	mov    %eax,-0x24(%ebp)
    5a30:	85 c0                	test   %eax,%eax
    5a32:	0f 85 3b ff ff ff    	jne    5973 <fdisk_part_get_max_free_range+0xc3>
    5a38:	8b 45 cc             	mov    -0x34(%ebp),%eax
    5a3b:	85 c0                	test   %eax,%eax
    5a3d:	0f 85 a5 00 00 00    	jne    5ae8 <fdisk_part_get_max_free_range+0x238>
    5a43:	90                   	nop
    5a44:	8d 74 26 00          	lea    0x0(%esi,%eiz,1),%esi
    5a48:	8b 45 ac             	mov    -0x54(%ebp),%eax
    5a4b:	8b 70 3c             	mov    0x3c(%eax),%esi
    5a4e:	8b 78 40             	mov    0x40(%eax),%edi
    5a51:	03 70 34             	add    0x34(%eax),%esi
    5a54:	13 78 38             	adc    0x38(%eax),%edi
    5a57:	8b 45 d4             	mov    -0x2c(%ebp),%eax
    5a5a:	50                   	push   %eax
    5a5b:	8b 45 d0             	mov    -0x30(%ebp),%eax
    5a5e:	50                   	push   %eax
    5a5f:	57                   	push   %edi
    5a60:	56                   	push   %esi
    5a61:	e8 7a 33 00 00       	call   8de0 <__umoddi3@plt>
    5a66:	83 c4 10             	add    $0x10,%esp
    5a69:	29 c6                	sub    %eax,%esi
    5a6b:	19 d7                	sbb    %edx,%edi
    5a6d:	8b 55 e4             	mov    -0x1c(%ebp),%edx
    5a70:	8b 45 e0             	mov    -0x20(%ebp),%eax
    5a73:	39 fa                	cmp    %edi,%edx
    5a75:	77 17                	ja     5a8e <fdisk_part_get_max_free_range+0x1de>
    5a77:	0f 83 0b 01 00 00    	jae    5b88 <fdisk_part_get_max_free_range+0x2d8>
    5a7d:	2b 75 e0             	sub    -0x20(%ebp),%esi
    5a80:	1b 7d e4             	sbb    -0x1c(%ebp),%edi
    5a83:	3b 7d d8             	cmp    -0x28(%ebp),%edi
    5a86:	77 18                	ja     5aa0 <fdisk_part_get_max_free_range+0x1f0>
    5a88:	0f 83 ea 00 00 00    	jae    5b78 <fdisk_part_get_max_free_range+0x2c8>
    5a8e:	8b 45 b0             	mov    -0x50(%ebp),%eax
    5a91:	8b 55 b4             	mov    -0x4c(%ebp),%edx
    5a94:	8b 75 c8             	mov    -0x38(%ebp),%esi
    5a97:	8b 7d d8             	mov    -0x28(%ebp),%edi
    5a9a:	89 45 e0             	mov    %eax,-0x20(%ebp)
    5a9d:	89 55 e4             	mov    %edx,-0x1c(%ebp)
    5aa0:	89 fa                	mov    %edi,%edx
    5aa2:	09 f2                	or     %esi,%edx
    5aa4:	0f 84 f2 00 00 00    	je     5b9c <fdisk_part_get_max_free_range+0x2ec>
    5aaa:	8b 5d a8             	mov    -0x58(%ebp),%ebx
    5aad:	8b 45 e0             	mov    -0x20(%ebp),%eax
    5ab0:	8b 55 e4             	mov    -0x1c(%ebp),%edx
    5ab3:	89 03                	mov    %eax,(%ebx)
    5ab5:	8b 45 08             	mov    0x8(%ebp),%eax
    5ab8:	89 53 04             	mov    %edx,0x4(%ebx)
    5abb:	89 30                	mov    %esi,(%eax)
    5abd:	89 78 04             	mov    %edi,0x4(%eax)
    5ac0:	31 c0                	xor    %eax,%eax
    5ac2:	8d 65 f4             	lea    -0xc(%ebp),%esp
    5ac5:	5b                   	pop    %ebx
    5ac6:	5e                   	pop    %esi
    5ac7:	5f                   	pop    %edi
    5ac8:	5d                   	pop    %ebp
    5ac9:	c3                   	ret    
    5aca:	8d b6 00 00 00 00    	lea    0x0(%esi),%esi
    5ad0:	8b 58 20             	mov    0x20(%eax),%ebx
    5ad3:	3b 5d bc             	cmp    -0x44(%ebp),%ebx
    5ad6:	74 10                	je     5ae8 <fdisk_part_get_max_free_range+0x238>
    5ad8:	85 db                	test   %ebx,%ebx
    5ada:	74 0c                	je     5ae8 <fdisk_part_get_max_free_range+0x238>
    5adc:	8d 43 e4             	lea    -0x1c(%ebx),%eax
    5adf:	89 45 dc             	mov    %eax,-0x24(%ebp)
    5ae2:	e9 84 fe ff ff       	jmp    596b <fdisk_part_get_max_free_range+0xbb>
    5ae7:	90                   	nop
    5ae8:	8b 45 ac             	mov    -0x54(%ebp),%eax
    5aeb:	8b 40 28             	mov    0x28(%eax),%eax
    5aee:	8b 70 50             	mov    0x50(%eax),%esi
    5af1:	8b 78 54             	mov    0x54(%eax),%edi
    5af4:	03 70 48             	add    0x48(%eax),%esi
    5af7:	13 78 4c             	adc    0x4c(%eax),%edi
    5afa:	8b 45 d4             	mov    -0x2c(%ebp),%eax
    5afd:	50                   	push   %eax
    5afe:	8b 45 d0             	mov    -0x30(%ebp),%eax
    5b01:	50                   	push   %eax
    5b02:	57                   	push   %edi
    5b03:	56                   	push   %esi
    5b04:	e8 d7 32 00 00       	call   8de0 <__umoddi3@plt>
    5b09:	83 c4 10             	add    $0x10,%esp
    5b0c:	29 c6                	sub    %eax,%esi
    5b0e:	19 d7                	sbb    %edx,%edi
    5b10:	e9 58 ff ff ff       	jmp    5a6d <fdisk_part_get_max_free_range+0x1bd>
    5b15:	8d 76 00             	lea    0x0(%esi),%esi
    5b18:	8b 50 54             	mov    0x54(%eax),%edx
    5b1b:	8b 40 50             	mov    0x50(%eax),%eax
    5b1e:	89 c3                	mov    %eax,%ebx
    5b20:	8b 4f 28             	mov    0x28(%edi),%ecx
    5b23:	89 45 d0             	mov    %eax,-0x30(%ebp)
    5b26:	89 d8                	mov    %ebx,%eax
    5b28:	83 c0 ff             	add    $0xffffffff,%eax
    5b2b:	89 d6                	mov    %edx,%esi
    5b2d:	89 55 d4             	mov    %edx,-0x2c(%ebp)
    5b30:	83 d2 ff             	adc    $0xffffffff,%edx
    5b33:	03 41 48             	add    0x48(%ecx),%eax
    5b36:	13 51 4c             	adc    0x4c(%ecx),%edx
    5b39:	56                   	push   %esi
    5b3a:	53                   	push   %ebx
    5b3b:	52                   	push   %edx
    5b3c:	50                   	push   %eax
    5b3d:	e8 ae 32 00 00       	call   8df0 <__udivdi3@plt>
    5b42:	89 f1                	mov    %esi,%ecx
    5b44:	83 c4 10             	add    $0x10,%esp
    5b47:	0f af d3             	imul   %ebx,%edx
    5b4a:	0f af c8             	imul   %eax,%ecx
    5b4d:	01 d1                	add    %edx,%ecx
    5b4f:	f7 e3                	mul    %ebx
    5b51:	89 55 e4             	mov    %edx,-0x1c(%ebp)
    5b54:	89 45 e0             	mov    %eax,-0x20(%ebp)
    5b57:	8b 5d e4             	mov    -0x1c(%ebp),%ebx
    5b5a:	89 f8                	mov    %edi,%eax
    5b5c:	01 cb                	add    %ecx,%ebx
    5b5e:	89 5d e4             	mov    %ebx,-0x1c(%ebp)
    5b61:	8b 5f 24             	mov    0x24(%edi),%ebx
    5b64:	85 db                	test   %ebx,%ebx
    5b66:	74 2d                	je     5b95 <fdisk_part_get_max_free_range+0x2e5>
    5b68:	83 c0 20             	add    $0x20,%eax
    5b6b:	39 c3                	cmp    %eax,%ebx
    5b6d:	74 26                	je     5b95 <fdisk_part_get_max_free_range+0x2e5>
    5b6f:	83 eb 1c             	sub    $0x1c,%ebx
    5b72:	e9 b2 fd ff ff       	jmp    5929 <fdisk_part_get_max_free_range+0x79>
    5b77:	90                   	nop
    5b78:	3b 75 c8             	cmp    -0x38(%ebp),%esi
    5b7b:	0f 87 1f ff ff ff    	ja     5aa0 <fdisk_part_get_max_free_range+0x1f0>
    5b81:	e9 08 ff ff ff       	jmp    5a8e <fdisk_part_get_max_free_range+0x1de>
    5b86:	66 90                	xchg   %ax,%ax
    5b88:	39 f0                	cmp    %esi,%eax
    5b8a:	0f 87 fe fe ff ff    	ja     5a8e <fdisk_part_get_max_free_range+0x1de>
    5b90:	e9 e8 fe ff ff       	jmp    5a7d <fdisk_part_get_max_free_range+0x1cd>
    5b95:	31 db                	xor    %ebx,%ebx
    5b97:	e9 8d fd ff ff       	jmp    5929 <fdisk_part_get_max_free_range+0x79>
    5b9c:	b8 fd fe ff ff       	mov    $0xfffffefd,%eax
    5ba1:	e9 1c ff ff ff       	jmp    5ac2 <fdisk_part_get_max_free_range+0x212>
    5ba6:	8d 76 00             	lea    0x0(%esi),%esi
    5ba9:	8d bc 27 00 00 00 00 	lea    0x0(%edi,%eiz,1),%edi

00005bb0 <fdisk_dev_add_parts>:
    5bb0:	55                   	push   %ebp
    5bb1:	89 e5                	mov    %esp,%ebp
    5bb3:	57                   	push   %edi
    5bb4:	56                   	push   %esi
    5bb5:	53                   	push   %ebx
    5bb6:	83 ec 30             	sub    $0x30,%esp
    5bb9:	89 c3                	mov    %eax,%ebx
    5bbb:	83 c0 2c             	add    $0x2c,%eax
    5bbe:	c7 45 e0 00 00 00 00 	movl   $0x0,-0x20(%ebp)
    5bc5:	50                   	push   %eax
    5bc6:	8b 43 04             	mov    0x4(%ebx),%eax
    5bc9:	50                   	push   %eax
    5bca:	8b 03                	mov    (%ebx),%eax
    5bcc:	8b 40 04             	mov    0x4(%eax),%eax
    5bcf:	50                   	push   %eax
    5bd0:	e8 5b 31 00 00       	call   8d30 <vbd_disk_info@plt>
    5bd5:	83 c4 10             	add    $0x10,%esp
    5bd8:	85 c0                	test   %eax,%eax
    5bda:	0f 85 b8 00 00 00    	jne    5c98 <fdisk_dev_add_parts+0xe8>
    5be0:	8b 4b 44             	mov    0x44(%ebx),%ecx
    5be3:	8b 43 40             	mov    0x40(%ebx),%eax
    5be6:	0f af c1             	imul   %ecx,%eax
    5be9:	89 45 d4             	mov    %eax,-0x2c(%ebp)
    5bec:	89 c8                	mov    %ecx,%eax
    5bee:	f7 63 3c             	mull   0x3c(%ebx)
    5bf1:	8b 7d d4             	mov    -0x2c(%ebp),%edi
    5bf4:	89 c6                	mov    %eax,%esi
    5bf6:	01 d7                	add    %edx,%edi
    5bf8:	89 fa                	mov    %edi,%edx
    5bfa:	0f ac d0 14          	shrd   $0x14,%edx,%eax
    5bfe:	c1 ea 14             	shr    $0x14,%edx
    5c01:	83 fa 00             	cmp    $0x0,%edx
    5c04:	77 0b                	ja     5c11 <fdisk_dev_add_parts+0x61>
    5c06:	3d ff 00 00 00       	cmp    $0xff,%eax
    5c0b:	0f 86 8f 01 00 00    	jbe    5da0 <fdisk_dev_add_parts+0x1f0>
    5c11:	b8 00 00 10 00       	mov    $0x100000,%eax
    5c16:	66 90                	xchg   %ax,%ax
    5c18:	31 d2                	xor    %edx,%edx
    5c1a:	f7 f1                	div    %ecx
    5c1c:	85 c0                	test   %eax,%eax
    5c1e:	0f 85 0c 02 00 00    	jne    5e30 <fdisk_dev_add_parts+0x280>
    5c24:	c7 43 50 01 00 00 00 	movl   $0x1,0x50(%ebx)
    5c2b:	c7 43 54 00 00 00 00 	movl   $0x0,0x54(%ebx)
    5c32:	8d 45 e4             	lea    -0x1c(%ebp),%eax
    5c35:	8b 53 04             	mov    0x4(%ebx),%edx
    5c38:	50                   	push   %eax
    5c39:	8d 45 e0             	lea    -0x20(%ebp),%eax
    5c3c:	50                   	push   %eax
    5c3d:	8b 03                	mov    (%ebx),%eax
    5c3f:	52                   	push   %edx
    5c40:	8b 48 04             	mov    0x4(%eax),%ecx
    5c43:	51                   	push   %ecx
    5c44:	e8 37 30 00 00       	call   8c80 <vbd_label_get_parts@plt>
    5c49:	83 c4 10             	add    $0x10,%esp
    5c4c:	85 c0                	test   %eax,%eax
    5c4e:	75 48                	jne    5c98 <fdisk_dev_add_parts+0xe8>
    5c50:	8b 45 e4             	mov    -0x1c(%ebp),%eax
    5c53:	31 f6                	xor    %esi,%esi
    5c55:	85 c0                	test   %eax,%eax
    5c57:	74 22                	je     5c7b <fdisk_dev_add_parts+0xcb>
    5c59:	8d b4 26 00 00 00 00 	lea    0x0(%esi,%eiz,1),%esi
    5c60:	8b 45 e0             	mov    -0x20(%ebp),%eax
    5c63:	31 c9                	xor    %ecx,%ecx
    5c65:	8b 14 b0             	mov    (%eax,%esi,4),%edx
    5c68:	89 d8                	mov    %ebx,%eax
    5c6a:	e8 f1 f8 ff ff       	call   5560 <fdisk_part_add>
    5c6f:	89 c7                	mov    %eax,%edi
    5c71:	85 c0                	test   %eax,%eax
    5c73:	75 28                	jne    5c9d <fdisk_dev_add_parts+0xed>
    5c75:	46                   	inc    %esi
    5c76:	39 75 e4             	cmp    %esi,-0x1c(%ebp)
    5c79:	77 e5                	ja     5c60 <fdisk_dev_add_parts+0xb0>
    5c7b:	83 ec 0c             	sub    $0xc,%esp
    5c7e:	8b 45 e0             	mov    -0x20(%ebp),%eax
    5c81:	31 ff                	xor    %edi,%edi
    5c83:	50                   	push   %eax
    5c84:	e8 57 33 00 00       	call   8fe0 <free@plt>
    5c89:	83 c4 10             	add    $0x10,%esp
    5c8c:	8d 65 f4             	lea    -0xc(%ebp),%esp
    5c8f:	89 f8                	mov    %edi,%eax
    5c91:	5b                   	pop    %ebx
    5c92:	5e                   	pop    %esi
    5c93:	5f                   	pop    %edi
    5c94:	5d                   	pop    %ebp
    5c95:	c3                   	ret    
    5c96:	66 90                	xchg   %ax,%ax
    5c98:	bf f6 fe ff ff       	mov    $0xfffffef6,%edi
    5c9d:	8b 53 0c             	mov    0xc(%ebx),%edx
    5ca0:	8d 73 08             	lea    0x8(%ebx),%esi
    5ca3:	39 f2                	cmp    %esi,%edx
    5ca5:	74 e5                	je     5c8c <fdisk_dev_add_parts+0xdc>
    5ca7:	90                   	nop
    5ca8:	85 d2                	test   %edx,%edx
    5caa:	74 e0                	je     5c8c <fdisk_dev_add_parts+0xdc>
    5cac:	83 ea 04             	sub    $0x4,%edx
    5caf:	74 db                	je     5c8c <fdisk_dev_add_parts+0xdc>
    5cb1:	8b 4a 04             	mov    0x4(%edx),%ecx
    5cb4:	85 c9                	test   %ecx,%ecx
    5cb6:	74 0f                	je     5cc7 <fdisk_dev_add_parts+0x117>
    5cb8:	8b 42 08             	mov    0x8(%edx),%eax
    5cbb:	85 c0                	test   %eax,%eax
    5cbd:	74 08                	je     5cc7 <fdisk_dev_add_parts+0x117>
    5cbf:	89 08                	mov    %ecx,(%eax)
    5cc1:	8b 4a 04             	mov    0x4(%edx),%ecx
    5cc4:	89 41 04             	mov    %eax,0x4(%ecx)
    5cc7:	8b 4a 14             	mov    0x14(%edx),%ecx
    5cca:	c7 42 04 00 00 00 00 	movl   $0x0,0x4(%edx)
    5cd1:	c7 42 08 00 00 00 00 	movl   $0x0,0x8(%edx)
    5cd8:	85 c9                	test   %ecx,%ecx
    5cda:	0f 84 90 00 00 00    	je     5d70 <fdisk_dev_add_parts+0x1c0>
    5ce0:	8b 42 18             	mov    0x18(%edx),%eax
    5ce3:	85 c0                	test   %eax,%eax
    5ce5:	0f 84 8c 00 00 00    	je     5d77 <fdisk_dev_add_parts+0x1c7>
    5ceb:	89 08                	mov    %ecx,(%eax)
    5ced:	8b 4a 14             	mov    0x14(%edx),%ecx
    5cf0:	89 41 04             	mov    %eax,0x4(%ecx)
    5cf3:	c7 42 14 00 00 00 00 	movl   $0x0,0x14(%edx)
    5cfa:	c7 42 18 00 00 00 00 	movl   $0x0,0x18(%edx)
    5d01:	8b 4a 0c             	mov    0xc(%edx),%ecx
    5d04:	85 c9                	test   %ecx,%ecx
    5d06:	74 78                	je     5d80 <fdisk_dev_add_parts+0x1d0>
    5d08:	8b 42 10             	mov    0x10(%edx),%eax
    5d0b:	85 c0                	test   %eax,%eax
    5d0d:	74 68                	je     5d77 <fdisk_dev_add_parts+0x1c7>
    5d0f:	89 08                	mov    %ecx,(%eax)
    5d11:	8b 4a 0c             	mov    0xc(%edx),%ecx
    5d14:	89 41 04             	mov    %eax,0x4(%ecx)
    5d17:	c7 42 0c 00 00 00 00 	movl   $0x0,0xc(%edx)
    5d1e:	c7 42 10 00 00 00 00 	movl   $0x0,0x10(%edx)
    5d25:	8b 4a 1c             	mov    0x1c(%edx),%ecx
    5d28:	85 c9                	test   %ecx,%ecx
    5d2a:	74 64                	je     5d90 <fdisk_dev_add_parts+0x1e0>
    5d2c:	8b 42 20             	mov    0x20(%edx),%eax
    5d2f:	85 c0                	test   %eax,%eax
    5d31:	74 44                	je     5d77 <fdisk_dev_add_parts+0x1c7>
    5d33:	89 08                	mov    %ecx,(%eax)
    5d35:	8b 4a 1c             	mov    0x1c(%edx),%ecx
    5d38:	89 41 04             	mov    %eax,0x4(%ecx)
    5d3b:	c7 42 1c 00 00 00 00 	movl   $0x0,0x1c(%edx)
    5d42:	c7 42 20 00 00 00 00 	movl   $0x0,0x20(%edx)
    5d49:	83 ec 0c             	sub    $0xc,%esp
    5d4c:	52                   	push   %edx
    5d4d:	e8 8e 32 00 00       	call   8fe0 <free@plt>
    5d52:	8b 53 0c             	mov    0xc(%ebx),%edx
    5d55:	83 c4 10             	add    $0x10,%esp
    5d58:	39 d6                	cmp    %edx,%esi
    5d5a:	0f 85 48 ff ff ff    	jne    5ca8 <fdisk_dev_add_parts+0xf8>
    5d60:	8d 65 f4             	lea    -0xc(%ebp),%esp
    5d63:	89 f8                	mov    %edi,%eax
    5d65:	5b                   	pop    %ebx
    5d66:	5e                   	pop    %esi
    5d67:	5f                   	pop    %edi
    5d68:	5d                   	pop    %ebp
    5d69:	c3                   	ret    
    5d6a:	8d b6 00 00 00 00    	lea    0x0(%esi),%esi
    5d70:	8b 42 18             	mov    0x18(%edx),%eax
    5d73:	85 c0                	test   %eax,%eax
    5d75:	74 8a                	je     5d01 <fdisk_dev_add_parts+0x151>
    5d77:	e8 3b 22 00 00       	call   7fb7 <link_used.part.2>
    5d7c:	8d 74 26 00          	lea    0x0(%esi,%eiz,1),%esi
    5d80:	8b 42 10             	mov    0x10(%edx),%eax
    5d83:	85 c0                	test   %eax,%eax
    5d85:	74 9e                	je     5d25 <fdisk_dev_add_parts+0x175>
    5d87:	e8 2b 22 00 00       	call   7fb7 <link_used.part.2>
    5d8c:	8d 74 26 00          	lea    0x0(%esi,%eiz,1),%esi
    5d90:	8b 42 20             	mov    0x20(%edx),%eax
    5d93:	85 c0                	test   %eax,%eax
    5d95:	74 b2                	je     5d49 <fdisk_dev_add_parts+0x199>
    5d97:	e8 1b 22 00 00       	call   7fb7 <link_used.part.2>
    5d9c:	8d 74 26 00          	lea    0x0(%esi,%eiz,1),%esi
    5da0:	89 fa                	mov    %edi,%edx
    5da2:	89 f0                	mov    %esi,%eax
    5da4:	0f ac d0 10          	shrd   $0x10,%edx,%eax
    5da8:	c1 ea 10             	shr    $0x10,%edx
    5dab:	83 fa 00             	cmp    $0x0,%edx
    5dae:	76 10                	jbe    5dc0 <fdisk_dev_add_parts+0x210>
    5db0:	b8 00 00 01 00       	mov    $0x10000,%eax
    5db5:	e9 5e fe ff ff       	jmp    5c18 <fdisk_dev_add_parts+0x68>
    5dba:	8d b6 00 00 00 00    	lea    0x0(%esi),%esi
    5dc0:	3d ff 00 00 00       	cmp    $0xff,%eax
    5dc5:	77 e9                	ja     5db0 <fdisk_dev_add_parts+0x200>
    5dc7:	89 fa                	mov    %edi,%edx
    5dc9:	89 f0                	mov    %esi,%eax
    5dcb:	0f ac d0 0c          	shrd   $0xc,%edx,%eax
    5dcf:	c1 ea 0c             	shr    $0xc,%edx
    5dd2:	83 fa 00             	cmp    $0x0,%edx
    5dd5:	76 11                	jbe    5de8 <fdisk_dev_add_parts+0x238>
    5dd7:	b8 00 10 00 00       	mov    $0x1000,%eax
    5ddc:	e9 37 fe ff ff       	jmp    5c18 <fdisk_dev_add_parts+0x68>
    5de1:	8d b4 26 00 00 00 00 	lea    0x0(%esi,%eiz,1),%esi
    5de8:	3d ff 00 00 00       	cmp    $0xff,%eax
    5ded:	77 e8                	ja     5dd7 <fdisk_dev_add_parts+0x227>
    5def:	89 fa                	mov    %edi,%edx
    5df1:	89 f0                	mov    %esi,%eax
    5df3:	0f ac d0 08          	shrd   $0x8,%edx,%eax
    5df7:	c1 ea 08             	shr    $0x8,%edx
    5dfa:	83 fa 00             	cmp    $0x0,%edx
    5dfd:	76 11                	jbe    5e10 <fdisk_dev_add_parts+0x260>
    5dff:	b8 00 01 00 00       	mov    $0x100,%eax
    5e04:	e9 0f fe ff ff       	jmp    5c18 <fdisk_dev_add_parts+0x68>
    5e09:	8d b4 26 00 00 00 00 	lea    0x0(%esi,%eiz,1),%esi
    5e10:	3d ff 00 00 00       	cmp    $0xff,%eax
    5e15:	77 e8                	ja     5dff <fdisk_dev_add_parts+0x24f>
    5e17:	0f ac fe 04          	shrd   $0x4,%edi,%esi
    5e1b:	c1 ef 04             	shr    $0x4,%edi
    5e1e:	83 ff 00             	cmp    $0x0,%edi
    5e21:	76 1d                	jbe    5e40 <fdisk_dev_add_parts+0x290>
    5e23:	b8 10 00 00 00       	mov    $0x10,%eax
    5e28:	e9 eb fd ff ff       	jmp    5c18 <fdisk_dev_add_parts+0x68>
    5e2d:	8d 76 00             	lea    0x0(%esi),%esi
    5e30:	89 43 50             	mov    %eax,0x50(%ebx)
    5e33:	c7 43 54 00 00 00 00 	movl   $0x0,0x54(%ebx)
    5e3a:	e9 f3 fd ff ff       	jmp    5c32 <fdisk_dev_add_parts+0x82>
    5e3f:	90                   	nop
    5e40:	b8 01 00 00 00       	mov    $0x1,%eax
    5e45:	81 fe ff 00 00 00    	cmp    $0xff,%esi
    5e4b:	0f 86 c7 fd ff ff    	jbe    5c18 <fdisk_dev_add_parts+0x68>
    5e51:	eb d0                	jmp    5e23 <fdisk_dev_add_parts+0x273>
    5e53:	8d b6 00 00 00 00    	lea    0x0(%esi),%esi
    5e59:	8d bc 27 00 00 00 00 	lea    0x0(%edi,%eiz,1),%edi

00005e60 <fdisk_create>:
    5e60:	55                   	push   %ebp
    5e61:	89 e5                	mov    %esp,%ebp
    5e63:	53                   	push   %ebx
    5e64:	83 ec 0c             	sub    $0xc,%esp
    5e67:	6a 08                	push   $0x8
    5e69:	6a 01                	push   $0x1
    5e6b:	e8 d0 2f 00 00       	call   8e40 <calloc@plt>
    5e70:	83 c4 10             	add    $0x10,%esp
    5e73:	85 c0                	test   %eax,%eax
    5e75:	74 61                	je     5ed8 <fdisk_create+0x78>
    5e77:	83 ec 0c             	sub    $0xc,%esp
    5e7a:	89 c3                	mov    %eax,%ebx
    5e7c:	50                   	push   %eax
    5e7d:	e8 9e 2e 00 00       	call   8d20 <vol_create@plt>
    5e82:	83 c4 10             	add    $0x10,%esp
    5e85:	85 c0                	test   %eax,%eax
    5e87:	74 2f                	je     5eb8 <fdisk_create+0x58>
    5e89:	83 ec 0c             	sub    $0xc,%esp
    5e8c:	8b 03                	mov    (%ebx),%eax
    5e8e:	50                   	push   %eax
    5e8f:	e8 dc 2d 00 00       	call   8c70 <vol_destroy@plt>
    5e94:	8b 4b 04             	mov    0x4(%ebx),%ecx
    5e97:	5a                   	pop    %edx
    5e98:	51                   	push   %ecx
    5e99:	e8 02 30 00 00       	call   8ea0 <vbd_destroy@plt>
    5e9e:	89 1c 24             	mov    %ebx,(%esp)
    5ea1:	e8 3a 31 00 00       	call   8fe0 <free@plt>
    5ea6:	83 c4 10             	add    $0x10,%esp
    5ea9:	b8 f6 fe ff ff       	mov    $0xfffffef6,%eax
    5eae:	8b 5d fc             	mov    -0x4(%ebp),%ebx
    5eb1:	c9                   	leave  
    5eb2:	c3                   	ret    
    5eb3:	90                   	nop
    5eb4:	8d 74 26 00          	lea    0x0(%esi,%eiz,1),%esi
    5eb8:	83 ec 0c             	sub    $0xc,%esp
    5ebb:	8d 43 04             	lea    0x4(%ebx),%eax
    5ebe:	50                   	push   %eax
    5ebf:	e8 1c 2e 00 00       	call   8ce0 <vbd_create@plt>
    5ec4:	83 c4 10             	add    $0x10,%esp
    5ec7:	85 c0                	test   %eax,%eax
    5ec9:	75 be                	jne    5e89 <fdisk_create+0x29>
    5ecb:	8b 55 08             	mov    0x8(%ebp),%edx
    5ece:	89 1a                	mov    %ebx,(%edx)
    5ed0:	eb dc                	jmp    5eae <fdisk_create+0x4e>
    5ed2:	8d b6 00 00 00 00    	lea    0x0(%esi),%esi
    5ed8:	b8 fe ff ff ff       	mov    $0xfffffffe,%eax
    5edd:	8b 5d fc             	mov    -0x4(%ebp),%ebx
    5ee0:	c9                   	leave  
    5ee1:	c3                   	ret    
    5ee2:	8d b4 26 00 00 00 00 	lea    0x0(%esi,%eiz,1),%esi
    5ee9:	8d bc 27 00 00 00 00 	lea    0x0(%edi,%eiz,1),%edi

00005ef0 <fdisk_destroy>:
    5ef0:	55                   	push   %ebp
    5ef1:	89 e5                	mov    %esp,%ebp
    5ef3:	53                   	push   %ebx
    5ef4:	53                   	push   %ebx
    5ef5:	8b 5d 08             	mov    0x8(%ebp),%ebx
    5ef8:	85 db                	test   %ebx,%ebx
    5efa:	74 24                	je     5f20 <fdisk_destroy+0x30>
    5efc:	83 ec 0c             	sub    $0xc,%esp
    5eff:	8b 03                	mov    (%ebx),%eax
    5f01:	50                   	push   %eax
    5f02:	e8 69 2d 00 00       	call   8c70 <vol_destroy@plt>
    5f07:	8b 4b 04             	mov    0x4(%ebx),%ecx
    5f0a:	5a                   	pop    %edx
    5f0b:	51                   	push   %ecx
    5f0c:	e8 8f 2f 00 00       	call   8ea0 <vbd_destroy@plt>
    5f11:	89 5d 08             	mov    %ebx,0x8(%ebp)
    5f14:	83 c4 10             	add    $0x10,%esp
    5f17:	8b 5d fc             	mov    -0x4(%ebp),%ebx
    5f1a:	c9                   	leave  
    5f1b:	e9 c0 30 00 00       	jmp    8fe0 <free@plt>
    5f20:	8b 5d fc             	mov    -0x4(%ebp),%ebx
    5f23:	c9                   	leave  
    5f24:	c3                   	ret    
    5f25:	8d 74 26 00          	lea    0x0(%esi,%eiz,1),%esi
    5f29:	8d bc 27 00 00 00 00 	lea    0x0(%edi,%eiz,1),%edi

00005f30 <fdisk_dev_list_get>:
    5f30:	55                   	push   %ebp
    5f31:	89 e5                	mov    %esp,%ebp
    5f33:	57                   	push   %edi
    5f34:	56                   	push   %esi
    5f35:	53                   	push   %ebx
    5f36:	83 ec 34             	sub    $0x34,%esp
    5f39:	c7 45 e0 00 00 00 00 	movl   $0x0,-0x20(%ebp)
    5f40:	8b 75 08             	mov    0x8(%ebp),%esi
    5f43:	6a 0c                	push   $0xc
    5f45:	6a 01                	push   $0x1
    5f47:	e8 f4 2e 00 00       	call   8e40 <calloc@plt>
    5f4c:	83 c4 10             	add    $0x10,%esp
    5f4f:	85 c0                	test   %eax,%eax
    5f51:	0f 84 2d 01 00 00    	je     6084 <fdisk_dev_list_get+0x154>
    5f57:	89 c3                	mov    %eax,%ebx
    5f59:	89 30                	mov    %esi,(%eax)
    5f5b:	8d 40 04             	lea    0x4(%eax),%eax
    5f5e:	89 43 04             	mov    %eax,0x4(%ebx)
    5f61:	89 43 08             	mov    %eax,0x8(%ebx)
    5f64:	89 45 d4             	mov    %eax,-0x2c(%ebp)
    5f67:	50                   	push   %eax
    5f68:	8d 45 e4             	lea    -0x1c(%ebp),%eax
    5f6b:	50                   	push   %eax
    5f6c:	8d 45 e0             	lea    -0x20(%ebp),%eax
    5f6f:	50                   	push   %eax
    5f70:	8b 46 04             	mov    0x4(%esi),%eax
    5f73:	50                   	push   %eax
    5f74:	e8 17 2d 00 00       	call   8c90 <vbd_get_disks@plt>
    5f79:	83 c4 10             	add    $0x10,%esp
    5f7c:	89 45 d0             	mov    %eax,-0x30(%ebp)
    5f7f:	85 c0                	test   %eax,%eax
    5f81:	0f 85 f1 00 00 00    	jne    6078 <fdisk_dev_list_get+0x148>
    5f87:	8b 7d e4             	mov    -0x1c(%ebp),%edi
    5f8a:	31 f6                	xor    %esi,%esi
    5f8c:	85 ff                	test   %edi,%edi
    5f8e:	75 32                	jne    5fc2 <fdisk_dev_list_get+0x92>
    5f90:	e9 bf 00 00 00       	jmp    6054 <fdisk_dev_list_get+0x124>
    5f95:	8d 76 00             	lea    0x0(%esi),%esi
    5f98:	8b 7d e0             	mov    -0x20(%ebp),%edi
    5f9b:	8b 4d d4             	mov    -0x2c(%ebp),%ecx
    5f9e:	8b 14 b7             	mov    (%edi,%esi,4),%edx
    5fa1:	89 48 08             	mov    %ecx,0x8(%eax)
    5fa4:	8b 4b 04             	mov    0x4(%ebx),%ecx
    5fa7:	89 50 0c             	mov    %edx,0xc(%eax)
    5faa:	46                   	inc    %esi
    5fab:	8d 50 04             	lea    0x4(%eax),%edx
    5fae:	89 18                	mov    %ebx,(%eax)
    5fb0:	89 48 04             	mov    %ecx,0x4(%eax)
    5fb3:	39 75 e4             	cmp    %esi,-0x1c(%ebp)
    5fb6:	89 51 04             	mov    %edx,0x4(%ecx)
    5fb9:	89 53 04             	mov    %edx,0x4(%ebx)
    5fbc:	0f 86 95 00 00 00    	jbe    6057 <fdisk_dev_list_get+0x127>
    5fc2:	51                   	push   %ecx
    5fc3:	51                   	push   %ecx
    5fc4:	6a 14                	push   $0x14
    5fc6:	6a 01                	push   $0x1
    5fc8:	e8 73 2e 00 00       	call   8e40 <calloc@plt>
    5fcd:	83 c4 10             	add    $0x10,%esp
    5fd0:	85 c0                	test   %eax,%eax
    5fd2:	75 c4                	jne    5f98 <fdisk_dev_list_get+0x68>
    5fd4:	c7 45 d0 fe ff ff ff 	movl   $0xfffffffe,-0x30(%ebp)
    5fdb:	83 ec 0c             	sub    $0xc,%esp
    5fde:	8b 55 e0             	mov    -0x20(%ebp),%edx
    5fe1:	52                   	push   %edx
    5fe2:	e8 f9 2f 00 00       	call   8fe0 <free@plt>
    5fe7:	8b 73 08             	mov    0x8(%ebx),%esi
    5fea:	83 c4 10             	add    $0x10,%esp
    5fed:	8b 7d d4             	mov    -0x2c(%ebp),%edi
    5ff0:	39 75 d4             	cmp    %esi,-0x2c(%ebp)
    5ff3:	74 48                	je     603d <fdisk_dev_list_get+0x10d>
    5ff5:	8d 76 00             	lea    0x0(%esi),%esi
    5ff8:	83 ee 04             	sub    $0x4,%esi
    5ffb:	8b 56 04             	mov    0x4(%esi),%edx
    5ffe:	85 d2                	test   %edx,%edx
    6000:	74 0f                	je     6011 <fdisk_dev_list_get+0xe1>
    6002:	8b 46 08             	mov    0x8(%esi),%eax
    6005:	85 c0                	test   %eax,%eax
    6007:	74 08                	je     6011 <fdisk_dev_list_get+0xe1>
    6009:	89 10                	mov    %edx,(%eax)
    600b:	8b 56 04             	mov    0x4(%esi),%edx
    600e:	89 42 04             	mov    %eax,0x4(%edx)
    6011:	83 ec 0c             	sub    $0xc,%esp
    6014:	8b 46 10             	mov    0x10(%esi),%eax
    6017:	c7 46 04 00 00 00 00 	movl   $0x0,0x4(%esi)
    601e:	c7 46 08 00 00 00 00 	movl   $0x0,0x8(%esi)
    6025:	50                   	push   %eax
    6026:	e8 b5 2f 00 00       	call   8fe0 <free@plt>
    602b:	89 34 24             	mov    %esi,(%esp)
    602e:	e8 ad 2f 00 00       	call   8fe0 <free@plt>
    6033:	8b 73 08             	mov    0x8(%ebx),%esi
    6036:	83 c4 10             	add    $0x10,%esp
    6039:	39 f7                	cmp    %esi,%edi
    603b:	75 bb                	jne    5ff8 <fdisk_dev_list_get+0xc8>
    603d:	83 ec 0c             	sub    $0xc,%esp
    6040:	53                   	push   %ebx
    6041:	e8 9a 2f 00 00       	call   8fe0 <free@plt>
    6046:	83 c4 10             	add    $0x10,%esp
    6049:	8b 45 d0             	mov    -0x30(%ebp),%eax
    604c:	8d 65 f4             	lea    -0xc(%ebp),%esp
    604f:	5b                   	pop    %ebx
    6050:	5e                   	pop    %esi
    6051:	5f                   	pop    %edi
    6052:	5d                   	pop    %ebp
    6053:	c3                   	ret    
    6054:	8b 7d e0             	mov    -0x20(%ebp),%edi
    6057:	8b 45 0c             	mov    0xc(%ebp),%eax
    605a:	83 ec 0c             	sub    $0xc,%esp
    605d:	89 18                	mov    %ebx,(%eax)
    605f:	57                   	push   %edi
    6060:	e8 7b 2f 00 00       	call   8fe0 <free@plt>
    6065:	8b 45 d0             	mov    -0x30(%ebp),%eax
    6068:	83 c4 10             	add    $0x10,%esp
    606b:	8d 65 f4             	lea    -0xc(%ebp),%esp
    606e:	5b                   	pop    %ebx
    606f:	5e                   	pop    %esi
    6070:	5f                   	pop    %edi
    6071:	5d                   	pop    %ebp
    6072:	c3                   	ret    
    6073:	90                   	nop
    6074:	8d 74 26 00          	lea    0x0(%esi,%eiz,1),%esi
    6078:	c7 45 d0 f6 fe ff ff 	movl   $0xfffffef6,-0x30(%ebp)
    607f:	e9 57 ff ff ff       	jmp    5fdb <fdisk_dev_list_get+0xab>
    6084:	c7 45 d0 fe ff ff ff 	movl   $0xfffffffe,-0x30(%ebp)
    608b:	eb bc                	jmp    6049 <fdisk_dev_list_get+0x119>
    608d:	8d 76 00             	lea    0x0(%esi),%esi

00006090 <fdisk_dev_list_free>:
    6090:	55                   	push   %ebp
    6091:	89 e5                	mov    %esp,%ebp
    6093:	57                   	push   %edi
    6094:	56                   	push   %esi
    6095:	53                   	push   %ebx
    6096:	83 ec 0c             	sub    $0xc,%esp
    6099:	8b 75 08             	mov    0x8(%ebp),%esi
    609c:	85 f6                	test   %esi,%esi
    609e:	74 68                	je     6108 <fdisk_dev_list_free+0x78>
    60a0:	8b 5e 08             	mov    0x8(%esi),%ebx
    60a3:	8d 7e 04             	lea    0x4(%esi),%edi
    60a6:	39 fb                	cmp    %edi,%ebx
    60a8:	74 4b                	je     60f5 <fdisk_dev_list_free+0x65>
    60aa:	8d b6 00 00 00 00    	lea    0x0(%esi),%esi
    60b0:	83 eb 04             	sub    $0x4,%ebx
    60b3:	8b 53 04             	mov    0x4(%ebx),%edx
    60b6:	85 d2                	test   %edx,%edx
    60b8:	74 0f                	je     60c9 <fdisk_dev_list_free+0x39>
    60ba:	8b 43 08             	mov    0x8(%ebx),%eax
    60bd:	85 c0                	test   %eax,%eax
    60bf:	74 08                	je     60c9 <fdisk_dev_list_free+0x39>
    60c1:	89 10                	mov    %edx,(%eax)
    60c3:	8b 53 04             	mov    0x4(%ebx),%edx
    60c6:	89 42 04             	mov    %eax,0x4(%edx)
    60c9:	83 ec 0c             	sub    $0xc,%esp
    60cc:	8b 43 10             	mov    0x10(%ebx),%eax
    60cf:	c7 43 04 00 00 00 00 	movl   $0x0,0x4(%ebx)
    60d6:	c7 43 08 00 00 00 00 	movl   $0x0,0x8(%ebx)
    60dd:	50                   	push   %eax
    60de:	e8 fd 2e 00 00       	call   8fe0 <free@plt>
    60e3:	89 1c 24             	mov    %ebx,(%esp)
    60e6:	e8 f5 2e 00 00       	call   8fe0 <free@plt>
    60eb:	8b 5e 08             	mov    0x8(%esi),%ebx
    60ee:	83 c4 10             	add    $0x10,%esp
    60f1:	39 fb                	cmp    %edi,%ebx
    60f3:	75 bb                	jne    60b0 <fdisk_dev_list_free+0x20>
    60f5:	89 75 08             	mov    %esi,0x8(%ebp)
    60f8:	8d 65 f4             	lea    -0xc(%ebp),%esp
    60fb:	5b                   	pop    %ebx
    60fc:	5e                   	pop    %esi
    60fd:	5f                   	pop    %edi
    60fe:	5d                   	pop    %ebp
    60ff:	e9 dc 2e 00 00       	jmp    8fe0 <free@plt>
    6104:	8d 74 26 00          	lea    0x0(%esi,%eiz,1),%esi
    6108:	8d 65 f4             	lea    -0xc(%ebp),%esp
    610b:	5b                   	pop    %ebx
    610c:	5e                   	pop    %esi
    610d:	5f                   	pop    %edi
    610e:	5d                   	pop    %ebp
    610f:	c3                   	ret    

00006110 <fdisk_dev_first>:
    6110:	55                   	push   %ebp
    6111:	89 e5                	mov    %esp,%ebp
    6113:	8b 55 08             	mov    0x8(%ebp),%edx
    6116:	83 c2 04             	add    $0x4,%edx
    6119:	8b 42 04             	mov    0x4(%edx),%eax
    611c:	39 d0                	cmp    %edx,%eax
    611e:	74 08                	je     6128 <fdisk_dev_first+0x18>
    6120:	83 e8 04             	sub    $0x4,%eax
    6123:	5d                   	pop    %ebp
    6124:	c3                   	ret    
    6125:	8d 76 00             	lea    0x0(%esi),%esi
    6128:	31 c0                	xor    %eax,%eax
    612a:	5d                   	pop    %ebp
    612b:	c3                   	ret    
    612c:	8d 74 26 00          	lea    0x0(%esi,%eiz,1),%esi

00006130 <fdisk_dev_next>:
    6130:	55                   	push   %ebp
    6131:	89 e5                	mov    %esp,%ebp
    6133:	8b 55 08             	mov    0x8(%ebp),%edx
    6136:	8b 42 08             	mov    0x8(%edx),%eax
    6139:	8b 12                	mov    (%edx),%edx
    613b:	83 c2 04             	add    $0x4,%edx
    613e:	39 d0                	cmp    %edx,%eax
    6140:	74 09                	je     614b <fdisk_dev_next+0x1b>
    6142:	85 c0                	test   %eax,%eax
    6144:	74 05                	je     614b <fdisk_dev_next+0x1b>
    6146:	83 e8 04             	sub    $0x4,%eax
    6149:	5d                   	pop    %ebp
    614a:	c3                   	ret    
    614b:	31 c0                	xor    %eax,%eax
    614d:	5d                   	pop    %ebp
    614e:	c3                   	ret    
    614f:	90                   	nop

00006150 <fdisk_dev_info_get_svcid>:
    6150:	55                   	push   %ebp
    6151:	89 e5                	mov    %esp,%ebp
    6153:	8b 45 08             	mov    0x8(%ebp),%eax
    6156:	8b 50 0c             	mov    0xc(%eax),%edx
    6159:	8b 45 0c             	mov    0xc(%ebp),%eax
    615c:	89 10                	mov    %edx,(%eax)
    615e:	5d                   	pop    %ebp
    615f:	c3                   	ret    

00006160 <fdisk_dev_info_get_svcname>:
    6160:	55                   	push   %ebp
    6161:	89 e5                	mov    %esp,%ebp
    6163:	53                   	push   %ebx
    6164:	51                   	push   %ecx
    6165:	8b 5d 08             	mov    0x8(%ebp),%ebx
    6168:	8b 43 10             	mov    0x10(%ebx),%eax
    616b:	85 c0                	test   %eax,%eax
    616d:	74 21                	je     6190 <fdisk_dev_info_get_svcname+0x30>
    616f:	83 ec 0c             	sub    $0xc,%esp
    6172:	50                   	push   %eax
    6173:	e8 08 2d 00 00       	call   8e80 <str_dup@plt>
    6178:	83 c4 10             	add    $0x10,%esp
    617b:	85 c0                	test   %eax,%eax
    617d:	74 2c                	je     61ab <fdisk_dev_info_get_svcname+0x4b>
    617f:	8b 55 0c             	mov    0xc(%ebp),%edx
    6182:	89 02                	mov    %eax,(%edx)
    6184:	31 c0                	xor    %eax,%eax
    6186:	8b 5d fc             	mov    -0x4(%ebp),%ebx
    6189:	c9                   	leave  
    618a:	c3                   	ret    
    618b:	90                   	nop
    618c:	8d 74 26 00          	lea    0x0(%esi,%eiz,1),%esi
    6190:	50                   	push   %eax
    6191:	50                   	push   %eax
    6192:	8b 53 0c             	mov    0xc(%ebx),%edx
    6195:	8d 43 10             	lea    0x10(%ebx),%eax
    6198:	50                   	push   %eax
    6199:	52                   	push   %edx
    619a:	e8 71 2c 00 00       	call   8e10 <loc_service_get_name@plt>
    619f:	83 c4 10             	add    $0x10,%esp
    61a2:	85 c0                	test   %eax,%eax
    61a4:	75 e0                	jne    6186 <fdisk_dev_info_get_svcname+0x26>
    61a6:	8b 43 10             	mov    0x10(%ebx),%eax
    61a9:	eb c4                	jmp    616f <fdisk_dev_info_get_svcname+0xf>
    61ab:	b8 fe ff ff ff       	mov    $0xfffffffe,%eax
    61b0:	eb d4                	jmp    6186 <fdisk_dev_info_get_svcname+0x26>
    61b2:	8d b4 26 00 00 00 00 	lea    0x0(%esi,%eiz,1),%esi
    61b9:	8d bc 27 00 00 00 00 	lea    0x0(%edi,%eiz,1),%edi

000061c0 <fdisk_dev_info_capacity>:
    61c0:	55                   	push   %ebp
    61c1:	89 e5                	mov    %esp,%ebp
    61c3:	83 ec 4c             	sub    $0x4c,%esp
    61c6:	8b 45 08             	mov    0x8(%ebp),%eax
    61c9:	8d 55 d4             	lea    -0x2c(%ebp),%edx
    61cc:	52                   	push   %edx
    61cd:	8b 50 0c             	mov    0xc(%eax),%edx
    61d0:	8b 00                	mov    (%eax),%eax
    61d2:	52                   	push   %edx
    61d3:	8b 00                	mov    (%eax),%eax
    61d5:	8b 48 04             	mov    0x4(%eax),%ecx
    61d8:	51                   	push   %ecx
    61d9:	e8 52 2b 00 00       	call   8d30 <vbd_disk_info@plt>
    61de:	83 c4 10             	add    $0x10,%esp
    61e1:	89 45 c4             	mov    %eax,-0x3c(%ebp)
    61e4:	85 c0                	test   %eax,%eax
    61e6:	75 20                	jne    6208 <fdisk_dev_info_capacity+0x48>
    61e8:	8b 45 0c             	mov    0xc(%ebp),%eax
    61eb:	8b 55 ec             	mov    -0x14(%ebp),%edx
    61ee:	50                   	push   %eax
    61ef:	8b 4d f4             	mov    -0xc(%ebp),%ecx
    61f2:	8b 45 f0             	mov    -0x10(%ebp),%eax
    61f5:	52                   	push   %edx
    61f6:	51                   	push   %ecx
    61f7:	50                   	push   %eax
    61f8:	e8 63 ec ff ff       	call   4e60 <fdisk_cap_from_blocks>
    61fd:	8b 45 c4             	mov    -0x3c(%ebp),%eax
    6200:	83 c4 10             	add    $0x10,%esp
    6203:	c9                   	leave  
    6204:	c3                   	ret    
    6205:	8d 76 00             	lea    0x0(%esi),%esi
    6208:	b8 f6 fe ff ff       	mov    $0xfffffef6,%eax
    620d:	c9                   	leave  
    620e:	c3                   	ret    
    620f:	90                   	nop

00006210 <fdisk_dev_open>:
    6210:	55                   	push   %ebp
    6211:	89 e5                	mov    %esp,%ebp
    6213:	57                   	push   %edi
    6214:	56                   	push   %esi
    6215:	53                   	push   %ebx
    6216:	83 ec 34             	sub    $0x34,%esp
    6219:	c7 45 e0 00 00 00 00 	movl   $0x0,-0x20(%ebp)
    6220:	6a 58                	push   $0x58
    6222:	6a 01                	push   $0x1
    6224:	e8 17 2c 00 00       	call   8e40 <calloc@plt>
    6229:	83 c4 10             	add    $0x10,%esp
    622c:	85 c0                	test   %eax,%eax
    622e:	0f 84 14 03 00 00    	je     6548 <fdisk_dev_open+0x338>
    6234:	89 c3                	mov    %eax,%ebx
    6236:	8b 45 08             	mov    0x8(%ebp),%eax
    6239:	8b 7d 0c             	mov    0xc(%ebp),%edi
    623c:	89 03                	mov    %eax,(%ebx)
    623e:	8b 45 0c             	mov    0xc(%ebp),%eax
    6241:	89 43 04             	mov    %eax,0x4(%ebx)
    6244:	8d 43 08             	lea    0x8(%ebx),%eax
    6247:	89 43 08             	mov    %eax,0x8(%ebx)
    624a:	89 43 0c             	mov    %eax,0xc(%ebx)
    624d:	89 45 d4             	mov    %eax,-0x2c(%ebp)
    6250:	8d 43 10             	lea    0x10(%ebx),%eax
    6253:	89 43 10             	mov    %eax,0x10(%ebx)
    6256:	89 43 14             	mov    %eax,0x14(%ebx)
    6259:	8d 43 18             	lea    0x18(%ebx),%eax
    625c:	89 43 18             	mov    %eax,0x18(%ebx)
    625f:	89 43 1c             	mov    %eax,0x1c(%ebx)
    6262:	8d 43 20             	lea    0x20(%ebx),%eax
    6265:	89 43 20             	mov    %eax,0x20(%ebx)
    6268:	89 43 24             	mov    %eax,0x24(%ebx)
    626b:	8d 43 2c             	lea    0x2c(%ebx),%eax
    626e:	56                   	push   %esi
    626f:	50                   	push   %eax
    6270:	8b 45 08             	mov    0x8(%ebp),%eax
    6273:	57                   	push   %edi
    6274:	8b 40 04             	mov    0x4(%eax),%eax
    6277:	50                   	push   %eax
    6278:	e8 b3 2a 00 00       	call   8d30 <vbd_disk_info@plt>
    627d:	83 c4 10             	add    $0x10,%esp
    6280:	85 c0                	test   %eax,%eax
    6282:	0f 85 c0 00 00 00    	jne    6348 <fdisk_dev_open+0x138>
    6288:	8b 4b 44             	mov    0x44(%ebx),%ecx
    628b:	8b 43 40             	mov    0x40(%ebx),%eax
    628e:	0f af c1             	imul   %ecx,%eax
    6291:	89 45 d0             	mov    %eax,-0x30(%ebp)
    6294:	89 c8                	mov    %ecx,%eax
    6296:	f7 63 3c             	mull   0x3c(%ebx)
    6299:	8b 7d d0             	mov    -0x30(%ebp),%edi
    629c:	89 c6                	mov    %eax,%esi
    629e:	01 d7                	add    %edx,%edi
    62a0:	89 fa                	mov    %edi,%edx
    62a2:	0f ac d0 14          	shrd   $0x14,%edx,%eax
    62a6:	c1 ea 14             	shr    $0x14,%edx
    62a9:	83 fa 00             	cmp    $0x0,%edx
    62ac:	77 0b                	ja     62b9 <fdisk_dev_open+0xa9>
    62ae:	3d ff 00 00 00       	cmp    $0xff,%eax
    62b3:	0f 86 b7 01 00 00    	jbe    6470 <fdisk_dev_open+0x260>
    62b9:	b8 00 00 10 00       	mov    $0x100000,%eax
    62be:	66 90                	xchg   %ax,%ax
    62c0:	31 d2                	xor    %edx,%edx
    62c2:	f7 f1                	div    %ecx
    62c4:	85 c0                	test   %eax,%eax
    62c6:	0f 85 34 02 00 00    	jne    6500 <fdisk_dev_open+0x2f0>
    62cc:	c7 43 50 01 00 00 00 	movl   $0x1,0x50(%ebx)
    62d3:	c7 43 54 00 00 00 00 	movl   $0x0,0x54(%ebx)
    62da:	8d 45 e4             	lea    -0x1c(%ebp),%eax
    62dd:	8b 55 0c             	mov    0xc(%ebp),%edx
    62e0:	50                   	push   %eax
    62e1:	8d 45 e0             	lea    -0x20(%ebp),%eax
    62e4:	50                   	push   %eax
    62e5:	8b 45 08             	mov    0x8(%ebp),%eax
    62e8:	52                   	push   %edx
    62e9:	8b 48 04             	mov    0x4(%eax),%ecx
    62ec:	51                   	push   %ecx
    62ed:	e8 8e 29 00 00       	call   8c80 <vbd_label_get_parts@plt>
    62f2:	83 c4 10             	add    $0x10,%esp
    62f5:	85 c0                	test   %eax,%eax
    62f7:	75 4f                	jne    6348 <fdisk_dev_open+0x138>
    62f9:	8b 45 e4             	mov    -0x1c(%ebp),%eax
    62fc:	31 f6                	xor    %esi,%esi
    62fe:	85 c0                	test   %eax,%eax
    6300:	75 10                	jne    6312 <fdisk_dev_open+0x102>
    6302:	e9 21 02 00 00       	jmp    6528 <fdisk_dev_open+0x318>
    6307:	90                   	nop
    6308:	46                   	inc    %esi
    6309:	39 75 e4             	cmp    %esi,-0x1c(%ebp)
    630c:	0f 86 16 02 00 00    	jbe    6528 <fdisk_dev_open+0x318>
    6312:	8b 45 e0             	mov    -0x20(%ebp),%eax
    6315:	31 c9                	xor    %ecx,%ecx
    6317:	8b 14 b0             	mov    (%eax,%esi,4),%edx
    631a:	89 d8                	mov    %ebx,%eax
    631c:	e8 3f f2 ff ff       	call   5560 <fdisk_part_add>
    6321:	85 c0                	test   %eax,%eax
    6323:	74 e3                	je     6308 <fdisk_dev_open+0xf8>
    6325:	89 c7                	mov    %eax,%edi
    6327:	8b 43 0c             	mov    0xc(%ebx),%eax
    632a:	39 45 d4             	cmp    %eax,-0x2c(%ebp)
    632d:	75 26                	jne    6355 <fdisk_dev_open+0x145>
    632f:	90                   	nop
    6330:	83 ec 0c             	sub    $0xc,%esp
    6333:	53                   	push   %ebx
    6334:	e8 a7 2c 00 00       	call   8fe0 <free@plt>
    6339:	83 c4 10             	add    $0x10,%esp
    633c:	8d 65 f4             	lea    -0xc(%ebp),%esp
    633f:	89 f8                	mov    %edi,%eax
    6341:	5b                   	pop    %ebx
    6342:	5e                   	pop    %esi
    6343:	5f                   	pop    %edi
    6344:	5d                   	pop    %ebp
    6345:	c3                   	ret    
    6346:	66 90                	xchg   %ax,%ax
    6348:	8b 43 0c             	mov    0xc(%ebx),%eax
    634b:	bf f6 fe ff ff       	mov    $0xfffffef6,%edi
    6350:	39 45 d4             	cmp    %eax,-0x2c(%ebp)
    6353:	74 db                	je     6330 <fdisk_dev_open+0x120>
    6355:	85 c0                	test   %eax,%eax
    6357:	74 d7                	je     6330 <fdisk_dev_open+0x120>
    6359:	83 e8 04             	sub    $0x4,%eax
    635c:	74 d2                	je     6330 <fdisk_dev_open+0x120>
    635e:	8b 75 d4             	mov    -0x2c(%ebp),%esi
    6361:	e9 9f 00 00 00       	jmp    6405 <fdisk_dev_open+0x1f5>
    6366:	66 90                	xchg   %ax,%ax
    6368:	8b 50 18             	mov    0x18(%eax),%edx
    636b:	85 d2                	test   %edx,%edx
    636d:	0f 84 cc 00 00 00    	je     643f <fdisk_dev_open+0x22f>
    6373:	89 0a                	mov    %ecx,(%edx)
    6375:	8b 48 14             	mov    0x14(%eax),%ecx
    6378:	89 51 04             	mov    %edx,0x4(%ecx)
    637b:	c7 40 14 00 00 00 00 	movl   $0x0,0x14(%eax)
    6382:	c7 40 18 00 00 00 00 	movl   $0x0,0x18(%eax)
    6389:	8b 48 0c             	mov    0xc(%eax),%ecx
    638c:	85 c9                	test   %ecx,%ecx
    638e:	0f 84 b4 00 00 00    	je     6448 <fdisk_dev_open+0x238>
    6394:	8b 50 10             	mov    0x10(%eax),%edx
    6397:	85 d2                	test   %edx,%edx
    6399:	0f 84 a0 00 00 00    	je     643f <fdisk_dev_open+0x22f>
    639f:	89 0a                	mov    %ecx,(%edx)
    63a1:	8b 48 0c             	mov    0xc(%eax),%ecx
    63a4:	89 51 04             	mov    %edx,0x4(%ecx)
    63a7:	8b 48 1c             	mov    0x1c(%eax),%ecx
    63aa:	c7 40 0c 00 00 00 00 	movl   $0x0,0xc(%eax)
    63b1:	c7 40 10 00 00 00 00 	movl   $0x0,0x10(%eax)
    63b8:	85 c9                	test   %ecx,%ecx
    63ba:	0f 84 a0 00 00 00    	je     6460 <fdisk_dev_open+0x250>
    63c0:	8b 50 20             	mov    0x20(%eax),%edx
    63c3:	85 d2                	test   %edx,%edx
    63c5:	74 78                	je     643f <fdisk_dev_open+0x22f>
    63c7:	89 0a                	mov    %ecx,(%edx)
    63c9:	8b 48 1c             	mov    0x1c(%eax),%ecx
    63cc:	89 51 04             	mov    %edx,0x4(%ecx)
    63cf:	c7 40 1c 00 00 00 00 	movl   $0x0,0x1c(%eax)
    63d6:	c7 40 20 00 00 00 00 	movl   $0x0,0x20(%eax)
    63dd:	83 ec 0c             	sub    $0xc,%esp
    63e0:	50                   	push   %eax
    63e1:	e8 fa 2b 00 00       	call   8fe0 <free@plt>
    63e6:	8b 43 0c             	mov    0xc(%ebx),%eax
    63e9:	83 c4 10             	add    $0x10,%esp
    63ec:	39 c6                	cmp    %eax,%esi
    63ee:	0f 84 3c ff ff ff    	je     6330 <fdisk_dev_open+0x120>
    63f4:	85 c0                	test   %eax,%eax
    63f6:	0f 84 34 ff ff ff    	je     6330 <fdisk_dev_open+0x120>
    63fc:	83 e8 04             	sub    $0x4,%eax
    63ff:	0f 84 2b ff ff ff    	je     6330 <fdisk_dev_open+0x120>
    6405:	8b 48 04             	mov    0x4(%eax),%ecx
    6408:	85 c9                	test   %ecx,%ecx
    640a:	74 0f                	je     641b <fdisk_dev_open+0x20b>
    640c:	8b 50 08             	mov    0x8(%eax),%edx
    640f:	85 d2                	test   %edx,%edx
    6411:	74 08                	je     641b <fdisk_dev_open+0x20b>
    6413:	89 0a                	mov    %ecx,(%edx)
    6415:	8b 48 04             	mov    0x4(%eax),%ecx
    6418:	89 51 04             	mov    %edx,0x4(%ecx)
    641b:	8b 48 14             	mov    0x14(%eax),%ecx
    641e:	c7 40 04 00 00 00 00 	movl   $0x0,0x4(%eax)
    6425:	c7 40 08 00 00 00 00 	movl   $0x0,0x8(%eax)
    642c:	85 c9                	test   %ecx,%ecx
    642e:	0f 85 34 ff ff ff    	jne    6368 <fdisk_dev_open+0x158>
    6434:	8b 50 18             	mov    0x18(%eax),%edx
    6437:	85 d2                	test   %edx,%edx
    6439:	0f 84 4a ff ff ff    	je     6389 <fdisk_dev_open+0x179>
    643f:	e8 73 1b 00 00       	call   7fb7 <link_used.part.2>
    6444:	8d 74 26 00          	lea    0x0(%esi,%eiz,1),%esi
    6448:	8b 48 10             	mov    0x10(%eax),%ecx
    644b:	85 c9                	test   %ecx,%ecx
    644d:	75 f0                	jne    643f <fdisk_dev_open+0x22f>
    644f:	8b 48 1c             	mov    0x1c(%eax),%ecx
    6452:	85 c9                	test   %ecx,%ecx
    6454:	0f 85 66 ff ff ff    	jne    63c0 <fdisk_dev_open+0x1b0>
    645a:	8d b6 00 00 00 00    	lea    0x0(%esi),%esi
    6460:	8b 50 20             	mov    0x20(%eax),%edx
    6463:	85 d2                	test   %edx,%edx
    6465:	75 d8                	jne    643f <fdisk_dev_open+0x22f>
    6467:	e9 71 ff ff ff       	jmp    63dd <fdisk_dev_open+0x1cd>
    646c:	8d 74 26 00          	lea    0x0(%esi,%eiz,1),%esi
    6470:	89 fa                	mov    %edi,%edx
    6472:	89 f0                	mov    %esi,%eax
    6474:	0f ac d0 10          	shrd   $0x10,%edx,%eax
    6478:	c1 ea 10             	shr    $0x10,%edx
    647b:	83 fa 00             	cmp    $0x0,%edx
    647e:	76 10                	jbe    6490 <fdisk_dev_open+0x280>
    6480:	b8 00 00 01 00       	mov    $0x10000,%eax
    6485:	e9 36 fe ff ff       	jmp    62c0 <fdisk_dev_open+0xb0>
    648a:	8d b6 00 00 00 00    	lea    0x0(%esi),%esi
    6490:	3d ff 00 00 00       	cmp    $0xff,%eax
    6495:	77 e9                	ja     6480 <fdisk_dev_open+0x270>
    6497:	89 fa                	mov    %edi,%edx
    6499:	89 f0                	mov    %esi,%eax
    649b:	0f ac d0 0c          	shrd   $0xc,%edx,%eax
    649f:	c1 ea 0c             	shr    $0xc,%edx
    64a2:	83 fa 00             	cmp    $0x0,%edx
    64a5:	76 11                	jbe    64b8 <fdisk_dev_open+0x2a8>
    64a7:	b8 00 10 00 00       	mov    $0x1000,%eax
    64ac:	e9 0f fe ff ff       	jmp    62c0 <fdisk_dev_open+0xb0>
    64b1:	8d b4 26 00 00 00 00 	lea    0x0(%esi,%eiz,1),%esi
    64b8:	3d ff 00 00 00       	cmp    $0xff,%eax
    64bd:	77 e8                	ja     64a7 <fdisk_dev_open+0x297>
    64bf:	89 fa                	mov    %edi,%edx
    64c1:	89 f0                	mov    %esi,%eax
    64c3:	0f ac d0 08          	shrd   $0x8,%edx,%eax
    64c7:	c1 ea 08             	shr    $0x8,%edx
    64ca:	83 fa 00             	cmp    $0x0,%edx
    64cd:	76 11                	jbe    64e0 <fdisk_dev_open+0x2d0>
    64cf:	b8 00 01 00 00       	mov    $0x100,%eax
    64d4:	e9 e7 fd ff ff       	jmp    62c0 <fdisk_dev_open+0xb0>
    64d9:	8d b4 26 00 00 00 00 	lea    0x0(%esi,%eiz,1),%esi
    64e0:	3d ff 00 00 00       	cmp    $0xff,%eax
    64e5:	77 e8                	ja     64cf <fdisk_dev_open+0x2bf>
    64e7:	0f ac fe 04          	shrd   $0x4,%edi,%esi
    64eb:	c1 ef 04             	shr    $0x4,%edi
    64ee:	83 ff 00             	cmp    $0x0,%edi
    64f1:	76 1d                	jbe    6510 <fdisk_dev_open+0x300>
    64f3:	b8 10 00 00 00       	mov    $0x10,%eax
    64f8:	e9 c3 fd ff ff       	jmp    62c0 <fdisk_dev_open+0xb0>
    64fd:	8d 76 00             	lea    0x0(%esi),%esi
    6500:	89 43 50             	mov    %eax,0x50(%ebx)
    6503:	c7 43 54 00 00 00 00 	movl   $0x0,0x54(%ebx)
    650a:	e9 cb fd ff ff       	jmp    62da <fdisk_dev_open+0xca>
    650f:	90                   	nop
    6510:	b8 01 00 00 00       	mov    $0x1,%eax
    6515:	81 fe ff 00 00 00    	cmp    $0xff,%esi
    651b:	0f 86 9f fd ff ff    	jbe    62c0 <fdisk_dev_open+0xb0>
    6521:	eb d0                	jmp    64f3 <fdisk_dev_open+0x2e3>
    6523:	90                   	nop
    6524:	8d 74 26 00          	lea    0x0(%esi,%eiz,1),%esi
    6528:	83 ec 0c             	sub    $0xc,%esp
    652b:	8b 4d e0             	mov    -0x20(%ebp),%ecx
    652e:	31 ff                	xor    %edi,%edi
    6530:	51                   	push   %ecx
    6531:	e8 aa 2a 00 00       	call   8fe0 <free@plt>
    6536:	8b 45 10             	mov    0x10(%ebp),%eax
    6539:	83 c4 10             	add    $0x10,%esp
    653c:	89 18                	mov    %ebx,(%eax)
    653e:	8d 65 f4             	lea    -0xc(%ebp),%esp
    6541:	89 f8                	mov    %edi,%eax
    6543:	5b                   	pop    %ebx
    6544:	5e                   	pop    %esi
    6545:	5f                   	pop    %edi
    6546:	5d                   	pop    %ebp
    6547:	c3                   	ret    
    6548:	bf fe ff ff ff       	mov    $0xfffffffe,%edi
    654d:	e9 ea fd ff ff       	jmp    633c <fdisk_dev_open+0x12c>
    6552:	8d b4 26 00 00 00 00 	lea    0x0(%esi,%eiz,1),%esi
    6559:	8d bc 27 00 00 00 00 	lea    0x0(%edi,%eiz,1),%edi

00006560 <fdisk_dev_close>:
    6560:	55                   	push   %ebp
    6561:	89 e5                	mov    %esp,%ebp
    6563:	56                   	push   %esi
    6564:	53                   	push   %ebx
    6565:	8b 75 08             	mov    0x8(%ebp),%esi
    6568:	85 f6                	test   %esi,%esi
    656a:	0f 84 0c 01 00 00    	je     667c <fdisk_dev_close+0x11c>
    6570:	8b 46 0c             	mov    0xc(%esi),%eax
    6573:	8d 5e 08             	lea    0x8(%esi),%ebx
    6576:	39 d8                	cmp    %ebx,%eax
    6578:	0f 84 c2 00 00 00    	je     6640 <fdisk_dev_close+0xe0>
    657e:	66 90                	xchg   %ax,%ax
    6580:	85 c0                	test   %eax,%eax
    6582:	0f 84 b8 00 00 00    	je     6640 <fdisk_dev_close+0xe0>
    6588:	83 e8 04             	sub    $0x4,%eax
    658b:	0f 84 af 00 00 00    	je     6640 <fdisk_dev_close+0xe0>
    6591:	8b 48 04             	mov    0x4(%eax),%ecx
    6594:	85 c9                	test   %ecx,%ecx
    6596:	74 0f                	je     65a7 <fdisk_dev_close+0x47>
    6598:	8b 50 08             	mov    0x8(%eax),%edx
    659b:	85 d2                	test   %edx,%edx
    659d:	74 08                	je     65a7 <fdisk_dev_close+0x47>
    659f:	89 0a                	mov    %ecx,(%edx)
    65a1:	8b 48 04             	mov    0x4(%eax),%ecx
    65a4:	89 51 04             	mov    %edx,0x4(%ecx)
    65a7:	8b 48 14             	mov    0x14(%eax),%ecx
    65aa:	c7 40 04 00 00 00 00 	movl   $0x0,0x4(%eax)
    65b1:	c7 40 08 00 00 00 00 	movl   $0x0,0x8(%eax)
    65b8:	85 c9                	test   %ecx,%ecx
    65ba:	0f 84 90 00 00 00    	je     6650 <fdisk_dev_close+0xf0>
    65c0:	8b 50 18             	mov    0x18(%eax),%edx
    65c3:	85 d2                	test   %edx,%edx
    65c5:	0f 84 8c 00 00 00    	je     6657 <fdisk_dev_close+0xf7>
    65cb:	89 0a                	mov    %ecx,(%edx)
    65cd:	8b 48 14             	mov    0x14(%eax),%ecx
    65d0:	89 51 04             	mov    %edx,0x4(%ecx)
    65d3:	c7 40 14 00 00 00 00 	movl   $0x0,0x14(%eax)
    65da:	c7 40 18 00 00 00 00 	movl   $0x0,0x18(%eax)
    65e1:	8b 48 0c             	mov    0xc(%eax),%ecx
    65e4:	85 c9                	test   %ecx,%ecx
    65e6:	74 78                	je     6660 <fdisk_dev_close+0x100>
    65e8:	8b 50 10             	mov    0x10(%eax),%edx
    65eb:	85 d2                	test   %edx,%edx
    65ed:	74 68                	je     6657 <fdisk_dev_close+0xf7>
    65ef:	89 0a                	mov    %ecx,(%edx)
    65f1:	8b 48 0c             	mov    0xc(%eax),%ecx
    65f4:	89 51 04             	mov    %edx,0x4(%ecx)
    65f7:	c7 40 0c 00 00 00 00 	movl   $0x0,0xc(%eax)
    65fe:	c7 40 10 00 00 00 00 	movl   $0x0,0x10(%eax)
    6605:	8b 48 1c             	mov    0x1c(%eax),%ecx
    6608:	85 c9                	test   %ecx,%ecx
    660a:	74 64                	je     6670 <fdisk_dev_close+0x110>
    660c:	8b 50 20             	mov    0x20(%eax),%edx
    660f:	85 d2                	test   %edx,%edx
    6611:	74 44                	je     6657 <fdisk_dev_close+0xf7>
    6613:	89 0a                	mov    %ecx,(%edx)
    6615:	8b 48 1c             	mov    0x1c(%eax),%ecx
    6618:	89 51 04             	mov    %edx,0x4(%ecx)
    661b:	c7 40 1c 00 00 00 00 	movl   $0x0,0x1c(%eax)
    6622:	c7 40 20 00 00 00 00 	movl   $0x0,0x20(%eax)
    6629:	83 ec 0c             	sub    $0xc,%esp
    662c:	50                   	push   %eax
    662d:	e8 ae 29 00 00       	call   8fe0 <free@plt>
    6632:	8b 46 0c             	mov    0xc(%esi),%eax
    6635:	83 c4 10             	add    $0x10,%esp
    6638:	39 c3                	cmp    %eax,%ebx
    663a:	0f 85 40 ff ff ff    	jne    6580 <fdisk_dev_close+0x20>
    6640:	89 75 08             	mov    %esi,0x8(%ebp)
    6643:	8d 65 f8             	lea    -0x8(%ebp),%esp
    6646:	5b                   	pop    %ebx
    6647:	5e                   	pop    %esi
    6648:	5d                   	pop    %ebp
    6649:	e9 92 29 00 00       	jmp    8fe0 <free@plt>
    664e:	66 90                	xchg   %ax,%ax
    6650:	8b 50 18             	mov    0x18(%eax),%edx
    6653:	85 d2                	test   %edx,%edx
    6655:	74 8a                	je     65e1 <fdisk_dev_close+0x81>
    6657:	e8 5b 19 00 00       	call   7fb7 <link_used.part.2>
    665c:	8d 74 26 00          	lea    0x0(%esi,%eiz,1),%esi
    6660:	8b 48 10             	mov    0x10(%eax),%ecx
    6663:	85 c9                	test   %ecx,%ecx
    6665:	74 9e                	je     6605 <fdisk_dev_close+0xa5>
    6667:	e8 4b 19 00 00       	call   7fb7 <link_used.part.2>
    666c:	8d 74 26 00          	lea    0x0(%esi,%eiz,1),%esi
    6670:	8b 50 20             	mov    0x20(%eax),%edx
    6673:	85 d2                	test   %edx,%edx
    6675:	74 b2                	je     6629 <fdisk_dev_close+0xc9>
    6677:	e8 3b 19 00 00       	call   7fb7 <link_used.part.2>
    667c:	8d 65 f8             	lea    -0x8(%ebp),%esp
    667f:	5b                   	pop    %ebx
    6680:	5e                   	pop    %esi
    6681:	5d                   	pop    %ebp
    6682:	c3                   	ret    
    6683:	8d b6 00 00 00 00    	lea    0x0(%esi),%esi
    6689:	8d bc 27 00 00 00 00 	lea    0x0(%edi,%eiz,1),%edi

00006690 <fdisk_dev_erase>:
    6690:	55                   	push   %ebp
    6691:	89 e5                	mov    %esp,%ebp
    6693:	53                   	push   %ebx
    6694:	50                   	push   %eax
    6695:	8b 55 08             	mov    0x8(%ebp),%edx
    6698:	8b 42 2c             	mov    0x2c(%edx),%eax
    669b:	85 c0                	test   %eax,%eax
    669d:	75 41                	jne    66e0 <fdisk_dev_erase+0x50>
    669f:	8b 42 0c             	mov    0xc(%edx),%eax
    66a2:	8d 4a 08             	lea    0x8(%edx),%ecx
    66a5:	39 c8                	cmp    %ecx,%eax
    66a7:	74 41                	je     66ea <fdisk_dev_erase+0x5a>
    66a9:	85 c0                	test   %eax,%eax
    66ab:	74 3d                	je     66ea <fdisk_dev_erase+0x5a>
    66ad:	83 e8 04             	sub    $0x4,%eax
    66b0:	89 c3                	mov    %eax,%ebx
    66b2:	74 36                	je     66ea <fdisk_dev_erase+0x5a>
    66b4:	8b 40 38             	mov    0x38(%eax),%eax
    66b7:	85 c0                	test   %eax,%eax
    66b9:	74 25                	je     66e0 <fdisk_dev_erase+0x50>
    66bb:	50                   	push   %eax
    66bc:	50                   	push   %eax
    66bd:	8b 02                	mov    (%edx),%eax
    66bf:	8b 4b 58             	mov    0x58(%ebx),%ecx
    66c2:	51                   	push   %ecx
    66c3:	8b 00                	mov    (%eax),%eax
    66c5:	50                   	push   %eax
    66c6:	e8 a5 26 00 00       	call   8d70 <vol_part_empty@plt>
    66cb:	83 c4 10             	add    $0x10,%esp
    66ce:	85 c0                	test   %eax,%eax
    66d0:	75 07                	jne    66d9 <fdisk_dev_erase+0x49>
    66d2:	c7 43 38 00 00 00 00 	movl   $0x0,0x38(%ebx)
    66d9:	8b 5d fc             	mov    -0x4(%ebp),%ebx
    66dc:	c9                   	leave  
    66dd:	c3                   	ret    
    66de:	66 90                	xchg   %ax,%ax
    66e0:	b8 f2 ff ff ff       	mov    $0xfffffff2,%eax
    66e5:	8b 5d fc             	mov    -0x4(%ebp),%ebx
    66e8:	c9                   	leave  
    66e9:	c3                   	ret    
    66ea:	50                   	push   %eax
    66eb:	68 e4 01 00 00       	push   $0x1e4
    66f0:	68 90 89 00 00       	push   $0x8990
    66f5:	68 9c 89 00 00       	push   $0x899c
    66fa:	e8 31 27 00 00       	call   8e30 <assert_abort@plt>
    66ff:	90                   	nop

00006700 <fdisk_dev_get_flags>:
    6700:	55                   	push   %ebp
    6701:	89 e5                	mov    %esp,%ebp
    6703:	83 ec 08             	sub    $0x8,%esp
    6706:	8b 45 08             	mov    0x8(%ebp),%eax
    6709:	8b 48 2c             	mov    0x2c(%eax),%ecx
    670c:	85 c9                	test   %ecx,%ecx
    670e:	75 28                	jne    6738 <fdisk_dev_get_flags+0x38>
    6710:	8b 50 0c             	mov    0xc(%eax),%edx
    6713:	83 c0 08             	add    $0x8,%eax
    6716:	39 c2                	cmp    %eax,%edx
    6718:	74 2a                	je     6744 <fdisk_dev_get_flags+0x44>
    671a:	85 d2                	test   %edx,%edx
    671c:	74 26                	je     6744 <fdisk_dev_get_flags+0x44>
    671e:	83 ea 04             	sub    $0x4,%edx
    6721:	74 21                	je     6744 <fdisk_dev_get_flags+0x44>
    6723:	83 7a 38 01          	cmpl   $0x1,0x38(%edx)
    6727:	19 c0                	sbb    %eax,%eax
    6729:	8b 55 0c             	mov    0xc(%ebp),%edx
    672c:	83 e0 fd             	and    $0xfffffffd,%eax
    672f:	83 c0 04             	add    $0x4,%eax
    6732:	89 02                	mov    %eax,(%edx)
    6734:	c9                   	leave  
    6735:	c3                   	ret    
    6736:	66 90                	xchg   %ax,%ax
    6738:	8b 55 0c             	mov    0xc(%ebp),%edx
    673b:	b8 02 00 00 00       	mov    $0x2,%eax
    6740:	89 02                	mov    %eax,(%edx)
    6742:	c9                   	leave  
    6743:	c3                   	ret    
    6744:	50                   	push   %eax
    6745:	68 fb 01 00 00       	push   $0x1fb
    674a:	68 90 89 00 00       	push   $0x8990
    674f:	68 9c 89 00 00       	push   $0x899c
    6754:	e8 d7 26 00 00       	call   8e30 <assert_abort@plt>
    6759:	8d b4 26 00 00 00 00 	lea    0x0(%esi,%eiz,1),%esi

00006760 <fdisk_dev_get_svcname>:
    6760:	55                   	push   %ebp
    6761:	89 e5                	mov    %esp,%ebp
    6763:	83 ec 20             	sub    $0x20,%esp
    6766:	8d 45 f4             	lea    -0xc(%ebp),%eax
    6769:	50                   	push   %eax
    676a:	8b 45 08             	mov    0x8(%ebp),%eax
    676d:	8b 40 04             	mov    0x4(%eax),%eax
    6770:	50                   	push   %eax
    6771:	e8 9a 26 00 00       	call   8e10 <loc_service_get_name@plt>
    6776:	83 c4 10             	add    $0x10,%esp
    6779:	85 c0                	test   %eax,%eax
    677b:	75 08                	jne    6785 <fdisk_dev_get_svcname+0x25>
    677d:	8b 55 0c             	mov    0xc(%ebp),%edx
    6780:	8b 4d f4             	mov    -0xc(%ebp),%ecx
    6783:	89 0a                	mov    %ecx,(%edx)
    6785:	c9                   	leave  
    6786:	c3                   	ret    
    6787:	89 f6                	mov    %esi,%esi
    6789:	8d bc 27 00 00 00 00 	lea    0x0(%edi,%eiz,1),%edi

00006790 <fdisk_dev_capacity>:
    6790:	55                   	push   %ebp
    6791:	89 e5                	mov    %esp,%ebp
    6793:	83 ec 08             	sub    $0x8,%esp
    6796:	8b 45 08             	mov    0x8(%ebp),%eax
    6799:	8b 55 0c             	mov    0xc(%ebp),%edx
    679c:	52                   	push   %edx
    679d:	8b 48 44             	mov    0x44(%eax),%ecx
    67a0:	8b 50 4c             	mov    0x4c(%eax),%edx
    67a3:	51                   	push   %ecx
    67a4:	52                   	push   %edx
    67a5:	8b 48 48             	mov    0x48(%eax),%ecx
    67a8:	51                   	push   %ecx
    67a9:	e8 b2 e6 ff ff       	call   4e60 <fdisk_cap_from_blocks>
    67ae:	31 c0                	xor    %eax,%eax
    67b0:	c9                   	leave  
    67b1:	c3                   	ret    
    67b2:	8d b4 26 00 00 00 00 	lea    0x0(%esi,%eiz,1),%esi
    67b9:	8d bc 27 00 00 00 00 	lea    0x0(%edi,%eiz,1),%edi

000067c0 <fdisk_label_get_info>:
    67c0:	55                   	push   %ebp
    67c1:	89 e5                	mov    %esp,%ebp
    67c3:	57                   	push   %edi
    67c4:	56                   	push   %esi
    67c5:	53                   	push   %ebx
    67c6:	83 ec 60             	sub    $0x60,%esp
    67c9:	8d 45 c4             	lea    -0x3c(%ebp),%eax
    67cc:	8b 5d 08             	mov    0x8(%ebp),%ebx
    67cf:	8b 75 0c             	mov    0xc(%ebp),%esi
    67d2:	50                   	push   %eax
    67d3:	8b 03                	mov    (%ebx),%eax
    67d5:	8b 53 04             	mov    0x4(%ebx),%edx
    67d8:	52                   	push   %edx
    67d9:	8b 48 04             	mov    0x4(%eax),%ecx
    67dc:	51                   	push   %ecx
    67dd:	e8 4e 25 00 00       	call   8d30 <vbd_disk_info@plt>
    67e2:	83 c4 10             	add    $0x10,%esp
    67e5:	85 c0                	test   %eax,%eax
    67e7:	0f 85 b3 00 00 00    	jne    68a0 <fdisk_label_get_info+0xe0>
    67ed:	89 c7                	mov    %eax,%edi
    67ef:	8b 45 c4             	mov    -0x3c(%ebp),%eax
    67f2:	89 06                	mov    %eax,(%esi)
    67f4:	8b 45 c8             	mov    -0x38(%ebp),%eax
    67f7:	89 46 04             	mov    %eax,0x4(%esi)
    67fa:	a8 0c                	test   $0xc,%al
    67fc:	75 72                	jne    6870 <fdisk_label_get_info+0xb0>
    67fe:	a8 10                	test   $0x10,%al
    6800:	74 36                	je     6838 <fdisk_label_get_info+0x78>
    6802:	8b 43 50             	mov    0x50(%ebx),%eax
    6805:	8b 53 54             	mov    0x54(%ebx),%edx
    6808:	89 55 a4             	mov    %edx,-0x5c(%ebp)
    680b:	89 45 a0             	mov    %eax,-0x60(%ebp)
    680e:	09 c2                	or     %eax,%edx
    6810:	74 36                	je     6848 <fdisk_label_get_info+0x88>
    6812:	83 ec 0c             	sub    $0xc,%esp
    6815:	8d 45 b8             	lea    -0x48(%ebp),%eax
    6818:	8d 4d b0             	lea    -0x50(%ebp),%ecx
    681b:	ba 01 00 00 00       	mov    $0x1,%edx
    6820:	50                   	push   %eax
    6821:	89 d8                	mov    %ebx,%eax
    6823:	e8 88 f0 ff ff       	call   58b0 <fdisk_part_get_max_free_range>
    6828:	83 c4 10             	add    $0x10,%esp
    682b:	85 c0                	test   %eax,%eax
    682d:	74 29                	je     6858 <fdisk_label_get_info+0x98>
    682f:	8b 46 04             	mov    0x4(%esi),%eax
    6832:	83 e0 ef             	and    $0xffffffef,%eax
    6835:	89 46 04             	mov    %eax,0x4(%esi)
    6838:	8d 65 f4             	lea    -0xc(%ebp),%esp
    683b:	89 f8                	mov    %edi,%eax
    683d:	5b                   	pop    %ebx
    683e:	5e                   	pop    %esi
    683f:	5f                   	pop    %edi
    6840:	5d                   	pop    %ebp
    6841:	c3                   	ret    
    6842:	8d b6 00 00 00 00    	lea    0x0(%esi),%esi
    6848:	c7 45 a0 01 00 00 00 	movl   $0x1,-0x60(%ebp)
    684f:	c7 45 a4 00 00 00 00 	movl   $0x0,-0x5c(%ebp)
    6856:	eb ba                	jmp    6812 <fdisk_label_get_info+0x52>
    6858:	8b 45 a4             	mov    -0x5c(%ebp),%eax
    685b:	3b 45 bc             	cmp    -0x44(%ebp),%eax
    685e:	72 d8                	jb     6838 <fdisk_label_get_info+0x78>
    6860:	77 cd                	ja     682f <fdisk_label_get_info+0x6f>
    6862:	8b 45 a0             	mov    -0x60(%ebp),%eax
    6865:	3b 45 b8             	cmp    -0x48(%ebp),%eax
    6868:	72 ce                	jb     6838 <fdisk_label_get_info+0x78>
    686a:	eb c3                	jmp    682f <fdisk_label_get_info+0x6f>
    686c:	8d 74 26 00          	lea    0x0(%esi,%eiz,1),%esi
    6870:	83 ec 0c             	sub    $0xc,%esp
    6873:	8d 45 b8             	lea    -0x48(%ebp),%eax
    6876:	31 d2                	xor    %edx,%edx
    6878:	8d 4d b0             	lea    -0x50(%ebp),%ecx
    687b:	50                   	push   %eax
    687c:	89 d8                	mov    %ebx,%eax
    687e:	e8 2d f0 ff ff       	call   58b0 <fdisk_part_get_max_free_range>
    6883:	83 c4 10             	add    $0x10,%esp
    6886:	85 c0                	test   %eax,%eax
    6888:	8b 46 04             	mov    0x4(%esi),%eax
    688b:	0f 84 6d ff ff ff    	je     67fe <fdisk_label_get_info+0x3e>
    6891:	83 e0 f3             	and    $0xfffffff3,%eax
    6894:	89 46 04             	mov    %eax,0x4(%esi)
    6897:	e9 62 ff ff ff       	jmp    67fe <fdisk_label_get_info+0x3e>
    689c:	8d 74 26 00          	lea    0x0(%esi,%eiz,1),%esi
    68a0:	bf f6 fe ff ff       	mov    $0xfffffef6,%edi
    68a5:	eb 91                	jmp    6838 <fdisk_label_get_info+0x78>
    68a7:	89 f6                	mov    %esi,%esi
    68a9:	8d bc 27 00 00 00 00 	lea    0x0(%edi,%eiz,1),%edi

000068b0 <fdisk_label_create>:
    68b0:	55                   	push   %ebp
    68b1:	89 e5                	mov    %esp,%ebp
    68b3:	57                   	push   %edi
    68b4:	56                   	push   %esi
    68b5:	53                   	push   %ebx
    68b6:	83 ec 1c             	sub    $0x1c,%esp
    68b9:	8b 5d 08             	mov    0x8(%ebp),%ebx
    68bc:	8b 73 2c             	mov    0x2c(%ebx),%esi
    68bf:	85 f6                	test   %esi,%esi
    68c1:	0f 85 71 02 00 00    	jne    6b38 <fdisk_label_create+0x288>
    68c7:	8b 43 0c             	mov    0xc(%ebx),%eax
    68ca:	8d 73 08             	lea    0x8(%ebx),%esi
    68cd:	85 c0                	test   %eax,%eax
    68cf:	0f 84 99 02 00 00    	je     6b6e <fdisk_label_create+0x2be>
    68d5:	39 f0                	cmp    %esi,%eax
    68d7:	0f 84 91 02 00 00    	je     6b6e <fdisk_label_create+0x2be>
    68dd:	83 e8 04             	sub    $0x4,%eax
    68e0:	0f 84 88 02 00 00    	je     6b6e <fdisk_label_create+0x2be>
    68e6:	8b 50 38             	mov    0x38(%eax),%edx
    68e9:	85 d2                	test   %edx,%edx
    68eb:	0f 84 98 00 00 00    	je     6989 <fdisk_label_create+0xd9>
    68f1:	e9 42 02 00 00       	jmp    6b38 <fdisk_label_create+0x288>
    68f6:	66 90                	xchg   %ax,%ax
    68f8:	8b 50 18             	mov    0x18(%eax),%edx
    68fb:	85 d2                	test   %edx,%edx
    68fd:	0f 84 c0 00 00 00    	je     69c3 <fdisk_label_create+0x113>
    6903:	89 0a                	mov    %ecx,(%edx)
    6905:	8b 48 14             	mov    0x14(%eax),%ecx
    6908:	89 51 04             	mov    %edx,0x4(%ecx)
    690b:	c7 40 14 00 00 00 00 	movl   $0x0,0x14(%eax)
    6912:	c7 40 18 00 00 00 00 	movl   $0x0,0x18(%eax)
    6919:	8b 48 0c             	mov    0xc(%eax),%ecx
    691c:	85 c9                	test   %ecx,%ecx
    691e:	0f 84 a4 00 00 00    	je     69c8 <fdisk_label_create+0x118>
    6924:	8b 50 10             	mov    0x10(%eax),%edx
    6927:	85 d2                	test   %edx,%edx
    6929:	0f 84 94 00 00 00    	je     69c3 <fdisk_label_create+0x113>
    692f:	89 0a                	mov    %ecx,(%edx)
    6931:	8b 48 0c             	mov    0xc(%eax),%ecx
    6934:	89 51 04             	mov    %edx,0x4(%ecx)
    6937:	8b 48 1c             	mov    0x1c(%eax),%ecx
    693a:	c7 40 0c 00 00 00 00 	movl   $0x0,0xc(%eax)
    6941:	c7 40 10 00 00 00 00 	movl   $0x0,0x10(%eax)
    6948:	85 c9                	test   %ecx,%ecx
    694a:	0f 84 90 00 00 00    	je     69e0 <fdisk_label_create+0x130>
    6950:	8b 50 20             	mov    0x20(%eax),%edx
    6953:	85 d2                	test   %edx,%edx
    6955:	74 6c                	je     69c3 <fdisk_label_create+0x113>
    6957:	89 0a                	mov    %ecx,(%edx)
    6959:	8b 48 1c             	mov    0x1c(%eax),%ecx
    695c:	89 51 04             	mov    %edx,0x4(%ecx)
    695f:	c7 40 1c 00 00 00 00 	movl   $0x0,0x1c(%eax)
    6966:	c7 40 20 00 00 00 00 	movl   $0x0,0x20(%eax)
    696d:	83 ec 0c             	sub    $0xc,%esp
    6970:	50                   	push   %eax
    6971:	e8 6a 26 00 00       	call   8fe0 <free@plt>
    6976:	8b 43 0c             	mov    0xc(%ebx),%eax
    6979:	83 c4 10             	add    $0x10,%esp
    697c:	39 c6                	cmp    %eax,%esi
    697e:	74 70                	je     69f0 <fdisk_label_create+0x140>
    6980:	85 c0                	test   %eax,%eax
    6982:	74 6c                	je     69f0 <fdisk_label_create+0x140>
    6984:	83 e8 04             	sub    $0x4,%eax
    6987:	74 67                	je     69f0 <fdisk_label_create+0x140>
    6989:	8b 48 04             	mov    0x4(%eax),%ecx
    698c:	85 c9                	test   %ecx,%ecx
    698e:	74 0f                	je     699f <fdisk_label_create+0xef>
    6990:	8b 50 08             	mov    0x8(%eax),%edx
    6993:	85 d2                	test   %edx,%edx
    6995:	74 08                	je     699f <fdisk_label_create+0xef>
    6997:	89 0a                	mov    %ecx,(%edx)
    6999:	8b 48 04             	mov    0x4(%eax),%ecx
    699c:	89 51 04             	mov    %edx,0x4(%ecx)
    699f:	8b 48 14             	mov    0x14(%eax),%ecx
    69a2:	c7 40 04 00 00 00 00 	movl   $0x0,0x4(%eax)
    69a9:	c7 40 08 00 00 00 00 	movl   $0x0,0x8(%eax)
    69b0:	85 c9                	test   %ecx,%ecx
    69b2:	0f 85 40 ff ff ff    	jne    68f8 <fdisk_label_create+0x48>
    69b8:	8b 78 18             	mov    0x18(%eax),%edi
    69bb:	85 ff                	test   %edi,%edi
    69bd:	0f 84 56 ff ff ff    	je     6919 <fdisk_label_create+0x69>
    69c3:	e8 ef 15 00 00       	call   7fb7 <link_used.part.2>
    69c8:	8b 48 10             	mov    0x10(%eax),%ecx
    69cb:	85 c9                	test   %ecx,%ecx
    69cd:	75 f4                	jne    69c3 <fdisk_label_create+0x113>
    69cf:	8b 48 1c             	mov    0x1c(%eax),%ecx
    69d2:	85 c9                	test   %ecx,%ecx
    69d4:	0f 85 76 ff ff ff    	jne    6950 <fdisk_label_create+0xa0>
    69da:	8d b6 00 00 00 00    	lea    0x0(%esi),%esi
    69e0:	8b 50 20             	mov    0x20(%eax),%edx
    69e3:	85 d2                	test   %edx,%edx
    69e5:	75 dc                	jne    69c3 <fdisk_label_create+0x113>
    69e7:	eb 84                	jmp    696d <fdisk_label_create+0xbd>
    69e9:	8d b4 26 00 00 00 00 	lea    0x0(%esi,%eiz,1),%esi
    69f0:	56                   	push   %esi
    69f1:	8b 7d 0c             	mov    0xc(%ebp),%edi
    69f4:	8b 43 04             	mov    0x4(%ebx),%eax
    69f7:	57                   	push   %edi
    69f8:	50                   	push   %eax
    69f9:	8b 03                	mov    (%ebx),%eax
    69fb:	8b 40 04             	mov    0x4(%eax),%eax
    69fe:	50                   	push   %eax
    69ff:	e8 cc 24 00 00       	call   8ed0 <vbd_label_create@plt>
    6a04:	83 c4 10             	add    $0x10,%esp
    6a07:	89 45 e4             	mov    %eax,-0x1c(%ebp)
    6a0a:	85 c0                	test   %eax,%eax
    6a0c:	75 72                	jne    6a80 <fdisk_label_create+0x1d0>
    6a0e:	50                   	push   %eax
    6a0f:	8d 43 2c             	lea    0x2c(%ebx),%eax
    6a12:	50                   	push   %eax
    6a13:	8b 03                	mov    (%ebx),%eax
    6a15:	8b 53 04             	mov    0x4(%ebx),%edx
    6a18:	8b 48 04             	mov    0x4(%eax),%ecx
    6a1b:	52                   	push   %edx
    6a1c:	51                   	push   %ecx
    6a1d:	e8 0e 23 00 00       	call   8d30 <vbd_disk_info@plt>
    6a22:	83 c4 10             	add    $0x10,%esp
    6a25:	89 45 e4             	mov    %eax,-0x1c(%ebp)
    6a28:	85 c0                	test   %eax,%eax
    6a2a:	0f 85 32 01 00 00    	jne    6b62 <fdisk_label_create+0x2b2>
    6a30:	8b 43 44             	mov    0x44(%ebx),%eax
    6a33:	8b 4b 40             	mov    0x40(%ebx),%ecx
    6a36:	0f af c8             	imul   %eax,%ecx
    6a39:	89 45 e0             	mov    %eax,-0x20(%ebp)
    6a3c:	f7 63 3c             	mull   0x3c(%ebx)
    6a3f:	01 ca                	add    %ecx,%edx
    6a41:	89 c6                	mov    %eax,%esi
    6a43:	89 d7                	mov    %edx,%edi
    6a45:	0f ac fe 14          	shrd   $0x14,%edi,%esi
    6a49:	c1 ef 14             	shr    $0x14,%edi
    6a4c:	83 ff 00             	cmp    $0x0,%edi
    6a4f:	76 47                	jbe    6a98 <fdisk_label_create+0x1e8>
    6a51:	ba 00 00 10 00       	mov    $0x100000,%edx
    6a56:	66 90                	xchg   %ax,%ax
    6a58:	89 d0                	mov    %edx,%eax
    6a5a:	31 d2                	xor    %edx,%edx
    6a5c:	f7 75 e0             	divl   -0x20(%ebp)
    6a5f:	85 c0                	test   %eax,%eax
    6a61:	0f 85 b9 00 00 00    	jne    6b20 <fdisk_label_create+0x270>
    6a67:	c7 43 50 01 00 00 00 	movl   $0x1,0x50(%ebx)
    6a6e:	c7 43 54 00 00 00 00 	movl   $0x0,0x54(%ebx)
    6a75:	8b 45 e4             	mov    -0x1c(%ebp),%eax
    6a78:	8d 65 f4             	lea    -0xc(%ebp),%esp
    6a7b:	5b                   	pop    %ebx
    6a7c:	5e                   	pop    %esi
    6a7d:	5f                   	pop    %edi
    6a7e:	5d                   	pop    %ebp
    6a7f:	c3                   	ret    
    6a80:	89 d8                	mov    %ebx,%eax
    6a82:	e8 29 f1 ff ff       	call   5bb0 <fdisk_dev_add_parts>
    6a87:	8b 45 e4             	mov    -0x1c(%ebp),%eax
    6a8a:	8d 65 f4             	lea    -0xc(%ebp),%esp
    6a8d:	5b                   	pop    %ebx
    6a8e:	5e                   	pop    %esi
    6a8f:	5f                   	pop    %edi
    6a90:	5d                   	pop    %ebp
    6a91:	c3                   	ret    
    6a92:	8d b6 00 00 00 00    	lea    0x0(%esi),%esi
    6a98:	81 fe ff 00 00 00    	cmp    $0xff,%esi
    6a9e:	77 b1                	ja     6a51 <fdisk_label_create+0x1a1>
    6aa0:	89 d7                	mov    %edx,%edi
    6aa2:	89 c6                	mov    %eax,%esi
    6aa4:	0f ac fe 10          	shrd   $0x10,%edi,%esi
    6aa8:	c1 ef 10             	shr    $0x10,%edi
    6aab:	83 ff 00             	cmp    $0x0,%edi
    6aae:	76 08                	jbe    6ab8 <fdisk_label_create+0x208>
    6ab0:	ba 00 00 01 00       	mov    $0x10000,%edx
    6ab5:	eb a1                	jmp    6a58 <fdisk_label_create+0x1a8>
    6ab7:	90                   	nop
    6ab8:	81 fe ff 00 00 00    	cmp    $0xff,%esi
    6abe:	77 f0                	ja     6ab0 <fdisk_label_create+0x200>
    6ac0:	89 d7                	mov    %edx,%edi
    6ac2:	89 c6                	mov    %eax,%esi
    6ac4:	0f ac fe 0c          	shrd   $0xc,%edi,%esi
    6ac8:	c1 ef 0c             	shr    $0xc,%edi
    6acb:	83 ff 00             	cmp    $0x0,%edi
    6ace:	76 08                	jbe    6ad8 <fdisk_label_create+0x228>
    6ad0:	ba 00 10 00 00       	mov    $0x1000,%edx
    6ad5:	eb 81                	jmp    6a58 <fdisk_label_create+0x1a8>
    6ad7:	90                   	nop
    6ad8:	81 fe ff 00 00 00    	cmp    $0xff,%esi
    6ade:	77 f0                	ja     6ad0 <fdisk_label_create+0x220>
    6ae0:	89 d7                	mov    %edx,%edi
    6ae2:	89 c6                	mov    %eax,%esi
    6ae4:	0f ac fe 08          	shrd   $0x8,%edi,%esi
    6ae8:	c1 ef 08             	shr    $0x8,%edi
    6aeb:	83 ff 00             	cmp    $0x0,%edi
    6aee:	76 10                	jbe    6b00 <fdisk_label_create+0x250>
    6af0:	ba 00 01 00 00       	mov    $0x100,%edx
    6af5:	e9 5e ff ff ff       	jmp    6a58 <fdisk_label_create+0x1a8>
    6afa:	8d b6 00 00 00 00    	lea    0x0(%esi),%esi
    6b00:	81 fe ff 00 00 00    	cmp    $0xff,%esi
    6b06:	77 e8                	ja     6af0 <fdisk_label_create+0x240>
    6b08:	0f ac d0 04          	shrd   $0x4,%edx,%eax
    6b0c:	c1 ea 04             	shr    $0x4,%edx
    6b0f:	83 fa 00             	cmp    $0x0,%edx
    6b12:	76 3c                	jbe    6b50 <fdisk_label_create+0x2a0>
    6b14:	ba 10 00 00 00       	mov    $0x10,%edx
    6b19:	e9 3a ff ff ff       	jmp    6a58 <fdisk_label_create+0x1a8>
    6b1e:	66 90                	xchg   %ax,%ax
    6b20:	89 43 50             	mov    %eax,0x50(%ebx)
    6b23:	c7 43 54 00 00 00 00 	movl   $0x0,0x54(%ebx)
    6b2a:	8b 45 e4             	mov    -0x1c(%ebp),%eax
    6b2d:	8d 65 f4             	lea    -0xc(%ebp),%esp
    6b30:	5b                   	pop    %ebx
    6b31:	5e                   	pop    %esi
    6b32:	5f                   	pop    %edi
    6b33:	5d                   	pop    %ebp
    6b34:	c3                   	ret    
    6b35:	8d 76 00             	lea    0x0(%esi),%esi
    6b38:	c7 45 e4 f7 ff ff ff 	movl   $0xfffffff7,-0x1c(%ebp)
    6b3f:	8b 45 e4             	mov    -0x1c(%ebp),%eax
    6b42:	8d 65 f4             	lea    -0xc(%ebp),%esp
    6b45:	5b                   	pop    %ebx
    6b46:	5e                   	pop    %esi
    6b47:	5f                   	pop    %edi
    6b48:	5d                   	pop    %ebp
    6b49:	c3                   	ret    
    6b4a:	8d b6 00 00 00 00    	lea    0x0(%esi),%esi
    6b50:	ba 01 00 00 00       	mov    $0x1,%edx
    6b55:	3d ff 00 00 00       	cmp    $0xff,%eax
    6b5a:	0f 86 f8 fe ff ff    	jbe    6a58 <fdisk_label_create+0x1a8>
    6b60:	eb b2                	jmp    6b14 <fdisk_label_create+0x264>
    6b62:	c7 45 e4 f6 fe ff ff 	movl   $0xfffffef6,-0x1c(%ebp)
    6b69:	e9 07 ff ff ff       	jmp    6a75 <fdisk_label_create+0x1c5>
    6b6e:	51                   	push   %ecx
    6b6f:	68 4b 02 00 00       	push   $0x24b
    6b74:	68 90 89 00 00       	push   $0x8990
    6b79:	68 9c 89 00 00       	push   $0x899c
    6b7e:	e8 ad 22 00 00       	call   8e30 <assert_abort@plt>
    6b83:	8d b6 00 00 00 00    	lea    0x0(%esi),%esi
    6b89:	8d bc 27 00 00 00 00 	lea    0x0(%edi,%eiz,1),%edi

00006b90 <fdisk_label_destroy>:
    6b90:	55                   	push   %ebp
    6b91:	89 e5                	mov    %esp,%ebp
    6b93:	57                   	push   %edi
    6b94:	56                   	push   %esi
    6b95:	53                   	push   %ebx
    6b96:	83 ec 0c             	sub    $0xc,%esp
    6b99:	8b 75 08             	mov    0x8(%ebp),%esi
    6b9c:	8b 5e 0c             	mov    0xc(%esi),%ebx
    6b9f:	8d 7e 08             	lea    0x8(%esi),%edi
    6ba2:	39 df                	cmp    %ebx,%edi
    6ba4:	0f 84 f0 00 00 00    	je     6c9a <fdisk_label_destroy+0x10a>
    6baa:	8d b6 00 00 00 00    	lea    0x0(%esi),%esi
    6bb0:	85 db                	test   %ebx,%ebx
    6bb2:	0f 84 e2 00 00 00    	je     6c9a <fdisk_label_destroy+0x10a>
    6bb8:	83 eb 04             	sub    $0x4,%ebx
    6bbb:	0f 84 d9 00 00 00    	je     6c9a <fdisk_label_destroy+0x10a>
    6bc1:	50                   	push   %eax
    6bc2:	50                   	push   %eax
    6bc3:	8b 43 40             	mov    0x40(%ebx),%eax
    6bc6:	50                   	push   %eax
    6bc7:	8b 03                	mov    (%ebx),%eax
    6bc9:	8b 00                	mov    (%eax),%eax
    6bcb:	8b 40 04             	mov    0x4(%eax),%eax
    6bce:	50                   	push   %eax
    6bcf:	e8 ec 20 00 00       	call   8cc0 <vbd_part_delete@plt>
    6bd4:	83 c4 10             	add    $0x10,%esp
    6bd7:	85 c0                	test   %eax,%eax
    6bd9:	0f 85 19 01 00 00    	jne    6cf8 <fdisk_label_destroy+0x168>
    6bdf:	8b 53 04             	mov    0x4(%ebx),%edx
    6be2:	85 d2                	test   %edx,%edx
    6be4:	74 0f                	je     6bf5 <fdisk_label_destroy+0x65>
    6be6:	8b 43 08             	mov    0x8(%ebx),%eax
    6be9:	85 c0                	test   %eax,%eax
    6beb:	74 08                	je     6bf5 <fdisk_label_destroy+0x65>
    6bed:	89 10                	mov    %edx,(%eax)
    6bef:	8b 53 04             	mov    0x4(%ebx),%edx
    6bf2:	89 42 04             	mov    %eax,0x4(%edx)
    6bf5:	8b 53 14             	mov    0x14(%ebx),%edx
    6bf8:	c7 43 04 00 00 00 00 	movl   $0x0,0x4(%ebx)
    6bff:	c7 43 08 00 00 00 00 	movl   $0x0,0x8(%ebx)
    6c06:	85 d2                	test   %edx,%edx
    6c08:	0f 84 ba 00 00 00    	je     6cc8 <fdisk_label_destroy+0x138>
    6c0e:	8b 43 18             	mov    0x18(%ebx),%eax
    6c11:	85 c0                	test   %eax,%eax
    6c13:	0f 84 ba 00 00 00    	je     6cd3 <fdisk_label_destroy+0x143>
    6c19:	89 10                	mov    %edx,(%eax)
    6c1b:	8b 53 14             	mov    0x14(%ebx),%edx
    6c1e:	89 42 04             	mov    %eax,0x4(%edx)
    6c21:	c7 43 14 00 00 00 00 	movl   $0x0,0x14(%ebx)
    6c28:	c7 43 18 00 00 00 00 	movl   $0x0,0x18(%ebx)
    6c2f:	8b 53 0c             	mov    0xc(%ebx),%edx
    6c32:	85 d2                	test   %edx,%edx
    6c34:	0f 84 9e 00 00 00    	je     6cd8 <fdisk_label_destroy+0x148>
    6c3a:	8b 43 10             	mov    0x10(%ebx),%eax
    6c3d:	85 c0                	test   %eax,%eax
    6c3f:	0f 84 8e 00 00 00    	je     6cd3 <fdisk_label_destroy+0x143>
    6c45:	89 10                	mov    %edx,(%eax)
    6c47:	8b 53 0c             	mov    0xc(%ebx),%edx
    6c4a:	89 42 04             	mov    %eax,0x4(%edx)
    6c4d:	c7 43 0c 00 00 00 00 	movl   $0x0,0xc(%ebx)
    6c54:	c7 43 10 00 00 00 00 	movl   $0x0,0x10(%ebx)
    6c5b:	8b 53 1c             	mov    0x1c(%ebx),%edx
    6c5e:	85 d2                	test   %edx,%edx
    6c60:	0f 84 82 00 00 00    	je     6ce8 <fdisk_label_destroy+0x158>
    6c66:	8b 43 20             	mov    0x20(%ebx),%eax
    6c69:	85 c0                	test   %eax,%eax
    6c6b:	74 66                	je     6cd3 <fdisk_label_destroy+0x143>
    6c6d:	89 10                	mov    %edx,(%eax)
    6c6f:	8b 53 1c             	mov    0x1c(%ebx),%edx
    6c72:	89 42 04             	mov    %eax,0x4(%edx)
    6c75:	c7 43 1c 00 00 00 00 	movl   $0x0,0x1c(%ebx)
    6c7c:	c7 43 20 00 00 00 00 	movl   $0x0,0x20(%ebx)
    6c83:	83 ec 0c             	sub    $0xc,%esp
    6c86:	53                   	push   %ebx
    6c87:	e8 54 23 00 00       	call   8fe0 <free@plt>
    6c8c:	8b 5e 0c             	mov    0xc(%esi),%ebx
    6c8f:	83 c4 10             	add    $0x10,%esp
    6c92:	39 df                	cmp    %ebx,%edi
    6c94:	0f 85 16 ff ff ff    	jne    6bb0 <fdisk_label_destroy+0x20>
    6c9a:	50                   	push   %eax
    6c9b:	50                   	push   %eax
    6c9c:	8b 06                	mov    (%esi),%eax
    6c9e:	8b 56 04             	mov    0x4(%esi),%edx
    6ca1:	52                   	push   %edx
    6ca2:	8b 48 04             	mov    0x4(%eax),%ecx
    6ca5:	51                   	push   %ecx
    6ca6:	e8 f5 20 00 00       	call   8da0 <vbd_label_delete@plt>
    6cab:	83 c4 10             	add    $0x10,%esp
    6cae:	85 c0                	test   %eax,%eax
    6cb0:	75 46                	jne    6cf8 <fdisk_label_destroy+0x168>
    6cb2:	89 f0                	mov    %esi,%eax
    6cb4:	e8 f7 ee ff ff       	call   5bb0 <fdisk_dev_add_parts>
    6cb9:	85 c0                	test   %eax,%eax
    6cbb:	74 4b                	je     6d08 <fdisk_label_destroy+0x178>
    6cbd:	8d 65 f4             	lea    -0xc(%ebp),%esp
    6cc0:	5b                   	pop    %ebx
    6cc1:	5e                   	pop    %esi
    6cc2:	5f                   	pop    %edi
    6cc3:	5d                   	pop    %ebp
    6cc4:	c3                   	ret    
    6cc5:	8d 76 00             	lea    0x0(%esi),%esi
    6cc8:	8b 43 18             	mov    0x18(%ebx),%eax
    6ccb:	85 c0                	test   %eax,%eax
    6ccd:	0f 84 5c ff ff ff    	je     6c2f <fdisk_label_destroy+0x9f>
    6cd3:	e8 df 12 00 00       	call   7fb7 <link_used.part.2>
    6cd8:	8b 43 10             	mov    0x10(%ebx),%eax
    6cdb:	85 c0                	test   %eax,%eax
    6cdd:	0f 84 78 ff ff ff    	je     6c5b <fdisk_label_destroy+0xcb>
    6ce3:	e8 cf 12 00 00       	call   7fb7 <link_used.part.2>
    6ce8:	8b 4b 20             	mov    0x20(%ebx),%ecx
    6ceb:	85 c9                	test   %ecx,%ecx
    6ced:	74 94                	je     6c83 <fdisk_label_destroy+0xf3>
    6cef:	e8 c3 12 00 00       	call   7fb7 <link_used.part.2>
    6cf4:	8d 74 26 00          	lea    0x0(%esi,%eiz,1),%esi
    6cf8:	8d 65 f4             	lea    -0xc(%ebp),%esp
    6cfb:	b8 f6 fe ff ff       	mov    $0xfffffef6,%eax
    6d00:	5b                   	pop    %ebx
    6d01:	5e                   	pop    %esi
    6d02:	5f                   	pop    %edi
    6d03:	5d                   	pop    %ebp
    6d04:	c3                   	ret    
    6d05:	8d 76 00             	lea    0x0(%esi),%esi
    6d08:	8b 56 2c             	mov    0x2c(%esi),%edx
    6d0b:	85 d2                	test   %edx,%edx
    6d0d:	75 ae                	jne    6cbd <fdisk_label_destroy+0x12d>
    6d0f:	8b 56 0c             	mov    0xc(%esi),%edx
    6d12:	39 d7                	cmp    %edx,%edi
    6d14:	74 39                	je     6d4f <fdisk_label_destroy+0x1bf>
    6d16:	85 d2                	test   %edx,%edx
    6d18:	74 35                	je     6d4f <fdisk_label_destroy+0x1bf>
    6d1a:	83 ea 04             	sub    $0x4,%edx
    6d1d:	89 d3                	mov    %edx,%ebx
    6d1f:	74 2e                	je     6d4f <fdisk_label_destroy+0x1bf>
    6d21:	8b 7a 38             	mov    0x38(%edx),%edi
    6d24:	85 ff                	test   %edi,%edi
    6d26:	74 95                	je     6cbd <fdisk_label_destroy+0x12d>
    6d28:	50                   	push   %eax
    6d29:	50                   	push   %eax
    6d2a:	8b 06                	mov    (%esi),%eax
    6d2c:	8b 52 58             	mov    0x58(%edx),%edx
    6d2f:	52                   	push   %edx
    6d30:	8b 08                	mov    (%eax),%ecx
    6d32:	51                   	push   %ecx
    6d33:	e8 38 20 00 00       	call   8d70 <vol_part_empty@plt>
    6d38:	83 c4 10             	add    $0x10,%esp
    6d3b:	85 c0                	test   %eax,%eax
    6d3d:	0f 85 7a ff ff ff    	jne    6cbd <fdisk_label_destroy+0x12d>
    6d43:	c7 43 38 00 00 00 00 	movl   $0x0,0x38(%ebx)
    6d4a:	e9 6e ff ff ff       	jmp    6cbd <fdisk_label_destroy+0x12d>
    6d4f:	50                   	push   %eax
    6d50:	68 fb 01 00 00       	push   $0x1fb
    6d55:	68 90 89 00 00       	push   $0x8990
    6d5a:	68 9c 89 00 00       	push   $0x899c
    6d5f:	e8 cc 20 00 00       	call   8e30 <assert_abort@plt>
    6d64:	8d b6 00 00 00 00    	lea    0x0(%esi),%esi
    6d6a:	8d bf 00 00 00 00    	lea    0x0(%edi),%edi

00006d70 <fdisk_part_first>:
    6d70:	55                   	push   %ebp
    6d71:	89 e5                	mov    %esp,%ebp
    6d73:	8b 55 08             	mov    0x8(%ebp),%edx
    6d76:	8b 42 0c             	mov    0xc(%edx),%eax
    6d79:	85 c0                	test   %eax,%eax
    6d7b:	74 0c                	je     6d89 <fdisk_part_first+0x19>
    6d7d:	83 c2 08             	add    $0x8,%edx
    6d80:	39 d0                	cmp    %edx,%eax
    6d82:	74 05                	je     6d89 <fdisk_part_first+0x19>
    6d84:	83 e8 04             	sub    $0x4,%eax
    6d87:	5d                   	pop    %ebp
    6d88:	c3                   	ret    
    6d89:	31 c0                	xor    %eax,%eax
    6d8b:	5d                   	pop    %ebp
    6d8c:	c3                   	ret    
    6d8d:	8d 76 00             	lea    0x0(%esi),%esi

00006d90 <fdisk_part_next>:
    6d90:	55                   	push   %ebp
    6d91:	89 e5                	mov    %esp,%ebp
    6d93:	8b 55 08             	mov    0x8(%ebp),%edx
    6d96:	8b 42 08             	mov    0x8(%edx),%eax
    6d99:	8b 12                	mov    (%edx),%edx
    6d9b:	83 c2 08             	add    $0x8,%edx
    6d9e:	39 d0                	cmp    %edx,%eax
    6da0:	74 09                	je     6dab <fdisk_part_next+0x1b>
    6da2:	85 c0                	test   %eax,%eax
    6da4:	74 05                	je     6dab <fdisk_part_next+0x1b>
    6da6:	83 e8 04             	sub    $0x4,%eax
    6da9:	5d                   	pop    %ebp
    6daa:	c3                   	ret    
    6dab:	31 c0                	xor    %eax,%eax
    6dad:	5d                   	pop    %ebp
    6dae:	c3                   	ret    
    6daf:	90                   	nop

00006db0 <fdisk_part_get_info>:
    6db0:	55                   	push   %ebp
    6db1:	89 e5                	mov    %esp,%ebp
    6db3:	8b 55 08             	mov    0x8(%ebp),%edx
    6db6:	8b 45 0c             	mov    0xc(%ebp),%eax
    6db9:	8b 4a 24             	mov    0x24(%edx),%ecx
    6dbc:	89 08                	mov    %ecx,(%eax)
    6dbe:	8b 4a 28             	mov    0x28(%edx),%ecx
    6dc1:	89 48 04             	mov    %ecx,0x4(%eax)
    6dc4:	8b 4a 2c             	mov    0x2c(%edx),%ecx
    6dc7:	89 48 08             	mov    %ecx,0x8(%eax)
    6dca:	8b 4a 30             	mov    0x30(%edx),%ecx
    6dcd:	89 48 0c             	mov    %ecx,0xc(%eax)
    6dd0:	8b 4a 38             	mov    0x38(%edx),%ecx
    6dd3:	89 48 14             	mov    %ecx,0x14(%eax)
    6dd6:	8b 4a 3c             	mov    0x3c(%edx),%ecx
    6dd9:	8b 52 34             	mov    0x34(%edx),%edx
    6ddc:	89 48 18             	mov    %ecx,0x18(%eax)
    6ddf:	89 50 10             	mov    %edx,0x10(%eax)
    6de2:	31 c0                	xor    %eax,%eax
    6de4:	5d                   	pop    %ebp
    6de5:	c3                   	ret    
    6de6:	8d 76 00             	lea    0x0(%esi),%esi
    6de9:	8d bc 27 00 00 00 00 	lea    0x0(%edi,%eiz,1),%edi

00006df0 <fdisk_part_get_max_avail>:
    6df0:	55                   	push   %ebp
    6df1:	89 e5                	mov    %esp,%ebp
    6df3:	57                   	push   %edi
    6df4:	56                   	push   %esi
    6df5:	53                   	push   %ebx
    6df6:	83 ec 38             	sub    $0x38,%esp
    6df9:	8d 45 e0             	lea    -0x20(%ebp),%eax
    6dfc:	8d 4d d8             	lea    -0x28(%ebp),%ecx
    6dff:	8b 55 0c             	mov    0xc(%ebp),%edx
    6e02:	50                   	push   %eax
    6e03:	8b 45 08             	mov    0x8(%ebp),%eax
    6e06:	e8 a5 ea ff ff       	call   58b0 <fdisk_part_get_max_free_range>
    6e0b:	83 c4 10             	add    $0x10,%esp
    6e0e:	85 c0                	test   %eax,%eax
    6e10:	75 27                	jne    6e39 <fdisk_part_get_max_avail+0x49>
    6e12:	83 7d 0c 01          	cmpl   $0x1,0xc(%ebp)
    6e16:	74 30                	je     6e48 <fdisk_part_get_max_avail+0x58>
    6e18:	8b 4d e0             	mov    -0x20(%ebp),%ecx
    6e1b:	8b 5d e4             	mov    -0x1c(%ebp),%ebx
    6e1e:	89 45 d4             	mov    %eax,-0x2c(%ebp)
    6e21:	8b 45 10             	mov    0x10(%ebp),%eax
    6e24:	50                   	push   %eax
    6e25:	8b 45 08             	mov    0x8(%ebp),%eax
    6e28:	8b 50 44             	mov    0x44(%eax),%edx
    6e2b:	52                   	push   %edx
    6e2c:	53                   	push   %ebx
    6e2d:	51                   	push   %ecx
    6e2e:	e8 2d e0 ff ff       	call   4e60 <fdisk_cap_from_blocks>
    6e33:	83 c4 10             	add    $0x10,%esp
    6e36:	8b 45 d4             	mov    -0x2c(%ebp),%eax
    6e39:	8d 65 f4             	lea    -0xc(%ebp),%esp
    6e3c:	5b                   	pop    %ebx
    6e3d:	5e                   	pop    %esi
    6e3e:	5f                   	pop    %edi
    6e3f:	5d                   	pop    %ebp
    6e40:	c3                   	ret    
    6e41:	8d b4 26 00 00 00 00 	lea    0x0(%esi,%eiz,1),%esi
    6e48:	8b 5d 08             	mov    0x8(%ebp),%ebx
    6e4b:	8b 7b 54             	mov    0x54(%ebx),%edi
    6e4e:	8b 73 50             	mov    0x50(%ebx),%esi
    6e51:	89 f9                	mov    %edi,%ecx
    6e53:	09 f1                	or     %esi,%ecx
    6e55:	74 19                	je     6e70 <fdisk_part_get_max_avail+0x80>
    6e57:	8b 5d e4             	mov    -0x1c(%ebp),%ebx
    6e5a:	8b 4d e0             	mov    -0x20(%ebp),%ecx
    6e5d:	39 df                	cmp    %ebx,%edi
    6e5f:	77 06                	ja     6e67 <fdisk_part_get_max_avail+0x77>
    6e61:	72 25                	jb     6e88 <fdisk_part_get_max_avail+0x98>
    6e63:	39 ce                	cmp    %ecx,%esi
    6e65:	72 21                	jb     6e88 <fdisk_part_get_max_avail+0x98>
    6e67:	b8 fd fe ff ff       	mov    $0xfffffefd,%eax
    6e6c:	eb cb                	jmp    6e39 <fdisk_part_get_max_avail+0x49>
    6e6e:	66 90                	xchg   %ax,%ax
    6e70:	31 ff                	xor    %edi,%edi
    6e72:	8b 5d e4             	mov    -0x1c(%ebp),%ebx
    6e75:	be 01 00 00 00       	mov    $0x1,%esi
    6e7a:	8b 4d e0             	mov    -0x20(%ebp),%ecx
    6e7d:	39 df                	cmp    %ebx,%edi
    6e7f:	77 e6                	ja     6e67 <fdisk_part_get_max_avail+0x77>
    6e81:	eb de                	jmp    6e61 <fdisk_part_get_max_avail+0x71>
    6e83:	90                   	nop
    6e84:	8d 74 26 00          	lea    0x0(%esi,%eiz,1),%esi
    6e88:	29 f1                	sub    %esi,%ecx
    6e8a:	19 fb                	sbb    %edi,%ebx
    6e8c:	89 4d e0             	mov    %ecx,-0x20(%ebp)
    6e8f:	89 5d e4             	mov    %ebx,-0x1c(%ebp)
    6e92:	eb 8a                	jmp    6e1e <fdisk_part_get_max_avail+0x2e>
    6e94:	8d b6 00 00 00 00    	lea    0x0(%esi),%esi
    6e9a:	8d bf 00 00 00 00    	lea    0x0(%edi),%edi

00006ea0 <fdisk_part_get_tot_avail>:
    6ea0:	55                   	push   %ebp
    6ea1:	89 e5                	mov    %esp,%ebp
    6ea3:	57                   	push   %edi
    6ea4:	56                   	push   %esi
    6ea5:	53                   	push   %ebx
    6ea6:	83 ec 4c             	sub    $0x4c,%esp
    6ea9:	8b 45 0c             	mov    0xc(%ebp),%eax
    6eac:	83 f8 01             	cmp    $0x1,%eax
    6eaf:	0f 84 7b 02 00 00    	je     7130 <fdisk_part_get_tot_avail+0x290>
    6eb5:	85 c0                	test   %eax,%eax
    6eb7:	0f 85 03 03 00 00    	jne    71c0 <fdisk_part_get_tot_avail+0x320>
    6ebd:	8b 45 08             	mov    0x8(%ebp),%eax
    6ec0:	8b 7d 08             	mov    0x8(%ebp),%edi
    6ec3:	8b 50 54             	mov    0x54(%eax),%edx
    6ec6:	8b 40 50             	mov    0x50(%eax),%eax
    6ec9:	89 c3                	mov    %eax,%ebx
    6ecb:	89 45 d0             	mov    %eax,-0x30(%ebp)
    6ece:	03 47 34             	add    0x34(%edi),%eax
    6ed1:	89 d6                	mov    %edx,%esi
    6ed3:	89 55 d4             	mov    %edx,-0x2c(%ebp)
    6ed6:	13 57 38             	adc    0x38(%edi),%edx
    6ed9:	83 c0 ff             	add    $0xffffffff,%eax
    6edc:	83 d2 ff             	adc    $0xffffffff,%edx
    6edf:	56                   	push   %esi
    6ee0:	53                   	push   %ebx
    6ee1:	52                   	push   %edx
    6ee2:	50                   	push   %eax
    6ee3:	e8 08 1f 00 00       	call   8df0 <__udivdi3@plt>
    6ee8:	89 f1                	mov    %esi,%ecx
    6eea:	89 c7                	mov    %eax,%edi
    6eec:	0f af d3             	imul   %ebx,%edx
    6eef:	0f af cf             	imul   %edi,%ecx
    6ef2:	89 f8                	mov    %edi,%eax
    6ef4:	01 d1                	add    %edx,%ecx
    6ef6:	f7 e3                	mul    %ebx
    6ef8:	89 55 dc             	mov    %edx,-0x24(%ebp)
    6efb:	89 45 d8             	mov    %eax,-0x28(%ebp)
    6efe:	8b 45 08             	mov    0x8(%ebp),%eax
    6f01:	8b 7d dc             	mov    -0x24(%ebp),%edi
    6f04:	01 cf                	add    %ecx,%edi
    6f06:	83 c4 10             	add    $0x10,%esp
    6f09:	8b 70 1c             	mov    0x1c(%eax),%esi
    6f0c:	89 7d dc             	mov    %edi,-0x24(%ebp)
    6f0f:	85 f6                	test   %esi,%esi
    6f11:	0f 84 fd 02 00 00    	je     7214 <fdisk_part_get_tot_avail+0x374>
    6f17:	83 c0 18             	add    $0x18,%eax
    6f1a:	39 c6                	cmp    %eax,%esi
    6f1c:	0f 84 f2 02 00 00    	je     7214 <fdisk_part_get_tot_avail+0x374>
    6f22:	83 ee 14             	sub    $0x14,%esi
    6f25:	c7 45 e0 00 00 00 00 	movl   $0x0,-0x20(%ebp)
    6f2c:	c7 45 c8 00 00 00 00 	movl   $0x0,-0x38(%ebp)
    6f33:	c7 45 cc 00 00 00 00 	movl   $0x0,-0x34(%ebp)
    6f3a:	8b 45 d0             	mov    -0x30(%ebp),%eax
    6f3d:	8b 55 d4             	mov    -0x2c(%ebp),%edx
    6f40:	83 c0 ff             	add    $0xffffffff,%eax
    6f43:	c7 45 b8 00 00 00 00 	movl   $0x0,-0x48(%ebp)
    6f4a:	89 45 c0             	mov    %eax,-0x40(%ebp)
    6f4d:	8b 45 08             	mov    0x8(%ebp),%eax
    6f50:	83 d2 ff             	adc    $0xffffffff,%edx
    6f53:	83 c0 20             	add    $0x20,%eax
    6f56:	89 45 b4             	mov    %eax,-0x4c(%ebp)
    6f59:	8b 45 08             	mov    0x8(%ebp),%eax
    6f5c:	83 c0 18             	add    $0x18,%eax
    6f5f:	c7 45 bc 00 00 00 00 	movl   $0x0,-0x44(%ebp)
    6f66:	89 45 b0             	mov    %eax,-0x50(%ebp)
    6f69:	89 55 c4             	mov    %edx,-0x3c(%ebp)
    6f6c:	89 75 e4             	mov    %esi,-0x1c(%ebp)
    6f6f:	89 f0                	mov    %esi,%eax
    6f71:	85 c0                	test   %eax,%eax
    6f73:	0f 84 d5 00 00 00    	je     704e <fdisk_part_get_tot_avail+0x1ae>
    6f79:	8b 70 48             	mov    0x48(%eax),%esi
    6f7c:	8b 78 4c             	mov    0x4c(%eax),%edi
    6f7f:	8b 4d d4             	mov    -0x2c(%ebp),%ecx
    6f82:	8b 5d d0             	mov    -0x30(%ebp),%ebx
    6f85:	51                   	push   %ecx
    6f86:	53                   	push   %ebx
    6f87:	57                   	push   %edi
    6f88:	56                   	push   %esi
    6f89:	e8 52 1e 00 00       	call   8de0 <__umoddi3@plt>
    6f8e:	89 f1                	mov    %esi,%ecx
    6f90:	83 c4 10             	add    $0x10,%esp
    6f93:	89 fb                	mov    %edi,%ebx
    6f95:	29 c1                	sub    %eax,%ecx
    6f97:	8b 45 d8             	mov    -0x28(%ebp),%eax
    6f9a:	19 d3                	sbb    %edx,%ebx
    6f9c:	8b 55 dc             	mov    -0x24(%ebp),%edx
    6f9f:	39 d3                	cmp    %edx,%ebx
    6fa1:	72 47                	jb     6fea <fdisk_part_get_tot_avail+0x14a>
    6fa3:	77 04                	ja     6fa9 <fdisk_part_get_tot_avail+0x109>
    6fa5:	39 c1                	cmp    %eax,%ecx
    6fa7:	72 41                	jb     6fea <fdisk_part_get_tot_avail+0x14a>
    6fa9:	2b 4d d8             	sub    -0x28(%ebp),%ecx
    6fac:	8b 55 cc             	mov    -0x34(%ebp),%edx
    6faf:	1b 5d dc             	sbb    -0x24(%ebp),%ebx
    6fb2:	8b 45 c8             	mov    -0x38(%ebp),%eax
    6fb5:	39 d3                	cmp    %edx,%ebx
    6fb7:	77 07                	ja     6fc0 <fdisk_part_get_tot_avail+0x120>
    6fb9:	72 26                	jb     6fe1 <fdisk_part_get_tot_avail+0x141>
    6fbb:	39 c1                	cmp    %eax,%ecx
    6fbd:	76 22                	jbe    6fe1 <fdisk_part_get_tot_avail+0x141>
    6fbf:	90                   	nop
    6fc0:	8b 45 b8             	mov    -0x48(%ebp),%eax
    6fc3:	8b 55 bc             	mov    -0x44(%ebp),%edx
    6fc6:	2b 45 c8             	sub    -0x38(%ebp),%eax
    6fc9:	1b 55 cc             	sbb    -0x34(%ebp),%edx
    6fcc:	01 c1                	add    %eax,%ecx
    6fce:	11 d3                	adc    %edx,%ebx
    6fd0:	8b 45 e4             	mov    -0x1c(%ebp),%eax
    6fd3:	89 4d b8             	mov    %ecx,-0x48(%ebp)
    6fd6:	89 5d bc             	mov    %ebx,-0x44(%ebp)
    6fd9:	85 c0                	test   %eax,%eax
    6fdb:	0f 84 f5 00 00 00    	je     70d6 <fdisk_part_get_tot_avail+0x236>
    6fe1:	8b 45 e4             	mov    -0x1c(%ebp),%eax
    6fe4:	8b 70 48             	mov    0x48(%eax),%esi
    6fe7:	8b 78 4c             	mov    0x4c(%eax),%edi
    6fea:	89 f0                	mov    %esi,%eax
    6fec:	89 fa                	mov    %edi,%edx
    6fee:	03 45 c0             	add    -0x40(%ebp),%eax
    6ff1:	8b 7d e4             	mov    -0x1c(%ebp),%edi
    6ff4:	13 55 c4             	adc    -0x3c(%ebp),%edx
    6ff7:	03 47 50             	add    0x50(%edi),%eax
    6ffa:	13 57 54             	adc    0x54(%edi),%edx
    6ffd:	8b 5d d0             	mov    -0x30(%ebp),%ebx
    7000:	8b 75 d4             	mov    -0x2c(%ebp),%esi
    7003:	56                   	push   %esi
    7004:	53                   	push   %ebx
    7005:	52                   	push   %edx
    7006:	50                   	push   %eax
    7007:	e8 e4 1d 00 00       	call   8df0 <__udivdi3@plt>
    700c:	89 f1                	mov    %esi,%ecx
    700e:	0f af d3             	imul   %ebx,%edx
    7011:	0f af c8             	imul   %eax,%ecx
    7014:	01 d1                	add    %edx,%ecx
    7016:	83 c4 10             	add    $0x10,%esp
    7019:	f7 e3                	mul    %ebx
    701b:	89 55 dc             	mov    %edx,-0x24(%ebp)
    701e:	89 45 d8             	mov    %eax,-0x28(%ebp)
    7021:	8b 75 dc             	mov    -0x24(%ebp),%esi
    7024:	8b 45 e0             	mov    -0x20(%ebp),%eax
    7027:	01 ce                	add    %ecx,%esi
    7029:	85 c0                	test   %eax,%eax
    702b:	89 75 dc             	mov    %esi,-0x24(%ebp)
    702e:	0f 85 84 00 00 00    	jne    70b8 <fdisk_part_get_tot_avail+0x218>
    7034:	8b 77 18             	mov    0x18(%edi),%esi
    7037:	3b 75 b0             	cmp    -0x50(%ebp),%esi
    703a:	74 24                	je     7060 <fdisk_part_get_tot_avail+0x1c0>
    703c:	85 f6                	test   %esi,%esi
    703e:	74 20                	je     7060 <fdisk_part_get_tot_avail+0x1c0>
    7040:	8d 46 ec             	lea    -0x14(%esi),%eax
    7043:	89 45 e4             	mov    %eax,-0x1c(%ebp)
    7046:	85 c0                	test   %eax,%eax
    7048:	0f 85 2b ff ff ff    	jne    6f79 <fdisk_part_get_tot_avail+0xd9>
    704e:	8b 55 e0             	mov    -0x20(%ebp),%edx
    7051:	85 d2                	test   %edx,%edx
    7053:	0f 85 9f 00 00 00    	jne    70f8 <fdisk_part_get_tot_avail+0x258>
    7059:	8d b4 26 00 00 00 00 	lea    0x0(%esi,%eiz,1),%esi
    7060:	8b 45 08             	mov    0x8(%ebp),%eax
    7063:	8b 70 3c             	mov    0x3c(%eax),%esi
    7066:	8b 78 40             	mov    0x40(%eax),%edi
    7069:	03 70 34             	add    0x34(%eax),%esi
    706c:	13 78 38             	adc    0x38(%eax),%edi
    706f:	8b 45 d4             	mov    -0x2c(%ebp),%eax
    7072:	50                   	push   %eax
    7073:	8b 45 d0             	mov    -0x30(%ebp),%eax
    7076:	50                   	push   %eax
    7077:	57                   	push   %edi
    7078:	56                   	push   %esi
    7079:	e8 62 1d 00 00       	call   8de0 <__umoddi3@plt>
    707e:	89 f1                	mov    %esi,%ecx
    7080:	83 c4 10             	add    $0x10,%esp
    7083:	89 fb                	mov    %edi,%ebx
    7085:	29 c1                	sub    %eax,%ecx
    7087:	19 d3                	sbb    %edx,%ebx
    7089:	8b 55 dc             	mov    -0x24(%ebp),%edx
    708c:	8b 45 d8             	mov    -0x28(%ebp),%eax
    708f:	39 da                	cmp    %ebx,%edx
    7091:	77 43                	ja     70d6 <fdisk_part_get_tot_avail+0x236>
    7093:	0f 83 87 00 00 00    	jae    7120 <fdisk_part_get_tot_avail+0x280>
    7099:	2b 4d d8             	sub    -0x28(%ebp),%ecx
    709c:	8b 55 cc             	mov    -0x34(%ebp),%edx
    709f:	1b 5d dc             	sbb    -0x24(%ebp),%ebx
    70a2:	8b 45 c8             	mov    -0x38(%ebp),%eax
    70a5:	39 d3                	cmp    %edx,%ebx
    70a7:	76 27                	jbe    70d0 <fdisk_part_get_tot_avail+0x230>
    70a9:	c7 45 e4 00 00 00 00 	movl   $0x0,-0x1c(%ebp)
    70b0:	e9 0b ff ff ff       	jmp    6fc0 <fdisk_part_get_tot_avail+0x120>
    70b5:	8d 76 00             	lea    0x0(%esi),%esi
    70b8:	8b 77 20             	mov    0x20(%edi),%esi
    70bb:	3b 75 b4             	cmp    -0x4c(%ebp),%esi
    70be:	74 38                	je     70f8 <fdisk_part_get_tot_avail+0x258>
    70c0:	85 f6                	test   %esi,%esi
    70c2:	74 34                	je     70f8 <fdisk_part_get_tot_avail+0x258>
    70c4:	8d 46 e4             	lea    -0x1c(%esi),%eax
    70c7:	89 45 e4             	mov    %eax,-0x1c(%ebp)
    70ca:	e9 a2 fe ff ff       	jmp    6f71 <fdisk_part_get_tot_avail+0xd1>
    70cf:	90                   	nop
    70d0:	0f 83 2a 01 00 00    	jae    7200 <fdisk_part_get_tot_avail+0x360>
    70d6:	8b 45 10             	mov    0x10(%ebp),%eax
    70d9:	8b 5d b8             	mov    -0x48(%ebp),%ebx
    70dc:	50                   	push   %eax
    70dd:	8b 45 08             	mov    0x8(%ebp),%eax
    70e0:	8b 4d bc             	mov    -0x44(%ebp),%ecx
    70e3:	8b 50 44             	mov    0x44(%eax),%edx
    70e6:	52                   	push   %edx
    70e7:	51                   	push   %ecx
    70e8:	53                   	push   %ebx
    70e9:	e8 72 dd ff ff       	call   4e60 <fdisk_cap_from_blocks>
    70ee:	8d 65 f4             	lea    -0xc(%ebp),%esp
    70f1:	31 c0                	xor    %eax,%eax
    70f3:	5b                   	pop    %ebx
    70f4:	5e                   	pop    %esi
    70f5:	5f                   	pop    %edi
    70f6:	5d                   	pop    %ebp
    70f7:	c3                   	ret    
    70f8:	8b 45 08             	mov    0x8(%ebp),%eax
    70fb:	8b 40 28             	mov    0x28(%eax),%eax
    70fe:	8b 70 50             	mov    0x50(%eax),%esi
    7101:	8b 78 54             	mov    0x54(%eax),%edi
    7104:	03 70 48             	add    0x48(%eax),%esi
    7107:	13 78 4c             	adc    0x4c(%eax),%edi
    710a:	8b 45 d4             	mov    -0x2c(%ebp),%eax
    710d:	50                   	push   %eax
    710e:	8b 45 d0             	mov    -0x30(%ebp),%eax
    7111:	50                   	push   %eax
    7112:	57                   	push   %edi
    7113:	56                   	push   %esi
    7114:	e8 c7 1c 00 00       	call   8de0 <__umoddi3@plt>
    7119:	e9 60 ff ff ff       	jmp    707e <fdisk_part_get_tot_avail+0x1de>
    711e:	66 90                	xchg   %ax,%ax
    7120:	39 c8                	cmp    %ecx,%eax
    7122:	77 b2                	ja     70d6 <fdisk_part_get_tot_avail+0x236>
    7124:	e9 70 ff ff ff       	jmp    7099 <fdisk_part_get_tot_avail+0x1f9>
    7129:	8d b4 26 00 00 00 00 	lea    0x0(%esi,%eiz,1),%esi
    7130:	8b 45 08             	mov    0x8(%ebp),%eax
    7133:	8b 50 54             	mov    0x54(%eax),%edx
    7136:	8b 40 50             	mov    0x50(%eax),%eax
    7139:	89 55 d4             	mov    %edx,-0x2c(%ebp)
    713c:	89 55 cc             	mov    %edx,-0x34(%ebp)
    713f:	89 45 d0             	mov    %eax,-0x30(%ebp)
    7142:	89 45 c8             	mov    %eax,-0x38(%ebp)
    7145:	09 c2                	or     %eax,%edx
    7147:	0f 84 9b 00 00 00    	je     71e8 <fdisk_part_get_tot_avail+0x348>
    714d:	c7 45 e0 01 00 00 00 	movl   $0x1,-0x20(%ebp)
    7154:	8b 45 08             	mov    0x8(%ebp),%eax
    7157:	8b 5d d0             	mov    -0x30(%ebp),%ebx
    715a:	8b 75 d4             	mov    -0x2c(%ebp),%esi
    715d:	8b 40 28             	mov    0x28(%eax),%eax
    7160:	03 58 48             	add    0x48(%eax),%ebx
    7163:	13 70 4c             	adc    0x4c(%eax),%esi
    7166:	89 d8                	mov    %ebx,%eax
    7168:	83 c0 ff             	add    $0xffffffff,%eax
    716b:	89 f2                	mov    %esi,%edx
    716d:	83 d2 ff             	adc    $0xffffffff,%edx
    7170:	8b 5d d0             	mov    -0x30(%ebp),%ebx
    7173:	8b 75 d4             	mov    -0x2c(%ebp),%esi
    7176:	56                   	push   %esi
    7177:	53                   	push   %ebx
    7178:	52                   	push   %edx
    7179:	50                   	push   %eax
    717a:	e8 71 1c 00 00       	call   8df0 <__udivdi3@plt>
    717f:	89 f1                	mov    %esi,%ecx
    7181:	89 c7                	mov    %eax,%edi
    7183:	83 c4 10             	add    $0x10,%esp
    7186:	0f af d3             	imul   %ebx,%edx
    7189:	0f af cf             	imul   %edi,%ecx
    718c:	89 f8                	mov    %edi,%eax
    718e:	01 d1                	add    %edx,%ecx
    7190:	f7 e3                	mul    %ebx
    7192:	89 55 dc             	mov    %edx,-0x24(%ebp)
    7195:	89 45 d8             	mov    %eax,-0x28(%ebp)
    7198:	8b 75 dc             	mov    -0x24(%ebp),%esi
    719b:	8b 45 08             	mov    0x8(%ebp),%eax
    719e:	01 ce                	add    %ecx,%esi
    71a0:	83 c0 20             	add    $0x20,%eax
    71a3:	89 75 dc             	mov    %esi,-0x24(%ebp)
    71a6:	8b 70 04             	mov    0x4(%eax),%esi
    71a9:	39 c6                	cmp    %eax,%esi
    71ab:	74 60                	je     720d <fdisk_part_get_tot_avail+0x36d>
    71ad:	85 f6                	test   %esi,%esi
    71af:	74 5c                	je     720d <fdisk_part_get_tot_avail+0x36d>
    71b1:	83 ee 1c             	sub    $0x1c,%esi
    71b4:	e9 81 fd ff ff       	jmp    6f3a <fdisk_part_get_tot_avail+0x9a>
    71b9:	8d b4 26 00 00 00 00 	lea    0x0(%esi,%eiz,1),%esi
    71c0:	8b 7d 08             	mov    0x8(%ebp),%edi
    71c3:	89 45 e0             	mov    %eax,-0x20(%ebp)
    71c6:	c7 45 c8 00 00 00 00 	movl   $0x0,-0x38(%ebp)
    71cd:	c7 45 cc 00 00 00 00 	movl   $0x0,-0x34(%ebp)
    71d4:	8b 5f 50             	mov    0x50(%edi),%ebx
    71d7:	8b 77 54             	mov    0x54(%edi),%esi
    71da:	89 5d d0             	mov    %ebx,-0x30(%ebp)
    71dd:	89 75 d4             	mov    %esi,-0x2c(%ebp)
    71e0:	89 f8                	mov    %edi,%eax
    71e2:	e9 76 ff ff ff       	jmp    715d <fdisk_part_get_tot_avail+0x2bd>
    71e7:	90                   	nop
    71e8:	c7 45 c8 01 00 00 00 	movl   $0x1,-0x38(%ebp)
    71ef:	c7 45 cc 00 00 00 00 	movl   $0x0,-0x34(%ebp)
    71f6:	e9 52 ff ff ff       	jmp    714d <fdisk_part_get_tot_avail+0x2ad>
    71fb:	90                   	nop
    71fc:	8d 74 26 00          	lea    0x0(%esi,%eiz,1),%esi
    7200:	39 c1                	cmp    %eax,%ecx
    7202:	0f 87 a1 fe ff ff    	ja     70a9 <fdisk_part_get_tot_avail+0x209>
    7208:	e9 c9 fe ff ff       	jmp    70d6 <fdisk_part_get_tot_avail+0x236>
    720d:	31 f6                	xor    %esi,%esi
    720f:	e9 26 fd ff ff       	jmp    6f3a <fdisk_part_get_tot_avail+0x9a>
    7214:	31 f6                	xor    %esi,%esi
    7216:	c7 45 e0 00 00 00 00 	movl   $0x0,-0x20(%ebp)
    721d:	c7 45 c8 00 00 00 00 	movl   $0x0,-0x38(%ebp)
    7224:	c7 45 cc 00 00 00 00 	movl   $0x0,-0x34(%ebp)
    722b:	e9 0a fd ff ff       	jmp    6f3a <fdisk_part_get_tot_avail+0x9a>

00007230 <fdisk_part_create>:
    7230:	55                   	push   %ebp
    7231:	89 e5                	mov    %esp,%ebp
    7233:	57                   	push   %edi
    7234:	56                   	push   %esi
    7235:	53                   	push   %ebx
    7236:	81 ec bc 00 00 00    	sub    $0xbc,%esp
    723c:	8d 45 98             	lea    -0x68(%ebp),%eax
    723f:	8b 5d 08             	mov    0x8(%ebp),%ebx
    7242:	50                   	push   %eax
    7243:	8b 43 44             	mov    0x44(%ebx),%eax
    7246:	50                   	push   %eax
    7247:	8b 45 0c             	mov    0xc(%ebp),%eax
    724a:	6a 00                	push   $0x0
    724c:	50                   	push   %eax
    724d:	e8 3e dc ff ff       	call   4e90 <fdisk_cap_to_blocks>
    7252:	83 c4 10             	add    $0x10,%esp
    7255:	85 c0                	test   %eax,%eax
    7257:	74 0f                	je     7268 <fdisk_part_create+0x38>
    7259:	be f6 fe ff ff       	mov    $0xfffffef6,%esi
    725e:	8d 65 f4             	lea    -0xc(%ebp),%esp
    7261:	89 f0                	mov    %esi,%eax
    7263:	5b                   	pop    %ebx
    7264:	5e                   	pop    %esi
    7265:	5f                   	pop    %edi
    7266:	5d                   	pop    %ebp
    7267:	c3                   	ret    
    7268:	8d 45 a0             	lea    -0x60(%ebp),%eax
    726b:	50                   	push   %eax
    726c:	8b 43 44             	mov    0x44(%ebx),%eax
    726f:	50                   	push   %eax
    7270:	8b 45 0c             	mov    0xc(%ebp),%eax
    7273:	6a 01                	push   $0x1
    7275:	50                   	push   %eax
    7276:	e8 15 dc ff ff       	call   4e90 <fdisk_cap_to_blocks>
    727b:	83 c4 10             	add    $0x10,%esp
    727e:	85 c0                	test   %eax,%eax
    7280:	75 d7                	jne    7259 <fdisk_part_create+0x29>
    7282:	8d 45 a8             	lea    -0x58(%ebp),%eax
    7285:	8b 7b 44             	mov    0x44(%ebx),%edi
    7288:	50                   	push   %eax
    7289:	8b 45 0c             	mov    0xc(%ebp),%eax
    728c:	57                   	push   %edi
    728d:	6a 02                	push   $0x2
    728f:	50                   	push   %eax
    7290:	e8 fb db ff ff       	call   4e90 <fdisk_cap_to_blocks>
    7295:	83 c4 10             	add    $0x10,%esp
    7298:	89 85 60 ff ff ff    	mov    %eax,-0xa0(%ebp)
    729e:	85 c0                	test   %eax,%eax
    72a0:	75 b7                	jne    7259 <fdisk_part_create+0x29>
    72a2:	8b 43 50             	mov    0x50(%ebx),%eax
    72a5:	8b 53 54             	mov    0x54(%ebx),%edx
    72a8:	89 c6                	mov    %eax,%esi
    72aa:	89 45 90             	mov    %eax,-0x70(%ebp)
    72ad:	03 45 98             	add    -0x68(%ebp),%eax
    72b0:	89 d7                	mov    %edx,%edi
    72b2:	89 55 94             	mov    %edx,-0x6c(%ebp)
    72b5:	57                   	push   %edi
    72b6:	13 55 9c             	adc    -0x64(%ebp),%edx
    72b9:	83 c0 ff             	add    $0xffffffff,%eax
    72bc:	83 d2 ff             	adc    $0xffffffff,%edx
    72bf:	56                   	push   %esi
    72c0:	52                   	push   %edx
    72c1:	50                   	push   %eax
    72c2:	e8 29 1b 00 00       	call   8df0 <__udivdi3@plt>
    72c7:	89 f9                	mov    %edi,%ecx
    72c9:	0f af d6             	imul   %esi,%edx
    72cc:	0f af c8             	imul   %eax,%ecx
    72cf:	89 45 88             	mov    %eax,-0x78(%ebp)
    72d2:	01 d1                	add    %edx,%ecx
    72d4:	f7 e6                	mul    %esi
    72d6:	89 95 54 ff ff ff    	mov    %edx,-0xac(%ebp)
    72dc:	89 85 50 ff ff ff    	mov    %eax,-0xb0(%ebp)
    72e2:	8b 85 54 ff ff ff    	mov    -0xac(%ebp),%eax
    72e8:	83 c4 10             	add    $0x10,%esp
    72eb:	01 c8                	add    %ecx,%eax
    72ed:	89 85 54 ff ff ff    	mov    %eax,-0xac(%ebp)
    72f3:	8b 85 50 ff ff ff    	mov    -0xb0(%ebp),%eax
    72f9:	89 45 98             	mov    %eax,-0x68(%ebp)
    72fc:	89 f0                	mov    %esi,%eax
    72fe:	03 45 a0             	add    -0x60(%ebp),%eax
    7301:	8b 95 54 ff ff ff    	mov    -0xac(%ebp),%edx
    7307:	89 55 9c             	mov    %edx,-0x64(%ebp)
    730a:	89 fa                	mov    %edi,%edx
    730c:	13 55 a4             	adc    -0x5c(%ebp),%edx
    730f:	83 c0 ff             	add    $0xffffffff,%eax
    7312:	83 d2 ff             	adc    $0xffffffff,%edx
    7315:	57                   	push   %edi
    7316:	56                   	push   %esi
    7317:	52                   	push   %edx
    7318:	50                   	push   %eax
    7319:	e8 d2 1a 00 00       	call   8df0 <__udivdi3@plt>
    731e:	89 f9                	mov    %edi,%ecx
    7320:	89 45 88             	mov    %eax,-0x78(%ebp)
    7323:	0f af d6             	imul   %esi,%edx
    7326:	0f af c8             	imul   %eax,%ecx
    7329:	01 d1                	add    %edx,%ecx
    732b:	83 c4 10             	add    $0x10,%esp
    732e:	f7 e6                	mul    %esi
    7330:	89 95 4c ff ff ff    	mov    %edx,-0xb4(%ebp)
    7336:	89 85 48 ff ff ff    	mov    %eax,-0xb8(%ebp)
    733c:	8b 95 4c ff ff ff    	mov    -0xb4(%ebp),%edx
    7342:	8b 85 48 ff ff ff    	mov    -0xb8(%ebp),%eax
    7348:	01 ca                	add    %ecx,%edx
    734a:	89 45 a0             	mov    %eax,-0x60(%ebp)
    734d:	89 95 4c ff ff ff    	mov    %edx,-0xb4(%ebp)
    7353:	89 f0                	mov    %esi,%eax
    7355:	8b 95 4c ff ff ff    	mov    -0xb4(%ebp),%edx
    735b:	03 45 a8             	add    -0x58(%ebp),%eax
    735e:	89 55 a4             	mov    %edx,-0x5c(%ebp)
    7361:	89 fa                	mov    %edi,%edx
    7363:	13 55 ac             	adc    -0x54(%ebp),%edx
    7366:	83 c0 ff             	add    $0xffffffff,%eax
    7369:	83 d2 ff             	adc    $0xffffffff,%edx
    736c:	57                   	push   %edi
    736d:	56                   	push   %esi
    736e:	52                   	push   %edx
    736f:	50                   	push   %eax
    7370:	e8 7b 1a 00 00       	call   8df0 <__udivdi3@plt>
    7375:	89 f9                	mov    %edi,%ecx
    7377:	89 45 88             	mov    %eax,-0x78(%ebp)
    737a:	0f af d6             	imul   %esi,%edx
    737d:	0f af c8             	imul   %eax,%ecx
    7380:	01 d1                	add    %edx,%ecx
    7382:	83 c4 10             	add    $0x10,%esp
    7385:	f7 e6                	mul    %esi
    7387:	89 95 44 ff ff ff    	mov    %edx,-0xbc(%ebp)
    738d:	89 85 40 ff ff ff    	mov    %eax,-0xc0(%ebp)
    7393:	8b b5 44 ff ff ff    	mov    -0xbc(%ebp),%esi
    7399:	8b 85 40 ff ff ff    	mov    -0xc0(%ebp),%eax
    739f:	01 ce                	add    %ecx,%esi
    73a1:	89 45 a8             	mov    %eax,-0x58(%ebp)
    73a4:	8b 45 0c             	mov    0xc(%ebp),%eax
    73a7:	89 b5 44 ff ff ff    	mov    %esi,-0xbc(%ebp)
    73ad:	8b 95 44 ff ff ff    	mov    -0xbc(%ebp),%edx
    73b3:	c7 85 3c ff ff ff ff 	movl   $0xffffffff,-0xc4(%ebp)
    73ba:	ff ff ff 
    73bd:	8b 40 14             	mov    0x14(%eax),%eax
    73c0:	89 55 ac             	mov    %edx,-0x54(%ebp)
    73c3:	83 f8 03             	cmp    $0x3,%eax
    73c6:	0f 86 c4 05 00 00    	jbe    7990 <fdisk_part_create+0x760>
    73cc:	8b 45 0c             	mov    0xc(%ebp),%eax
    73cf:	8b 40 10             	mov    0x10(%eax),%eax
    73d2:	89 85 38 ff ff ff    	mov    %eax,-0xc8(%ebp)
    73d8:	83 f8 02             	cmp    $0x2,%eax
    73db:	0f 84 7f 07 00 00    	je     7b60 <fdisk_part_create+0x930>
    73e1:	8b 73 34             	mov    0x34(%ebx),%esi
    73e4:	8b 45 90             	mov    -0x70(%ebp),%eax
    73e7:	8b 7b 38             	mov    0x38(%ebx),%edi
    73ea:	01 f0                	add    %esi,%eax
    73ec:	8b 55 94             	mov    -0x6c(%ebp),%edx
    73ef:	8b 4d 94             	mov    -0x6c(%ebp),%ecx
    73f2:	11 fa                	adc    %edi,%edx
    73f4:	83 c0 ff             	add    $0xffffffff,%eax
    73f7:	83 d2 ff             	adc    $0xffffffff,%edx
    73fa:	51                   	push   %ecx
    73fb:	8b 4d 90             	mov    -0x70(%ebp),%ecx
    73fe:	51                   	push   %ecx
    73ff:	52                   	push   %edx
    7400:	50                   	push   %eax
    7401:	e8 ea 19 00 00       	call   8df0 <__udivdi3@plt>
    7406:	8b 4d 90             	mov    -0x70(%ebp),%ecx
    7409:	83 c4 10             	add    $0x10,%esp
    740c:	0f af d1             	imul   %ecx,%edx
    740f:	8b 4d 94             	mov    -0x6c(%ebp),%ecx
    7412:	0f af c8             	imul   %eax,%ecx
    7415:	01 d1                	add    %edx,%ecx
    7417:	f7 65 90             	mull   -0x70(%ebp)
    741a:	89 55 8c             	mov    %edx,-0x74(%ebp)
    741d:	89 45 88             	mov    %eax,-0x78(%ebp)
    7420:	8b 45 8c             	mov    -0x74(%ebp),%eax
    7423:	01 c8                	add    %ecx,%eax
    7425:	8b 4b 1c             	mov    0x1c(%ebx),%ecx
    7428:	89 45 8c             	mov    %eax,-0x74(%ebp)
    742b:	8d 43 18             	lea    0x18(%ebx),%eax
    742e:	39 c1                	cmp    %eax,%ecx
    7430:	0f 84 5f 09 00 00    	je     7d95 <fdisk_part_create+0xb65>
    7436:	85 c9                	test   %ecx,%ecx
    7438:	0f 84 57 09 00 00    	je     7d95 <fdisk_part_create+0xb65>
    743e:	8b 85 50 ff ff ff    	mov    -0xb0(%ebp),%eax
    7444:	8b 95 54 ff ff ff    	mov    -0xac(%ebp),%edx
    744a:	83 e9 14             	sub    $0x14,%ecx
    744d:	89 85 68 ff ff ff    	mov    %eax,-0x98(%ebp)
    7453:	89 95 6c ff ff ff    	mov    %edx,-0x94(%ebp)
    7459:	c7 85 7c ff ff ff 00 	movl   $0x0,-0x84(%ebp)
    7460:	00 00 00 
    7463:	c7 85 58 ff ff ff 00 	movl   $0x0,-0xa8(%ebp)
    746a:	00 00 00 
    746d:	c7 85 5c ff ff ff 00 	movl   $0x0,-0xa4(%ebp)
    7474:	00 00 00 
    7477:	8b 45 90             	mov    -0x70(%ebp),%eax
    747a:	8b 55 94             	mov    -0x6c(%ebp),%edx
    747d:	83 c0 ff             	add    $0xffffffff,%eax
    7480:	89 5d 08             	mov    %ebx,0x8(%ebp)
    7483:	89 85 70 ff ff ff    	mov    %eax,-0x90(%ebp)
    7489:	8d 43 20             	lea    0x20(%ebx),%eax
    748c:	83 d2 ff             	adc    $0xffffffff,%edx
    748f:	89 85 64 ff ff ff    	mov    %eax,-0x9c(%ebp)
    7495:	8d 43 18             	lea    0x18(%ebx),%eax
    7498:	89 95 74 ff ff ff    	mov    %edx,-0x8c(%ebp)
    749e:	89 85 78 ff ff ff    	mov    %eax,-0x88(%ebp)
    74a4:	89 4d 80             	mov    %ecx,-0x80(%ebp)
    74a7:	89 c8                	mov    %ecx,%eax
    74a9:	8d b4 26 00 00 00 00 	lea    0x0(%esi,%eiz,1),%esi
    74b0:	85 c0                	test   %eax,%eax
    74b2:	0f 84 50 02 00 00    	je     7708 <fdisk_part_create+0x4d8>
    74b8:	8b 70 48             	mov    0x48(%eax),%esi
    74bb:	8b 78 4c             	mov    0x4c(%eax),%edi
    74be:	8b 45 94             	mov    -0x6c(%ebp),%eax
    74c1:	89 fb                	mov    %edi,%ebx
    74c3:	50                   	push   %eax
    74c4:	8b 45 90             	mov    -0x70(%ebp),%eax
    74c7:	50                   	push   %eax
    74c8:	57                   	push   %edi
    74c9:	56                   	push   %esi
    74ca:	e8 11 19 00 00       	call   8de0 <__umoddi3@plt>
    74cf:	89 f1                	mov    %esi,%ecx
    74d1:	83 c4 10             	add    $0x10,%esp
    74d4:	29 c1                	sub    %eax,%ecx
    74d6:	19 d3                	sbb    %edx,%ebx
    74d8:	89 c8                	mov    %ecx,%eax
    74da:	89 da                	mov    %ebx,%edx
    74dc:	8b 5d 8c             	mov    -0x74(%ebp),%ebx
    74df:	8b 4d 88             	mov    -0x78(%ebp),%ecx
    74e2:	39 da                	cmp    %ebx,%edx
    74e4:	0f 82 9e 01 00 00    	jb     7688 <fdisk_part_create+0x458>
    74ea:	77 08                	ja     74f4 <fdisk_part_create+0x2c4>
    74ec:	39 c8                	cmp    %ecx,%eax
    74ee:	0f 82 94 01 00 00    	jb     7688 <fdisk_part_create+0x458>
    74f4:	2b 45 88             	sub    -0x78(%ebp),%eax
    74f7:	8b 9d 6c ff ff ff    	mov    -0x94(%ebp),%ebx
    74fd:	1b 55 8c             	sbb    -0x74(%ebp),%edx
    7500:	8b 8d 68 ff ff ff    	mov    -0x98(%ebp),%ecx
    7506:	39 da                	cmp    %ebx,%edx
    7508:	77 0e                	ja     7518 <fdisk_part_create+0x2e8>
    750a:	0f 82 78 01 00 00    	jb     7688 <fdisk_part_create+0x458>
    7510:	39 c8                	cmp    %ecx,%eax
    7512:	0f 82 70 01 00 00    	jb     7688 <fdisk_part_create+0x458>
    7518:	89 45 80             	mov    %eax,-0x80(%ebp)
    751b:	89 55 84             	mov    %edx,-0x7c(%ebp)
    751e:	8b 5d 08             	mov    0x8(%ebp),%ebx
    7521:	8b 7d 84             	mov    -0x7c(%ebp),%edi
    7524:	8b 95 44 ff ff ff    	mov    -0xbc(%ebp),%edx
    752a:	8b 75 80             	mov    -0x80(%ebp),%esi
    752d:	8b 85 40 ff ff ff    	mov    -0xc0(%ebp),%eax
    7533:	39 fa                	cmp    %edi,%edx
    7535:	0f 86 7d 04 00 00    	jbe    79b8 <fdisk_part_create+0x788>
    753b:	83 bd 38 ff ff ff 02 	cmpl   $0x2,-0xc8(%ebp)
    7542:	74 5c                	je     75a0 <fdisk_part_create+0x370>
    7544:	8b 43 14             	mov    0x14(%ebx),%eax
    7547:	8d 4b 10             	lea    0x10(%ebx),%ecx
    754a:	39 c8                	cmp    %ecx,%eax
    754c:	0f 84 76 07 00 00    	je     7cc8 <fdisk_part_create+0xa98>
    7552:	85 c0                	test   %eax,%eax
    7554:	0f 84 6e 07 00 00    	je     7cc8 <fdisk_part_create+0xa98>
    755a:	8b 50 38             	mov    0x38(%eax),%edx
    755d:	83 fa 01             	cmp    $0x1,%edx
    7560:	0f 8f 62 07 00 00    	jg     7cc8 <fdisk_part_create+0xa98>
    7566:	8d 7a 01             	lea    0x1(%edx),%edi
    7569:	8b 40 04             	mov    0x4(%eax),%eax
    756c:	89 bd 60 ff ff ff    	mov    %edi,-0xa0(%ebp)
    7572:	89 fe                	mov    %edi,%esi
    7574:	39 c1                	cmp    %eax,%ecx
    7576:	74 28                	je     75a0 <fdisk_part_create+0x370>
    7578:	85 c0                	test   %eax,%eax
    757a:	74 11                	je     758d <fdisk_part_create+0x35d>
    757c:	8b 50 38             	mov    0x38(%eax),%edx
    757f:	39 f2                	cmp    %esi,%edx
    7581:	7f 0a                	jg     758d <fdisk_part_create+0x35d>
    7583:	8b 40 04             	mov    0x4(%eax),%eax
    7586:	8d 72 01             	lea    0x1(%edx),%esi
    7589:	39 c1                	cmp    %eax,%ecx
    758b:	75 eb                	jne    7578 <fdisk_part_create+0x348>
    758d:	89 b5 60 ff ff ff    	mov    %esi,-0xa0(%ebp)
    7593:	83 bd 60 ff ff ff 04 	cmpl   $0x4,-0xa0(%ebp)
    759a:	0f 8f b9 fc ff ff    	jg     7259 <fdisk_part_create+0x29>
    75a0:	8d 45 b4             	lea    -0x4c(%ebp),%eax
    75a3:	51                   	push   %ecx
    75a4:	6a 34                	push   $0x34
    75a6:	6a 00                	push   $0x0
    75a8:	50                   	push   %eax
    75a9:	e8 52 19 00 00       	call   8f00 <memset@plt>
    75ae:	8b 85 60 ff ff ff    	mov    -0xa0(%ebp),%eax
    75b4:	8b 75 88             	mov    -0x78(%ebp),%esi
    75b7:	89 45 b4             	mov    %eax,-0x4c(%ebp)
    75ba:	8b 85 58 ff ff ff    	mov    -0xa8(%ebp),%eax
    75c0:	01 c6                	add    %eax,%esi
    75c2:	8b 95 5c ff ff ff    	mov    -0xa4(%ebp),%edx
    75c8:	8b 7d 8c             	mov    -0x74(%ebp),%edi
    75cb:	89 d1                	mov    %edx,%ecx
    75cd:	89 75 b8             	mov    %esi,-0x48(%ebp)
    75d0:	8b 75 80             	mov    -0x80(%ebp),%esi
    75d3:	11 cf                	adc    %ecx,%edi
    75d5:	2b b5 58 ff ff ff    	sub    -0xa8(%ebp),%esi
    75db:	89 45 c8             	mov    %eax,-0x38(%ebp)
    75de:	89 7d bc             	mov    %edi,-0x44(%ebp)
    75e1:	8b 45 0c             	mov    0xc(%ebp),%eax
    75e4:	8b 7d 84             	mov    -0x7c(%ebp),%edi
    75e7:	1b bd 5c ff ff ff    	sbb    -0xa4(%ebp),%edi
    75ed:	89 55 cc             	mov    %edx,-0x34(%ebp)
    75f0:	8b 40 10             	mov    0x10(%eax),%eax
    75f3:	83 c4 10             	add    $0x10,%esp
    75f6:	89 45 d0             	mov    %eax,-0x30(%ebp)
    75f9:	89 75 c0             	mov    %esi,-0x40(%ebp)
    75fc:	89 7d c4             	mov    %edi,-0x3c(%ebp)
    75ff:	48                   	dec    %eax
    7600:	74 25                	je     7627 <fdisk_part_create+0x3f7>
    7602:	8d 45 d4             	lea    -0x2c(%ebp),%eax
    7605:	50                   	push   %eax
    7606:	8b 85 3c ff ff ff    	mov    -0xc4(%ebp),%eax
    760c:	50                   	push   %eax
    760d:	8b 43 04             	mov    0x4(%ebx),%eax
    7610:	50                   	push   %eax
    7611:	8b 03                	mov    (%ebx),%eax
    7613:	8b 50 04             	mov    0x4(%eax),%edx
    7616:	52                   	push   %edx
    7617:	e8 84 19 00 00       	call   8fa0 <vbd_suggest_ptype@plt>
    761c:	83 c4 10             	add    $0x10,%esp
    761f:	85 c0                	test   %eax,%eax
    7621:	0f 85 32 fc ff ff    	jne    7259 <fdisk_part_create+0x29>
    7627:	8d 45 a8             	lea    -0x58(%ebp),%eax
    762a:	50                   	push   %eax
    762b:	8d 45 b4             	lea    -0x4c(%ebp),%eax
    762e:	50                   	push   %eax
    762f:	8b 43 04             	mov    0x4(%ebx),%eax
    7632:	50                   	push   %eax
    7633:	8b 03                	mov    (%ebx),%eax
    7635:	8b 50 04             	mov    0x4(%eax),%edx
    7638:	52                   	push   %edx
    7639:	e8 12 18 00 00       	call   8e50 <vbd_part_create@plt>
    763e:	83 c4 10             	add    $0x10,%esp
    7641:	85 c0                	test   %eax,%eax
    7643:	0f 85 10 fc ff ff    	jne    7259 <fdisk_part_create+0x29>
    7649:	8d 4d a0             	lea    -0x60(%ebp),%ecx
    764c:	8b 55 a8             	mov    -0x58(%ebp),%edx
    764f:	89 d8                	mov    %ebx,%eax
    7651:	e8 0a df ff ff       	call   5560 <fdisk_part_add>
    7656:	89 c6                	mov    %eax,%esi
    7658:	85 c0                	test   %eax,%eax
    765a:	0f 85 48 06 00 00    	jne    7ca8 <fdisk_part_create+0xa78>
    7660:	8b 45 a0             	mov    -0x60(%ebp),%eax
    7663:	8b 50 58             	mov    0x58(%eax),%edx
    7666:	85 d2                	test   %edx,%edx
    7668:	0f 85 d2 00 00 00    	jne    7740 <fdisk_part_create+0x510>
    766e:	8b 55 10             	mov    0x10(%ebp),%edx
    7671:	85 d2                	test   %edx,%edx
    7673:	0f 84 e5 fb ff ff    	je     725e <fdisk_part_create+0x2e>
    7679:	8b 7d 10             	mov    0x10(%ebp),%edi
    767c:	89 07                	mov    %eax,(%edi)
    767e:	8d 65 f4             	lea    -0xc(%ebp),%esp
    7681:	89 f0                	mov    %esi,%eax
    7683:	5b                   	pop    %ebx
    7684:	5e                   	pop    %esi
    7685:	5f                   	pop    %edi
    7686:	5d                   	pop    %ebp
    7687:	c3                   	ret    
    7688:	8b 45 80             	mov    -0x80(%ebp),%eax
    768b:	03 b5 70 ff ff ff    	add    -0x90(%ebp),%esi
    7691:	13 bd 74 ff ff ff    	adc    -0x8c(%ebp),%edi
    7697:	03 70 50             	add    0x50(%eax),%esi
    769a:	13 78 54             	adc    0x54(%eax),%edi
    769d:	8b 45 94             	mov    -0x6c(%ebp),%eax
    76a0:	50                   	push   %eax
    76a1:	8b 45 90             	mov    -0x70(%ebp),%eax
    76a4:	50                   	push   %eax
    76a5:	57                   	push   %edi
    76a6:	56                   	push   %esi
    76a7:	e8 44 17 00 00       	call   8df0 <__udivdi3@plt>
    76ac:	8b 7d 94             	mov    -0x6c(%ebp),%edi
    76af:	89 c3                	mov    %eax,%ebx
    76b1:	89 f8                	mov    %edi,%eax
    76b3:	8b 75 90             	mov    -0x70(%ebp),%esi
    76b6:	0f af c3             	imul   %ebx,%eax
    76b9:	0f af d6             	imul   %esi,%edx
    76bc:	89 c6                	mov    %eax,%esi
    76be:	89 d8                	mov    %ebx,%eax
    76c0:	01 d6                	add    %edx,%esi
    76c2:	83 c4 10             	add    $0x10,%esp
    76c5:	f7 65 90             	mull   -0x70(%ebp)
    76c8:	89 55 8c             	mov    %edx,-0x74(%ebp)
    76cb:	89 45 88             	mov    %eax,-0x78(%ebp)
    76ce:	8b 45 8c             	mov    -0x74(%ebp),%eax
    76d1:	8b 95 7c ff ff ff    	mov    -0x84(%ebp),%edx
    76d7:	01 f0                	add    %esi,%eax
    76d9:	85 d2                	test   %edx,%edx
    76db:	89 45 8c             	mov    %eax,-0x74(%ebp)
    76de:	8b 45 80             	mov    -0x80(%ebp),%eax
    76e1:	75 3d                	jne    7720 <fdisk_part_create+0x4f0>
    76e3:	8b 48 18             	mov    0x18(%eax),%ecx
    76e6:	85 c9                	test   %ecx,%ecx
    76e8:	0f 84 72 02 00 00    	je     7960 <fdisk_part_create+0x730>
    76ee:	3b 8d 78 ff ff ff    	cmp    -0x88(%ebp),%ecx
    76f4:	0f 84 66 02 00 00    	je     7960 <fdisk_part_create+0x730>
    76fa:	8d 41 ec             	lea    -0x14(%ecx),%eax
    76fd:	89 45 80             	mov    %eax,-0x80(%ebp)
    7700:	85 c0                	test   %eax,%eax
    7702:	0f 85 b0 fd ff ff    	jne    74b8 <fdisk_part_create+0x288>
    7708:	8b 5d 08             	mov    0x8(%ebp),%ebx
    770b:	83 bd 7c ff ff ff 00 	cmpl   $0x0,-0x84(%ebp)
    7712:	75 6f                	jne    7783 <fdisk_part_create+0x553>
    7714:	8b 73 34             	mov    0x34(%ebx),%esi
    7717:	8b 7b 38             	mov    0x38(%ebx),%edi
    771a:	e9 4a 02 00 00       	jmp    7969 <fdisk_part_create+0x739>
    771f:	90                   	nop
    7720:	8b 48 20             	mov    0x20(%eax),%ecx
    7723:	85 c9                	test   %ecx,%ecx
    7725:	74 59                	je     7780 <fdisk_part_create+0x550>
    7727:	3b 8d 64 ff ff ff    	cmp    -0x9c(%ebp),%ecx
    772d:	74 51                	je     7780 <fdisk_part_create+0x550>
    772f:	8d 41 e4             	lea    -0x1c(%ecx),%eax
    7732:	89 45 80             	mov    %eax,-0x80(%ebp)
    7735:	e9 76 fd ff ff       	jmp    74b0 <fdisk_part_create+0x280>
    773a:	8d b6 00 00 00 00    	lea    0x0(%esi),%esi
    7740:	50                   	push   %eax
    7741:	8b 45 0c             	mov    0xc(%ebp),%eax
    7744:	8b 40 14             	mov    0x14(%eax),%eax
    7747:	50                   	push   %eax
    7748:	8b 03                	mov    (%ebx),%eax
    774a:	52                   	push   %edx
    774b:	8b 00                	mov    (%eax),%eax
    774d:	50                   	push   %eax
    774e:	e8 9d 17 00 00       	call   8ef0 <vol_part_mkfs@plt>
    7753:	83 c4 10             	add    $0x10,%esp
    7756:	85 c0                	test   %eax,%eax
    7758:	74 09                	je     7763 <fdisk_part_create+0x533>
    775a:	83 f8 f5             	cmp    $0xfffffff5,%eax
    775d:	0f 85 74 05 00 00    	jne    7cd7 <fdisk_part_create+0xaa7>
    7763:	8b 7d 0c             	mov    0xc(%ebp),%edi
    7766:	8b 45 a0             	mov    -0x60(%ebp),%eax
    7769:	8b 57 14             	mov    0x14(%edi),%edx
    776c:	c7 40 38 01 00 00 00 	movl   $0x1,0x38(%eax)
    7773:	89 50 3c             	mov    %edx,0x3c(%eax)
    7776:	e9 f3 fe ff ff       	jmp    766e <fdisk_part_create+0x43e>
    777b:	90                   	nop
    777c:	8d 74 26 00          	lea    0x0(%esi,%eiz,1),%esi
    7780:	8b 5d 08             	mov    0x8(%ebp),%ebx
    7783:	8b 73 28             	mov    0x28(%ebx),%esi
    7786:	8b 46 50             	mov    0x50(%esi),%eax
    7789:	8b 56 54             	mov    0x54(%esi),%edx
    778c:	03 46 48             	add    0x48(%esi),%eax
    778f:	8b 4d 94             	mov    -0x6c(%ebp),%ecx
    7792:	13 56 4c             	adc    0x4c(%esi),%edx
    7795:	89 c6                	mov    %eax,%esi
    7797:	8b 45 90             	mov    -0x70(%ebp),%eax
    779a:	51                   	push   %ecx
    779b:	89 d7                	mov    %edx,%edi
    779d:	50                   	push   %eax
    779e:	52                   	push   %edx
    779f:	56                   	push   %esi
    77a0:	e8 3b 16 00 00       	call   8de0 <__umoddi3@plt>
    77a5:	83 c4 10             	add    $0x10,%esp
    77a8:	29 c6                	sub    %eax,%esi
    77aa:	19 d7                	sbb    %edx,%edi
    77ac:	8b 55 8c             	mov    -0x74(%ebp),%edx
    77af:	8b 45 88             	mov    -0x78(%ebp),%eax
    77b2:	39 fa                	cmp    %edi,%edx
    77b4:	77 32                	ja     77e8 <fdisk_part_create+0x5b8>
    77b6:	0f 83 ec 01 00 00    	jae    79a8 <fdisk_part_create+0x778>
    77bc:	2b 75 88             	sub    -0x78(%ebp),%esi
    77bf:	8b 95 6c ff ff ff    	mov    -0x94(%ebp),%edx
    77c5:	1b 7d 8c             	sbb    -0x74(%ebp),%edi
    77c8:	89 75 80             	mov    %esi,-0x80(%ebp)
    77cb:	89 7d 84             	mov    %edi,-0x7c(%ebp)
    77ce:	8b 85 68 ff ff ff    	mov    -0x98(%ebp),%eax
    77d4:	39 fa                	cmp    %edi,%edx
    77d6:	0f 82 45 fd ff ff    	jb     7521 <fdisk_part_create+0x2f1>
    77dc:	77 0a                	ja     77e8 <fdisk_part_create+0x5b8>
    77de:	39 f0                	cmp    %esi,%eax
    77e0:	0f 86 3b fd ff ff    	jbe    7521 <fdisk_part_create+0x2f1>
    77e6:	66 90                	xchg   %ax,%ax
    77e8:	8b 85 7c ff ff ff    	mov    -0x84(%ebp),%eax
    77ee:	85 c0                	test   %eax,%eax
    77f0:	0f 85 3a 04 00 00    	jne    7c30 <fdisk_part_create+0xa00>
    77f6:	8b 73 34             	mov    0x34(%ebx),%esi
    77f9:	8b 45 90             	mov    -0x70(%ebp),%eax
    77fc:	8b 7b 38             	mov    0x38(%ebx),%edi
    77ff:	01 f0                	add    %esi,%eax
    7801:	8b 55 94             	mov    -0x6c(%ebp),%edx
    7804:	8b 4d 94             	mov    -0x6c(%ebp),%ecx
    7807:	11 fa                	adc    %edi,%edx
    7809:	83 c0 ff             	add    $0xffffffff,%eax
    780c:	83 d2 ff             	adc    $0xffffffff,%edx
    780f:	51                   	push   %ecx
    7810:	8b 4d 90             	mov    -0x70(%ebp),%ecx
    7813:	51                   	push   %ecx
    7814:	52                   	push   %edx
    7815:	50                   	push   %eax
    7816:	e8 d5 15 00 00       	call   8df0 <__udivdi3@plt>
    781b:	8b 4d 90             	mov    -0x70(%ebp),%ecx
    781e:	83 c4 10             	add    $0x10,%esp
    7821:	0f af d1             	imul   %ecx,%edx
    7824:	8b 4d 94             	mov    -0x6c(%ebp),%ecx
    7827:	0f af c8             	imul   %eax,%ecx
    782a:	01 d1                	add    %edx,%ecx
    782c:	f7 65 90             	mull   -0x70(%ebp)
    782f:	89 55 8c             	mov    %edx,-0x74(%ebp)
    7832:	89 45 88             	mov    %eax,-0x78(%ebp)
    7835:	8b 45 8c             	mov    -0x74(%ebp),%eax
    7838:	01 c8                	add    %ecx,%eax
    783a:	8b 4b 1c             	mov    0x1c(%ebx),%ecx
    783d:	89 45 8c             	mov    %eax,-0x74(%ebp)
    7840:	8d 43 18             	lea    0x18(%ebx),%eax
    7843:	39 c1                	cmp    %eax,%ecx
    7845:	0f 84 5d 02 00 00    	je     7aa8 <fdisk_part_create+0x878>
    784b:	85 c9                	test   %ecx,%ecx
    784d:	0f 84 55 02 00 00    	je     7aa8 <fdisk_part_create+0x878>
    7853:	83 e9 14             	sub    $0x14,%ecx
    7856:	8b 85 48 ff ff ff    	mov    -0xb8(%ebp),%eax
    785c:	8b 95 4c ff ff ff    	mov    -0xb4(%ebp),%edx
    7862:	03 85 58 ff ff ff    	add    -0xa8(%ebp),%eax
    7868:	89 5d 08             	mov    %ebx,0x8(%ebp)
    786b:	13 95 5c ff ff ff    	adc    -0xa4(%ebp),%edx
    7871:	89 85 68 ff ff ff    	mov    %eax,-0x98(%ebp)
    7877:	8b 45 90             	mov    -0x70(%ebp),%eax
    787a:	89 95 6c ff ff ff    	mov    %edx,-0x94(%ebp)
    7880:	83 c0 ff             	add    $0xffffffff,%eax
    7883:	8b 55 94             	mov    -0x6c(%ebp),%edx
    7886:	89 85 70 ff ff ff    	mov    %eax,-0x90(%ebp)
    788c:	8d 43 20             	lea    0x20(%ebx),%eax
    788f:	83 d2 ff             	adc    $0xffffffff,%edx
    7892:	89 85 78 ff ff ff    	mov    %eax,-0x88(%ebp)
    7898:	8d 43 18             	lea    0x18(%ebx),%eax
    789b:	89 95 74 ff ff ff    	mov    %edx,-0x8c(%ebp)
    78a1:	89 85 64 ff ff ff    	mov    %eax,-0x9c(%ebp)
    78a7:	89 4d 80             	mov    %ecx,-0x80(%ebp)
    78aa:	89 c8                	mov    %ecx,%eax
    78ac:	8d 74 26 00          	lea    0x0(%esi,%eiz,1),%esi
    78b0:	85 c0                	test   %eax,%eax
    78b2:	0f 84 d8 01 00 00    	je     7a90 <fdisk_part_create+0x860>
    78b8:	8b 70 48             	mov    0x48(%eax),%esi
    78bb:	8b 78 4c             	mov    0x4c(%eax),%edi
    78be:	8b 45 94             	mov    -0x6c(%ebp),%eax
    78c1:	89 fb                	mov    %edi,%ebx
    78c3:	50                   	push   %eax
    78c4:	8b 45 90             	mov    -0x70(%ebp),%eax
    78c7:	50                   	push   %eax
    78c8:	57                   	push   %edi
    78c9:	56                   	push   %esi
    78ca:	e8 11 15 00 00       	call   8de0 <__umoddi3@plt>
    78cf:	89 f1                	mov    %esi,%ecx
    78d1:	83 c4 10             	add    $0x10,%esp
    78d4:	29 c1                	sub    %eax,%ecx
    78d6:	19 d3                	sbb    %edx,%ebx
    78d8:	89 c8                	mov    %ecx,%eax
    78da:	89 da                	mov    %ebx,%edx
    78dc:	8b 5d 8c             	mov    -0x74(%ebp),%ebx
    78df:	8b 4d 88             	mov    -0x78(%ebp),%ecx
    78e2:	39 da                	cmp    %ebx,%edx
    78e4:	0f 82 fe 00 00 00    	jb     79e8 <fdisk_part_create+0x7b8>
    78ea:	77 08                	ja     78f4 <fdisk_part_create+0x6c4>
    78ec:	39 c8                	cmp    %ecx,%eax
    78ee:	0f 82 f4 00 00 00    	jb     79e8 <fdisk_part_create+0x7b8>
    78f4:	2b 45 88             	sub    -0x78(%ebp),%eax
    78f7:	8b 9d 6c ff ff ff    	mov    -0x94(%ebp),%ebx
    78fd:	1b 55 8c             	sbb    -0x74(%ebp),%edx
    7900:	8b 8d 68 ff ff ff    	mov    -0x98(%ebp),%ecx
    7906:	39 d3                	cmp    %edx,%ebx
    7908:	72 0e                	jb     7918 <fdisk_part_create+0x6e8>
    790a:	0f 87 d8 00 00 00    	ja     79e8 <fdisk_part_create+0x7b8>
    7910:	39 c1                	cmp    %eax,%ecx
    7912:	0f 87 d0 00 00 00    	ja     79e8 <fdisk_part_create+0x7b8>
    7918:	89 45 80             	mov    %eax,-0x80(%ebp)
    791b:	89 55 84             	mov    %edx,-0x7c(%ebp)
    791e:	8b 5d 08             	mov    0x8(%ebp),%ebx
    7921:	89 c6                	mov    %eax,%esi
    7923:	89 d7                	mov    %edx,%edi
    7925:	8b 85 50 ff ff ff    	mov    -0xb0(%ebp),%eax
    792b:	8b 95 54 ff ff ff    	mov    -0xac(%ebp),%edx
    7931:	03 85 58 ff ff ff    	add    -0xa8(%ebp),%eax
    7937:	13 95 5c ff ff ff    	adc    -0xa4(%ebp),%edx
    793d:	39 fa                	cmp    %edi,%edx
    793f:	0f 83 4b 03 00 00    	jae    7c90 <fdisk_part_create+0xa60>
    7945:	53                   	push   %ebx
    7946:	68 0d 04 00 00       	push   $0x40d
    794b:	68 90 89 00 00       	push   $0x8990
    7950:	68 a9 89 00 00       	push   $0x89a9
    7955:	e8 d6 14 00 00       	call   8e30 <assert_abort@plt>
    795a:	8d b6 00 00 00 00    	lea    0x0(%esi),%esi
    7960:	8b 5d 08             	mov    0x8(%ebp),%ebx
    7963:	8b 73 34             	mov    0x34(%ebx),%esi
    7966:	8b 7b 38             	mov    0x38(%ebx),%edi
    7969:	03 73 3c             	add    0x3c(%ebx),%esi
    796c:	8b 45 94             	mov    -0x6c(%ebp),%eax
    796f:	13 7b 40             	adc    0x40(%ebx),%edi
    7972:	50                   	push   %eax
    7973:	8b 45 90             	mov    -0x70(%ebp),%eax
    7976:	50                   	push   %eax
    7977:	57                   	push   %edi
    7978:	56                   	push   %esi
    7979:	e8 62 14 00 00       	call   8de0 <__umoddi3@plt>
    797e:	83 c4 10             	add    $0x10,%esp
    7981:	29 c6                	sub    %eax,%esi
    7983:	19 d7                	sbb    %edx,%edi
    7985:	e9 22 fe ff ff       	jmp    77ac <fdisk_part_create+0x57c>
    798a:	8d b6 00 00 00 00    	lea    0x0(%esi),%esi
    7990:	8b 04 85 28 8a 00 00 	mov    0x8a28(,%eax,4),%eax
    7997:	89 85 3c ff ff ff    	mov    %eax,-0xc4(%ebp)
    799d:	e9 2a fa ff ff       	jmp    73cc <fdisk_part_create+0x19c>
    79a2:	8d b6 00 00 00 00    	lea    0x0(%esi),%esi
    79a8:	39 f0                	cmp    %esi,%eax
    79aa:	0f 87 38 fe ff ff    	ja     77e8 <fdisk_part_create+0x5b8>
    79b0:	e9 07 fe ff ff       	jmp    77bc <fdisk_part_create+0x58c>
    79b5:	8d 76 00             	lea    0x0(%esi),%esi
    79b8:	72 08                	jb     79c2 <fdisk_part_create+0x792>
    79ba:	39 f0                	cmp    %esi,%eax
    79bc:	0f 83 79 fb ff ff    	jae    753b <fdisk_part_create+0x30b>
    79c2:	8b 85 50 ff ff ff    	mov    -0xb0(%ebp),%eax
    79c8:	8b 95 54 ff ff ff    	mov    -0xac(%ebp),%edx
    79ce:	03 85 58 ff ff ff    	add    -0xa8(%ebp),%eax
    79d4:	13 95 5c ff ff ff    	adc    -0xa4(%ebp),%edx
    79da:	89 45 80             	mov    %eax,-0x80(%ebp)
    79dd:	89 55 84             	mov    %edx,-0x7c(%ebp)
    79e0:	e9 56 fb ff ff       	jmp    753b <fdisk_part_create+0x30b>
    79e5:	8d 76 00             	lea    0x0(%esi),%esi
    79e8:	8b 45 80             	mov    -0x80(%ebp),%eax
    79eb:	03 b5 70 ff ff ff    	add    -0x90(%ebp),%esi
    79f1:	13 bd 74 ff ff ff    	adc    -0x8c(%ebp),%edi
    79f7:	03 70 50             	add    0x50(%eax),%esi
    79fa:	13 78 54             	adc    0x54(%eax),%edi
    79fd:	8b 45 94             	mov    -0x6c(%ebp),%eax
    7a00:	50                   	push   %eax
    7a01:	8b 45 90             	mov    -0x70(%ebp),%eax
    7a04:	50                   	push   %eax
    7a05:	57                   	push   %edi
    7a06:	56                   	push   %esi
    7a07:	e8 e4 13 00 00       	call   8df0 <__udivdi3@plt>
    7a0c:	8b 7d 94             	mov    -0x6c(%ebp),%edi
    7a0f:	89 c3                	mov    %eax,%ebx
    7a11:	89 f8                	mov    %edi,%eax
    7a13:	8b 75 90             	mov    -0x70(%ebp),%esi
    7a16:	0f af c3             	imul   %ebx,%eax
    7a19:	0f af d6             	imul   %esi,%edx
    7a1c:	89 c6                	mov    %eax,%esi
    7a1e:	89 d8                	mov    %ebx,%eax
    7a20:	01 d6                	add    %edx,%esi
    7a22:	83 c4 10             	add    $0x10,%esp
    7a25:	f7 65 90             	mull   -0x70(%ebp)
    7a28:	89 55 8c             	mov    %edx,-0x74(%ebp)
    7a2b:	89 45 88             	mov    %eax,-0x78(%ebp)
    7a2e:	8b 45 8c             	mov    -0x74(%ebp),%eax
    7a31:	8b 95 7c ff ff ff    	mov    -0x84(%ebp),%edx
    7a37:	01 f0                	add    %esi,%eax
    7a39:	85 d2                	test   %edx,%edx
    7a3b:	89 45 8c             	mov    %eax,-0x74(%ebp)
    7a3e:	8b 45 80             	mov    -0x80(%ebp),%eax
    7a41:	75 25                	jne    7a68 <fdisk_part_create+0x838>
    7a43:	8b 48 18             	mov    0x18(%eax),%ecx
    7a46:	85 c9                	test   %ecx,%ecx
    7a48:	0f 84 02 01 00 00    	je     7b50 <fdisk_part_create+0x920>
    7a4e:	3b 8d 64 ff ff ff    	cmp    -0x9c(%ebp),%ecx
    7a54:	0f 84 f6 00 00 00    	je     7b50 <fdisk_part_create+0x920>
    7a5a:	8d 41 ec             	lea    -0x14(%ecx),%eax
    7a5d:	89 45 80             	mov    %eax,-0x80(%ebp)
    7a60:	e9 4b fe ff ff       	jmp    78b0 <fdisk_part_create+0x680>
    7a65:	8d 76 00             	lea    0x0(%esi),%esi
    7a68:	8b 48 20             	mov    0x20(%eax),%ecx
    7a6b:	3b 8d 78 ff ff ff    	cmp    -0x88(%ebp),%ecx
    7a71:	0f 84 a9 00 00 00    	je     7b20 <fdisk_part_create+0x8f0>
    7a77:	85 c9                	test   %ecx,%ecx
    7a79:	0f 84 a1 00 00 00    	je     7b20 <fdisk_part_create+0x8f0>
    7a7f:	8d 41 e4             	lea    -0x1c(%ecx),%eax
    7a82:	89 45 80             	mov    %eax,-0x80(%ebp)
    7a85:	e9 26 fe ff ff       	jmp    78b0 <fdisk_part_create+0x680>
    7a8a:	8d b6 00 00 00 00    	lea    0x0(%esi),%esi
    7a90:	8b 5d 08             	mov    0x8(%ebp),%ebx
    7a93:	83 bd 7c ff ff ff 00 	cmpl   $0x0,-0x84(%ebp)
    7a9a:	0f 85 83 00 00 00    	jne    7b23 <fdisk_part_create+0x8f3>
    7aa0:	8b 73 34             	mov    0x34(%ebx),%esi
    7aa3:	8b 7b 38             	mov    0x38(%ebx),%edi
    7aa6:	66 90                	xchg   %ax,%ax
    7aa8:	03 73 3c             	add    0x3c(%ebx),%esi
    7aab:	8b 45 94             	mov    -0x6c(%ebp),%eax
    7aae:	13 7b 40             	adc    0x40(%ebx),%edi
    7ab1:	50                   	push   %eax
    7ab2:	8b 45 90             	mov    -0x70(%ebp),%eax
    7ab5:	50                   	push   %eax
    7ab6:	57                   	push   %edi
    7ab7:	56                   	push   %esi
    7ab8:	e8 23 13 00 00       	call   8de0 <__umoddi3@plt>
    7abd:	83 c4 10             	add    $0x10,%esp
    7ac0:	29 c6                	sub    %eax,%esi
    7ac2:	19 d7                	sbb    %edx,%edi
    7ac4:	8b 55 8c             	mov    -0x74(%ebp),%edx
    7ac7:	8b 45 88             	mov    -0x78(%ebp),%eax
    7aca:	39 d7                	cmp    %edx,%edi
    7acc:	0f 82 87 f7 ff ff    	jb     7259 <fdisk_part_create+0x29>
    7ad2:	77 08                	ja     7adc <fdisk_part_create+0x8ac>
    7ad4:	39 c6                	cmp    %eax,%esi
    7ad6:	0f 82 7d f7 ff ff    	jb     7259 <fdisk_part_create+0x29>
    7adc:	2b 75 88             	sub    -0x78(%ebp),%esi
    7adf:	8b 85 48 ff ff ff    	mov    -0xb8(%ebp),%eax
    7ae5:	1b 7d 8c             	sbb    -0x74(%ebp),%edi
    7ae8:	03 85 58 ff ff ff    	add    -0xa8(%ebp),%eax
    7aee:	8b 95 4c ff ff ff    	mov    -0xb4(%ebp),%edx
    7af4:	89 75 80             	mov    %esi,-0x80(%ebp)
    7af7:	13 95 5c ff ff ff    	adc    -0xa4(%ebp),%edx
    7afd:	89 7d 84             	mov    %edi,-0x7c(%ebp)
    7b00:	39 fa                	cmp    %edi,%edx
    7b02:	0f 82 1d fe ff ff    	jb     7925 <fdisk_part_create+0x6f5>
    7b08:	0f 87 4b f7 ff ff    	ja     7259 <fdisk_part_create+0x29>
    7b0e:	39 f0                	cmp    %esi,%eax
    7b10:	0f 86 0f fe ff ff    	jbe    7925 <fdisk_part_create+0x6f5>
    7b16:	e9 3e f7 ff ff       	jmp    7259 <fdisk_part_create+0x29>
    7b1b:	90                   	nop
    7b1c:	8d 74 26 00          	lea    0x0(%esi,%eiz,1),%esi
    7b20:	8b 5d 08             	mov    0x8(%ebp),%ebx
    7b23:	8b 43 28             	mov    0x28(%ebx),%eax
    7b26:	8b 4d 94             	mov    -0x6c(%ebp),%ecx
    7b29:	8b 70 50             	mov    0x50(%eax),%esi
    7b2c:	8b 78 54             	mov    0x54(%eax),%edi
    7b2f:	03 70 48             	add    0x48(%eax),%esi
    7b32:	13 78 4c             	adc    0x4c(%eax),%edi
    7b35:	8b 45 90             	mov    -0x70(%ebp),%eax
    7b38:	51                   	push   %ecx
    7b39:	50                   	push   %eax
    7b3a:	57                   	push   %edi
    7b3b:	56                   	push   %esi
    7b3c:	e8 9f 12 00 00       	call   8de0 <__umoddi3@plt>
    7b41:	83 c4 10             	add    $0x10,%esp
    7b44:	29 c6                	sub    %eax,%esi
    7b46:	19 d7                	sbb    %edx,%edi
    7b48:	e9 77 ff ff ff       	jmp    7ac4 <fdisk_part_create+0x894>
    7b4d:	8d 76 00             	lea    0x0(%esi),%esi
    7b50:	8b 5d 08             	mov    0x8(%ebp),%ebx
    7b53:	8b 73 34             	mov    0x34(%ebx),%esi
    7b56:	8b 7b 38             	mov    0x38(%ebx),%edi
    7b59:	e9 4a ff ff ff       	jmp    7aa8 <fdisk_part_create+0x878>
    7b5e:	66 90                	xchg   %ax,%ax
    7b60:	8b 7d 94             	mov    -0x6c(%ebp),%edi
    7b63:	8b 75 90             	mov    -0x70(%ebp),%esi
    7b66:	89 fa                	mov    %edi,%edx
    7b68:	89 b5 58 ff ff ff    	mov    %esi,-0xa8(%ebp)
    7b6e:	89 bd 5c ff ff ff    	mov    %edi,-0xa4(%ebp)
    7b74:	09 f2                	or     %esi,%edx
    7b76:	75 14                	jne    7b8c <fdisk_part_create+0x95c>
    7b78:	c7 85 58 ff ff ff 01 	movl   $0x1,-0xa8(%ebp)
    7b7f:	00 00 00 
    7b82:	c7 85 5c ff ff ff 00 	movl   $0x0,-0xa4(%ebp)
    7b89:	00 00 00 
    7b8c:	8b 85 50 ff ff ff    	mov    -0xb0(%ebp),%eax
    7b92:	8b 95 54 ff ff ff    	mov    -0xac(%ebp),%edx
    7b98:	03 85 58 ff ff ff    	add    -0xa8(%ebp),%eax
    7b9e:	8b 73 28             	mov    0x28(%ebx),%esi
    7ba1:	13 95 5c ff ff ff    	adc    -0xa4(%ebp),%edx
    7ba7:	89 85 68 ff ff ff    	mov    %eax,-0x98(%ebp)
    7bad:	8b 45 90             	mov    -0x70(%ebp),%eax
    7bb0:	89 95 6c ff ff ff    	mov    %edx,-0x94(%ebp)
    7bb6:	83 c0 ff             	add    $0xffffffff,%eax
    7bb9:	8b 55 94             	mov    -0x6c(%ebp),%edx
    7bbc:	83 d2 ff             	adc    $0xffffffff,%edx
    7bbf:	03 46 48             	add    0x48(%esi),%eax
    7bc2:	13 56 4c             	adc    0x4c(%esi),%edx
    7bc5:	8b 4d 94             	mov    -0x6c(%ebp),%ecx
    7bc8:	8b 7d 90             	mov    -0x70(%ebp),%edi
    7bcb:	51                   	push   %ecx
    7bcc:	57                   	push   %edi
    7bcd:	52                   	push   %edx
    7bce:	50                   	push   %eax
    7bcf:	e8 1c 12 00 00       	call   8df0 <__udivdi3@plt>
    7bd4:	8b 4d 94             	mov    -0x6c(%ebp),%ecx
    7bd7:	89 c7                	mov    %eax,%edi
    7bd9:	8b 45 90             	mov    -0x70(%ebp),%eax
    7bdc:	83 c4 10             	add    $0x10,%esp
    7bdf:	0f af d0             	imul   %eax,%edx
    7be2:	0f af cf             	imul   %edi,%ecx
    7be5:	89 f8                	mov    %edi,%eax
    7be7:	01 d1                	add    %edx,%ecx
    7be9:	f7 65 90             	mull   -0x70(%ebp)
    7bec:	89 55 8c             	mov    %edx,-0x74(%ebp)
    7bef:	89 45 88             	mov    %eax,-0x78(%ebp)
    7bf2:	8b 45 8c             	mov    -0x74(%ebp),%eax
    7bf5:	01 c8                	add    %ecx,%eax
    7bf7:	8b 4b 24             	mov    0x24(%ebx),%ecx
    7bfa:	89 45 8c             	mov    %eax,-0x74(%ebp)
    7bfd:	85 c9                	test   %ecx,%ecx
    7bff:	74 1d                	je     7c1e <fdisk_part_create+0x9ee>
    7c01:	8d 43 20             	lea    0x20(%ebx),%eax
    7c04:	c7 85 7c ff ff ff 01 	movl   $0x1,-0x84(%ebp)
    7c0b:	00 00 00 
    7c0e:	39 c1                	cmp    %eax,%ecx
    7c10:	0f 95 c0             	setne  %al
    7c13:	83 e9 1c             	sub    $0x1c,%ecx
    7c16:	84 c0                	test   %al,%al
    7c18:	0f 85 59 f8 ff ff    	jne    7477 <fdisk_part_create+0x247>
    7c1e:	c7 85 7c ff ff ff 01 	movl   $0x1,-0x84(%ebp)
    7c25:	00 00 00 
    7c28:	e9 59 fb ff ff       	jmp    7786 <fdisk_part_create+0x556>
    7c2d:	8d 76 00             	lea    0x0(%esi),%esi
    7c30:	8b 75 90             	mov    -0x70(%ebp),%esi
    7c33:	8b 4b 28             	mov    0x28(%ebx),%ecx
    7c36:	8b 7d 94             	mov    -0x6c(%ebp),%edi
    7c39:	89 f0                	mov    %esi,%eax
    7c3b:	83 c0 ff             	add    $0xffffffff,%eax
    7c3e:	89 fa                	mov    %edi,%edx
    7c40:	83 d2 ff             	adc    $0xffffffff,%edx
    7c43:	03 41 48             	add    0x48(%ecx),%eax
    7c46:	13 51 4c             	adc    0x4c(%ecx),%edx
    7c49:	57                   	push   %edi
    7c4a:	56                   	push   %esi
    7c4b:	52                   	push   %edx
    7c4c:	50                   	push   %eax
    7c4d:	e8 9e 11 00 00       	call   8df0 <__udivdi3@plt>
    7c52:	89 f9                	mov    %edi,%ecx
    7c54:	83 c4 10             	add    $0x10,%esp
    7c57:	0f af d6             	imul   %esi,%edx
    7c5a:	0f af c8             	imul   %eax,%ecx
    7c5d:	01 d1                	add    %edx,%ecx
    7c5f:	f7 e6                	mul    %esi
    7c61:	89 55 8c             	mov    %edx,-0x74(%ebp)
    7c64:	89 45 88             	mov    %eax,-0x78(%ebp)
    7c67:	8b 45 8c             	mov    -0x74(%ebp),%eax
    7c6a:	01 c8                	add    %ecx,%eax
    7c6c:	8b 4b 24             	mov    0x24(%ebx),%ecx
    7c6f:	89 45 8c             	mov    %eax,-0x74(%ebp)
    7c72:	8d 43 20             	lea    0x20(%ebx),%eax
    7c75:	39 c1                	cmp    %eax,%ecx
    7c77:	0f 84 16 fe ff ff    	je     7a93 <fdisk_part_create+0x863>
    7c7d:	85 c9                	test   %ecx,%ecx
    7c7f:	0f 84 0e fe ff ff    	je     7a93 <fdisk_part_create+0x863>
    7c85:	83 e9 1c             	sub    $0x1c,%ecx
    7c88:	e9 c9 fb ff ff       	jmp    7856 <fdisk_part_create+0x626>
    7c8d:	8d 76 00             	lea    0x0(%esi),%esi
    7c90:	0f 87 a5 f8 ff ff    	ja     753b <fdisk_part_create+0x30b>
    7c96:	39 f0                	cmp    %esi,%eax
    7c98:	0f 86 a7 fc ff ff    	jbe    7945 <fdisk_part_create+0x715>
    7c9e:	e9 98 f8 ff ff       	jmp    753b <fdisk_part_create+0x30b>
    7ca3:	90                   	nop
    7ca4:	8d 74 26 00          	lea    0x0(%esi,%eiz,1),%esi
    7ca8:	50                   	push   %eax
    7ca9:	50                   	push   %eax
    7caa:	8b 03                	mov    (%ebx),%eax
    7cac:	8b 4d a8             	mov    -0x58(%ebp),%ecx
    7caf:	51                   	push   %ecx
    7cb0:	8b 58 04             	mov    0x4(%eax),%ebx
    7cb3:	53                   	push   %ebx
    7cb4:	e8 07 10 00 00       	call   8cc0 <vbd_part_delete@plt>
    7cb9:	83 c4 10             	add    $0x10,%esp
    7cbc:	e9 98 f5 ff ff       	jmp    7259 <fdisk_part_create+0x29>
    7cc1:	8d b4 26 00 00 00 00 	lea    0x0(%esi,%eiz,1),%esi
    7cc8:	c7 85 60 ff ff ff 01 	movl   $0x1,-0xa0(%ebp)
    7ccf:	00 00 00 
    7cd2:	e9 c9 f8 ff ff       	jmp    75a0 <fdisk_part_create+0x370>
    7cd7:	8b 45 a0             	mov    -0x60(%ebp),%eax
    7cda:	8b 48 04             	mov    0x4(%eax),%ecx
    7cdd:	85 c9                	test   %ecx,%ecx
    7cdf:	74 0f                	je     7cf0 <fdisk_part_create+0xac0>
    7ce1:	8b 50 08             	mov    0x8(%eax),%edx
    7ce4:	85 d2                	test   %edx,%edx
    7ce6:	74 08                	je     7cf0 <fdisk_part_create+0xac0>
    7ce8:	89 0a                	mov    %ecx,(%edx)
    7cea:	8b 48 04             	mov    0x4(%eax),%ecx
    7ced:	89 51 04             	mov    %edx,0x4(%ecx)
    7cf0:	8b 48 14             	mov    0x14(%eax),%ecx
    7cf3:	c7 40 04 00 00 00 00 	movl   $0x0,0x4(%eax)
    7cfa:	c7 40 08 00 00 00 00 	movl   $0x0,0x8(%eax)
    7d01:	85 c9                	test   %ecx,%ecx
    7d03:	74 75                	je     7d7a <fdisk_part_create+0xb4a>
    7d05:	8b 50 18             	mov    0x18(%eax),%edx
    7d08:	85 d2                	test   %edx,%edx
    7d0a:	74 74                	je     7d80 <fdisk_part_create+0xb50>
    7d0c:	89 0a                	mov    %ecx,(%edx)
    7d0e:	8b 48 14             	mov    0x14(%eax),%ecx
    7d11:	89 51 04             	mov    %edx,0x4(%ecx)
    7d14:	c7 40 14 00 00 00 00 	movl   $0x0,0x14(%eax)
    7d1b:	c7 40 18 00 00 00 00 	movl   $0x0,0x18(%eax)
    7d22:	8b 48 0c             	mov    0xc(%eax),%ecx
    7d25:	85 c9                	test   %ecx,%ecx
    7d27:	74 64                	je     7d8d <fdisk_part_create+0xb5d>
    7d29:	8b 50 10             	mov    0x10(%eax),%edx
    7d2c:	85 d2                	test   %edx,%edx
    7d2e:	74 50                	je     7d80 <fdisk_part_create+0xb50>
    7d30:	89 0a                	mov    %ecx,(%edx)
    7d32:	8b 48 0c             	mov    0xc(%eax),%ecx
    7d35:	89 51 04             	mov    %edx,0x4(%ecx)
    7d38:	c7 40 0c 00 00 00 00 	movl   $0x0,0xc(%eax)
    7d3f:	c7 40 10 00 00 00 00 	movl   $0x0,0x10(%eax)
    7d46:	8b 48 1c             	mov    0x1c(%eax),%ecx
    7d49:	85 c9                	test   %ecx,%ecx
    7d4b:	74 38                	je     7d85 <fdisk_part_create+0xb55>
    7d4d:	8b 50 20             	mov    0x20(%eax),%edx
    7d50:	85 d2                	test   %edx,%edx
    7d52:	74 2c                	je     7d80 <fdisk_part_create+0xb50>
    7d54:	89 0a                	mov    %ecx,(%edx)
    7d56:	8b 48 1c             	mov    0x1c(%eax),%ecx
    7d59:	89 51 04             	mov    %edx,0x4(%ecx)
    7d5c:	c7 40 1c 00 00 00 00 	movl   $0x0,0x1c(%eax)
    7d63:	c7 40 20 00 00 00 00 	movl   $0x0,0x20(%eax)
    7d6a:	83 ec 0c             	sub    $0xc,%esp
    7d6d:	50                   	push   %eax
    7d6e:	e8 6d 12 00 00       	call   8fe0 <free@plt>
    7d73:	5e                   	pop    %esi
    7d74:	5f                   	pop    %edi
    7d75:	e9 30 ff ff ff       	jmp    7caa <fdisk_part_create+0xa7a>
    7d7a:	83 78 18 00          	cmpl   $0x0,0x18(%eax)
    7d7e:	74 a2                	je     7d22 <fdisk_part_create+0xaf2>
    7d80:	e8 32 02 00 00       	call   7fb7 <link_used.part.2>
    7d85:	83 78 20 00          	cmpl   $0x0,0x20(%eax)
    7d89:	75 f5                	jne    7d80 <fdisk_part_create+0xb50>
    7d8b:	eb dd                	jmp    7d6a <fdisk_part_create+0xb3a>
    7d8d:	83 78 10 00          	cmpl   $0x0,0x10(%eax)
    7d91:	75 ed                	jne    7d80 <fdisk_part_create+0xb50>
    7d93:	eb b1                	jmp    7d46 <fdisk_part_create+0xb16>
    7d95:	8b 85 50 ff ff ff    	mov    -0xb0(%ebp),%eax
    7d9b:	8b 95 54 ff ff ff    	mov    -0xac(%ebp),%edx
    7da1:	89 85 68 ff ff ff    	mov    %eax,-0x98(%ebp)
    7da7:	89 95 6c ff ff ff    	mov    %edx,-0x94(%ebp)
    7dad:	c7 85 7c ff ff ff 00 	movl   $0x0,-0x84(%ebp)
    7db4:	00 00 00 
    7db7:	c7 85 58 ff ff ff 00 	movl   $0x0,-0xa8(%ebp)
    7dbe:	00 00 00 
    7dc1:	c7 85 5c ff ff ff 00 	movl   $0x0,-0xa4(%ebp)
    7dc8:	00 00 00 
    7dcb:	e9 99 fb ff ff       	jmp    7969 <fdisk_part_create+0x739>

00007dd0 <fdisk_part_destroy>:
    7dd0:	55                   	push   %ebp
    7dd1:	89 e5                	mov    %esp,%ebp
    7dd3:	53                   	push   %ebx
    7dd4:	83 ec 1c             	sub    $0x1c,%esp
    7dd7:	8b 5d 08             	mov    0x8(%ebp),%ebx
    7dda:	8b 03                	mov    (%ebx),%eax
    7ddc:	8b 4b 40             	mov    0x40(%ebx),%ecx
    7ddf:	51                   	push   %ecx
    7de0:	8b 00                	mov    (%eax),%eax
    7de2:	8b 40 04             	mov    0x4(%eax),%eax
    7de5:	50                   	push   %eax
    7de6:	e8 d5 0e 00 00       	call   8cc0 <vbd_part_delete@plt>
    7deb:	83 c4 10             	add    $0x10,%esp
    7dee:	85 c0                	test   %eax,%eax
    7df0:	0f 85 da 00 00 00    	jne    7ed0 <fdisk_part_destroy+0x100>
    7df6:	8b 4b 04             	mov    0x4(%ebx),%ecx
    7df9:	85 c9                	test   %ecx,%ecx
    7dfb:	74 0f                	je     7e0c <fdisk_part_destroy+0x3c>
    7dfd:	8b 53 08             	mov    0x8(%ebx),%edx
    7e00:	85 d2                	test   %edx,%edx
    7e02:	74 08                	je     7e0c <fdisk_part_destroy+0x3c>
    7e04:	89 0a                	mov    %ecx,(%edx)
    7e06:	8b 4b 04             	mov    0x4(%ebx),%ecx
    7e09:	89 51 04             	mov    %edx,0x4(%ecx)
    7e0c:	8b 4b 14             	mov    0x14(%ebx),%ecx
    7e0f:	c7 43 04 00 00 00 00 	movl   $0x0,0x4(%ebx)
    7e16:	c7 43 08 00 00 00 00 	movl   $0x0,0x8(%ebx)
    7e1d:	85 c9                	test   %ecx,%ecx
    7e1f:	74 7f                	je     7ea0 <fdisk_part_destroy+0xd0>
    7e21:	8b 53 18             	mov    0x18(%ebx),%edx
    7e24:	85 d2                	test   %edx,%edx
    7e26:	74 7f                	je     7ea7 <fdisk_part_destroy+0xd7>
    7e28:	89 0a                	mov    %ecx,(%edx)
    7e2a:	8b 4b 14             	mov    0x14(%ebx),%ecx
    7e2d:	89 51 04             	mov    %edx,0x4(%ecx)
    7e30:	c7 43 14 00 00 00 00 	movl   $0x0,0x14(%ebx)
    7e37:	c7 43 18 00 00 00 00 	movl   $0x0,0x18(%ebx)
    7e3e:	8b 4b 0c             	mov    0xc(%ebx),%ecx
    7e41:	85 c9                	test   %ecx,%ecx
    7e43:	74 6b                	je     7eb0 <fdisk_part_destroy+0xe0>
    7e45:	8b 53 10             	mov    0x10(%ebx),%edx
    7e48:	85 d2                	test   %edx,%edx
    7e4a:	74 5b                	je     7ea7 <fdisk_part_destroy+0xd7>
    7e4c:	89 0a                	mov    %ecx,(%edx)
    7e4e:	8b 4b 0c             	mov    0xc(%ebx),%ecx
    7e51:	89 51 04             	mov    %edx,0x4(%ecx)
    7e54:	c7 43 0c 00 00 00 00 	movl   $0x0,0xc(%ebx)
    7e5b:	c7 43 10 00 00 00 00 	movl   $0x0,0x10(%ebx)
    7e62:	8b 4b 1c             	mov    0x1c(%ebx),%ecx
    7e65:	85 c9                	test   %ecx,%ecx
    7e67:	74 57                	je     7ec0 <fdisk_part_destroy+0xf0>
    7e69:	8b 53 20             	mov    0x20(%ebx),%edx
    7e6c:	85 d2                	test   %edx,%edx
    7e6e:	74 37                	je     7ea7 <fdisk_part_destroy+0xd7>
    7e70:	89 0a                	mov    %ecx,(%edx)
    7e72:	8b 4b 1c             	mov    0x1c(%ebx),%ecx
    7e75:	89 51 04             	mov    %edx,0x4(%ecx)
    7e78:	c7 43 1c 00 00 00 00 	movl   $0x0,0x1c(%ebx)
    7e7f:	c7 43 20 00 00 00 00 	movl   $0x0,0x20(%ebx)
    7e86:	83 ec 0c             	sub    $0xc,%esp
    7e89:	89 45 f4             	mov    %eax,-0xc(%ebp)
    7e8c:	53                   	push   %ebx
    7e8d:	e8 4e 11 00 00       	call   8fe0 <free@plt>
    7e92:	83 c4 10             	add    $0x10,%esp
    7e95:	8b 45 f4             	mov    -0xc(%ebp),%eax
    7e98:	8b 5d fc             	mov    -0x4(%ebp),%ebx
    7e9b:	c9                   	leave  
    7e9c:	c3                   	ret    
    7e9d:	8d 76 00             	lea    0x0(%esi),%esi
    7ea0:	8b 53 18             	mov    0x18(%ebx),%edx
    7ea3:	85 d2                	test   %edx,%edx
    7ea5:	74 97                	je     7e3e <fdisk_part_destroy+0x6e>
    7ea7:	e8 0b 01 00 00       	call   7fb7 <link_used.part.2>
    7eac:	8d 74 26 00          	lea    0x0(%esi,%eiz,1),%esi
    7eb0:	8b 4b 10             	mov    0x10(%ebx),%ecx
    7eb3:	85 c9                	test   %ecx,%ecx
    7eb5:	74 ab                	je     7e62 <fdisk_part_destroy+0x92>
    7eb7:	e8 fb 00 00 00       	call   7fb7 <link_used.part.2>
    7ebc:	8d 74 26 00          	lea    0x0(%esi,%eiz,1),%esi
    7ec0:	8b 53 20             	mov    0x20(%ebx),%edx
    7ec3:	85 d2                	test   %edx,%edx
    7ec5:	74 bf                	je     7e86 <fdisk_part_destroy+0xb6>
    7ec7:	e8 eb 00 00 00       	call   7fb7 <link_used.part.2>
    7ecc:	8d 74 26 00          	lea    0x0(%esi,%eiz,1),%esi
    7ed0:	b8 f6 fe ff ff       	mov    $0xfffffef6,%eax
    7ed5:	eb c1                	jmp    7e98 <fdisk_part_destroy+0xc8>
    7ed7:	89 f6                	mov    %esi,%esi
    7ed9:	8d bc 27 00 00 00 00 	lea    0x0(%edi,%eiz,1),%edi

00007ee0 <fdisk_pspec_init>:
    7ee0:	55                   	push   %ebp
    7ee1:	89 e5                	mov    %esp,%ebp
    7ee3:	83 ec 0c             	sub    $0xc,%esp
    7ee6:	8b 45 08             	mov    0x8(%ebp),%eax
    7ee9:	6a 18                	push   $0x18
    7eeb:	6a 00                	push   $0x0
    7eed:	50                   	push   %eax
    7eee:	e8 0d 10 00 00       	call   8f00 <memset@plt>
    7ef3:	83 c4 10             	add    $0x10,%esp
    7ef6:	c9                   	leave  
    7ef7:	c3                   	ret    
    7ef8:	90                   	nop
    7ef9:	8d b4 26 00 00 00 00 	lea    0x0(%esi,%eiz,1),%esi

00007f00 <fdisk_ltype_format>:
    7f00:	55                   	push   %ebp
    7f01:	31 c0                	xor    %eax,%eax
    7f03:	89 e5                	mov    %esp,%ebp
    7f05:	83 ec 08             	sub    $0x8,%esp
    7f08:	8b 55 08             	mov    0x8(%ebp),%edx
    7f0b:	83 fa 02             	cmp    $0x2,%edx
    7f0e:	77 07                	ja     7f17 <fdisk_ltype_format+0x17>
    7f10:	8b 04 95 1c 8a 00 00 	mov    0x8a1c(,%edx,4),%eax
    7f17:	83 ec 0c             	sub    $0xc,%esp
    7f1a:	50                   	push   %eax
    7f1b:	e8 60 0f 00 00       	call   8e80 <str_dup@plt>
    7f20:	83 c4 10             	add    $0x10,%esp
    7f23:	85 c0                	test   %eax,%eax
    7f25:	74 09                	je     7f30 <fdisk_ltype_format+0x30>
    7f27:	8b 55 0c             	mov    0xc(%ebp),%edx
    7f2a:	89 02                	mov    %eax,(%edx)
    7f2c:	31 c0                	xor    %eax,%eax
    7f2e:	c9                   	leave  
    7f2f:	c3                   	ret    
    7f30:	b8 fe ff ff ff       	mov    $0xfffffffe,%eax
    7f35:	c9                   	leave  
    7f36:	c3                   	ret    
    7f37:	89 f6                	mov    %esi,%esi
    7f39:	8d bc 27 00 00 00 00 	lea    0x0(%edi,%eiz,1),%edi

00007f40 <fdisk_fstype_format>:
    7f40:	55                   	push   %ebp
    7f41:	31 c0                	xor    %eax,%eax
    7f43:	89 e5                	mov    %esp,%ebp
    7f45:	83 ec 08             	sub    $0x8,%esp
    7f48:	8b 55 08             	mov    0x8(%ebp),%edx
    7f4b:	83 fa 03             	cmp    $0x3,%edx
    7f4e:	77 07                	ja     7f57 <fdisk_fstype_format+0x17>
    7f50:	8b 04 95 0c 8a 00 00 	mov    0x8a0c(,%edx,4),%eax
    7f57:	83 ec 0c             	sub    $0xc,%esp
    7f5a:	50                   	push   %eax
    7f5b:	e8 20 0f 00 00       	call   8e80 <str_dup@plt>
    7f60:	83 c4 10             	add    $0x10,%esp
    7f63:	85 c0                	test   %eax,%eax
    7f65:	74 09                	je     7f70 <fdisk_fstype_format+0x30>
    7f67:	8b 55 0c             	mov    0xc(%ebp),%edx
    7f6a:	89 02                	mov    %eax,(%edx)
    7f6c:	31 c0                	xor    %eax,%eax
    7f6e:	c9                   	leave  
    7f6f:	c3                   	ret    
    7f70:	b8 fe ff ff ff       	mov    $0xfffffffe,%eax
    7f75:	c9                   	leave  
    7f76:	c3                   	ret    
    7f77:	89 f6                	mov    %esi,%esi
    7f79:	8d bc 27 00 00 00 00 	lea    0x0(%edi,%eiz,1),%edi

00007f80 <fdisk_pkind_format>:
    7f80:	55                   	push   %ebp
    7f81:	31 c0                	xor    %eax,%eax
    7f83:	89 e5                	mov    %esp,%ebp
    7f85:	83 ec 08             	sub    $0x8,%esp
    7f88:	8b 55 08             	mov    0x8(%ebp),%edx
    7f8b:	83 fa 02             	cmp    $0x2,%edx
    7f8e:	77 07                	ja     7f97 <fdisk_pkind_format+0x17>
    7f90:	8b 04 95 00 8a 00 00 	mov    0x8a00(,%edx,4),%eax
    7f97:	83 ec 0c             	sub    $0xc,%esp
    7f9a:	50                   	push   %eax
    7f9b:	e8 e0 0e 00 00       	call   8e80 <str_dup@plt>
    7fa0:	83 c4 10             	add    $0x10,%esp
    7fa3:	85 c0                	test   %eax,%eax
    7fa5:	74 09                	je     7fb0 <fdisk_pkind_format+0x30>
    7fa7:	8b 55 0c             	mov    0xc(%ebp),%edx
    7faa:	89 02                	mov    %eax,(%edx)
    7fac:	31 c0                	xor    %eax,%eax
    7fae:	c9                   	leave  
    7faf:	c3                   	ret    
    7fb0:	b8 fe ff ff ff       	mov    $0xfffffffe,%eax
    7fb5:	c9                   	leave  
    7fb6:	c3                   	ret    

00007fb7 <link_used.part.2>:
    7fb7:	55                   	push   %ebp
    7fb8:	89 e5                	mov    %esp,%ebp
    7fba:	83 ec 0c             	sub    $0xc,%esp
    7fbd:	68 8a 01 00 00       	push   $0x18a
    7fc2:	68 44 89 00 00       	push   $0x8944
    7fc7:	68 64 89 00 00       	push   $0x8964
    7fcc:	e8 5f 0e 00 00       	call   8e30 <assert_abort@plt>
    7fd1:	79 2f                	jns    8002 <link_used.part.2+0x4b>
    7fd3:	6e                   	outsb  %ds:(%esi),(%dx)
    7fd4:	3e 20 00             	and    %al,%ds:(%eax)
    7fd7:	3f                   	aas    
    7fd8:	3e 20 00             	and    %al,%ds:(%eax)
    7fdb:	72 63                	jb     8040 <link_used.part.2+0x89>
    7fdd:	20 3d 3d 20 45 4e    	and    %bh,0x4e45203d
    7fe3:	4f                   	dec    %edi
    7fe4:	4d                   	dec    %ebp
    7fe5:	45                   	inc    %ebp
    7fe6:	4d                   	dec    %ebp
    7fe7:	00 53 65             	add    %dl,0x65(%ebx)
    7fea:	6c                   	insb   (%dx),%es:(%edi)
    7feb:	65 63 74 20 66       	arpl   %si,%gs:0x66(%eax,%eiz,1)
    7ff0:	69 6c 65 20 73 79 73 	imul   $0x74737973,0x20(%ebp,%eiz,2),%ebp
    7ff7:	74 
    7ff8:	65 6d                	gs insl (%dx),%es:(%edi)
    7ffa:	20 74 79 70          	and    %dh,0x70(%ecx,%edi,2)
    7ffe:	65 00 45 72          	add    %al,%gs:0x72(%ebp)
    8002:	72 6f                	jb     8073 <link_used.part.2+0xbc>
    8004:	72 20                	jb     8026 <link_used.part.2+0x6f>
    8006:	63 72 65             	arpl   %si,0x65(%edx)
    8009:	61                   	popa   
    800a:	74 69                	je     8075 <link_used.part.2+0xbe>
    800c:	6e                   	outsb  %ds:(%esi),(%dx)
    800d:	67 20 70 61          	and    %dh,0x61(%bx,%si)
    8011:	72 74                	jb     8087 <link_used.part.2+0xd0>
    8013:	69 74 69 6f 6e 2e 0a 	imul   $0xa2e6e,0x6f(%ecx,%ebp,2),%esi
    801a:	00 
    801b:	45                   	inc    %ebp
    801c:	72 72                	jb     8090 <link_used.part.2+0xd9>
    801e:	6f                   	outsl  %ds:(%esi),(%dx)
    801f:	72 20                	jb     8041 <link_used.part.2+0x8a>
    8021:	69 6e 69 74 69 61 6c 	imul   $0x6c616974,0x69(%esi),%ebp
    8028:	69 7a 69 6e 67 20 46 	imul   $0x4620676e,0x69(%edx),%edi
    802f:	64 69 73 6b 2e 0a 00 	imul   $0x53000a2e,%fs:0x6b(%ebx),%esi
    8036:	53 
    8037:	65 6c                	gs insb (%dx),%es:(%edi)
    8039:	65 63 74 20 64       	arpl   %si,%gs:0x64(%eax,%eiz,1)
    803e:	65 76 69             	gs jbe 80aa <link_used.part.2+0xf3>
    8041:	63 65 00             	arpl   %sp,0x0(%ebp)
    8044:	45                   	inc    %ebp
    8045:	72 72                	jb     80b9 <link_used.part.2+0x102>
    8047:	6f                   	outsl  %ds:(%esi),(%dx)
    8048:	72 20                	jb     806a <link_used.part.2+0xb3>
    804a:	67 65 74 74          	addr16 gs je 80c2 <link_used.part.2+0x10b>
    804e:	69 6e 67 20 64 65 76 	imul   $0x76656420,0x67(%esi),%ebp
    8055:	69 63 65 20 6c 69 73 	imul   $0x73696c20,0x65(%ebx),%esp
    805c:	74 2e                	je     808c <link_used.part.2+0xd5>
    805e:	0a 00                	or     (%eax),%al
    8060:	25 73 20 28 25       	and    $0x25282073,%eax
    8065:	73 29                	jae    8090 <link_used.part.2+0xd9>
    8067:	00 4e 6f             	add    %cl,0x6f(%esi)
    806a:	20 64 69 73          	and    %ah,0x73(%ecx,%ebp,2)
    806e:	6b 20 64             	imul   $0x64,(%eax),%esp
    8071:	65 76 69             	gs jbe 80dd <link_used.part.2+0x126>
    8074:	63 65 73             	arpl   %sp,0x73(%ebp)
    8077:	20 66 6f             	and    %ah,0x6f(%esi)
    807a:	75 6e                	jne    80ea <link_used.part.2+0x133>
    807c:	64 2e 0a 00          	fs or  %cs:(%eax),%al
    8080:	45                   	inc    %ebp
    8081:	78 69                	js     80ec <link_used.part.2+0x135>
    8083:	74 00                	je     8085 <link_used.part.2+0xce>
    8085:	45                   	inc    %ebp
    8086:	72 72                	jb     80fa <link_used.part.2+0x143>
    8088:	6f                   	outsl  %ds:(%esi),(%dx)
    8089:	72 20                	jb     80ab <link_used.part.2+0xf4>
    808b:	6f                   	outsl  %ds:(%esi),(%dx)
    808c:	70 65                	jo     80f3 <link_used.part.2+0x13c>
    808e:	6e                   	outsb  %ds:(%esi),(%dx)
    808f:	69 6e 67 20 64 65 76 	imul   $0x76656420,0x67(%esi),%ebp
    8096:	69 63 65 2e 0a 00 53 	imul   $0x53000a2e,0x65(%ebx),%esp
    809d:	65 6c                	gs insb (%dx),%es:(%edi)
    809f:	65 63 74 20 61       	arpl   %si,%gs:0x61(%eax,%eiz,1)
    80a4:	63 74 69 6f          	arpl   %si,0x6f(%ecx,%ebp,2)
    80a8:	6e                   	outsb  %ds:(%esi),(%dx)
    80a9:	00 44 65 76          	add    %al,0x76(%ebp,%eiz,2)
    80ad:	69 63 65 3a 20 25 73 	imul   $0x7325203a,0x65(%ebx),%esp
    80b4:	2c 20                	sub    $0x20,%al
    80b6:	25 73 0a 00 44       	and    $0x44000a73,%eax
    80bb:	69 73 6b 20 63 6f 6e 	imul   $0x6e6f6320,0x6b(%ebx),%esi
    80c2:	74 61                	je     8125 <link_used.part.2+0x16e>
    80c4:	69 6e 73 20 6e 6f 20 	imul   $0x206f6e20,0x73(%esi),%ebp
    80cb:	6c                   	insb   (%dx),%es:(%edi)
    80cc:	61                   	popa   
    80cd:	62 65 6c             	bound  %esp,0x6c(%ebp)
    80d0:	2e 0a 00             	or     %cs:(%eax),%al
    80d3:	4c                   	dec    %esp
    80d4:	61                   	popa   
    80d5:	62 65 6c             	bound  %esp,0x6c(%ebp)
    80d8:	20 74 79 70          	and    %dh,0x70(%ecx,%edi,2)
    80dc:	65 3a 20             	cmp    %gs:(%eax),%ah
    80df:	25 73 0a 00 45       	and    $0x45000a73,%eax
    80e4:	6d                   	insl   (%dx),%es:(%edi)
    80e5:	70 74                	jo     815b <link_used.part.2+0x1a4>
    80e7:	79 00                	jns    80e9 <link_used.part.2+0x132>
    80e9:	55                   	push   %ebp
    80ea:	6e                   	outsb  %ds:(%esi),(%dx)
    80eb:	6b 6e 6f 77          	imul   $0x77,0x6f(%esi),%ebp
    80ef:	6e                   	outsb  %ds:(%esi),(%dx)
    80f0:	00 45 6e             	add    %al,0x6e(%ebp)
    80f3:	74 69                	je     815e <link_used.part.2+0x1a7>
    80f5:	72 65                	jb     815c <link_used.part.2+0x1a5>
    80f7:	20 64 69 73          	and    %ah,0x73(%ecx,%ebp,2)
    80fb:	6b 3a 20             	imul   $0x20,(%edx),%edi
    80fe:	25 73 00 50 61       	and    $0x61500073,%eax
    8103:	72 74                	jb     8179 <link_used.part.2+0x1c2>
    8105:	69 74 69 6f 6e 20 25 	imul   $0x6425206e,0x6f(%ecx,%ebp,2),%esi
    810c:	64 
    810d:	3a 20                	cmp    (%eax),%ah
    810f:	25 73 00 0a 4f       	and    $0x4f0a0073,%eax
    8114:	75 74                	jne    818a <link_used.part.2+0x1d3>
    8116:	20 6f 66             	and    %ch,0x66(%edi)
    8119:	20 6d 65             	and    %ch,0x65(%ebp)
    811c:	6d                   	insl   (%dx),%es:(%edi)
    811d:	6f                   	outsl  %ds:(%esi),(%dx)
    811e:	72 79                	jb     8199 <link_used.part.2+0x1e2>
    8120:	2e 0a 00             	or     %cs:(%eax),%al
    8123:	4d                   	dec    %ebp
    8124:	61                   	popa   
    8125:	78 69                	js     8190 <link_used.part.2+0x1d9>
    8127:	6d                   	insl   (%dx),%es:(%edi)
    8128:	75 6d                	jne    8197 <link_used.part.2+0x1e0>
    812a:	20 66 72             	and    %ah,0x72(%esi)
    812d:	65 65 20 62 6c       	gs and %ah,%gs:0x6c(%edx)
    8132:	6f                   	outsl  %ds:(%esi),(%dx)
    8133:	63 6b 3a             	arpl   %bp,0x3a(%ebx)
    8136:	20 25 73 0a 00 54    	and    %ah,0x54000a73
    813c:	6f                   	outsl  %ds:(%esi),(%dx)
    813d:	74 61                	je     81a0 <link_used.part.2+0x1e9>
    813f:	6c                   	insb   (%dx),%es:(%edi)
    8140:	20 66 72             	and    %ah,0x72(%esi)
    8143:	65 65 20 70 72       	gs and %dh,%gs:0x72(%eax)
    8148:	69 6d 61 72 79 20 73 	imul   $0x73207972,0x61(%ebp),%ebp
    814f:	70 61                	jo     81b2 <link_used.part.2+0x1fb>
    8151:	63 65 3a             	arpl   %sp,0x3a(%ebp)
    8154:	20 25 73 0a 00 54    	and    %ah,0x54000a73
    815a:	6f                   	outsl  %ds:(%esi),(%dx)
    815b:	74 61                	je     81be <link_used.part.2+0x207>
    815d:	6c                   	insb   (%dx),%es:(%edi)
    815e:	20 66 72             	and    %ah,0x72(%esi)
    8161:	65 65 20 73 70       	gs and %dh,%gs:0x70(%ebx)
    8166:	61                   	popa   
    8167:	63 65 3a             	arpl   %sp,0x3a(%ebp)
    816a:	20 25 73 0a 00 54    	and    %ah,0x54000a73
    8170:	6f                   	outsl  %ds:(%esi),(%dx)
    8171:	74 61                	je     81d4 <link_used.part.2+0x21d>
    8173:	6c                   	insb   (%dx),%es:(%edi)
    8174:	20 66 72             	and    %ah,0x72(%esi)
    8177:	65 65 20 6c 6f 67    	gs and %ch,%gs:0x67(%edi,%ebp,2)
    817d:	69 63 61 6c 20 73 70 	imul   $0x7073206c,0x61(%ebx),%esp
    8184:	61                   	popa   
    8185:	63 65 3a             	arpl   %sp,0x3a(%ebp)
    8188:	20 25 73 0a 00 43    	and    %ah,0x43000a73
    818e:	72 65                	jb     81f5 <link_used.part.2+0x23e>
    8190:	61                   	popa   
    8191:	74 65                	je     81f8 <link_used.part.2+0x241>
    8193:	20 70 72             	and    %dh,0x72(%eax)
    8196:	69 6d 61 72 79 20 70 	imul   $0x70207972,0x61(%ebp),%ebp
    819d:	61                   	popa   
    819e:	72 74                	jb     8214 <link_used.part.2+0x25d>
    81a0:	69 74 69 6f 6e 00 43 	imul   $0x7243006e,0x6f(%ecx,%ebp,2),%esi
    81a7:	72 
    81a8:	65 61                	gs popa 
    81aa:	74 65                	je     8211 <link_used.part.2+0x25a>
    81ac:	20 65 78             	and    %ah,0x78(%ebp)
    81af:	74 65                	je     8216 <link_used.part.2+0x25f>
    81b1:	6e                   	outsb  %ds:(%esi),(%dx)
    81b2:	64 65 64 20 70 61    	fs gs and %dh,%fs:0x61(%eax)
    81b8:	72 74                	jb     822e <link_used.part.2+0x277>
    81ba:	69 74 69 6f 6e 00 43 	imul   $0x7243006e,0x6f(%ecx,%ebp,2),%esi
    81c1:	72 
    81c2:	65 61                	gs popa 
    81c4:	74 65                	je     822b <link_used.part.2+0x274>
    81c6:	20 6c 6f 67          	and    %ch,0x67(%edi,%ebp,2)
    81ca:	69 63 61 6c 20 70 61 	imul   $0x6170206c,0x61(%ebx),%esp
    81d1:	72 74                	jb     8247 <link_used.part.2+0x290>
    81d3:	69 74 69 6f 6e 00 43 	imul   $0x7243006e,0x6f(%ecx,%ebp,2),%esi
    81da:	72 
    81db:	65 61                	gs popa 
    81dd:	74 65                	je     8244 <link_used.part.2+0x28d>
    81df:	20 70 61             	and    %dh,0x61(%eax)
    81e2:	72 74                	jb     8258 <link_used.part.2+0x2a1>
    81e4:	69 74 69 6f 6e 00 44 	imul   $0x6544006e,0x6f(%ecx,%ebp,2),%esi
    81eb:	65 
    81ec:	6c                   	insb   (%dx),%es:(%edi)
    81ed:	65 74 65             	gs je  8255 <link_used.part.2+0x29e>
    81f0:	20 70 61             	and    %dh,0x61(%eax)
    81f3:	72 74                	jb     8269 <link_used.part.2+0x2b2>
    81f5:	69 74 69 6f 6e 00 43 	imul   $0x7243006e,0x6f(%ecx,%ebp,2),%esi
    81fc:	72 
    81fd:	65 61                	gs popa 
    81ff:	74 65                	je     8266 <link_used.part.2+0x2af>
    8201:	20 6c 61 62          	and    %ch,0x62(%ecx,%eiz,2)
    8205:	65 6c                	gs insb (%dx),%es:(%edi)
    8207:	00 44 65 6c          	add    %al,0x6c(%ebp,%eiz,2)
    820b:	65 74 65             	gs je  8273 <link_used.part.2+0x2bc>
    820e:	20 6c 61 62          	and    %ch,0x62(%ecx,%eiz,2)
    8212:	65 6c                	gs insb (%dx),%es:(%edi)
    8214:	00 45 72             	add    %al,0x72(%ebp)
    8217:	61                   	popa   
    8218:	73 65                	jae    827f <link_used.part.2+0x2c8>
    821a:	20 64 69 73          	and    %ah,0x73(%ecx,%ebp,2)
    821e:	6b 00 53             	imul   $0x53,(%eax),%eax
    8221:	65 6c                	gs insb (%dx),%es:(%edi)
    8223:	65 63 74 20 6c       	arpl   %si,%gs:0x6c(%eax,%eiz,1)
    8228:	61                   	popa   
    8229:	62 65 6c             	bound  %esp,0x6c(%ebp)
    822c:	20 74 79 70          	and    %dh,0x70(%ecx,%edi,2)
    8230:	65 00 45 72          	add    %al,%gs:0x72(%ebp)
    8234:	72 6f                	jb     82a5 <link_used.part.2+0x2ee>
    8236:	72 20                	jb     8258 <link_used.part.2+0x2a1>
    8238:	63 72 65             	arpl   %si,0x65(%edx)
    823b:	61                   	popa   
    823c:	74 69                	je     82a7 <link_used.part.2+0x2f0>
    823e:	6e                   	outsb  %ds:(%esi),(%dx)
    823f:	67 20 6c 61          	and    %ch,0x61(%si)
    8243:	62 65 6c             	bound  %esp,0x6c(%ebp)
    8246:	2e 0a 00             	or     %cs:(%eax),%al
    8249:	45                   	inc    %ebp
    824a:	72 72                	jb     82be <link_used.part.2+0x307>
    824c:	6f                   	outsl  %ds:(%esi),(%dx)
    824d:	72 20                	jb     826f <link_used.part.2+0x2b8>
    824f:	64 65 6c             	fs gs insb (%dx),%es:(%edi)
    8252:	65 74 69             	gs je  82be <link_used.part.2+0x307>
    8255:	6e                   	outsb  %ds:(%esi),(%dx)
    8256:	67 20 6c 61          	and    %ch,0x61(%si)
    825a:	62 65 6c             	bound  %esp,0x6c(%ebp)
    825d:	2e 0a 00             	or     %cs:(%eax),%al
    8260:	45                   	inc    %ebp
    8261:	72 72                	jb     82d5 <link_used.part.2+0x31e>
    8263:	6f                   	outsl  %ds:(%esi),(%dx)
    8264:	72 20                	jb     8286 <link_used.part.2+0x2cf>
    8266:	65 72 61             	gs jb  82ca <link_used.part.2+0x313>
    8269:	73 69                	jae    82d4 <link_used.part.2+0x31d>
    826b:	6e                   	outsb  %ds:(%esi),(%dx)
    826c:	67 20 64 69          	and    %ah,0x69(%si)
    8270:	73 6b                	jae    82dd <link_used.part.2+0x326>
    8272:	2e 0a 00             	or     %cs:(%eax),%al
    8275:	53                   	push   %ebx
    8276:	65 6c                	gs insb (%dx),%es:(%edi)
    8278:	65 63 74 20 70       	arpl   %si,%gs:0x70(%eax,%eiz,1)
    827d:	61                   	popa   
    827e:	72 74                	jb     82f4 <link_used.part.2+0x33d>
    8280:	69 74 69 6f 6e 20 74 	imul   $0x6f74206e,0x6f(%ecx,%ebp,2),%esi
    8287:	6f 
    8288:	20 64 65 6c          	and    %ah,0x6c(%ebp,%eiz,2)
    828c:	65 74 65             	gs je  82f4 <link_used.part.2+0x33d>
    828f:	00 25 73 2c 20 25    	add    %ah,0x25202c73
    8295:	73 2c                	jae    82c3 <link_used.part.2+0x30c>
    8297:	20 25 73 00 43 61    	and    %ah,0x61430073
    829d:	6e                   	outsb  %ds:(%esi),(%dx)
    829e:	63 65 6c             	arpl   %sp,0x6c(%ebp)
    82a1:	00 45 72             	add    %al,0x72(%ebp)
    82a4:	72 6f                	jb     8315 <link_used.part.2+0x35e>
    82a6:	72 20                	jb     82c8 <link_used.part.2+0x311>
    82a8:	64 65 6c             	fs gs insb (%dx),%es:(%edi)
    82ab:	65 74 69             	gs je  8317 <link_used.part.2+0x360>
    82ae:	6e                   	outsb  %ds:(%esi),(%dx)
    82af:	67 20 70 61          	and    %dh,0x61(%bx,%si)
    82b3:	72 74                	jb     8329 <link_used.part.2+0x372>
    82b5:	69 74 69 6f 6e 2e 0a 	imul   $0xa2e6e,0x6f(%ecx,%ebp,2),%esi
    82bc:	00 
    82bd:	66 90                	xchg   %ax,%ax
    82bf:	90                   	nop
    82c0:	45                   	inc    %ebp
    82c1:	6e                   	outsb  %ds:(%esi),(%dx)
    82c2:	74 65                	je     8329 <link_used.part.2+0x372>
    82c4:	72 20                	jb     82e6 <link_used.part.2+0x32f>
    82c6:	63 61 70             	arpl   %sp,0x70(%ecx)
    82c9:	61                   	popa   
    82ca:	63 69 74             	arpl   %bp,0x74(%ecx)
    82cd:	79 20                	jns    82ef <link_used.part.2+0x338>
    82cf:	6f                   	outsl  %ds:(%esi),(%dx)
    82d0:	66 20 6e 65          	data16 and %ch,0x65(%esi)
    82d4:	77 20                	ja     82f6 <link_used.part.2+0x33f>
    82d6:	70 61                	jo     8339 <link_used.part.2+0x382>
    82d8:	72 74                	jb     834e <link_used.part.2+0x397>
    82da:	69 74 69 6f 6e 2e 0a 	imul   $0xa2e6e,0x6f(%ecx,%ebp,2),%esi
    82e1:	00 
    82e2:	00 00                	add    %al,(%eax)
    82e4:	45                   	inc    %ebp
    82e5:	72 72                	jb     8359 <link_used.part.2+0x3a2>
    82e7:	6f                   	outsl  %ds:(%esi),(%dx)
    82e8:	72 20                	jb     830a <link_used.part.2+0x353>
    82ea:	67 65 74 74          	addr16 gs je 8362 <link_used.part.2+0x3ab>
    82ee:	69 6e 67 20 75 73 65 	imul   $0x65737520,0x67(%esi),%ebp
    82f5:	72 20                	jb     8317 <link_used.part.2+0x360>
    82f7:	73 65                	jae    835e <link_used.part.2+0x3a7>
    82f9:	6c                   	insb   (%dx),%es:(%edi)
    82fa:	65 63 74 69 6f       	arpl   %si,%gs:0x6f(%ecx,%ebp,2)
    82ff:	6e                   	outsb  %ds:(%esi),(%dx)
    8300:	2e 0a 00             	or     %cs:(%eax),%al
    8303:	00 45 72             	add    %al,0x72(%ebp)
    8306:	72 6f                	jb     8377 <link_used.part.2+0x3c0>
    8308:	72 20                	jb     832a <link_used.part.2+0x373>
    830a:	67 65 74 74          	addr16 gs je 8382 <link_used.part.2+0x3cb>
    830e:	69 6e 67 20 64 65 76 	imul   $0x76656420,0x67(%esi),%ebp
    8315:	69 63 65 20 73 65 72 	imul   $0x72657320,0x65(%ebx),%esp
    831c:	76 69                	jbe    8387 <link_used.part.2+0x3d0>
    831e:	63 65 20             	arpl   %sp,0x20(%ebp)
    8321:	6e                   	outsb  %ds:(%esi),(%dx)
    8322:	61                   	popa   
    8323:	6d                   	insl   (%dx),%es:(%edi)
    8324:	65 20 28             	and    %ch,%gs:(%eax)
    8327:	73 65                	jae    838e <link_used.part.2+0x3d7>
    8329:	72 76                	jb     83a1 <link_used.part.2+0x3ea>
    832b:	69 63 65 20 49 44 20 	imul   $0x20444920,0x65(%ebx),%esp
    8332:	25 7a 75 29 2e       	and    $0x2e29757a,%eax
    8337:	0a 00                	or     (%eax),%al
    8339:	00 00                	add    %al,(%eax)
    833b:	00 45 72             	add    %al,0x72(%ebp)
    833e:	72 6f                	jb     83af <link_used.part.2+0x3f8>
    8340:	72 20                	jb     8362 <link_used.part.2+0x3ab>
    8342:	67 65 74 74          	addr16 gs je 83ba <link_used.part.2+0x403>
    8346:	69 6e 67 20 64 65 76 	imul   $0x76656420,0x67(%esi),%ebp
    834d:	69 63 65 20 63 61 70 	imul   $0x70616320,0x65(%ebx),%esp
    8354:	61                   	popa   
    8355:	63 69 74             	arpl   %bp,0x74(%ecx)
    8358:	79 20                	jns    837a <link_used.part.2+0x3c3>
    835a:	28 64 65 76          	sub    %ah,0x76(%ebp,%eiz,2)
    835e:	69 63 65 20 25 73 29 	imul   $0x29732520,0x65(%ebx),%esp
    8365:	2e 0a 00             	or     %cs:(%eax),%al
    8368:	45                   	inc    %ebp
    8369:	72 72                	jb     83dd <link_used.part.2+0x426>
    836b:	6f                   	outsl  %ds:(%esi),(%dx)
    836c:	72 20                	jb     838e <link_used.part.2+0x3d7>
    836e:	67 65 74 74          	addr16 gs je 83e6 <link_used.part.2+0x42f>
    8372:	69 6e 67 20 64 65 76 	imul   $0x76656420,0x67(%esi),%ebp
    8379:	69 63 65 20 63 61 70 	imul   $0x70616320,0x65(%ebx),%esp
    8380:	61                   	popa   
    8381:	63 69 74             	arpl   %bp,0x74(%ecx)
    8384:	79 2e                	jns    83b4 <link_used.part.2+0x3fd>
    8386:	0a 00                	or     (%eax),%al
    8388:	45                   	inc    %ebp
    8389:	72 72                	jb     83fd <link_used.part.2+0x446>
    838b:	6f                   	outsl  %ds:(%esi),(%dx)
    838c:	72 20                	jb     83ae <link_used.part.2+0x3f7>
    838e:	67 65 74 74          	addr16 gs je 8406 <link_used.part.2+0x44f>
    8392:	69 6e 67 20 64 65 76 	imul   $0x76656420,0x67(%esi),%ebp
    8399:	69 63 65 20 73 65 72 	imul   $0x72657320,0x65(%ebx),%esp
    83a0:	76 69                	jbe    840b <link_used.part.2+0x454>
    83a2:	63 65 20             	arpl   %sp,0x20(%ebp)
    83a5:	6e                   	outsb  %ds:(%esi),(%dx)
    83a6:	61                   	popa   
    83a7:	6d                   	insl   (%dx),%es:(%edi)
    83a8:	65 2e 0a 00          	gs or  %cs:(%eax),%al
    83ac:	45                   	inc    %ebp
    83ad:	72 72                	jb     8421 <link_used.part.2+0x46a>
    83af:	6f                   	outsl  %ds:(%esi),(%dx)
    83b0:	72 20                	jb     83d2 <link_used.part.2+0x41b>
    83b2:	67 65 74 74          	addr16 gs je 842a <link_used.part.2+0x473>
    83b6:	69 6e 67 20 6c 61 62 	imul   $0x62616c20,0x67(%esi),%ebp
    83bd:	65 6c                	gs insb (%dx),%es:(%edi)
    83bf:	20 69 6e             	and    %ch,0x6e(%ecx)
    83c2:	66 6f                	outsw  %ds:(%esi),(%dx)
    83c4:	72 6d                	jb     8433 <link_used.part.2+0x47c>
    83c6:	61                   	popa   
    83c7:	74 69                	je     8432 <link_used.part.2+0x47b>
    83c9:	6f                   	outsl  %ds:(%esi),(%dx)
    83ca:	6e                   	outsb  %ds:(%esi),(%dx)
    83cb:	2e 0a 00             	or     %cs:(%eax),%al
    83ce:	00 00                	add    %al,(%eax)
    83d0:	45                   	inc    %ebp
    83d1:	72 72                	jb     8445 <link_used.part.2+0x48e>
    83d3:	6f                   	outsl  %ds:(%esi),(%dx)
    83d4:	72 20                	jb     83f6 <link_used.part.2+0x43f>
    83d6:	67 65 74 74          	addr16 gs je 844e <link_used.part.2+0x497>
    83da:	69 6e 67 20 70 61 72 	imul   $0x72617020,0x67(%esi),%ebp
    83e1:	74 69                	je     844c <link_used.part.2+0x495>
    83e3:	74 69                	je     844e <link_used.part.2+0x497>
    83e5:	6f                   	outsl  %ds:(%esi),(%dx)
    83e6:	6e                   	outsb  %ds:(%esi),(%dx)
    83e7:	20 69 6e             	and    %ch,0x6e(%ecx)
    83ea:	66 6f                	outsw  %ds:(%esi),(%dx)
    83ec:	72 6d                	jb     845b <link_used.part.2+0x4a4>
    83ee:	61                   	popa   
    83ef:	74 69                	je     845a <link_used.part.2+0x4a3>
    83f1:	6f                   	outsl  %ds:(%esi),(%dx)
    83f2:	6e                   	outsb  %ds:(%esi),(%dx)
    83f3:	2e 0a 00             	or     %cs:(%eax),%al
    83f6:	00 00                	add    %al,(%eax)
    83f8:	4d                   	dec    %ebp
    83f9:	61                   	popa   
    83fa:	78 69                	js     8465 <link_used.part.2+0x4ae>
    83fc:	6d                   	insl   (%dx),%es:(%edi)
    83fd:	75 6d                	jne    846c <link_used.part.2+0x4b5>
    83ff:	20 66 72             	and    %ah,0x72(%esi)
    8402:	65 65 20 70 72       	gs and %dh,%gs:0x72(%eax)
    8407:	69 6d 61 72 79 20 62 	imul   $0x62207972,0x61(%ebp),%ebp
    840e:	6c                   	insb   (%dx),%es:(%edi)
    840f:	6f                   	outsl  %ds:(%esi),(%dx)
    8410:	63 6b 3a             	arpl   %bp,0x3a(%ebx)
    8413:	20 25 73 0a 00 4d    	and    %ah,0x4d000a73
    8419:	61                   	popa   
    841a:	78 69                	js     8485 <link_used.part.2+0x4ce>
    841c:	6d                   	insl   (%dx),%es:(%edi)
    841d:	75 6d                	jne    848c <link_used.part.2+0x4d5>
    841f:	20 66 72             	and    %ah,0x72(%esi)
    8422:	65 65 20 6c 6f 67    	gs and %ch,%gs:0x67(%edi,%ebp,2)
    8428:	69 63 61 6c 20 62 6c 	imul   $0x6c62206c,0x61(%ebx),%esp
    842f:	6f                   	outsl  %ds:(%esi),(%dx)
    8430:	63 6b 3a             	arpl   %bp,0x3a(%ebx)
    8433:	20 25 73 0a 00 57    	and    %ah,0x57000a73
    8439:	61                   	popa   
    843a:	72 6e                	jb     84aa <link_used.part.2+0x4f3>
    843c:	69 6e 67 2e 20 41 6e 	imul   $0x6e41202e,0x67(%esi),%ebp
    8443:	79 20                	jns    8465 <link_used.part.2+0x4ae>
    8445:	64 61                	fs popa 
    8447:	74 61                	je     84aa <link_used.part.2+0x4f3>
    8449:	20 6f 6e             	and    %ch,0x6e(%edi)
    844c:	20 64 69 73          	and    %ah,0x73(%ecx,%ebp,2)
    8450:	6b 20 77             	imul   $0x77,(%eax),%esp
    8453:	69 6c 6c 20 62 65 20 	imul   $0x6c206562,0x20(%esp,%ebp,2),%ebp
    845a:	6c 
    845b:	6f                   	outsl  %ds:(%esi),(%dx)
    845c:	73 74                	jae    84d2 <link_used.part.2+0x51b>
    845e:	2e 20 52 65          	and    %dl,%cs:0x65(%edx)
    8462:	61                   	popa   
    8463:	6c                   	insb   (%dx),%es:(%edi)
    8464:	6c                   	insb   (%dx),%es:(%edi)
    8465:	79 20                	jns    8487 <link_used.part.2+0x4d0>
    8467:	64 65 6c             	fs gs insb (%dx),%es:(%edi)
    846a:	65 74 65             	gs je  84d2 <link_used.part.2+0x51b>
    846d:	20 6c 61 62          	and    %ch,0x62(%ecx,%eiz,2)
    8471:	65 6c                	gs insb (%dx),%es:(%edi)
    8473:	3f                   	aas    
    8474:	00 00                	add    %al,(%eax)
    8476:	00 00                	add    %al,(%eax)
    8478:	45                   	inc    %ebp
    8479:	72 72                	jb     84ed <link_used.part.2+0x536>
    847b:	6f                   	outsl  %ds:(%esi),(%dx)
    847c:	72 20                	jb     849e <link_used.part.2+0x4e7>
    847e:	67 65 74 74          	addr16 gs je 84f6 <link_used.part.2+0x53f>
    8482:	69 6e 67 20 75 73 65 	imul   $0x65737520,0x67(%esi),%ebp
    8489:	72 20                	jb     84ab <link_used.part.2+0x4f4>
    848b:	63 6f 6e             	arpl   %bp,0x6e(%edi)
    848e:	66 69 72 6d 61 74    	imul   $0x7461,0x6d(%edx),%si
    8494:	69 6f 6e 2e 0a 00 00 	imul   $0xa2e,0x6e(%edi),%ebp
    849b:	00 57 61             	add    %dl,0x61(%edi)
    849e:	72 6e                	jb     850e <link_used.part.2+0x557>
    84a0:	69 6e 67 2e 20 41 6e 	imul   $0x6e41202e,0x67(%esi),%ebp
    84a7:	79 20                	jns    84c9 <link_used.part.2+0x512>
    84a9:	64 61                	fs popa 
    84ab:	74 61                	je     850e <link_used.part.2+0x557>
    84ad:	20 6f 6e             	and    %ch,0x6e(%edi)
    84b0:	20 64 69 73          	and    %ah,0x73(%ecx,%ebp,2)
    84b4:	6b 20 77             	imul   $0x77,(%eax),%esp
    84b7:	69 6c 6c 20 62 65 20 	imul   $0x6c206562,0x20(%esp,%ebp,2),%ebp
    84be:	6c 
    84bf:	6f                   	outsl  %ds:(%esi),(%dx)
    84c0:	73 74                	jae    8536 <link_used.part.2+0x57f>
    84c2:	2e 20 52 65          	and    %dl,%cs:0x65(%edx)
    84c6:	61                   	popa   
    84c7:	6c                   	insb   (%dx),%es:(%edi)
    84c8:	6c                   	insb   (%dx),%es:(%edi)
    84c9:	79 20                	jns    84eb <link_used.part.2+0x534>
    84cb:	65 72 61             	gs jb  852f <link_used.part.2+0x578>
    84ce:	73 65                	jae    8535 <link_used.part.2+0x57e>
    84d0:	20 64 69 73          	and    %ah,0x73(%ecx,%ebp,2)
    84d4:	6b 3f 00             	imul   $0x0,(%edi),%edi
    84d7:	00 57 61             	add    %dl,0x61(%edi)
    84da:	72 6e                	jb     854a <link_used.part.2+0x593>
    84dc:	69 6e 67 2e 20 41 6e 	imul   $0x6e41202e,0x67(%esi),%ebp
    84e3:	79 20                	jns    8505 <link_used.part.2+0x54e>
    84e5:	64 61                	fs popa 
    84e7:	74 61                	je     854a <link_used.part.2+0x593>
    84e9:	20 69 6e             	and    %ch,0x6e(%ecx)
    84ec:	20 70 61             	and    %dh,0x61(%eax)
    84ef:	72 74                	jb     8565 <link_used.part.2+0x5ae>
    84f1:	69 74 69 6f 6e 20 77 	imul   $0x6977206e,0x6f(%ecx,%ebp,2),%esi
    84f8:	69 
    84f9:	6c                   	insb   (%dx),%es:(%edi)
    84fa:	6c                   	insb   (%dx),%es:(%edi)
    84fb:	20 62 65             	and    %ah,0x65(%edx)
    84fe:	20 6c 6f 73          	and    %ch,0x73(%edi,%ebp,2)
    8502:	74 2e                	je     8532 <link_used.part.2+0x57b>
    8504:	20 52 65             	and    %dl,0x65(%edx)
    8507:	61                   	popa   
    8508:	6c                   	insb   (%dx),%es:(%edi)
    8509:	6c                   	insb   (%dx),%es:(%edi)
    850a:	79 20                	jns    852c <link_used.part.2+0x575>
    850c:	64 65 6c             	fs gs insb (%dx),%es:(%edi)
    850f:	65 74 65             	gs je  8577 <link_used.part.2+0x5c0>
    8512:	20 70 61             	and    %dh,0x61(%eax)
    8515:	72 74                	jb     858b <link_used.part.2+0x5d4>
    8517:	69 74 69 6f 6e 3f 00 	imul   $0x66003f6e,0x6f(%ecx,%ebp,2),%esi
    851e:	66 
    851f:	90                   	nop
    8520:	5c                   	pop    %esp
    8521:	26 00 00             	add    %al,%es:(%eax)
    8524:	01 26                	add    %esp,(%esi)
    8526:	00 00                	add    %al,(%eax)
    8528:	bb 25 00 00 ef       	mov    $0xef000025,%ebx
    852d:	23 00                	and    (%eax),%eax
    852f:	00 de                	add    %bl,%dh
    8531:	23 00                	and    (%eax),%eax
    8533:	00 81 23 00 00 de    	add    %al,-0x21ffffdd(%ecx)
    8539:	22 00                	and    (%eax),%al
    853b:	00 b0 26 00 00 43    	add    %dh,0x43000026(%eax)
    8541:	68 6f 69 63 65       	push   $0x6563696f
    8546:	3e 20 00             	and    %al,%ds:(%eax)
    8549:	6e                   	outsb  %ds:(%esi),(%dx)
    854a:	63 68 6f             	arpl   %bp,0x6f(%eax)
    854d:	69 63 65 2e 63 00 63 	imul   $0x6300632e,0x65(%ebx),%esp
    8554:	68 6f 69 63 65       	push   $0x6563696f
    8559:	2d 3e 64 65 66       	sub    $0x6665643e,%eax
    855e:	5f                   	pop    %edi
    855f:	6f                   	outsl  %ds:(%esi),(%dx)
    8560:	70 74                	jo     85d6 <link_used.part.2+0x61f>
    8562:	20 3d 3d 20 4e 55    	and    %bh,0x554e203d
    8568:	4c                   	dec    %esp
    8569:	4c                   	dec    %esp
    856a:	00 20                	add    %ah,(%eax)
    856c:	5b                   	pop    %ebx
    856d:	64 65 66 61          	fs gs popaw 
    8571:	75 6c                	jne    85df <link_used.part.2+0x628>
    8573:	74 5d                	je     85d2 <link_used.part.2+0x61b>
    8575:	00 25 64 3a 20 25    	add    %ah,0x25203a64
    857b:	73 25                	jae    85a2 <link_used.part.2+0x5eb>
    857d:	73 0a                	jae    8589 <link_used.part.2+0x5d2>
    857f:	00 25 64 00 72 63    	add    %ah,0x63720064
    8585:	20 3d 3d 20 45 49    	and    %bh,0x4945203d
    858b:	4f                   	dec    %edi
    858c:	20 7c 7c 20          	and    %bh,0x20(%esp,%edi,2)
    8590:	72 63                	jb     85f5 <link_used.part.2+0x63e>
    8592:	20 3d 3d 20 45 4e    	and    %bh,0x4e45203d
    8598:	4f                   	dec    %edi
    8599:	45                   	inc    %ebp
    859a:	4e                   	dec    %esi
    859b:	54                   	push   %esp
    859c:	00 49 6e             	add    %cl,0x6e(%ecx)
    859f:	76 61                	jbe    8602 <link_used.part.2+0x64b>
    85a1:	6c                   	insb   (%dx),%es:(%edi)
    85a2:	69 64 20 63 68 6f 69 	imul   $0x63696f68,0x63(%eax,%eiz,1),%esp
    85a9:	63 
    85aa:	65 2e 20 54 72 79    	gs and %dl,%cs:0x79(%edx,%esi,2)
    85b0:	20 61 67             	and    %ah,0x67(%ecx)
    85b3:	61                   	popa   
    85b4:	69 6e 2e 0a 00 66 61 	imul   $0x6166000a,0x2e(%esi),%ebp
    85bb:	6c                   	insb   (%dx),%es:(%edi)
    85bc:	73 65                	jae    8623 <link_used.part.2+0x66c>
    85be:	00 25 6c 73 00 45    	add    %ah,0x4500736c
    85c4:	72 72                	jb     8638 <link_used.part.2+0x681>
    85c6:	6f                   	outsl  %ds:(%esi),(%dx)
    85c7:	72 3a                	jb     8603 <link_used.part.2+0x64c>
    85c9:	20 4f 75             	and    %cl,0x75(%edi)
    85cc:	74 20                	je     85ee <link_used.part.2+0x637>
    85ce:	6f                   	outsl  %ds:(%esi),(%dx)
    85cf:	66 20 6d 65          	data16 and %ch,0x65(%ebp)
    85d3:	6d                   	insl   (%dx),%es:(%edi)
    85d4:	6f                   	outsl  %ds:(%esi),(%dx)
    85d5:	72 79                	jb     8650 <link_used.part.2+0x699>
    85d7:	2e 0a 00             	or     %cs:(%eax),%al
    85da:	66 90                	xchg   %ax,%ax
    85dc:	4f                   	dec    %edi
    85dd:	41                   	inc    %ecx
    85de:	00 00                	add    %al,(%eax)
    85e0:	17                   	pop    %ss
    85e1:	3c 00                	cmp    $0x0,%al
    85e3:	00 30                	add    %dh,(%eax)
    85e5:	37                   	aaa    
    85e6:	00 00                	add    %al,(%eax)
    85e8:	30 37                	xor    %dh,(%edi)
    85ea:	00 00                	add    %al,(%eax)
    85ec:	30 37                	xor    %dh,(%edi)
    85ee:	00 00                	add    %al,(%eax)
    85f0:	30 37                	xor    %dh,(%edi)
    85f2:	00 00                	add    %al,(%eax)
    85f4:	30 37                	xor    %dh,(%edi)
    85f6:	00 00                	add    %al,(%eax)
    85f8:	30 37                	xor    %dh,(%edi)
    85fa:	00 00                	add    %al,(%eax)
    85fc:	30 37                	xor    %dh,(%edi)
    85fe:	00 00                	add    %al,(%eax)
    8600:	30 37                	xor    %dh,(%edi)
    8602:	00 00                	add    %al,(%eax)
    8604:	30 37                	xor    %dh,(%edi)
    8606:	00 00                	add    %al,(%eax)
    8608:	30 37                	xor    %dh,(%edi)
    860a:	00 00                	add    %al,(%eax)
    860c:	30 37                	xor    %dh,(%edi)
    860e:	00 00                	add    %al,(%eax)
    8610:	30 37                	xor    %dh,(%edi)
    8612:	00 00                	add    %al,(%eax)
    8614:	30 37                	xor    %dh,(%edi)
    8616:	00 00                	add    %al,(%eax)
    8618:	30 37                	xor    %dh,(%edi)
    861a:	00 00                	add    %al,(%eax)
    861c:	30 37                	xor    %dh,(%edi)
    861e:	00 00                	add    %al,(%eax)
    8620:	30 37                	xor    %dh,(%edi)
    8622:	00 00                	add    %al,(%eax)
    8624:	30 37                	xor    %dh,(%edi)
    8626:	00 00                	add    %al,(%eax)
    8628:	30 37                	xor    %dh,(%edi)
    862a:	00 00                	add    %al,(%eax)
    862c:	30 37                	xor    %dh,(%edi)
    862e:	00 00                	add    %al,(%eax)
    8630:	30 37                	xor    %dh,(%edi)
    8632:	00 00                	add    %al,(%eax)
    8634:	30 37                	xor    %dh,(%edi)
    8636:	00 00                	add    %al,(%eax)
    8638:	30 37                	xor    %dh,(%edi)
    863a:	00 00                	add    %al,(%eax)
    863c:	30 37                	xor    %dh,(%edi)
    863e:	00 00                	add    %al,(%eax)
    8640:	30 37                	xor    %dh,(%edi)
    8642:	00 00                	add    %al,(%eax)
    8644:	30 37                	xor    %dh,(%edi)
    8646:	00 00                	add    %al,(%eax)
    8648:	30 37                	xor    %dh,(%edi)
    864a:	00 00                	add    %al,(%eax)
    864c:	a9 3e 00 00 30       	test   $0x3000003e,%eax
    8651:	37                   	aaa    
    8652:	00 00                	add    %al,(%eax)
    8654:	30 37                	xor    %dh,(%edi)
    8656:	00 00                	add    %al,(%eax)
    8658:	30 37                	xor    %dh,(%edi)
    865a:	00 00                	add    %al,(%eax)
    865c:	30 37                	xor    %dh,(%edi)
    865e:	00 00                	add    %al,(%eax)
    8660:	30 37                	xor    %dh,(%edi)
    8662:	00 00                	add    %al,(%eax)
    8664:	30 37                	xor    %dh,(%edi)
    8666:	00 00                	add    %al,(%eax)
    8668:	30 37                	xor    %dh,(%edi)
    866a:	00 00                	add    %al,(%eax)
    866c:	30 37                	xor    %dh,(%edi)
    866e:	00 00                	add    %al,(%eax)
    8670:	30 37                	xor    %dh,(%edi)
    8672:	00 00                	add    %al,(%eax)
    8674:	30 37                	xor    %dh,(%edi)
    8676:	00 00                	add    %al,(%eax)
    8678:	30 37                	xor    %dh,(%edi)
    867a:	00 00                	add    %al,(%eax)
    867c:	30 37                	xor    %dh,(%edi)
    867e:	00 00                	add    %al,(%eax)
    8680:	30 37                	xor    %dh,(%edi)
    8682:	00 00                	add    %al,(%eax)
    8684:	30 37                	xor    %dh,(%edi)
    8686:	00 00                	add    %al,(%eax)
    8688:	30 37                	xor    %dh,(%edi)
    868a:	00 00                	add    %al,(%eax)
    868c:	30 37                	xor    %dh,(%edi)
    868e:	00 00                	add    %al,(%eax)
    8690:	30 37                	xor    %dh,(%edi)
    8692:	00 00                	add    %al,(%eax)
    8694:	30 37                	xor    %dh,(%edi)
    8696:	00 00                	add    %al,(%eax)
    8698:	30 37                	xor    %dh,(%edi)
    869a:	00 00                	add    %al,(%eax)
    869c:	30 37                	xor    %dh,(%edi)
    869e:	00 00                	add    %al,(%eax)
    86a0:	30 37                	xor    %dh,(%edi)
    86a2:	00 00                	add    %al,(%eax)
    86a4:	30 37                	xor    %dh,(%edi)
    86a6:	00 00                	add    %al,(%eax)
    86a8:	30 37                	xor    %dh,(%edi)
    86aa:	00 00                	add    %al,(%eax)
    86ac:	30 37                	xor    %dh,(%edi)
    86ae:	00 00                	add    %al,(%eax)
    86b0:	30 37                	xor    %dh,(%edi)
    86b2:	00 00                	add    %al,(%eax)
    86b4:	30 37                	xor    %dh,(%edi)
    86b6:	00 00                	add    %al,(%eax)
    86b8:	30 37                	xor    %dh,(%edi)
    86ba:	00 00                	add    %al,(%eax)
    86bc:	30 37                	xor    %dh,(%edi)
    86be:	00 00                	add    %al,(%eax)
    86c0:	30 37                	xor    %dh,(%edi)
    86c2:	00 00                	add    %al,(%eax)
    86c4:	30 37                	xor    %dh,(%edi)
    86c6:	00 00                	add    %al,(%eax)
    86c8:	30 37                	xor    %dh,(%edi)
    86ca:	00 00                	add    %al,(%eax)
    86cc:	30 37                	xor    %dh,(%edi)
    86ce:	00 00                	add    %al,(%eax)
    86d0:	30 37                	xor    %dh,(%edi)
    86d2:	00 00                	add    %al,(%eax)
    86d4:	30 37                	xor    %dh,(%edi)
    86d6:	00 00                	add    %al,(%eax)
    86d8:	30 37                	xor    %dh,(%edi)
    86da:	00 00                	add    %al,(%eax)
    86dc:	30 37                	xor    %dh,(%edi)
    86de:	00 00                	add    %al,(%eax)
    86e0:	b5 3e                	mov    $0x3e,%ch
    86e2:	00 00                	add    %al,(%eax)
    86e4:	30 37                	xor    %dh,(%edi)
    86e6:	00 00                	add    %al,(%eax)
    86e8:	16                   	push   %ss
    86e9:	3f                   	aas    
    86ea:	00 00                	add    %al,(%eax)
    86ec:	50                   	push   %eax
    86ed:	40                   	inc    %eax
    86ee:	00 00                	add    %al,(%eax)
    86f0:	30 37                	xor    %dh,(%edi)
    86f2:	00 00                	add    %al,(%eax)
    86f4:	b1 40                	mov    $0x40,%cl
    86f6:	00 00                	add    %al,(%eax)
    86f8:	d5 40                	aad    $0x40
    86fa:	00 00                	add    %al,(%eax)
    86fc:	32 41 00             	xor    0x0(%ecx),%al
    86ff:	00 28                	add    %ch,(%eax)
    8701:	3e 00 00             	add    %al,%ds:(%eax)
    8704:	30 37                	xor    %dh,(%edi)
    8706:	00 00                	add    %al,(%eax)
    8708:	30 37                	xor    %dh,(%edi)
    870a:	00 00                	add    %al,(%eax)
    870c:	30 37                	xor    %dh,(%edi)
    870e:	00 00                	add    %al,(%eax)
    8710:	30 37                	xor    %dh,(%edi)
    8712:	00 00                	add    %al,(%eax)
    8714:	30 37                	xor    %dh,(%edi)
    8716:	00 00                	add    %al,(%eax)
    8718:	a9 3e 00 00 dd       	test   $0xdd00003e,%eax
    871d:	43                   	inc    %ebx
    871e:	00 00                	add    %al,(%eax)
    8720:	14 37                	adc    $0x37,%al
    8722:	00 00                	add    %al,(%eax)
    8724:	14 37                	adc    $0x37,%al
    8726:	00 00                	add    %al,(%eax)
    8728:	14 37                	adc    $0x37,%al
    872a:	00 00                	add    %al,(%eax)
    872c:	14 37                	adc    $0x37,%al
    872e:	00 00                	add    %al,(%eax)
    8730:	14 37                	adc    $0x37,%al
    8732:	00 00                	add    %al,(%eax)
    8734:	14 37                	adc    $0x37,%al
    8736:	00 00                	add    %al,(%eax)
    8738:	14 37                	adc    $0x37,%al
    873a:	00 00                	add    %al,(%eax)
    873c:	14 37                	adc    $0x37,%al
    873e:	00 00                	add    %al,(%eax)
    8740:	14 37                	adc    $0x37,%al
    8742:	00 00                	add    %al,(%eax)
    8744:	14 37                	adc    $0x37,%al
    8746:	00 00                	add    %al,(%eax)
    8748:	14 37                	adc    $0x37,%al
    874a:	00 00                	add    %al,(%eax)
    874c:	14 37                	adc    $0x37,%al
    874e:	00 00                	add    %al,(%eax)
    8750:	cc                   	int3   
    8751:	45                   	inc    %ebp
    8752:	00 00                	add    %al,(%eax)
    8754:	14 37                	adc    $0x37,%al
    8756:	00 00                	add    %al,(%eax)
    8758:	14 37                	adc    $0x37,%al
    875a:	00 00                	add    %al,(%eax)
    875c:	14 37                	adc    $0x37,%al
    875e:	00 00                	add    %al,(%eax)
    8760:	14 37                	adc    $0x37,%al
    8762:	00 00                	add    %al,(%eax)
    8764:	14 37                	adc    $0x37,%al
    8766:	00 00                	add    %al,(%eax)
    8768:	14 37                	adc    $0x37,%al
    876a:	00 00                	add    %al,(%eax)
    876c:	14 37                	adc    $0x37,%al
    876e:	00 00                	add    %al,(%eax)
    8770:	14 37                	adc    $0x37,%al
    8772:	00 00                	add    %al,(%eax)
    8774:	14 37                	adc    $0x37,%al
    8776:	00 00                	add    %al,(%eax)
    8778:	14 37                	adc    $0x37,%al
    877a:	00 00                	add    %al,(%eax)
    877c:	14 37                	adc    $0x37,%al
    877e:	00 00                	add    %al,(%eax)
    8780:	14 37                	adc    $0x37,%al
    8782:	00 00                	add    %al,(%eax)
    8784:	14 37                	adc    $0x37,%al
    8786:	00 00                	add    %al,(%eax)
    8788:	14 37                	adc    $0x37,%al
    878a:	00 00                	add    %al,(%eax)
    878c:	14 37                	adc    $0x37,%al
    878e:	00 00                	add    %al,(%eax)
    8790:	bc 44 00 00 4a       	mov    $0x4a000044,%esp
    8795:	44                   	inc    %esp
    8796:	00 00                	add    %al,(%eax)
    8798:	f0 43                	lock inc %ebx
    879a:	00 00                	add    %al,(%eax)
    879c:	14 37                	adc    $0x37,%al
    879e:	00 00                	add    %al,(%eax)
    87a0:	14 37                	adc    $0x37,%al
    87a2:	00 00                	add    %al,(%eax)
    87a4:	14 37                	adc    $0x37,%al
    87a6:	00 00                	add    %al,(%eax)
    87a8:	14 37                	adc    $0x37,%al
    87aa:	00 00                	add    %al,(%eax)
    87ac:	14 37                	adc    $0x37,%al
    87ae:	00 00                	add    %al,(%eax)
    87b0:	14 37                	adc    $0x37,%al
    87b2:	00 00                	add    %al,(%eax)
    87b4:	14 37                	adc    $0x37,%al
    87b6:	00 00                	add    %al,(%eax)
    87b8:	14 37                	adc    $0x37,%al
    87ba:	00 00                	add    %al,(%eax)
    87bc:	14 37                	adc    $0x37,%al
    87be:	00 00                	add    %al,(%eax)
    87c0:	14 37                	adc    $0x37,%al
    87c2:	00 00                	add    %al,(%eax)
    87c4:	14 37                	adc    $0x37,%al
    87c6:	00 00                	add    %al,(%eax)
    87c8:	14 37                	adc    $0x37,%al
    87ca:	00 00                	add    %al,(%eax)
    87cc:	14 37                	adc    $0x37,%al
    87ce:	00 00                	add    %al,(%eax)
    87d0:	14 37                	adc    $0x37,%al
    87d2:	00 00                	add    %al,(%eax)
    87d4:	14 37                	adc    $0x37,%al
    87d6:	00 00                	add    %al,(%eax)
    87d8:	14 37                	adc    $0x37,%al
    87da:	00 00                	add    %al,(%eax)
    87dc:	14 37                	adc    $0x37,%al
    87de:	00 00                	add    %al,(%eax)
    87e0:	14 37                	adc    $0x37,%al
    87e2:	00 00                	add    %al,(%eax)
    87e4:	14 37                	adc    $0x37,%al
    87e6:	00 00                	add    %al,(%eax)
    87e8:	14 37                	adc    $0x37,%al
    87ea:	00 00                	add    %al,(%eax)
    87ec:	14 37                	adc    $0x37,%al
    87ee:	00 00                	add    %al,(%eax)
    87f0:	14 37                	adc    $0x37,%al
    87f2:	00 00                	add    %al,(%eax)
    87f4:	14 37                	adc    $0x37,%al
    87f6:	00 00                	add    %al,(%eax)
    87f8:	14 37                	adc    $0x37,%al
    87fa:	00 00                	add    %al,(%eax)
    87fc:	14 37                	adc    $0x37,%al
    87fe:	00 00                	add    %al,(%eax)
    8800:	14 37                	adc    $0x37,%al
    8802:	00 00                	add    %al,(%eax)
    8804:	14 37                	adc    $0x37,%al
    8806:	00 00                	add    %al,(%eax)
    8808:	14 37                	adc    $0x37,%al
    880a:	00 00                	add    %al,(%eax)
    880c:	14 37                	adc    $0x37,%al
    880e:	00 00                	add    %al,(%eax)
    8810:	14 37                	adc    $0x37,%al
    8812:	00 00                	add    %al,(%eax)
    8814:	14 37                	adc    $0x37,%al
    8816:	00 00                	add    %al,(%eax)
    8818:	14 37                	adc    $0x37,%al
    881a:	00 00                	add    %al,(%eax)
    881c:	14 37                	adc    $0x37,%al
    881e:	00 00                	add    %al,(%eax)
    8820:	14 37                	adc    $0x37,%al
    8822:	00 00                	add    %al,(%eax)
    8824:	14 37                	adc    $0x37,%al
    8826:	00 00                	add    %al,(%eax)
    8828:	14 37                	adc    $0x37,%al
    882a:	00 00                	add    %al,(%eax)
    882c:	70 47                	jo     8875 <link_used.part.2+0x8be>
    882e:	00 00                	add    %al,(%eax)
    8830:	f9                   	stc    
    8831:	46                   	inc    %esi
    8832:	00 00                	add    %al,(%eax)
    8834:	7f 46                	jg     887c <link_used.part.2+0x8c5>
    8836:	00 00                	add    %al,(%eax)
    8838:	fc                   	cld    
    8839:	45                   	inc    %ebp
    883a:	00 00                	add    %al,(%eax)
    883c:	7a 43                	jp     8881 <link_used.part.2+0x8ca>
    883e:	00 00                	add    %al,(%eax)
    8840:	37                   	aaa    
    8841:	39 00                	cmp    %eax,(%eax)
    8843:	00 37                	add    %dh,(%edi)
    8845:	39 00                	cmp    %eax,(%eax)
    8847:	00 69 43             	add    %ch,0x43(%ecx)
    884a:	00 00                	add    %al,(%eax)
    884c:	37                   	aaa    
    884d:	39 00                	cmp    %eax,(%eax)
    884f:	00 ef                	add    %ch,%bh
    8851:	38 00                	cmp    %al,(%eax)
    8853:	00 a5 43 00 00 89    	add    %ah,-0x76ffffbd(%ebp)
    8859:	43                   	inc    %ebx
    885a:	00 00                	add    %al,(%eax)
    885c:	bf 43 00 00 73       	mov    $0x73000043,%edi
    8861:	72 63                	jb     88c6 <link_used.part.2+0x90f>
    8863:	2f                   	das    
    8864:	63 61 70             	arpl   %sp,0x70(%ecx)
    8867:	2e 63 00             	arpl   %ax,%cs:(%eax)
    886a:	72 63                	jb     88cf <link_used.part.2+0x918>
    886c:	20 3d 3d 20 45 4f    	and    %bh,0x4f45203d
    8872:	4b                   	dec    %ebx
    8873:	00 25 6c 6c 75 2e    	add    %ah,0x2e756c6c
    8879:	25 30 2a 6c 6c       	and    $0x6c6c2a30,%eax
    887e:	75 20                	jne    88a0 <link_used.part.2+0x8e9>
    8880:	25 73 00 25 6c       	and    $0x6c250073,%eax
    8885:	6c                   	insb   (%dx),%es:(%edi)
    8886:	75 20                	jne    88a8 <link_used.part.2+0x8f1>
    8888:	25 73 00 6b 42       	and    $0x426b0073,%eax
    888d:	00 4d 42             	add    %cl,0x42(%ebp)
    8890:	00 47 42             	add    %al,0x42(%edi)
    8893:	00 54 42 00          	add    %dl,0x0(%edx,%eax,2)
    8897:	50                   	push   %eax
    8898:	42                   	inc    %edx
    8899:	00 45 42             	add    %al,0x42(%ebp)
    889c:	00 5a 42             	add    %bl,0x42(%edx)
    889f:	00 59 42             	add    %bl,0x42(%ecx)
    88a2:	00 66 90             	add    %ah,-0x70(%esi)
    88a5:	66 90                	xchg   %ax,%ax
    88a7:	66 90                	xchg   %ax,%ax
    88a9:	66 90                	xchg   %ax,%ax
    88ab:	66 90                	xchg   %ax,%ax
    88ad:	66 90                	xchg   %ax,%ax
    88af:	66 90                	xchg   %ax,%ax
    88b1:	66 90                	xchg   %ax,%ax
    88b3:	66 90                	xchg   %ax,%ax
    88b5:	66 90                	xchg   %ax,%ax
    88b7:	66 90                	xchg   %ax,%ax
    88b9:	66 90                	xchg   %ax,%ax
    88bb:	66 90                	xchg   %ax,%ax
    88bd:	66 90                	xchg   %ax,%ax
    88bf:	90                   	nop
    88c0:	00 54 00 00          	add    %dl,0x0(%eax,%eax,1)
    88c4:	78 53                	js     8919 <link_used.part.2+0x962>
    88c6:	00 00                	add    %al,(%eax)
    88c8:	f8                   	clc    
    88c9:	53                   	push   %ebx
    88ca:	00 00                	add    %al,(%eax)
    88cc:	f0 53                	lock push %ebx
    88ce:	00 00                	add    %al,(%eax)
    88d0:	e8 53 00 00 28       	call   28008928 <quit+0x27ffdea8>
    88d5:	54                   	push   %esp
    88d6:	00 00                	add    %al,(%eax)
    88d8:	18 54 00 00          	sbb    %dl,0x0(%eax,%eax,1)
    88dc:	e0 53                	loopne 8931 <cu_str+0x11>
    88de:	00 00                	add    %al,(%eax)
    88e0:	08 54 00 00          	or     %dl,0x0(%eax,%eax,1)
    88e4:	38 54 00 00          	cmp    %dl,0x0(%eax,%eax,1)
    88e8:	10 55 00             	adc    %dl,0x0(%ebp)
    88eb:	00 e8                	add    %ch,%al
    88ed:	54                   	push   %esp
    88ee:	00 00                	add    %al,(%eax)
    88f0:	50                   	push   %eax
    88f1:	55                   	push   %ebp
    88f2:	00 00                	add    %al,(%eax)
    88f4:	48                   	dec    %eax
    88f5:	55                   	push   %ebp
    88f6:	00 00                	add    %al,(%eax)
    88f8:	40                   	inc    %eax
    88f9:	55                   	push   %ebp
    88fa:	00 00                	add    %al,(%eax)
    88fc:	38 55 00             	cmp    %dl,0x0(%ebp)
    88ff:	00 30                	add    %dh,(%eax)
    8901:	55                   	push   %ebp
    8902:	00 00                	add    %al,(%eax)
    8904:	28 55 00             	sub    %dl,0x0(%ebp)
    8907:	00 20                	add    %ah,(%eax)
    8909:	55                   	push   %ebp
    890a:	00 00                	add    %al,(%eax)
    890c:	18 55 00             	sbb    %dl,0x0(%ebp)
	...

00008920 <cu_str>:
    8920:	9b 88 00 00 8b 88 00 00 8e 88 00 00 91 88 00 00     ................
    8930:	94 88 00 00 97 88 00 00 9a 88 00 00 9d 88 00 00     ................
    8940:	a0 88 00 00 2e 2e 2f 2e 2e 2f 6c 69 62 2f 63 2f     ....../../lib/c/
    8950:	69 6e 63 6c 75 64 65 2f 61 64 74 2f 6c 69 73 74     include/adt/list
    8960:	2e 68 00 00 6c 69 6e 6b 2d 3e 70 72 65 76 20 21     .h..link->prev !
    8970:	3d 20 4e 55 4c 4c 20 26 26 20 6c 69 6e 6b 2d 3e     = NULL && link->
    8980:	6e 65 78 74 20 21 3d 20 4e 55 4c 4c 00 00 00 00     next != NULL....
    8990:	73 72 63 2f 66 64 69 73 6b 2e 63 00 70 61 72 74     src/fdisk.c.part
    89a0:	20 21 3d 20 4e 55 4c 4c 00 66 6e 62 6c 6f 63 6b      != NULL.fnblock
    89b0:	73 20 3c 20 68 64 72 62 20 2b 20 6e 6f 6d 5f 62     s < hdrb + nom_b
    89c0:	6c 6f 63 6b 73 00 50 72 69 6d 61 72 79 00 45 78     locks.Primary.Ex
    89d0:	74 65 6e 64 65 64 00 4c 6f 67 69 63 61 6c 00 45     tended.Logical.E
    89e0:	78 46 41 54 00 4d 49 4e 49 58 00 45 78 74 34 00     xFAT.MINIX.Ext4.
    89f0:	4e 6f 6e 65 00 4d 42 52 00 47 50 54 00 66 90 90     None.MBR.GPT.f..

00008a00 <CSWTCH.100>:
    8a00:	c6 89 00 00 ce 89 00 00 d7 89 00 00                 ............

00008a0c <CSWTCH.98>:
    8a0c:	df 89 00 00 e1 89 00 00 e5 89 00 00 eb 89 00 00     ................

00008a1c <CSWTCH.96>:
    8a1c:	f0 89 00 00 f5 89 00 00 f9 89 00 00                 ............

00008a28 <CSWTCH.66>:
    8a28:	00 00 00 00 03 00 00 00 04 00 00 00 01 00 00 00     ................

Disassembly of section .plt:

00008c30 <console_get_size@plt-0x10>:
    8c30:	ff 35 60 a9 00 00    	pushl  0xa960
    8c36:	ff 25 64 a9 00 00    	jmp    *0xa964
    8c3c:	00 00                	add    %al,(%eax)
	...

00008c40 <console_get_size@plt>:
    8c40:	ff 25 68 a9 00 00    	jmp    *0xa968
    8c46:	68 00 00 00 00       	push   $0x0
    8c4b:	e9 e0 ff ff ff       	jmp    8c30 <CSWTCH.66+0x208>

00008c50 <putchar@plt>:
    8c50:	ff 25 6c a9 00 00    	jmp    *0xa96c
    8c56:	68 08 00 00 00       	push   $0x8
    8c5b:	e9 d0 ff ff ff       	jmp    8c30 <CSWTCH.66+0x208>

00008c60 <__main@plt>:
    8c60:	ff 25 70 a9 00 00    	jmp    *0xa970
    8c66:	68 10 00 00 00       	push   $0x10
    8c6b:	e9 c0 ff ff ff       	jmp    8c30 <CSWTCH.66+0x208>

00008c70 <vol_destroy@plt>:
    8c70:	ff 25 74 a9 00 00    	jmp    *0xa974
    8c76:	68 18 00 00 00       	push   $0x18
    8c7b:	e9 b0 ff ff ff       	jmp    8c30 <CSWTCH.66+0x208>

00008c80 <vbd_label_get_parts@plt>:
    8c80:	ff 25 78 a9 00 00    	jmp    *0xa978
    8c86:	68 20 00 00 00       	push   $0x20
    8c8b:	e9 a0 ff ff ff       	jmp    8c30 <CSWTCH.66+0x208>

00008c90 <vbd_get_disks@plt>:
    8c90:	ff 25 7c a9 00 00    	jmp    *0xa97c
    8c96:	68 28 00 00 00       	push   $0x28
    8c9b:	e9 90 ff ff ff       	jmp    8c30 <CSWTCH.66+0x208>

00008ca0 <wstr_length@plt>:
    8ca0:	ff 25 80 a9 00 00    	jmp    *0xa980
    8ca6:	68 30 00 00 00       	push   $0x30
    8cab:	e9 80 ff ff ff       	jmp    8c30 <CSWTCH.66+0x208>

00008cb0 <printf@plt>:
    8cb0:	ff 25 84 a9 00 00    	jmp    *0xa984
    8cb6:	68 38 00 00 00       	push   $0x38
    8cbb:	e9 70 ff ff ff       	jmp    8c30 <CSWTCH.66+0x208>

00008cc0 <vbd_part_delete@plt>:
    8cc0:	ff 25 88 a9 00 00    	jmp    *0xa988
    8cc6:	68 40 00 00 00       	push   $0x40
    8ccb:	e9 60 ff ff ff       	jmp    8c30 <CSWTCH.66+0x208>

00008cd0 <memmove@plt>:
    8cd0:	ff 25 8c a9 00 00    	jmp    *0xa98c
    8cd6:	68 48 00 00 00       	push   $0x48
    8cdb:	e9 50 ff ff ff       	jmp    8c30 <CSWTCH.66+0x208>

00008ce0 <vbd_create@plt>:
    8ce0:	ff 25 90 a9 00 00    	jmp    *0xa990
    8ce6:	68 50 00 00 00       	push   $0x50
    8ceb:	e9 40 ff ff ff       	jmp    8c30 <CSWTCH.66+0x208>

00008cf0 <console_get_pos@plt>:
    8cf0:	ff 25 94 a9 00 00    	jmp    *0xa994
    8cf6:	68 58 00 00 00       	push   $0x58
    8cfb:	e9 30 ff ff ff       	jmp    8c30 <CSWTCH.66+0x208>

00008d00 <str_width@plt>:
    8d00:	ff 25 98 a9 00 00    	jmp    *0xa998
    8d06:	68 60 00 00 00       	push   $0x60
    8d0b:	e9 20 ff ff ff       	jmp    8c30 <CSWTCH.66+0x208>

00008d10 <str_decode@plt>:
    8d10:	ff 25 9c a9 00 00    	jmp    *0xa99c
    8d16:	68 68 00 00 00       	push   $0x68
    8d1b:	e9 10 ff ff ff       	jmp    8c30 <CSWTCH.66+0x208>

00008d20 <vol_create@plt>:
    8d20:	ff 25 a0 a9 00 00    	jmp    *0xa9a0
    8d26:	68 70 00 00 00       	push   $0x70
    8d2b:	e9 00 ff ff ff       	jmp    8c30 <CSWTCH.66+0x208>

00008d30 <vbd_disk_info@plt>:
    8d30:	ff 25 a4 a9 00 00    	jmp    *0xa9a4
    8d36:	68 78 00 00 00       	push   $0x78
    8d3b:	e9 f0 fe ff ff       	jmp    8c30 <CSWTCH.66+0x208>

00008d40 <str_ndup@plt>:
    8d40:	ff 25 a8 a9 00 00    	jmp    *0xa9a8
    8d46:	68 80 00 00 00       	push   $0x80
    8d4b:	e9 e0 fe ff ff       	jmp    8c30 <CSWTCH.66+0x208>

00008d50 <qsort@plt>:
    8d50:	ff 25 ac a9 00 00    	jmp    *0xa9ac
    8d56:	68 88 00 00 00       	push   $0x88
    8d5b:	e9 d0 fe ff ff       	jmp    8c30 <CSWTCH.66+0x208>

00008d60 <memcpy@plt>:
    8d60:	ff 25 b0 a9 00 00    	jmp    *0xa9b0
    8d66:	68 90 00 00 00       	push   $0x90
    8d6b:	e9 c0 fe ff ff       	jmp    8c30 <CSWTCH.66+0x208>

00008d70 <vol_part_empty@plt>:
    8d70:	ff 25 b4 a9 00 00    	jmp    *0xa9b4
    8d76:	68 98 00 00 00       	push   $0x98
    8d7b:	e9 b0 fe ff ff       	jmp    8c30 <CSWTCH.66+0x208>

00008d80 <malloc@plt>:
    8d80:	ff 25 b8 a9 00 00    	jmp    *0xa9b8
    8d86:	68 a0 00 00 00       	push   $0xa0
    8d8b:	e9 a0 fe ff ff       	jmp    8c30 <CSWTCH.66+0x208>

00008d90 <strtoul@plt>:
    8d90:	ff 25 bc a9 00 00    	jmp    *0xa9bc
    8d96:	68 a8 00 00 00       	push   $0xa8
    8d9b:	e9 90 fe ff ff       	jmp    8c30 <CSWTCH.66+0x208>

00008da0 <vbd_label_delete@plt>:
    8da0:	ff 25 c0 a9 00 00    	jmp    *0xa9c0
    8da6:	68 b0 00 00 00       	push   $0xb0
    8dab:	e9 80 fe ff ff       	jmp    8c30 <CSWTCH.66+0x208>

00008db0 <fflush@plt>:
    8db0:	ff 25 c4 a9 00 00    	jmp    *0xa9c4
    8db6:	68 b8 00 00 00       	push   $0xb8
    8dbb:	e9 70 fe ff ff       	jmp    8c30 <CSWTCH.66+0x208>

00008dc0 <console_get_event@plt>:
    8dc0:	ff 25 c8 a9 00 00    	jmp    *0xa9c8
    8dc6:	68 c0 00 00 00       	push   $0xc0
    8dcb:	e9 60 fe ff ff       	jmp    8c30 <CSWTCH.66+0x208>

00008dd0 <ilog10_u64@plt>:
    8dd0:	ff 25 cc a9 00 00    	jmp    *0xa9cc
    8dd6:	68 c8 00 00 00       	push   $0xc8
    8ddb:	e9 50 fe ff ff       	jmp    8c30 <CSWTCH.66+0x208>

00008de0 <__umoddi3@plt>:
    8de0:	ff 25 d0 a9 00 00    	jmp    *0xa9d0
    8de6:	68 d0 00 00 00       	push   $0xd0
    8deb:	e9 40 fe ff ff       	jmp    8c30 <CSWTCH.66+0x208>

00008df0 <__udivdi3@plt>:
    8df0:	ff 25 d4 a9 00 00    	jmp    *0xa9d4
    8df6:	68 d8 00 00 00       	push   $0xd8
    8dfb:	e9 30 fe ff ff       	jmp    8c30 <CSWTCH.66+0x208>

00008e00 <console_init@plt>:
    8e00:	ff 25 d8 a9 00 00    	jmp    *0xa9d8
    8e06:	68 e0 00 00 00       	push   $0xe0
    8e0b:	e9 20 fe ff ff       	jmp    8c30 <CSWTCH.66+0x208>

00008e10 <loc_service_get_name@plt>:
    8e10:	ff 25 dc a9 00 00    	jmp    *0xa9dc
    8e16:	68 e8 00 00 00       	push   $0xe8
    8e1b:	e9 10 fe ff ff       	jmp    8c30 <CSWTCH.66+0x208>

00008e20 <clipboard_put_str@plt>:
    8e20:	ff 25 e0 a9 00 00    	jmp    *0xa9e0
    8e26:	68 f0 00 00 00       	push   $0xf0
    8e2b:	e9 00 fe ff ff       	jmp    8c30 <CSWTCH.66+0x208>

00008e30 <assert_abort@plt>:
    8e30:	ff 25 e4 a9 00 00    	jmp    *0xa9e4
    8e36:	68 f8 00 00 00       	push   $0xf8
    8e3b:	e9 f0 fd ff ff       	jmp    8c30 <CSWTCH.66+0x208>

00008e40 <calloc@plt>:
    8e40:	ff 25 e8 a9 00 00    	jmp    *0xa9e8
    8e46:	68 00 01 00 00       	push   $0x100
    8e4b:	e9 e0 fd ff ff       	jmp    8c30 <CSWTCH.66+0x208>

00008e50 <vbd_part_create@plt>:
    8e50:	ff 25 ec a9 00 00    	jmp    *0xa9ec
    8e56:	68 08 01 00 00       	push   $0x108
    8e5b:	e9 d0 fd ff ff       	jmp    8c30 <CSWTCH.66+0x208>

00008e60 <str_lcasecmp@plt>:
    8e60:	ff 25 f0 a9 00 00    	jmp    *0xa9f0
    8e66:	68 10 01 00 00       	push   $0x110
    8e6b:	e9 c0 fd ff ff       	jmp    8c30 <CSWTCH.66+0x208>

00008e70 <vbd_part_get_info@plt>:
    8e70:	ff 25 f4 a9 00 00    	jmp    *0xa9f4
    8e76:	68 18 01 00 00       	push   $0x118
    8e7b:	e9 b0 fd ff ff       	jmp    8c30 <CSWTCH.66+0x208>

00008e80 <str_dup@plt>:
    8e80:	ff 25 f8 a9 00 00    	jmp    *0xa9f8
    8e86:	68 20 01 00 00       	push   $0x120
    8e8b:	e9 a0 fd ff ff       	jmp    8c30 <CSWTCH.66+0x208>

00008e90 <clipboard_get_str@plt>:
    8e90:	ff 25 fc a9 00 00    	jmp    *0xa9fc
    8e96:	68 28 01 00 00       	push   $0x128
    8e9b:	e9 90 fd ff ff       	jmp    8c30 <CSWTCH.66+0x208>

00008ea0 <vbd_destroy@plt>:
    8ea0:	ff 25 00 aa 00 00    	jmp    *0xaa00
    8ea6:	68 30 01 00 00       	push   $0x130
    8eab:	e9 80 fd ff ff       	jmp    8c30 <CSWTCH.66+0x208>

00008eb0 <realloc@plt>:
    8eb0:	ff 25 04 aa 00 00    	jmp    *0xaa04
    8eb6:	68 38 01 00 00       	push   $0x138
    8ebb:	e9 70 fd ff ff       	jmp    8c30 <CSWTCH.66+0x208>

00008ec0 <str_cmp@plt>:
    8ec0:	ff 25 08 aa 00 00    	jmp    *0xaa08
    8ec6:	68 40 01 00 00       	push   $0x140
    8ecb:	e9 60 fd ff ff       	jmp    8c30 <CSWTCH.66+0x208>

00008ed0 <vbd_label_create@plt>:
    8ed0:	ff 25 0c aa 00 00    	jmp    *0xaa0c
    8ed6:	68 48 01 00 00       	push   $0x148
    8edb:	e9 50 fd ff ff       	jmp    8c30 <CSWTCH.66+0x208>

00008ee0 <console_set_style@plt>:
    8ee0:	ff 25 10 aa 00 00    	jmp    *0xaa10
    8ee6:	68 50 01 00 00       	push   $0x150
    8eeb:	e9 40 fd ff ff       	jmp    8c30 <CSWTCH.66+0x208>

00008ef0 <vol_part_mkfs@plt>:
    8ef0:	ff 25 14 aa 00 00    	jmp    *0xaa14
    8ef6:	68 58 01 00 00       	push   $0x158
    8efb:	e9 30 fd ff ff       	jmp    8c30 <CSWTCH.66+0x208>

00008f00 <memset@plt>:
    8f00:	ff 25 18 aa 00 00    	jmp    *0xaa18
    8f06:	68 60 01 00 00       	push   $0x160
    8f0b:	e9 20 fd ff ff       	jmp    8c30 <CSWTCH.66+0x208>

00008f10 <wstr_to_astr@plt>:
    8f10:	ff 25 1c aa 00 00    	jmp    *0xaa1c
    8f16:	68 68 01 00 00       	push   $0x168
    8f1b:	e9 10 fd ff ff       	jmp    8c30 <CSWTCH.66+0x208>

00008f20 <asprintf@plt>:
    8f20:	ff 25 20 aa 00 00    	jmp    *0xaa20
    8f26:	68 70 01 00 00       	push   $0x170
    8f2b:	e9 00 fd ff ff       	jmp    8c30 <CSWTCH.66+0x208>

00008f30 <vol_part_add@plt>:
    8f30:	ff 25 24 aa 00 00    	jmp    *0xaa24
    8f36:	68 78 01 00 00       	push   $0x178
    8f3b:	e9 f0 fc ff ff       	jmp    8c30 <CSWTCH.66+0x208>

00008f40 <console_flush@plt>:
    8f40:	ff 25 28 aa 00 00    	jmp    *0xaa28
    8f46:	68 80 01 00 00       	push   $0x180
    8f4b:	e9 e0 fc ff ff       	jmp    8c30 <CSWTCH.66+0x208>

00008f50 <str_size@plt>:
    8f50:	ff 25 2c aa 00 00    	jmp    *0xaa2c
    8f56:	68 88 01 00 00       	push   $0x188
    8f5b:	e9 d0 fc ff ff       	jmp    8c30 <CSWTCH.66+0x208>

00008f60 <str_length@plt>:
    8f60:	ff 25 30 aa 00 00    	jmp    *0xaa30
    8f66:	68 90 01 00 00       	push   $0x190
    8f6b:	e9 c0 fc ff ff       	jmp    8c30 <CSWTCH.66+0x208>

00008f70 <console_set_pos@plt>:
    8f70:	ff 25 34 aa 00 00    	jmp    *0xaa34
    8f76:	68 98 01 00 00       	push   $0x198
    8f7b:	e9 b0 fc ff ff       	jmp    8c30 <CSWTCH.66+0x208>

00008f80 <ipow10_u64@plt>:
    8f80:	ff 25 38 aa 00 00    	jmp    *0xaa38
    8f86:	68 a0 01 00 00       	push   $0x1a0
    8f8b:	e9 a0 fc ff ff       	jmp    8c30 <CSWTCH.66+0x208>

00008f90 <str_to_wstr@plt>:
    8f90:	ff 25 3c aa 00 00    	jmp    *0xaa3c
    8f96:	68 a8 01 00 00       	push   $0x1a8
    8f9b:	e9 90 fc ff ff       	jmp    8c30 <CSWTCH.66+0x208>

00008fa0 <vbd_suggest_ptype@plt>:
    8fa0:	ff 25 40 aa 00 00    	jmp    *0xaa40
    8fa6:	68 b0 01 00 00       	push   $0x1b0
    8fab:	e9 80 fc ff ff       	jmp    8c30 <CSWTCH.66+0x208>

00008fb0 <__syscall_fast@plt>:
    8fb0:	ff 25 44 aa 00 00    	jmp    *0xaa44
    8fb6:	68 b8 01 00 00       	push   $0x1b8
    8fbb:	e9 70 fc ff ff       	jmp    8c30 <CSWTCH.66+0x208>

00008fc0 <str_lsize@plt>:
    8fc0:	ff 25 48 aa 00 00    	jmp    *0xaa48
    8fc6:	68 c0 01 00 00       	push   $0x1c0
    8fcb:	e9 60 fc ff ff       	jmp    8c30 <CSWTCH.66+0x208>

00008fd0 <vol_part_info@plt>:
    8fd0:	ff 25 4c aa 00 00    	jmp    *0xaa4c
    8fd6:	68 c8 01 00 00       	push   $0x1c8
    8fdb:	e9 50 fc ff ff       	jmp    8c30 <CSWTCH.66+0x208>

00008fe0 <free@plt>:
    8fe0:	ff 25 50 aa 00 00    	jmp    *0xaa50
    8fe6:	68 d0 01 00 00       	push   $0x1d0
    8feb:	e9 40 fc ff ff       	jmp    8c30 <CSWTCH.66+0x208>
