Archive member included to satisfy reference by file (symbol)

../../lib/clui/libclui.a(nchoice.o)
                              fdisk.o (nchoice_create)
../../lib/clui/libclui.a(tinput.o)
                              fdisk.o (tinput_new)
../../lib/fdisk/libfdisk.a(cap.o)
                              fdisk.o (fdisk_cap_simplify)
../../lib/fdisk/libfdisk.a(fdisk.o)
                              fdisk.o (fdisk_create)

Discarded input sections

 .debug_line    0x0000000000000000       0x53 /home/ayyuce/Desktop/HlnOS/HelenOS/uspace/lib/c/arch/ia32/src/entry.o
 .debug_info    0x0000000000000000       0x6c /home/ayyuce/Desktop/HlnOS/HelenOS/uspace/lib/c/arch/ia32/src/entry.o
 .debug_abbrev  0x0000000000000000       0x14 /home/ayyuce/Desktop/HlnOS/HelenOS/uspace/lib/c/arch/ia32/src/entry.o
 .debug_aranges
                0x0000000000000000       0x20 /home/ayyuce/Desktop/HlnOS/HelenOS/uspace/lib/c/arch/ia32/src/entry.o
 .debug_info    0x0000000000000000     0x2083 fdisk.o
 .debug_abbrev  0x0000000000000000      0x371 fdisk.o
 .debug_loc     0x0000000000000000      0xf48 fdisk.o
 .debug_aranges
                0x0000000000000000       0x30 fdisk.o
 .debug_ranges  0x0000000000000000      0x150 fdisk.o
 .debug_line    0x0000000000000000      0x6d2 fdisk.o
 .debug_str     0x0000000000000000     0x11bf fdisk.o
 .comment       0x0000000000000000       0x12 fdisk.o
 .note.GNU-stack
                0x0000000000000000        0x0 fdisk.o
 .eh_frame      0x0000000000000000       0xbc fdisk.o
 .debug_info    0x0000000000000000      0xb8d ../../lib/clui/libclui.a(nchoice.o)
 .debug_abbrev  0x0000000000000000      0x2af ../../lib/clui/libclui.a(nchoice.o)
 .debug_loc     0x0000000000000000      0x43a ../../lib/clui/libclui.a(nchoice.o)
 .debug_aranges
                0x0000000000000000       0x20 ../../lib/clui/libclui.a(nchoice.o)
 .debug_ranges  0x0000000000000000       0x48 ../../lib/clui/libclui.a(nchoice.o)
 .debug_line    0x0000000000000000      0x2b1 ../../lib/clui/libclui.a(nchoice.o)
 .debug_str     0x0000000000000000      0x9b9 ../../lib/clui/libclui.a(nchoice.o)
 .comment       0x0000000000000000       0x12 ../../lib/clui/libclui.a(nchoice.o)
 .note.GNU-stack
                0x0000000000000000        0x0 ../../lib/clui/libclui.a(nchoice.o)
 .eh_frame      0x0000000000000000      0x128 ../../lib/clui/libclui.a(nchoice.o)
 .debug_info    0x0000000000000000     0x3960 ../../lib/clui/libclui.a(tinput.o)
 .debug_abbrev  0x0000000000000000      0x4c3 ../../lib/clui/libclui.a(tinput.o)
 .debug_loc     0x0000000000000000     0x31b7 ../../lib/clui/libclui.a(tinput.o)
 .debug_aranges
                0x0000000000000000       0x20 ../../lib/clui/libclui.a(tinput.o)
 .debug_ranges  0x0000000000000000      0x808 ../../lib/clui/libclui.a(tinput.o)
 .debug_line    0x0000000000000000      0x9b8 ../../lib/clui/libclui.a(tinput.o)
 .debug_str     0x0000000000000000     0x1212 ../../lib/clui/libclui.a(tinput.o)
 .comment       0x0000000000000000       0x12 ../../lib/clui/libclui.a(tinput.o)
 .note.GNU-stack
                0x0000000000000000        0x0 ../../lib/clui/libclui.a(tinput.o)
 .eh_frame      0x0000000000000000      0x224 ../../lib/clui/libclui.a(tinput.o)
 .debug_info    0x0000000000000000      0x841 ../../lib/fdisk/libfdisk.a(cap.o)
 .debug_abbrev  0x0000000000000000      0x225 ../../lib/fdisk/libfdisk.a(cap.o)
 .debug_loc     0x0000000000000000      0x571 ../../lib/fdisk/libfdisk.a(cap.o)
 .debug_aranges
                0x0000000000000000       0x20 ../../lib/fdisk/libfdisk.a(cap.o)
 .debug_ranges  0x0000000000000000       0x38 ../../lib/fdisk/libfdisk.a(cap.o)
 .debug_line    0x0000000000000000      0x2be ../../lib/fdisk/libfdisk.a(cap.o)
 .debug_str     0x0000000000000000      0x8cf ../../lib/fdisk/libfdisk.a(cap.o)
 .comment       0x0000000000000000       0x12 ../../lib/fdisk/libfdisk.a(cap.o)
 .note.GNU-stack
                0x0000000000000000        0x0 ../../lib/fdisk/libfdisk.a(cap.o)
 .eh_frame      0x0000000000000000      0x120 ../../lib/fdisk/libfdisk.a(cap.o)
 .debug_info    0x0000000000000000     0x409a ../../lib/fdisk/libfdisk.a(fdisk.o)
 .debug_abbrev  0x0000000000000000      0x50a ../../lib/fdisk/libfdisk.a(fdisk.o)
 .debug_loc     0x0000000000000000     0x44b7 ../../lib/fdisk/libfdisk.a(fdisk.o)
 .debug_aranges
                0x0000000000000000       0x28 ../../lib/fdisk/libfdisk.a(fdisk.o)
 .debug_ranges  0x0000000000000000      0xf90 ../../lib/fdisk/libfdisk.a(fdisk.o)
 .debug_line    0x0000000000000000      0xf4a ../../lib/fdisk/libfdisk.a(fdisk.o)
 .debug_str     0x0000000000000000     0x11c5 ../../lib/fdisk/libfdisk.a(fdisk.o)
 .comment       0x0000000000000000       0x12 ../../lib/fdisk/libfdisk.a(fdisk.o)
 .note.GNU-stack
                0x0000000000000000        0x0 ../../lib/fdisk/libfdisk.a(fdisk.o)
 .eh_frame      0x0000000000000000      0x614 ../../lib/fdisk/libfdisk.a(fdisk.o)

Memory Configuration

Name             Origin             Length             Attributes
*default*        0x0000000000000000 0xffffffffffffffff

Linker script and memory map

LOAD /home/ayyuce/Desktop/HlnOS/HelenOS/uspace/lib/c/arch/ia32/src/entry.o
                0x00000000000010f4                . = (0x1000 + SIZEOF_HEADERS)

.init           0x00000000000010f4       0x2e
 *(.init)
 .init          0x00000000000010f4       0x2e /home/ayyuce/Desktop/HlnOS/HelenOS/uspace/lib/c/arch/ia32/src/entry.o
                0x00000000000010f4                __entry

.text           0x0000000000001140     0x78f8
 *(.text .text.*)
 .text          0x0000000000001140        0x0 /home/ayyuce/Desktop/HlnOS/HelenOS/uspace/lib/c/arch/ia32/src/entry.o
 .text          0x0000000000001140        0x0 fdisk.o
 .text.unlikely
                0x0000000000001140      0x3a3 fdisk.o
 *fill*         0x00000000000014e3        0xd 
 .text.startup  0x00000000000014f0     0x13c1 fdisk.o
                0x00000000000014f0                main
 *fill*         0x00000000000028b1        0xf 
 .text          0x00000000000028c0      0x3a9 ../../lib/clui/libclui.a(nchoice.o)
                0x00000000000028c0                nchoice_create
                0x0000000000002950                nchoice_destroy
                0x0000000000002980                nchoice_set_prompt
                0x00000000000029c0                nchoice_add
                0x0000000000002a70                nchoice_get
 *fill*         0x0000000000002c69        0x7 
 .text          0x0000000000002c70     0x21ea ../../lib/clui/libclui.a(tinput.o)
                0x00000000000033c0                tinput_new
                0x0000000000003420                tinput_destroy
                0x0000000000003450                tinput_set_prompt
                0x0000000000003490                tinput_set_compl_ops
                0x00000000000034a0                tinput_read_i
                0x0000000000004e40                tinput_read
 *fill*         0x0000000000004e5a        0x6 
 .text          0x0000000000004e60      0x6f7 ../../lib/fdisk/libfdisk.a(cap.o)
                0x0000000000004e60                fdisk_cap_from_blocks
                0x0000000000004e90                fdisk_cap_to_blocks
                0x0000000000005070                fdisk_cap_simplify
                0x0000000000005250                fdisk_cap_format
                0x0000000000005350                fdisk_cap_parse
 *fill*         0x0000000000005557        0x9 
 .text          0x0000000000005560     0x2a57 ../../lib/fdisk/libfdisk.a(fdisk.o)
                0x0000000000005e60                fdisk_create
                0x0000000000005ef0                fdisk_destroy
                0x0000000000005f30                fdisk_dev_list_get
                0x0000000000006090                fdisk_dev_list_free
                0x0000000000006110                fdisk_dev_first
                0x0000000000006130                fdisk_dev_next
                0x0000000000006150                fdisk_dev_info_get_svcid
                0x0000000000006160                fdisk_dev_info_get_svcname
                0x00000000000061c0                fdisk_dev_info_capacity
                0x0000000000006210                fdisk_dev_open
                0x0000000000006560                fdisk_dev_close
                0x0000000000006690                fdisk_dev_erase
                0x0000000000006700                fdisk_dev_get_flags
                0x0000000000006760                fdisk_dev_get_svcname
                0x0000000000006790                fdisk_dev_capacity
                0x00000000000067c0                fdisk_label_get_info
                0x00000000000068b0                fdisk_label_create
                0x0000000000006b90                fdisk_label_destroy
                0x0000000000006d70                fdisk_part_first
                0x0000000000006d90                fdisk_part_next
                0x0000000000006db0                fdisk_part_get_info
                0x0000000000006df0                fdisk_part_get_max_avail
                0x0000000000006ea0                fdisk_part_get_tot_avail
                0x0000000000007230                fdisk_part_create
                0x0000000000007dd0                fdisk_part_destroy
                0x0000000000007ee0                fdisk_pspec_init
                0x0000000000007f00                fdisk_ltype_format
                0x0000000000007f40                fdisk_fstype_format
                0x0000000000007f80                fdisk_pkind_format
 .text.unlikely
                0x0000000000007fb7       0x1a ../../lib/fdisk/libfdisk.a(fdisk.o)
 *(.rodata .rodata.*)
 .rodata.str1.1
                0x0000000000007fd1      0x2ec fdisk.o
                                        0x31a (size before relaxing)
 *fill*         0x00000000000082bd        0x3 
 .rodata.str1.4
                0x00000000000082c0      0x25e fdisk.o
 *fill*         0x000000000000851e        0x2 
 .rodata        0x0000000000008520       0x20 fdisk.o
 .rodata.str1.1
                0x0000000000008540       0x7f ../../lib/clui/libclui.a(nchoice.o)
                                         0x91 (size before relaxing)
 .rodata.str1.1
                0x00000000000085bf       0x1b ../../lib/clui/libclui.a(tinput.o)
                                         0x23 (size before relaxing)
 *fill*         0x00000000000085da        0x2 
 .rodata        0x00000000000085dc      0x284 ../../lib/clui/libclui.a(tinput.o)
 .rodata.str1.1
                0x0000000000008860       0x43 ../../lib/fdisk/libfdisk.a(cap.o)
                                         0x4b (size before relaxing)
 *fill*         0x00000000000088a3       0x1d 
 .rodata        0x00000000000088c0       0x84 ../../lib/fdisk/libfdisk.a(cap.o)
 .rodata.str1.4
                0x0000000000008944       0x4c ../../lib/fdisk/libfdisk.a(fdisk.o)
                                         0x49 (size before relaxing)
 .rodata.str1.1
                0x0000000000008990       0x6d ../../lib/fdisk/libfdisk.a(fdisk.o)
                                         0x71 (size before relaxing)
 *fill*         0x00000000000089fd        0x3 
 .rodata        0x0000000000008a00       0x38 ../../lib/fdisk/libfdisk.a(fdisk.o)

.rel.plt        0x0000000000008a38      0x1d8
 *(.rel.plt)
 .rel.plt       0x0000000000008a38      0x1d8 /home/ayyuce/Desktop/HlnOS/HelenOS/uspace/lib/c/arch/ia32/src/entry.o

.rel.dyn        0x0000000000008c10       0x18
 *(.rel.*)
 .rel.got       0x0000000000008c10        0x0 /home/ayyuce/Desktop/HlnOS/HelenOS/uspace/lib/c/arch/ia32/src/entry.o
 .rel.bss       0x0000000000008c10       0x18 /home/ayyuce/Desktop/HlnOS/HelenOS/uspace/lib/c/arch/ia32/src/entry.o
 .rel.init      0x0000000000008c28        0x0 /home/ayyuce/Desktop/HlnOS/HelenOS/uspace/lib/c/arch/ia32/src/entry.o
 .rel.text.unlikely
                0x0000000000008c28        0x0 /home/ayyuce/Desktop/HlnOS/HelenOS/uspace/lib/c/arch/ia32/src/entry.o
 .rel.text.startup
                0x0000000000008c28        0x0 /home/ayyuce/Desktop/HlnOS/HelenOS/uspace/lib/c/arch/ia32/src/entry.o
 .rel.text      0x0000000000008c28        0x0 /home/ayyuce/Desktop/HlnOS/HelenOS/uspace/lib/c/arch/ia32/src/entry.o

.plt            0x0000000000008c30      0x3c0
 *(.plt)
 .plt           0x0000000000008c30      0x3c0 /home/ayyuce/Desktop/HlnOS/HelenOS/uspace/lib/c/arch/ia32/src/entry.o
                0x0000000000008c40                console_get_size
                0x0000000000008c50                putchar
                0x0000000000008c60                __main
                0x0000000000008c70                vol_destroy
                0x0000000000008c80                vbd_label_get_parts
                0x0000000000008c90                vbd_get_disks
                0x0000000000008ca0                wstr_length
                0x0000000000008cb0                printf
                0x0000000000008cc0                vbd_part_delete
                0x0000000000008cd0                memmove
                0x0000000000008ce0                vbd_create
                0x0000000000008cf0                console_get_pos
                0x0000000000008d00                str_width
                0x0000000000008d10                str_decode
                0x0000000000008d20                vol_create
                0x0000000000008d30                vbd_disk_info
                0x0000000000008d40                str_ndup
                0x0000000000008d50                qsort
                0x0000000000008d60                memcpy
                0x0000000000008d70                vol_part_empty
                0x0000000000008d80                malloc
                0x0000000000008d90                strtoul
                0x0000000000008da0                vbd_label_delete
                0x0000000000008db0                fflush
                0x0000000000008dc0                console_get_event
                0x0000000000008dd0                ilog10_u64
                0x0000000000008de0                __umoddi3
                0x0000000000008df0                __udivdi3
                0x0000000000008e00                console_init
                0x0000000000008e10                loc_service_get_name
                0x0000000000008e20                clipboard_put_str
                0x0000000000008e30                assert_abort
                0x0000000000008e40                calloc
                0x0000000000008e50                vbd_part_create
                0x0000000000008e60                str_lcasecmp
                0x0000000000008e70                vbd_part_get_info
                0x0000000000008e80                str_dup
                0x0000000000008e90                clipboard_get_str
                0x0000000000008ea0                vbd_destroy
                0x0000000000008eb0                realloc
                0x0000000000008ec0                str_cmp
                0x0000000000008ed0                vbd_label_create
                0x0000000000008ee0                console_set_style
                0x0000000000008ef0                vol_part_mkfs
                0x0000000000008f00                memset
                0x0000000000008f10                wstr_to_astr
                0x0000000000008f20                asprintf
                0x0000000000008f30                vol_part_add
                0x0000000000008f40                console_flush
                0x0000000000008f50                str_size
                0x0000000000008f60                str_length
                0x0000000000008f70                console_set_pos
                0x0000000000008f80                ipow10_u64
                0x0000000000008f90                str_to_wstr
                0x0000000000008fa0                vbd_suggest_ptype
                0x0000000000008fb0                __syscall_fast
                0x0000000000008fc0                str_lsize
                0x0000000000008fd0                vol_part_info
                0x0000000000008fe0                free

.dynsym         0x0000000000008ff0      0x410
 *(.dynsym)
 .dynsym        0x0000000000008ff0      0x410 /home/ayyuce/Desktop/HlnOS/HelenOS/uspace/lib/c/arch/ia32/src/entry.o

.dynstr         0x0000000000009400      0x300
 *(.dynstr)
 .dynstr        0x0000000000009400      0x300 /home/ayyuce/Desktop/HlnOS/HelenOS/uspace/lib/c/arch/ia32/src/entry.o

.hash           0x0000000000009700      0x1a0
 *(.hash)
 .hash          0x0000000000009700      0x1a0 /home/ayyuce/Desktop/HlnOS/HelenOS/uspace/lib/c/arch/ia32/src/entry.o

.interp         0x00000000000098a0       0x13
 *(.interp)
 .interp        0x00000000000098a0       0x13 /home/ayyuce/Desktop/HlnOS/HelenOS/uspace/lib/c/arch/ia32/src/entry.o
                0x000000000000a8b3                . = (. + 0x1000)

.dynamic        0x000000000000a8b4       0xa8
 *(.dynamic)
 .dynamic       0x000000000000a8b4       0xa8 /home/ayyuce/Desktop/HlnOS/HelenOS/uspace/lib/c/arch/ia32/src/entry.o
                0x000000000000a8b4                _DYNAMIC

.data           0x000000000000a95c        0x0
 *(.data)
 .data          0x000000000000a95c        0x0 /home/ayyuce/Desktop/HlnOS/HelenOS/uspace/lib/c/arch/ia32/src/entry.o
 .data          0x000000000000a95c        0x0 fdisk.o
 .data          0x000000000000a95c        0x0 ../../lib/clui/libclui.a(nchoice.o)
 .data          0x000000000000a95c        0x0 ../../lib/clui/libclui.a(tinput.o)
 .data          0x000000000000a95c        0x0 ../../lib/fdisk/libfdisk.a(cap.o)
 .data          0x000000000000a95c        0x0 ../../lib/fdisk/libfdisk.a(fdisk.o)

.data.rel
 *(.data.rel .data.rel.*)

.got            0x000000000000a95c        0x0
 *(.got)
 .got           0x000000000000a95c        0x0 /home/ayyuce/Desktop/HlnOS/HelenOS/uspace/lib/c/arch/ia32/src/entry.o

.got.plt        0x000000000000a95c       0xf8
 *(.got.plt)
 .got.plt       0x000000000000a95c       0xf8 /home/ayyuce/Desktop/HlnOS/HelenOS/uspace/lib/c/arch/ia32/src/entry.o
                0x000000000000a95c                _GLOBAL_OFFSET_TABLE_

.tdata
 *(.tdata)
 *(.gnu.linkonce.tb.*)

.tbss
 *(.tbss)

.bss            0x000000000000aa60       0x21
 *(.dynbss)
 *fill*         0x000000000000aa60        0x0 
 .dynbss        0x000000000000aa60       0x1c /home/ayyuce/Desktop/HlnOS/HelenOS/uspace/lib/c/arch/ia32/src/entry.o
                0x000000000000aa60                stdout
                0x000000000000aa70                stdin
                0x000000000000aa78                __syscall_fast_func
 *(COMMON)
 *(.bss)
 .bss           0x000000000000aa7c        0x0 /home/ayyuce/Desktop/HlnOS/HelenOS/uspace/lib/c/arch/ia32/src/entry.o
 .bss           0x000000000000aa7c        0x5 fdisk.o
 .bss           0x000000000000aa81        0x0 ../../lib/clui/libclui.a(nchoice.o)
 .bss           0x000000000000aa81        0x0 ../../lib/clui/libclui.a(tinput.o)
 .bss           0x000000000000aa81        0x0 ../../lib/fdisk/libfdisk.a(cap.o)
 .bss           0x000000000000aa81        0x0 ../../lib/fdisk/libfdisk.a(fdisk.o)

/DISCARD/
 *(*)
LOAD fdisk.o
LOAD ../../lib/clui/libclui.a
LOAD ../../lib/fdisk/libfdisk.a
LOAD ../../lib/c/libc.so.0
LOAD ../../lib/softint/libsoftint.so.0
OUTPUT(fdisk elf32-i386)
