
init:     file format elf32-i386


Disassembly of section .init:

000010b4 <__entry>:
    10b4:	66 8c d0             	mov    %ss,%ax
    10b7:	8e d8                	mov    %eax,%ds
    10b9:	8e c0                	mov    %eax,%es
    10bb:	8e e0                	mov    %eax,%fs
    10bd:	b8 01 00 00 00       	mov    $0x1,%eax
    10c2:	0f a2                	cpuid  
    10c4:	0f ba e2 0b          	bt     $0xb,%edx
    10c8:	73 0c                	jae    10d6 <__entry+0x22>
    10ca:	8d 05 98 7a 02 00    	lea    0x27a98,%eax
    10d0:	c7 00 7d 0a 02 00    	movl   $0x20a7d,(%eax)
    10d6:	6a 00                	push   $0x0
    10d8:	6a 00                	push   $0x0
    10da:	89 e5                	mov    %esp,%ebp
    10dc:	57                   	push   %edi
    10dd:	e8 0e 0a 00 00       	call   1af0 <__main>

Disassembly of section .text:

00001100 <mount_report>:
    1100:	55                   	push   %ebp
    1101:	89 e5                	mov    %esp,%ebp
    1103:	53                   	push   %ebx
    1104:	83 ec 14             	sub    $0x14,%esp
    1107:	89 c3                	mov    %eax,%ebx
    1109:	8b 45 0c             	mov    0xc(%ebp),%eax
    110c:	83 f8 fd             	cmp    $0xfffffffd,%eax
    110f:	0f 84 95 00 00 00    	je     11aa <mount_report+0xaa>
    1115:	7e 4c                	jle    1163 <mount_report+0x63>
    1117:	83 f8 ff             	cmp    $0xffffffff,%eax
    111a:	74 2c                	je     1148 <mount_report+0x48>
    111c:	85 c0                	test   %eax,%eax
    111e:	75 60                	jne    1180 <mount_report+0x80>
    1120:	83 7d 08 00          	cmpl   $0x0,0x8(%ebp)
    1124:	0f 84 98 00 00 00    	je     11c2 <mount_report+0xc2>
    112a:	50                   	push   %eax
    112b:	50                   	push   %eax
    112c:	ff 75 08             	pushl  0x8(%ebp)
    112f:	51                   	push   %ecx
    1130:	52                   	push   %edx
    1131:	53                   	push   %ebx
    1132:	68 f6 39 02 00       	push   $0x239f6
    1137:	68 6c 3d 02 00       	push   $0x23d6c
    113c:	e8 7f d6 00 00       	call   e7c0 <printf>
    1141:	83 c4 20             	add    $0x20,%esp
    1144:	b0 01                	mov    $0x1,%al
    1146:	eb 16                	jmp    115e <mount_report+0x5e>
    1148:	51                   	push   %ecx
    1149:	53                   	push   %ebx
    114a:	68 f6 39 02 00       	push   $0x239f6
    114f:	68 4b 3a 02 00       	push   $0x23a4b
    1154:	e8 67 d6 00 00       	call   e7c0 <printf>
    1159:	83 c4 10             	add    $0x10,%esp
    115c:	31 c0                	xor    %eax,%eax
    115e:	8b 5d fc             	mov    -0x4(%ebp),%ebx
    1161:	c9                   	leave  
    1162:	c3                   	ret    
    1163:	83 f8 f1             	cmp    $0xfffffff1,%eax
    1166:	75 18                	jne    1180 <mount_report+0x80>
    1168:	52                   	push   %edx
    1169:	53                   	push   %ebx
    116a:	68 f6 39 02 00       	push   $0x239f6
    116f:	68 16 3a 02 00       	push   $0x23a16
    1174:	e8 47 d6 00 00       	call   e7c0 <printf>
    1179:	83 c4 10             	add    $0x10,%esp
    117c:	31 c0                	xor    %eax,%eax
    117e:	eb de                	jmp    115e <mount_report+0x5e>
    1180:	83 ec 0c             	sub    $0xc,%esp
    1183:	89 55 f4             	mov    %edx,-0xc(%ebp)
    1186:	50                   	push   %eax
    1187:	e8 e4 70 00 00       	call   8270 <str_error>
    118c:	8b 55 f4             	mov    -0xc(%ebp),%edx
    118f:	89 04 24             	mov    %eax,(%esp)
    1192:	52                   	push   %edx
    1193:	53                   	push   %ebx
    1194:	68 f6 39 02 00       	push   $0x239f6
    1199:	68 90 3d 02 00       	push   $0x23d90
    119e:	e8 1d d6 00 00       	call   e7c0 <printf>
    11a3:	83 c4 20             	add    $0x20,%esp
    11a6:	31 c0                	xor    %eax,%eax
    11a8:	eb b4                	jmp    115e <mount_report+0x5e>
    11aa:	50                   	push   %eax
    11ab:	53                   	push   %ebx
    11ac:	68 f6 39 02 00       	push   $0x239f6
    11b1:	68 34 3a 02 00       	push   $0x23a34
    11b6:	e8 05 d6 00 00       	call   e7c0 <printf>
    11bb:	83 c4 10             	add    $0x10,%esp
    11be:	31 c0                	xor    %eax,%eax
    11c0:	eb 9c                	jmp    115e <mount_report+0x5e>
    11c2:	83 ec 0c             	sub    $0xc,%esp
    11c5:	51                   	push   %ecx
    11c6:	52                   	push   %edx
    11c7:	53                   	push   %ebx
    11c8:	68 f6 39 02 00       	push   $0x239f6
    11cd:	68 fb 39 02 00       	push   $0x239fb
    11d2:	e8 e9 d5 00 00       	call   e7c0 <printf>
    11d7:	83 c4 20             	add    $0x20,%esp
    11da:	b0 01                	mov    $0x1,%al
    11dc:	eb 80                	jmp    115e <mount_report+0x5e>
    11de:	66 90                	xchg   %ax,%ax

000011e0 <srv_startl>:
    11e0:	55                   	push   %ebp
    11e1:	89 e5                	mov    %esp,%ebp
    11e3:	57                   	push   %edi
    11e4:	56                   	push   %esi
    11e5:	53                   	push   %ebx
    11e6:	83 ec 74             	sub    $0x74,%esp
    11e9:	8d 45 a0             	lea    -0x60(%ebp),%eax
    11ec:	8b 75 08             	mov    0x8(%ebp),%esi
    11ef:	50                   	push   %eax
    11f0:	56                   	push   %esi
    11f1:	e8 5a d1 01 00       	call   1e350 <stat>
    11f6:	83 c4 10             	add    $0x10,%esp
    11f9:	85 c0                	test   %eax,%eax
    11fb:	0f 85 dc 00 00 00    	jne    12dd <srv_startl+0xfd>
    1201:	89 c3                	mov    %eax,%ebx
    1203:	50                   	push   %eax
    1204:	56                   	push   %esi
    1205:	68 f6 39 02 00       	push   $0x239f6
    120a:	68 7c 3a 02 00       	push   $0x23a7c
    120f:	e8 ac d5 00 00       	call   e7c0 <printf>
    1214:	8d 55 0c             	lea    0xc(%ebp),%edx
    1217:	83 c4 10             	add    $0x10,%esp
    121a:	89 d0                	mov    %edx,%eax
    121c:	8d 74 26 00          	lea    0x0(%esi,%eiz,1),%esi
    1220:	83 c0 04             	add    $0x4,%eax
    1223:	8b 78 fc             	mov    -0x4(%eax),%edi
    1226:	43                   	inc    %ebx
    1227:	85 ff                	test   %edi,%edi
    1229:	75 f5                	jne    1220 <srv_startl+0x40>
    122b:	83 ec 0c             	sub    $0xc,%esp
    122e:	8d 45 98             	lea    -0x68(%ebp),%eax
    1231:	8d 7d c0             	lea    -0x40(%ebp),%edi
    1234:	52                   	push   %edx
    1235:	53                   	push   %ebx
    1236:	56                   	push   %esi
    1237:	57                   	push   %edi
    1238:	50                   	push   %eax
    1239:	e8 d2 a4 00 00       	call   b710 <task_spawn>
    123e:	83 c4 20             	add    $0x20,%esp
    1241:	89 c3                	mov    %eax,%ebx
    1243:	85 c0                	test   %eax,%eax
    1245:	75 58                	jne    129f <srv_startl+0xbf>
    1247:	8b 45 9c             	mov    -0x64(%ebp),%eax
    124a:	0b 45 98             	or     -0x68(%ebp),%eax
    124d:	0f 84 a3 00 00 00    	je     12f6 <srv_startl+0x116>
    1253:	8d 45 94             	lea    -0x6c(%ebp),%eax
    1256:	52                   	push   %edx
    1257:	50                   	push   %eax
    1258:	8d 45 90             	lea    -0x70(%ebp),%eax
    125b:	50                   	push   %eax
    125c:	57                   	push   %edi
    125d:	e8 8e a7 00 00       	call   b9f0 <task_wait>
    1262:	83 c4 10             	add    $0x10,%esp
    1265:	89 c3                	mov    %eax,%ebx
    1267:	85 c0                	test   %eax,%eax
    1269:	75 53                	jne    12be <srv_startl+0xde>
    126b:	83 7d 90 00          	cmpl   $0x0,-0x70(%ebp)
    126f:	0f 85 9f 00 00 00    	jne    1314 <srv_startl+0x134>
    1275:	8b 5d 94             	mov    -0x6c(%ebp),%ebx
    1278:	85 db                	test   %ebx,%ebx
    127a:	75 0a                	jne    1286 <srv_startl+0xa6>
    127c:	8d 65 f4             	lea    -0xc(%ebp),%esp
    127f:	89 d8                	mov    %ebx,%eax
    1281:	5b                   	pop    %ebx
    1282:	5e                   	pop    %esi
    1283:	5f                   	pop    %edi
    1284:	5d                   	pop    %ebp
    1285:	c3                   	ret    
    1286:	53                   	push   %ebx
    1287:	56                   	push   %esi
    1288:	68 f6 39 02 00       	push   $0x239f6
    128d:	68 38 3e 02 00       	push   $0x23e38
    1292:	e8 29 d5 00 00       	call   e7c0 <printf>
    1297:	83 c4 10             	add    $0x10,%esp
    129a:	8b 5d 94             	mov    -0x6c(%ebp),%ebx
    129d:	eb dd                	jmp    127c <srv_startl+0x9c>
    129f:	83 ec 0c             	sub    $0xc,%esp
    12a2:	50                   	push   %eax
    12a3:	e8 c8 6f 00 00       	call   8270 <str_error>
    12a8:	50                   	push   %eax
    12a9:	56                   	push   %esi
    12aa:	68 f6 39 02 00       	push   $0x239f6
    12af:	68 8d 3a 02 00       	push   $0x23a8d
    12b4:	e8 07 d5 00 00       	call   e7c0 <printf>
    12b9:	83 c4 20             	add    $0x20,%esp
    12bc:	eb be                	jmp    127c <srv_startl+0x9c>
    12be:	83 ec 0c             	sub    $0xc,%esp
    12c1:	50                   	push   %eax
    12c2:	e8 a9 6f 00 00       	call   8270 <str_error>
    12c7:	50                   	push   %eax
    12c8:	56                   	push   %esi
    12c9:	68 f6 39 02 00       	push   $0x239f6
    12ce:	68 dc 3d 02 00       	push   $0x23ddc
    12d3:	e8 e8 d4 00 00       	call   e7c0 <printf>
    12d8:	83 c4 20             	add    $0x20,%esp
    12db:	eb 9f                	jmp    127c <srv_startl+0x9c>
    12dd:	50                   	push   %eax
    12de:	56                   	push   %esi
    12df:	68 f6 39 02 00       	push   $0x239f6
    12e4:	68 65 3a 02 00       	push   $0x23a65
    12e9:	83 cb ff             	or     $0xffffffff,%ebx
    12ec:	e8 cf d4 00 00       	call   e7c0 <printf>
    12f1:	83 c4 10             	add    $0x10,%esp
    12f4:	eb 86                	jmp    127c <srv_startl+0x9c>
    12f6:	51                   	push   %ecx
    12f7:	56                   	push   %esi
    12f8:	68 f6 39 02 00       	push   $0x239f6
    12fd:	68 b0 3d 02 00       	push   $0x23db0
    1302:	bb f2 ff ff ff       	mov    $0xfffffff2,%ebx
    1307:	e8 b4 d4 00 00       	call   e7c0 <printf>
    130c:	83 c4 10             	add    $0x10,%esp
    130f:	e9 68 ff ff ff       	jmp    127c <srv_startl+0x9c>
    1314:	50                   	push   %eax
    1315:	56                   	push   %esi
    1316:	68 f6 39 02 00       	push   $0x239f6
    131b:	68 fc 3d 02 00       	push   $0x23dfc
    1320:	bb f2 ff ff ff       	mov    $0xfffffff2,%ebx
    1325:	e8 96 d4 00 00       	call   e7c0 <printf>
    132a:	83 c4 10             	add    $0x10,%esp
    132d:	e9 4a ff ff ff       	jmp    127c <srv_startl+0x9c>
    1332:	8d b4 26 00 00 00 00 	lea    0x0(%esi,%eiz,1),%esi
    1339:	8d bc 27 00 00 00 00 	lea    0x0(%edi,%eiz,1),%edi

00001340 <gui_start.constprop.2>:
    1340:	55                   	push   %ebp
    1341:	89 e5                	mov    %esp,%ebp
    1343:	57                   	push   %edi
    1344:	56                   	push   %esi
    1345:	53                   	push   %ebx
    1346:	81 ec 84 00 00 00    	sub    $0x84,%esp
    134c:	8d 75 b6             	lea    -0x4a(%ebp),%esi
    134f:	89 c3                	mov    %eax,%ebx
    1351:	68 a9 3a 02 00       	push   $0x23aa9
    1356:	68 b1 3a 02 00       	push   $0x23ab1
    135b:	68 b4 3a 02 00       	push   $0x23ab4
    1360:	68 b9 3a 02 00       	push   $0x23ab9
    1365:	6a 32                	push   $0x32
    1367:	56                   	push   %esi
    1368:	e8 13 d6 00 00       	call   e980 <snprintf>
    136d:	83 c4 20             	add    $0x20,%esp
    1370:	56                   	push   %esi
    1371:	53                   	push   %ebx
    1372:	68 f6 39 02 00       	push   $0x239f6
    1377:	68 c0 3a 02 00       	push   $0x23ac0
    137c:	e8 3f d4 00 00       	call   e7c0 <printf>
    1381:	5f                   	pop    %edi
    1382:	8d 7d 8c             	lea    -0x74(%ebp),%edi
    1385:	58                   	pop    %eax
    1386:	8d 45 80             	lea    -0x80(%ebp),%eax
    1389:	6a 00                	push   $0x0
    138b:	56                   	push   %esi
    138c:	53                   	push   %ebx
    138d:	53                   	push   %ebx
    138e:	57                   	push   %edi
    138f:	50                   	push   %eax
    1390:	e8 6b a2 00 00       	call   b600 <task_spawnl>
    1395:	83 c4 20             	add    $0x20,%esp
    1398:	85 c0                	test   %eax,%eax
    139a:	75 58                	jne    13f4 <gui_start.constprop.2+0xb4>
    139c:	8d 85 7c ff ff ff    	lea    -0x84(%ebp),%eax
    13a2:	56                   	push   %esi
    13a3:	50                   	push   %eax
    13a4:	8d 85 78 ff ff ff    	lea    -0x88(%ebp),%eax
    13aa:	50                   	push   %eax
    13ab:	57                   	push   %edi
    13ac:	e8 3f a6 00 00       	call   b9f0 <task_wait>
    13b1:	83 c4 10             	add    $0x10,%esp
    13b4:	85 c0                	test   %eax,%eax
    13b6:	75 1a                	jne    13d2 <gui_start.constprop.2+0x92>
    13b8:	8b 8d 78 ff ff ff    	mov    -0x88(%ebp),%ecx
    13be:	8b 95 7c ff ff ff    	mov    -0x84(%ebp),%edx
    13c4:	85 c9                	test   %ecx,%ecx
    13c6:	75 0a                	jne    13d2 <gui_start.constprop.2+0x92>
    13c8:	8d 65 f4             	lea    -0xc(%ebp),%esp
    13cb:	89 d0                	mov    %edx,%eax
    13cd:	5b                   	pop    %ebx
    13ce:	5e                   	pop    %esi
    13cf:	5f                   	pop    %edi
    13d0:	5d                   	pop    %ebp
    13d1:	c3                   	ret    
    13d2:	83 ec 0c             	sub    $0xc,%esp
    13d5:	50                   	push   %eax
    13d6:	e8 95 6e 00 00       	call   8270 <str_error>
    13db:	50                   	push   %eax
    13dc:	53                   	push   %ebx
    13dd:	68 f6 39 02 00       	push   $0x239f6
    13e2:	68 88 3e 02 00       	push   $0x23e88
    13e7:	e8 d4 d3 00 00       	call   e7c0 <printf>
    13ec:	83 c4 20             	add    $0x20,%esp
    13ef:	83 ca ff             	or     $0xffffffff,%edx
    13f2:	eb d4                	jmp    13c8 <gui_start.constprop.2+0x88>
    13f4:	83 ec 0c             	sub    $0xc,%esp
    13f7:	50                   	push   %eax
    13f8:	e8 73 6e 00 00       	call   8270 <str_error>
    13fd:	89 04 24             	mov    %eax,(%esp)
    1400:	56                   	push   %esi
    1401:	53                   	push   %ebx
    1402:	68 f6 39 02 00       	push   $0x239f6
    1407:	68 68 3e 02 00       	push   $0x23e68
    140c:	e8 af d3 00 00       	call   e7c0 <printf>
    1411:	83 c4 20             	add    $0x20,%esp
    1414:	83 ca ff             	or     $0xffffffff,%edx
    1417:	eb af                	jmp    13c8 <gui_start.constprop.2+0x88>
    1419:	8d b4 26 00 00 00 00 	lea    0x0(%esi,%eiz,1),%esi

00001420 <getterm.constprop.1>:
    1420:	55                   	push   %ebp
    1421:	84 d2                	test   %dl,%dl
    1423:	89 e5                	mov    %esp,%ebp
    1425:	53                   	push   %ebx
    1426:	89 c3                	mov    %eax,%ebx
    1428:	51                   	push   %ecx
    1429:	74 63                	je     148e <getterm.constprop.1+0x6e>
    142b:	50                   	push   %eax
    142c:	50                   	push   %eax
    142d:	68 d4 3a 02 00       	push   $0x23ad4
    1432:	68 de 3a 02 00       	push   $0x23ade
    1437:	53                   	push   %ebx
    1438:	68 e3 3a 02 00       	push   $0x23ae3
    143d:	68 f6 39 02 00       	push   $0x239f6
    1442:	68 b4 3e 02 00       	push   $0x23eb4
    1447:	e8 74 d3 00 00       	call   e7c0 <printf>
    144c:	83 c4 1c             	add    $0x1c,%esp
    144f:	6a 00                	push   $0x0
    1451:	68 d4 3a 02 00       	push   $0x23ad4
    1456:	68 f0 3a 02 00       	push   $0x23af0
    145b:	68 f3 3a 02 00       	push   $0x23af3
    1460:	68 fa 3a 02 00       	push   $0x23afa
    1465:	68 de 3a 02 00       	push   $0x23ade
    146a:	53                   	push   %ebx
    146b:	68 e3 3a 02 00       	push   $0x23ae3
    1470:	68 e3 3a 02 00       	push   $0x23ae3
    1475:	6a 00                	push   $0x0
    1477:	6a 00                	push   $0x0
    1479:	e8 82 a1 00 00       	call   b600 <task_spawnl>
    147e:	83 c4 30             	add    $0x30,%esp
    1481:	85 c0                	test   %eax,%eax
    1483:	0f 85 80 00 00 00    	jne    1509 <getterm.constprop.1+0xe9>
    1489:	8b 5d fc             	mov    -0x4(%ebp),%ebx
    148c:	c9                   	leave  
    148d:	c3                   	ret    
    148e:	52                   	push   %edx
    148f:	52                   	push   %edx
    1490:	68 d4 3a 02 00       	push   $0x23ad4
    1495:	68 de 3a 02 00       	push   $0x23ade
    149a:	50                   	push   %eax
    149b:	68 e3 3a 02 00       	push   $0x23ae3
    14a0:	68 f6 39 02 00       	push   $0x239f6
    14a5:	68 10 3f 02 00       	push   $0x23f10
    14aa:	e8 11 d3 00 00       	call   e7c0 <printf>
    14af:	83 c4 18             	add    $0x18,%esp
    14b2:	6a 00                	push   $0x0
    14b4:	68 d4 3a 02 00       	push   $0x23ad4
    14b9:	68 f0 3a 02 00       	push   $0x23af0
    14be:	68 f3 3a 02 00       	push   $0x23af3
    14c3:	68 de 3a 02 00       	push   $0x23ade
    14c8:	53                   	push   %ebx
    14c9:	68 e3 3a 02 00       	push   $0x23ae3
    14ce:	68 e3 3a 02 00       	push   $0x23ae3
    14d3:	6a 00                	push   $0x0
    14d5:	6a 00                	push   $0x0
    14d7:	e8 24 a1 00 00       	call   b600 <task_spawnl>
    14dc:	83 c4 30             	add    $0x30,%esp
    14df:	85 c0                	test   %eax,%eax
    14e1:	74 a6                	je     1489 <getterm.constprop.1+0x69>
    14e3:	50                   	push   %eax
    14e4:	50                   	push   %eax
    14e5:	68 d4 3a 02 00       	push   $0x23ad4
    14ea:	68 de 3a 02 00       	push   $0x23ade
    14ef:	53                   	push   %ebx
    14f0:	68 e3 3a 02 00       	push   $0x23ae3
    14f5:	68 f6 39 02 00       	push   $0x239f6
    14fa:	68 34 3f 02 00       	push   $0x23f34
    14ff:	e8 bc d2 00 00       	call   e7c0 <printf>
    1504:	83 c4 20             	add    $0x20,%esp
    1507:	eb 80                	jmp    1489 <getterm.constprop.1+0x69>
    1509:	51                   	push   %ecx
    150a:	51                   	push   %ecx
    150b:	68 d4 3a 02 00       	push   $0x23ad4
    1510:	68 de 3a 02 00       	push   $0x23ade
    1515:	53                   	push   %ebx
    1516:	68 e3 3a 02 00       	push   $0x23ae3
    151b:	68 f6 39 02 00       	push   $0x239f6
    1520:	68 e0 3e 02 00       	push   $0x23ee0
    1525:	e8 96 d2 00 00       	call   e7c0 <printf>
    152a:	83 c4 20             	add    $0x20,%esp
    152d:	e9 57 ff ff ff       	jmp    1489 <getterm.constprop.1+0x69>
    1532:	66 90                	xchg   %ax,%ax
    1534:	66 90                	xchg   %ax,%ax
    1536:	66 90                	xchg   %ax,%ax
    1538:	66 90                	xchg   %ax,%ax
    153a:	66 90                	xchg   %ax,%ax
    153c:	66 90                	xchg   %ax,%ax
    153e:	66 90                	xchg   %ax,%ax

00001540 <main>:
    1540:	8d 4c 24 04          	lea    0x4(%esp),%ecx
    1544:	83 e4 f0             	and    $0xfffffff0,%esp
    1547:	ff 71 fc             	pushl  -0x4(%ecx)
    154a:	55                   	push   %ebp
    154b:	89 e5                	mov    %esp,%ebp
    154d:	53                   	push   %ebx
    154e:	51                   	push   %ecx
    154f:	83 ec 18             	sub    $0x18,%esp
    1552:	68 f6 39 02 00       	push   $0x239f6
    1557:	68 08 3b 02 00       	push   $0x23b08
    155c:	e8 5f d2 00 00       	call   e7c0 <printf>
    1561:	58                   	pop    %eax
    1562:	5a                   	pop    %edx
    1563:	68 4d 3b 02 00       	push   $0x23b4d
    1568:	68 1a 3b 02 00       	push   $0x23b1a
    156d:	e8 1e 33 00 00       	call   4890 <str_cmp>
    1572:	83 c4 10             	add    $0x10,%esp
    1575:	ba 00 3b 02 00       	mov    $0x23b00,%edx
    157a:	85 c0                	test   %eax,%eax
    157c:	74 05                	je     1583 <main+0x43>
    157e:	ba d7 59 02 00       	mov    $0x259d7,%edx
    1583:	50                   	push   %eax
    1584:	50                   	push   %eax
    1585:	6a 00                	push   $0x0
    1587:	6a 01                	push   $0x1
    1589:	52                   	push   %edx
    158a:	68 21 3b 02 00       	push   $0x23b21
    158f:	68 9b 60 02 00       	push   $0x2609b
    1594:	68 1a 3b 02 00       	push   $0x23b1a
    1599:	e8 d2 c1 01 00       	call   1d770 <vfs_mount>
    159e:	83 c4 18             	add    $0x18,%esp
    15a1:	b9 1a 3b 02 00       	mov    $0x23b1a,%ecx
    15a6:	50                   	push   %eax
    15a7:	ba 9b 60 02 00       	mov    $0x2609b,%edx
    15ac:	b8 2b 3b 02 00       	mov    $0x23b2b,%eax
    15b1:	68 21 3b 02 00       	push   $0x23b21
    15b6:	e8 45 fb ff ff       	call   1100 <mount_report>
    15bb:	83 c4 10             	add    $0x10,%esp
    15be:	84 c0                	test   %al,%al
    15c0:	0f 84 8e 03 00 00    	je     1954 <main+0x414>
    15c6:	53                   	push   %ebx
    15c7:	53                   	push   %ebx
    15c8:	68 4d 3b 02 00       	push   $0x23b4d
    15cd:	68 1a 3b 02 00       	push   $0x23b1a
    15d2:	e8 b9 32 00 00       	call   4890 <str_cmp>
    15d7:	83 c4 10             	add    $0x10,%esp
    15da:	85 c0                	test   %eax,%eax
    15dc:	0f 85 90 03 00 00    	jne    1972 <main+0x432>
    15e2:	50                   	push   %eax
    15e3:	6a 00                	push   $0x0
    15e5:	68 53 3b 02 00       	push   $0x23b53
    15ea:	68 53 3b 02 00       	push   $0x23b53
    15ef:	e8 ec fb ff ff       	call   11e0 <srv_startl>
    15f4:	83 c4 0c             	add    $0xc,%esp
    15f7:	6a 00                	push   $0x0
    15f9:	68 5d 3b 02 00       	push   $0x23b5d
    15fe:	68 5d 3b 02 00       	push   $0x23b5d
    1603:	e8 d8 fb ff ff       	call   11e0 <srv_startl>
    1608:	83 c4 0c             	add    $0xc,%esp
    160b:	6a 00                	push   $0x0
    160d:	68 68 3b 02 00       	push   $0x23b68
    1612:	68 68 3b 02 00       	push   $0x23b68
    1617:	e8 c4 fb ff ff       	call   11e0 <srv_startl>
    161c:	58                   	pop    %eax
    161d:	5a                   	pop    %edx
    161e:	6a 00                	push   $0x0
    1620:	6a 01                	push   $0x1
    1622:	68 d7 59 02 00       	push   $0x259d7
    1627:	68 d7 59 02 00       	push   $0x259d7
    162c:	68 de 3a 02 00       	push   $0x23ade
    1631:	68 62 3b 02 00       	push   $0x23b62
    1636:	e8 35 c1 01 00       	call   1d770 <vfs_mount>
    163b:	83 c4 18             	add    $0x18,%esp
    163e:	b9 62 3b 02 00       	mov    $0x23b62,%ecx
    1643:	50                   	push   %eax
    1644:	ba de 3a 02 00       	mov    $0x23ade,%edx
    1649:	b8 75 3b 02 00       	mov    $0x23b75,%eax
    164e:	6a 00                	push   $0x0
    1650:	e8 ab fa ff ff       	call   1100 <mount_report>
    1655:	83 c4 10             	add    $0x10,%esp
    1658:	84 c0                	test   %al,%al
    165a:	75 25                	jne    1681 <main+0x141>
    165c:	50                   	push   %eax
    165d:	50                   	push   %eax
    165e:	68 f6 39 02 00       	push   $0x239f6
    1663:	68 3b 3b 02 00       	push   $0x23b3b
    1668:	bb 02 00 00 00       	mov    $0x2,%ebx
    166d:	e8 4e d1 00 00       	call   e7c0 <printf>
    1672:	83 c4 10             	add    $0x10,%esp
    1675:	8d 65 f8             	lea    -0x8(%ebp),%esp
    1678:	89 d8                	mov    %ebx,%eax
    167a:	59                   	pop    %ecx
    167b:	5b                   	pop    %ebx
    167c:	5d                   	pop    %ebp
    167d:	8d 61 fc             	lea    -0x4(%ecx),%esp
    1680:	c3                   	ret    
    1681:	53                   	push   %ebx
    1682:	53                   	push   %ebx
    1683:	6a 00                	push   $0x0
    1685:	6a 00                	push   $0x0
    1687:	68 d7 59 02 00       	push   $0x259d7
    168c:	68 d7 59 02 00       	push   $0x259d7
    1691:	68 91 3b 02 00       	push   $0x23b91
    1696:	68 4d 3b 02 00       	push   $0x23b4d
    169b:	e8 d0 c0 01 00       	call   1d770 <vfs_mount>
    16a0:	83 c4 18             	add    $0x18,%esp
    16a3:	b9 4d 3b 02 00       	mov    $0x23b4d,%ecx
    16a8:	ba 91 3b 02 00       	mov    $0x23b91,%edx
    16ad:	50                   	push   %eax
    16ae:	b8 96 3b 02 00       	mov    $0x23b96,%eax
    16b3:	6a 00                	push   $0x0
    16b5:	e8 46 fa ff ff       	call   1100 <mount_report>
    16ba:	83 c4 0c             	add    $0xc,%esp
    16bd:	6a 00                	push   $0x0
    16bf:	68 ab 3b 02 00       	push   $0x23bab
    16c4:	68 ab 3b 02 00       	push   $0x23bab
    16c9:	e8 12 fb ff ff       	call   11e0 <srv_startl>
    16ce:	83 c4 0c             	add    $0xc,%esp
    16d1:	6a 00                	push   $0x0
    16d3:	68 b7 3b 02 00       	push   $0x23bb7
    16d8:	68 b7 3b 02 00       	push   $0x23bb7
    16dd:	e8 fe fa ff ff       	call   11e0 <srv_startl>
    16e2:	83 c4 0c             	add    $0xc,%esp
    16e5:	6a 00                	push   $0x0
    16e7:	68 c1 3b 02 00       	push   $0x23bc1
    16ec:	68 c1 3b 02 00       	push   $0x23bc1
    16f1:	e8 ea fa ff ff       	call   11e0 <srv_startl>
    16f6:	83 c4 0c             	add    $0xc,%esp
    16f9:	6a 00                	push   $0x0
    16fb:	68 cc 3b 02 00       	push   $0x23bcc
    1700:	68 cc 3b 02 00       	push   $0x23bcc
    1705:	e8 d6 fa ff ff       	call   11e0 <srv_startl>
    170a:	83 c4 0c             	add    $0xc,%esp
    170d:	6a 00                	push   $0x0
    170f:	68 d8 3b 02 00       	push   $0x23bd8
    1714:	68 d8 3b 02 00       	push   $0x23bd8
    1719:	e8 c2 fa ff ff       	call   11e0 <srv_startl>
    171e:	83 c4 0c             	add    $0xc,%esp
    1721:	6a 00                	push   $0x0
    1723:	68 e2 3b 02 00       	push   $0x23be2
    1728:	68 e2 3b 02 00       	push   $0x23be2
    172d:	e8 ae fa ff ff       	call   11e0 <srv_startl>
    1732:	83 c4 0c             	add    $0xc,%esp
    1735:	6a 00                	push   $0x0
    1737:	68 f0 3b 02 00       	push   $0x23bf0
    173c:	68 f0 3b 02 00       	push   $0x23bf0
    1741:	e8 9a fa ff ff       	call   11e0 <srv_startl>
    1746:	83 c4 0c             	add    $0xc,%esp
    1749:	6a 00                	push   $0x0
    174b:	68 02 3c 02 00       	push   $0x23c02
    1750:	68 02 3c 02 00       	push   $0x23c02
    1755:	e8 86 fa ff ff       	call   11e0 <srv_startl>
    175a:	83 c4 0c             	add    $0xc,%esp
    175d:	6a 00                	push   $0x0
    175f:	68 12 3c 02 00       	push   $0x23c12
    1764:	68 12 3c 02 00       	push   $0x23c12
    1769:	e8 72 fa ff ff       	call   11e0 <srv_startl>
    176e:	83 c4 0c             	add    $0xc,%esp
    1771:	6a 00                	push   $0x0
    1773:	68 1b 3c 02 00       	push   $0x23c1b
    1778:	68 1b 3c 02 00       	push   $0x23c1b
    177d:	e8 5e fa ff ff       	call   11e0 <srv_startl>
    1782:	83 c4 0c             	add    $0xc,%esp
    1785:	6a 00                	push   $0x0
    1787:	68 27 3c 02 00       	push   $0x23c27
    178c:	68 27 3c 02 00       	push   $0x23c27
    1791:	e8 4a fa ff ff       	call   11e0 <srv_startl>
    1796:	83 c4 0c             	add    $0xc,%esp
    1799:	6a 00                	push   $0x0
    179b:	68 33 3c 02 00       	push   $0x23c33
    17a0:	68 33 3c 02 00       	push   $0x23c33
    17a5:	e8 36 fa ff ff       	call   11e0 <srv_startl>
    17aa:	83 c4 0c             	add    $0xc,%esp
    17ad:	6a 00                	push   $0x0
    17af:	68 3e 3c 02 00       	push   $0x23c3e
    17b4:	68 3e 3c 02 00       	push   $0x23c3e
    17b9:	e8 22 fa ff ff       	call   11e0 <srv_startl>
    17be:	83 c4 0c             	add    $0xc,%esp
    17c1:	6a 00                	push   $0x0
    17c3:	68 4b 3c 02 00       	push   $0x23c4b
    17c8:	68 4b 3c 02 00       	push   $0x23c4b
    17cd:	e8 0e fa ff ff       	call   11e0 <srv_startl>
    17d2:	83 c4 0c             	add    $0xc,%esp
    17d5:	6a 00                	push   $0x0
    17d7:	68 54 3c 02 00       	push   $0x23c54
    17dc:	68 54 3c 02 00       	push   $0x23c54
    17e1:	e8 fa f9 ff ff       	call   11e0 <srv_startl>
    17e6:	83 c4 0c             	add    $0xc,%esp
    17e9:	6a 00                	push   $0x0
    17eb:	68 5d 3c 02 00       	push   $0x23c5d
    17f0:	68 5d 3c 02 00       	push   $0x23c5d
    17f5:	e8 e6 f9 ff ff       	call   11e0 <srv_startl>
    17fa:	83 c4 0c             	add    $0xc,%esp
    17fd:	6a 00                	push   $0x0
    17ff:	68 6a 3c 02 00       	push   $0x23c6a
    1804:	68 6a 3c 02 00       	push   $0x23c6a
    1809:	e8 d2 f9 ff ff       	call   11e0 <srv_startl>
    180e:	83 c4 0c             	add    $0xc,%esp
    1811:	6a 00                	push   $0x0
    1813:	68 74 3c 02 00       	push   $0x23c74
    1818:	68 74 3c 02 00       	push   $0x23c74
    181d:	e8 be f9 ff ff       	call   11e0 <srv_startl>
    1822:	83 c4 0c             	add    $0xc,%esp
    1825:	6a 00                	push   $0x0
    1827:	68 82 3c 02 00       	push   $0x23c82
    182c:	68 82 3c 02 00       	push   $0x23c82
    1831:	e8 aa f9 ff ff       	call   11e0 <srv_startl>
    1836:	83 c4 0c             	add    $0xc,%esp
    1839:	6a 00                	push   $0x0
    183b:	68 91 3c 02 00       	push   $0x23c91
    1840:	68 91 3c 02 00       	push   $0x23c91
    1845:	e8 96 f9 ff ff       	call   11e0 <srv_startl>
    184a:	6a 00                	push   $0x0
    184c:	68 9e 3c 02 00       	push   $0x23c9e
    1851:	68 a8 3c 02 00       	push   $0x23ca8
    1856:	68 a8 3c 02 00       	push   $0x23ca8
    185b:	e8 80 f9 ff ff       	call   11e0 <srv_startl>
    1860:	83 c4 20             	add    $0x20,%esp
    1863:	6a 00                	push   $0x0
    1865:	68 b3 3c 02 00       	push   $0x23cb3
    186a:	68 be 3c 02 00       	push   $0x23cbe
    186f:	68 be 3c 02 00       	push   $0x23cbe
    1874:	e8 67 f9 ff ff       	call   11e0 <srv_startl>
    1879:	83 c4 0c             	add    $0xc,%esp
    187c:	6a 00                	push   $0x0
    187e:	68 ca 3c 02 00       	push   $0x23cca
    1883:	68 ca 3c 02 00       	push   $0x23cca
    1888:	e8 53 f9 ff ff       	call   11e0 <srv_startl>
    188d:	c7 04 24 2c 3d 02 00 	movl   $0x23d2c,(%esp)
    1894:	e8 d7 03 00 00       	call   1c70 <config_key_exists>
    1899:	83 c4 10             	add    $0x10,%esp
    189c:	84 c0                	test   %al,%al
    189e:	0f 84 e8 00 00 00    	je     198c <main+0x44c>
    18a4:	8d 5d f4             	lea    -0xc(%ebp),%ebx
    18a7:	52                   	push   %edx
    18a8:	6a 01                	push   $0x1
    18aa:	53                   	push   %ebx
    18ab:	68 9e 3c 02 00       	push   $0x23c9e
    18b0:	e8 9b 10 00 00       	call   2950 <loc_service_get_id>
    18b5:	83 c4 10             	add    $0x10,%esp
    18b8:	85 c0                	test   %eax,%eax
    18ba:	0f 85 30 01 00 00    	jne    19f0 <main+0x4b0>
    18c0:	50                   	push   %eax
    18c1:	6a 01                	push   $0x1
    18c3:	53                   	push   %ebx
    18c4:	68 b3 3c 02 00       	push   $0x23cb3
    18c9:	e8 82 10 00 00       	call   2950 <loc_service_get_id>
    18ce:	83 c4 10             	add    $0x10,%esp
    18d1:	89 c3                	mov    %eax,%ebx
    18d3:	85 c0                	test   %eax,%eax
    18d5:	0f 85 63 01 00 00    	jne    1a3e <main+0x4fe>
    18db:	83 ec 0c             	sub    $0xc,%esp
    18de:	6a 00                	push   $0x0
    18e0:	68 b3 3c 02 00       	push   $0x23cb3
    18e5:	68 9e 3c 02 00       	push   $0x23c9e
    18ea:	68 27 3d 02 00       	push   $0x23d27
    18ef:	68 27 3d 02 00       	push   $0x23d27
    18f4:	e8 e7 f8 ff ff       	call   11e0 <srv_startl>
    18f9:	83 c4 20             	add    $0x20,%esp
    18fc:	85 c0                	test   %eax,%eax
    18fe:	0f 85 71 fd ff ff    	jne    1675 <main+0x135>
    1904:	ba 01 00 00 00       	mov    $0x1,%edx
    1909:	b8 34 3d 02 00       	mov    $0x23d34,%eax
    190e:	e8 0d fb ff ff       	call   1420 <getterm.constprop.1>
    1913:	31 d2                	xor    %edx,%edx
    1915:	b8 3d 3d 02 00       	mov    $0x23d3d,%eax
    191a:	e8 01 fb ff ff       	call   1420 <getterm.constprop.1>
    191f:	31 d2                	xor    %edx,%edx
    1921:	b8 46 3d 02 00       	mov    $0x23d46,%eax
    1926:	e8 f5 fa ff ff       	call   1420 <getterm.constprop.1>
    192b:	31 d2                	xor    %edx,%edx
    192d:	b8 4f 3d 02 00       	mov    $0x23d4f,%eax
    1932:	e8 e9 fa ff ff       	call   1420 <getterm.constprop.1>
    1937:	31 d2                	xor    %edx,%edx
    1939:	b8 58 3d 02 00       	mov    $0x23d58,%eax
    193e:	e8 dd fa ff ff       	call   1420 <getterm.constprop.1>
    1943:	31 d2                	xor    %edx,%edx
    1945:	b8 61 3d 02 00       	mov    $0x23d61,%eax
    194a:	e8 d1 fa ff ff       	call   1420 <getterm.constprop.1>
    194f:	e9 21 fd ff ff       	jmp    1675 <main+0x135>
    1954:	50                   	push   %eax
    1955:	50                   	push   %eax
    1956:	68 f6 39 02 00       	push   $0x239f6
    195b:	68 3b 3b 02 00       	push   $0x23b3b
    1960:	bb 01 00 00 00       	mov    $0x1,%ebx
    1965:	e8 56 ce 00 00       	call   e7c0 <printf>
    196a:	83 c4 10             	add    $0x10,%esp
    196d:	e9 03 fd ff ff       	jmp    1675 <main+0x135>
    1972:	51                   	push   %ecx
    1973:	6a 00                	push   $0x0
    1975:	68 48 3b 02 00       	push   $0x23b48
    197a:	68 48 3b 02 00       	push   $0x23b48
    197f:	e8 5c f8 ff ff       	call   11e0 <srv_startl>
    1984:	83 c4 10             	add    $0x10,%esp
    1987:	e9 56 fc ff ff       	jmp    15e2 <main+0xa2>
    198c:	8d 5d f4             	lea    -0xc(%ebp),%ebx
    198f:	51                   	push   %ecx
    1990:	6a 01                	push   $0x1
    1992:	53                   	push   %ebx
    1993:	68 9e 3c 02 00       	push   $0x23c9e
    1998:	e8 b3 0f 00 00       	call   2950 <loc_service_get_id>
    199d:	83 c4 10             	add    $0x10,%esp
    19a0:	85 c0                	test   %eax,%eax
    19a2:	75 74                	jne    1a18 <main+0x4d8>
    19a4:	83 ec 0c             	sub    $0xc,%esp
    19a7:	6a 00                	push   $0x0
    19a9:	68 b1 3a 02 00       	push   $0x23ab1
    19ae:	68 9e 3c 02 00       	push   $0x23c9e
    19b3:	68 f3 3c 02 00       	push   $0x23cf3
    19b8:	68 f3 3c 02 00       	push   $0x23cf3
    19bd:	e8 1e f8 ff ff       	call   11e0 <srv_startl>
    19c2:	83 c4 20             	add    $0x20,%esp
    19c5:	85 c0                	test   %eax,%eax
    19c7:	0f 85 da fe ff ff    	jne    18a7 <main+0x367>
    19cd:	b8 03 3d 02 00       	mov    $0x23d03,%eax
    19d2:	e8 69 f9 ff ff       	call   1340 <gui_start.constprop.2>
    19d7:	b8 0f 3d 02 00       	mov    $0x23d0f,%eax
    19dc:	e8 5f f9 ff ff       	call   1340 <gui_start.constprop.2>
    19e1:	b8 1c 3d 02 00       	mov    $0x23d1c,%eax
    19e6:	e8 55 f9 ff ff       	call   1340 <gui_start.constprop.2>
    19eb:	e9 b7 fe ff ff       	jmp    18a7 <main+0x367>
    19f0:	83 ec 0c             	sub    $0xc,%esp
    19f3:	31 db                	xor    %ebx,%ebx
    19f5:	50                   	push   %eax
    19f6:	e8 75 68 00 00       	call   8270 <str_error>
    19fb:	50                   	push   %eax
    19fc:	68 9e 3c 02 00       	push   $0x23c9e
    1a01:	68 f6 39 02 00       	push   $0x239f6
    1a06:	68 d5 3c 02 00       	push   $0x23cd5
    1a0b:	e8 b0 cd 00 00       	call   e7c0 <printf>
    1a10:	83 c4 20             	add    $0x20,%esp
    1a13:	e9 5d fc ff ff       	jmp    1675 <main+0x135>
    1a18:	83 ec 0c             	sub    $0xc,%esp
    1a1b:	50                   	push   %eax
    1a1c:	e8 4f 68 00 00       	call   8270 <str_error>
    1a21:	50                   	push   %eax
    1a22:	68 9e 3c 02 00       	push   $0x23c9e
    1a27:	68 f6 39 02 00       	push   $0x239f6
    1a2c:	68 d5 3c 02 00       	push   $0x23cd5
    1a31:	e8 8a cd 00 00       	call   e7c0 <printf>
    1a36:	83 c4 20             	add    $0x20,%esp
    1a39:	e9 69 fe ff ff       	jmp    18a7 <main+0x367>
    1a3e:	83 ec 0c             	sub    $0xc,%esp
    1a41:	31 db                	xor    %ebx,%ebx
    1a43:	50                   	push   %eax
    1a44:	e8 27 68 00 00       	call   8270 <str_error>
    1a49:	50                   	push   %eax
    1a4a:	68 b3 3c 02 00       	push   $0x23cb3
    1a4f:	68 f6 39 02 00       	push   $0x239f6
    1a54:	68 d5 3c 02 00       	push   $0x23cd5
    1a59:	e8 62 cd 00 00       	call   e7c0 <printf>
    1a5e:	83 c4 20             	add    $0x20,%esp
    1a61:	e9 0f fc ff ff       	jmp    1675 <main+0x135>
    1a66:	66 90                	xchg   %ax,%ax
    1a68:	66 90                	xchg   %ax,%ax
    1a6a:	66 90                	xchg   %ax,%ax
    1a6c:	66 90                	xchg   %ax,%ax
    1a6e:	66 90                	xchg   %ax,%ax

00001a70 <exit>:
    1a70:	55                   	push   %ebp
    1a71:	89 e5                	mov    %esp,%ebp
    1a73:	83 ec 08             	sub    $0x8,%esp
    1a76:	80 3d ec 7a 02 00 00 	cmpb   $0x0,0x27aec
    1a7d:	75 1a                	jne    1a99 <exit+0x29>
    1a7f:	50                   	push   %eax
    1a80:	6a 09                	push   $0x9
    1a82:	6a 00                	push   $0x0
    1a84:	6a 00                	push   $0x0
    1a86:	6a 00                	push   $0x0
    1a88:	6a 00                	push   $0x0
    1a8a:	6a 00                	push   $0x0
    1a8c:	6a 00                	push   $0x0
    1a8e:	ff 15 98 7a 02 00    	call   *0x27a98
    1a94:	83 c4 20             	add    $0x20,%esp
    1a97:	eb fe                	jmp    1a97 <exit+0x27>
    1a99:	e8 a2 a4 00 00       	call   bf40 <__stdio_done>
    1a9e:	83 ec 0c             	sub    $0xc,%esp
    1aa1:	8b 55 08             	mov    0x8(%ebp),%edx
    1aa4:	52                   	push   %edx
    1aa5:	e8 66 a0 00 00       	call   bb10 <task_retval>
    1aaa:	65 a1 00 00 00 00    	mov    %gs:0x0,%eax
    1ab0:	59                   	pop    %ecx
    1ab1:	8b 48 04             	mov    0x4(%eax),%ecx
    1ab4:	5a                   	pop    %edx
    1ab5:	6a 00                	push   $0x0
    1ab7:	51                   	push   %ecx
    1ab8:	e8 53 69 00 00       	call   8410 <fibril_teardown>
    1abd:	83 c4 10             	add    $0x10,%esp
    1ac0:	eb bd                	jmp    1a7f <exit+0xf>
    1ac2:	8d b4 26 00 00 00 00 	lea    0x0(%esi,%eiz,1),%esi
    1ac9:	8d bc 27 00 00 00 00 	lea    0x0(%edi,%eiz,1),%edi

00001ad0 <abort>:
    1ad0:	55                   	push   %ebp
    1ad1:	89 e5                	mov    %esp,%ebp
    1ad3:	83 ec 0c             	sub    $0xc,%esp
    1ad6:	6a 09                	push   $0x9
    1ad8:	6a 00                	push   $0x0
    1ada:	6a 00                	push   $0x0
    1adc:	6a 00                	push   $0x0
    1ade:	6a 00                	push   $0x0
    1ae0:	6a 00                	push   $0x0
    1ae2:	6a 01                	push   $0x1
    1ae4:	ff 15 98 7a 02 00    	call   *0x27a98
    1aea:	83 c4 20             	add    $0x20,%esp
    1aed:	eb fe                	jmp    1aed <abort+0x1d>
    1aef:	90                   	nop

00001af0 <__main>:
    1af0:	55                   	push   %ebp
    1af1:	89 e5                	mov    %esp,%ebp
    1af3:	56                   	push   %esi
    1af4:	53                   	push   %ebx
    1af5:	8b 5d 08             	mov    0x8(%ebp),%ebx
    1af8:	e8 63 1b 01 00       	call   13660 <__malloc_init>
    1afd:	89 1d e0 7a 02 00    	mov    %ebx,0x27ae0
    1b03:	85 db                	test   %ebx,%ebx
    1b05:	74 68                	je     1b6f <__main+0x7f>
    1b07:	8b 43 18             	mov    0x18(%ebx),%eax
    1b0a:	85 c0                	test   %eax,%eax
    1b0c:	74 61                	je     1b6f <__main+0x7f>
    1b0e:	a3 e8 7a 02 00       	mov    %eax,0x27ae8
    1b13:	e8 e8 67 00 00       	call   8300 <fibril_setup>
    1b18:	85 c0                	test   %eax,%eax
    1b1a:	74 5c                	je     1b78 <__main+0x88>
    1b1c:	8b 40 38             	mov    0x38(%eax),%eax
    1b1f:	65 a3 00 00 00 00    	mov    %eax,%gs:0x0
    1b25:	e8 66 50 01 00       	call   16b90 <__async_init>
    1b2a:	a1 e0 7a 02 00       	mov    0x27ae0,%eax
    1b2f:	c6 05 ec 7a 02 00 01 	movb   $0x1,0x27aec
    1b36:	85 c0                	test   %eax,%eax
    1b38:	74 43                	je     1b7d <__main+0x8d>
    1b3a:	83 ec 0c             	sub    $0xc,%esp
    1b3d:	8b 50 10             	mov    0x10(%eax),%edx
    1b40:	8b 58 08             	mov    0x8(%eax),%ebx
    1b43:	8b 70 0c             	mov    0xc(%eax),%esi
    1b46:	52                   	push   %edx
    1b47:	e8 54 a1 00 00       	call   bca0 <__stdio_init>
    1b4c:	a1 e0 7a 02 00       	mov    0x27ae0,%eax
    1b51:	59                   	pop    %ecx
    1b52:	8b 40 04             	mov    0x4(%eax),%eax
    1b55:	50                   	push   %eax
    1b56:	e8 e5 d3 01 00       	call   1ef40 <chdir>
    1b5b:	83 c4 10             	add    $0x10,%esp
    1b5e:	50                   	push   %eax
    1b5f:	50                   	push   %eax
    1b60:	56                   	push   %esi
    1b61:	53                   	push   %ebx
    1b62:	e8 d9 f9 ff ff       	call   1540 <main>
    1b67:	89 04 24             	mov    %eax,(%esp)
    1b6a:	e8 01 ff ff ff       	call   1a70 <exit>
    1b6f:	e8 cc e0 01 00       	call   1fc40 <rtld_init_static>
    1b74:	85 c0                	test   %eax,%eax
    1b76:	74 9b                	je     1b13 <__main+0x23>
    1b78:	e8 53 ff ff ff       	call   1ad0 <abort>
    1b7d:	83 ec 0c             	sub    $0xc,%esp
    1b80:	31 f6                	xor    %esi,%esi
    1b82:	31 db                	xor    %ebx,%ebx
    1b84:	6a 00                	push   $0x0
    1b86:	e8 15 a1 00 00       	call   bca0 <__stdio_init>
    1b8b:	83 c4 10             	add    $0x10,%esp
    1b8e:	eb ce                	jmp    1b5e <__main+0x6e>

00001b90 <config_get_value>:
    1b90:	55                   	push   %ebp
    1b91:	89 e5                	mov    %esp,%ebp
    1b93:	57                   	push   %edi
    1b94:	56                   	push   %esi
    1b95:	53                   	push   %ebx
    1b96:	83 ec 34             	sub    $0x34,%esp
    1b99:	8d 45 e0             	lea    -0x20(%ebp),%eax
    1b9c:	8b 5d 08             	mov    0x8(%ebp),%ebx
    1b9f:	c7 45 dc 00 00 00 00 	movl   $0x0,-0x24(%ebp)
    1ba6:	50                   	push   %eax
    1ba7:	68 5e 3f 02 00       	push   $0x23f5e
    1bac:	e8 bf 2e 01 00       	call   14a70 <sysinfo_get_data>
    1bb1:	83 c4 10             	add    $0x10,%esp
    1bb4:	89 45 d4             	mov    %eax,-0x2c(%ebp)
    1bb7:	85 c0                	test   %eax,%eax
    1bb9:	0f 84 96 00 00 00    	je     1c55 <config_get_value+0xc5>
    1bbf:	8b 75 e0             	mov    -0x20(%ebp),%esi
    1bc2:	85 f6                	test   %esi,%esi
    1bc4:	0f 84 93 00 00 00    	je     1c5d <config_get_value+0xcd>
    1bca:	89 45 e4             	mov    %eax,-0x1c(%ebp)
    1bcd:	8d 75 e4             	lea    -0x1c(%ebp),%esi
    1bd0:	eb 44                	jmp    1c16 <config_get_value+0x86>
    1bd2:	8d b6 00 00 00 00    	lea    0x0(%esi),%esi
    1bd8:	8d 55 dc             	lea    -0x24(%ebp),%edx
    1bdb:	51                   	push   %ecx
    1bdc:	52                   	push   %edx
    1bdd:	68 68 3f 02 00       	push   $0x23f68
    1be2:	50                   	push   %eax
    1be3:	e8 78 52 00 00       	call   6e60 <str_tok>
    1be8:	83 c4 10             	add    $0x10,%esp
    1beb:	89 c7                	mov    %eax,%edi
    1bed:	85 c0                	test   %eax,%eax
    1bef:	74 1b                	je     1c0c <config_get_value+0x7c>
    1bf1:	83 ec 0c             	sub    $0xc,%esp
    1bf4:	53                   	push   %ebx
    1bf5:	e8 86 29 00 00       	call   4580 <str_length>
    1bfa:	83 c4 0c             	add    $0xc,%esp
    1bfd:	50                   	push   %eax
    1bfe:	53                   	push   %ebx
    1bff:	57                   	push   %edi
    1c00:	e8 9b 2e 00 00       	call   4aa0 <str_lcmp>
    1c05:	83 c4 10             	add    $0x10,%esp
    1c08:	85 c0                	test   %eax,%eax
    1c0a:	74 1e                	je     1c2a <config_get_value+0x9a>
    1c0c:	c7 45 dc 00 00 00 00 	movl   $0x0,-0x24(%ebp)
    1c13:	8b 45 e4             	mov    -0x1c(%ebp),%eax
    1c16:	52                   	push   %edx
    1c17:	56                   	push   %esi
    1c18:	68 d0 3f 02 00       	push   $0x23fd0
    1c1d:	50                   	push   %eax
    1c1e:	e8 3d 52 00 00       	call   6e60 <str_tok>
    1c23:	83 c4 10             	add    $0x10,%esp
    1c26:	85 c0                	test   %eax,%eax
    1c28:	75 ae                	jne    1bd8 <config_get_value+0x48>
    1c2a:	8b 45 dc             	mov    -0x24(%ebp),%eax
    1c2d:	85 c0                	test   %eax,%eax
    1c2f:	74 0f                	je     1c40 <config_get_value+0xb0>
    1c31:	83 ec 0c             	sub    $0xc,%esp
    1c34:	50                   	push   %eax
    1c35:	e8 26 4d 00 00       	call   6960 <str_dup>
    1c3a:	83 c4 10             	add    $0x10,%esp
    1c3d:	89 45 dc             	mov    %eax,-0x24(%ebp)
    1c40:	83 ec 0c             	sub    $0xc,%esp
    1c43:	8b 45 d4             	mov    -0x2c(%ebp),%eax
    1c46:	50                   	push   %eax
    1c47:	e8 04 1d 01 00       	call   13950 <free>
    1c4c:	8b 45 dc             	mov    -0x24(%ebp),%eax
    1c4f:	83 c4 10             	add    $0x10,%esp
    1c52:	89 45 d4             	mov    %eax,-0x2c(%ebp)
    1c55:	8d 65 f4             	lea    -0xc(%ebp),%esp
    1c58:	5b                   	pop    %ebx
    1c59:	5e                   	pop    %esi
    1c5a:	5f                   	pop    %edi
    1c5b:	5d                   	pop    %ebp
    1c5c:	c3                   	ret    
    1c5d:	c7 45 d4 00 00 00 00 	movl   $0x0,-0x2c(%ebp)
    1c64:	8b 45 d4             	mov    -0x2c(%ebp),%eax
    1c67:	eb ec                	jmp    1c55 <config_get_value+0xc5>
    1c69:	8d b4 26 00 00 00 00 	lea    0x0(%esi,%eiz,1),%esi

00001c70 <config_key_exists>:
    1c70:	55                   	push   %ebp
    1c71:	89 e5                	mov    %esp,%ebp
    1c73:	53                   	push   %ebx
    1c74:	83 ec 10             	sub    $0x10,%esp
    1c77:	8b 45 08             	mov    0x8(%ebp),%eax
    1c7a:	50                   	push   %eax
    1c7b:	e8 10 ff ff ff       	call   1b90 <config_get_value>
    1c80:	89 c3                	mov    %eax,%ebx
    1c82:	89 04 24             	mov    %eax,(%esp)
    1c85:	e8 c6 1c 01 00       	call   13950 <free>
    1c8a:	83 c4 10             	add    $0x10,%esp
    1c8d:	85 db                	test   %ebx,%ebx
    1c8f:	8b 5d fc             	mov    -0x4(%ebp),%ebx
    1c92:	0f 95 c0             	setne  %al
    1c95:	c9                   	leave  
    1c96:	c3                   	ret    
    1c97:	66 90                	xchg   %ax,%ax
    1c99:	66 90                	xchg   %ax,%ax
    1c9b:	66 90                	xchg   %ax,%ax
    1c9d:	66 90                	xchg   %ax,%ax
    1c9f:	90                   	nop

00001ca0 <loc_cb_conn>:
    1ca0:	55                   	push   %ebp
    1ca1:	89 e5                	mov    %esp,%ebp
    1ca3:	56                   	push   %esi
    1ca4:	53                   	push   %ebx
    1ca5:	83 ec 40             	sub    $0x40,%esp
    1ca8:	8d 5d d4             	lea    -0x2c(%ebp),%ebx
    1cab:	90                   	nop
    1cac:	8d 74 26 00          	lea    0x0(%esi,%eiz,1),%esi
    1cb0:	50                   	push   %eax
    1cb1:	50                   	push   %eax
    1cb2:	6a 00                	push   $0x0
    1cb4:	53                   	push   %ebx
    1cb5:	e8 c6 47 01 00       	call   16480 <async_get_call_timeout>
    1cba:	8b 55 d4             	mov    -0x2c(%ebp),%edx
    1cbd:	83 c4 10             	add    $0x10,%esp
    1cc0:	85 d2                	test   %edx,%edx
    1cc2:	74 54                	je     1d18 <loc_cb_conn+0x78>
    1cc4:	81 fa 00 04 00 00    	cmp    $0x400,%edx
    1cca:	75 3c                	jne    1d08 <loc_cb_conn+0x68>
    1ccc:	83 ec 0c             	sub    $0xc,%esp
    1ccf:	89 45 c4             	mov    %eax,-0x3c(%ebp)
    1cd2:	68 60 78 02 00       	push   $0x27860
    1cd7:	e8 24 73 00 00       	call   9000 <fibril_mutex_lock>
    1cdc:	c7 04 24 60 78 02 00 	movl   $0x27860,(%esp)
    1ce3:	8b 35 00 7b 02 00    	mov    0x27b00,%esi
    1ce9:	e8 92 74 00 00       	call   9180 <fibril_mutex_unlock>
    1cee:	59                   	pop    %ecx
    1cef:	58                   	pop    %eax
    1cf0:	8b 45 c4             	mov    -0x3c(%ebp),%eax
    1cf3:	6a 00                	push   $0x0
    1cf5:	50                   	push   %eax
    1cf6:	e8 05 60 01 00       	call   17d00 <async_answer_0>
    1cfb:	83 c4 10             	add    $0x10,%esp
    1cfe:	85 f6                	test   %esi,%esi
    1d00:	74 ae                	je     1cb0 <loc_cb_conn+0x10>
    1d02:	ff d6                	call   *%esi
    1d04:	eb aa                	jmp    1cb0 <loc_cb_conn+0x10>
    1d06:	66 90                	xchg   %ax,%ax
    1d08:	52                   	push   %edx
    1d09:	52                   	push   %edx
    1d0a:	6a f5                	push   $0xfffffff5
    1d0c:	50                   	push   %eax
    1d0d:	e8 ee 5f 01 00       	call   17d00 <async_answer_0>
    1d12:	83 c4 10             	add    $0x10,%esp
    1d15:	eb 99                	jmp    1cb0 <loc_cb_conn+0x10>
    1d17:	90                   	nop
    1d18:	8d 65 f8             	lea    -0x8(%ebp),%esp
    1d1b:	5b                   	pop    %ebx
    1d1c:	5e                   	pop    %esi
    1d1d:	5d                   	pop    %ebp
    1d1e:	c3                   	ret    
    1d1f:	90                   	nop

00001d20 <loc_get_ids_internal>:
    1d20:	55                   	push   %ebp
    1d21:	89 e5                	mov    %esp,%ebp
    1d23:	57                   	push   %edi
    1d24:	56                   	push   %esi
    1d25:	53                   	push   %ebx
    1d26:	83 ec 68             	sub    $0x68,%esp
    1d29:	89 45 ac             	mov    %eax,-0x54(%ebp)
    1d2c:	8b 45 08             	mov    0x8(%ebp),%eax
    1d2f:	c7 01 00 00 00 00    	movl   $0x0,(%ecx)
    1d35:	89 55 a8             	mov    %edx,-0x58(%ebp)
    1d38:	89 4d a4             	mov    %ecx,-0x5c(%ebp)
    1d3b:	c7 00 00 00 00 00    	movl   $0x0,(%eax)
    1d41:	68 90 78 02 00       	push   $0x27890
    1d46:	e8 b5 72 00 00       	call   9000 <fibril_mutex_lock>
    1d4b:	a1 f8 7a 02 00       	mov    0x27af8,%eax
    1d50:	83 c4 10             	add    $0x10,%esp
    1d53:	85 c0                	test   %eax,%eax
    1d55:	75 46                	jne    1d9d <loc_get_ids_internal+0x7d>
    1d57:	83 ec 0c             	sub    $0xc,%esp
    1d5a:	8b 1d f0 7a 02 00    	mov    0x27af0,%ebx
    1d60:	68 70 78 02 00       	push   $0x27870
    1d65:	e8 96 72 00 00       	call   9000 <fibril_mutex_lock>
    1d6a:	a1 f8 7a 02 00       	mov    0x27af8,%eax
    1d6f:	83 c4 10             	add    $0x10,%esp
    1d72:	85 c0                	test   %eax,%eax
    1d74:	75 0a                	jne    1d80 <loc_get_ids_internal+0x60>
    1d76:	85 db                	test   %ebx,%ebx
    1d78:	74 06                	je     1d80 <loc_get_ids_internal+0x60>
    1d7a:	89 1d f8 7a 02 00    	mov    %ebx,0x27af8
    1d80:	83 ec 0c             	sub    $0xc,%esp
    1d83:	68 70 78 02 00       	push   $0x27870
    1d88:	e8 f3 73 00 00       	call   9180 <fibril_mutex_unlock>
    1d8d:	a1 f8 7a 02 00       	mov    0x27af8,%eax
    1d92:	83 c4 10             	add    $0x10,%esp
    1d95:	85 c0                	test   %eax,%eax
    1d97:	0f 84 43 02 00 00    	je     1fe0 <loc_get_ids_internal+0x2c0>
    1d9d:	83 ec 0c             	sub    $0xc,%esp
    1da0:	68 90 78 02 00       	push   $0x27890
    1da5:	e8 d6 73 00 00       	call   9180 <fibril_mutex_unlock>
    1daa:	c7 04 24 70 78 02 00 	movl   $0x27870,(%esp)
    1db1:	8b 1d f8 7a 02 00    	mov    0x27af8,%ebx
    1db7:	e8 44 72 00 00       	call   9000 <fibril_mutex_lock>
    1dbc:	a1 f0 7a 02 00       	mov    0x27af0,%eax
    1dc1:	83 c4 10             	add    $0x10,%esp
    1dc4:	85 c0                	test   %eax,%eax
    1dc6:	75 0a                	jne    1dd2 <loc_get_ids_internal+0xb2>
    1dc8:	85 db                	test   %ebx,%ebx
    1dca:	74 06                	je     1dd2 <loc_get_ids_internal+0xb2>
    1dcc:	89 1d f0 7a 02 00    	mov    %ebx,0x27af0
    1dd2:	83 ec 0c             	sub    $0xc,%esp
    1dd5:	68 70 78 02 00       	push   $0x27870
    1dda:	e8 a1 73 00 00       	call   9180 <fibril_mutex_unlock>
    1ddf:	8b 35 f8 7a 02 00    	mov    0x27af8,%esi
    1de5:	5b                   	pop    %ebx
    1de6:	56                   	push   %esi
    1de7:	e8 64 6b 01 00       	call   18950 <async_exchange_begin>
    1dec:	83 c4 0c             	add    $0xc,%esp
    1def:	89 c3                	mov    %eax,%ebx
    1df1:	8d 45 c4             	lea    -0x3c(%ebp),%eax
    1df4:	8b 7d a8             	mov    -0x58(%ebp),%edi
    1df7:	50                   	push   %eax
    1df8:	8b 45 ac             	mov    -0x54(%ebp),%eax
    1dfb:	6a 00                	push   $0x0
    1dfd:	6a 00                	push   $0x0
    1dff:	6a 00                	push   $0x0
    1e01:	57                   	push   %edi
    1e02:	50                   	push   %eax
    1e03:	53                   	push   %ebx
    1e04:	e8 87 4e 01 00       	call   16c90 <async_send_fast>
    1e09:	83 c4 1c             	add    $0x1c,%esp
    1e0c:	89 c6                	mov    %eax,%esi
    1e0e:	6a 00                	push   $0x0
    1e10:	6a 00                	push   $0x0
    1e12:	53                   	push   %ebx
    1e13:	e8 88 74 01 00       	call   192a0 <async_data_read_start>
    1e18:	89 1c 24             	mov    %ebx,(%esp)
    1e1b:	89 45 b4             	mov    %eax,-0x4c(%ebp)
    1e1e:	e8 1d 6e 01 00       	call   18c40 <async_exchange_end>
    1e23:	8b 45 b4             	mov    -0x4c(%ebp),%eax
    1e26:	83 c4 10             	add    $0x10,%esp
    1e29:	85 c0                	test   %eax,%eax
    1e2b:	0f 85 f3 01 00 00    	jne    2024 <loc_get_ids_internal+0x304>
    1e31:	8d 45 c0             	lea    -0x40(%ebp),%eax
    1e34:	51                   	push   %ecx
    1e35:	51                   	push   %ecx
    1e36:	50                   	push   %eax
    1e37:	56                   	push   %esi
    1e38:	e8 d3 4f 01 00       	call   16e10 <async_wait_for>
    1e3d:	8b 45 c0             	mov    -0x40(%ebp),%eax
    1e40:	83 c4 10             	add    $0x10,%esp
    1e43:	85 c0                	test   %eax,%eax
    1e45:	0f 85 8a 01 00 00    	jne    1fd5 <loc_get_ids_internal+0x2b5>
    1e4b:	83 ec 0c             	sub    $0xc,%esp
    1e4e:	8b 75 c8             	mov    -0x38(%ebp),%esi
    1e51:	56                   	push   %esi
    1e52:	e8 49 19 01 00       	call   137a0 <malloc>
    1e57:	83 c4 10             	add    $0x10,%esp
    1e5a:	89 c3                	mov    %eax,%ebx
    1e5c:	85 c0                	test   %eax,%eax
    1e5e:	0f 85 e4 00 00 00    	jne    1f48 <loc_get_ids_internal+0x228>
    1e64:	e9 cc 01 00 00       	jmp    2035 <loc_get_ids_internal+0x315>
    1e69:	8d b4 26 00 00 00 00 	lea    0x0(%esi,%eiz,1),%esi
    1e70:	83 ec 0c             	sub    $0xc,%esp
    1e73:	68 90 78 02 00       	push   $0x27890
    1e78:	e8 03 73 00 00       	call   9180 <fibril_mutex_unlock>
    1e7d:	c7 04 24 70 78 02 00 	movl   $0x27870,(%esp)
    1e84:	8b 3d f8 7a 02 00    	mov    0x27af8,%edi
    1e8a:	e8 71 71 00 00       	call   9000 <fibril_mutex_lock>
    1e8f:	a1 f0 7a 02 00       	mov    0x27af0,%eax
    1e94:	83 c4 10             	add    $0x10,%esp
    1e97:	85 c0                	test   %eax,%eax
    1e99:	75 0a                	jne    1ea5 <loc_get_ids_internal+0x185>
    1e9b:	85 ff                	test   %edi,%edi
    1e9d:	74 06                	je     1ea5 <loc_get_ids_internal+0x185>
    1e9f:	89 3d f0 7a 02 00    	mov    %edi,0x27af0
    1ea5:	83 ec 0c             	sub    $0xc,%esp
    1ea8:	68 70 78 02 00       	push   $0x27870
    1ead:	e8 ce 72 00 00       	call   9180 <fibril_mutex_unlock>
    1eb2:	a1 f8 7a 02 00       	mov    0x27af8,%eax
    1eb7:	5f                   	pop    %edi
    1eb8:	50                   	push   %eax
    1eb9:	e8 92 6a 01 00       	call   18950 <async_exchange_begin>
    1ebe:	83 c4 0c             	add    $0xc,%esp
    1ec1:	89 c7                	mov    %eax,%edi
    1ec3:	8d 45 c4             	lea    -0x3c(%ebp),%eax
    1ec6:	50                   	push   %eax
    1ec7:	8b 45 a8             	mov    -0x58(%ebp),%eax
    1eca:	6a 00                	push   $0x0
    1ecc:	6a 00                	push   $0x0
    1ece:	6a 00                	push   $0x0
    1ed0:	50                   	push   %eax
    1ed1:	8b 45 ac             	mov    -0x54(%ebp),%eax
    1ed4:	50                   	push   %eax
    1ed5:	57                   	push   %edi
    1ed6:	e8 b5 4d 01 00       	call   16c90 <async_send_fast>
    1edb:	83 c4 1c             	add    $0x1c,%esp
    1ede:	89 45 b0             	mov    %eax,-0x50(%ebp)
    1ee1:	56                   	push   %esi
    1ee2:	53                   	push   %ebx
    1ee3:	57                   	push   %edi
    1ee4:	e8 b7 73 01 00       	call   192a0 <async_data_read_start>
    1ee9:	89 3c 24             	mov    %edi,(%esp)
    1eec:	89 45 b4             	mov    %eax,-0x4c(%ebp)
    1eef:	e8 4c 6d 01 00       	call   18c40 <async_exchange_end>
    1ef4:	8b 45 b4             	mov    -0x4c(%ebp),%eax
    1ef7:	83 c4 10             	add    $0x10,%esp
    1efa:	85 c0                	test   %eax,%eax
    1efc:	0f 85 fe 00 00 00    	jne    2000 <loc_get_ids_internal+0x2e0>
    1f02:	89 45 b4             	mov    %eax,-0x4c(%ebp)
    1f05:	8b 4d b0             	mov    -0x50(%ebp),%ecx
    1f08:	8d 45 c0             	lea    -0x40(%ebp),%eax
    1f0b:	52                   	push   %edx
    1f0c:	52                   	push   %edx
    1f0d:	50                   	push   %eax
    1f0e:	51                   	push   %ecx
    1f0f:	e8 fc 4e 01 00       	call   16e10 <async_wait_for>
    1f14:	8b 55 c0             	mov    -0x40(%ebp),%edx
    1f17:	83 c4 10             	add    $0x10,%esp
    1f1a:	8b 45 b4             	mov    -0x4c(%ebp),%eax
    1f1d:	85 d2                	test   %edx,%edx
    1f1f:	0f 85 fb 00 00 00    	jne    2020 <loc_get_ids_internal+0x300>
    1f25:	8b 7d c8             	mov    -0x38(%ebp),%edi
    1f28:	39 fe                	cmp    %edi,%esi
    1f2a:	0f 83 98 00 00 00    	jae    1fc8 <loc_get_ids_internal+0x2a8>
    1f30:	50                   	push   %eax
    1f31:	50                   	push   %eax
    1f32:	57                   	push   %edi
    1f33:	53                   	push   %ebx
    1f34:	e8 27 20 01 00       	call   13f60 <realloc>
    1f39:	89 fe                	mov    %edi,%esi
    1f3b:	83 c4 10             	add    $0x10,%esp
    1f3e:	89 c3                	mov    %eax,%ebx
    1f40:	85 c0                	test   %eax,%eax
    1f42:	0f 84 ed 00 00 00    	je     2035 <loc_get_ids_internal+0x315>
    1f48:	83 ec 0c             	sub    $0xc,%esp
    1f4b:	68 90 78 02 00       	push   $0x27890
    1f50:	e8 ab 70 00 00       	call   9000 <fibril_mutex_lock>
    1f55:	a1 f8 7a 02 00       	mov    0x27af8,%eax
    1f5a:	83 c4 10             	add    $0x10,%esp
    1f5d:	85 c0                	test   %eax,%eax
    1f5f:	0f 85 0b ff ff ff    	jne    1e70 <loc_get_ids_internal+0x150>
    1f65:	83 ec 0c             	sub    $0xc,%esp
    1f68:	8b 3d f0 7a 02 00    	mov    0x27af0,%edi
    1f6e:	68 70 78 02 00       	push   $0x27870
    1f73:	e8 88 70 00 00       	call   9000 <fibril_mutex_lock>
    1f78:	8b 15 f8 7a 02 00    	mov    0x27af8,%edx
    1f7e:	83 c4 10             	add    $0x10,%esp
    1f81:	85 d2                	test   %edx,%edx
    1f83:	75 0a                	jne    1f8f <loc_get_ids_internal+0x26f>
    1f85:	85 ff                	test   %edi,%edi
    1f87:	74 06                	je     1f8f <loc_get_ids_internal+0x26f>
    1f89:	89 3d f8 7a 02 00    	mov    %edi,0x27af8
    1f8f:	83 ec 0c             	sub    $0xc,%esp
    1f92:	68 70 78 02 00       	push   $0x27870
    1f97:	e8 e4 71 00 00       	call   9180 <fibril_mutex_unlock>
    1f9c:	a1 f8 7a 02 00       	mov    0x27af8,%eax
    1fa1:	83 c4 10             	add    $0x10,%esp
    1fa4:	85 c0                	test   %eax,%eax
    1fa6:	0f 85 c4 fe ff ff    	jne    1e70 <loc_get_ids_internal+0x150>
    1fac:	50                   	push   %eax
    1fad:	6a 00                	push   $0x0
    1faf:	68 c1 7e 8f c7       	push   $0xc78f7ec1
    1fb4:	68 6c 6f 63 20       	push   $0x20636f6c
    1fb9:	e8 42 2d 01 00       	call   14d00 <service_connect_blocking>
    1fbe:	83 c4 10             	add    $0x10,%esp
    1fc1:	a3 f8 7a 02 00       	mov    %eax,0x27af8
    1fc6:	eb 95                	jmp    1f5d <loc_get_ids_internal+0x23d>
    1fc8:	c1 ef 02             	shr    $0x2,%edi
    1fcb:	8b 4d 08             	mov    0x8(%ebp),%ecx
    1fce:	89 39                	mov    %edi,(%ecx)
    1fd0:	8b 4d a4             	mov    -0x5c(%ebp),%ecx
    1fd3:	89 19                	mov    %ebx,(%ecx)
    1fd5:	8d 65 f4             	lea    -0xc(%ebp),%esp
    1fd8:	5b                   	pop    %ebx
    1fd9:	5e                   	pop    %esi
    1fda:	5f                   	pop    %edi
    1fdb:	5d                   	pop    %ebp
    1fdc:	c3                   	ret    
    1fdd:	8d 76 00             	lea    0x0(%esi),%esi
    1fe0:	50                   	push   %eax
    1fe1:	6a 00                	push   $0x0
    1fe3:	68 c1 7e 8f c7       	push   $0xc78f7ec1
    1fe8:	68 6c 6f 63 20       	push   $0x20636f6c
    1fed:	e8 0e 2d 01 00       	call   14d00 <service_connect_blocking>
    1ff2:	83 c4 10             	add    $0x10,%esp
    1ff5:	a3 f8 7a 02 00       	mov    %eax,0x27af8
    1ffa:	e9 54 fd ff ff       	jmp    1d53 <loc_get_ids_internal+0x33>
    1fff:	90                   	nop
    2000:	83 ec 0c             	sub    $0xc,%esp
    2003:	8b 5d b0             	mov    -0x50(%ebp),%ebx
    2006:	53                   	push   %ebx
    2007:	e8 d4 54 01 00       	call   174e0 <async_forget>
    200c:	8b 45 b4             	mov    -0x4c(%ebp),%eax
    200f:	83 c4 10             	add    $0x10,%esp
    2012:	8d 65 f4             	lea    -0xc(%ebp),%esp
    2015:	5b                   	pop    %ebx
    2016:	5e                   	pop    %esi
    2017:	5f                   	pop    %edi
    2018:	5d                   	pop    %ebp
    2019:	c3                   	ret    
    201a:	8d b6 00 00 00 00    	lea    0x0(%esi),%esi
    2020:	89 d0                	mov    %edx,%eax
    2022:	eb b1                	jmp    1fd5 <loc_get_ids_internal+0x2b5>
    2024:	83 ec 0c             	sub    $0xc,%esp
    2027:	56                   	push   %esi
    2028:	e8 b3 54 01 00       	call   174e0 <async_forget>
    202d:	83 c4 10             	add    $0x10,%esp
    2030:	8b 45 b4             	mov    -0x4c(%ebp),%eax
    2033:	eb a0                	jmp    1fd5 <loc_get_ids_internal+0x2b5>
    2035:	b8 fe ff ff ff       	mov    $0xfffffffe,%eax
    203a:	eb 99                	jmp    1fd5 <loc_get_ids_internal+0x2b5>
    203c:	8d 74 26 00          	lea    0x0(%esi,%eiz,1),%esi

00002040 <loc_get_name_internal>:
    2040:	55                   	push   %ebp
    2041:	89 e5                	mov    %esp,%ebp
    2043:	57                   	push   %edi
    2044:	56                   	push   %esi
    2045:	53                   	push   %ebx
    2046:	81 ec 78 01 00 00    	sub    $0x178,%esp
    204c:	c7 01 00 00 00 00    	movl   $0x0,(%ecx)
    2052:	89 c6                	mov    %eax,%esi
    2054:	89 d7                	mov    %edx,%edi
    2056:	68 90 78 02 00       	push   $0x27890
    205b:	89 8d 94 fe ff ff    	mov    %ecx,-0x16c(%ebp)
    2061:	e8 9a 6f 00 00       	call   9000 <fibril_mutex_lock>
    2066:	a1 f8 7a 02 00       	mov    0x27af8,%eax
    206b:	83 c4 10             	add    $0x10,%esp
    206e:	85 c0                	test   %eax,%eax
    2070:	75 46                	jne    20b8 <loc_get_name_internal+0x78>
    2072:	83 ec 0c             	sub    $0xc,%esp
    2075:	8b 1d f0 7a 02 00    	mov    0x27af0,%ebx
    207b:	68 70 78 02 00       	push   $0x27870
    2080:	e8 7b 6f 00 00       	call   9000 <fibril_mutex_lock>
    2085:	a1 f8 7a 02 00       	mov    0x27af8,%eax
    208a:	83 c4 10             	add    $0x10,%esp
    208d:	85 c0                	test   %eax,%eax
    208f:	75 0a                	jne    209b <loc_get_name_internal+0x5b>
    2091:	85 db                	test   %ebx,%ebx
    2093:	74 06                	je     209b <loc_get_name_internal+0x5b>
    2095:	89 1d f8 7a 02 00    	mov    %ebx,0x27af8
    209b:	83 ec 0c             	sub    $0xc,%esp
    209e:	68 70 78 02 00       	push   $0x27870
    20a3:	e8 d8 70 00 00       	call   9180 <fibril_mutex_unlock>
    20a8:	a1 f8 7a 02 00       	mov    0x27af8,%eax
    20ad:	83 c4 10             	add    $0x10,%esp
    20b0:	85 c0                	test   %eax,%eax
    20b2:	0f 84 00 01 00 00    	je     21b8 <loc_get_name_internal+0x178>
    20b8:	83 ec 0c             	sub    $0xc,%esp
    20bb:	68 90 78 02 00       	push   $0x27890
    20c0:	e8 bb 70 00 00       	call   9180 <fibril_mutex_unlock>
    20c5:	c7 04 24 70 78 02 00 	movl   $0x27870,(%esp)
    20cc:	8b 1d f8 7a 02 00    	mov    0x27af8,%ebx
    20d2:	e8 29 6f 00 00       	call   9000 <fibril_mutex_lock>
    20d7:	a1 f0 7a 02 00       	mov    0x27af0,%eax
    20dc:	83 c4 10             	add    $0x10,%esp
    20df:	85 c0                	test   %eax,%eax
    20e1:	75 0a                	jne    20ed <loc_get_name_internal+0xad>
    20e3:	85 db                	test   %ebx,%ebx
    20e5:	74 06                	je     20ed <loc_get_name_internal+0xad>
    20e7:	89 1d f0 7a 02 00    	mov    %ebx,0x27af0
    20ed:	83 ec 0c             	sub    $0xc,%esp
    20f0:	68 70 78 02 00       	push   $0x27870
    20f5:	e8 86 70 00 00       	call   9180 <fibril_mutex_unlock>
    20fa:	8b 1d f8 7a 02 00    	mov    0x27af8,%ebx
    2100:	59                   	pop    %ecx
    2101:	53                   	push   %ebx
    2102:	e8 49 68 01 00       	call   18950 <async_exchange_begin>
    2107:	83 c4 0c             	add    $0xc,%esp
    210a:	89 c3                	mov    %eax,%ebx
    210c:	8d 85 c4 fe ff ff    	lea    -0x13c(%ebp),%eax
    2112:	50                   	push   %eax
    2113:	6a 00                	push   $0x0
    2115:	6a 00                	push   $0x0
    2117:	6a 00                	push   $0x0
    2119:	57                   	push   %edi
    211a:	56                   	push   %esi
    211b:	53                   	push   %ebx
    211c:	e8 6f 4b 01 00       	call   16c90 <async_send_fast>
    2121:	83 c4 20             	add    $0x20,%esp
    2124:	89 c7                	mov    %eax,%edi
    2126:	8d b5 e8 fe ff ff    	lea    -0x118(%ebp),%esi
    212c:	8d 85 a0 fe ff ff    	lea    -0x160(%ebp),%eax
    2132:	50                   	push   %eax
    2133:	68 ff 00 00 00       	push   $0xff
    2138:	56                   	push   %esi
    2139:	53                   	push   %ebx
    213a:	e8 a1 70 01 00       	call   191e0 <async_data_read>
    213f:	5a                   	pop    %edx
    2140:	59                   	pop    %ecx
    2141:	8d 8d 98 fe ff ff    	lea    -0x168(%ebp),%ecx
    2147:	51                   	push   %ecx
    2148:	50                   	push   %eax
    2149:	e8 c2 4c 01 00       	call   16e10 <async_wait_for>
    214e:	89 1c 24             	mov    %ebx,(%esp)
    2151:	e8 ea 6a 01 00       	call   18c40 <async_exchange_end>
    2156:	8b 9d 98 fe ff ff    	mov    -0x168(%ebp),%ebx
    215c:	83 c4 10             	add    $0x10,%esp
    215f:	85 db                	test   %ebx,%ebx
    2161:	75 75                	jne    21d8 <loc_get_name_internal+0x198>
    2163:	8d 85 9c fe ff ff    	lea    -0x164(%ebp),%eax
    2169:	52                   	push   %edx
    216a:	52                   	push   %edx
    216b:	50                   	push   %eax
    216c:	57                   	push   %edi
    216d:	e8 9e 4c 01 00       	call   16e10 <async_wait_for>
    2172:	8b 85 9c fe ff ff    	mov    -0x164(%ebp),%eax
    2178:	83 c4 10             	add    $0x10,%esp
    217b:	85 c0                	test   %eax,%eax
    217d:	75 31                	jne    21b0 <loc_get_name_internal+0x170>
    217f:	8b 85 a8 fe ff ff    	mov    -0x158(%ebp),%eax
    2185:	3d ff 00 00 00       	cmp    $0xff,%eax
    218a:	77 66                	ja     21f2 <loc_get_name_internal+0x1b2>
    218c:	83 ec 0c             	sub    $0xc,%esp
    218f:	c6 84 05 e8 fe ff ff 	movb   $0x0,-0x118(%ebp,%eax,1)
    2196:	00 
    2197:	56                   	push   %esi
    2198:	e8 c3 47 00 00       	call   6960 <str_dup>
    219d:	8b 95 94 fe ff ff    	mov    -0x16c(%ebp),%edx
    21a3:	83 c4 10             	add    $0x10,%esp
    21a6:	83 f8 01             	cmp    $0x1,%eax
    21a9:	89 02                	mov    %eax,(%edx)
    21ab:	19 c0                	sbb    %eax,%eax
    21ad:	83 e0 fe             	and    $0xfffffffe,%eax
    21b0:	8d 65 f4             	lea    -0xc(%ebp),%esp
    21b3:	5b                   	pop    %ebx
    21b4:	5e                   	pop    %esi
    21b5:	5f                   	pop    %edi
    21b6:	5d                   	pop    %ebp
    21b7:	c3                   	ret    
    21b8:	50                   	push   %eax
    21b9:	6a 00                	push   $0x0
    21bb:	68 c1 7e 8f c7       	push   $0xc78f7ec1
    21c0:	68 6c 6f 63 20       	push   $0x20636f6c
    21c5:	e8 36 2b 01 00       	call   14d00 <service_connect_blocking>
    21ca:	83 c4 10             	add    $0x10,%esp
    21cd:	a3 f8 7a 02 00       	mov    %eax,0x27af8
    21d2:	e9 97 fe ff ff       	jmp    206e <loc_get_name_internal+0x2e>
    21d7:	90                   	nop
    21d8:	83 ec 0c             	sub    $0xc,%esp
    21db:	57                   	push   %edi
    21dc:	e8 ff 52 01 00       	call   174e0 <async_forget>
    21e1:	8b 85 98 fe ff ff    	mov    -0x168(%ebp),%eax
    21e7:	83 c4 10             	add    $0x10,%esp
    21ea:	8d 65 f4             	lea    -0xc(%ebp),%esp
    21ed:	5b                   	pop    %ebx
    21ee:	5e                   	pop    %esi
    21ef:	5f                   	pop    %edi
    21f0:	5d                   	pop    %ebp
    21f1:	c3                   	ret    
    21f2:	50                   	push   %eax
    21f3:	68 8d 01 00 00       	push   $0x18d
    21f8:	68 6a 3f 02 00       	push   $0x23f6a
    21fd:	68 78 3f 02 00       	push   $0x23f78
    2202:	e8 e9 d9 01 00       	call   1fbf0 <assert_abort>
    2207:	89 f6                	mov    %esi,%esi
    2209:	8d bc 27 00 00 00 00 	lea    0x0(%edi,%eiz,1),%edi

00002210 <loc_exchange_begin_blocking>:
    2210:	55                   	push   %ebp
    2211:	89 e5                	mov    %esp,%ebp
    2213:	53                   	push   %ebx
    2214:	50                   	push   %eax
    2215:	8b 45 08             	mov    0x8(%ebp),%eax
    2218:	3d c1 7e 8f c7       	cmp    $0xc78f7ec1,%eax
    221d:	0f 84 cd 00 00 00    	je     22f0 <loc_exchange_begin_blocking+0xe0>
    2223:	3d c1 7e 8f e7       	cmp    $0xe78f7ec1,%eax
    2228:	0f 85 ba 00 00 00    	jne    22e8 <loc_exchange_begin_blocking+0xd8>
    222e:	83 ec 0c             	sub    $0xc,%esp
    2231:	68 a0 78 02 00       	push   $0x278a0
    2236:	e8 c5 6d 00 00       	call   9000 <fibril_mutex_lock>
    223b:	a1 fc 7a 02 00       	mov    0x27afc,%eax
    2240:	83 c4 10             	add    $0x10,%esp
    2243:	85 c0                	test   %eax,%eax
    2245:	75 46                	jne    228d <loc_exchange_begin_blocking+0x7d>
    2247:	83 ec 0c             	sub    $0xc,%esp
    224a:	8b 1d f4 7a 02 00    	mov    0x27af4,%ebx
    2250:	68 80 78 02 00       	push   $0x27880
    2255:	e8 a6 6d 00 00       	call   9000 <fibril_mutex_lock>
    225a:	a1 fc 7a 02 00       	mov    0x27afc,%eax
    225f:	83 c4 10             	add    $0x10,%esp
    2262:	85 c0                	test   %eax,%eax
    2264:	75 0a                	jne    2270 <loc_exchange_begin_blocking+0x60>
    2266:	85 db                	test   %ebx,%ebx
    2268:	74 06                	je     2270 <loc_exchange_begin_blocking+0x60>
    226a:	89 1d fc 7a 02 00    	mov    %ebx,0x27afc
    2270:	83 ec 0c             	sub    $0xc,%esp
    2273:	68 80 78 02 00       	push   $0x27880
    2278:	e8 03 6f 00 00       	call   9180 <fibril_mutex_unlock>
    227d:	a1 fc 7a 02 00       	mov    0x27afc,%eax
    2282:	83 c4 10             	add    $0x10,%esp
    2285:	85 c0                	test   %eax,%eax
    2287:	0f 84 1b 01 00 00    	je     23a8 <loc_exchange_begin_blocking+0x198>
    228d:	83 ec 0c             	sub    $0xc,%esp
    2290:	68 a0 78 02 00       	push   $0x278a0
    2295:	e8 e6 6e 00 00       	call   9180 <fibril_mutex_unlock>
    229a:	c7 04 24 80 78 02 00 	movl   $0x27880,(%esp)
    22a1:	8b 1d fc 7a 02 00    	mov    0x27afc,%ebx
    22a7:	e8 54 6d 00 00       	call   9000 <fibril_mutex_lock>
    22ac:	a1 f4 7a 02 00       	mov    0x27af4,%eax
    22b1:	83 c4 10             	add    $0x10,%esp
    22b4:	85 c0                	test   %eax,%eax
    22b6:	75 0a                	jne    22c2 <loc_exchange_begin_blocking+0xb2>
    22b8:	85 db                	test   %ebx,%ebx
    22ba:	74 06                	je     22c2 <loc_exchange_begin_blocking+0xb2>
    22bc:	89 1d f4 7a 02 00    	mov    %ebx,0x27af4
    22c2:	83 ec 0c             	sub    $0xc,%esp
    22c5:	68 80 78 02 00       	push   $0x27880
    22ca:	e8 b1 6e 00 00       	call   9180 <fibril_mutex_unlock>
    22cf:	a1 fc 7a 02 00       	mov    0x27afc,%eax
    22d4:	83 c4 10             	add    $0x10,%esp
    22d7:	8b 5d fc             	mov    -0x4(%ebp),%ebx
    22da:	89 45 08             	mov    %eax,0x8(%ebp)
    22dd:	c9                   	leave  
    22de:	e9 6d 66 01 00       	jmp    18950 <async_exchange_begin>
    22e3:	90                   	nop
    22e4:	8d 74 26 00          	lea    0x0(%esi,%eiz,1),%esi
    22e8:	31 c0                	xor    %eax,%eax
    22ea:	8b 5d fc             	mov    -0x4(%ebp),%ebx
    22ed:	c9                   	leave  
    22ee:	c3                   	ret    
    22ef:	90                   	nop
    22f0:	83 ec 0c             	sub    $0xc,%esp
    22f3:	68 90 78 02 00       	push   $0x27890
    22f8:	e8 03 6d 00 00       	call   9000 <fibril_mutex_lock>
    22fd:	a1 f8 7a 02 00       	mov    0x27af8,%eax
    2302:	83 c4 10             	add    $0x10,%esp
    2305:	85 c0                	test   %eax,%eax
    2307:	75 43                	jne    234c <loc_exchange_begin_blocking+0x13c>
    2309:	83 ec 0c             	sub    $0xc,%esp
    230c:	8b 1d f0 7a 02 00    	mov    0x27af0,%ebx
    2312:	68 70 78 02 00       	push   $0x27870
    2317:	e8 e4 6c 00 00       	call   9000 <fibril_mutex_lock>
    231c:	a1 f8 7a 02 00       	mov    0x27af8,%eax
    2321:	83 c4 10             	add    $0x10,%esp
    2324:	85 c0                	test   %eax,%eax
    2326:	75 0a                	jne    2332 <loc_exchange_begin_blocking+0x122>
    2328:	85 db                	test   %ebx,%ebx
    232a:	74 06                	je     2332 <loc_exchange_begin_blocking+0x122>
    232c:	89 1d f8 7a 02 00    	mov    %ebx,0x27af8
    2332:	83 ec 0c             	sub    $0xc,%esp
    2335:	68 70 78 02 00       	push   $0x27870
    233a:	e8 41 6e 00 00       	call   9180 <fibril_mutex_unlock>
    233f:	8b 0d f8 7a 02 00    	mov    0x27af8,%ecx
    2345:	83 c4 10             	add    $0x10,%esp
    2348:	85 c9                	test   %ecx,%ecx
    234a:	74 7c                	je     23c8 <loc_exchange_begin_blocking+0x1b8>
    234c:	83 ec 0c             	sub    $0xc,%esp
    234f:	68 90 78 02 00       	push   $0x27890
    2354:	e8 27 6e 00 00       	call   9180 <fibril_mutex_unlock>
    2359:	c7 04 24 70 78 02 00 	movl   $0x27870,(%esp)
    2360:	8b 1d f8 7a 02 00    	mov    0x27af8,%ebx
    2366:	e8 95 6c 00 00       	call   9000 <fibril_mutex_lock>
    236b:	a1 f0 7a 02 00       	mov    0x27af0,%eax
    2370:	83 c4 10             	add    $0x10,%esp
    2373:	85 c0                	test   %eax,%eax
    2375:	75 0a                	jne    2381 <loc_exchange_begin_blocking+0x171>
    2377:	85 db                	test   %ebx,%ebx
    2379:	74 06                	je     2381 <loc_exchange_begin_blocking+0x171>
    237b:	89 1d f0 7a 02 00    	mov    %ebx,0x27af0
    2381:	83 ec 0c             	sub    $0xc,%esp
    2384:	68 70 78 02 00       	push   $0x27870
    2389:	e8 f2 6d 00 00       	call   9180 <fibril_mutex_unlock>
    238e:	a1 f8 7a 02 00       	mov    0x27af8,%eax
    2393:	83 c4 10             	add    $0x10,%esp
    2396:	8b 5d fc             	mov    -0x4(%ebp),%ebx
    2399:	89 45 08             	mov    %eax,0x8(%ebp)
    239c:	c9                   	leave  
    239d:	e9 ae 65 01 00       	jmp    18950 <async_exchange_begin>
    23a2:	8d b6 00 00 00 00    	lea    0x0(%esi),%esi
    23a8:	50                   	push   %eax
    23a9:	6a 00                	push   $0x0
    23ab:	68 c1 7e 8f e7       	push   $0xe78f7ec1
    23b0:	68 6c 6f 63 20       	push   $0x20636f6c
    23b5:	e8 46 29 01 00       	call   14d00 <service_connect_blocking>
    23ba:	83 c4 10             	add    $0x10,%esp
    23bd:	a3 fc 7a 02 00       	mov    %eax,0x27afc
    23c2:	e9 7c fe ff ff       	jmp    2243 <loc_exchange_begin_blocking+0x33>
    23c7:	90                   	nop
    23c8:	52                   	push   %edx
    23c9:	6a 00                	push   $0x0
    23cb:	68 c1 7e 8f c7       	push   $0xc78f7ec1
    23d0:	68 6c 6f 63 20       	push   $0x20636f6c
    23d5:	e8 26 29 01 00       	call   14d00 <service_connect_blocking>
    23da:	83 c4 10             	add    $0x10,%esp
    23dd:	a3 f8 7a 02 00       	mov    %eax,0x27af8
    23e2:	e9 1e ff ff ff       	jmp    2305 <loc_exchange_begin_blocking+0xf5>
    23e7:	89 f6                	mov    %esi,%esi
    23e9:	8d bc 27 00 00 00 00 	lea    0x0(%edi,%eiz,1),%edi

000023f0 <loc_exchange_begin>:
    23f0:	55                   	push   %ebp
    23f1:	89 e5                	mov    %esp,%ebp
    23f3:	83 ec 08             	sub    $0x8,%esp
    23f6:	8b 45 08             	mov    0x8(%ebp),%eax
    23f9:	3d c1 7e 8f c7       	cmp    $0xc78f7ec1,%eax
    23fe:	74 48                	je     2448 <loc_exchange_begin+0x58>
    2400:	3d c1 7e 8f e7       	cmp    $0xe78f7ec1,%eax
    2405:	75 74                	jne    247b <loc_exchange_begin+0x8b>
    2407:	83 ec 0c             	sub    $0xc,%esp
    240a:	68 80 78 02 00       	push   $0x27880
    240f:	e8 ec 6b 00 00       	call   9000 <fibril_mutex_lock>
    2414:	a1 f4 7a 02 00       	mov    0x27af4,%eax
    2419:	83 c4 10             	add    $0x10,%esp
    241c:	85 c0                	test   %eax,%eax
    241e:	74 60                	je     2480 <loc_exchange_begin+0x90>
    2420:	83 ec 0c             	sub    $0xc,%esp
    2423:	68 80 78 02 00       	push   $0x27880
    2428:	e8 53 6d 00 00       	call   9180 <fibril_mutex_unlock>
    242d:	a1 f4 7a 02 00       	mov    0x27af4,%eax
    2432:	83 c4 10             	add    $0x10,%esp
    2435:	85 c0                	test   %eax,%eax
    2437:	74 42                	je     247b <loc_exchange_begin+0x8b>
    2439:	89 45 08             	mov    %eax,0x8(%ebp)
    243c:	c9                   	leave  
    243d:	e9 0e 65 01 00       	jmp    18950 <async_exchange_begin>
    2442:	8d b6 00 00 00 00    	lea    0x0(%esi),%esi
    2448:	83 ec 0c             	sub    $0xc,%esp
    244b:	68 70 78 02 00       	push   $0x27870
    2450:	e8 ab 6b 00 00       	call   9000 <fibril_mutex_lock>
    2455:	8b 15 f0 7a 02 00    	mov    0x27af0,%edx
    245b:	83 c4 10             	add    $0x10,%esp
    245e:	85 d2                	test   %edx,%edx
    2460:	74 3e                	je     24a0 <loc_exchange_begin+0xb0>
    2462:	83 ec 0c             	sub    $0xc,%esp
    2465:	68 70 78 02 00       	push   $0x27870
    246a:	e8 11 6d 00 00       	call   9180 <fibril_mutex_unlock>
    246f:	a1 f0 7a 02 00       	mov    0x27af0,%eax
    2474:	83 c4 10             	add    $0x10,%esp
    2477:	85 c0                	test   %eax,%eax
    2479:	75 be                	jne    2439 <loc_exchange_begin+0x49>
    247b:	31 c0                	xor    %eax,%eax
    247d:	c9                   	leave  
    247e:	c3                   	ret    
    247f:	90                   	nop
    2480:	51                   	push   %ecx
    2481:	6a 00                	push   $0x0
    2483:	68 c1 7e 8f e7       	push   $0xe78f7ec1
    2488:	68 6c 6f 63 20       	push   $0x20636f6c
    248d:	e8 fe 27 01 00       	call   14c90 <service_connect>
    2492:	83 c4 10             	add    $0x10,%esp
    2495:	a3 f4 7a 02 00       	mov    %eax,0x27af4
    249a:	eb 84                	jmp    2420 <loc_exchange_begin+0x30>
    249c:	8d 74 26 00          	lea    0x0(%esi,%eiz,1),%esi
    24a0:	50                   	push   %eax
    24a1:	6a 00                	push   $0x0
    24a3:	68 c1 7e 8f c7       	push   $0xc78f7ec1
    24a8:	68 6c 6f 63 20       	push   $0x20636f6c
    24ad:	e8 de 27 01 00       	call   14c90 <service_connect>
    24b2:	83 c4 10             	add    $0x10,%esp
    24b5:	a3 f0 7a 02 00       	mov    %eax,0x27af0
    24ba:	eb a6                	jmp    2462 <loc_exchange_begin+0x72>
    24bc:	8d 74 26 00          	lea    0x0(%esi,%eiz,1),%esi

000024c0 <loc_exchange_end>:
    24c0:	55                   	push   %ebp
    24c1:	89 e5                	mov    %esp,%ebp
    24c3:	5d                   	pop    %ebp
    24c4:	e9 77 67 01 00       	jmp    18c40 <async_exchange_end>
    24c9:	8d b4 26 00 00 00 00 	lea    0x0(%esi,%eiz,1),%esi

000024d0 <loc_server_register>:
    24d0:	55                   	push   %ebp
    24d1:	89 e5                	mov    %esp,%ebp
    24d3:	57                   	push   %edi
    24d4:	56                   	push   %esi
    24d5:	53                   	push   %ebx
    24d6:	83 ec 48             	sub    $0x48,%esp
    24d9:	8b 75 08             	mov    0x8(%ebp),%esi
    24dc:	68 a0 78 02 00       	push   $0x278a0
    24e1:	e8 1a 6b 00 00       	call   9000 <fibril_mutex_lock>
    24e6:	a1 fc 7a 02 00       	mov    0x27afc,%eax
    24eb:	83 c4 10             	add    $0x10,%esp
    24ee:	85 c0                	test   %eax,%eax
    24f0:	75 46                	jne    2538 <loc_server_register+0x68>
    24f2:	83 ec 0c             	sub    $0xc,%esp
    24f5:	8b 1d f4 7a 02 00    	mov    0x27af4,%ebx
    24fb:	68 80 78 02 00       	push   $0x27880
    2500:	e8 fb 6a 00 00       	call   9000 <fibril_mutex_lock>
    2505:	a1 fc 7a 02 00       	mov    0x27afc,%eax
    250a:	83 c4 10             	add    $0x10,%esp
    250d:	85 c0                	test   %eax,%eax
    250f:	75 0a                	jne    251b <loc_server_register+0x4b>
    2511:	85 db                	test   %ebx,%ebx
    2513:	74 06                	je     251b <loc_server_register+0x4b>
    2515:	89 1d fc 7a 02 00    	mov    %ebx,0x27afc
    251b:	83 ec 0c             	sub    $0xc,%esp
    251e:	68 80 78 02 00       	push   $0x27880
    2523:	e8 58 6c 00 00       	call   9180 <fibril_mutex_unlock>
    2528:	a1 fc 7a 02 00       	mov    0x27afc,%eax
    252d:	83 c4 10             	add    $0x10,%esp
    2530:	85 c0                	test   %eax,%eax
    2532:	0f 84 10 01 00 00    	je     2648 <loc_server_register+0x178>
    2538:	83 ec 0c             	sub    $0xc,%esp
    253b:	68 a0 78 02 00       	push   $0x278a0
    2540:	e8 3b 6c 00 00       	call   9180 <fibril_mutex_unlock>
    2545:	c7 04 24 80 78 02 00 	movl   $0x27880,(%esp)
    254c:	8b 1d fc 7a 02 00    	mov    0x27afc,%ebx
    2552:	e8 a9 6a 00 00       	call   9000 <fibril_mutex_lock>
    2557:	a1 f4 7a 02 00       	mov    0x27af4,%eax
    255c:	83 c4 10             	add    $0x10,%esp
    255f:	85 c0                	test   %eax,%eax
    2561:	75 0a                	jne    256d <loc_server_register+0x9d>
    2563:	85 db                	test   %ebx,%ebx
    2565:	74 06                	je     256d <loc_server_register+0x9d>
    2567:	89 1d f4 7a 02 00    	mov    %ebx,0x27af4
    256d:	83 ec 0c             	sub    $0xc,%esp
    2570:	68 80 78 02 00       	push   $0x27880
    2575:	e8 06 6c 00 00       	call   9180 <fibril_mutex_unlock>
    257a:	a1 fc 7a 02 00       	mov    0x27afc,%eax
    257f:	5f                   	pop    %edi
    2580:	50                   	push   %eax
    2581:	e8 ca 63 01 00       	call   18950 <async_exchange_begin>
    2586:	83 c4 0c             	add    $0xc,%esp
    2589:	89 c3                	mov    %eax,%ebx
    258b:	8d 45 c4             	lea    -0x3c(%ebp),%eax
    258e:	50                   	push   %eax
    258f:	6a 00                	push   $0x0
    2591:	6a 00                	push   $0x0
    2593:	6a 00                	push   $0x0
    2595:	6a 00                	push   $0x0
    2597:	68 00 04 00 00       	push   $0x400
    259c:	53                   	push   %ebx
    259d:	e8 ee 46 01 00       	call   16c90 <async_send_fast>
    25a2:	83 c4 14             	add    $0x14,%esp
    25a5:	89 c7                	mov    %eax,%edi
    25a7:	56                   	push   %esi
    25a8:	e8 03 1e 00 00       	call   43b0 <str_size>
    25ad:	83 c4 0c             	add    $0xc,%esp
    25b0:	50                   	push   %eax
    25b1:	56                   	push   %esi
    25b2:	53                   	push   %ebx
    25b3:	e8 f8 70 01 00       	call   196b0 <async_data_write_start>
    25b8:	89 1c 24             	mov    %ebx,(%esp)
    25bb:	89 45 c0             	mov    %eax,-0x40(%ebp)
    25be:	e8 7d 66 01 00       	call   18c40 <async_exchange_end>
    25c3:	8b 45 c0             	mov    -0x40(%ebp),%eax
    25c6:	83 c4 10             	add    $0x10,%esp
    25c9:	85 c0                	test   %eax,%eax
    25cb:	0f 85 97 00 00 00    	jne    2668 <loc_server_register+0x198>
    25d1:	83 ec 0c             	sub    $0xc,%esp
    25d4:	68 80 78 02 00       	push   $0x27880
    25d9:	e8 22 6a 00 00       	call   9000 <fibril_mutex_lock>
    25de:	8b 1d f4 7a 02 00    	mov    0x27af4,%ebx
    25e4:	83 c4 10             	add    $0x10,%esp
    25e7:	85 db                	test   %ebx,%ebx
    25e9:	0f 84 90 00 00 00    	je     267f <loc_server_register+0x1af>
    25ef:	83 ec 0c             	sub    $0xc,%esp
    25f2:	68 80 78 02 00       	push   $0x27880
    25f7:	e8 84 6b 00 00       	call   9180 <fibril_mutex_unlock>
    25fc:	a1 f4 7a 02 00       	mov    0x27af4,%eax
    2601:	83 c4 10             	add    $0x10,%esp
    2604:	85 c0                	test   %eax,%eax
    2606:	0f 84 92 00 00 00    	je     269e <loc_server_register+0x1ce>
    260c:	83 ec 0c             	sub    $0xc,%esp
    260f:	50                   	push   %eax
    2610:	e8 3b 63 01 00       	call   18950 <async_exchange_begin>
    2615:	83 c4 10             	add    $0x10,%esp
    2618:	89 c3                	mov    %eax,%ebx
    261a:	6a 00                	push   $0x0
    261c:	6a 00                	push   $0x0
    261e:	6a 00                	push   $0x0
    2620:	53                   	push   %ebx
    2621:	e8 1a 58 01 00       	call   17e40 <async_connect_to_me>
    2626:	89 1c 24             	mov    %ebx,(%esp)
    2629:	e8 12 66 01 00       	call   18c40 <async_exchange_end>
    262e:	58                   	pop    %eax
    262f:	8d 45 c0             	lea    -0x40(%ebp),%eax
    2632:	5a                   	pop    %edx
    2633:	50                   	push   %eax
    2634:	57                   	push   %edi
    2635:	e8 d6 47 01 00       	call   16e10 <async_wait_for>
    263a:	8b 45 c0             	mov    -0x40(%ebp),%eax
    263d:	83 c4 10             	add    $0x10,%esp
    2640:	8d 65 f4             	lea    -0xc(%ebp),%esp
    2643:	5b                   	pop    %ebx
    2644:	5e                   	pop    %esi
    2645:	5f                   	pop    %edi
    2646:	5d                   	pop    %ebp
    2647:	c3                   	ret    
    2648:	50                   	push   %eax
    2649:	6a 00                	push   $0x0
    264b:	68 c1 7e 8f e7       	push   $0xe78f7ec1
    2650:	68 6c 6f 63 20       	push   $0x20636f6c
    2655:	e8 a6 26 01 00       	call   14d00 <service_connect_blocking>
    265a:	83 c4 10             	add    $0x10,%esp
    265d:	a3 fc 7a 02 00       	mov    %eax,0x27afc
    2662:	e9 87 fe ff ff       	jmp    24ee <loc_server_register+0x1e>
    2667:	90                   	nop
    2668:	83 ec 0c             	sub    $0xc,%esp
    266b:	57                   	push   %edi
    266c:	e8 6f 4e 01 00       	call   174e0 <async_forget>
    2671:	8b 45 c0             	mov    -0x40(%ebp),%eax
    2674:	83 c4 10             	add    $0x10,%esp
    2677:	8d 65 f4             	lea    -0xc(%ebp),%esp
    267a:	5b                   	pop    %ebx
    267b:	5e                   	pop    %esi
    267c:	5f                   	pop    %edi
    267d:	5d                   	pop    %ebp
    267e:	c3                   	ret    
    267f:	51                   	push   %ecx
    2680:	6a 00                	push   $0x0
    2682:	68 c1 7e 8f e7       	push   $0xe78f7ec1
    2687:	68 6c 6f 63 20       	push   $0x20636f6c
    268c:	e8 ff 25 01 00       	call   14c90 <service_connect>
    2691:	83 c4 10             	add    $0x10,%esp
    2694:	a3 f4 7a 02 00       	mov    %eax,0x27af4
    2699:	e9 51 ff ff ff       	jmp    25ef <loc_server_register+0x11f>
    269e:	31 db                	xor    %ebx,%ebx
    26a0:	e9 75 ff ff ff       	jmp    261a <loc_server_register+0x14a>
    26a5:	8d 74 26 00          	lea    0x0(%esi,%eiz,1),%esi
    26a9:	8d bc 27 00 00 00 00 	lea    0x0(%edi,%eiz,1),%edi

000026b0 <loc_service_register>:
    26b0:	55                   	push   %ebp
    26b1:	89 e5                	mov    %esp,%ebp
    26b3:	57                   	push   %edi
    26b4:	56                   	push   %esi
    26b5:	53                   	push   %ebx
    26b6:	83 ec 48             	sub    $0x48,%esp
    26b9:	8b 75 08             	mov    0x8(%ebp),%esi
    26bc:	68 a0 78 02 00       	push   $0x278a0
    26c1:	e8 3a 69 00 00       	call   9000 <fibril_mutex_lock>
    26c6:	a1 fc 7a 02 00       	mov    0x27afc,%eax
    26cb:	83 c4 10             	add    $0x10,%esp
    26ce:	85 c0                	test   %eax,%eax
    26d0:	75 46                	jne    2718 <loc_service_register+0x68>
    26d2:	83 ec 0c             	sub    $0xc,%esp
    26d5:	8b 1d f4 7a 02 00    	mov    0x27af4,%ebx
    26db:	68 80 78 02 00       	push   $0x27880
    26e0:	e8 1b 69 00 00       	call   9000 <fibril_mutex_lock>
    26e5:	a1 fc 7a 02 00       	mov    0x27afc,%eax
    26ea:	83 c4 10             	add    $0x10,%esp
    26ed:	85 c0                	test   %eax,%eax
    26ef:	75 0a                	jne    26fb <loc_service_register+0x4b>
    26f1:	85 db                	test   %ebx,%ebx
    26f3:	74 06                	je     26fb <loc_service_register+0x4b>
    26f5:	89 1d fc 7a 02 00    	mov    %ebx,0x27afc
    26fb:	83 ec 0c             	sub    $0xc,%esp
    26fe:	68 80 78 02 00       	push   $0x27880
    2703:	e8 78 6a 00 00       	call   9180 <fibril_mutex_unlock>
    2708:	a1 fc 7a 02 00       	mov    0x27afc,%eax
    270d:	83 c4 10             	add    $0x10,%esp
    2710:	85 c0                	test   %eax,%eax
    2712:	0f 84 c8 00 00 00    	je     27e0 <loc_service_register+0x130>
    2718:	83 ec 0c             	sub    $0xc,%esp
    271b:	68 a0 78 02 00       	push   $0x278a0
    2720:	e8 5b 6a 00 00       	call   9180 <fibril_mutex_unlock>
    2725:	c7 04 24 80 78 02 00 	movl   $0x27880,(%esp)
    272c:	8b 1d fc 7a 02 00    	mov    0x27afc,%ebx
    2732:	e8 c9 68 00 00       	call   9000 <fibril_mutex_lock>
    2737:	a1 f4 7a 02 00       	mov    0x27af4,%eax
    273c:	83 c4 10             	add    $0x10,%esp
    273f:	85 c0                	test   %eax,%eax
    2741:	75 0a                	jne    274d <loc_service_register+0x9d>
    2743:	85 db                	test   %ebx,%ebx
    2745:	74 06                	je     274d <loc_service_register+0x9d>
    2747:	89 1d f4 7a 02 00    	mov    %ebx,0x27af4
    274d:	83 ec 0c             	sub    $0xc,%esp
    2750:	68 80 78 02 00       	push   $0x27880
    2755:	e8 26 6a 00 00       	call   9180 <fibril_mutex_unlock>
    275a:	8b 3d fc 7a 02 00    	mov    0x27afc,%edi
    2760:	5b                   	pop    %ebx
    2761:	57                   	push   %edi
    2762:	e8 e9 61 01 00       	call   18950 <async_exchange_begin>
    2767:	83 c4 0c             	add    $0xc,%esp
    276a:	89 c7                	mov    %eax,%edi
    276c:	8d 45 c4             	lea    -0x3c(%ebp),%eax
    276f:	50                   	push   %eax
    2770:	6a 00                	push   $0x0
    2772:	6a 00                	push   $0x0
    2774:	6a 00                	push   $0x0
    2776:	6a 00                	push   $0x0
    2778:	68 03 04 00 00       	push   $0x403
    277d:	57                   	push   %edi
    277e:	e8 0d 45 01 00       	call   16c90 <async_send_fast>
    2783:	83 c4 14             	add    $0x14,%esp
    2786:	89 c3                	mov    %eax,%ebx
    2788:	56                   	push   %esi
    2789:	e8 22 1c 00 00       	call   43b0 <str_size>
    278e:	83 c4 0c             	add    $0xc,%esp
    2791:	50                   	push   %eax
    2792:	56                   	push   %esi
    2793:	57                   	push   %edi
    2794:	e8 17 6f 01 00       	call   196b0 <async_data_write_start>
    2799:	89 3c 24             	mov    %edi,(%esp)
    279c:	89 45 c0             	mov    %eax,-0x40(%ebp)
    279f:	e8 9c 64 01 00       	call   18c40 <async_exchange_end>
    27a4:	8b 45 c0             	mov    -0x40(%ebp),%eax
    27a7:	83 c4 10             	add    $0x10,%esp
    27aa:	85 c0                	test   %eax,%eax
    27ac:	75 6a                	jne    2818 <loc_service_register+0x168>
    27ae:	8d 45 c0             	lea    -0x40(%ebp),%eax
    27b1:	51                   	push   %ecx
    27b2:	51                   	push   %ecx
    27b3:	50                   	push   %eax
    27b4:	53                   	push   %ebx
    27b5:	e8 56 46 01 00       	call   16e10 <async_wait_for>
    27ba:	8b 45 c0             	mov    -0x40(%ebp),%eax
    27bd:	83 c4 10             	add    $0x10,%esp
    27c0:	85 c0                	test   %eax,%eax
    27c2:	75 3c                	jne    2800 <loc_service_register+0x150>
    27c4:	8b 45 0c             	mov    0xc(%ebp),%eax
    27c7:	85 c0                	test   %eax,%eax
    27c9:	74 64                	je     282f <loc_service_register+0x17f>
    27cb:	8b 4d 0c             	mov    0xc(%ebp),%ecx
    27ce:	8b 45 c8             	mov    -0x38(%ebp),%eax
    27d1:	89 01                	mov    %eax,(%ecx)
    27d3:	31 c0                	xor    %eax,%eax
    27d5:	8d 65 f4             	lea    -0xc(%ebp),%esp
    27d8:	5b                   	pop    %ebx
    27d9:	5e                   	pop    %esi
    27da:	5f                   	pop    %edi
    27db:	5d                   	pop    %ebp
    27dc:	c3                   	ret    
    27dd:	8d 76 00             	lea    0x0(%esi),%esi
    27e0:	50                   	push   %eax
    27e1:	6a 00                	push   $0x0
    27e3:	68 c1 7e 8f e7       	push   $0xe78f7ec1
    27e8:	68 6c 6f 63 20       	push   $0x20636f6c
    27ed:	e8 0e 25 01 00       	call   14d00 <service_connect_blocking>
    27f2:	83 c4 10             	add    $0x10,%esp
    27f5:	a3 fc 7a 02 00       	mov    %eax,0x27afc
    27fa:	e9 cf fe ff ff       	jmp    26ce <loc_service_register+0x1e>
    27ff:	90                   	nop
    2800:	8b 55 0c             	mov    0xc(%ebp),%edx
    2803:	85 d2                	test   %edx,%edx
    2805:	74 ce                	je     27d5 <loc_service_register+0x125>
    2807:	8b 55 0c             	mov    0xc(%ebp),%edx
    280a:	c7 02 ff ff ff ff    	movl   $0xffffffff,(%edx)
    2810:	8d 65 f4             	lea    -0xc(%ebp),%esp
    2813:	5b                   	pop    %ebx
    2814:	5e                   	pop    %esi
    2815:	5f                   	pop    %edi
    2816:	5d                   	pop    %ebp
    2817:	c3                   	ret    
    2818:	83 ec 0c             	sub    $0xc,%esp
    281b:	53                   	push   %ebx
    281c:	e8 bf 4c 01 00       	call   174e0 <async_forget>
    2821:	8b 45 c0             	mov    -0x40(%ebp),%eax
    2824:	83 c4 10             	add    $0x10,%esp
    2827:	8d 65 f4             	lea    -0xc(%ebp),%esp
    282a:	5b                   	pop    %ebx
    282b:	5e                   	pop    %esi
    282c:	5f                   	pop    %edi
    282d:	5d                   	pop    %ebp
    282e:	c3                   	ret    
    282f:	31 c0                	xor    %eax,%eax
    2831:	eb a2                	jmp    27d5 <loc_service_register+0x125>
    2833:	8d b6 00 00 00 00    	lea    0x0(%esi),%esi
    2839:	8d bc 27 00 00 00 00 	lea    0x0(%edi,%eiz,1),%edi

00002840 <loc_service_unregister>:
    2840:	55                   	push   %ebp
    2841:	89 e5                	mov    %esp,%ebp
    2843:	53                   	push   %ebx
    2844:	83 ec 20             	sub    $0x20,%esp
    2847:	68 a0 78 02 00       	push   $0x278a0
    284c:	e8 af 67 00 00       	call   9000 <fibril_mutex_lock>
    2851:	a1 fc 7a 02 00       	mov    0x27afc,%eax
    2856:	83 c4 10             	add    $0x10,%esp
    2859:	85 c0                	test   %eax,%eax
    285b:	75 46                	jne    28a3 <loc_service_unregister+0x63>
    285d:	83 ec 0c             	sub    $0xc,%esp
    2860:	8b 1d f4 7a 02 00    	mov    0x27af4,%ebx
    2866:	68 80 78 02 00       	push   $0x27880
    286b:	e8 90 67 00 00       	call   9000 <fibril_mutex_lock>
    2870:	a1 fc 7a 02 00       	mov    0x27afc,%eax
    2875:	83 c4 10             	add    $0x10,%esp
    2878:	85 c0                	test   %eax,%eax
    287a:	75 0a                	jne    2886 <loc_service_unregister+0x46>
    287c:	85 db                	test   %ebx,%ebx
    287e:	74 06                	je     2886 <loc_service_unregister+0x46>
    2880:	89 1d fc 7a 02 00    	mov    %ebx,0x27afc
    2886:	83 ec 0c             	sub    $0xc,%esp
    2889:	68 80 78 02 00       	push   $0x27880
    288e:	e8 ed 68 00 00       	call   9180 <fibril_mutex_unlock>
    2893:	a1 fc 7a 02 00       	mov    0x27afc,%eax
    2898:	83 c4 10             	add    $0x10,%esp
    289b:	85 c0                	test   %eax,%eax
    289d:	0f 84 8d 00 00 00    	je     2930 <loc_service_unregister+0xf0>
    28a3:	83 ec 0c             	sub    $0xc,%esp
    28a6:	68 a0 78 02 00       	push   $0x278a0
    28ab:	e8 d0 68 00 00       	call   9180 <fibril_mutex_unlock>
    28b0:	c7 04 24 80 78 02 00 	movl   $0x27880,(%esp)
    28b7:	8b 1d fc 7a 02 00    	mov    0x27afc,%ebx
    28bd:	e8 3e 67 00 00       	call   9000 <fibril_mutex_lock>
    28c2:	a1 f4 7a 02 00       	mov    0x27af4,%eax
    28c7:	83 c4 10             	add    $0x10,%esp
    28ca:	85 c0                	test   %eax,%eax
    28cc:	75 0a                	jne    28d8 <loc_service_unregister+0x98>
    28ce:	85 db                	test   %ebx,%ebx
    28d0:	74 06                	je     28d8 <loc_service_unregister+0x98>
    28d2:	89 1d f4 7a 02 00    	mov    %ebx,0x27af4
    28d8:	83 ec 0c             	sub    $0xc,%esp
    28db:	68 80 78 02 00       	push   $0x27880
    28e0:	e8 9b 68 00 00       	call   9180 <fibril_mutex_unlock>
    28e5:	8b 15 fc 7a 02 00    	mov    0x27afc,%edx
    28eb:	58                   	pop    %eax
    28ec:	52                   	push   %edx
    28ed:	e8 5e 60 01 00       	call   18950 <async_exchange_begin>
    28f2:	83 c4 0c             	add    $0xc,%esp
    28f5:	8b 4d 08             	mov    0x8(%ebp),%ecx
    28f8:	89 c3                	mov    %eax,%ebx
    28fa:	6a 00                	push   $0x0
    28fc:	6a 00                	push   $0x0
    28fe:	6a 00                	push   $0x0
    2900:	6a 00                	push   $0x0
    2902:	6a 00                	push   $0x0
    2904:	6a 00                	push   $0x0
    2906:	6a 00                	push   $0x0
    2908:	6a 00                	push   $0x0
    290a:	51                   	push   %ecx
    290b:	68 04 04 00 00       	push   $0x404
    2910:	50                   	push   %eax
    2911:	e8 3a 4e 01 00       	call   17750 <async_req_fast>
    2916:	83 c4 24             	add    $0x24,%esp
    2919:	89 45 f4             	mov    %eax,-0xc(%ebp)
    291c:	53                   	push   %ebx
    291d:	e8 1e 63 01 00       	call   18c40 <async_exchange_end>
    2922:	8b 45 f4             	mov    -0xc(%ebp),%eax
    2925:	8b 5d fc             	mov    -0x4(%ebp),%ebx
    2928:	c9                   	leave  
    2929:	c3                   	ret    
    292a:	8d b6 00 00 00 00    	lea    0x0(%esi),%esi
    2930:	50                   	push   %eax
    2931:	6a 00                	push   $0x0
    2933:	68 c1 7e 8f e7       	push   $0xe78f7ec1
    2938:	68 6c 6f 63 20       	push   $0x20636f6c
    293d:	e8 be 23 01 00       	call   14d00 <service_connect_blocking>
    2942:	83 c4 10             	add    $0x10,%esp
    2945:	a3 fc 7a 02 00       	mov    %eax,0x27afc
    294a:	e9 0a ff ff ff       	jmp    2859 <loc_service_unregister+0x19>
    294f:	90                   	nop

00002950 <loc_service_get_id>:
    2950:	55                   	push   %ebp
    2951:	89 e5                	mov    %esp,%ebp
    2953:	57                   	push   %edi
    2954:	56                   	push   %esi
    2955:	53                   	push   %ebx
    2956:	83 ec 3c             	sub    $0x3c,%esp
    2959:	8b 5d 10             	mov    0x10(%ebp),%ebx
    295c:	8b 75 08             	mov    0x8(%ebp),%esi
    295f:	f6 c3 01             	test   $0x1,%bl
    2962:	0f 84 30 01 00 00    	je     2a98 <loc_service_get_id+0x148>
    2968:	83 ec 0c             	sub    $0xc,%esp
    296b:	68 90 78 02 00       	push   $0x27890
    2970:	e8 8b 66 00 00       	call   9000 <fibril_mutex_lock>
    2975:	a1 f8 7a 02 00       	mov    0x27af8,%eax
    297a:	83 c4 10             	add    $0x10,%esp
    297d:	85 c0                	test   %eax,%eax
    297f:	75 47                	jne    29c8 <loc_service_get_id+0x78>
    2981:	83 ec 0c             	sub    $0xc,%esp
    2984:	8b 3d f0 7a 02 00    	mov    0x27af0,%edi
    298a:	68 70 78 02 00       	push   $0x27870
    298f:	e8 6c 66 00 00       	call   9000 <fibril_mutex_lock>
    2994:	a1 f8 7a 02 00       	mov    0x27af8,%eax
    2999:	83 c4 10             	add    $0x10,%esp
    299c:	85 c0                	test   %eax,%eax
    299e:	75 0a                	jne    29aa <loc_service_get_id+0x5a>
    29a0:	85 ff                	test   %edi,%edi
    29a2:	74 06                	je     29aa <loc_service_get_id+0x5a>
    29a4:	89 3d f8 7a 02 00    	mov    %edi,0x27af8
    29aa:	83 ec 0c             	sub    $0xc,%esp
    29ad:	68 70 78 02 00       	push   $0x27870
    29b2:	e8 c9 67 00 00       	call   9180 <fibril_mutex_unlock>
    29b7:	8b 3d f8 7a 02 00    	mov    0x27af8,%edi
    29bd:	83 c4 10             	add    $0x10,%esp
    29c0:	85 ff                	test   %edi,%edi
    29c2:	0f 84 40 01 00 00    	je     2b08 <loc_service_get_id+0x1b8>
    29c8:	83 ec 0c             	sub    $0xc,%esp
    29cb:	68 90 78 02 00       	push   $0x27890
    29d0:	e8 ab 67 00 00       	call   9180 <fibril_mutex_unlock>
    29d5:	c7 04 24 70 78 02 00 	movl   $0x27870,(%esp)
    29dc:	8b 3d f8 7a 02 00    	mov    0x27af8,%edi
    29e2:	e8 19 66 00 00       	call   9000 <fibril_mutex_lock>
    29e7:	8b 15 f0 7a 02 00    	mov    0x27af0,%edx
    29ed:	83 c4 10             	add    $0x10,%esp
    29f0:	85 d2                	test   %edx,%edx
    29f2:	75 0a                	jne    29fe <loc_service_get_id+0xae>
    29f4:	85 ff                	test   %edi,%edi
    29f6:	74 06                	je     29fe <loc_service_get_id+0xae>
    29f8:	89 3d f0 7a 02 00    	mov    %edi,0x27af0
    29fe:	83 ec 0c             	sub    $0xc,%esp
    2a01:	68 70 78 02 00       	push   $0x27870
    2a06:	e8 75 67 00 00       	call   9180 <fibril_mutex_unlock>
    2a0b:	58                   	pop    %eax
    2a0c:	a1 f8 7a 02 00       	mov    0x27af8,%eax
    2a11:	50                   	push   %eax
    2a12:	e8 39 5f 01 00       	call   18950 <async_exchange_begin>
    2a17:	83 c4 10             	add    $0x10,%esp
    2a1a:	89 c7                	mov    %eax,%edi
    2a1c:	50                   	push   %eax
    2a1d:	8d 45 c4             	lea    -0x3c(%ebp),%eax
    2a20:	50                   	push   %eax
    2a21:	6a 00                	push   $0x0
    2a23:	6a 00                	push   $0x0
    2a25:	6a 00                	push   $0x0
    2a27:	53                   	push   %ebx
    2a28:	68 05 04 00 00       	push   $0x405
    2a2d:	57                   	push   %edi
    2a2e:	e8 5d 42 01 00       	call   16c90 <async_send_fast>
    2a33:	83 c4 14             	add    $0x14,%esp
    2a36:	89 c3                	mov    %eax,%ebx
    2a38:	56                   	push   %esi
    2a39:	e8 72 19 00 00       	call   43b0 <str_size>
    2a3e:	83 c4 0c             	add    $0xc,%esp
    2a41:	50                   	push   %eax
    2a42:	56                   	push   %esi
    2a43:	57                   	push   %edi
    2a44:	e8 67 6c 01 00       	call   196b0 <async_data_write_start>
    2a49:	89 3c 24             	mov    %edi,(%esp)
    2a4c:	89 45 c0             	mov    %eax,-0x40(%ebp)
    2a4f:	e8 ec 61 01 00       	call   18c40 <async_exchange_end>
    2a54:	8b 45 c0             	mov    -0x40(%ebp),%eax
    2a57:	83 c4 10             	add    $0x10,%esp
    2a5a:	85 c0                	test   %eax,%eax
    2a5c:	0f 85 c6 00 00 00    	jne    2b28 <loc_service_get_id+0x1d8>
    2a62:	8d 45 c0             	lea    -0x40(%ebp),%eax
    2a65:	51                   	push   %ecx
    2a66:	51                   	push   %ecx
    2a67:	50                   	push   %eax
    2a68:	53                   	push   %ebx
    2a69:	e8 a2 43 01 00       	call   16e10 <async_wait_for>
    2a6e:	8b 45 c0             	mov    -0x40(%ebp),%eax
    2a71:	83 c4 10             	add    $0x10,%esp
    2a74:	85 c0                	test   %eax,%eax
    2a76:	75 78                	jne    2af0 <loc_service_get_id+0x1a0>
    2a78:	8b 45 0c             	mov    0xc(%ebp),%eax
    2a7b:	85 c0                	test   %eax,%eax
    2a7d:	0f 84 db 00 00 00    	je     2b5e <loc_service_get_id+0x20e>
    2a83:	8b 4d 0c             	mov    0xc(%ebp),%ecx
    2a86:	8b 45 c8             	mov    -0x38(%ebp),%eax
    2a89:	89 01                	mov    %eax,(%ecx)
    2a8b:	31 c0                	xor    %eax,%eax
    2a8d:	8d 65 f4             	lea    -0xc(%ebp),%esp
    2a90:	5b                   	pop    %ebx
    2a91:	5e                   	pop    %esi
    2a92:	5f                   	pop    %edi
    2a93:	5d                   	pop    %ebp
    2a94:	c3                   	ret    
    2a95:	8d 76 00             	lea    0x0(%esi),%esi
    2a98:	83 ec 0c             	sub    $0xc,%esp
    2a9b:	68 70 78 02 00       	push   $0x27870
    2aa0:	e8 5b 65 00 00       	call   9000 <fibril_mutex_lock>
    2aa5:	a1 f0 7a 02 00       	mov    0x27af0,%eax
    2aaa:	83 c4 10             	add    $0x10,%esp
    2aad:	85 c0                	test   %eax,%eax
    2aaf:	0f 84 8a 00 00 00    	je     2b3f <loc_service_get_id+0x1ef>
    2ab5:	83 ec 0c             	sub    $0xc,%esp
    2ab8:	68 70 78 02 00       	push   $0x27870
    2abd:	e8 be 66 00 00       	call   9180 <fibril_mutex_unlock>
    2ac2:	a1 f0 7a 02 00       	mov    0x27af0,%eax
    2ac7:	83 c4 10             	add    $0x10,%esp
    2aca:	85 c0                	test   %eax,%eax
    2acc:	74 16                	je     2ae4 <loc_service_get_id+0x194>
    2ace:	83 ec 0c             	sub    $0xc,%esp
    2ad1:	50                   	push   %eax
    2ad2:	e8 79 5e 01 00       	call   18950 <async_exchange_begin>
    2ad7:	83 c4 10             	add    $0x10,%esp
    2ada:	89 c7                	mov    %eax,%edi
    2adc:	85 c0                	test   %eax,%eax
    2ade:	0f 85 38 ff ff ff    	jne    2a1c <loc_service_get_id+0xcc>
    2ae4:	e8 d7 ee 01 00       	call   219c0 <__errno>
    2ae9:	8b 00                	mov    (%eax),%eax
    2aeb:	eb a0                	jmp    2a8d <loc_service_get_id+0x13d>
    2aed:	8d 76 00             	lea    0x0(%esi),%esi
    2af0:	8b 55 0c             	mov    0xc(%ebp),%edx
    2af3:	85 d2                	test   %edx,%edx
    2af5:	74 96                	je     2a8d <loc_service_get_id+0x13d>
    2af7:	8b 55 0c             	mov    0xc(%ebp),%edx
    2afa:	c7 02 ff ff ff ff    	movl   $0xffffffff,(%edx)
    2b00:	8d 65 f4             	lea    -0xc(%ebp),%esp
    2b03:	5b                   	pop    %ebx
    2b04:	5e                   	pop    %esi
    2b05:	5f                   	pop    %edi
    2b06:	5d                   	pop    %ebp
    2b07:	c3                   	ret    
    2b08:	51                   	push   %ecx
    2b09:	6a 00                	push   $0x0
    2b0b:	68 c1 7e 8f c7       	push   $0xc78f7ec1
    2b10:	68 6c 6f 63 20       	push   $0x20636f6c
    2b15:	e8 e6 21 01 00       	call   14d00 <service_connect_blocking>
    2b1a:	83 c4 10             	add    $0x10,%esp
    2b1d:	a3 f8 7a 02 00       	mov    %eax,0x27af8
    2b22:	e9 56 fe ff ff       	jmp    297d <loc_service_get_id+0x2d>
    2b27:	90                   	nop
    2b28:	83 ec 0c             	sub    $0xc,%esp
    2b2b:	53                   	push   %ebx
    2b2c:	e8 af 49 01 00       	call   174e0 <async_forget>
    2b31:	8b 45 c0             	mov    -0x40(%ebp),%eax
    2b34:	83 c4 10             	add    $0x10,%esp
    2b37:	8d 65 f4             	lea    -0xc(%ebp),%esp
    2b3a:	5b                   	pop    %ebx
    2b3b:	5e                   	pop    %esi
    2b3c:	5f                   	pop    %edi
    2b3d:	5d                   	pop    %ebp
    2b3e:	c3                   	ret    
    2b3f:	50                   	push   %eax
    2b40:	6a 00                	push   $0x0
    2b42:	68 c1 7e 8f c7       	push   $0xc78f7ec1
    2b47:	68 6c 6f 63 20       	push   $0x20636f6c
    2b4c:	e8 3f 21 01 00       	call   14c90 <service_connect>
    2b51:	83 c4 10             	add    $0x10,%esp
    2b54:	a3 f0 7a 02 00       	mov    %eax,0x27af0
    2b59:	e9 57 ff ff ff       	jmp    2ab5 <loc_service_get_id+0x165>
    2b5e:	31 c0                	xor    %eax,%eax
    2b60:	e9 28 ff ff ff       	jmp    2a8d <loc_service_get_id+0x13d>
    2b65:	8d 74 26 00          	lea    0x0(%esi,%eiz,1),%esi
    2b69:	8d bc 27 00 00 00 00 	lea    0x0(%edi,%eiz,1),%edi

00002b70 <loc_category_get_name>:
    2b70:	55                   	push   %ebp
    2b71:	b8 0b 04 00 00       	mov    $0x40b,%eax
    2b76:	89 e5                	mov    %esp,%ebp
    2b78:	8b 4d 0c             	mov    0xc(%ebp),%ecx
    2b7b:	8b 55 08             	mov    0x8(%ebp),%edx
    2b7e:	5d                   	pop    %ebp
    2b7f:	e9 bc f4 ff ff       	jmp    2040 <loc_get_name_internal>
    2b84:	8d b6 00 00 00 00    	lea    0x0(%esi),%esi
    2b8a:	8d bf 00 00 00 00    	lea    0x0(%edi),%edi

00002b90 <loc_service_get_name>:
    2b90:	55                   	push   %ebp
    2b91:	b8 06 04 00 00       	mov    $0x406,%eax
    2b96:	89 e5                	mov    %esp,%ebp
    2b98:	8b 4d 0c             	mov    0xc(%ebp),%ecx
    2b9b:	8b 55 08             	mov    0x8(%ebp),%edx
    2b9e:	5d                   	pop    %ebp
    2b9f:	e9 9c f4 ff ff       	jmp    2040 <loc_get_name_internal>
    2ba4:	8d b6 00 00 00 00    	lea    0x0(%esi),%esi
    2baa:	8d bf 00 00 00 00    	lea    0x0(%edi),%edi

00002bb0 <loc_service_get_server_name>:
    2bb0:	55                   	push   %ebp
    2bb1:	b8 07 04 00 00       	mov    $0x407,%eax
    2bb6:	89 e5                	mov    %esp,%ebp
    2bb8:	8b 4d 0c             	mov    0xc(%ebp),%ecx
    2bbb:	8b 55 08             	mov    0x8(%ebp),%edx
    2bbe:	5d                   	pop    %ebp
    2bbf:	e9 7c f4 ff ff       	jmp    2040 <loc_get_name_internal>
    2bc4:	8d b6 00 00 00 00    	lea    0x0(%esi),%esi
    2bca:	8d bf 00 00 00 00    	lea    0x0(%edi),%edi

00002bd0 <loc_namespace_get_id>:
    2bd0:	55                   	push   %ebp
    2bd1:	89 e5                	mov    %esp,%ebp
    2bd3:	57                   	push   %edi
    2bd4:	56                   	push   %esi
    2bd5:	53                   	push   %ebx
    2bd6:	83 ec 3c             	sub    $0x3c,%esp
    2bd9:	8b 5d 10             	mov    0x10(%ebp),%ebx
    2bdc:	8b 75 08             	mov    0x8(%ebp),%esi
    2bdf:	f6 c3 01             	test   $0x1,%bl
    2be2:	0f 84 30 01 00 00    	je     2d18 <loc_namespace_get_id+0x148>
    2be8:	83 ec 0c             	sub    $0xc,%esp
    2beb:	68 90 78 02 00       	push   $0x27890
    2bf0:	e8 0b 64 00 00       	call   9000 <fibril_mutex_lock>
    2bf5:	a1 f8 7a 02 00       	mov    0x27af8,%eax
    2bfa:	83 c4 10             	add    $0x10,%esp
    2bfd:	85 c0                	test   %eax,%eax
    2bff:	75 47                	jne    2c48 <loc_namespace_get_id+0x78>
    2c01:	83 ec 0c             	sub    $0xc,%esp
    2c04:	8b 3d f0 7a 02 00    	mov    0x27af0,%edi
    2c0a:	68 70 78 02 00       	push   $0x27870
    2c0f:	e8 ec 63 00 00       	call   9000 <fibril_mutex_lock>
    2c14:	a1 f8 7a 02 00       	mov    0x27af8,%eax
    2c19:	83 c4 10             	add    $0x10,%esp
    2c1c:	85 c0                	test   %eax,%eax
    2c1e:	75 0a                	jne    2c2a <loc_namespace_get_id+0x5a>
    2c20:	85 ff                	test   %edi,%edi
    2c22:	74 06                	je     2c2a <loc_namespace_get_id+0x5a>
    2c24:	89 3d f8 7a 02 00    	mov    %edi,0x27af8
    2c2a:	83 ec 0c             	sub    $0xc,%esp
    2c2d:	68 70 78 02 00       	push   $0x27870
    2c32:	e8 49 65 00 00       	call   9180 <fibril_mutex_unlock>
    2c37:	8b 3d f8 7a 02 00    	mov    0x27af8,%edi
    2c3d:	83 c4 10             	add    $0x10,%esp
    2c40:	85 ff                	test   %edi,%edi
    2c42:	0f 84 40 01 00 00    	je     2d88 <loc_namespace_get_id+0x1b8>
    2c48:	83 ec 0c             	sub    $0xc,%esp
    2c4b:	68 90 78 02 00       	push   $0x27890
    2c50:	e8 2b 65 00 00       	call   9180 <fibril_mutex_unlock>
    2c55:	c7 04 24 70 78 02 00 	movl   $0x27870,(%esp)
    2c5c:	8b 3d f8 7a 02 00    	mov    0x27af8,%edi
    2c62:	e8 99 63 00 00       	call   9000 <fibril_mutex_lock>
    2c67:	8b 15 f0 7a 02 00    	mov    0x27af0,%edx
    2c6d:	83 c4 10             	add    $0x10,%esp
    2c70:	85 d2                	test   %edx,%edx
    2c72:	75 0a                	jne    2c7e <loc_namespace_get_id+0xae>
    2c74:	85 ff                	test   %edi,%edi
    2c76:	74 06                	je     2c7e <loc_namespace_get_id+0xae>
    2c78:	89 3d f0 7a 02 00    	mov    %edi,0x27af0
    2c7e:	83 ec 0c             	sub    $0xc,%esp
    2c81:	68 70 78 02 00       	push   $0x27870
    2c86:	e8 f5 64 00 00       	call   9180 <fibril_mutex_unlock>
    2c8b:	58                   	pop    %eax
    2c8c:	a1 f8 7a 02 00       	mov    0x27af8,%eax
    2c91:	50                   	push   %eax
    2c92:	e8 b9 5c 01 00       	call   18950 <async_exchange_begin>
    2c97:	83 c4 10             	add    $0x10,%esp
    2c9a:	89 c7                	mov    %eax,%edi
    2c9c:	50                   	push   %eax
    2c9d:	8d 45 c4             	lea    -0x3c(%ebp),%eax
    2ca0:	50                   	push   %eax
    2ca1:	6a 00                	push   $0x0
    2ca3:	6a 00                	push   $0x0
    2ca5:	6a 00                	push   $0x0
    2ca7:	53                   	push   %ebx
    2ca8:	68 08 04 00 00       	push   $0x408
    2cad:	57                   	push   %edi
    2cae:	e8 dd 3f 01 00       	call   16c90 <async_send_fast>
    2cb3:	83 c4 14             	add    $0x14,%esp
    2cb6:	89 c3                	mov    %eax,%ebx
    2cb8:	56                   	push   %esi
    2cb9:	e8 f2 16 00 00       	call   43b0 <str_size>
    2cbe:	83 c4 0c             	add    $0xc,%esp
    2cc1:	50                   	push   %eax
    2cc2:	56                   	push   %esi
    2cc3:	57                   	push   %edi
    2cc4:	e8 e7 69 01 00       	call   196b0 <async_data_write_start>
    2cc9:	89 3c 24             	mov    %edi,(%esp)
    2ccc:	89 45 c0             	mov    %eax,-0x40(%ebp)
    2ccf:	e8 6c 5f 01 00       	call   18c40 <async_exchange_end>
    2cd4:	8b 45 c0             	mov    -0x40(%ebp),%eax
    2cd7:	83 c4 10             	add    $0x10,%esp
    2cda:	85 c0                	test   %eax,%eax
    2cdc:	0f 85 c6 00 00 00    	jne    2da8 <loc_namespace_get_id+0x1d8>
    2ce2:	8d 45 c0             	lea    -0x40(%ebp),%eax
    2ce5:	51                   	push   %ecx
    2ce6:	51                   	push   %ecx
    2ce7:	50                   	push   %eax
    2ce8:	53                   	push   %ebx
    2ce9:	e8 22 41 01 00       	call   16e10 <async_wait_for>
    2cee:	8b 45 c0             	mov    -0x40(%ebp),%eax
    2cf1:	83 c4 10             	add    $0x10,%esp
    2cf4:	85 c0                	test   %eax,%eax
    2cf6:	75 78                	jne    2d70 <loc_namespace_get_id+0x1a0>
    2cf8:	8b 45 0c             	mov    0xc(%ebp),%eax
    2cfb:	85 c0                	test   %eax,%eax
    2cfd:	0f 84 db 00 00 00    	je     2dde <loc_namespace_get_id+0x20e>
    2d03:	8b 4d 0c             	mov    0xc(%ebp),%ecx
    2d06:	8b 45 c8             	mov    -0x38(%ebp),%eax
    2d09:	89 01                	mov    %eax,(%ecx)
    2d0b:	31 c0                	xor    %eax,%eax
    2d0d:	8d 65 f4             	lea    -0xc(%ebp),%esp
    2d10:	5b                   	pop    %ebx
    2d11:	5e                   	pop    %esi
    2d12:	5f                   	pop    %edi
    2d13:	5d                   	pop    %ebp
    2d14:	c3                   	ret    
    2d15:	8d 76 00             	lea    0x0(%esi),%esi
    2d18:	83 ec 0c             	sub    $0xc,%esp
    2d1b:	68 70 78 02 00       	push   $0x27870
    2d20:	e8 db 62 00 00       	call   9000 <fibril_mutex_lock>
    2d25:	a1 f0 7a 02 00       	mov    0x27af0,%eax
    2d2a:	83 c4 10             	add    $0x10,%esp
    2d2d:	85 c0                	test   %eax,%eax
    2d2f:	0f 84 8a 00 00 00    	je     2dbf <loc_namespace_get_id+0x1ef>
    2d35:	83 ec 0c             	sub    $0xc,%esp
    2d38:	68 70 78 02 00       	push   $0x27870
    2d3d:	e8 3e 64 00 00       	call   9180 <fibril_mutex_unlock>
    2d42:	a1 f0 7a 02 00       	mov    0x27af0,%eax
    2d47:	83 c4 10             	add    $0x10,%esp
    2d4a:	85 c0                	test   %eax,%eax
    2d4c:	74 16                	je     2d64 <loc_namespace_get_id+0x194>
    2d4e:	83 ec 0c             	sub    $0xc,%esp
    2d51:	50                   	push   %eax
    2d52:	e8 f9 5b 01 00       	call   18950 <async_exchange_begin>
    2d57:	83 c4 10             	add    $0x10,%esp
    2d5a:	89 c7                	mov    %eax,%edi
    2d5c:	85 c0                	test   %eax,%eax
    2d5e:	0f 85 38 ff ff ff    	jne    2c9c <loc_namespace_get_id+0xcc>
    2d64:	e8 57 ec 01 00       	call   219c0 <__errno>
    2d69:	8b 00                	mov    (%eax),%eax
    2d6b:	eb a0                	jmp    2d0d <loc_namespace_get_id+0x13d>
    2d6d:	8d 76 00             	lea    0x0(%esi),%esi
    2d70:	8b 55 0c             	mov    0xc(%ebp),%edx
    2d73:	85 d2                	test   %edx,%edx
    2d75:	74 96                	je     2d0d <loc_namespace_get_id+0x13d>
    2d77:	8b 55 0c             	mov    0xc(%ebp),%edx
    2d7a:	c7 02 ff ff ff ff    	movl   $0xffffffff,(%edx)
    2d80:	8d 65 f4             	lea    -0xc(%ebp),%esp
    2d83:	5b                   	pop    %ebx
    2d84:	5e                   	pop    %esi
    2d85:	5f                   	pop    %edi
    2d86:	5d                   	pop    %ebp
    2d87:	c3                   	ret    
    2d88:	51                   	push   %ecx
    2d89:	6a 00                	push   $0x0
    2d8b:	68 c1 7e 8f c7       	push   $0xc78f7ec1
    2d90:	68 6c 6f 63 20       	push   $0x20636f6c
    2d95:	e8 66 1f 01 00       	call   14d00 <service_connect_blocking>
    2d9a:	83 c4 10             	add    $0x10,%esp
    2d9d:	a3 f8 7a 02 00       	mov    %eax,0x27af8
    2da2:	e9 56 fe ff ff       	jmp    2bfd <loc_namespace_get_id+0x2d>
    2da7:	90                   	nop
    2da8:	83 ec 0c             	sub    $0xc,%esp
    2dab:	53                   	push   %ebx
    2dac:	e8 2f 47 01 00       	call   174e0 <async_forget>
    2db1:	8b 45 c0             	mov    -0x40(%ebp),%eax
    2db4:	83 c4 10             	add    $0x10,%esp
    2db7:	8d 65 f4             	lea    -0xc(%ebp),%esp
    2dba:	5b                   	pop    %ebx
    2dbb:	5e                   	pop    %esi
    2dbc:	5f                   	pop    %edi
    2dbd:	5d                   	pop    %ebp
    2dbe:	c3                   	ret    
    2dbf:	50                   	push   %eax
    2dc0:	6a 00                	push   $0x0
    2dc2:	68 c1 7e 8f c7       	push   $0xc78f7ec1
    2dc7:	68 6c 6f 63 20       	push   $0x20636f6c
    2dcc:	e8 bf 1e 01 00       	call   14c90 <service_connect>
    2dd1:	83 c4 10             	add    $0x10,%esp
    2dd4:	a3 f0 7a 02 00       	mov    %eax,0x27af0
    2dd9:	e9 57 ff ff ff       	jmp    2d35 <loc_namespace_get_id+0x165>
    2dde:	31 c0                	xor    %eax,%eax
    2de0:	e9 28 ff ff ff       	jmp    2d0d <loc_namespace_get_id+0x13d>
    2de5:	8d 74 26 00          	lea    0x0(%esi,%eiz,1),%esi
    2de9:	8d bc 27 00 00 00 00 	lea    0x0(%edi,%eiz,1),%edi

00002df0 <loc_category_get_id>:
    2df0:	55                   	push   %ebp
    2df1:	89 e5                	mov    %esp,%ebp
    2df3:	57                   	push   %edi
    2df4:	56                   	push   %esi
    2df5:	53                   	push   %ebx
    2df6:	83 ec 3c             	sub    $0x3c,%esp
    2df9:	8b 75 08             	mov    0x8(%ebp),%esi
    2dfc:	f6 45 10 01          	testb  $0x1,0x10(%ebp)
    2e00:	0f 84 32 01 00 00    	je     2f38 <loc_category_get_id+0x148>
    2e06:	83 ec 0c             	sub    $0xc,%esp
    2e09:	68 90 78 02 00       	push   $0x27890
    2e0e:	e8 ed 61 00 00       	call   9000 <fibril_mutex_lock>
    2e13:	a1 f8 7a 02 00       	mov    0x27af8,%eax
    2e18:	83 c4 10             	add    $0x10,%esp
    2e1b:	85 c0                	test   %eax,%eax
    2e1d:	75 48                	jne    2e67 <loc_category_get_id+0x77>
    2e1f:	83 ec 0c             	sub    $0xc,%esp
    2e22:	8b 1d f0 7a 02 00    	mov    0x27af0,%ebx
    2e28:	68 70 78 02 00       	push   $0x27870
    2e2d:	e8 ce 61 00 00       	call   9000 <fibril_mutex_lock>
    2e32:	8b 3d f8 7a 02 00    	mov    0x27af8,%edi
    2e38:	83 c4 10             	add    $0x10,%esp
    2e3b:	85 ff                	test   %edi,%edi
    2e3d:	75 0a                	jne    2e49 <loc_category_get_id+0x59>
    2e3f:	85 db                	test   %ebx,%ebx
    2e41:	74 06                	je     2e49 <loc_category_get_id+0x59>
    2e43:	89 1d f8 7a 02 00    	mov    %ebx,0x27af8
    2e49:	83 ec 0c             	sub    $0xc,%esp
    2e4c:	68 70 78 02 00       	push   $0x27870
    2e51:	e8 2a 63 00 00       	call   9180 <fibril_mutex_unlock>
    2e56:	8b 0d f8 7a 02 00    	mov    0x27af8,%ecx
    2e5c:	83 c4 10             	add    $0x10,%esp
    2e5f:	85 c9                	test   %ecx,%ecx
    2e61:	0f 84 41 01 00 00    	je     2fa8 <loc_category_get_id+0x1b8>
    2e67:	83 ec 0c             	sub    $0xc,%esp
    2e6a:	68 90 78 02 00       	push   $0x27890
    2e6f:	e8 0c 63 00 00       	call   9180 <fibril_mutex_unlock>
    2e74:	c7 04 24 70 78 02 00 	movl   $0x27870,(%esp)
    2e7b:	8b 1d f8 7a 02 00    	mov    0x27af8,%ebx
    2e81:	e8 7a 61 00 00       	call   9000 <fibril_mutex_lock>
    2e86:	a1 f0 7a 02 00       	mov    0x27af0,%eax
    2e8b:	83 c4 10             	add    $0x10,%esp
    2e8e:	85 c0                	test   %eax,%eax
    2e90:	75 0a                	jne    2e9c <loc_category_get_id+0xac>
    2e92:	85 db                	test   %ebx,%ebx
    2e94:	74 06                	je     2e9c <loc_category_get_id+0xac>
    2e96:	89 1d f0 7a 02 00    	mov    %ebx,0x27af0
    2e9c:	83 ec 0c             	sub    $0xc,%esp
    2e9f:	68 70 78 02 00       	push   $0x27870
    2ea4:	e8 d7 62 00 00       	call   9180 <fibril_mutex_unlock>
    2ea9:	58                   	pop    %eax
    2eaa:	a1 f8 7a 02 00       	mov    0x27af8,%eax
    2eaf:	50                   	push   %eax
    2eb0:	e8 9b 5a 01 00       	call   18950 <async_exchange_begin>
    2eb5:	83 c4 10             	add    $0x10,%esp
    2eb8:	89 c3                	mov    %eax,%ebx
    2eba:	8d 45 c4             	lea    -0x3c(%ebp),%eax
    2ebd:	57                   	push   %edi
    2ebe:	50                   	push   %eax
    2ebf:	6a 00                	push   $0x0
    2ec1:	6a 00                	push   $0x0
    2ec3:	6a 00                	push   $0x0
    2ec5:	6a 00                	push   $0x0
    2ec7:	68 0a 04 00 00       	push   $0x40a
    2ecc:	53                   	push   %ebx
    2ecd:	e8 be 3d 01 00       	call   16c90 <async_send_fast>
    2ed2:	83 c4 14             	add    $0x14,%esp
    2ed5:	89 c7                	mov    %eax,%edi
    2ed7:	56                   	push   %esi
    2ed8:	e8 d3 14 00 00       	call   43b0 <str_size>
    2edd:	83 c4 0c             	add    $0xc,%esp
    2ee0:	50                   	push   %eax
    2ee1:	56                   	push   %esi
    2ee2:	53                   	push   %ebx
    2ee3:	e8 c8 67 01 00       	call   196b0 <async_data_write_start>
    2ee8:	89 1c 24             	mov    %ebx,(%esp)
    2eeb:	89 45 c0             	mov    %eax,-0x40(%ebp)
    2eee:	e8 4d 5d 01 00       	call   18c40 <async_exchange_end>
    2ef3:	8b 45 c0             	mov    -0x40(%ebp),%eax
    2ef6:	83 c4 10             	add    $0x10,%esp
    2ef9:	85 c0                	test   %eax,%eax
    2efb:	0f 85 c7 00 00 00    	jne    2fc8 <loc_category_get_id+0x1d8>
    2f01:	8d 45 c0             	lea    -0x40(%ebp),%eax
    2f04:	51                   	push   %ecx
    2f05:	51                   	push   %ecx
    2f06:	50                   	push   %eax
    2f07:	57                   	push   %edi
    2f08:	e8 03 3f 01 00       	call   16e10 <async_wait_for>
    2f0d:	8b 45 c0             	mov    -0x40(%ebp),%eax
    2f10:	83 c4 10             	add    $0x10,%esp
    2f13:	85 c0                	test   %eax,%eax
    2f15:	75 79                	jne    2f90 <loc_category_get_id+0x1a0>
    2f17:	8b 45 0c             	mov    0xc(%ebp),%eax
    2f1a:	85 c0                	test   %eax,%eax
    2f1c:	0f 84 dc 00 00 00    	je     2ffe <loc_category_get_id+0x20e>
    2f22:	8b 4d 0c             	mov    0xc(%ebp),%ecx
    2f25:	8b 45 c8             	mov    -0x38(%ebp),%eax
    2f28:	89 01                	mov    %eax,(%ecx)
    2f2a:	31 c0                	xor    %eax,%eax
    2f2c:	8d 65 f4             	lea    -0xc(%ebp),%esp
    2f2f:	5b                   	pop    %ebx
    2f30:	5e                   	pop    %esi
    2f31:	5f                   	pop    %edi
    2f32:	5d                   	pop    %ebp
    2f33:	c3                   	ret    
    2f34:	8d 74 26 00          	lea    0x0(%esi,%eiz,1),%esi
    2f38:	83 ec 0c             	sub    $0xc,%esp
    2f3b:	68 70 78 02 00       	push   $0x27870
    2f40:	e8 bb 60 00 00       	call   9000 <fibril_mutex_lock>
    2f45:	a1 f0 7a 02 00       	mov    0x27af0,%eax
    2f4a:	83 c4 10             	add    $0x10,%esp
    2f4d:	85 c0                	test   %eax,%eax
    2f4f:	0f 84 8a 00 00 00    	je     2fdf <loc_category_get_id+0x1ef>
    2f55:	83 ec 0c             	sub    $0xc,%esp
    2f58:	68 70 78 02 00       	push   $0x27870
    2f5d:	e8 1e 62 00 00       	call   9180 <fibril_mutex_unlock>
    2f62:	a1 f0 7a 02 00       	mov    0x27af0,%eax
    2f67:	83 c4 10             	add    $0x10,%esp
    2f6a:	85 c0                	test   %eax,%eax
    2f6c:	74 16                	je     2f84 <loc_category_get_id+0x194>
    2f6e:	83 ec 0c             	sub    $0xc,%esp
    2f71:	50                   	push   %eax
    2f72:	e8 d9 59 01 00       	call   18950 <async_exchange_begin>
    2f77:	83 c4 10             	add    $0x10,%esp
    2f7a:	89 c3                	mov    %eax,%ebx
    2f7c:	85 c0                	test   %eax,%eax
    2f7e:	0f 85 36 ff ff ff    	jne    2eba <loc_category_get_id+0xca>
    2f84:	e8 37 ea 01 00       	call   219c0 <__errno>
    2f89:	8b 00                	mov    (%eax),%eax
    2f8b:	eb 9f                	jmp    2f2c <loc_category_get_id+0x13c>
    2f8d:	8d 76 00             	lea    0x0(%esi),%esi
    2f90:	8b 55 0c             	mov    0xc(%ebp),%edx
    2f93:	85 d2                	test   %edx,%edx
    2f95:	74 95                	je     2f2c <loc_category_get_id+0x13c>
    2f97:	8b 55 0c             	mov    0xc(%ebp),%edx
    2f9a:	c7 02 ff ff ff ff    	movl   $0xffffffff,(%edx)
    2fa0:	8d 65 f4             	lea    -0xc(%ebp),%esp
    2fa3:	5b                   	pop    %ebx
    2fa4:	5e                   	pop    %esi
    2fa5:	5f                   	pop    %edi
    2fa6:	5d                   	pop    %ebp
    2fa7:	c3                   	ret    
    2fa8:	52                   	push   %edx
    2fa9:	6a 00                	push   $0x0
    2fab:	68 c1 7e 8f c7       	push   $0xc78f7ec1
    2fb0:	68 6c 6f 63 20       	push   $0x20636f6c
    2fb5:	e8 46 1d 01 00       	call   14d00 <service_connect_blocking>
    2fba:	83 c4 10             	add    $0x10,%esp
    2fbd:	a3 f8 7a 02 00       	mov    %eax,0x27af8
    2fc2:	e9 54 fe ff ff       	jmp    2e1b <loc_category_get_id+0x2b>
    2fc7:	90                   	nop
    2fc8:	83 ec 0c             	sub    $0xc,%esp
    2fcb:	57                   	push   %edi
    2fcc:	e8 0f 45 01 00       	call   174e0 <async_forget>
    2fd1:	8b 45 c0             	mov    -0x40(%ebp),%eax
    2fd4:	83 c4 10             	add    $0x10,%esp
    2fd7:	8d 65 f4             	lea    -0xc(%ebp),%esp
    2fda:	5b                   	pop    %ebx
    2fdb:	5e                   	pop    %esi
    2fdc:	5f                   	pop    %edi
    2fdd:	5d                   	pop    %ebp
    2fde:	c3                   	ret    
    2fdf:	50                   	push   %eax
    2fe0:	6a 00                	push   $0x0
    2fe2:	68 c1 7e 8f c7       	push   $0xc78f7ec1
    2fe7:	68 6c 6f 63 20       	push   $0x20636f6c
    2fec:	e8 9f 1c 01 00       	call   14c90 <service_connect>
    2ff1:	83 c4 10             	add    $0x10,%esp
    2ff4:	a3 f0 7a 02 00       	mov    %eax,0x27af0
    2ff9:	e9 57 ff ff ff       	jmp    2f55 <loc_category_get_id+0x165>
    2ffe:	31 c0                	xor    %eax,%eax
    3000:	e9 27 ff ff ff       	jmp    2f2c <loc_category_get_id+0x13c>
    3005:	8d 74 26 00          	lea    0x0(%esi,%eiz,1),%esi
    3009:	8d bc 27 00 00 00 00 	lea    0x0(%edi,%eiz,1),%edi

00003010 <loc_id_probe>:
    3010:	55                   	push   %ebp
    3011:	89 e5                	mov    %esp,%ebp
    3013:	56                   	push   %esi
    3014:	53                   	push   %ebx
    3015:	83 ec 1c             	sub    $0x1c,%esp
    3018:	68 90 78 02 00       	push   $0x27890
    301d:	e8 de 5f 00 00       	call   9000 <fibril_mutex_lock>
    3022:	a1 f8 7a 02 00       	mov    0x27af8,%eax
    3027:	83 c4 10             	add    $0x10,%esp
    302a:	85 c0                	test   %eax,%eax
    302c:	75 46                	jne    3074 <loc_id_probe+0x64>
    302e:	83 ec 0c             	sub    $0xc,%esp
    3031:	8b 1d f0 7a 02 00    	mov    0x27af0,%ebx
    3037:	68 70 78 02 00       	push   $0x27870
    303c:	e8 bf 5f 00 00       	call   9000 <fibril_mutex_lock>
    3041:	a1 f8 7a 02 00       	mov    0x27af8,%eax
    3046:	83 c4 10             	add    $0x10,%esp
    3049:	85 c0                	test   %eax,%eax
    304b:	75 0a                	jne    3057 <loc_id_probe+0x47>
    304d:	85 db                	test   %ebx,%ebx
    304f:	74 06                	je     3057 <loc_id_probe+0x47>
    3051:	89 1d f8 7a 02 00    	mov    %ebx,0x27af8
    3057:	83 ec 0c             	sub    $0xc,%esp
    305a:	68 70 78 02 00       	push   $0x27870
    305f:	e8 1c 61 00 00       	call   9180 <fibril_mutex_unlock>
    3064:	a1 f8 7a 02 00       	mov    0x27af8,%eax
    3069:	83 c4 10             	add    $0x10,%esp
    306c:	85 c0                	test   %eax,%eax
    306e:	0f 84 94 00 00 00    	je     3108 <loc_id_probe+0xf8>
    3074:	83 ec 0c             	sub    $0xc,%esp
    3077:	68 90 78 02 00       	push   $0x27890
    307c:	e8 ff 60 00 00       	call   9180 <fibril_mutex_unlock>
    3081:	c7 04 24 70 78 02 00 	movl   $0x27870,(%esp)
    3088:	8b 1d f8 7a 02 00    	mov    0x27af8,%ebx
    308e:	e8 6d 5f 00 00       	call   9000 <fibril_mutex_lock>
    3093:	8b 35 f0 7a 02 00    	mov    0x27af0,%esi
    3099:	83 c4 10             	add    $0x10,%esp
    309c:	85 f6                	test   %esi,%esi
    309e:	75 0a                	jne    30aa <loc_id_probe+0x9a>
    30a0:	85 db                	test   %ebx,%ebx
    30a2:	74 06                	je     30aa <loc_id_probe+0x9a>
    30a4:	89 1d f0 7a 02 00    	mov    %ebx,0x27af0
    30aa:	83 ec 0c             	sub    $0xc,%esp
    30ad:	68 70 78 02 00       	push   $0x27870
    30b2:	e8 c9 60 00 00       	call   9180 <fibril_mutex_unlock>
    30b7:	8b 15 f8 7a 02 00    	mov    0x27af8,%edx
    30bd:	58                   	pop    %eax
    30be:	52                   	push   %edx
    30bf:	e8 8c 58 01 00       	call   18950 <async_exchange_begin>
    30c4:	83 c4 0c             	add    $0xc,%esp
    30c7:	89 c3                	mov    %eax,%ebx
    30c9:	8b 4d 08             	mov    0x8(%ebp),%ecx
    30cc:	8d 45 f4             	lea    -0xc(%ebp),%eax
    30cf:	6a 00                	push   $0x0
    30d1:	6a 00                	push   $0x0
    30d3:	6a 00                	push   $0x0
    30d5:	6a 00                	push   $0x0
    30d7:	50                   	push   %eax
    30d8:	6a 00                	push   $0x0
    30da:	6a 00                	push   $0x0
    30dc:	6a 00                	push   $0x0
    30de:	51                   	push   %ecx
    30df:	68 0d 04 00 00       	push   $0x40d
    30e4:	53                   	push   %ebx
    30e5:	e8 66 46 01 00       	call   17750 <async_req_fast>
    30ea:	83 c4 24             	add    $0x24,%esp
    30ed:	89 c6                	mov    %eax,%esi
    30ef:	53                   	push   %ebx
    30f0:	e8 4b 5b 01 00       	call   18c40 <async_exchange_end>
    30f5:	83 c4 10             	add    $0x10,%esp
    30f8:	31 c0                	xor    %eax,%eax
    30fa:	85 f6                	test   %esi,%esi
    30fc:	75 03                	jne    3101 <loc_id_probe+0xf1>
    30fe:	8b 45 f4             	mov    -0xc(%ebp),%eax
    3101:	8d 65 f8             	lea    -0x8(%ebp),%esp
    3104:	5b                   	pop    %ebx
    3105:	5e                   	pop    %esi
    3106:	5d                   	pop    %ebp
    3107:	c3                   	ret    
    3108:	50                   	push   %eax
    3109:	6a 00                	push   $0x0
    310b:	68 c1 7e 8f c7       	push   $0xc78f7ec1
    3110:	68 6c 6f 63 20       	push   $0x20636f6c
    3115:	e8 e6 1b 01 00       	call   14d00 <service_connect_blocking>
    311a:	83 c4 10             	add    $0x10,%esp
    311d:	a3 f8 7a 02 00       	mov    %eax,0x27af8
    3122:	e9 03 ff ff ff       	jmp    302a <loc_id_probe+0x1a>
    3127:	89 f6                	mov    %esi,%esi
    3129:	8d bc 27 00 00 00 00 	lea    0x0(%edi,%eiz,1),%edi

00003130 <loc_service_connect>:
    3130:	55                   	push   %ebp
    3131:	89 e5                	mov    %esp,%ebp
    3133:	8b 55 08             	mov    0x8(%ebp),%edx
    3136:	f6 45 10 01          	testb  $0x1,0x10(%ebp)
    313a:	8b 45 0c             	mov    0xc(%ebp),%eax
    313d:	89 55 10             	mov    %edx,0x10(%ebp)
    3140:	75 16                	jne    3158 <loc_service_connect+0x28>
    3142:	89 45 0c             	mov    %eax,0xc(%ebp)
    3145:	c7 45 08 6c 6f 63 20 	movl   $0x20636f6c,0x8(%ebp)
    314c:	5d                   	pop    %ebp
    314d:	e9 3e 1b 01 00       	jmp    14c90 <service_connect>
    3152:	8d b6 00 00 00 00    	lea    0x0(%esi),%esi
    3158:	c7 45 08 6c 6f 63 20 	movl   $0x20636f6c,0x8(%ebp)
    315f:	5d                   	pop    %ebp
    3160:	e9 9b 1b 01 00       	jmp    14d00 <service_connect_blocking>
    3165:	8d 74 26 00          	lea    0x0(%esi,%eiz,1),%esi
    3169:	8d bc 27 00 00 00 00 	lea    0x0(%edi,%eiz,1),%edi

00003170 <loc_null_create>:
    3170:	55                   	push   %ebp
    3171:	89 e5                	mov    %esp,%ebp
    3173:	56                   	push   %esi
    3174:	53                   	push   %ebx
    3175:	83 ec 1c             	sub    $0x1c,%esp
    3178:	68 90 78 02 00       	push   $0x27890
    317d:	e8 7e 5e 00 00       	call   9000 <fibril_mutex_lock>
    3182:	a1 f8 7a 02 00       	mov    0x27af8,%eax
    3187:	83 c4 10             	add    $0x10,%esp
    318a:	85 c0                	test   %eax,%eax
    318c:	75 47                	jne    31d5 <loc_null_create+0x65>
    318e:	83 ec 0c             	sub    $0xc,%esp
    3191:	8b 1d f0 7a 02 00    	mov    0x27af0,%ebx
    3197:	68 70 78 02 00       	push   $0x27870
    319c:	e8 5f 5e 00 00       	call   9000 <fibril_mutex_lock>
    31a1:	a1 f8 7a 02 00       	mov    0x27af8,%eax
    31a6:	83 c4 10             	add    $0x10,%esp
    31a9:	85 c0                	test   %eax,%eax
    31ab:	75 0a                	jne    31b7 <loc_null_create+0x47>
    31ad:	85 db                	test   %ebx,%ebx
    31af:	74 06                	je     31b7 <loc_null_create+0x47>
    31b1:	89 1d f8 7a 02 00    	mov    %ebx,0x27af8
    31b7:	83 ec 0c             	sub    $0xc,%esp
    31ba:	68 70 78 02 00       	push   $0x27870
    31bf:	e8 bc 5f 00 00       	call   9180 <fibril_mutex_unlock>
    31c4:	8b 35 f8 7a 02 00    	mov    0x27af8,%esi
    31ca:	83 c4 10             	add    $0x10,%esp
    31cd:	85 f6                	test   %esi,%esi
    31cf:	0f 84 93 00 00 00    	je     3268 <loc_null_create+0xf8>
    31d5:	83 ec 0c             	sub    $0xc,%esp
    31d8:	68 90 78 02 00       	push   $0x27890
    31dd:	e8 9e 5f 00 00       	call   9180 <fibril_mutex_unlock>
    31e2:	c7 04 24 70 78 02 00 	movl   $0x27870,(%esp)
    31e9:	8b 1d f8 7a 02 00    	mov    0x27af8,%ebx
    31ef:	e8 0c 5e 00 00       	call   9000 <fibril_mutex_lock>
    31f4:	8b 0d f0 7a 02 00    	mov    0x27af0,%ecx
    31fa:	83 c4 10             	add    $0x10,%esp
    31fd:	85 c9                	test   %ecx,%ecx
    31ff:	75 0a                	jne    320b <loc_null_create+0x9b>
    3201:	85 db                	test   %ebx,%ebx
    3203:	74 06                	je     320b <loc_null_create+0x9b>
    3205:	89 1d f0 7a 02 00    	mov    %ebx,0x27af0
    320b:	83 ec 0c             	sub    $0xc,%esp
    320e:	68 70 78 02 00       	push   $0x27870
    3213:	e8 68 5f 00 00       	call   9180 <fibril_mutex_unlock>
    3218:	8b 15 f8 7a 02 00    	mov    0x27af8,%edx
    321e:	58                   	pop    %eax
    321f:	52                   	push   %edx
    3220:	e8 2b 57 01 00       	call   18950 <async_exchange_begin>
    3225:	83 c4 0c             	add    $0xc,%esp
    3228:	89 c3                	mov    %eax,%ebx
    322a:	8d 45 f4             	lea    -0xc(%ebp),%eax
    322d:	6a 00                	push   $0x0
    322f:	6a 00                	push   $0x0
    3231:	6a 00                	push   $0x0
    3233:	6a 00                	push   $0x0
    3235:	50                   	push   %eax
    3236:	6a 00                	push   $0x0
    3238:	6a 00                	push   $0x0
    323a:	6a 00                	push   $0x0
    323c:	6a 00                	push   $0x0
    323e:	68 0e 04 00 00       	push   $0x40e
    3243:	53                   	push   %ebx
    3244:	e8 07 45 01 00       	call   17750 <async_req_fast>
    3249:	83 c4 24             	add    $0x24,%esp
    324c:	89 c6                	mov    %eax,%esi
    324e:	53                   	push   %ebx
    324f:	e8 ec 59 01 00       	call   18c40 <async_exchange_end>
    3254:	83 c4 10             	add    $0x10,%esp
    3257:	85 f6                	test   %esi,%esi
    3259:	75 2c                	jne    3287 <loc_null_create+0x117>
    325b:	8b 45 f4             	mov    -0xc(%ebp),%eax
    325e:	8d 65 f8             	lea    -0x8(%ebp),%esp
    3261:	5b                   	pop    %ebx
    3262:	5e                   	pop    %esi
    3263:	5d                   	pop    %ebp
    3264:	c3                   	ret    
    3265:	8d 76 00             	lea    0x0(%esi),%esi
    3268:	53                   	push   %ebx
    3269:	6a 00                	push   $0x0
    326b:	68 c1 7e 8f c7       	push   $0xc78f7ec1
    3270:	68 6c 6f 63 20       	push   $0x20636f6c
    3275:	e8 86 1a 01 00       	call   14d00 <service_connect_blocking>
    327a:	83 c4 10             	add    $0x10,%esp
    327d:	a3 f8 7a 02 00       	mov    %eax,0x27af8
    3282:	e9 03 ff ff ff       	jmp    318a <loc_null_create+0x1a>
    3287:	83 c8 ff             	or     $0xffffffff,%eax
    328a:	eb d2                	jmp    325e <loc_null_create+0xee>
    328c:	8d 74 26 00          	lea    0x0(%esi,%eiz,1),%esi

00003290 <loc_null_destroy>:
    3290:	55                   	push   %ebp
    3291:	89 e5                	mov    %esp,%ebp
    3293:	56                   	push   %esi
    3294:	53                   	push   %ebx
    3295:	83 ec 0c             	sub    $0xc,%esp
    3298:	8b 75 08             	mov    0x8(%ebp),%esi
    329b:	68 90 78 02 00       	push   $0x27890
    32a0:	e8 5b 5d 00 00       	call   9000 <fibril_mutex_lock>
    32a5:	a1 f8 7a 02 00       	mov    0x27af8,%eax
    32aa:	83 c4 10             	add    $0x10,%esp
    32ad:	85 c0                	test   %eax,%eax
    32af:	75 46                	jne    32f7 <loc_null_destroy+0x67>
    32b1:	83 ec 0c             	sub    $0xc,%esp
    32b4:	8b 1d f0 7a 02 00    	mov    0x27af0,%ebx
    32ba:	68 70 78 02 00       	push   $0x27870
    32bf:	e8 3c 5d 00 00       	call   9000 <fibril_mutex_lock>
    32c4:	a1 f8 7a 02 00       	mov    0x27af8,%eax
    32c9:	83 c4 10             	add    $0x10,%esp
    32cc:	85 c0                	test   %eax,%eax
    32ce:	75 0a                	jne    32da <loc_null_destroy+0x4a>
    32d0:	85 db                	test   %ebx,%ebx
    32d2:	74 06                	je     32da <loc_null_destroy+0x4a>
    32d4:	89 1d f8 7a 02 00    	mov    %ebx,0x27af8
    32da:	83 ec 0c             	sub    $0xc,%esp
    32dd:	68 70 78 02 00       	push   $0x27870
    32e2:	e8 99 5e 00 00       	call   9180 <fibril_mutex_unlock>
    32e7:	a1 f8 7a 02 00       	mov    0x27af8,%eax
    32ec:	83 c4 10             	add    $0x10,%esp
    32ef:	85 c0                	test   %eax,%eax
    32f1:	0f 84 89 00 00 00    	je     3380 <loc_null_destroy+0xf0>
    32f7:	83 ec 0c             	sub    $0xc,%esp
    32fa:	68 90 78 02 00       	push   $0x27890
    32ff:	e8 7c 5e 00 00       	call   9180 <fibril_mutex_unlock>
    3304:	c7 04 24 70 78 02 00 	movl   $0x27870,(%esp)
    330b:	8b 1d f8 7a 02 00    	mov    0x27af8,%ebx
    3311:	e8 ea 5c 00 00       	call   9000 <fibril_mutex_lock>
    3316:	8b 0d f0 7a 02 00    	mov    0x27af0,%ecx
    331c:	83 c4 10             	add    $0x10,%esp
    331f:	85 c9                	test   %ecx,%ecx
    3321:	75 0a                	jne    332d <loc_null_destroy+0x9d>
    3323:	85 db                	test   %ebx,%ebx
    3325:	74 06                	je     332d <loc_null_destroy+0x9d>
    3327:	89 1d f0 7a 02 00    	mov    %ebx,0x27af0
    332d:	83 ec 0c             	sub    $0xc,%esp
    3330:	68 70 78 02 00       	push   $0x27870
    3335:	e8 46 5e 00 00       	call   9180 <fibril_mutex_unlock>
    333a:	8b 15 f8 7a 02 00    	mov    0x27af8,%edx
    3340:	58                   	pop    %eax
    3341:	52                   	push   %edx
    3342:	e8 09 56 01 00       	call   18950 <async_exchange_begin>
    3347:	83 c4 0c             	add    $0xc,%esp
    334a:	89 c3                	mov    %eax,%ebx
    334c:	6a 00                	push   $0x0
    334e:	6a 00                	push   $0x0
    3350:	6a 00                	push   $0x0
    3352:	6a 00                	push   $0x0
    3354:	6a 00                	push   $0x0
    3356:	6a 00                	push   $0x0
    3358:	6a 00                	push   $0x0
    335a:	6a 00                	push   $0x0
    335c:	56                   	push   %esi
    335d:	68 0f 04 00 00       	push   $0x40f
    3362:	50                   	push   %eax
    3363:	e8 e8 43 01 00       	call   17750 <async_req_fast>
    3368:	89 5d 08             	mov    %ebx,0x8(%ebp)
    336b:	83 c4 30             	add    $0x30,%esp
    336e:	8d 65 f8             	lea    -0x8(%ebp),%esp
    3371:	5b                   	pop    %ebx
    3372:	5e                   	pop    %esi
    3373:	5d                   	pop    %ebp
    3374:	e9 c7 58 01 00       	jmp    18c40 <async_exchange_end>
    3379:	8d b4 26 00 00 00 00 	lea    0x0(%esi,%eiz,1),%esi
    3380:	53                   	push   %ebx
    3381:	6a 00                	push   $0x0
    3383:	68 c1 7e 8f c7       	push   $0xc78f7ec1
    3388:	68 6c 6f 63 20       	push   $0x20636f6c
    338d:	e8 6e 19 01 00       	call   14d00 <service_connect_blocking>
    3392:	83 c4 10             	add    $0x10,%esp
    3395:	a3 f8 7a 02 00       	mov    %eax,0x27af8
    339a:	e9 0e ff ff ff       	jmp    32ad <loc_null_destroy+0x1d>
    339f:	90                   	nop

000033a0 <loc_service_add_to_cat>:
    33a0:	55                   	push   %ebp
    33a1:	89 e5                	mov    %esp,%ebp
    33a3:	53                   	push   %ebx
    33a4:	83 ec 20             	sub    $0x20,%esp
    33a7:	68 a0 78 02 00       	push   $0x278a0
    33ac:	e8 4f 5c 00 00       	call   9000 <fibril_mutex_lock>
    33b1:	a1 fc 7a 02 00       	mov    0x27afc,%eax
    33b6:	83 c4 10             	add    $0x10,%esp
    33b9:	85 c0                	test   %eax,%eax
    33bb:	75 46                	jne    3403 <loc_service_add_to_cat+0x63>
    33bd:	83 ec 0c             	sub    $0xc,%esp
    33c0:	8b 1d f4 7a 02 00    	mov    0x27af4,%ebx
    33c6:	68 80 78 02 00       	push   $0x27880
    33cb:	e8 30 5c 00 00       	call   9000 <fibril_mutex_lock>
    33d0:	a1 fc 7a 02 00       	mov    0x27afc,%eax
    33d5:	83 c4 10             	add    $0x10,%esp
    33d8:	85 c0                	test   %eax,%eax
    33da:	75 0a                	jne    33e6 <loc_service_add_to_cat+0x46>
    33dc:	85 db                	test   %ebx,%ebx
    33de:	74 06                	je     33e6 <loc_service_add_to_cat+0x46>
    33e0:	89 1d fc 7a 02 00    	mov    %ebx,0x27afc
    33e6:	83 ec 0c             	sub    $0xc,%esp
    33e9:	68 80 78 02 00       	push   $0x27880
    33ee:	e8 8d 5d 00 00       	call   9180 <fibril_mutex_unlock>
    33f3:	a1 fc 7a 02 00       	mov    0x27afc,%eax
    33f8:	83 c4 10             	add    $0x10,%esp
    33fb:	85 c0                	test   %eax,%eax
    33fd:	0f 84 8d 00 00 00    	je     3490 <loc_service_add_to_cat+0xf0>
    3403:	83 ec 0c             	sub    $0xc,%esp
    3406:	68 a0 78 02 00       	push   $0x278a0
    340b:	e8 70 5d 00 00       	call   9180 <fibril_mutex_unlock>
    3410:	c7 04 24 80 78 02 00 	movl   $0x27880,(%esp)
    3417:	8b 1d fc 7a 02 00    	mov    0x27afc,%ebx
    341d:	e8 de 5b 00 00       	call   9000 <fibril_mutex_lock>
    3422:	a1 f4 7a 02 00       	mov    0x27af4,%eax
    3427:	83 c4 10             	add    $0x10,%esp
    342a:	85 c0                	test   %eax,%eax
    342c:	75 0a                	jne    3438 <loc_service_add_to_cat+0x98>
    342e:	85 db                	test   %ebx,%ebx
    3430:	74 06                	je     3438 <loc_service_add_to_cat+0x98>
    3432:	89 1d f4 7a 02 00    	mov    %ebx,0x27af4
    3438:	83 ec 0c             	sub    $0xc,%esp
    343b:	68 80 78 02 00       	push   $0x27880
    3440:	e8 3b 5d 00 00       	call   9180 <fibril_mutex_unlock>
    3445:	8b 15 fc 7a 02 00    	mov    0x27afc,%edx
    344b:	58                   	pop    %eax
    344c:	52                   	push   %edx
    344d:	e8 fe 54 01 00       	call   18950 <async_exchange_begin>
    3452:	83 c4 0c             	add    $0xc,%esp
    3455:	89 c3                	mov    %eax,%ebx
    3457:	8b 4d 0c             	mov    0xc(%ebp),%ecx
    345a:	8b 45 08             	mov    0x8(%ebp),%eax
    345d:	6a 00                	push   $0x0
    345f:	6a 00                	push   $0x0
    3461:	6a 00                	push   $0x0
    3463:	6a 00                	push   $0x0
    3465:	6a 00                	push   $0x0
    3467:	6a 00                	push   $0x0
    3469:	6a 00                	push   $0x0
    346b:	51                   	push   %ecx
    346c:	50                   	push   %eax
    346d:	68 02 04 00 00       	push   $0x402
    3472:	53                   	push   %ebx
    3473:	e8 d8 42 01 00       	call   17750 <async_req_fast>
    3478:	83 c4 24             	add    $0x24,%esp
    347b:	89 45 f4             	mov    %eax,-0xc(%ebp)
    347e:	53                   	push   %ebx
    347f:	e8 bc 57 01 00       	call   18c40 <async_exchange_end>
    3484:	8b 45 f4             	mov    -0xc(%ebp),%eax
    3487:	8b 5d fc             	mov    -0x4(%ebp),%ebx
    348a:	c9                   	leave  
    348b:	c3                   	ret    
    348c:	8d 74 26 00          	lea    0x0(%esi,%eiz,1),%esi
    3490:	50                   	push   %eax
    3491:	6a 00                	push   $0x0
    3493:	68 c1 7e 8f e7       	push   $0xe78f7ec1
    3498:	68 6c 6f 63 20       	push   $0x20636f6c
    349d:	e8 5e 18 01 00       	call   14d00 <service_connect_blocking>
    34a2:	83 c4 10             	add    $0x10,%esp
    34a5:	a3 fc 7a 02 00       	mov    %eax,0x27afc
    34aa:	e9 0a ff ff ff       	jmp    33b9 <loc_service_add_to_cat+0x19>
    34af:	90                   	nop

000034b0 <loc_count_namespaces>:
    34b0:	55                   	push   %ebp
    34b1:	89 e5                	mov    %esp,%ebp
    34b3:	56                   	push   %esi
    34b4:	53                   	push   %ebx
    34b5:	83 ec 1c             	sub    $0x1c,%esp
    34b8:	68 90 78 02 00       	push   $0x27890
    34bd:	e8 3e 5b 00 00       	call   9000 <fibril_mutex_lock>
    34c2:	a1 f8 7a 02 00       	mov    0x27af8,%eax
    34c7:	83 c4 10             	add    $0x10,%esp
    34ca:	85 c0                	test   %eax,%eax
    34cc:	75 47                	jne    3515 <loc_count_namespaces+0x65>
    34ce:	83 ec 0c             	sub    $0xc,%esp
    34d1:	8b 1d f0 7a 02 00    	mov    0x27af0,%ebx
    34d7:	68 70 78 02 00       	push   $0x27870
    34dc:	e8 1f 5b 00 00       	call   9000 <fibril_mutex_lock>
    34e1:	a1 f8 7a 02 00       	mov    0x27af8,%eax
    34e6:	83 c4 10             	add    $0x10,%esp
    34e9:	85 c0                	test   %eax,%eax
    34eb:	75 0a                	jne    34f7 <loc_count_namespaces+0x47>
    34ed:	85 db                	test   %ebx,%ebx
    34ef:	74 06                	je     34f7 <loc_count_namespaces+0x47>
    34f1:	89 1d f8 7a 02 00    	mov    %ebx,0x27af8
    34f7:	83 ec 0c             	sub    $0xc,%esp
    34fa:	68 70 78 02 00       	push   $0x27870
    34ff:	e8 7c 5c 00 00       	call   9180 <fibril_mutex_unlock>
    3504:	8b 35 f8 7a 02 00    	mov    0x27af8,%esi
    350a:	83 c4 10             	add    $0x10,%esp
    350d:	85 f6                	test   %esi,%esi
    350f:	0f 84 93 00 00 00    	je     35a8 <loc_count_namespaces+0xf8>
    3515:	83 ec 0c             	sub    $0xc,%esp
    3518:	68 90 78 02 00       	push   $0x27890
    351d:	e8 5e 5c 00 00       	call   9180 <fibril_mutex_unlock>
    3522:	c7 04 24 70 78 02 00 	movl   $0x27870,(%esp)
    3529:	8b 1d f8 7a 02 00    	mov    0x27af8,%ebx
    352f:	e8 cc 5a 00 00       	call   9000 <fibril_mutex_lock>
    3534:	8b 0d f0 7a 02 00    	mov    0x27af0,%ecx
    353a:	83 c4 10             	add    $0x10,%esp
    353d:	85 c9                	test   %ecx,%ecx
    353f:	75 0a                	jne    354b <loc_count_namespaces+0x9b>
    3541:	85 db                	test   %ebx,%ebx
    3543:	74 06                	je     354b <loc_count_namespaces+0x9b>
    3545:	89 1d f0 7a 02 00    	mov    %ebx,0x27af0
    354b:	83 ec 0c             	sub    $0xc,%esp
    354e:	31 f6                	xor    %esi,%esi
    3550:	68 70 78 02 00       	push   $0x27870
    3555:	e8 26 5c 00 00       	call   9180 <fibril_mutex_unlock>
    355a:	8b 15 f8 7a 02 00    	mov    0x27af8,%edx
    3560:	58                   	pop    %eax
    3561:	52                   	push   %edx
    3562:	e8 e9 53 01 00       	call   18950 <async_exchange_begin>
    3567:	83 c4 0c             	add    $0xc,%esp
    356a:	89 c3                	mov    %eax,%ebx
    356c:	8d 45 f4             	lea    -0xc(%ebp),%eax
    356f:	6a 00                	push   $0x0
    3571:	6a 00                	push   $0x0
    3573:	6a 00                	push   $0x0
    3575:	6a 00                	push   $0x0
    3577:	50                   	push   %eax
    3578:	6a 00                	push   $0x0
    357a:	6a 00                	push   $0x0
    357c:	6a 00                	push   $0x0
    357e:	6a 00                	push   $0x0
    3580:	68 10 04 00 00       	push   $0x410
    3585:	53                   	push   %ebx
    3586:	e8 c5 41 01 00       	call   17750 <async_req_fast>
    358b:	83 c4 30             	add    $0x30,%esp
    358e:	85 c0                	test   %eax,%eax
    3590:	75 03                	jne    3595 <loc_count_namespaces+0xe5>
    3592:	8b 75 f4             	mov    -0xc(%ebp),%esi
    3595:	83 ec 0c             	sub    $0xc,%esp
    3598:	53                   	push   %ebx
    3599:	e8 a2 56 01 00       	call   18c40 <async_exchange_end>
    359e:	8d 65 f8             	lea    -0x8(%ebp),%esp
    35a1:	89 f0                	mov    %esi,%eax
    35a3:	5b                   	pop    %ebx
    35a4:	5e                   	pop    %esi
    35a5:	5d                   	pop    %ebp
    35a6:	c3                   	ret    
    35a7:	90                   	nop
    35a8:	53                   	push   %ebx
    35a9:	6a 00                	push   $0x0
    35ab:	68 c1 7e 8f c7       	push   $0xc78f7ec1
    35b0:	68 6c 6f 63 20       	push   $0x20636f6c
    35b5:	e8 46 17 01 00       	call   14d00 <service_connect_blocking>
    35ba:	83 c4 10             	add    $0x10,%esp
    35bd:	a3 f8 7a 02 00       	mov    %eax,0x27af8
    35c2:	e9 03 ff ff ff       	jmp    34ca <loc_count_namespaces+0x1a>
    35c7:	89 f6                	mov    %esi,%esi
    35c9:	8d bc 27 00 00 00 00 	lea    0x0(%edi,%eiz,1),%edi

000035d0 <loc_count_services>:
    35d0:	55                   	push   %ebp
    35d1:	89 e5                	mov    %esp,%ebp
    35d3:	56                   	push   %esi
    35d4:	53                   	push   %ebx
    35d5:	83 ec 1c             	sub    $0x1c,%esp
    35d8:	68 90 78 02 00       	push   $0x27890
    35dd:	e8 1e 5a 00 00       	call   9000 <fibril_mutex_lock>
    35e2:	a1 f8 7a 02 00       	mov    0x27af8,%eax
    35e7:	83 c4 10             	add    $0x10,%esp
    35ea:	85 c0                	test   %eax,%eax
    35ec:	75 46                	jne    3634 <loc_count_services+0x64>
    35ee:	83 ec 0c             	sub    $0xc,%esp
    35f1:	8b 1d f0 7a 02 00    	mov    0x27af0,%ebx
    35f7:	68 70 78 02 00       	push   $0x27870
    35fc:	e8 ff 59 00 00       	call   9000 <fibril_mutex_lock>
    3601:	a1 f8 7a 02 00       	mov    0x27af8,%eax
    3606:	83 c4 10             	add    $0x10,%esp
    3609:	85 c0                	test   %eax,%eax
    360b:	75 0a                	jne    3617 <loc_count_services+0x47>
    360d:	85 db                	test   %ebx,%ebx
    360f:	74 06                	je     3617 <loc_count_services+0x47>
    3611:	89 1d f8 7a 02 00    	mov    %ebx,0x27af8
    3617:	83 ec 0c             	sub    $0xc,%esp
    361a:	68 70 78 02 00       	push   $0x27870
    361f:	e8 5c 5b 00 00       	call   9180 <fibril_mutex_unlock>
    3624:	a1 f8 7a 02 00       	mov    0x27af8,%eax
    3629:	83 c4 10             	add    $0x10,%esp
    362c:	85 c0                	test   %eax,%eax
    362e:	0f 84 94 00 00 00    	je     36c8 <loc_count_services+0xf8>
    3634:	83 ec 0c             	sub    $0xc,%esp
    3637:	68 90 78 02 00       	push   $0x27890
    363c:	e8 3f 5b 00 00       	call   9180 <fibril_mutex_unlock>
    3641:	c7 04 24 70 78 02 00 	movl   $0x27870,(%esp)
    3648:	8b 1d f8 7a 02 00    	mov    0x27af8,%ebx
    364e:	e8 ad 59 00 00       	call   9000 <fibril_mutex_lock>
    3653:	8b 35 f0 7a 02 00    	mov    0x27af0,%esi
    3659:	83 c4 10             	add    $0x10,%esp
    365c:	85 f6                	test   %esi,%esi
    365e:	75 0a                	jne    366a <loc_count_services+0x9a>
    3660:	85 db                	test   %ebx,%ebx
    3662:	74 06                	je     366a <loc_count_services+0x9a>
    3664:	89 1d f0 7a 02 00    	mov    %ebx,0x27af0
    366a:	83 ec 0c             	sub    $0xc,%esp
    366d:	31 f6                	xor    %esi,%esi
    366f:	68 70 78 02 00       	push   $0x27870
    3674:	e8 07 5b 00 00       	call   9180 <fibril_mutex_unlock>
    3679:	8b 15 f8 7a 02 00    	mov    0x27af8,%edx
    367f:	58                   	pop    %eax
    3680:	52                   	push   %edx
    3681:	e8 ca 52 01 00       	call   18950 <async_exchange_begin>
    3686:	83 c4 0c             	add    $0xc,%esp
    3689:	89 c3                	mov    %eax,%ebx
    368b:	8b 4d 08             	mov    0x8(%ebp),%ecx
    368e:	8d 45 f4             	lea    -0xc(%ebp),%eax
    3691:	6a 00                	push   $0x0
    3693:	6a 00                	push   $0x0
    3695:	6a 00                	push   $0x0
    3697:	6a 00                	push   $0x0
    3699:	50                   	push   %eax
    369a:	6a 00                	push   $0x0
    369c:	6a 00                	push   $0x0
    369e:	6a 00                	push   $0x0
    36a0:	51                   	push   %ecx
    36a1:	68 11 04 00 00       	push   $0x411
    36a6:	53                   	push   %ebx
    36a7:	e8 a4 40 01 00       	call   17750 <async_req_fast>
    36ac:	83 c4 30             	add    $0x30,%esp
    36af:	85 c0                	test   %eax,%eax
    36b1:	75 03                	jne    36b6 <loc_count_services+0xe6>
    36b3:	8b 75 f4             	mov    -0xc(%ebp),%esi
    36b6:	83 ec 0c             	sub    $0xc,%esp
    36b9:	53                   	push   %ebx
    36ba:	e8 81 55 01 00       	call   18c40 <async_exchange_end>
    36bf:	8d 65 f8             	lea    -0x8(%ebp),%esp
    36c2:	89 f0                	mov    %esi,%eax
    36c4:	5b                   	pop    %ebx
    36c5:	5e                   	pop    %esi
    36c6:	5d                   	pop    %ebp
    36c7:	c3                   	ret    
    36c8:	50                   	push   %eax
    36c9:	6a 00                	push   $0x0
    36cb:	68 c1 7e 8f c7       	push   $0xc78f7ec1
    36d0:	68 6c 6f 63 20       	push   $0x20636f6c
    36d5:	e8 26 16 01 00       	call   14d00 <service_connect_blocking>
    36da:	83 c4 10             	add    $0x10,%esp
    36dd:	a3 f8 7a 02 00       	mov    %eax,0x27af8
    36e2:	e9 03 ff ff ff       	jmp    35ea <loc_count_services+0x1a>
    36e7:	89 f6                	mov    %esi,%esi
    36e9:	8d bc 27 00 00 00 00 	lea    0x0(%edi,%eiz,1),%edi

000036f0 <loc_get_namespaces>:
    36f0:	55                   	push   %ebp
    36f1:	89 e5                	mov    %esp,%ebp
    36f3:	57                   	push   %edi
    36f4:	56                   	push   %esi
    36f5:	53                   	push   %ebx
    36f6:	83 ec 4c             	sub    $0x4c,%esp
    36f9:	83 ec 0c             	sub    $0xc,%esp
    36fc:	68 90 78 02 00       	push   $0x27890
    3701:	e8 fa 58 00 00       	call   9000 <fibril_mutex_lock>
    3706:	a1 f8 7a 02 00       	mov    0x27af8,%eax
    370b:	83 c4 10             	add    $0x10,%esp
    370e:	85 c0                	test   %eax,%eax
    3710:	75 48                	jne    375a <loc_get_namespaces+0x6a>
    3712:	83 ec 0c             	sub    $0xc,%esp
    3715:	8b 1d f0 7a 02 00    	mov    0x27af0,%ebx
    371b:	68 70 78 02 00       	push   $0x27870
    3720:	e8 db 58 00 00       	call   9000 <fibril_mutex_lock>
    3725:	8b 35 f8 7a 02 00    	mov    0x27af8,%esi
    372b:	83 c4 10             	add    $0x10,%esp
    372e:	85 f6                	test   %esi,%esi
    3730:	75 0a                	jne    373c <loc_get_namespaces+0x4c>
    3732:	85 db                	test   %ebx,%ebx
    3734:	74 06                	je     373c <loc_get_namespaces+0x4c>
    3736:	89 1d f8 7a 02 00    	mov    %ebx,0x27af8
    373c:	83 ec 0c             	sub    $0xc,%esp
    373f:	68 70 78 02 00       	push   $0x27870
    3744:	e8 37 5a 00 00       	call   9180 <fibril_mutex_unlock>
    3749:	8b 1d f8 7a 02 00    	mov    0x27af8,%ebx
    374f:	83 c4 10             	add    $0x10,%esp
    3752:	85 db                	test   %ebx,%ebx
    3754:	0f 84 96 01 00 00    	je     38f0 <loc_get_namespaces+0x200>
    375a:	83 ec 0c             	sub    $0xc,%esp
    375d:	68 90 78 02 00       	push   $0x27890
    3762:	e8 19 5a 00 00       	call   9180 <fibril_mutex_unlock>
    3767:	c7 04 24 70 78 02 00 	movl   $0x27870,(%esp)
    376e:	8b 1d f8 7a 02 00    	mov    0x27af8,%ebx
    3774:	e8 87 58 00 00       	call   9000 <fibril_mutex_lock>
    3779:	8b 15 f0 7a 02 00    	mov    0x27af0,%edx
    377f:	83 c4 10             	add    $0x10,%esp
    3782:	85 d2                	test   %edx,%edx
    3784:	75 0a                	jne    3790 <loc_get_namespaces+0xa0>
    3786:	85 db                	test   %ebx,%ebx
    3788:	74 06                	je     3790 <loc_get_namespaces+0xa0>
    378a:	89 1d f0 7a 02 00    	mov    %ebx,0x27af0
    3790:	83 ec 0c             	sub    $0xc,%esp
    3793:	68 70 78 02 00       	push   $0x27870
    3798:	e8 e3 59 00 00       	call   9180 <fibril_mutex_unlock>
    379d:	8b 15 f8 7a 02 00    	mov    0x27af8,%edx
    37a3:	58                   	pop    %eax
    37a4:	52                   	push   %edx
    37a5:	e8 a6 51 01 00       	call   18950 <async_exchange_begin>
    37aa:	83 c4 0c             	add    $0xc,%esp
    37ad:	89 c6                	mov    %eax,%esi
    37af:	8d 45 c4             	lea    -0x3c(%ebp),%eax
    37b2:	6a 00                	push   $0x0
    37b4:	6a 00                	push   $0x0
    37b6:	6a 00                	push   $0x0
    37b8:	6a 00                	push   $0x0
    37ba:	50                   	push   %eax
    37bb:	6a 00                	push   $0x0
    37bd:	6a 00                	push   $0x0
    37bf:	6a 00                	push   $0x0
    37c1:	6a 00                	push   $0x0
    37c3:	68 10 04 00 00       	push   $0x410
    37c8:	56                   	push   %esi
    37c9:	e8 82 3f 01 00       	call   17750 <async_req_fast>
    37ce:	83 c4 30             	add    $0x30,%esp
    37d1:	85 c0                	test   %eax,%eax
    37d3:	0f 85 6d 01 00 00    	jne    3946 <loc_get_namespaces+0x256>
    37d9:	83 ec 0c             	sub    $0xc,%esp
    37dc:	8b 5d c4             	mov    -0x3c(%ebp),%ebx
    37df:	56                   	push   %esi
    37e0:	e8 5b 54 01 00       	call   18c40 <async_exchange_end>
    37e5:	83 c4 10             	add    $0x10,%esp
    37e8:	85 db                	test   %ebx,%ebx
    37ea:	0f 84 ef 00 00 00    	je     38df <loc_get_namespaces+0x1ef>
    37f0:	50                   	push   %eax
    37f1:	50                   	push   %eax
    37f2:	68 04 01 00 00       	push   $0x104
    37f7:	53                   	push   %ebx
    37f8:	e8 03 ff 00 00       	call   13700 <calloc>
    37fd:	83 c4 10             	add    $0x10,%esp
    3800:	89 c7                	mov    %eax,%edi
    3802:	85 c0                	test   %eax,%eax
    3804:	0f 84 d5 00 00 00    	je     38df <loc_get_namespaces+0x1ef>
    380a:	83 ec 0c             	sub    $0xc,%esp
    380d:	68 70 78 02 00       	push   $0x27870
    3812:	e8 e9 57 00 00       	call   9000 <fibril_mutex_lock>
    3817:	a1 f0 7a 02 00       	mov    0x27af0,%eax
    381c:	83 c4 10             	add    $0x10,%esp
    381f:	85 c0                	test   %eax,%eax
    3821:	0f 84 f9 00 00 00    	je     3920 <loc_get_namespaces+0x230>
    3827:	83 ec 0c             	sub    $0xc,%esp
    382a:	68 70 78 02 00       	push   $0x27870
    382f:	e8 4c 59 00 00       	call   9180 <fibril_mutex_unlock>
    3834:	a1 f0 7a 02 00       	mov    0x27af0,%eax
    3839:	83 c4 10             	add    $0x10,%esp
    383c:	85 c0                	test   %eax,%eax
    383e:	0f 84 fb 00 00 00    	je     393f <loc_get_namespaces+0x24f>
    3844:	83 ec 0c             	sub    $0xc,%esp
    3847:	50                   	push   %eax
    3848:	e8 03 51 01 00       	call   18950 <async_exchange_begin>
    384d:	83 c4 10             	add    $0x10,%esp
    3850:	89 c6                	mov    %eax,%esi
    3852:	50                   	push   %eax
    3853:	8d 45 c4             	lea    -0x3c(%ebp),%eax
    3856:	50                   	push   %eax
    3857:	6a 00                	push   $0x0
    3859:	6a 00                	push   $0x0
    385b:	6a 00                	push   $0x0
    385d:	6a 00                	push   $0x0
    385f:	68 13 04 00 00       	push   $0x413
    3864:	56                   	push   %esi
    3865:	e8 26 34 01 00       	call   16c90 <async_send_fast>
    386a:	89 45 b0             	mov    %eax,-0x50(%ebp)
    386d:	89 d8                	mov    %ebx,%eax
    386f:	c1 e0 06             	shl    $0x6,%eax
    3872:	83 c4 1c             	add    $0x1c,%esp
    3875:	01 d8                	add    %ebx,%eax
    3877:	c1 e0 02             	shl    $0x2,%eax
    387a:	50                   	push   %eax
    387b:	57                   	push   %edi
    387c:	56                   	push   %esi
    387d:	e8 1e 5a 01 00       	call   192a0 <async_data_read_start>
    3882:	89 34 24             	mov    %esi,(%esp)
    3885:	89 45 b4             	mov    %eax,-0x4c(%ebp)
    3888:	e8 b3 53 01 00       	call   18c40 <async_exchange_end>
    388d:	8b 45 b4             	mov    -0x4c(%ebp),%eax
    3890:	83 c4 10             	add    $0x10,%esp
    3893:	83 f8 f0             	cmp    $0xfffffff0,%eax
    3896:	74 77                	je     390f <loc_get_namespaces+0x21f>
    3898:	85 c0                	test   %eax,%eax
    389a:	75 2c                	jne    38c8 <loc_get_namespaces+0x1d8>
    389c:	8d 45 c0             	lea    -0x40(%ebp),%eax
    389f:	8b 75 b0             	mov    -0x50(%ebp),%esi
    38a2:	51                   	push   %ecx
    38a3:	51                   	push   %ecx
    38a4:	50                   	push   %eax
    38a5:	56                   	push   %esi
    38a6:	e8 65 35 01 00       	call   16e10 <async_wait_for>
    38ab:	8b 45 c0             	mov    -0x40(%ebp),%eax
    38ae:	83 c4 10             	add    $0x10,%esp
    38b1:	85 c0                	test   %eax,%eax
    38b3:	75 2a                	jne    38df <loc_get_namespaces+0x1ef>
    38b5:	8b 45 08             	mov    0x8(%ebp),%eax
    38b8:	89 38                	mov    %edi,(%eax)
    38ba:	8d 65 f4             	lea    -0xc(%ebp),%esp
    38bd:	89 d8                	mov    %ebx,%eax
    38bf:	5b                   	pop    %ebx
    38c0:	5e                   	pop    %esi
    38c1:	5f                   	pop    %edi
    38c2:	5d                   	pop    %ebp
    38c3:	c3                   	ret    
    38c4:	8d 74 26 00          	lea    0x0(%esi,%eiz,1),%esi
    38c8:	83 ec 0c             	sub    $0xc,%esp
    38cb:	8b 45 b0             	mov    -0x50(%ebp),%eax
    38ce:	50                   	push   %eax
    38cf:	e8 0c 3c 01 00       	call   174e0 <async_forget>
    38d4:	89 3c 24             	mov    %edi,(%esp)
    38d7:	e8 74 00 01 00       	call   13950 <free>
    38dc:	83 c4 10             	add    $0x10,%esp
    38df:	31 db                	xor    %ebx,%ebx
    38e1:	8d 65 f4             	lea    -0xc(%ebp),%esp
    38e4:	89 d8                	mov    %ebx,%eax
    38e6:	5b                   	pop    %ebx
    38e7:	5e                   	pop    %esi
    38e8:	5f                   	pop    %edi
    38e9:	5d                   	pop    %ebp
    38ea:	c3                   	ret    
    38eb:	90                   	nop
    38ec:	8d 74 26 00          	lea    0x0(%esi,%eiz,1),%esi
    38f0:	51                   	push   %ecx
    38f1:	6a 00                	push   $0x0
    38f3:	68 c1 7e 8f c7       	push   $0xc78f7ec1
    38f8:	68 6c 6f 63 20       	push   $0x20636f6c
    38fd:	e8 fe 13 01 00       	call   14d00 <service_connect_blocking>
    3902:	83 c4 10             	add    $0x10,%esp
    3905:	a3 f8 7a 02 00       	mov    %eax,0x27af8
    390a:	e9 ff fd ff ff       	jmp    370e <loc_get_namespaces+0x1e>
    390f:	83 ec 0c             	sub    $0xc,%esp
    3912:	57                   	push   %edi
    3913:	e8 38 00 01 00       	call   13950 <free>
    3918:	83 c4 10             	add    $0x10,%esp
    391b:	e9 d9 fd ff ff       	jmp    36f9 <loc_get_namespaces+0x9>
    3920:	50                   	push   %eax
    3921:	6a 00                	push   $0x0
    3923:	68 c1 7e 8f c7       	push   $0xc78f7ec1
    3928:	68 6c 6f 63 20       	push   $0x20636f6c
    392d:	e8 5e 13 01 00       	call   14c90 <service_connect>
    3932:	83 c4 10             	add    $0x10,%esp
    3935:	a3 f0 7a 02 00       	mov    %eax,0x27af0
    393a:	e9 e8 fe ff ff       	jmp    3827 <loc_get_namespaces+0x137>
    393f:	31 f6                	xor    %esi,%esi
    3941:	e9 0c ff ff ff       	jmp    3852 <loc_get_namespaces+0x162>
    3946:	83 ec 0c             	sub    $0xc,%esp
    3949:	31 db                	xor    %ebx,%ebx
    394b:	56                   	push   %esi
    394c:	e8 ef 52 01 00       	call   18c40 <async_exchange_end>
    3951:	83 c4 10             	add    $0x10,%esp
    3954:	eb 8b                	jmp    38e1 <loc_get_namespaces+0x1f1>
    3956:	8d 76 00             	lea    0x0(%esi),%esi
    3959:	8d bc 27 00 00 00 00 	lea    0x0(%edi,%eiz,1),%edi

00003960 <loc_get_services>:
    3960:	55                   	push   %ebp
    3961:	89 e5                	mov    %esp,%ebp
    3963:	57                   	push   %edi
    3964:	56                   	push   %esi
    3965:	53                   	push   %ebx
    3966:	83 ec 4c             	sub    $0x4c,%esp
    3969:	83 ec 0c             	sub    $0xc,%esp
    396c:	68 90 78 02 00       	push   $0x27890
    3971:	e8 8a 56 00 00       	call   9000 <fibril_mutex_lock>
    3976:	a1 f8 7a 02 00       	mov    0x27af8,%eax
    397b:	83 c4 10             	add    $0x10,%esp
    397e:	85 c0                	test   %eax,%eax
    3980:	75 46                	jne    39c8 <loc_get_services+0x68>
    3982:	83 ec 0c             	sub    $0xc,%esp
    3985:	8b 1d f0 7a 02 00    	mov    0x27af0,%ebx
    398b:	68 70 78 02 00       	push   $0x27870
    3990:	e8 6b 56 00 00       	call   9000 <fibril_mutex_lock>
    3995:	a1 f8 7a 02 00       	mov    0x27af8,%eax
    399a:	83 c4 10             	add    $0x10,%esp
    399d:	85 c0                	test   %eax,%eax
    399f:	75 0a                	jne    39ab <loc_get_services+0x4b>
    39a1:	85 db                	test   %ebx,%ebx
    39a3:	74 06                	je     39ab <loc_get_services+0x4b>
    39a5:	89 1d f8 7a 02 00    	mov    %ebx,0x27af8
    39ab:	83 ec 0c             	sub    $0xc,%esp
    39ae:	68 70 78 02 00       	push   $0x27870
    39b3:	e8 c8 57 00 00       	call   9180 <fibril_mutex_unlock>
    39b8:	a1 f8 7a 02 00       	mov    0x27af8,%eax
    39bd:	83 c4 10             	add    $0x10,%esp
    39c0:	85 c0                	test   %eax,%eax
    39c2:	0f 84 98 01 00 00    	je     3b60 <loc_get_services+0x200>
    39c8:	83 ec 0c             	sub    $0xc,%esp
    39cb:	68 90 78 02 00       	push   $0x27890
    39d0:	e8 ab 57 00 00       	call   9180 <fibril_mutex_unlock>
    39d5:	c7 04 24 70 78 02 00 	movl   $0x27870,(%esp)
    39dc:	8b 1d f8 7a 02 00    	mov    0x27af8,%ebx
    39e2:	e8 19 56 00 00       	call   9000 <fibril_mutex_lock>
    39e7:	8b 35 f0 7a 02 00    	mov    0x27af0,%esi
    39ed:	83 c4 10             	add    $0x10,%esp
    39f0:	85 f6                	test   %esi,%esi
    39f2:	75 0a                	jne    39fe <loc_get_services+0x9e>
    39f4:	85 db                	test   %ebx,%ebx
    39f6:	74 06                	je     39fe <loc_get_services+0x9e>
    39f8:	89 1d f0 7a 02 00    	mov    %ebx,0x27af0
    39fe:	83 ec 0c             	sub    $0xc,%esp
    3a01:	68 70 78 02 00       	push   $0x27870
    3a06:	e8 75 57 00 00       	call   9180 <fibril_mutex_unlock>
    3a0b:	8b 15 f8 7a 02 00    	mov    0x27af8,%edx
    3a11:	58                   	pop    %eax
    3a12:	52                   	push   %edx
    3a13:	e8 38 4f 01 00       	call   18950 <async_exchange_begin>
    3a18:	83 c4 0c             	add    $0xc,%esp
    3a1b:	89 c6                	mov    %eax,%esi
    3a1d:	8b 4d 08             	mov    0x8(%ebp),%ecx
    3a20:	8d 45 c4             	lea    -0x3c(%ebp),%eax
    3a23:	6a 00                	push   $0x0
    3a25:	6a 00                	push   $0x0
    3a27:	6a 00                	push   $0x0
    3a29:	6a 00                	push   $0x0
    3a2b:	50                   	push   %eax
    3a2c:	6a 00                	push   $0x0
    3a2e:	6a 00                	push   $0x0
    3a30:	6a 00                	push   $0x0
    3a32:	51                   	push   %ecx
    3a33:	68 11 04 00 00       	push   $0x411
    3a38:	56                   	push   %esi
    3a39:	e8 12 3d 01 00       	call   17750 <async_req_fast>
    3a3e:	83 c4 30             	add    $0x30,%esp
    3a41:	85 c0                	test   %eax,%eax
    3a43:	0f 85 6d 01 00 00    	jne    3bb6 <loc_get_services+0x256>
    3a49:	83 ec 0c             	sub    $0xc,%esp
    3a4c:	8b 5d c4             	mov    -0x3c(%ebp),%ebx
    3a4f:	56                   	push   %esi
    3a50:	e8 eb 51 01 00       	call   18c40 <async_exchange_end>
    3a55:	83 c4 10             	add    $0x10,%esp
    3a58:	85 db                	test   %ebx,%ebx
    3a5a:	0f 84 ef 00 00 00    	je     3b4f <loc_get_services+0x1ef>
    3a60:	51                   	push   %ecx
    3a61:	51                   	push   %ecx
    3a62:	68 04 01 00 00       	push   $0x104
    3a67:	53                   	push   %ebx
    3a68:	e8 93 fc 00 00       	call   13700 <calloc>
    3a6d:	83 c4 10             	add    $0x10,%esp
    3a70:	89 c7                	mov    %eax,%edi
    3a72:	85 c0                	test   %eax,%eax
    3a74:	0f 84 d5 00 00 00    	je     3b4f <loc_get_services+0x1ef>
    3a7a:	83 ec 0c             	sub    $0xc,%esp
    3a7d:	68 70 78 02 00       	push   $0x27870
    3a82:	e8 79 55 00 00       	call   9000 <fibril_mutex_lock>
    3a87:	8b 15 f0 7a 02 00    	mov    0x27af0,%edx
    3a8d:	83 c4 10             	add    $0x10,%esp
    3a90:	85 d2                	test   %edx,%edx
    3a92:	0f 84 f8 00 00 00    	je     3b90 <loc_get_services+0x230>
    3a98:	83 ec 0c             	sub    $0xc,%esp
    3a9b:	68 70 78 02 00       	push   $0x27870
    3aa0:	e8 db 56 00 00       	call   9180 <fibril_mutex_unlock>
    3aa5:	a1 f0 7a 02 00       	mov    0x27af0,%eax
    3aaa:	83 c4 10             	add    $0x10,%esp
    3aad:	85 c0                	test   %eax,%eax
    3aaf:	0f 84 fa 00 00 00    	je     3baf <loc_get_services+0x24f>
    3ab5:	83 ec 0c             	sub    $0xc,%esp
    3ab8:	50                   	push   %eax
    3ab9:	e8 92 4e 01 00       	call   18950 <async_exchange_begin>
    3abe:	83 c4 10             	add    $0x10,%esp
    3ac1:	89 c6                	mov    %eax,%esi
    3ac3:	50                   	push   %eax
    3ac4:	8d 45 c4             	lea    -0x3c(%ebp),%eax
    3ac7:	50                   	push   %eax
    3ac8:	8b 45 08             	mov    0x8(%ebp),%eax
    3acb:	6a 00                	push   $0x0
    3acd:	6a 00                	push   $0x0
    3acf:	6a 00                	push   $0x0
    3ad1:	50                   	push   %eax
    3ad2:	68 14 04 00 00       	push   $0x414
    3ad7:	56                   	push   %esi
    3ad8:	e8 b3 31 01 00       	call   16c90 <async_send_fast>
    3add:	83 c4 1c             	add    $0x1c,%esp
    3ae0:	89 45 b0             	mov    %eax,-0x50(%ebp)
    3ae3:	89 d8                	mov    %ebx,%eax
    3ae5:	c1 e0 06             	shl    $0x6,%eax
    3ae8:	01 d8                	add    %ebx,%eax
    3aea:	c1 e0 02             	shl    $0x2,%eax
    3aed:	50                   	push   %eax
    3aee:	57                   	push   %edi
    3aef:	56                   	push   %esi
    3af0:	e8 ab 57 01 00       	call   192a0 <async_data_read_start>
    3af5:	89 34 24             	mov    %esi,(%esp)
    3af8:	89 45 b4             	mov    %eax,-0x4c(%ebp)
    3afb:	e8 40 51 01 00       	call   18c40 <async_exchange_end>
    3b00:	8b 45 b4             	mov    -0x4c(%ebp),%eax
    3b03:	83 c4 10             	add    $0x10,%esp
    3b06:	83 f8 f0             	cmp    $0xfffffff0,%eax
    3b09:	74 74                	je     3b7f <loc_get_services+0x21f>
    3b0b:	85 c0                	test   %eax,%eax
    3b0d:	75 29                	jne    3b38 <loc_get_services+0x1d8>
    3b0f:	8d 45 c0             	lea    -0x40(%ebp),%eax
    3b12:	56                   	push   %esi
    3b13:	56                   	push   %esi
    3b14:	50                   	push   %eax
    3b15:	8b 45 b0             	mov    -0x50(%ebp),%eax
    3b18:	50                   	push   %eax
    3b19:	e8 f2 32 01 00       	call   16e10 <async_wait_for>
    3b1e:	8b 45 c0             	mov    -0x40(%ebp),%eax
    3b21:	83 c4 10             	add    $0x10,%esp
    3b24:	85 c0                	test   %eax,%eax
    3b26:	75 27                	jne    3b4f <loc_get_services+0x1ef>
    3b28:	8b 45 0c             	mov    0xc(%ebp),%eax
    3b2b:	89 38                	mov    %edi,(%eax)
    3b2d:	8d 65 f4             	lea    -0xc(%ebp),%esp
    3b30:	89 d8                	mov    %ebx,%eax
    3b32:	5b                   	pop    %ebx
    3b33:	5e                   	pop    %esi
    3b34:	5f                   	pop    %edi
    3b35:	5d                   	pop    %ebp
    3b36:	c3                   	ret    
    3b37:	90                   	nop
    3b38:	83 ec 0c             	sub    $0xc,%esp
    3b3b:	8b 45 b0             	mov    -0x50(%ebp),%eax
    3b3e:	50                   	push   %eax
    3b3f:	e8 9c 39 01 00       	call   174e0 <async_forget>
    3b44:	89 3c 24             	mov    %edi,(%esp)
    3b47:	e8 04 fe 00 00       	call   13950 <free>
    3b4c:	83 c4 10             	add    $0x10,%esp
    3b4f:	31 db                	xor    %ebx,%ebx
    3b51:	8d 65 f4             	lea    -0xc(%ebp),%esp
    3b54:	89 d8                	mov    %ebx,%eax
    3b56:	5b                   	pop    %ebx
    3b57:	5e                   	pop    %esi
    3b58:	5f                   	pop    %edi
    3b59:	5d                   	pop    %ebp
    3b5a:	c3                   	ret    
    3b5b:	90                   	nop
    3b5c:	8d 74 26 00          	lea    0x0(%esi,%eiz,1),%esi
    3b60:	57                   	push   %edi
    3b61:	6a 00                	push   $0x0
    3b63:	68 c1 7e 8f c7       	push   $0xc78f7ec1
    3b68:	68 6c 6f 63 20       	push   $0x20636f6c
    3b6d:	e8 8e 11 01 00       	call   14d00 <service_connect_blocking>
    3b72:	83 c4 10             	add    $0x10,%esp
    3b75:	a3 f8 7a 02 00       	mov    %eax,0x27af8
    3b7a:	e9 ff fd ff ff       	jmp    397e <loc_get_services+0x1e>
    3b7f:	83 ec 0c             	sub    $0xc,%esp
    3b82:	57                   	push   %edi
    3b83:	e8 c8 fd 00 00       	call   13950 <free>
    3b88:	83 c4 10             	add    $0x10,%esp
    3b8b:	e9 d9 fd ff ff       	jmp    3969 <loc_get_services+0x9>
    3b90:	50                   	push   %eax
    3b91:	6a 00                	push   $0x0
    3b93:	68 c1 7e 8f c7       	push   $0xc78f7ec1
    3b98:	68 6c 6f 63 20       	push   $0x20636f6c
    3b9d:	e8 ee 10 01 00       	call   14c90 <service_connect>
    3ba2:	83 c4 10             	add    $0x10,%esp
    3ba5:	a3 f0 7a 02 00       	mov    %eax,0x27af0
    3baa:	e9 e9 fe ff ff       	jmp    3a98 <loc_get_services+0x138>
    3baf:	31 f6                	xor    %esi,%esi
    3bb1:	e9 0d ff ff ff       	jmp    3ac3 <loc_get_services+0x163>
    3bb6:	83 ec 0c             	sub    $0xc,%esp
    3bb9:	31 db                	xor    %ebx,%ebx
    3bbb:	56                   	push   %esi
    3bbc:	e8 7f 50 01 00       	call   18c40 <async_exchange_end>
    3bc1:	83 c4 10             	add    $0x10,%esp
    3bc4:	eb 8b                	jmp    3b51 <loc_get_services+0x1f1>
    3bc6:	8d 76 00             	lea    0x0(%esi),%esi
    3bc9:	8d bc 27 00 00 00 00 	lea    0x0(%edi,%eiz,1),%edi

00003bd0 <loc_category_get_svcs>:
    3bd0:	55                   	push   %ebp
    3bd1:	89 e5                	mov    %esp,%ebp
    3bd3:	8b 45 10             	mov    0x10(%ebp),%eax
    3bd6:	8b 55 08             	mov    0x8(%ebp),%edx
    3bd9:	8b 4d 0c             	mov    0xc(%ebp),%ecx
    3bdc:	89 45 08             	mov    %eax,0x8(%ebp)
    3bdf:	b8 0c 04 00 00       	mov    $0x40c,%eax
    3be4:	5d                   	pop    %ebp
    3be5:	e9 36 e1 ff ff       	jmp    1d20 <loc_get_ids_internal>
    3bea:	8d b6 00 00 00 00    	lea    0x0(%esi),%esi

00003bf0 <loc_get_categories>:
    3bf0:	55                   	push   %ebp
    3bf1:	31 d2                	xor    %edx,%edx
    3bf3:	89 e5                	mov    %esp,%ebp
    3bf5:	8b 45 0c             	mov    0xc(%ebp),%eax
    3bf8:	8b 4d 08             	mov    0x8(%ebp),%ecx
    3bfb:	89 45 08             	mov    %eax,0x8(%ebp)
    3bfe:	b8 12 04 00 00       	mov    $0x412,%eax
    3c03:	5d                   	pop    %ebp
    3c04:	e9 17 e1 ff ff       	jmp    1d20 <loc_get_ids_internal>
    3c09:	8d b4 26 00 00 00 00 	lea    0x0(%esi,%eiz,1),%esi

00003c10 <loc_register_cat_change_cb>:
    3c10:	55                   	push   %ebp
    3c11:	89 e5                	mov    %esp,%ebp
    3c13:	57                   	push   %edi
    3c14:	56                   	push   %esi
    3c15:	53                   	push   %ebx
    3c16:	83 ec 48             	sub    $0x48,%esp
    3c19:	68 60 78 02 00       	push   $0x27860
    3c1e:	e8 dd 53 00 00       	call   9000 <fibril_mutex_lock>
    3c23:	83 c4 10             	add    $0x10,%esp
    3c26:	80 3d 04 7b 02 00 00 	cmpb   $0x0,0x27b04
    3c2d:	74 29                	je     3c58 <loc_register_cat_change_cb+0x48>
    3c2f:	83 ec 0c             	sub    $0xc,%esp
    3c32:	8b 45 08             	mov    0x8(%ebp),%eax
    3c35:	a3 00 7b 02 00       	mov    %eax,0x27b00
    3c3a:	68 60 78 02 00       	push   $0x27860
    3c3f:	e8 3c 55 00 00       	call   9180 <fibril_mutex_unlock>
    3c44:	83 c4 10             	add    $0x10,%esp
    3c47:	8d 65 f4             	lea    -0xc(%ebp),%esp
    3c4a:	31 c0                	xor    %eax,%eax
    3c4c:	5b                   	pop    %ebx
    3c4d:	5e                   	pop    %esi
    3c4e:	5f                   	pop    %edi
    3c4f:	5d                   	pop    %ebp
    3c50:	c3                   	ret    
    3c51:	8d b4 26 00 00 00 00 	lea    0x0(%esi,%eiz,1),%esi
    3c58:	83 ec 0c             	sub    $0xc,%esp
    3c5b:	68 90 78 02 00       	push   $0x27890
    3c60:	e8 9b 53 00 00       	call   9000 <fibril_mutex_lock>
    3c65:	a1 f8 7a 02 00       	mov    0x27af8,%eax
    3c6a:	83 c4 10             	add    $0x10,%esp
    3c6d:	85 c0                	test   %eax,%eax
    3c6f:	75 46                	jne    3cb7 <loc_register_cat_change_cb+0xa7>
    3c71:	83 ec 0c             	sub    $0xc,%esp
    3c74:	8b 1d f0 7a 02 00    	mov    0x27af0,%ebx
    3c7a:	68 70 78 02 00       	push   $0x27870
    3c7f:	e8 7c 53 00 00       	call   9000 <fibril_mutex_lock>
    3c84:	a1 f8 7a 02 00       	mov    0x27af8,%eax
    3c89:	83 c4 10             	add    $0x10,%esp
    3c8c:	85 c0                	test   %eax,%eax
    3c8e:	75 0a                	jne    3c9a <loc_register_cat_change_cb+0x8a>
    3c90:	85 db                	test   %ebx,%ebx
    3c92:	74 06                	je     3c9a <loc_register_cat_change_cb+0x8a>
    3c94:	89 1d f8 7a 02 00    	mov    %ebx,0x27af8
    3c9a:	83 ec 0c             	sub    $0xc,%esp
    3c9d:	68 70 78 02 00       	push   $0x27870
    3ca2:	e8 d9 54 00 00       	call   9180 <fibril_mutex_unlock>
    3ca7:	a1 f8 7a 02 00       	mov    0x27af8,%eax
    3cac:	83 c4 10             	add    $0x10,%esp
    3caf:	85 c0                	test   %eax,%eax
    3cb1:	0f 84 c1 00 00 00    	je     3d78 <loc_register_cat_change_cb+0x168>
    3cb7:	83 ec 0c             	sub    $0xc,%esp
    3cba:	68 90 78 02 00       	push   $0x27890
    3cbf:	e8 bc 54 00 00       	call   9180 <fibril_mutex_unlock>
    3cc4:	c7 04 24 70 78 02 00 	movl   $0x27870,(%esp)
    3ccb:	8b 1d f8 7a 02 00    	mov    0x27af8,%ebx
    3cd1:	e8 2a 53 00 00       	call   9000 <fibril_mutex_lock>
    3cd6:	8b 35 f0 7a 02 00    	mov    0x27af0,%esi
    3cdc:	83 c4 10             	add    $0x10,%esp
    3cdf:	85 f6                	test   %esi,%esi
    3ce1:	75 0a                	jne    3ced <loc_register_cat_change_cb+0xdd>
    3ce3:	85 db                	test   %ebx,%ebx
    3ce5:	74 06                	je     3ced <loc_register_cat_change_cb+0xdd>
    3ce7:	89 1d f0 7a 02 00    	mov    %ebx,0x27af0
    3ced:	83 ec 0c             	sub    $0xc,%esp
    3cf0:	68 70 78 02 00       	push   $0x27870
    3cf5:	e8 86 54 00 00       	call   9180 <fibril_mutex_unlock>
    3cfa:	8b 1d f8 7a 02 00    	mov    0x27af8,%ebx
    3d00:	59                   	pop    %ecx
    3d01:	53                   	push   %ebx
    3d02:	e8 49 4c 01 00       	call   18950 <async_exchange_begin>
    3d07:	83 c4 0c             	add    $0xc,%esp
    3d0a:	89 c3                	mov    %eax,%ebx
    3d0c:	8d 45 c4             	lea    -0x3c(%ebp),%eax
    3d0f:	50                   	push   %eax
    3d10:	6a 00                	push   $0x0
    3d12:	6a 00                	push   $0x0
    3d14:	6a 00                	push   $0x0
    3d16:	6a 00                	push   $0x0
    3d18:	68 09 04 00 00       	push   $0x409
    3d1d:	53                   	push   %ebx
    3d1e:	e8 6d 2f 01 00       	call   16c90 <async_send_fast>
    3d23:	83 c4 1c             	add    $0x1c,%esp
    3d26:	89 c7                	mov    %eax,%edi
    3d28:	8d 45 bc             	lea    -0x44(%ebp),%eax
    3d2b:	50                   	push   %eax
    3d2c:	6a 00                	push   $0x0
    3d2e:	68 a0 1c 00 00       	push   $0x1ca0
    3d33:	6a 00                	push   $0x0
    3d35:	6a 00                	push   $0x0
    3d37:	68 c5 7e 8f 41       	push   $0x418f7ec5
    3d3c:	53                   	push   %ebx
    3d3d:	e8 ee 31 01 00       	call   16f30 <async_create_callback_port>
    3d42:	83 c4 14             	add    $0x14,%esp
    3d45:	89 c6                	mov    %eax,%esi
    3d47:	53                   	push   %ebx
    3d48:	e8 f3 4e 01 00       	call   18c40 <async_exchange_end>
    3d4d:	83 c4 10             	add    $0x10,%esp
    3d50:	85 f6                	test   %esi,%esi
    3d52:	74 44                	je     3d98 <loc_register_cat_change_cb+0x188>
    3d54:	83 ec 0c             	sub    $0xc,%esp
    3d57:	68 60 78 02 00       	push   $0x27860
    3d5c:	e8 1f 54 00 00       	call   9180 <fibril_mutex_unlock>
    3d61:	83 c4 10             	add    $0x10,%esp
    3d64:	8d 65 f4             	lea    -0xc(%ebp),%esp
    3d67:	b8 f6 fe ff ff       	mov    $0xfffffef6,%eax
    3d6c:	5b                   	pop    %ebx
    3d6d:	5e                   	pop    %esi
    3d6e:	5f                   	pop    %edi
    3d6f:	5d                   	pop    %ebp
    3d70:	c3                   	ret    
    3d71:	8d b4 26 00 00 00 00 	lea    0x0(%esi,%eiz,1),%esi
    3d78:	57                   	push   %edi
    3d79:	6a 00                	push   $0x0
    3d7b:	68 c1 7e 8f c7       	push   $0xc78f7ec1
    3d80:	68 6c 6f 63 20       	push   $0x20636f6c
    3d85:	e8 76 0f 01 00       	call   14d00 <service_connect_blocking>
    3d8a:	83 c4 10             	add    $0x10,%esp
    3d8d:	a3 f8 7a 02 00       	mov    %eax,0x27af8
    3d92:	e9 d6 fe ff ff       	jmp    3c6d <loc_register_cat_change_cb+0x5d>
    3d97:	90                   	nop
    3d98:	50                   	push   %eax
    3d99:	50                   	push   %eax
    3d9a:	8d 45 c0             	lea    -0x40(%ebp),%eax
    3d9d:	50                   	push   %eax
    3d9e:	57                   	push   %edi
    3d9f:	e8 6c 30 01 00       	call   16e10 <async_wait_for>
    3da4:	8b 55 c0             	mov    -0x40(%ebp),%edx
    3da7:	83 c4 10             	add    $0x10,%esp
    3daa:	85 d2                	test   %edx,%edx
    3dac:	75 a6                	jne    3d54 <loc_register_cat_change_cb+0x144>
    3dae:	c6 05 04 7b 02 00 01 	movb   $0x1,0x27b04
    3db5:	e9 75 fe ff ff       	jmp    3c2f <loc_register_cat_change_cb+0x1f>
    3dba:	66 90                	xchg   %ax,%ax
    3dbc:	66 90                	xchg   %ax,%ax
    3dbe:	66 90                	xchg   %ax,%ax

00003dc0 <_strtoul.constprop.4>:
    3dc0:	55                   	push   %ebp
    3dc1:	89 e5                	mov    %esp,%ebp
    3dc3:	57                   	push   %edi
    3dc4:	56                   	push   %esi
    3dc5:	53                   	push   %ebx
    3dc6:	83 ec 0c             	sub    $0xc,%esp
    3dc9:	89 c6                	mov    %eax,%esi
    3dcb:	89 45 e8             	mov    %eax,-0x18(%ebp)
    3dce:	89 55 ec             	mov    %edx,-0x14(%ebp)
    3dd1:	8a 06                	mov    (%esi),%al
    3dd3:	3c 09                	cmp    $0x9,%al
    3dd5:	7c 10                	jl     3de7 <_strtoul.constprop.4+0x27>
    3dd7:	3c 0d                	cmp    $0xd,%al
    3dd9:	0f 8e a9 00 00 00    	jle    3e88 <_strtoul.constprop.4+0xc8>
    3ddf:	3c 20                	cmp    $0x20,%al
    3de1:	0f 84 a1 00 00 00    	je     3e88 <_strtoul.constprop.4+0xc8>
    3de7:	3c 2d                	cmp    $0x2d,%al
    3de9:	0f 84 11 01 00 00    	je     3f00 <_strtoul.constprop.4+0x140>
    3def:	3c 2b                	cmp    $0x2b,%al
    3df1:	0f 94 c0             	sete   %al
    3df4:	25 ff 00 00 00       	and    $0xff,%eax
    3df9:	01 c6                	add    %eax,%esi
    3dfb:	85 c9                	test   %ecx,%ecx
    3dfd:	0f 84 8d 00 00 00    	je     3e90 <_strtoul.constprop.4+0xd0>
    3e03:	83 f9 01             	cmp    $0x1,%ecx
    3e06:	0f 84 e4 00 00 00    	je     3ef0 <_strtoul.constprop.4+0x130>
    3e0c:	83 f9 24             	cmp    $0x24,%ecx
    3e0f:	0f 8f db 00 00 00    	jg     3ef0 <_strtoul.constprop.4+0x130>
    3e15:	8a 16                	mov    (%esi),%dl
    3e17:	83 f9 10             	cmp    $0x10,%ecx
    3e1a:	0f 84 fb 00 00 00    	je     3f1b <_strtoul.constprop.4+0x15b>
    3e20:	84 d2                	test   %dl,%dl
    3e22:	0f 84 11 01 00 00    	je     3f39 <_strtoul.constprop.4+0x179>
    3e28:	89 f3                	mov    %esi,%ebx
    3e2a:	31 c0                	xor    %eax,%eax
    3e2c:	eb 48                	jmp    3e76 <_strtoul.constprop.4+0xb6>
    3e2e:	66 90                	xchg   %ax,%ax
    3e30:	83 ea 57             	sub    $0x57,%edx
    3e33:	89 d7                	mov    %edx,%edi
    3e35:	81 e7 ff 00 00 00    	and    $0xff,%edi
    3e3b:	39 cf                	cmp    %ecx,%edi
    3e3d:	0f 8d 82 00 00 00    	jge    3ec5 <_strtoul.constprop.4+0x105>
    3e43:	31 d2                	xor    %edx,%edx
    3e45:	88 c2                	mov    %al,%dl
    3e47:	0f af d1             	imul   %ecx,%edx
    3e4a:	c1 e8 08             	shr    $0x8,%eax
    3e4d:	01 d7                	add    %edx,%edi
    3e4f:	0f af c1             	imul   %ecx,%eax
    3e52:	89 7d f0             	mov    %edi,-0x10(%ebp)
    3e55:	c1 ef 08             	shr    $0x8,%edi
    3e58:	01 f8                	add    %edi,%eax
    3e5a:	3d ff ff ff 00       	cmp    $0xffffff,%eax
    3e5f:	0f 87 ab 00 00 00    	ja     3f10 <_strtoul.constprop.4+0x150>
    3e65:	31 d2                	xor    %edx,%edx
    3e67:	43                   	inc    %ebx
    3e68:	c1 e0 08             	shl    $0x8,%eax
    3e6b:	8a 55 f0             	mov    -0x10(%ebp),%dl
    3e6e:	01 d0                	add    %edx,%eax
    3e70:	8a 13                	mov    (%ebx),%dl
    3e72:	84 d2                	test   %dl,%dl
    3e74:	74 4f                	je     3ec5 <_strtoul.constprop.4+0x105>
    3e76:	80 fa 60             	cmp    $0x60,%dl
    3e79:	77 b5                	ja     3e30 <_strtoul.constprop.4+0x70>
    3e7b:	80 fa 40             	cmp    $0x40,%dl
    3e7e:	76 40                	jbe    3ec0 <_strtoul.constprop.4+0x100>
    3e80:	83 ea 37             	sub    $0x37,%edx
    3e83:	eb ae                	jmp    3e33 <_strtoul.constprop.4+0x73>
    3e85:	8d 76 00             	lea    0x0(%esi),%esi
    3e88:	46                   	inc    %esi
    3e89:	e9 43 ff ff ff       	jmp    3dd1 <_strtoul.constprop.4+0x11>
    3e8e:	66 90                	xchg   %ax,%ax
    3e90:	8a 16                	mov    (%esi),%dl
    3e92:	b9 0a 00 00 00       	mov    $0xa,%ecx
    3e97:	80 fa 30             	cmp    $0x30,%dl
    3e9a:	75 84                	jne    3e20 <_strtoul.constprop.4+0x60>
    3e9c:	8a 46 01             	mov    0x1(%esi),%al
    3e9f:	83 e0 df             	and    $0xffffffdf,%eax
    3ea2:	3c 58                	cmp    $0x58,%al
    3ea4:	0f 85 9d 00 00 00    	jne    3f47 <_strtoul.constprop.4+0x187>
    3eaa:	8a 56 02             	mov    0x2(%esi),%dl
    3ead:	b9 10 00 00 00       	mov    $0x10,%ecx
    3eb2:	83 c6 02             	add    $0x2,%esi
    3eb5:	e9 66 ff ff ff       	jmp    3e20 <_strtoul.constprop.4+0x60>
    3eba:	8d b6 00 00 00 00    	lea    0x0(%esi),%esi
    3ec0:	80 fa 39             	cmp    $0x39,%dl
    3ec3:	76 23                	jbe    3ee8 <_strtoul.constprop.4+0x128>
    3ec5:	39 de                	cmp    %ebx,%esi
    3ec7:	74 70                	je     3f39 <_strtoul.constprop.4+0x179>
    3ec9:	8b 55 ec             	mov    -0x14(%ebp),%edx
    3ecc:	85 d2                	test   %edx,%edx
    3ece:	74 05                	je     3ed5 <_strtoul.constprop.4+0x115>
    3ed0:	8b 75 ec             	mov    -0x14(%ebp),%esi
    3ed3:	89 1e                	mov    %ebx,(%esi)
    3ed5:	39 5d e8             	cmp    %ebx,-0x18(%ebp)
    3ed8:	74 16                	je     3ef0 <_strtoul.constprop.4+0x130>
    3eda:	83 c4 0c             	add    $0xc,%esp
    3edd:	5b                   	pop    %ebx
    3ede:	5e                   	pop    %esi
    3edf:	5f                   	pop    %edi
    3ee0:	5d                   	pop    %ebp
    3ee1:	c3                   	ret    
    3ee2:	8d b6 00 00 00 00    	lea    0x0(%esi),%esi
    3ee8:	83 ea 30             	sub    $0x30,%edx
    3eeb:	e9 43 ff ff ff       	jmp    3e33 <_strtoul.constprop.4+0x73>
    3ef0:	83 c4 0c             	add    $0xc,%esp
    3ef3:	31 c0                	xor    %eax,%eax
    3ef5:	5b                   	pop    %ebx
    3ef6:	5e                   	pop    %esi
    3ef7:	5f                   	pop    %edi
    3ef8:	5d                   	pop    %ebp
    3ef9:	c3                   	ret    
    3efa:	8d b6 00 00 00 00    	lea    0x0(%esi),%esi
    3f00:	8b 45 08             	mov    0x8(%ebp),%eax
    3f03:	46                   	inc    %esi
    3f04:	c6 00 01             	movb   $0x1,(%eax)
    3f07:	e9 ef fe ff ff       	jmp    3dfb <_strtoul.constprop.4+0x3b>
    3f0c:	8d 74 26 00          	lea    0x0(%esi,%eiz,1),%esi
    3f10:	83 c4 0c             	add    $0xc,%esp
    3f13:	83 c8 ff             	or     $0xffffffff,%eax
    3f16:	5b                   	pop    %ebx
    3f17:	5e                   	pop    %esi
    3f18:	5f                   	pop    %edi
    3f19:	5d                   	pop    %ebp
    3f1a:	c3                   	ret    
    3f1b:	80 fa 30             	cmp    $0x30,%dl
    3f1e:	0f 85 fc fe ff ff    	jne    3e20 <_strtoul.constprop.4+0x60>
    3f24:	8a 46 01             	mov    0x1(%esi),%al
    3f27:	83 e0 df             	and    $0xffffffdf,%eax
    3f2a:	3c 58                	cmp    $0x58,%al
    3f2c:	75 1e                	jne    3f4c <_strtoul.constprop.4+0x18c>
    3f2e:	8a 56 02             	mov    0x2(%esi),%dl
    3f31:	83 c6 02             	add    $0x2,%esi
    3f34:	e9 e7 fe ff ff       	jmp    3e20 <_strtoul.constprop.4+0x60>
    3f39:	8b 45 ec             	mov    -0x14(%ebp),%eax
    3f3c:	85 c0                	test   %eax,%eax
    3f3e:	74 b0                	je     3ef0 <_strtoul.constprop.4+0x130>
    3f40:	8b 5d e8             	mov    -0x18(%ebp),%ebx
    3f43:	31 c0                	xor    %eax,%eax
    3f45:	eb 89                	jmp    3ed0 <_strtoul.constprop.4+0x110>
    3f47:	b9 08 00 00 00       	mov    $0x8,%ecx
    3f4c:	b2 30                	mov    $0x30,%dl
    3f4e:	e9 d5 fe ff ff       	jmp    3e28 <_strtoul.constprop.4+0x68>
    3f53:	8d b6 00 00 00 00    	lea    0x0(%esi),%esi
    3f59:	8d bc 27 00 00 00 00 	lea    0x0(%edi,%eiz,1),%edi

00003f60 <str_decode>:
    3f60:	55                   	push   %ebp
    3f61:	31 c0                	xor    %eax,%eax
    3f63:	89 e5                	mov    %esp,%ebp
    3f65:	57                   	push   %edi
    3f66:	56                   	push   %esi
    3f67:	53                   	push   %ebx
    3f68:	83 ec 08             	sub    $0x8,%esp
    3f6b:	8b 5d 0c             	mov    0xc(%ebp),%ebx
    3f6e:	8b 7d 08             	mov    0x8(%ebp),%edi
    3f71:	8b 13                	mov    (%ebx),%edx
    3f73:	8d 72 01             	lea    0x1(%edx),%esi
    3f76:	3b 75 10             	cmp    0x10(%ebp),%esi
    3f79:	77 13                	ja     3f8e <str_decode+0x2e>
    3f7b:	89 33                	mov    %esi,(%ebx)
    3f7d:	8a 04 17             	mov    (%edi,%edx,1),%al
    3f80:	88 c1                	mov    %al,%cl
    3f82:	88 45 ec             	mov    %al,-0x14(%ebp)
    3f85:	89 c8                	mov    %ecx,%eax
    3f87:	83 e0 7f             	and    $0x7f,%eax
    3f8a:	84 c9                	test   %cl,%cl
    3f8c:	78 0a                	js     3f98 <str_decode+0x38>
    3f8e:	5a                   	pop    %edx
    3f8f:	59                   	pop    %ecx
    3f90:	5b                   	pop    %ebx
    3f91:	5e                   	pop    %esi
    3f92:	5f                   	pop    %edi
    3f93:	5d                   	pop    %ebp
    3f94:	c3                   	ret    
    3f95:	8d 76 00             	lea    0x0(%esi),%esi
    3f98:	88 c8                	mov    %cl,%al
    3f9a:	83 e0 e0             	and    $0xffffffe0,%eax
    3f9d:	3c c0                	cmp    $0xc0,%al
    3f9f:	74 27                	je     3fc8 <str_decode+0x68>
    3fa1:	88 c8                	mov    %cl,%al
    3fa3:	83 e0 f0             	and    $0xfffffff0,%eax
    3fa6:	3c e0                	cmp    $0xe0,%al
    3fa8:	0f 84 8a 00 00 00    	je     4038 <str_decode+0xd8>
    3fae:	88 c8                	mov    %cl,%al
    3fb0:	83 e0 f8             	and    $0xfffffff8,%eax
    3fb3:	3c f0                	cmp    $0xf0,%al
    3fb5:	0f 84 89 00 00 00    	je     4044 <str_decode+0xe4>
    3fbb:	5a                   	pop    %edx
    3fbc:	b8 3f 00 00 00       	mov    $0x3f,%eax
    3fc1:	59                   	pop    %ecx
    3fc2:	5b                   	pop    %ebx
    3fc3:	5e                   	pop    %esi
    3fc4:	5f                   	pop    %edi
    3fc5:	5d                   	pop    %ebp
    3fc6:	c3                   	ret    
    3fc7:	90                   	nop
    3fc8:	b8 01 00 00 00       	mov    $0x1,%eax
    3fcd:	b9 05 00 00 00       	mov    $0x5,%ecx
    3fd2:	01 f0                	add    %esi,%eax
    3fd4:	89 45 f0             	mov    %eax,-0x10(%ebp)
    3fd7:	39 45 10             	cmp    %eax,0x10(%ebp)
    3fda:	72 df                	jb     3fbb <str_decode+0x5b>
    3fdc:	b8 01 00 00 00       	mov    $0x1,%eax
    3fe1:	83 c2 02             	add    $0x2,%edx
    3fe4:	d3 e0                	shl    %cl,%eax
    3fe6:	48                   	dec    %eax
    3fe7:	8b 4d ec             	mov    -0x14(%ebp),%ecx
    3fea:	89 13                	mov    %edx,(%ebx)
    3fec:	21 c8                	and    %ecx,%eax
    3fee:	8a 0c 37             	mov    (%edi,%esi,1),%cl
    3ff1:	89 55 ec             	mov    %edx,-0x14(%ebp)
    3ff4:	89 ce                	mov    %ecx,%esi
    3ff6:	25 ff 00 00 00       	and    $0xff,%eax
    3ffb:	83 e6 c0             	and    $0xffffffc0,%esi
    3ffe:	89 f2                	mov    %esi,%edx
    4000:	80 fa 80             	cmp    $0x80,%dl
    4003:	75 b6                	jne    3fbb <str_decode+0x5b>
    4005:	8b 55 ec             	mov    -0x14(%ebp),%edx
    4008:	89 de                	mov    %ebx,%esi
    400a:	eb 15                	jmp    4021 <str_decode+0xc1>
    400c:	8d 74 26 00          	lea    0x0(%esi,%eiz,1),%esi
    4010:	42                   	inc    %edx
    4011:	89 16                	mov    %edx,(%esi)
    4013:	8a 4c 17 ff          	mov    -0x1(%edi,%edx,1),%cl
    4017:	88 cb                	mov    %cl,%bl
    4019:	83 e3 c0             	and    $0xffffffc0,%ebx
    401c:	80 fb 80             	cmp    $0x80,%bl
    401f:	75 9a                	jne    3fbb <str_decode+0x5b>
    4021:	c1 e0 06             	shl    $0x6,%eax
    4024:	83 e1 3f             	and    $0x3f,%ecx
    4027:	09 c8                	or     %ecx,%eax
    4029:	3b 55 f0             	cmp    -0x10(%ebp),%edx
    402c:	75 e2                	jne    4010 <str_decode+0xb0>
    402e:	e9 5b ff ff ff       	jmp    3f8e <str_decode+0x2e>
    4033:	90                   	nop
    4034:	8d 74 26 00          	lea    0x0(%esi,%eiz,1),%esi
    4038:	b8 02 00 00 00       	mov    $0x2,%eax
    403d:	b9 04 00 00 00       	mov    $0x4,%ecx
    4042:	eb 8e                	jmp    3fd2 <str_decode+0x72>
    4044:	b8 03 00 00 00       	mov    $0x3,%eax
    4049:	b9 03 00 00 00       	mov    $0x3,%ecx
    404e:	eb 82                	jmp    3fd2 <str_decode+0x72>

00004050 <str_decode_reverse>:
    4050:	55                   	push   %ebp
    4051:	89 e5                	mov    %esp,%ebp
    4053:	57                   	push   %edi
    4054:	56                   	push   %esi
    4055:	53                   	push   %ebx
    4056:	83 ec 08             	sub    $0x8,%esp
    4059:	8b 7d 0c             	mov    0xc(%ebp),%edi
    405c:	8b 07                	mov    (%edi),%eax
    405e:	89 45 f0             	mov    %eax,-0x10(%ebp)
    4061:	85 c0                	test   %eax,%eax
    4063:	0f 84 25 01 00 00    	je     418e <str_decode_reverse+0x13e>
    4069:	8d 58 ff             	lea    -0x1(%eax),%ebx
    406c:	8b 45 08             	mov    0x8(%ebp),%eax
    406f:	89 1f                	mov    %ebx,(%edi)
    4071:	8a 04 18             	mov    (%eax,%ebx,1),%al
    4074:	84 c0                	test   %al,%al
    4076:	0f 89 ec 01 00 00    	jns    4268 <str_decode_reverse+0x218>
    407c:	88 c1                	mov    %al,%cl
    407e:	83 e1 e0             	and    $0xffffffe0,%ecx
    4081:	88 4d ef             	mov    %cl,-0x11(%ebp)
    4084:	80 f9 c0             	cmp    $0xc0,%cl
    4087:	0f 84 bd 01 00 00    	je     424a <str_decode_reverse+0x1fa>
    408d:	88 c1                	mov    %al,%cl
    408f:	83 e1 f0             	and    $0xfffffff0,%ecx
    4092:	80 f9 e0             	cmp    $0xe0,%cl
    4095:	0f 84 dc 01 00 00    	je     4277 <str_decode_reverse+0x227>
    409b:	89 c6                	mov    %eax,%esi
    409d:	83 e6 f8             	and    $0xfffffff8,%esi
    40a0:	89 f2                	mov    %esi,%edx
    40a2:	80 fa f0             	cmp    $0xf0,%dl
    40a5:	0f 84 d6 01 00 00    	je     4281 <str_decode_reverse+0x231>
    40ab:	83 e0 c0             	and    $0xffffffc0,%eax
    40ae:	3c 80                	cmp    $0x80,%al
    40b0:	0f 85 c3 00 00 00    	jne    4179 <str_decode_reverse+0x129>
    40b6:	85 db                	test   %ebx,%ebx
    40b8:	0f 84 bb 00 00 00    	je     4179 <str_decode_reverse+0x129>
    40be:	8b 55 f0             	mov    -0x10(%ebp),%edx
    40c1:	8b 45 08             	mov    0x8(%ebp),%eax
    40c4:	8d 72 fe             	lea    -0x2(%edx),%esi
    40c7:	89 37                	mov    %esi,(%edi)
    40c9:	8a 04 30             	mov    (%eax,%esi,1),%al
    40cc:	88 c1                	mov    %al,%cl
    40ce:	83 e1 e0             	and    $0xffffffe0,%ecx
    40d1:	88 4d ef             	mov    %cl,-0x11(%ebp)
    40d4:	80 f9 c0             	cmp    $0xc0,%cl
    40d7:	0f 84 93 01 00 00    	je     4270 <str_decode_reverse+0x220>
    40dd:	88 c1                	mov    %al,%cl
    40df:	83 e1 f0             	and    $0xfffffff0,%ecx
    40e2:	80 f9 e0             	cmp    $0xe0,%cl
    40e5:	0f 84 9c 00 00 00    	je     4187 <str_decode_reverse+0x137>
    40eb:	88 c2                	mov    %al,%dl
    40ed:	83 e2 f8             	and    $0xfffffff8,%edx
    40f0:	80 fa f0             	cmp    $0xf0,%dl
    40f3:	0f 84 90 00 00 00    	je     4189 <str_decode_reverse+0x139>
    40f9:	83 e0 c0             	and    $0xffffffc0,%eax
    40fc:	3c 80                	cmp    $0x80,%al
    40fe:	75 79                	jne    4179 <str_decode_reverse+0x129>
    4100:	85 f6                	test   %esi,%esi
    4102:	74 75                	je     4179 <str_decode_reverse+0x129>
    4104:	8b 55 f0             	mov    -0x10(%ebp),%edx
    4107:	8b 45 08             	mov    0x8(%ebp),%eax
    410a:	8d 5a fd             	lea    -0x3(%edx),%ebx
    410d:	89 1f                	mov    %ebx,(%edi)
    410f:	8a 04 18             	mov    (%eax,%ebx,1),%al
    4112:	88 c1                	mov    %al,%cl
    4114:	83 e1 e0             	and    $0xffffffe0,%ecx
    4117:	88 4d ef             	mov    %cl,-0x11(%ebp)
    411a:	80 f9 c0             	cmp    $0xc0,%cl
    411d:	0f 84 6d 01 00 00    	je     4290 <str_decode_reverse+0x240>
    4123:	88 c1                	mov    %al,%cl
    4125:	83 e1 f0             	and    $0xfffffff0,%ecx
    4128:	80 f9 e0             	cmp    $0xe0,%cl
    412b:	74 58                	je     4185 <str_decode_reverse+0x135>
    412d:	88 c2                	mov    %al,%dl
    412f:	83 e2 f8             	and    $0xfffffff8,%edx
    4132:	80 fa f0             	cmp    $0xf0,%dl
    4135:	0f 84 4e 01 00 00    	je     4289 <str_decode_reverse+0x239>
    413b:	83 e0 c0             	and    $0xffffffc0,%eax
    413e:	3c 80                	cmp    $0x80,%al
    4140:	75 37                	jne    4179 <str_decode_reverse+0x129>
    4142:	85 db                	test   %ebx,%ebx
    4144:	74 33                	je     4179 <str_decode_reverse+0x129>
    4146:	8b 55 f0             	mov    -0x10(%ebp),%edx
    4149:	8b 45 08             	mov    0x8(%ebp),%eax
    414c:	83 ea 04             	sub    $0x4,%edx
    414f:	89 17                	mov    %edx,(%edi)
    4151:	8a 04 10             	mov    (%eax,%edx,1),%al
    4154:	88 c2                	mov    %al,%dl
    4156:	83 e2 e0             	and    $0xffffffe0,%edx
    4159:	88 55 ef             	mov    %dl,-0x11(%ebp)
    415c:	80 fa c0             	cmp    $0xc0,%dl
    415f:	0f 84 0b 01 00 00    	je     4270 <str_decode_reverse+0x220>
    4165:	88 c1                	mov    %al,%cl
    4167:	83 e1 f0             	and    $0xfffffff0,%ecx
    416a:	80 f9 e0             	cmp    $0xe0,%cl
    416d:	74 18                	je     4187 <str_decode_reverse+0x137>
    416f:	88 c2                	mov    %al,%dl
    4171:	83 e2 f8             	and    $0xfffffff8,%edx
    4174:	80 fa f0             	cmp    $0xf0,%dl
    4177:	74 10                	je     4189 <str_decode_reverse+0x139>
    4179:	b8 3f 00 00 00       	mov    $0x3f,%eax
    417e:	5a                   	pop    %edx
    417f:	59                   	pop    %ecx
    4180:	5b                   	pop    %ebx
    4181:	5e                   	pop    %esi
    4182:	5f                   	pop    %edi
    4183:	5d                   	pop    %ebp
    4184:	c3                   	ret    
    4185:	89 f3                	mov    %esi,%ebx
    4187:	b1 e0                	mov    $0xe0,%cl
    4189:	39 5d 10             	cmp    %ebx,0x10(%ebp)
    418c:	73 0a                	jae    4198 <str_decode_reverse+0x148>
    418e:	5a                   	pop    %edx
    418f:	31 c0                	xor    %eax,%eax
    4191:	59                   	pop    %ecx
    4192:	5b                   	pop    %ebx
    4193:	5e                   	pop    %esi
    4194:	5f                   	pop    %edi
    4195:	5d                   	pop    %ebp
    4196:	c3                   	ret    
    4197:	90                   	nop
    4198:	80 7d ef c0          	cmpb   $0xc0,-0x11(%ebp)
    419c:	0f 84 b6 00 00 00    	je     4258 <str_decode_reverse+0x208>
    41a2:	80 f9 e0             	cmp    $0xe0,%cl
    41a5:	0f 84 ea 00 00 00    	je     4295 <str_decode_reverse+0x245>
    41ab:	88 c2                	mov    %al,%dl
    41ad:	83 e2 f8             	and    $0xfffffff8,%edx
    41b0:	80 fa f0             	cmp    $0xf0,%dl
    41b3:	75 c4                	jne    4179 <str_decode_reverse+0x129>
    41b5:	be 03 00 00 00       	mov    $0x3,%esi
    41ba:	b9 03 00 00 00       	mov    $0x3,%ecx
    41bf:	8d 14 1e             	lea    (%esi,%ebx,1),%edx
    41c2:	39 55 10             	cmp    %edx,0x10(%ebp)
    41c5:	72 b2                	jb     4179 <str_decode_reverse+0x129>
    41c7:	ba 01 00 00 00       	mov    $0x1,%edx
    41cc:	d3 e2                	shl    %cl,%edx
    41ce:	4a                   	dec    %edx
    41cf:	8d 4b 01             	lea    0x1(%ebx),%ecx
    41d2:	21 d0                	and    %edx,%eax
    41d4:	89 c7                	mov    %eax,%edi
    41d6:	8b 45 08             	mov    0x8(%ebp),%eax
    41d9:	81 e7 ff 00 00 00    	and    $0xff,%edi
    41df:	8a 14 18             	mov    (%eax,%ebx,1),%dl
    41e2:	89 7d f0             	mov    %edi,-0x10(%ebp)
    41e5:	89 d7                	mov    %edx,%edi
    41e7:	83 e7 c0             	and    $0xffffffc0,%edi
    41ea:	89 f8                	mov    %edi,%eax
    41ec:	3c 80                	cmp    $0x80,%al
    41ee:	75 89                	jne    4179 <str_decode_reverse+0x129>
    41f0:	8b 45 f0             	mov    -0x10(%ebp),%eax
    41f3:	83 e2 3f             	and    $0x3f,%edx
    41f6:	c1 e0 06             	shl    $0x6,%eax
    41f9:	09 d0                	or     %edx,%eax
    41fb:	83 fe 01             	cmp    $0x1,%esi
    41fe:	0f 84 7a ff ff ff    	je     417e <str_decode_reverse+0x12e>
    4204:	8b 7d 08             	mov    0x8(%ebp),%edi
    4207:	83 c3 02             	add    $0x2,%ebx
    420a:	8a 0c 0f             	mov    (%edi,%ecx,1),%cl
    420d:	88 ca                	mov    %cl,%dl
    420f:	83 e2 c0             	and    $0xffffffc0,%edx
    4212:	80 fa 80             	cmp    $0x80,%dl
    4215:	0f 85 5e ff ff ff    	jne    4179 <str_decode_reverse+0x129>
    421b:	c1 e0 06             	shl    $0x6,%eax
    421e:	83 e1 3f             	and    $0x3f,%ecx
    4221:	09 c8                	or     %ecx,%eax
    4223:	83 fe 02             	cmp    $0x2,%esi
    4226:	0f 84 52 ff ff ff    	je     417e <str_decode_reverse+0x12e>
    422c:	8a 0c 1f             	mov    (%edi,%ebx,1),%cl
    422f:	88 ca                	mov    %cl,%dl
    4231:	83 e2 c0             	and    $0xffffffc0,%edx
    4234:	80 fa 80             	cmp    $0x80,%dl
    4237:	0f 85 3c ff ff ff    	jne    4179 <str_decode_reverse+0x129>
    423d:	c1 e0 06             	shl    $0x6,%eax
    4240:	83 e1 3f             	and    $0x3f,%ecx
    4243:	09 c8                	or     %ecx,%eax
    4245:	e9 34 ff ff ff       	jmp    417e <str_decode_reverse+0x12e>
    424a:	8b 75 f0             	mov    -0x10(%ebp),%esi
    424d:	39 75 10             	cmp    %esi,0x10(%ebp)
    4250:	0f 82 38 ff ff ff    	jb     418e <str_decode_reverse+0x13e>
    4256:	89 f3                	mov    %esi,%ebx
    4258:	be 01 00 00 00       	mov    $0x1,%esi
    425d:	b9 05 00 00 00       	mov    $0x5,%ecx
    4262:	e9 58 ff ff ff       	jmp    41bf <str_decode_reverse+0x16f>
    4267:	90                   	nop
    4268:	83 e0 7f             	and    $0x7f,%eax
    426b:	e9 0e ff ff ff       	jmp    417e <str_decode_reverse+0x12e>
    4270:	89 5d f0             	mov    %ebx,-0x10(%ebp)
    4273:	89 de                	mov    %ebx,%esi
    4275:	eb d6                	jmp    424d <str_decode_reverse+0x1fd>
    4277:	8b 5d f0             	mov    -0x10(%ebp),%ebx
    427a:	b1 e0                	mov    $0xe0,%cl
    427c:	e9 08 ff ff ff       	jmp    4189 <str_decode_reverse+0x139>
    4281:	8b 5d f0             	mov    -0x10(%ebp),%ebx
    4284:	e9 00 ff ff ff       	jmp    4189 <str_decode_reverse+0x139>
    4289:	89 f3                	mov    %esi,%ebx
    428b:	e9 f9 fe ff ff       	jmp    4189 <str_decode_reverse+0x139>
    4290:	89 75 f0             	mov    %esi,-0x10(%ebp)
    4293:	eb b8                	jmp    424d <str_decode_reverse+0x1fd>
    4295:	be 02 00 00 00       	mov    $0x2,%esi
    429a:	b9 04 00 00 00       	mov    $0x4,%ecx
    429f:	e9 1b ff ff ff       	jmp    41bf <str_decode_reverse+0x16f>
    42a4:	8d b6 00 00 00 00    	lea    0x0(%esi),%esi
    42aa:	8d bf 00 00 00 00    	lea    0x0(%edi),%edi

000042b0 <chr_encode>:
    42b0:	55                   	push   %ebp
    42b1:	89 e5                	mov    %esp,%ebp
    42b3:	57                   	push   %edi
    42b4:	56                   	push   %esi
    42b5:	53                   	push   %ebx
    42b6:	83 ec 08             	sub    $0x8,%esp
    42b9:	8b 75 10             	mov    0x10(%ebp),%esi
    42bc:	8b 5d 08             	mov    0x8(%ebp),%ebx
    42bf:	8b 7d 0c             	mov    0xc(%ebp),%edi
    42c2:	8b 06                	mov    (%esi),%eax
    42c4:	3b 45 14             	cmp    0x14(%ebp),%eax
    42c7:	0f 83 d7 00 00 00    	jae    43a4 <chr_encode+0xf4>
    42cd:	81 fb ff ff 10 00    	cmp    $0x10ffff,%ebx
    42d3:	76 13                	jbe    42e8 <chr_encode+0x38>
    42d5:	b8 f2 ff ff ff       	mov    $0xfffffff2,%eax
    42da:	5a                   	pop    %edx
    42db:	59                   	pop    %ecx
    42dc:	5b                   	pop    %ebx
    42dd:	5e                   	pop    %esi
    42de:	5f                   	pop    %edi
    42df:	5d                   	pop    %ebp
    42e0:	c3                   	ret    
    42e1:	8d b4 26 00 00 00 00 	lea    0x0(%esi,%eiz,1),%esi
    42e8:	f7 c3 80 ff ff ff    	test   $0xffffff80,%ebx
    42ee:	0f 84 84 00 00 00    	je     4378 <chr_encode+0xc8>
    42f4:	f7 c3 00 f8 ff ff    	test   $0xfffff800,%ebx
    42fa:	0f 84 90 00 00 00    	je     4390 <chr_encode+0xe0>
    4300:	89 da                	mov    %ebx,%edx
    4302:	81 e2 00 00 ff ff    	and    $0xffff0000,%edx
    4308:	83 fa 01             	cmp    $0x1,%edx
    430b:	19 c9                	sbb    %ecx,%ecx
    430d:	83 e1 f0             	and    $0xfffffff0,%ecx
    4310:	83 e9 10             	sub    $0x10,%ecx
    4313:	83 fa 01             	cmp    $0x1,%edx
    4316:	88 4d ee             	mov    %cl,-0x12(%ebp)
    4319:	19 c9                	sbb    %ecx,%ecx
    431b:	83 e1 08             	and    $0x8,%ecx
    431e:	83 c1 07             	add    $0x7,%ecx
    4321:	83 fa 01             	cmp    $0x1,%edx
    4324:	19 d2                	sbb    %edx,%edx
    4326:	88 4d ef             	mov    %cl,-0x11(%ebp)
    4329:	83 c2 03             	add    $0x3,%edx
    432c:	89 55 f0             	mov    %edx,-0x10(%ebp)
    432f:	89 d1                	mov    %edx,%ecx
    4331:	89 ca                	mov    %ecx,%edx
    4333:	01 c2                	add    %eax,%edx
    4335:	39 55 14             	cmp    %edx,0x14(%ebp)
    4338:	76 6a                	jbe    43a4 <chr_encode+0xf4>
    433a:	89 ca                	mov    %ecx,%edx
    433c:	8d 74 26 00          	lea    0x0(%esi,%eiz,1),%esi
    4340:	88 d9                	mov    %bl,%cl
    4342:	01 f8                	add    %edi,%eax
    4344:	c1 eb 06             	shr    $0x6,%ebx
    4347:	83 e1 3f             	and    $0x3f,%ecx
    434a:	83 c9 80             	or     $0xffffff80,%ecx
    434d:	88 0c 10             	mov    %cl,(%eax,%edx,1)
    4350:	4a                   	dec    %edx
    4351:	8b 06                	mov    (%esi),%eax
    4353:	75 eb                	jne    4340 <chr_encode+0x90>
    4355:	22 5d ef             	and    -0x11(%ebp),%bl
    4358:	0a 5d ee             	or     -0x12(%ebp),%bl
    435b:	88 1c 07             	mov    %bl,(%edi,%eax,1)
    435e:	8b 7d f0             	mov    -0x10(%ebp),%edi
    4361:	8b 06                	mov    (%esi),%eax
    4363:	8d 44 07 01          	lea    0x1(%edi,%eax,1),%eax
    4367:	89 06                	mov    %eax,(%esi)
    4369:	31 c0                	xor    %eax,%eax
    436b:	5a                   	pop    %edx
    436c:	59                   	pop    %ecx
    436d:	5b                   	pop    %ebx
    436e:	5e                   	pop    %esi
    436f:	5f                   	pop    %edi
    4370:	5d                   	pop    %ebp
    4371:	c3                   	ret    
    4372:	8d b6 00 00 00 00    	lea    0x0(%esi),%esi
    4378:	c6 45 ee 00          	movb   $0x0,-0x12(%ebp)
    437c:	c6 45 ef 7f          	movb   $0x7f,-0x11(%ebp)
    4380:	c7 45 f0 00 00 00 00 	movl   $0x0,-0x10(%ebp)
    4387:	eb cc                	jmp    4355 <chr_encode+0xa5>
    4389:	8d b4 26 00 00 00 00 	lea    0x0(%esi,%eiz,1),%esi
    4390:	c7 45 f0 01 00 00 00 	movl   $0x1,-0x10(%ebp)
    4397:	c6 45 ee c0          	movb   $0xc0,-0x12(%ebp)
    439b:	c6 45 ef 1f          	movb   $0x1f,-0x11(%ebp)
    439f:	8b 4d f0             	mov    -0x10(%ebp),%ecx
    43a2:	eb 8d                	jmp    4331 <chr_encode+0x81>
    43a4:	b8 f0 ff ff ff       	mov    $0xfffffff0,%eax
    43a9:	e9 2c ff ff ff       	jmp    42da <chr_encode+0x2a>
    43ae:	66 90                	xchg   %ax,%ax

000043b0 <str_size>:
    43b0:	55                   	push   %ebp
    43b1:	31 c0                	xor    %eax,%eax
    43b3:	89 e5                	mov    %esp,%ebp
    43b5:	8b 55 08             	mov    0x8(%ebp),%edx
    43b8:	80 3a 00             	cmpb   $0x0,(%edx)
    43bb:	74 0a                	je     43c7 <str_size+0x17>
    43bd:	8d 76 00             	lea    0x0(%esi),%esi
    43c0:	40                   	inc    %eax
    43c1:	80 3c 02 00          	cmpb   $0x0,(%edx,%eax,1)
    43c5:	75 f9                	jne    43c0 <str_size+0x10>
    43c7:	5d                   	pop    %ebp
    43c8:	c3                   	ret    
    43c9:	8d b4 26 00 00 00 00 	lea    0x0(%esi,%eiz,1),%esi

000043d0 <wstr_size>:
    43d0:	55                   	push   %ebp
    43d1:	31 c0                	xor    %eax,%eax
    43d3:	89 e5                	mov    %esp,%ebp
    43d5:	8b 55 08             	mov    0x8(%ebp),%edx
    43d8:	8b 0a                	mov    (%edx),%ecx
    43da:	85 c9                	test   %ecx,%ecx
    43dc:	74 0d                	je     43eb <wstr_size+0x1b>
    43de:	66 90                	xchg   %ax,%ax
    43e0:	40                   	inc    %eax
    43e1:	8b 0c 82             	mov    (%edx,%eax,4),%ecx
    43e4:	85 c9                	test   %ecx,%ecx
    43e6:	75 f8                	jne    43e0 <wstr_size+0x10>
    43e8:	c1 e0 02             	shl    $0x2,%eax
    43eb:	5d                   	pop    %ebp
    43ec:	c3                   	ret    
    43ed:	8d 76 00             	lea    0x0(%esi),%esi

000043f0 <str_lsize>:
    43f0:	55                   	push   %ebp
    43f1:	31 c0                	xor    %eax,%eax
    43f3:	89 e5                	mov    %esp,%ebp
    43f5:	57                   	push   %edi
    43f6:	56                   	push   %esi
    43f7:	53                   	push   %ebx
    43f8:	83 ec 08             	sub    $0x8,%esp
    43fb:	8b 55 0c             	mov    0xc(%ebp),%edx
    43fe:	8b 7d 08             	mov    0x8(%ebp),%edi
    4401:	85 d2                	test   %edx,%edx
    4403:	74 5c                	je     4461 <str_lsize+0x71>
    4405:	c7 45 f0 00 00 00 00 	movl   $0x0,-0x10(%ebp)
    440c:	eb 1a                	jmp    4428 <str_lsize+0x38>
    440e:	66 90                	xchg   %ax,%ax
    4410:	83 e2 7f             	and    $0x7f,%edx
    4413:	89 f0                	mov    %esi,%eax
    4415:	85 d2                	test   %edx,%edx
    4417:	74 48                	je     4461 <str_lsize+0x71>
    4419:	8b 5d f0             	mov    -0x10(%ebp),%ebx
    441c:	43                   	inc    %ebx
    441d:	89 5d f0             	mov    %ebx,-0x10(%ebp)
    4420:	8b 75 f0             	mov    -0x10(%ebp),%esi
    4423:	39 75 0c             	cmp    %esi,0xc(%ebp)
    4426:	74 39                	je     4461 <str_lsize+0x71>
    4428:	8a 14 07             	mov    (%edi,%eax,1),%dl
    442b:	8d 70 01             	lea    0x1(%eax),%esi
    442e:	84 d2                	test   %dl,%dl
    4430:	79 de                	jns    4410 <str_lsize+0x20>
    4432:	88 d1                	mov    %dl,%cl
    4434:	83 e1 e0             	and    $0xffffffe0,%ecx
    4437:	80 f9 c0             	cmp    $0xc0,%cl
    443a:	74 2c                	je     4468 <str_lsize+0x78>
    443c:	88 d1                	mov    %dl,%cl
    443e:	83 e1 f0             	and    $0xfffffff0,%ecx
    4441:	80 f9 e0             	cmp    $0xe0,%cl
    4444:	74 6e                	je     44b4 <str_lsize+0xc4>
    4446:	88 d1                	mov    %dl,%cl
    4448:	83 e1 f8             	and    $0xfffffff8,%ecx
    444b:	80 f9 f0             	cmp    $0xf0,%cl
    444e:	74 70                	je     44c0 <str_lsize+0xd0>
    4450:	8b 5d f0             	mov    -0x10(%ebp),%ebx
    4453:	89 f0                	mov    %esi,%eax
    4455:	43                   	inc    %ebx
    4456:	89 5d f0             	mov    %ebx,-0x10(%ebp)
    4459:	8b 75 f0             	mov    -0x10(%ebp),%esi
    445c:	39 75 0c             	cmp    %esi,0xc(%ebp)
    445f:	75 c7                	jne    4428 <str_lsize+0x38>
    4461:	5a                   	pop    %edx
    4462:	59                   	pop    %ecx
    4463:	5b                   	pop    %ebx
    4464:	5e                   	pop    %esi
    4465:	5f                   	pop    %edi
    4466:	5d                   	pop    %ebp
    4467:	c3                   	ret    
    4468:	83 e2 1f             	and    $0x1f,%edx
    446b:	c7 45 ec 01 00 00 00 	movl   $0x1,-0x14(%ebp)
    4472:	8a 0c 37             	mov    (%edi,%esi,1),%cl
    4475:	83 c0 02             	add    $0x2,%eax
    4478:	88 cb                	mov    %cl,%bl
    447a:	83 e3 c0             	and    $0xffffffc0,%ebx
    447d:	80 fb 80             	cmp    $0x80,%bl
    4480:	75 97                	jne    4419 <str_lsize+0x29>
    4482:	8b 5d ec             	mov    -0x14(%ebp),%ebx
    4485:	01 de                	add    %ebx,%esi
    4487:	eb 1a                	jmp    44a3 <str_lsize+0xb3>
    4489:	8d b4 26 00 00 00 00 	lea    0x0(%esi,%eiz,1),%esi
    4490:	40                   	inc    %eax
    4491:	8a 4c 07 ff          	mov    -0x1(%edi,%eax,1),%cl
    4495:	88 cb                	mov    %cl,%bl
    4497:	83 e3 c0             	and    $0xffffffc0,%ebx
    449a:	80 fb 80             	cmp    $0x80,%bl
    449d:	0f 85 76 ff ff ff    	jne    4419 <str_lsize+0x29>
    44a3:	c1 e2 06             	shl    $0x6,%edx
    44a6:	83 e1 3f             	and    $0x3f,%ecx
    44a9:	09 ca                	or     %ecx,%edx
    44ab:	39 f0                	cmp    %esi,%eax
    44ad:	75 e1                	jne    4490 <str_lsize+0xa0>
    44af:	e9 61 ff ff ff       	jmp    4415 <str_lsize+0x25>
    44b4:	83 e2 0f             	and    $0xf,%edx
    44b7:	c7 45 ec 02 00 00 00 	movl   $0x2,-0x14(%ebp)
    44be:	eb b2                	jmp    4472 <str_lsize+0x82>
    44c0:	83 e2 07             	and    $0x7,%edx
    44c3:	c7 45 ec 03 00 00 00 	movl   $0x3,-0x14(%ebp)
    44ca:	eb a6                	jmp    4472 <str_lsize+0x82>
    44cc:	8d 74 26 00          	lea    0x0(%esi,%eiz,1),%esi

000044d0 <str_nsize>:
    44d0:	55                   	push   %ebp
    44d1:	31 c0                	xor    %eax,%eax
    44d3:	89 e5                	mov    %esp,%ebp
    44d5:	8b 55 08             	mov    0x8(%ebp),%edx
    44d8:	8b 4d 0c             	mov    0xc(%ebp),%ecx
    44db:	80 3a 00             	cmpb   $0x0,(%edx)
    44de:	74 13                	je     44f3 <str_nsize+0x23>
    44e0:	85 c9                	test   %ecx,%ecx
    44e2:	75 08                	jne    44ec <str_nsize+0x1c>
    44e4:	eb 0d                	jmp    44f3 <str_nsize+0x23>
    44e6:	66 90                	xchg   %ax,%ax
    44e8:	39 c1                	cmp    %eax,%ecx
    44ea:	76 07                	jbe    44f3 <str_nsize+0x23>
    44ec:	40                   	inc    %eax
    44ed:	80 3c 02 00          	cmpb   $0x0,(%edx,%eax,1)
    44f1:	75 f5                	jne    44e8 <str_nsize+0x18>
    44f3:	5d                   	pop    %ebp
    44f4:	c3                   	ret    
    44f5:	8d 74 26 00          	lea    0x0(%esi,%eiz,1),%esi
    44f9:	8d bc 27 00 00 00 00 	lea    0x0(%edi,%eiz,1),%edi

00004500 <wstr_nsize>:
    4500:	55                   	push   %ebp
    4501:	89 e5                	mov    %esp,%ebp
    4503:	53                   	push   %ebx
    4504:	8b 4d 0c             	mov    0xc(%ebp),%ecx
    4507:	8b 5d 08             	mov    0x8(%ebp),%ebx
    450a:	83 e1 fc             	and    $0xfffffffc,%ecx
    450d:	74 26                	je     4535 <wstr_nsize+0x35>
    450f:	8b 03                	mov    (%ebx),%eax
    4511:	85 c0                	test   %eax,%eax
    4513:	74 20                	je     4535 <wstr_nsize+0x35>
    4515:	31 d2                	xor    %edx,%edx
    4517:	eb 0d                	jmp    4526 <wstr_nsize+0x26>
    4519:	8d b4 26 00 00 00 00 	lea    0x0(%esi,%eiz,1),%esi
    4520:	83 3c 93 00          	cmpl   $0x0,(%ebx,%edx,4)
    4524:	74 0c                	je     4532 <wstr_nsize+0x32>
    4526:	42                   	inc    %edx
    4527:	8d 04 95 00 00 00 00 	lea    0x0(,%edx,4),%eax
    452e:	39 c1                	cmp    %eax,%ecx
    4530:	77 ee                	ja     4520 <wstr_nsize+0x20>
    4532:	5b                   	pop    %ebx
    4533:	5d                   	pop    %ebp
    4534:	c3                   	ret    
    4535:	31 c0                	xor    %eax,%eax
    4537:	eb f9                	jmp    4532 <wstr_nsize+0x32>
    4539:	8d b4 26 00 00 00 00 	lea    0x0(%esi,%eiz,1),%esi

00004540 <wstr_lsize>:
    4540:	55                   	push   %ebp
    4541:	89 e5                	mov    %esp,%ebp
    4543:	53                   	push   %ebx
    4544:	8b 4d 0c             	mov    0xc(%ebp),%ecx
    4547:	8b 5d 08             	mov    0x8(%ebp),%ebx
    454a:	c1 e1 02             	shl    $0x2,%ecx
    454d:	74 26                	je     4575 <wstr_lsize+0x35>
    454f:	8b 03                	mov    (%ebx),%eax
    4551:	85 c0                	test   %eax,%eax
    4553:	74 20                	je     4575 <wstr_lsize+0x35>
    4555:	31 d2                	xor    %edx,%edx
    4557:	eb 0d                	jmp    4566 <wstr_lsize+0x26>
    4559:	8d b4 26 00 00 00 00 	lea    0x0(%esi,%eiz,1),%esi
    4560:	83 3c 93 00          	cmpl   $0x0,(%ebx,%edx,4)
    4564:	74 0c                	je     4572 <wstr_lsize+0x32>
    4566:	42                   	inc    %edx
    4567:	8d 04 95 00 00 00 00 	lea    0x0(,%edx,4),%eax
    456e:	39 c1                	cmp    %eax,%ecx
    4570:	77 ee                	ja     4560 <wstr_lsize+0x20>
    4572:	5b                   	pop    %ebx
    4573:	5d                   	pop    %ebp
    4574:	c3                   	ret    
    4575:	31 c0                	xor    %eax,%eax
    4577:	eb f9                	jmp    4572 <wstr_lsize+0x32>
    4579:	8d b4 26 00 00 00 00 	lea    0x0(%esi,%eiz,1),%esi

00004580 <str_length>:
    4580:	55                   	push   %ebp
    4581:	31 c9                	xor    %ecx,%ecx
    4583:	89 e5                	mov    %esp,%ebp
    4585:	57                   	push   %edi
    4586:	56                   	push   %esi
    4587:	53                   	push   %ebx
    4588:	83 ec 08             	sub    $0x8,%esp
    458b:	c7 45 ec 00 00 00 00 	movl   $0x0,-0x14(%ebp)
    4592:	8b 75 08             	mov    0x8(%ebp),%esi
    4595:	eb 17                	jmp    45ae <str_length+0x2e>
    4597:	90                   	nop
    4598:	83 e0 7f             	and    $0x7f,%eax
    459b:	89 d9                	mov    %ebx,%ecx
    459d:	89 45 f0             	mov    %eax,-0x10(%ebp)
    45a0:	8b 5d f0             	mov    -0x10(%ebp),%ebx
    45a3:	85 db                	test   %ebx,%ebx
    45a5:	74 33                	je     45da <str_length+0x5a>
    45a7:	8b 7d ec             	mov    -0x14(%ebp),%edi
    45aa:	47                   	inc    %edi
    45ab:	89 7d ec             	mov    %edi,-0x14(%ebp)
    45ae:	8a 04 0e             	mov    (%esi,%ecx,1),%al
    45b1:	8d 59 01             	lea    0x1(%ecx),%ebx
    45b4:	84 c0                	test   %al,%al
    45b6:	79 e0                	jns    4598 <str_length+0x18>
    45b8:	88 c2                	mov    %al,%dl
    45ba:	83 e2 e0             	and    $0xffffffe0,%edx
    45bd:	80 fa c0             	cmp    $0xc0,%dl
    45c0:	74 22                	je     45e4 <str_length+0x64>
    45c2:	88 c2                	mov    %al,%dl
    45c4:	83 e2 f0             	and    $0xfffffff0,%edx
    45c7:	80 fa e0             	cmp    $0xe0,%dl
    45ca:	74 5f                	je     462b <str_length+0xab>
    45cc:	88 c2                	mov    %al,%dl
    45ce:	83 e2 f8             	and    $0xfffffff8,%edx
    45d1:	80 fa f0             	cmp    $0xf0,%dl
    45d4:	74 62                	je     4638 <str_length+0xb8>
    45d6:	89 d9                	mov    %ebx,%ecx
    45d8:	eb cd                	jmp    45a7 <str_length+0x27>
    45da:	8b 45 ec             	mov    -0x14(%ebp),%eax
    45dd:	5a                   	pop    %edx
    45de:	59                   	pop    %ecx
    45df:	5b                   	pop    %ebx
    45e0:	5e                   	pop    %esi
    45e1:	5f                   	pop    %edi
    45e2:	5d                   	pop    %ebp
    45e3:	c3                   	ret    
    45e4:	83 e0 1f             	and    $0x1f,%eax
    45e7:	bf 01 00 00 00       	mov    $0x1,%edi
    45ec:	89 45 f0             	mov    %eax,-0x10(%ebp)
    45ef:	8a 14 1e             	mov    (%esi,%ebx,1),%dl
    45f2:	83 c1 02             	add    $0x2,%ecx
    45f5:	88 d0                	mov    %dl,%al
    45f7:	83 e0 c0             	and    $0xffffffc0,%eax
    45fa:	3c 80                	cmp    $0x80,%al
    45fc:	75 a9                	jne    45a7 <str_length+0x27>
    45fe:	01 df                	add    %ebx,%edi
    4600:	8b 45 f0             	mov    -0x10(%ebp),%eax
    4603:	eb 12                	jmp    4617 <str_length+0x97>
    4605:	8d 76 00             	lea    0x0(%esi),%esi
    4608:	41                   	inc    %ecx
    4609:	8a 54 0e ff          	mov    -0x1(%esi,%ecx,1),%dl
    460d:	88 d3                	mov    %dl,%bl
    460f:	83 e3 c0             	and    $0xffffffc0,%ebx
    4612:	80 fb 80             	cmp    $0x80,%bl
    4615:	75 90                	jne    45a7 <str_length+0x27>
    4617:	c1 e0 06             	shl    $0x6,%eax
    461a:	83 e2 3f             	and    $0x3f,%edx
    461d:	09 d0                	or     %edx,%eax
    461f:	39 f9                	cmp    %edi,%ecx
    4621:	75 e5                	jne    4608 <str_length+0x88>
    4623:	89 45 f0             	mov    %eax,-0x10(%ebp)
    4626:	e9 75 ff ff ff       	jmp    45a0 <str_length+0x20>
    462b:	83 e0 0f             	and    $0xf,%eax
    462e:	bf 02 00 00 00       	mov    $0x2,%edi
    4633:	89 45 f0             	mov    %eax,-0x10(%ebp)
    4636:	eb b7                	jmp    45ef <str_length+0x6f>
    4638:	83 e0 07             	and    $0x7,%eax
    463b:	bf 03 00 00 00       	mov    $0x3,%edi
    4640:	89 45 f0             	mov    %eax,-0x10(%ebp)
    4643:	eb aa                	jmp    45ef <str_length+0x6f>
    4645:	8d 74 26 00          	lea    0x0(%esi,%eiz,1),%esi
    4649:	8d bc 27 00 00 00 00 	lea    0x0(%edi,%eiz,1),%edi

00004650 <wstr_length>:
    4650:	55                   	push   %ebp
    4651:	31 c0                	xor    %eax,%eax
    4653:	89 e5                	mov    %esp,%ebp
    4655:	8b 55 08             	mov    0x8(%ebp),%edx
    4658:	8b 0a                	mov    (%edx),%ecx
    465a:	85 c9                	test   %ecx,%ecx
    465c:	74 0a                	je     4668 <wstr_length+0x18>
    465e:	66 90                	xchg   %ax,%ax
    4660:	40                   	inc    %eax
    4661:	8b 0c 82             	mov    (%edx,%eax,4),%ecx
    4664:	85 c9                	test   %ecx,%ecx
    4666:	75 f8                	jne    4660 <wstr_length+0x10>
    4668:	5d                   	pop    %ebp
    4669:	c3                   	ret    
    466a:	8d b6 00 00 00 00    	lea    0x0(%esi),%esi

00004670 <str_nlength>:
    4670:	55                   	push   %ebp
    4671:	89 e5                	mov    %esp,%ebp
    4673:	57                   	push   %edi
    4674:	56                   	push   %esi
    4675:	53                   	push   %ebx
    4676:	56                   	push   %esi
    4677:	c7 45 f0 00 00 00 00 	movl   $0x0,-0x10(%ebp)
    467e:	8b 7d 0c             	mov    0xc(%ebp),%edi
    4681:	8b 75 08             	mov    0x8(%ebp),%esi
    4684:	85 ff                	test   %edi,%edi
    4686:	74 29                	je     46b1 <str_nlength+0x41>
    4688:	31 c9                	xor    %ecx,%ecx
    468a:	bb 01 00 00 00       	mov    $0x1,%ebx
    468f:	90                   	nop
    4690:	8a 04 0e             	mov    (%esi,%ecx,1),%al
    4693:	84 c0                	test   %al,%al
    4695:	78 29                	js     46c0 <str_nlength+0x50>
    4697:	39 5d 0c             	cmp    %ebx,0xc(%ebp)
    469a:	0f 83 a1 00 00 00    	jae    4741 <str_nlength+0xd1>
    46a0:	89 d9                	mov    %ebx,%ecx
    46a2:	8b 5d f0             	mov    -0x10(%ebp),%ebx
    46a5:	43                   	inc    %ebx
    46a6:	89 5d f0             	mov    %ebx,-0x10(%ebp)
    46a9:	8d 59 01             	lea    0x1(%ecx),%ebx
    46ac:	39 5d 0c             	cmp    %ebx,0xc(%ebp)
    46af:	73 df                	jae    4690 <str_nlength+0x20>
    46b1:	8b 45 f0             	mov    -0x10(%ebp),%eax
    46b4:	5a                   	pop    %edx
    46b5:	5b                   	pop    %ebx
    46b6:	5e                   	pop    %esi
    46b7:	5f                   	pop    %edi
    46b8:	5d                   	pop    %ebp
    46b9:	c3                   	ret    
    46ba:	8d b6 00 00 00 00    	lea    0x0(%esi),%esi
    46c0:	88 c2                	mov    %al,%dl
    46c2:	83 e2 e0             	and    $0xffffffe0,%edx
    46c5:	80 fa c0             	cmp    $0xc0,%dl
    46c8:	74 1e                	je     46e8 <str_nlength+0x78>
    46ca:	88 c2                	mov    %al,%dl
    46cc:	83 e2 f0             	and    $0xfffffff0,%edx
    46cf:	80 fa e0             	cmp    $0xe0,%dl
    46d2:	74 64                	je     4738 <str_nlength+0xc8>
    46d4:	88 c2                	mov    %al,%dl
    46d6:	83 e2 f8             	and    $0xfffffff8,%edx
    46d9:	80 fa f0             	cmp    $0xf0,%dl
    46dc:	75 c2                	jne    46a0 <str_nlength+0x30>
    46de:	b2 07                	mov    $0x7,%dl
    46e0:	bf 03 00 00 00       	mov    $0x3,%edi
    46e5:	eb 08                	jmp    46ef <str_nlength+0x7f>
    46e7:	90                   	nop
    46e8:	b2 1f                	mov    $0x1f,%dl
    46ea:	bf 01 00 00 00       	mov    $0x1,%edi
    46ef:	01 df                	add    %ebx,%edi
    46f1:	39 7d 0c             	cmp    %edi,0xc(%ebp)
    46f4:	72 aa                	jb     46a0 <str_nlength+0x30>
    46f6:	21 d0                	and    %edx,%eax
    46f8:	8a 14 1e             	mov    (%esi,%ebx,1),%dl
    46fb:	8d 4b 01             	lea    0x1(%ebx),%ecx
    46fe:	88 d3                	mov    %dl,%bl
    4700:	83 e3 c0             	and    $0xffffffc0,%ebx
    4703:	25 ff 00 00 00       	and    $0xff,%eax
    4708:	80 fb 80             	cmp    $0x80,%bl
    470b:	74 12                	je     471f <str_nlength+0xaf>
    470d:	eb 93                	jmp    46a2 <str_nlength+0x32>
    470f:	90                   	nop
    4710:	41                   	inc    %ecx
    4711:	8a 54 0e ff          	mov    -0x1(%esi,%ecx,1),%dl
    4715:	88 d3                	mov    %dl,%bl
    4717:	83 e3 c0             	and    $0xffffffc0,%ebx
    471a:	80 fb 80             	cmp    $0x80,%bl
    471d:	75 83                	jne    46a2 <str_nlength+0x32>
    471f:	c1 e0 06             	shl    $0x6,%eax
    4722:	83 e2 3f             	and    $0x3f,%edx
    4725:	09 d0                	or     %edx,%eax
    4727:	39 f9                	cmp    %edi,%ecx
    4729:	75 e5                	jne    4710 <str_nlength+0xa0>
    472b:	85 c0                	test   %eax,%eax
    472d:	0f 85 6f ff ff ff    	jne    46a2 <str_nlength+0x32>
    4733:	e9 79 ff ff ff       	jmp    46b1 <str_nlength+0x41>
    4738:	b2 0f                	mov    $0xf,%dl
    473a:	bf 02 00 00 00       	mov    $0x2,%edi
    473f:	eb ae                	jmp    46ef <str_nlength+0x7f>
    4741:	83 e0 7f             	and    $0x7f,%eax
    4744:	89 d9                	mov    %ebx,%ecx
    4746:	eb e3                	jmp    472b <str_nlength+0xbb>
    4748:	90                   	nop
    4749:	8d b4 26 00 00 00 00 	lea    0x0(%esi,%eiz,1),%esi

00004750 <wstr_nlength>:
    4750:	55                   	push   %ebp
    4751:	31 c0                	xor    %eax,%eax
    4753:	89 e5                	mov    %esp,%ebp
    4755:	53                   	push   %ebx
    4756:	8b 4d 0c             	mov    0xc(%ebp),%ecx
    4759:	8b 5d 08             	mov    0x8(%ebp),%ebx
    475c:	83 e1 fc             	and    $0xfffffffc,%ecx
    475f:	74 22                	je     4783 <wstr_nlength+0x33>
    4761:	8b 13                	mov    (%ebx),%edx
    4763:	85 d2                	test   %edx,%edx
    4765:	75 10                	jne    4777 <wstr_nlength+0x27>
    4767:	eb 1a                	jmp    4783 <wstr_nlength+0x33>
    4769:	8d b4 26 00 00 00 00 	lea    0x0(%esi,%eiz,1),%esi
    4770:	8b 14 83             	mov    (%ebx,%eax,4),%edx
    4773:	85 d2                	test   %edx,%edx
    4775:	74 0c                	je     4783 <wstr_nlength+0x33>
    4777:	40                   	inc    %eax
    4778:	8d 14 85 00 00 00 00 	lea    0x0(,%eax,4),%edx
    477f:	39 ca                	cmp    %ecx,%edx
    4781:	72 ed                	jb     4770 <wstr_nlength+0x20>
    4783:	5b                   	pop    %ebx
    4784:	5d                   	pop    %ebp
    4785:	c3                   	ret    
    4786:	8d 76 00             	lea    0x0(%esi),%esi
    4789:	8d bc 27 00 00 00 00 	lea    0x0(%edi,%eiz,1),%edi

00004790 <chr_width>:
    4790:	55                   	push   %ebp
    4791:	b8 01 00 00 00       	mov    $0x1,%eax
    4796:	89 e5                	mov    %esp,%ebp
    4798:	5d                   	pop    %ebp
    4799:	c3                   	ret    
    479a:	8d b6 00 00 00 00    	lea    0x0(%esi),%esi

000047a0 <str_width>:
    47a0:	55                   	push   %ebp
    47a1:	31 c9                	xor    %ecx,%ecx
    47a3:	89 e5                	mov    %esp,%ebp
    47a5:	57                   	push   %edi
    47a6:	56                   	push   %esi
    47a7:	53                   	push   %ebx
    47a8:	83 ec 08             	sub    $0x8,%esp
    47ab:	c7 45 ec 00 00 00 00 	movl   $0x0,-0x14(%ebp)
    47b2:	8b 75 08             	mov    0x8(%ebp),%esi
    47b5:	eb 17                	jmp    47ce <str_width+0x2e>
    47b7:	90                   	nop
    47b8:	83 e0 7f             	and    $0x7f,%eax
    47bb:	89 d9                	mov    %ebx,%ecx
    47bd:	89 45 f0             	mov    %eax,-0x10(%ebp)
    47c0:	8b 5d f0             	mov    -0x10(%ebp),%ebx
    47c3:	85 db                	test   %ebx,%ebx
    47c5:	74 33                	je     47fa <str_width+0x5a>
    47c7:	8b 7d ec             	mov    -0x14(%ebp),%edi
    47ca:	47                   	inc    %edi
    47cb:	89 7d ec             	mov    %edi,-0x14(%ebp)
    47ce:	8a 04 0e             	mov    (%esi,%ecx,1),%al
    47d1:	8d 59 01             	lea    0x1(%ecx),%ebx
    47d4:	84 c0                	test   %al,%al
    47d6:	79 e0                	jns    47b8 <str_width+0x18>
    47d8:	88 c2                	mov    %al,%dl
    47da:	83 e2 e0             	and    $0xffffffe0,%edx
    47dd:	80 fa c0             	cmp    $0xc0,%dl
    47e0:	74 22                	je     4804 <str_width+0x64>
    47e2:	88 c2                	mov    %al,%dl
    47e4:	83 e2 f0             	and    $0xfffffff0,%edx
    47e7:	80 fa e0             	cmp    $0xe0,%dl
    47ea:	74 5f                	je     484b <str_width+0xab>
    47ec:	88 c2                	mov    %al,%dl
    47ee:	83 e2 f8             	and    $0xfffffff8,%edx
    47f1:	80 fa f0             	cmp    $0xf0,%dl
    47f4:	74 62                	je     4858 <str_width+0xb8>
    47f6:	89 d9                	mov    %ebx,%ecx
    47f8:	eb cd                	jmp    47c7 <str_width+0x27>
    47fa:	8b 45 ec             	mov    -0x14(%ebp),%eax
    47fd:	5a                   	pop    %edx
    47fe:	59                   	pop    %ecx
    47ff:	5b                   	pop    %ebx
    4800:	5e                   	pop    %esi
    4801:	5f                   	pop    %edi
    4802:	5d                   	pop    %ebp
    4803:	c3                   	ret    
    4804:	83 e0 1f             	and    $0x1f,%eax
    4807:	bf 01 00 00 00       	mov    $0x1,%edi
    480c:	89 45 f0             	mov    %eax,-0x10(%ebp)
    480f:	8a 14 1e             	mov    (%esi,%ebx,1),%dl
    4812:	83 c1 02             	add    $0x2,%ecx
    4815:	88 d0                	mov    %dl,%al
    4817:	83 e0 c0             	and    $0xffffffc0,%eax
    481a:	3c 80                	cmp    $0x80,%al
    481c:	75 a9                	jne    47c7 <str_width+0x27>
    481e:	01 df                	add    %ebx,%edi
    4820:	8b 45 f0             	mov    -0x10(%ebp),%eax
    4823:	eb 12                	jmp    4837 <str_width+0x97>
    4825:	8d 76 00             	lea    0x0(%esi),%esi
    4828:	41                   	inc    %ecx
    4829:	8a 54 0e ff          	mov    -0x1(%esi,%ecx,1),%dl
    482d:	88 d3                	mov    %dl,%bl
    482f:	83 e3 c0             	and    $0xffffffc0,%ebx
    4832:	80 fb 80             	cmp    $0x80,%bl
    4835:	75 90                	jne    47c7 <str_width+0x27>
    4837:	c1 e0 06             	shl    $0x6,%eax
    483a:	83 e2 3f             	and    $0x3f,%edx
    483d:	09 d0                	or     %edx,%eax
    483f:	39 f9                	cmp    %edi,%ecx
    4841:	75 e5                	jne    4828 <str_width+0x88>
    4843:	89 45 f0             	mov    %eax,-0x10(%ebp)
    4846:	e9 75 ff ff ff       	jmp    47c0 <str_width+0x20>
    484b:	83 e0 0f             	and    $0xf,%eax
    484e:	bf 02 00 00 00       	mov    $0x2,%edi
    4853:	89 45 f0             	mov    %eax,-0x10(%ebp)
    4856:	eb b7                	jmp    480f <str_width+0x6f>
    4858:	83 e0 07             	and    $0x7,%eax
    485b:	bf 03 00 00 00       	mov    $0x3,%edi
    4860:	89 45 f0             	mov    %eax,-0x10(%ebp)
    4863:	eb aa                	jmp    480f <str_width+0x6f>
    4865:	8d 74 26 00          	lea    0x0(%esi,%eiz,1),%esi
    4869:	8d bc 27 00 00 00 00 	lea    0x0(%edi,%eiz,1),%edi

00004870 <ascii_check>:
    4870:	55                   	push   %ebp
    4871:	89 e5                	mov    %esp,%ebp
    4873:	83 7d 08 7f          	cmpl   $0x7f,0x8(%ebp)
    4877:	5d                   	pop    %ebp
    4878:	0f 96 c0             	setbe  %al
    487b:	c3                   	ret    
    487c:	8d 74 26 00          	lea    0x0(%esi,%eiz,1),%esi

00004880 <chr_check>:
    4880:	55                   	push   %ebp
    4881:	89 e5                	mov    %esp,%ebp
    4883:	81 7d 08 ff ff 10 00 	cmpl   $0x10ffff,0x8(%ebp)
    488a:	5d                   	pop    %ebp
    488b:	0f 96 c0             	setbe  %al
    488e:	c3                   	ret    
    488f:	90                   	nop

00004890 <str_cmp>:
    4890:	55                   	push   %ebp
    4891:	89 e5                	mov    %esp,%ebp
    4893:	57                   	push   %edi
    4894:	56                   	push   %esi
    4895:	53                   	push   %ebx
    4896:	83 ec 08             	sub    $0x8,%esp
    4899:	31 f6                	xor    %esi,%esi
    489b:	31 ff                	xor    %edi,%edi
    489d:	eb 3c                	jmp    48db <str_cmp+0x4b>
    489f:	90                   	nop
    48a0:	83 e3 7f             	and    $0x7f,%ebx
    48a3:	89 cf                	mov    %ecx,%edi
    48a5:	8d 46 01             	lea    0x1(%esi),%eax
    48a8:	89 45 f0             	mov    %eax,-0x10(%ebp)
    48ab:	8b 45 0c             	mov    0xc(%ebp),%eax
    48ae:	8a 14 30             	mov    (%eax,%esi,1),%dl
    48b1:	84 d2                	test   %dl,%dl
    48b3:	78 73                	js     4928 <str_cmp+0x98>
    48b5:	89 d0                	mov    %edx,%eax
    48b7:	8b 75 f0             	mov    -0x10(%ebp),%esi
    48ba:	83 e0 7f             	and    $0x7f,%eax
    48bd:	39 d8                	cmp    %ebx,%eax
    48bf:	0f 8f 9a 00 00 00    	jg     495f <str_cmp+0xcf>
    48c5:	0f 8c 94 01 00 00    	jl     4a5f <str_cmp+0x1cf>
    48cb:	85 db                	test   %ebx,%ebx
    48cd:	0f 84 98 01 00 00    	je     4a6b <str_cmp+0x1db>
    48d3:	85 c0                	test   %eax,%eax
    48d5:	0f 84 90 01 00 00    	je     4a6b <str_cmp+0x1db>
    48db:	8b 45 08             	mov    0x8(%ebp),%eax
    48de:	8d 4f 01             	lea    0x1(%edi),%ecx
    48e1:	8a 1c 38             	mov    (%eax,%edi,1),%bl
    48e4:	84 db                	test   %bl,%bl
    48e6:	79 b8                	jns    48a0 <str_cmp+0x10>
    48e8:	88 da                	mov    %bl,%dl
    48ea:	83 e2 e0             	and    $0xffffffe0,%edx
    48ed:	80 fa c0             	cmp    $0xc0,%dl
    48f0:	74 77                	je     4969 <str_cmp+0xd9>
    48f2:	88 da                	mov    %bl,%dl
    48f4:	83 e2 f0             	and    $0xfffffff0,%edx
    48f7:	80 fa e0             	cmp    $0xe0,%dl
    48fa:	0f 84 38 01 00 00    	je     4a38 <str_cmp+0x1a8>
    4900:	88 da                	mov    %bl,%dl
    4902:	83 e2 f8             	and    $0xfffffff8,%edx
    4905:	80 fa f0             	cmp    $0xf0,%dl
    4908:	0f 84 74 01 00 00    	je     4a82 <str_cmp+0x1f2>
    490e:	8d 46 01             	lea    0x1(%esi),%eax
    4911:	89 cf                	mov    %ecx,%edi
    4913:	89 45 f0             	mov    %eax,-0x10(%ebp)
    4916:	8b 45 0c             	mov    0xc(%ebp),%eax
    4919:	bb 3f 00 00 00       	mov    $0x3f,%ebx
    491e:	8a 14 30             	mov    (%eax,%esi,1),%dl
    4921:	84 d2                	test   %dl,%dl
    4923:	79 90                	jns    48b5 <str_cmp+0x25>
    4925:	8d 76 00             	lea    0x0(%esi),%esi
    4928:	88 d0                	mov    %dl,%al
    492a:	83 e0 e0             	and    $0xffffffe0,%eax
    492d:	3c c0                	cmp    $0xc0,%al
    492f:	0f 84 90 00 00 00    	je     49c5 <str_cmp+0x135>
    4935:	88 d0                	mov    %dl,%al
    4937:	83 e0 f0             	and    $0xfffffff0,%eax
    493a:	3c e0                	cmp    $0xe0,%al
    493c:	0f 84 05 01 00 00    	je     4a47 <str_cmp+0x1b7>
    4942:	88 d0                	mov    %dl,%al
    4944:	83 e0 f8             	and    $0xfffffff8,%eax
    4947:	3c f0                	cmp    $0xf0,%al
    4949:	0f 84 25 01 00 00    	je     4a74 <str_cmp+0x1e4>
    494f:	b8 3f 00 00 00       	mov    $0x3f,%eax
    4954:	8b 75 f0             	mov    -0x10(%ebp),%esi
    4957:	39 d8                	cmp    %ebx,%eax
    4959:	0f 8e 66 ff ff ff    	jle    48c5 <str_cmp+0x35>
    495f:	5a                   	pop    %edx
    4960:	83 c8 ff             	or     $0xffffffff,%eax
    4963:	59                   	pop    %ecx
    4964:	5b                   	pop    %ebx
    4965:	5e                   	pop    %esi
    4966:	5f                   	pop    %edi
    4967:	5d                   	pop    %ebp
    4968:	c3                   	ret    
    4969:	83 e3 1f             	and    $0x1f,%ebx
    496c:	c7 45 f0 01 00 00 00 	movl   $0x1,-0x10(%ebp)
    4973:	8a 04 08             	mov    (%eax,%ecx,1),%al
    4976:	83 c7 02             	add    $0x2,%edi
    4979:	88 c2                	mov    %al,%dl
    497b:	83 e2 c0             	and    $0xffffffc0,%edx
    497e:	80 fa 80             	cmp    $0x80,%dl
    4981:	75 38                	jne    49bb <str_cmp+0x12b>
    4983:	8b 55 f0             	mov    -0x10(%ebp),%edx
    4986:	89 75 f0             	mov    %esi,-0x10(%ebp)
    4989:	01 d1                	add    %edx,%ecx
    498b:	8b 75 08             	mov    0x8(%ebp),%esi
    498e:	eb 0f                	jmp    499f <str_cmp+0x10f>
    4990:	47                   	inc    %edi
    4991:	8a 44 3e ff          	mov    -0x1(%esi,%edi,1),%al
    4995:	88 c2                	mov    %al,%dl
    4997:	83 e2 c0             	and    $0xffffffc0,%edx
    499a:	80 fa 80             	cmp    $0x80,%dl
    499d:	75 19                	jne    49b8 <str_cmp+0x128>
    499f:	c1 e3 06             	shl    $0x6,%ebx
    49a2:	83 e0 3f             	and    $0x3f,%eax
    49a5:	09 c3                	or     %eax,%ebx
    49a7:	39 cf                	cmp    %ecx,%edi
    49a9:	75 e5                	jne    4990 <str_cmp+0x100>
    49ab:	8b 75 f0             	mov    -0x10(%ebp),%esi
    49ae:	e9 f2 fe ff ff       	jmp    48a5 <str_cmp+0x15>
    49b3:	90                   	nop
    49b4:	8d 74 26 00          	lea    0x0(%esi,%eiz,1),%esi
    49b8:	8b 75 f0             	mov    -0x10(%ebp),%esi
    49bb:	bb 3f 00 00 00       	mov    $0x3f,%ebx
    49c0:	e9 e0 fe ff ff       	jmp    48a5 <str_cmp+0x15>
    49c5:	b0 1f                	mov    $0x1f,%al
    49c7:	c7 45 ec 01 00 00 00 	movl   $0x1,-0x14(%ebp)
    49ce:	21 d0                	and    %edx,%eax
    49d0:	8b 4d 0c             	mov    0xc(%ebp),%ecx
    49d3:	8b 55 f0             	mov    -0x10(%ebp),%edx
    49d6:	25 ff 00 00 00       	and    $0xff,%eax
    49db:	83 c6 02             	add    $0x2,%esi
    49de:	8a 14 11             	mov    (%ecx,%edx,1),%dl
    49e1:	88 d1                	mov    %dl,%cl
    49e3:	83 e1 c0             	and    $0xffffffc0,%ecx
    49e6:	80 f9 80             	cmp    $0x80,%cl
    49e9:	75 6a                	jne    4a55 <str_cmp+0x1c5>
    49eb:	8b 4d f0             	mov    -0x10(%ebp),%ecx
    49ee:	89 7d f0             	mov    %edi,-0x10(%ebp)
    49f1:	03 4d ec             	add    -0x14(%ebp),%ecx
    49f4:	8b 7d 0c             	mov    0xc(%ebp),%edi
    49f7:	89 5d ec             	mov    %ebx,-0x14(%ebp)
    49fa:	89 cb                	mov    %ecx,%ebx
    49fc:	eb 11                	jmp    4a0f <str_cmp+0x17f>
    49fe:	66 90                	xchg   %ax,%ax
    4a00:	46                   	inc    %esi
    4a01:	8a 54 37 ff          	mov    -0x1(%edi,%esi,1),%dl
    4a05:	88 d1                	mov    %dl,%cl
