
usbinfo:     file format elf32-i386


Disassembly of section .init:

000010f4 <__entry>:
    10f4:	66 8c d0             	mov    %ss,%ax
    10f7:	8e d8                	mov    %eax,%ds
    10f9:	8e c0                	mov    %eax,%es
    10fb:	8e e0                	mov    %eax,%fs
    10fd:	b8 01 00 00 00       	mov    $0x1,%eax
    1102:	0f a2                	cpuid  
    1104:	0f ba e2 0b          	bt     $0xb,%edx
    1108:	73 0c                	jae    1116 <__entry+0x22>
    110a:	8d 05 a8 a6 01 00    	lea    0x1a6a8,%eax
    1110:	c7 00 30 83 01 00    	movl   $0x18330,(%eax)
    1116:	6a 00                	push   $0x0
    1118:	6a 00                	push   $0x0
    111a:	89 e5                	mov    %esp,%ebp
    111c:	57                   	push   %edi
    111d:	e8 1e 6d 01 00       	call   17e40 <__main@plt>

Disassembly of section .text:

00001140 <browse_descriptor_tree_internal>:
    1140:	85 c9                	test   %ecx,%ecx
    1142:	0f 84 d2 02 00 00    	je     141a <browse_descriptor_tree_internal+0x2da>
    1148:	55                   	push   %ebp
    1149:	89 e5                	mov    %esp,%ebp
    114b:	57                   	push   %edi
    114c:	56                   	push   %esi
    114d:	53                   	push   %ebx
    114e:	83 ec 60             	sub    $0x60,%esp
    1151:	89 cb                	mov    %ecx,%ebx
    1153:	89 4d a0             	mov    %ecx,-0x60(%ebp)
    1156:	89 d6                	mov    %edx,%esi
    1158:	8b 4d 08             	mov    0x8(%ebp),%ecx
    115b:	8b 55 10             	mov    0x10(%ebp),%edx
    115e:	52                   	push   %edx
    115f:	51                   	push   %ecx
    1160:	53                   	push   %ebx
    1161:	89 c7                	mov    %eax,%edi
    1163:	ff 55 0c             	call   *0xc(%ebp)
    1166:	83 c4 0c             	add    $0xc,%esp
    1169:	53                   	push   %ebx
    116a:	56                   	push   %esi
    116b:	57                   	push   %edi
    116c:	e8 4f 61 00 00       	call   72c0 <usb_dp_get_nested_descriptor>
    1171:	8b 55 08             	mov    0x8(%ebp),%edx
    1174:	83 c4 10             	add    $0x10,%esp
    1177:	42                   	inc    %edx
    1178:	89 45 cc             	mov    %eax,-0x34(%ebp)
    117b:	89 55 b4             	mov    %edx,-0x4c(%ebp)
    117e:	85 c0                	test   %eax,%eax
    1180:	0f 84 70 02 00 00    	je     13f6 <browse_descriptor_tree_internal+0x2b6>
    1186:	50                   	push   %eax
    1187:	8b 45 10             	mov    0x10(%ebp),%eax
    118a:	50                   	push   %eax
    118b:	8b 5d cc             	mov    -0x34(%ebp),%ebx
    118e:	8b 45 b4             	mov    -0x4c(%ebp),%eax
    1191:	50                   	push   %eax
    1192:	53                   	push   %ebx
    1193:	ff 55 0c             	call   *0xc(%ebp)
    1196:	83 c4 0c             	add    $0xc,%esp
    1199:	53                   	push   %ebx
    119a:	56                   	push   %esi
    119b:	57                   	push   %edi
    119c:	e8 1f 61 00 00       	call   72c0 <usb_dp_get_nested_descriptor>
    11a1:	8b 4d 08             	mov    0x8(%ebp),%ecx
    11a4:	83 c4 10             	add    $0x10,%esp
    11a7:	89 45 c8             	mov    %eax,-0x38(%ebp)
    11aa:	85 c0                	test   %eax,%eax
    11ac:	8d 51 02             	lea    0x2(%ecx),%edx
    11af:	89 55 b8             	mov    %edx,-0x48(%ebp)
    11b2:	0f 84 21 02 00 00    	je     13d9 <browse_descriptor_tree_internal+0x299>
    11b8:	8b 55 10             	mov    0x10(%ebp),%edx
    11bb:	8b 4d b8             	mov    -0x48(%ebp),%ecx
    11be:	8b 5d c8             	mov    -0x38(%ebp),%ebx
    11c1:	50                   	push   %eax
    11c2:	52                   	push   %edx
    11c3:	51                   	push   %ecx
    11c4:	53                   	push   %ebx
    11c5:	ff 55 0c             	call   *0xc(%ebp)
    11c8:	83 c4 0c             	add    $0xc,%esp
    11cb:	53                   	push   %ebx
    11cc:	56                   	push   %esi
    11cd:	57                   	push   %edi
    11ce:	e8 ed 60 00 00       	call   72c0 <usb_dp_get_nested_descriptor>
    11d3:	8b 4d 08             	mov    0x8(%ebp),%ecx
    11d6:	83 c4 10             	add    $0x10,%esp
    11d9:	89 45 c4             	mov    %eax,-0x3c(%ebp)
    11dc:	85 c0                	test   %eax,%eax
    11de:	8d 51 03             	lea    0x3(%ecx),%edx
    11e1:	89 55 ac             	mov    %edx,-0x54(%ebp)
    11e4:	0f 84 d2 01 00 00    	je     13bc <browse_descriptor_tree_internal+0x27c>
    11ea:	50                   	push   %eax
    11eb:	8b 45 10             	mov    0x10(%ebp),%eax
    11ee:	50                   	push   %eax
    11ef:	8b 5d c4             	mov    -0x3c(%ebp),%ebx
    11f2:	8b 45 ac             	mov    -0x54(%ebp),%eax
    11f5:	50                   	push   %eax
    11f6:	53                   	push   %ebx
    11f7:	ff 55 0c             	call   *0xc(%ebp)
    11fa:	83 c4 0c             	add    $0xc,%esp
    11fd:	53                   	push   %ebx
    11fe:	56                   	push   %esi
    11ff:	57                   	push   %edi
    1200:	e8 bb 60 00 00       	call   72c0 <usb_dp_get_nested_descriptor>
    1205:	8b 4d 08             	mov    0x8(%ebp),%ecx
    1208:	83 c4 10             	add    $0x10,%esp
    120b:	89 45 c0             	mov    %eax,-0x40(%ebp)
    120e:	85 c0                	test   %eax,%eax
    1210:	8d 51 04             	lea    0x4(%ecx),%edx
    1213:	89 55 b0             	mov    %edx,-0x50(%ebp)
    1216:	0f 84 83 01 00 00    	je     139f <browse_descriptor_tree_internal+0x25f>
    121c:	8b 55 b0             	mov    -0x50(%ebp),%edx
    121f:	8b 5d c0             	mov    -0x40(%ebp),%ebx
    1222:	50                   	push   %eax
    1223:	8b 45 10             	mov    0x10(%ebp),%eax
    1226:	50                   	push   %eax
    1227:	52                   	push   %edx
    1228:	53                   	push   %ebx
    1229:	ff 55 0c             	call   *0xc(%ebp)
    122c:	83 c4 0c             	add    $0xc,%esp
    122f:	53                   	push   %ebx
    1230:	56                   	push   %esi
    1231:	57                   	push   %edi
    1232:	e8 89 60 00 00       	call   72c0 <usb_dp_get_nested_descriptor>
    1237:	8b 4d 08             	mov    0x8(%ebp),%ecx
    123a:	83 c4 10             	add    $0x10,%esp
    123d:	89 45 bc             	mov    %eax,-0x44(%ebp)
    1240:	85 c0                	test   %eax,%eax
    1242:	8d 51 05             	lea    0x5(%ecx),%edx
    1245:	89 55 a4             	mov    %edx,-0x5c(%ebp)
    1248:	75 1d                	jne    1267 <browse_descriptor_tree_internal+0x127>
    124a:	8b 45 bc             	mov    -0x44(%ebp),%eax
    124d:	50                   	push   %eax
    124e:	8b 45 c0             	mov    -0x40(%ebp),%eax
    1251:	50                   	push   %eax
    1252:	56                   	push   %esi
    1253:	57                   	push   %edi
    1254:	e8 c7 63 00 00       	call   7620 <usb_dp_get_sibling_descriptor>
    1259:	83 c4 10             	add    $0x10,%esp
    125c:	89 45 bc             	mov    %eax,-0x44(%ebp)
    125f:	85 c0                	test   %eax,%eax
    1261:	0f 84 38 01 00 00    	je     139f <browse_descriptor_tree_internal+0x25f>
    1267:	8b 45 10             	mov    0x10(%ebp),%eax
    126a:	53                   	push   %ebx
    126b:	8b 5d bc             	mov    -0x44(%ebp),%ebx
    126e:	50                   	push   %eax
    126f:	8b 45 a4             	mov    -0x5c(%ebp),%eax
    1272:	50                   	push   %eax
    1273:	53                   	push   %ebx
    1274:	ff 55 0c             	call   *0xc(%ebp)
    1277:	83 c4 0c             	add    $0xc,%esp
    127a:	53                   	push   %ebx
    127b:	56                   	push   %esi
    127c:	57                   	push   %edi
    127d:	e8 3e 60 00 00       	call   72c0 <usb_dp_get_nested_descriptor>
    1282:	8b 4d 08             	mov    0x8(%ebp),%ecx
    1285:	83 c4 10             	add    $0x10,%esp
    1288:	89 45 d4             	mov    %eax,-0x2c(%ebp)
    128b:	85 c0                	test   %eax,%eax
    128d:	8d 51 06             	lea    0x6(%ecx),%edx
    1290:	89 55 a8             	mov    %edx,-0x58(%ebp)
    1293:	75 19                	jne    12ae <browse_descriptor_tree_internal+0x16e>
    1295:	8b 55 d4             	mov    -0x2c(%ebp),%edx
    1298:	8b 4d bc             	mov    -0x44(%ebp),%ecx
    129b:	52                   	push   %edx
    129c:	51                   	push   %ecx
    129d:	56                   	push   %esi
    129e:	57                   	push   %edi
    129f:	e8 7c 63 00 00       	call   7620 <usb_dp_get_sibling_descriptor>
    12a4:	83 c4 10             	add    $0x10,%esp
    12a7:	89 45 d4             	mov    %eax,-0x2c(%ebp)
    12aa:	85 c0                	test   %eax,%eax
    12ac:	74 9c                	je     124a <browse_descriptor_tree_internal+0x10a>
    12ae:	50                   	push   %eax
    12af:	8b 45 10             	mov    0x10(%ebp),%eax
    12b2:	50                   	push   %eax
    12b3:	8b 5d d4             	mov    -0x2c(%ebp),%ebx
    12b6:	8b 45 a8             	mov    -0x58(%ebp),%eax
    12b9:	50                   	push   %eax
    12ba:	53                   	push   %ebx
    12bb:	ff 55 0c             	call   *0xc(%ebp)
    12be:	83 c4 0c             	add    $0xc,%esp
    12c1:	53                   	push   %ebx
    12c2:	56                   	push   %esi
    12c3:	57                   	push   %edi
    12c4:	e8 f7 5f 00 00       	call   72c0 <usb_dp_get_nested_descriptor>
    12c9:	8b 4d 08             	mov    0x8(%ebp),%ecx
    12cc:	83 c4 10             	add    $0x10,%esp
    12cf:	89 45 dc             	mov    %eax,-0x24(%ebp)
    12d2:	85 c0                	test   %eax,%eax
    12d4:	8d 51 07             	lea    0x7(%ecx),%edx
    12d7:	89 55 d0             	mov    %edx,-0x30(%ebp)
    12da:	75 1d                	jne    12f9 <browse_descriptor_tree_internal+0x1b9>
    12dc:	8d 74 26 00          	lea    0x0(%esi,%eiz,1),%esi
    12e0:	8b 45 dc             	mov    -0x24(%ebp),%eax
    12e3:	50                   	push   %eax
    12e4:	8b 45 d4             	mov    -0x2c(%ebp),%eax
    12e7:	50                   	push   %eax
    12e8:	56                   	push   %esi
    12e9:	57                   	push   %edi
    12ea:	e8 31 63 00 00       	call   7620 <usb_dp_get_sibling_descriptor>
    12ef:	83 c4 10             	add    $0x10,%esp
    12f2:	89 45 dc             	mov    %eax,-0x24(%ebp)
    12f5:	85 c0                	test   %eax,%eax
    12f7:	74 9c                	je     1295 <browse_descriptor_tree_internal+0x155>
    12f9:	8b 5d 10             	mov    0x10(%ebp),%ebx
    12fc:	8b 45 d0             	mov    -0x30(%ebp),%eax
    12ff:	51                   	push   %ecx
    1300:	53                   	push   %ebx
    1301:	8b 5d dc             	mov    -0x24(%ebp),%ebx
    1304:	50                   	push   %eax
    1305:	53                   	push   %ebx
    1306:	ff 55 0c             	call   *0xc(%ebp)
    1309:	83 c4 0c             	add    $0xc,%esp
    130c:	53                   	push   %ebx
    130d:	56                   	push   %esi
    130e:	57                   	push   %edi
    130f:	e8 ac 5f 00 00       	call   72c0 <usb_dp_get_nested_descriptor>
    1314:	8b 4d 08             	mov    0x8(%ebp),%ecx
    1317:	83 c4 10             	add    $0x10,%esp
    131a:	89 45 e4             	mov    %eax,-0x1c(%ebp)
    131d:	85 c0                	test   %eax,%eax
    131f:	8d 51 08             	lea    0x8(%ecx),%edx
    1322:	89 55 d8             	mov    %edx,-0x28(%ebp)
    1325:	75 1a                	jne    1341 <browse_descriptor_tree_internal+0x201>
    1327:	90                   	nop
    1328:	8b 45 e4             	mov    -0x1c(%ebp),%eax
    132b:	8b 55 dc             	mov    -0x24(%ebp),%edx
    132e:	50                   	push   %eax
    132f:	52                   	push   %edx
    1330:	56                   	push   %esi
    1331:	57                   	push   %edi
    1332:	e8 e9 62 00 00       	call   7620 <usb_dp_get_sibling_descriptor>
    1337:	83 c4 10             	add    $0x10,%esp
    133a:	89 45 e4             	mov    %eax,-0x1c(%ebp)
    133d:	85 c0                	test   %eax,%eax
    133f:	74 9f                	je     12e0 <browse_descriptor_tree_internal+0x1a0>
    1341:	50                   	push   %eax
    1342:	8b 45 10             	mov    0x10(%ebp),%eax
    1345:	50                   	push   %eax
    1346:	8b 5d e4             	mov    -0x1c(%ebp),%ebx
    1349:	8b 45 d8             	mov    -0x28(%ebp),%eax
    134c:	50                   	push   %eax
    134d:	53                   	push   %ebx
    134e:	ff 55 0c             	call   *0xc(%ebp)
    1351:	83 c4 0c             	add    $0xc,%esp
    1354:	53                   	push   %ebx
    1355:	56                   	push   %esi
    1356:	57                   	push   %edi
    1357:	e8 64 5f 00 00       	call   72c0 <usb_dp_get_nested_descriptor>
    135c:	89 c3                	mov    %eax,%ebx
    135e:	8b 45 08             	mov    0x8(%ebp),%eax
    1361:	83 c0 09             	add    $0x9,%eax
    1364:	83 c4 10             	add    $0x10,%esp
    1367:	89 45 e0             	mov    %eax,-0x20(%ebp)
    136a:	8d b6 00 00 00 00    	lea    0x0(%esi),%esi
    1370:	8b 55 10             	mov    0x10(%ebp),%edx
    1373:	8b 4d 0c             	mov    0xc(%ebp),%ecx
    1376:	50                   	push   %eax
    1377:	8b 45 e0             	mov    -0x20(%ebp),%eax
    137a:	52                   	push   %edx
    137b:	89 f2                	mov    %esi,%edx
    137d:	51                   	push   %ecx
    137e:	89 d9                	mov    %ebx,%ecx
    1380:	50                   	push   %eax
    1381:	89 f8                	mov    %edi,%eax
    1383:	e8 b8 fd ff ff       	call   1140 <browse_descriptor_tree_internal>
    1388:	8b 45 e4             	mov    -0x1c(%ebp),%eax
    138b:	53                   	push   %ebx
    138c:	50                   	push   %eax
    138d:	56                   	push   %esi
    138e:	57                   	push   %edi
    138f:	e8 8c 62 00 00       	call   7620 <usb_dp_get_sibling_descriptor>
    1394:	83 c4 20             	add    $0x20,%esp
    1397:	89 c3                	mov    %eax,%ebx
    1399:	85 c0                	test   %eax,%eax
    139b:	75 d3                	jne    1370 <browse_descriptor_tree_internal+0x230>
    139d:	eb 89                	jmp    1328 <browse_descriptor_tree_internal+0x1e8>
    139f:	8b 4d c0             	mov    -0x40(%ebp),%ecx
    13a2:	8b 5d c4             	mov    -0x3c(%ebp),%ebx
    13a5:	51                   	push   %ecx
    13a6:	53                   	push   %ebx
    13a7:	56                   	push   %esi
    13a8:	57                   	push   %edi
    13a9:	e8 72 62 00 00       	call   7620 <usb_dp_get_sibling_descriptor>
    13ae:	83 c4 10             	add    $0x10,%esp
    13b1:	89 45 c0             	mov    %eax,-0x40(%ebp)
    13b4:	85 c0                	test   %eax,%eax
    13b6:	0f 85 60 fe ff ff    	jne    121c <browse_descriptor_tree_internal+0xdc>
    13bc:	8b 45 c4             	mov    -0x3c(%ebp),%eax
    13bf:	50                   	push   %eax
    13c0:	8b 45 c8             	mov    -0x38(%ebp),%eax
    13c3:	50                   	push   %eax
    13c4:	56                   	push   %esi
    13c5:	57                   	push   %edi
    13c6:	e8 55 62 00 00       	call   7620 <usb_dp_get_sibling_descriptor>
    13cb:	83 c4 10             	add    $0x10,%esp
    13ce:	89 45 c4             	mov    %eax,-0x3c(%ebp)
    13d1:	85 c0                	test   %eax,%eax
    13d3:	0f 85 11 fe ff ff    	jne    11ea <browse_descriptor_tree_internal+0xaa>
    13d9:	8b 5d c8             	mov    -0x38(%ebp),%ebx
    13dc:	8b 45 cc             	mov    -0x34(%ebp),%eax
    13df:	53                   	push   %ebx
    13e0:	50                   	push   %eax
    13e1:	56                   	push   %esi
    13e2:	57                   	push   %edi
    13e3:	e8 38 62 00 00       	call   7620 <usb_dp_get_sibling_descriptor>
    13e8:	83 c4 10             	add    $0x10,%esp
    13eb:	89 45 c8             	mov    %eax,-0x38(%ebp)
    13ee:	85 c0                	test   %eax,%eax
    13f0:	0f 85 c2 fd ff ff    	jne    11b8 <browse_descriptor_tree_internal+0x78>
    13f6:	8b 45 cc             	mov    -0x34(%ebp),%eax
    13f9:	50                   	push   %eax
    13fa:	8b 45 a0             	mov    -0x60(%ebp),%eax
    13fd:	50                   	push   %eax
    13fe:	56                   	push   %esi
    13ff:	57                   	push   %edi
    1400:	e8 1b 62 00 00       	call   7620 <usb_dp_get_sibling_descriptor>
    1405:	83 c4 10             	add    $0x10,%esp
    1408:	89 45 cc             	mov    %eax,-0x34(%ebp)
    140b:	85 c0                	test   %eax,%eax
    140d:	0f 85 73 fd ff ff    	jne    1186 <browse_descriptor_tree_internal+0x46>
    1413:	8d 65 f4             	lea    -0xc(%ebp),%esp
    1416:	5b                   	pop    %ebx
    1417:	5e                   	pop    %esi
    1418:	5f                   	pop    %edi
    1419:	5d                   	pop    %ebp
    141a:	c3                   	ret    
    141b:	90                   	nop
    141c:	8d 74 26 00          	lea    0x0(%esi,%eiz,1),%esi

00001420 <browse_descriptor_tree>:
    1420:	55                   	push   %ebp
    1421:	89 e5                	mov    %esp,%ebp
    1423:	57                   	push   %edi
    1424:	56                   	push   %esi
    1425:	53                   	push   %ebx
    1426:	83 ec 2c             	sub    $0x2c,%esp
    1429:	c7 45 e4 00 00 00 00 	movl   $0x0,-0x1c(%ebp)
    1430:	8b 45 08             	mov    0x8(%ebp),%eax
    1433:	8b 4d 08             	mov    0x8(%ebp),%ecx
    1436:	89 45 dc             	mov    %eax,-0x24(%ebp)
    1439:	8b 45 0c             	mov    0xc(%ebp),%eax
    143c:	89 45 e0             	mov    %eax,-0x20(%ebp)
    143f:	8b 45 10             	mov    0x10(%ebp),%eax
    1442:	89 45 d8             	mov    %eax,-0x28(%ebp)
    1445:	85 c9                	test   %ecx,%ecx
    1447:	74 64                	je     14ad <browse_descriptor_tree+0x8d>
    1449:	50                   	push   %eax
    144a:	8b 45 1c             	mov    0x1c(%ebp),%eax
    144d:	50                   	push   %eax
    144e:	8b 45 18             	mov    0x18(%ebp),%eax
    1451:	50                   	push   %eax
    1452:	8b 45 08             	mov    0x8(%ebp),%eax
    1455:	50                   	push   %eax
    1456:	ff 55 14             	call   *0x14(%ebp)
    1459:	83 c4 0c             	add    $0xc,%esp
    145c:	8b 55 08             	mov    0x8(%ebp),%edx
    145f:	8d 7d dc             	lea    -0x24(%ebp),%edi
    1462:	8d 75 d8             	lea    -0x28(%ebp),%esi
    1465:	52                   	push   %edx
    1466:	57                   	push   %edi
    1467:	56                   	push   %esi
    1468:	e8 53 5e 00 00       	call   72c0 <usb_dp_get_nested_descriptor>
    146d:	89 c3                	mov    %eax,%ebx
    146f:	8b 45 18             	mov    0x18(%ebp),%eax
    1472:	40                   	inc    %eax
    1473:	83 c4 10             	add    $0x10,%esp
    1476:	89 45 d4             	mov    %eax,-0x2c(%ebp)
    1479:	8d b4 26 00 00 00 00 	lea    0x0(%esi,%eiz,1),%esi
    1480:	8b 55 1c             	mov    0x1c(%ebp),%edx
    1483:	8b 4d 14             	mov    0x14(%ebp),%ecx
    1486:	50                   	push   %eax
    1487:	8b 45 d4             	mov    -0x2c(%ebp),%eax
    148a:	52                   	push   %edx
    148b:	89 fa                	mov    %edi,%edx
    148d:	51                   	push   %ecx
    148e:	89 d9                	mov    %ebx,%ecx
    1490:	50                   	push   %eax
    1491:	89 f0                	mov    %esi,%eax
    1493:	e8 a8 fc ff ff       	call   1140 <browse_descriptor_tree_internal>
    1498:	8b 45 08             	mov    0x8(%ebp),%eax
    149b:	53                   	push   %ebx
    149c:	50                   	push   %eax
    149d:	57                   	push   %edi
    149e:	56                   	push   %esi
    149f:	e8 7c 61 00 00       	call   7620 <usb_dp_get_sibling_descriptor>
    14a4:	83 c4 20             	add    $0x20,%esp
    14a7:	89 c3                	mov    %eax,%ebx
    14a9:	85 c0                	test   %eax,%eax
    14ab:	75 d3                	jne    1480 <browse_descriptor_tree+0x60>
    14ad:	8d 65 f4             	lea    -0xc(%ebp),%esp
    14b0:	5b                   	pop    %ebx
    14b1:	5e                   	pop    %esi
    14b2:	5f                   	pop    %edi
    14b3:	5d                   	pop    %ebp
    14b4:	c3                   	ret    
    14b5:	66 90                	xchg   %ax,%ax
    14b7:	66 90                	xchg   %ax,%ax
    14b9:	66 90                	xchg   %ax,%ax
    14bb:	66 90                	xchg   %ax,%ax
    14bd:	66 90                	xchg   %ax,%ax
    14bf:	90                   	nop

000014c0 <dump_tree_internal.constprop.1>:
    14c0:	85 d2                	test   %edx,%edx
    14c2:	0f 84 b9 00 00 00    	je     1581 <dump_tree_internal.constprop.1+0xc1>
    14c8:	55                   	push   %ebp
    14c9:	89 e5                	mov    %esp,%ebp
    14cb:	57                   	push   %edi
    14cc:	56                   	push   %esi
    14cd:	53                   	push   %ebx
    14ce:	83 ec 1c             	sub    $0x1c,%esp
    14d1:	31 db                	xor    %ebx,%ebx
    14d3:	0f b6 7a 01          	movzbl 0x1(%edx),%edi
    14d7:	8a 5a 01             	mov    0x1(%edx),%bl
    14da:	c7 45 e4 4e 42 01 00 	movl   $0x1424e,-0x1c(%ebp)
    14e1:	89 5d dc             	mov    %ebx,-0x24(%ebp)
    14e4:	8d 5f ff             	lea    -0x1(%edi),%ebx
    14e7:	80 fb 28             	cmp    $0x28,%bl
    14ea:	0f 86 98 00 00 00    	jbe    1588 <dump_tree_internal.constprop.1+0xc8>
    14f0:	89 4d e0             	mov    %ecx,-0x20(%ebp)
    14f3:	89 d7                	mov    %edx,%edi
    14f5:	89 c6                	mov    %eax,%esi
    14f7:	83 f9 04             	cmp    $0x4,%ecx
    14fa:	0f 86 aa 00 00 00    	jbe    15aa <dump_tree_internal.constprop.1+0xea>
    1500:	8b 45 dc             	mov    -0x24(%ebp),%eax
    1503:	8b 55 e4             	mov    -0x1c(%ebp),%edx
    1506:	50                   	push   %eax
    1507:	52                   	push   %edx
    1508:	68 56 42 01 00       	push   $0x14256
    150d:	68 61 42 01 00       	push   $0x14261
    1512:	e8 99 69 01 00       	call   17eb0 <printf@plt>
    1517:	31 c0                	xor    %eax,%eax
    1519:	8a 07                	mov    (%edi),%al
    151b:	83 c4 10             	add    $0x10,%esp
    151e:	bb 56 42 01 00       	mov    $0x14256,%ebx
    1523:	83 ec 0c             	sub    $0xc,%esp
    1526:	8b 0d a0 a6 01 00    	mov    0x1a6a0,%ecx
    152c:	50                   	push   %eax
    152d:	57                   	push   %edi
    152e:	68 e5 7a 01 00       	push   $0x17ae5
    1533:	53                   	push   %ebx
    1534:	51                   	push   %ecx
    1535:	e8 76 9a 00 00       	call   afb0 <usb_dump_standard_descriptor>
    153a:	83 c4 1c             	add    $0x1c,%esp
    153d:	57                   	push   %edi
    153e:	56                   	push   %esi
    153f:	68 20 a3 01 00       	push   $0x1a320
    1544:	e8 77 5d 00 00       	call   72c0 <usb_dp_get_nested_descriptor>
    1549:	89 c3                	mov    %eax,%ebx
    154b:	8b 45 e0             	mov    -0x20(%ebp),%eax
    154e:	40                   	inc    %eax
    154f:	83 c4 10             	add    $0x10,%esp
    1552:	89 45 e4             	mov    %eax,-0x1c(%ebp)
    1555:	8d 76 00             	lea    0x0(%esi),%esi
    1558:	89 da                	mov    %ebx,%edx
    155a:	8b 4d e4             	mov    -0x1c(%ebp),%ecx
    155d:	89 f0                	mov    %esi,%eax
    155f:	e8 5c ff ff ff       	call   14c0 <dump_tree_internal.constprop.1>
    1564:	53                   	push   %ebx
    1565:	57                   	push   %edi
    1566:	56                   	push   %esi
    1567:	68 20 a3 01 00       	push   $0x1a320
    156c:	e8 af 60 00 00       	call   7620 <usb_dp_get_sibling_descriptor>
    1571:	83 c4 10             	add    $0x10,%esp
    1574:	89 c3                	mov    %eax,%ebx
    1576:	85 c0                	test   %eax,%eax
    1578:	75 de                	jne    1558 <dump_tree_internal.constprop.1+0x98>
    157a:	8d 65 f4             	lea    -0xc(%ebp),%esp
    157d:	5b                   	pop    %ebx
    157e:	5e                   	pop    %esi
    157f:	5f                   	pop    %edi
    1580:	5d                   	pop    %ebp
    1581:	c3                   	ret    
    1582:	8d b6 00 00 00 00    	lea    0x0(%esi),%esi
    1588:	88 5d e4             	mov    %bl,-0x1c(%ebp)
    158b:	31 db                	xor    %ebx,%ebx
    158d:	8a 5d e4             	mov    -0x1c(%ebp),%bl
    1590:	89 4d e0             	mov    %ecx,-0x20(%ebp)
    1593:	89 c6                	mov    %eax,%esi
    1595:	83 f9 04             	cmp    $0x4,%ecx
    1598:	8b 3c 9d 00 43 01 00 	mov    0x14300(,%ebx,4),%edi
    159f:	89 7d e4             	mov    %edi,-0x1c(%ebp)
    15a2:	89 d7                	mov    %edx,%edi
    15a4:	0f 87 56 ff ff ff    	ja     1500 <dump_tree_internal.constprop.1+0x40>
    15aa:	8b 45 dc             	mov    -0x24(%ebp),%eax
    15ad:	8b 1c 8d a4 43 01 00 	mov    0x143a4(,%ecx,4),%ebx
    15b4:	50                   	push   %eax
    15b5:	8b 45 e4             	mov    -0x1c(%ebp),%eax
    15b8:	50                   	push   %eax
    15b9:	53                   	push   %ebx
    15ba:	68 61 42 01 00       	push   $0x14261
    15bf:	e8 ec 68 01 00       	call   17eb0 <printf@plt>
    15c4:	31 c0                	xor    %eax,%eax
    15c6:	83 c4 10             	add    $0x10,%esp
    15c9:	8a 07                	mov    (%edi),%al
    15cb:	e9 53 ff ff ff       	jmp    1523 <dump_tree_internal.constprop.1+0x63>

000015d0 <get_indent>:
    15d0:	55                   	push   %ebp
    15d1:	b8 56 42 01 00       	mov    $0x14256,%eax
    15d6:	89 e5                	mov    %esp,%ebp
    15d8:	8b 55 08             	mov    0x8(%ebp),%edx
    15db:	83 fa 04             	cmp    $0x4,%edx
    15de:	77 07                	ja     15e7 <get_indent+0x17>
    15e0:	8b 04 95 a4 43 01 00 	mov    0x143a4(,%edx,4),%eax
    15e7:	5d                   	pop    %ebp
    15e8:	c3                   	ret    
    15e9:	8d b4 26 00 00 00 00 	lea    0x0(%esi,%eiz,1),%esi

000015f0 <dump_buffer>:
    15f0:	55                   	push   %ebp
    15f1:	89 e5                	mov    %esp,%ebp
    15f3:	57                   	push   %edi
    15f4:	56                   	push   %esi
    15f5:	53                   	push   %ebx
    15f6:	83 ec 1c             	sub    $0x1c,%esp
    15f9:	8b 7d 0c             	mov    0xc(%ebp),%edi
    15fc:	8b 45 08             	mov    0x8(%ebp),%eax
    15ff:	89 7d e0             	mov    %edi,-0x20(%ebp)
    1602:	8b 75 14             	mov    0x14(%ebp),%esi
    1605:	8b 7d 10             	mov    0x10(%ebp),%edi
    1608:	85 c0                	test   %eax,%eax
    160a:	74 10                	je     161c <dump_buffer+0x2c>
    160c:	53                   	push   %ebx
    160d:	53                   	push   %ebx
    160e:	50                   	push   %eax
    160f:	68 46 4c 01 00       	push   $0x14c46
    1614:	e8 97 68 01 00       	call   17eb0 <printf@plt>
    1619:	83 c4 10             	add    $0x10,%esp
    161c:	85 f6                	test   %esi,%esi
    161e:	0f 84 a8 00 00 00    	je     16cc <dump_buffer+0xdc>
    1624:	8b 45 e0             	mov    -0x20(%ebp),%eax
    1627:	83 f8 04             	cmp    $0x4,%eax
    162a:	0f 86 a8 00 00 00    	jbe    16d8 <dump_buffer+0xe8>
    1630:	50                   	push   %eax
    1631:	50                   	push   %eax
    1632:	68 56 42 01 00       	push   $0x14256
    1637:	68 00 45 01 00       	push   $0x14500
    163c:	bb 01 00 00 00       	mov    $0x1,%ebx
    1641:	e8 6a 68 01 00       	call   17eb0 <printf@plt>
    1646:	83 c4 10             	add    $0x10,%esp
    1649:	89 75 e4             	mov    %esi,-0x1c(%ebp)
    164c:	8d 74 26 00          	lea    0x0(%esi,%eiz,1),%esi
    1650:	31 c0                	xor    %eax,%eax
    1652:	51                   	push   %ecx
    1653:	51                   	push   %ecx
    1654:	8a 44 1f ff          	mov    -0x1(%edi,%ebx,1),%al
    1658:	50                   	push   %eax
    1659:	68 71 42 01 00       	push   $0x14271
    165e:	e8 4d 68 01 00       	call   17eb0 <printf@plt>
    1663:	83 c4 10             	add    $0x10,%esp
    1666:	83 fb 01             	cmp    $0x1,%ebx
    1669:	0f 84 26 01 00 00    	je     1795 <dump_buffer+0x1a5>
    166f:	31 d2                	xor    %edx,%edx
    1671:	89 d8                	mov    %ebx,%eax
    1673:	b9 0c 00 00 00       	mov    $0xc,%ecx
    1678:	89 de                	mov    %ebx,%esi
    167a:	f7 f1                	div    %ecx
    167c:	85 d2                	test   %edx,%edx
    167e:	0f 84 d4 00 00 00    	je     1758 <dump_buffer+0x168>
    1684:	39 75 e4             	cmp    %esi,-0x1c(%ebp)
    1687:	0f 84 12 01 00 00    	je     179f <dump_buffer+0x1af>
    168d:	83 ec 0c             	sub    $0xc,%esp
    1690:	68 5e 42 01 00       	push   $0x1425e
    1695:	e8 16 68 01 00       	call   17eb0 <printf@plt>
    169a:	83 c4 10             	add    $0x10,%esp
    169d:	39 75 e4             	cmp    %esi,-0x1c(%ebp)
    16a0:	76 2a                	jbe    16cc <dump_buffer+0xdc>
    16a2:	43                   	inc    %ebx
    16a3:	eb ab                	jmp    1650 <dump_buffer+0x60>
    16a5:	8d 76 00             	lea    0x0(%esi),%esi
    16a8:	89 de                	mov    %ebx,%esi
    16aa:	39 75 e4             	cmp    %esi,-0x1c(%ebp)
    16ad:	0f 84 ec 00 00 00    	je     179f <dump_buffer+0x1af>
    16b3:	83 ec 0c             	sub    $0xc,%esp
    16b6:	68 5e 42 01 00       	push   $0x1425e
    16bb:	e8 f0 67 01 00       	call   17eb0 <printf@plt>
    16c0:	83 c4 10             	add    $0x10,%esp
    16c3:	39 75 e4             	cmp    %esi,-0x1c(%ebp)
    16c6:	0f 87 85 00 00 00    	ja     1751 <dump_buffer+0x161>
    16cc:	8d 65 f4             	lea    -0xc(%ebp),%esp
    16cf:	5b                   	pop    %ebx
    16d0:	5e                   	pop    %esi
    16d1:	5f                   	pop    %edi
    16d2:	5d                   	pop    %ebp
    16d3:	c3                   	ret    
    16d4:	8d 74 26 00          	lea    0x0(%esi,%eiz,1),%esi
    16d8:	8b 0c 85 a4 43 01 00 	mov    0x143a4(,%eax,4),%ecx
    16df:	52                   	push   %edx
    16e0:	52                   	push   %edx
    16e1:	51                   	push   %ecx
    16e2:	68 00 45 01 00       	push   $0x14500
    16e7:	bb 01 00 00 00       	mov    $0x1,%ebx
    16ec:	e8 bf 67 01 00       	call   17eb0 <printf@plt>
    16f1:	83 c4 10             	add    $0x10,%esp
    16f4:	89 75 e4             	mov    %esi,-0x1c(%ebp)
    16f7:	90                   	nop
    16f8:	50                   	push   %eax
    16f9:	50                   	push   %eax
    16fa:	31 c0                	xor    %eax,%eax
    16fc:	8a 44 1f ff          	mov    -0x1(%edi,%ebx,1),%al
    1700:	50                   	push   %eax
    1701:	68 71 42 01 00       	push   $0x14271
    1706:	e8 a5 67 01 00       	call   17eb0 <printf@plt>
    170b:	83 c4 10             	add    $0x10,%esp
    170e:	83 fb 01             	cmp    $0x1,%ebx
    1711:	74 78                	je     178b <dump_buffer+0x19b>
    1713:	31 d2                	xor    %edx,%edx
    1715:	89 d8                	mov    %ebx,%eax
    1717:	b9 0c 00 00 00       	mov    $0xc,%ecx
    171c:	f7 f1                	div    %ecx
    171e:	85 d2                	test   %edx,%edx
    1720:	75 86                	jne    16a8 <dump_buffer+0xb8>
    1722:	83 ec 0c             	sub    $0xc,%esp
    1725:	68 e5 7a 01 00       	push   $0x17ae5
    172a:	e8 81 67 01 00       	call   17eb0 <printf@plt>
    172f:	83 c4 10             	add    $0x10,%esp
    1732:	39 5d e4             	cmp    %ebx,-0x1c(%ebp)
    1735:	76 95                	jbe    16cc <dump_buffer+0xdc>
    1737:	8b 45 e0             	mov    -0x20(%ebp),%eax
    173a:	56                   	push   %esi
    173b:	56                   	push   %esi
    173c:	8b 04 85 a4 43 01 00 	mov    0x143a4(,%eax,4),%eax
    1743:	50                   	push   %eax
    1744:	68 00 45 01 00       	push   $0x14500
    1749:	e8 62 67 01 00       	call   17eb0 <printf@plt>
    174e:	83 c4 10             	add    $0x10,%esp
    1751:	43                   	inc    %ebx
    1752:	eb a4                	jmp    16f8 <dump_buffer+0x108>
    1754:	8d 74 26 00          	lea    0x0(%esi,%eiz,1),%esi
    1758:	83 ec 0c             	sub    $0xc,%esp
    175b:	68 e5 7a 01 00       	push   $0x17ae5
    1760:	e8 4b 67 01 00       	call   17eb0 <printf@plt>
    1765:	83 c4 10             	add    $0x10,%esp
    1768:	39 5d e4             	cmp    %ebx,-0x1c(%ebp)
    176b:	0f 86 5b ff ff ff    	jbe    16cc <dump_buffer+0xdc>
    1771:	52                   	push   %edx
    1772:	52                   	push   %edx
    1773:	68 56 42 01 00       	push   $0x14256
    1778:	68 00 45 01 00       	push   $0x14500
    177d:	43                   	inc    %ebx
    177e:	e8 2d 67 01 00       	call   17eb0 <printf@plt>
    1783:	83 c4 10             	add    $0x10,%esp
    1786:	e9 c5 fe ff ff       	jmp    1650 <dump_buffer+0x60>
    178b:	be 01 00 00 00       	mov    $0x1,%esi
    1790:	e9 15 ff ff ff       	jmp    16aa <dump_buffer+0xba>
    1795:	be 01 00 00 00       	mov    $0x1,%esi
    179a:	e9 e5 fe ff ff       	jmp    1684 <dump_buffer+0x94>
    179f:	c7 45 08 e5 7a 01 00 	movl   $0x17ae5,0x8(%ebp)
    17a6:	8d 65 f4             	lea    -0xc(%ebp),%esp
    17a9:	5b                   	pop    %ebx
    17aa:	5e                   	pop    %esi
    17ab:	5f                   	pop    %edi
    17ac:	5d                   	pop    %ebp
    17ad:	e9 fe 66 01 00       	jmp    17eb0 <printf@plt>
    17b2:	8d b4 26 00 00 00 00 	lea    0x0(%esi,%eiz,1),%esi
    17b9:	8d bc 27 00 00 00 00 	lea    0x0(%edi,%eiz,1),%edi

000017c0 <dump_usb_descriptor>:
    17c0:	55                   	push   %ebp
    17c1:	89 e5                	mov    %esp,%ebp
    17c3:	83 ec 14             	sub    $0x14,%esp
    17c6:	68 78 42 01 00       	push   $0x14278
    17cb:	e8 e0 66 01 00       	call   17eb0 <printf@plt>
    17d0:	58                   	pop    %eax
    17d1:	8b 55 0c             	mov    0xc(%ebp),%edx
    17d4:	8b 4d 08             	mov    0x8(%ebp),%ecx
    17d7:	a1 a0 a6 01 00       	mov    0x1a6a0,%eax
    17dc:	52                   	push   %edx
    17dd:	51                   	push   %ecx
    17de:	68 e5 7a 01 00       	push   $0x17ae5
    17e3:	68 5e 42 01 00       	push   $0x1425e
    17e8:	50                   	push   %eax
    17e9:	e8 c2 97 00 00       	call   afb0 <usb_dump_standard_descriptor>
    17ee:	83 c4 20             	add    $0x20,%esp
    17f1:	c9                   	leave  
    17f2:	c3                   	ret    
    17f3:	8d b6 00 00 00 00    	lea    0x0(%esi),%esi
    17f9:	8d bc 27 00 00 00 00 	lea    0x0(%edi,%eiz,1),%edi

00001800 <dump_match_ids>:
    1800:	55                   	push   %ebp
    1801:	89 e5                	mov    %esp,%ebp
    1803:	57                   	push   %edi
    1804:	56                   	push   %esi
    1805:	53                   	push   %ebx
    1806:	83 ec 0c             	sub    $0xc,%esp
    1809:	8b 75 08             	mov    0x8(%ebp),%esi
    180c:	8b 7d 0c             	mov    0xc(%ebp),%edi
    180f:	8b 5e 04             	mov    0x4(%esi),%ebx
    1812:	39 f3                	cmp    %esi,%ebx
    1814:	74 1f                	je     1835 <dump_match_ids+0x35>
    1816:	66 90                	xchg   %ax,%ax
    1818:	8b 43 08             	mov    0x8(%ebx),%eax
    181b:	8b 53 0c             	mov    0xc(%ebx),%edx
    181e:	50                   	push   %eax
    181f:	52                   	push   %edx
    1820:	57                   	push   %edi
    1821:	68 8c 42 01 00       	push   $0x1428c
    1826:	e8 85 66 01 00       	call   17eb0 <printf@plt>
    182b:	8b 5b 04             	mov    0x4(%ebx),%ebx
    182e:	83 c4 10             	add    $0x10,%esp
    1831:	39 f3                	cmp    %esi,%ebx
    1833:	75 e3                	jne    1818 <dump_match_ids+0x18>
    1835:	8d 65 f4             	lea    -0xc(%ebp),%esp
    1838:	5b                   	pop    %ebx
    1839:	5e                   	pop    %esi
    183a:	5f                   	pop    %edi
    183b:	5d                   	pop    %ebp
    183c:	c3                   	ret    
    183d:	8d 76 00             	lea    0x0(%esi),%esi

00001840 <dump_descriptor_tree>:
    1840:	55                   	push   %ebp
    1841:	89 e5                	mov    %esp,%ebp
    1843:	53                   	push   %ebx
    1844:	83 ec 20             	sub    $0x20,%esp
    1847:	8b 5d 08             	mov    0x8(%ebp),%ebx
    184a:	8b 45 0c             	mov    0xc(%ebp),%eax
    184d:	89 5d ec             	mov    %ebx,-0x14(%ebp)
    1850:	68 96 42 01 00       	push   $0x14296
    1855:	89 45 f0             	mov    %eax,-0x10(%ebp)
    1858:	c7 45 f4 00 00 00 00 	movl   $0x0,-0xc(%ebp)
    185f:	e8 4c 66 01 00       	call   17eb0 <printf@plt>
    1864:	89 da                	mov    %ebx,%edx
    1866:	8d 45 ec             	lea    -0x14(%ebp),%eax
    1869:	31 c9                	xor    %ecx,%ecx
    186b:	e8 50 fc ff ff       	call   14c0 <dump_tree_internal.constprop.1>
    1870:	83 c4 10             	add    $0x10,%esp
    1873:	8b 5d fc             	mov    -0x4(%ebp),%ebx
    1876:	c9                   	leave  
    1877:	c3                   	ret    
    1878:	66 90                	xchg   %ax,%ax
    187a:	66 90                	xchg   %ax,%ax
    187c:	66 90                	xchg   %ax,%ax
    187e:	66 90                	xchg   %ax,%ax

00001880 <descriptor_walk_callback>:
    1880:	55                   	push   %ebp
    1881:	89 e5                	mov    %esp,%ebp
    1883:	57                   	push   %edi
    1884:	56                   	push   %esi
    1885:	53                   	push   %ebx
    1886:	83 ec 4c             	sub    $0x4c,%esp
    1889:	8b 45 08             	mov    0x8(%ebp),%eax
    188c:	85 c0                	test   %eax,%eax
    188e:	74 11                	je     18a1 <descriptor_walk_callback+0x21>
    1890:	80 38 01             	cmpb   $0x1,(%eax)
    1893:	76 0c                	jbe    18a1 <descriptor_walk_callback+0x21>
    1895:	80 78 01 04          	cmpb   $0x4,0x1(%eax)
    1899:	75 0e                	jne    18a9 <descriptor_walk_callback+0x29>
    189b:	8b 55 10             	mov    0x10(%ebp),%edx
    189e:	89 42 08             	mov    %eax,0x8(%edx)
    18a1:	8d 65 f4             	lea    -0xc(%ebp),%esp
    18a4:	5b                   	pop    %ebx
    18a5:	5e                   	pop    %esi
    18a6:	5f                   	pop    %edi
    18a7:	5d                   	pop    %ebp
    18a8:	c3                   	ret    
    18a9:	80 78 01 21          	cmpb   $0x21,0x1(%eax)
    18ad:	75 f2                	jne    18a1 <descriptor_walk_callback+0x21>
    18af:	8b 55 10             	mov    0x10(%ebp),%edx
    18b2:	8b 52 08             	mov    0x8(%edx),%edx
    18b5:	85 d2                	test   %edx,%edx
    18b7:	74 e8                	je     18a1 <descriptor_walk_callback+0x21>
    18b9:	80 78 06 22          	cmpb   $0x22,0x6(%eax)
    18bd:	75 e2                	jne    18a1 <descriptor_walk_callback+0x21>
    18bf:	31 db                	xor    %ebx,%ebx
    18c1:	66 8b 58 07          	mov    0x7(%eax),%bx
    18c5:	85 db                	test   %ebx,%ebx
    18c7:	74 d8                	je     18a1 <descriptor_walk_callback+0x21>
    18c9:	8b 45 10             	mov    0x10(%ebp),%eax
    18cc:	83 ec 0c             	sub    $0xc,%esp
    18cf:	0f b6 72 02          	movzbl 0x2(%edx),%esi
    18d3:	8b 00                	mov    (%eax),%eax
    18d5:	81 e6 ff 00 00 00    	and    $0xff,%esi
    18db:	50                   	push   %eax
    18dc:	e8 8f 4e 00 00       	call   6770 <usb_device_get_default_pipe>
    18e1:	89 45 b4             	mov    %eax,-0x4c(%ebp)
    18e4:	8b 45 10             	mov    0x10(%ebp),%eax
    18e7:	8b 78 04             	mov    0x4(%eax),%edi
    18ea:	89 1c 24             	mov    %ebx,(%esp)
    18ed:	e8 9e 66 01 00       	call   17f90 <malloc@plt>
    18f2:	83 c4 10             	add    $0x10,%esp
    18f5:	89 45 ac             	mov    %eax,-0x54(%ebp)
    18f8:	85 c0                	test   %eax,%eax
    18fa:	8b 55 b4             	mov    -0x4c(%ebp),%edx
    18fd:	74 4e                	je     194d <descriptor_walk_callback+0xcd>
    18ff:	83 ec 0c             	sub    $0xc,%esp
    1902:	8d 45 c4             	lea    -0x3c(%ebp),%eax
    1905:	50                   	push   %eax
    1906:	8b 45 ac             	mov    -0x54(%ebp),%eax
    1909:	53                   	push   %ebx
    190a:	50                   	push   %eax
    190b:	56                   	push   %esi
    190c:	6a 00                	push   $0x0
    190e:	6a 22                	push   $0x22
    1910:	6a 01                	push   $0x1
    1912:	6a 00                	push   $0x0
    1914:	52                   	push   %edx
    1915:	e8 46 7a 00 00       	call   9360 <usb_request_get_descriptor>
    191a:	83 c4 30             	add    $0x30,%esp
    191d:	85 c0                	test   %eax,%eax
    191f:	74 47                	je     1968 <descriptor_walk_callback+0xe8>
    1921:	83 ec 0c             	sub    $0xc,%esp
    1924:	50                   	push   %eax
    1925:	e8 46 69 01 00       	call   18270 <str_error@plt>
    192a:	50                   	push   %eax
    192b:	68 ec 43 01 00       	push   $0x143ec
    1930:	6a 01                	push   $0x1
    1932:	6a ff                	push   $0xffffffff
    1934:	e8 c7 66 01 00       	call   18000 <log_msg@plt>
    1939:	83 c4 14             	add    $0x14,%esp
    193c:	8b 45 ac             	mov    -0x54(%ebp),%eax
    193f:	50                   	push   %eax
    1940:	e8 2b 6a 01 00       	call   18370 <free@plt>
    1945:	83 c4 10             	add    $0x10,%esp
    1948:	e9 54 ff ff ff       	jmp    18a1 <descriptor_walk_callback+0x21>
    194d:	83 ec 0c             	sub    $0xc,%esp
    1950:	56                   	push   %esi
    1951:	53                   	push   %ebx
    1952:	68 b8 43 01 00       	push   $0x143b8
    1957:	6a 02                	push   $0x2
    1959:	6a ff                	push   $0xffffffff
    195b:	e8 a0 66 01 00       	call   18000 <log_msg@plt>
    1960:	83 c4 20             	add    $0x20,%esp
    1963:	e9 39 ff ff ff       	jmp    18a1 <descriptor_walk_callback+0x21>
    1968:	8b 45 ac             	mov    -0x54(%ebp),%eax
    196b:	51                   	push   %ecx
    196c:	53                   	push   %ebx
    196d:	50                   	push   %eax
    196e:	8d 45 c8             	lea    -0x38(%ebp),%eax
    1971:	50                   	push   %eax
    1972:	e8 19 2d 00 00       	call   4690 <usb_hid_parse_report_descriptor>
    1977:	83 c4 10             	add    $0x10,%esp
    197a:	85 c0                	test   %eax,%eax
    197c:	74 1b                	je     1999 <descriptor_walk_callback+0x119>
    197e:	83 ec 0c             	sub    $0xc,%esp
    1981:	50                   	push   %eax
    1982:	e8 e9 68 01 00       	call   18270 <str_error@plt>
    1987:	50                   	push   %eax
    1988:	68 1c 44 01 00       	push   $0x1441c
    198d:	6a 01                	push   $0x1
    198f:	6a ff                	push   $0xffffffff
    1991:	e8 6a 66 01 00       	call   18000 <log_msg@plt>
    1996:	83 c4 20             	add    $0x20,%esp
    1999:	85 ff                	test   %edi,%edi
    199b:	0f 84 e2 00 00 00    	je     1a83 <descriptor_walk_callback+0x203>
    19a1:	4f                   	dec    %edi
    19a2:	74 15                	je     19b9 <descriptor_walk_callback+0x139>
    19a4:	52                   	push   %edx
    19a5:	68 a4 00 00 00       	push   $0xa4
    19aa:	68 1a 45 01 00       	push   $0x1451a
    19af:	68 d0 44 01 00       	push   $0x144d0
    19b4:	e8 a7 66 01 00       	call   18060 <assert_abort@plt>
    19b9:	83 ec 0c             	sub    $0xc,%esp
    19bc:	6a 00                	push   $0x0
    19be:	e8 0d fc ff ff       	call   15d0 <get_indent>
    19c3:	83 c4 0c             	add    $0xc,%esp
    19c6:	56                   	push   %esi
    19c7:	50                   	push   %eax
    19c8:	68 70 44 01 00       	push   $0x14470
    19cd:	e8 de 64 01 00       	call   17eb0 <printf@plt>
    19d2:	8b 45 d0             	mov    -0x30(%ebp),%eax
    19d5:	8d 55 cc             	lea    -0x34(%ebp),%edx
    19d8:	83 c4 10             	add    $0x10,%esp
    19db:	89 45 b0             	mov    %eax,-0x50(%ebp)
    19de:	8d 70 e8             	lea    -0x18(%eax),%esi
    19e1:	39 d0                	cmp    %edx,%eax
    19e3:	74 7f                	je     1a64 <descriptor_walk_callback+0x1e4>
    19e5:	8d 76 00             	lea    0x0(%esi),%esi
    19e8:	83 ec 0c             	sub    $0xc,%esp
    19eb:	8b 56 04             	mov    0x4(%esi),%edx
    19ee:	31 db                	xor    %ebx,%ebx
    19f0:	89 55 b4             	mov    %edx,-0x4c(%ebp)
    19f3:	8a 1e                	mov    (%esi),%bl
    19f5:	6a 01                	push   $0x1
    19f7:	e8 d4 fb ff ff       	call   15d0 <get_indent>
    19fc:	8b 55 b4             	mov    -0x4c(%ebp),%edx
    19ff:	52                   	push   %edx
    1a00:	53                   	push   %ebx
    1a01:	50                   	push   %eax
    1a02:	68 03 45 01 00       	push   $0x14503
    1a07:	e8 a4 64 01 00       	call   17eb0 <printf@plt>
    1a0c:	8b 5e 14             	mov    0x14(%esi),%ebx
    1a0f:	8d 56 10             	lea    0x10(%esi),%edx
    1a12:	83 c4 20             	add    $0x20,%esp
    1a15:	8d 43 c0             	lea    -0x40(%ebx),%eax
    1a18:	89 55 b4             	mov    %edx,-0x4c(%ebp)
    1a1b:	39 d3                	cmp    %edx,%ebx
    1a1d:	74 32                	je     1a51 <descriptor_walk_callback+0x1d1>
    1a1f:	90                   	nop
    1a20:	83 ec 0c             	sub    $0xc,%esp
    1a23:	31 ff                	xor    %edi,%edi
    1a25:	31 f6                	xor    %esi,%esi
    1a27:	66 8b 78 0a          	mov    0xa(%eax),%di
    1a2b:	66 8b 70 08          	mov    0x8(%eax),%si
    1a2f:	6a 02                	push   $0x2
    1a31:	e8 9a fb ff ff       	call   15d0 <get_indent>
    1a36:	57                   	push   %edi
    1a37:	56                   	push   %esi
    1a38:	50                   	push   %eax
    1a39:	68 a4 44 01 00       	push   $0x144a4
    1a3e:	e8 6d 64 01 00       	call   17eb0 <printf@plt>
    1a43:	8b 5b 04             	mov    0x4(%ebx),%ebx
    1a46:	83 c4 20             	add    $0x20,%esp
    1a49:	3b 5d b4             	cmp    -0x4c(%ebp),%ebx
    1a4c:	8d 43 c0             	lea    -0x40(%ebx),%eax
    1a4f:	75 cf                	jne    1a20 <descriptor_walk_callback+0x1a0>
    1a51:	8b 45 b0             	mov    -0x50(%ebp),%eax
    1a54:	8d 55 cc             	lea    -0x34(%ebp),%edx
    1a57:	8b 40 04             	mov    0x4(%eax),%eax
    1a5a:	89 45 b0             	mov    %eax,-0x50(%ebp)
    1a5d:	39 d0                	cmp    %edx,%eax
    1a5f:	8d 70 e8             	lea    -0x18(%eax),%esi
    1a62:	75 84                	jne    19e8 <descriptor_walk_callback+0x168>
    1a64:	83 ec 0c             	sub    $0xc,%esp
    1a67:	8b 45 ac             	mov    -0x54(%ebp),%eax
    1a6a:	50                   	push   %eax
    1a6b:	e8 00 69 01 00       	call   18370 <free@plt>
    1a70:	8d 45 c8             	lea    -0x38(%ebp),%eax
    1a73:	89 04 24             	mov    %eax,(%esp)
    1a76:	e8 45 33 00 00       	call   4dc0 <usb_hid_report_deinit>
    1a7b:	83 c4 10             	add    $0x10,%esp
    1a7e:	e9 1e fe ff ff       	jmp    18a1 <descriptor_walk_callback+0x21>
    1a83:	83 ec 0c             	sub    $0xc,%esp
    1a86:	bf 14 00 00 00       	mov    $0x14,%edi
    1a8b:	6a 00                	push   $0x0
    1a8d:	e8 3e fb ff ff       	call   15d0 <get_indent>
    1a92:	83 c4 0c             	add    $0xc,%esp
    1a95:	56                   	push   %esi
    1a96:	50                   	push   %eax
    1a97:	68 44 44 01 00       	push   $0x14444
    1a9c:	31 f6                	xor    %esi,%esi
    1a9e:	e8 0d 64 01 00       	call   17eb0 <printf@plt>
    1aa3:	83 c4 10             	add    $0x10,%esp
    1aa6:	eb 28                	jmp    1ad0 <descriptor_walk_callback+0x250>
    1aa8:	89 55 b4             	mov    %edx,-0x4c(%ebp)
    1aab:	8b 55 ac             	mov    -0x54(%ebp),%edx
    1aae:	31 c0                	xor    %eax,%eax
    1ab0:	51                   	push   %ecx
    1ab1:	51                   	push   %ecx
    1ab2:	8a 04 32             	mov    (%edx,%esi,1),%al
    1ab5:	50                   	push   %eax
    1ab6:	68 73 42 01 00       	push   $0x14273
    1abb:	e8 f0 63 01 00       	call   17eb0 <printf@plt>
    1ac0:	8b 55 b4             	mov    -0x4c(%ebp),%edx
    1ac3:	83 c4 10             	add    $0x10,%esp
    1ac6:	83 fa 13             	cmp    $0x13,%edx
    1ac9:	75 3e                	jne    1b09 <descriptor_walk_callback+0x289>
    1acb:	46                   	inc    %esi
    1acc:	39 f3                	cmp    %esi,%ebx
    1ace:	74 4b                	je     1b1b <descriptor_walk_callback+0x29b>
    1ad0:	31 d2                	xor    %edx,%edx
    1ad2:	89 f0                	mov    %esi,%eax
    1ad4:	f7 f7                	div    %edi
    1ad6:	85 d2                	test   %edx,%edx
    1ad8:	75 ce                	jne    1aa8 <descriptor_walk_callback+0x228>
    1ada:	83 ec 0c             	sub    $0xc,%esp
    1add:	6a 01                	push   $0x1
    1adf:	e8 ec fa ff ff       	call   15d0 <get_indent>
    1ae4:	5a                   	pop    %edx
    1ae5:	59                   	pop    %ecx
    1ae6:	50                   	push   %eax
    1ae7:	68 ff 44 01 00       	push   $0x144ff
    1aec:	e8 bf 63 01 00       	call   17eb0 <printf@plt>
    1af1:	58                   	pop    %eax
    1af2:	5a                   	pop    %edx
    1af3:	8b 55 ac             	mov    -0x54(%ebp),%edx
    1af6:	31 c0                	xor    %eax,%eax
    1af8:	8a 04 32             	mov    (%edx,%esi,1),%al
    1afb:	50                   	push   %eax
    1afc:	68 73 42 01 00       	push   $0x14273
    1b01:	e8 aa 63 01 00       	call   17eb0 <printf@plt>
    1b06:	83 c4 10             	add    $0x10,%esp
    1b09:	83 ec 0c             	sub    $0xc,%esp
    1b0c:	68 5f 42 01 00       	push   $0x1425f
    1b11:	e8 9a 63 01 00       	call   17eb0 <printf@plt>
    1b16:	83 c4 10             	add    $0x10,%esp
    1b19:	eb b0                	jmp    1acb <descriptor_walk_callback+0x24b>
    1b1b:	83 ec 0c             	sub    $0xc,%esp
    1b1e:	68 e5 7a 01 00       	push   $0x17ae5
    1b23:	e8 88 63 01 00       	call   17eb0 <printf@plt>
    1b28:	83 c4 10             	add    $0x10,%esp
    1b2b:	e9 34 ff ff ff       	jmp    1a64 <descriptor_walk_callback+0x1e4>

00001b30 <dump_hidreport_raw>:
    1b30:	55                   	push   %ebp
    1b31:	89 e5                	mov    %esp,%ebp
    1b33:	56                   	push   %esi
    1b34:	53                   	push   %ebx
    1b35:	83 ec 1c             	sub    $0x1c,%esp
    1b38:	c7 45 f0 00 00 00 00 	movl   $0x0,-0x10(%ebp)
    1b3f:	8b 5d 08             	mov    0x8(%ebp),%ebx
    1b42:	c7 45 f4 00 00 00 00 	movl   $0x0,-0xc(%ebp)
    1b49:	53                   	push   %ebx
    1b4a:	89 5d ec             	mov    %ebx,-0x14(%ebp)
    1b4d:	e8 6e 4d 00 00       	call   68c0 <usb_device_descriptors>
    1b52:	8b 70 18             	mov    0x18(%eax),%esi
    1b55:	89 1c 24             	mov    %ebx,(%esp)
    1b58:	e8 63 4d 00 00       	call   68c0 <usb_device_descriptors>
    1b5d:	8d 55 ec             	lea    -0x14(%ebp),%edx
    1b60:	89 14 24             	mov    %edx,(%esp)
    1b63:	68 80 18 00 00       	push   $0x1880
    1b68:	68 c0 55 01 00       	push   $0x155c0
    1b6d:	56                   	push   %esi
    1b6e:	8b 40 14             	mov    0x14(%eax),%eax
    1b71:	50                   	push   %eax
    1b72:	e8 99 5b 00 00       	call   7710 <usb_dp_walk_simple>
    1b77:	83 c4 20             	add    $0x20,%esp
    1b7a:	8d 65 f8             	lea    -0x8(%ebp),%esp
    1b7d:	5b                   	pop    %ebx
    1b7e:	5e                   	pop    %esi
    1b7f:	5d                   	pop    %ebp
    1b80:	c3                   	ret    
    1b81:	eb 0d                	jmp    1b90 <dump_hidreport_usages>
    1b83:	90                   	nop
    1b84:	90                   	nop
    1b85:	90                   	nop
    1b86:	90                   	nop
    1b87:	90                   	nop
    1b88:	90                   	nop
    1b89:	90                   	nop
    1b8a:	90                   	nop
    1b8b:	90                   	nop
    1b8c:	90                   	nop
    1b8d:	90                   	nop
    1b8e:	90                   	nop
    1b8f:	90                   	nop

00001b90 <dump_hidreport_usages>:
    1b90:	55                   	push   %ebp
    1b91:	89 e5                	mov    %esp,%ebp
    1b93:	56                   	push   %esi
    1b94:	53                   	push   %ebx
    1b95:	83 ec 1c             	sub    $0x1c,%esp
    1b98:	c7 45 f0 01 00 00 00 	movl   $0x1,-0x10(%ebp)
    1b9f:	8b 5d 08             	mov    0x8(%ebp),%ebx
    1ba2:	c7 45 f4 00 00 00 00 	movl   $0x0,-0xc(%ebp)
    1ba9:	53                   	push   %ebx
    1baa:	89 5d ec             	mov    %ebx,-0x14(%ebp)
    1bad:	e8 0e 4d 00 00       	call   68c0 <usb_device_descriptors>
    1bb2:	8b 70 18             	mov    0x18(%eax),%esi
    1bb5:	89 1c 24             	mov    %ebx,(%esp)
    1bb8:	e8 03 4d 00 00       	call   68c0 <usb_device_descriptors>
    1bbd:	8d 55 ec             	lea    -0x14(%ebp),%edx
    1bc0:	89 14 24             	mov    %edx,(%esp)
    1bc3:	68 80 18 00 00       	push   $0x1880
    1bc8:	68 c0 55 01 00       	push   $0x155c0
    1bcd:	56                   	push   %esi
    1bce:	8b 40 14             	mov    0x14(%eax),%eax
    1bd1:	50                   	push   %eax
    1bd2:	e8 39 5b 00 00       	call   7710 <usb_dp_walk_simple>
    1bd7:	83 c4 20             	add    $0x20,%esp
    1bda:	8d 65 f8             	lea    -0x8(%ebp),%esp
    1bdd:	5b                   	pop    %ebx
    1bde:	5e                   	pop    %esi
    1bdf:	5d                   	pop    %ebp
    1be0:	c3                   	ret    
    1be1:	66 90                	xchg   %ax,%ax
    1be3:	66 90                	xchg   %ax,%ax
    1be5:	66 90                	xchg   %ax,%ax
    1be7:	66 90                	xchg   %ax,%ax
    1be9:	66 90                	xchg   %ax,%ax
    1beb:	66 90                	xchg   %ax,%ax
    1bed:	66 90                	xchg   %ax,%ax
    1bef:	90                   	nop

00001bf0 <find_string_indexes_callback>:
    1bf0:	55                   	push   %ebp
    1bf1:	89 e5                	mov    %esp,%ebp
    1bf3:	57                   	push   %edi
    1bf4:	56                   	push   %esi
    1bf5:	53                   	push   %ebx
    1bf6:	8b 45 08             	mov    0x8(%ebp),%eax
    1bf9:	8b 5d 10             	mov    0x10(%ebp),%ebx
    1bfc:	80 38 01             	cmpb   $0x1,(%eax)
    1bff:	76 12                	jbe    1c13 <find_string_indexes_callback+0x23>
    1c01:	8a 50 01             	mov    0x1(%eax),%dl
    1c04:	80 fa 01             	cmp    $0x1,%dl
    1c07:	74 5f                	je     1c68 <find_string_indexes_callback+0x78>
    1c09:	80 fa 02             	cmp    $0x2,%dl
    1c0c:	74 32                	je     1c40 <find_string_indexes_callback+0x50>
    1c0e:	80 fa 04             	cmp    $0x4,%dl
    1c11:	74 05                	je     1c18 <find_string_indexes_callback+0x28>
    1c13:	5b                   	pop    %ebx
    1c14:	5e                   	pop    %esi
    1c15:	5f                   	pop    %edi
    1c16:	5d                   	pop    %ebp
    1c17:	c3                   	ret    
    1c18:	8a 48 08             	mov    0x8(%eax),%cl
    1c1b:	31 c0                	xor    %eax,%eax
    1c1d:	88 c8                	mov    %cl,%al
    1c1f:	48                   	dec    %eax
    1c20:	83 f8 3e             	cmp    $0x3e,%eax
    1c23:	77 ee                	ja     1c13 <find_string_indexes_callback+0x23>
    1c25:	b8 01 00 00 00       	mov    $0x1,%eax
    1c2a:	d3 e0                	shl    %cl,%eax
    1c2c:	89 c7                	mov    %eax,%edi
    1c2e:	09 03                	or     %eax,(%ebx)
    1c30:	c1 ff 1f             	sar    $0x1f,%edi
    1c33:	09 7b 04             	or     %edi,0x4(%ebx)
    1c36:	5b                   	pop    %ebx
    1c37:	5e                   	pop    %esi
    1c38:	5f                   	pop    %edi
    1c39:	5d                   	pop    %ebp
    1c3a:	c3                   	ret    
    1c3b:	90                   	nop
    1c3c:	8d 74 26 00          	lea    0x0(%esi,%eiz,1),%esi
    1c40:	31 d2                	xor    %edx,%edx
    1c42:	8a 48 06             	mov    0x6(%eax),%cl
    1c45:	88 ca                	mov    %cl,%dl
    1c47:	4a                   	dec    %edx
    1c48:	83 fa 3e             	cmp    $0x3e,%edx
    1c4b:	77 c6                	ja     1c13 <find_string_indexes_callback+0x23>
    1c4d:	ba 01 00 00 00       	mov    $0x1,%edx
    1c52:	d3 e2                	shl    %cl,%edx
    1c54:	89 d7                	mov    %edx,%edi
    1c56:	09 13                	or     %edx,(%ebx)
    1c58:	c1 ff 1f             	sar    $0x1f,%edi
    1c5b:	09 7b 04             	or     %edi,0x4(%ebx)
    1c5e:	8a 50 01             	mov    0x1(%eax),%dl
    1c61:	80 fa 04             	cmp    $0x4,%dl
    1c64:	75 ad                	jne    1c13 <find_string_indexes_callback+0x23>
    1c66:	eb b0                	jmp    1c18 <find_string_indexes_callback+0x28>
    1c68:	31 d2                	xor    %edx,%edx
    1c6a:	8a 48 0e             	mov    0xe(%eax),%cl
    1c6d:	88 ca                	mov    %cl,%dl
    1c6f:	4a                   	dec    %edx
    1c70:	83 fa 3e             	cmp    $0x3e,%edx
    1c73:	77 1d                	ja     1c92 <find_string_indexes_callback+0xa2>
    1c75:	ba 01 00 00 00       	mov    $0x1,%edx
    1c7a:	d3 e2                	shl    %cl,%edx
    1c7c:	89 d7                	mov    %edx,%edi
    1c7e:	09 13                	or     %edx,(%ebx)
    1c80:	c1 ff 1f             	sar    $0x1f,%edi
    1c83:	09 7b 04             	or     %edi,0x4(%ebx)
    1c86:	8a 50 01             	mov    0x1(%eax),%dl
    1c89:	80 fa 01             	cmp    $0x1,%dl
    1c8c:	0f 85 77 ff ff ff    	jne    1c09 <find_string_indexes_callback+0x19>
    1c92:	31 d2                	xor    %edx,%edx
    1c94:	8a 48 0f             	mov    0xf(%eax),%cl
    1c97:	88 ca                	mov    %cl,%dl
    1c99:	4a                   	dec    %edx
    1c9a:	83 fa 3e             	cmp    $0x3e,%edx
    1c9d:	77 1d                	ja     1cbc <find_string_indexes_callback+0xcc>
    1c9f:	ba 01 00 00 00       	mov    $0x1,%edx
    1ca4:	d3 e2                	shl    %cl,%edx
    1ca6:	89 d7                	mov    %edx,%edi
    1ca8:	09 13                	or     %edx,(%ebx)
    1caa:	c1 ff 1f             	sar    $0x1f,%edi
    1cad:	09 7b 04             	or     %edi,0x4(%ebx)
    1cb0:	8a 50 01             	mov    0x1(%eax),%dl
    1cb3:	80 fa 01             	cmp    $0x1,%dl
    1cb6:	0f 85 4d ff ff ff    	jne    1c09 <find_string_indexes_callback+0x19>
    1cbc:	31 d2                	xor    %edx,%edx
    1cbe:	8a 48 10             	mov    0x10(%eax),%cl
    1cc1:	88 ca                	mov    %cl,%dl
    1cc3:	4a                   	dec    %edx
    1cc4:	83 fa 3e             	cmp    $0x3e,%edx
    1cc7:	0f 87 46 ff ff ff    	ja     1c13 <find_string_indexes_callback+0x23>
    1ccd:	ba 01 00 00 00       	mov    $0x1,%edx
    1cd2:	d3 e2                	shl    %cl,%edx
    1cd4:	89 d7                	mov    %edx,%edi
    1cd6:	09 13                	or     %edx,(%ebx)
    1cd8:	c1 ff 1f             	sar    $0x1f,%edi
    1cdb:	09 7b 04             	or     %edi,0x4(%ebx)
    1cde:	8a 50 01             	mov    0x1(%eax),%dl
    1ce1:	e9 23 ff ff ff       	jmp    1c09 <find_string_indexes_callback+0x19>
    1ce6:	8d 76 00             	lea    0x0(%esi),%esi
    1ce9:	8d bc 27 00 00 00 00 	lea    0x0(%edi,%eiz,1),%edi

00001cf0 <dump_descriptor_tree_callback>:
    1cf0:	55                   	push   %ebp
    1cf1:	89 e5                	mov    %esp,%ebp
    1cf3:	57                   	push   %edi
    1cf4:	56                   	push   %esi
    1cf5:	53                   	push   %ebx
    1cf6:	83 ec 38             	sub    $0x38,%esp
    1cf9:	8b 75 0c             	mov    0xc(%ebp),%esi
    1cfc:	8b 5d 08             	mov    0x8(%ebp),%ebx
    1cff:	8b 7d 10             	mov    0x10(%ebp),%edi
    1d02:	8d 46 01             	lea    0x1(%esi),%eax
    1d05:	50                   	push   %eax
    1d06:	e8 c5 f8 ff ff       	call   15d0 <get_indent>
    1d0b:	31 d2                	xor    %edx,%edx
    1d0d:	83 c4 10             	add    $0x10,%esp
    1d10:	8a 13                	mov    (%ebx),%dl
    1d12:	89 c1                	mov    %eax,%ecx
    1d14:	85 d2                	test   %edx,%edx
    1d16:	75 18                	jne    1d30 <dump_descriptor_tree_callback+0x40>
    1d18:	89 4d 0c             	mov    %ecx,0xc(%ebp)
    1d1b:	c7 45 08 56 45 01 00 	movl   $0x14556,0x8(%ebp)
    1d22:	8d 65 f4             	lea    -0xc(%ebp),%esp
    1d25:	5b                   	pop    %ebx
    1d26:	5e                   	pop    %esi
    1d27:	5f                   	pop    %edi
    1d28:	5d                   	pop    %ebp
    1d29:	e9 82 61 01 00       	jmp    17eb0 <printf@plt>
    1d2e:	66 90                	xchg   %ax,%ax
    1d30:	80 7b 01 29          	cmpb   $0x29,0x1(%ebx)
    1d34:	77 5f                	ja     1d95 <dump_descriptor_tree_callback+0xa5>
    1d36:	31 c0                	xor    %eax,%eax
    1d38:	8a 43 01             	mov    0x1(%ebx),%al
    1d3b:	ff 24 85 78 48 01 00 	jmp    *0x14878(,%eax,4)
    1d42:	8d b6 00 00 00 00    	lea    0x0(%esi),%esi
    1d48:	83 fa 08             	cmp    $0x8,%edx
    1d4b:	76 cb                	jbe    1d18 <dump_descriptor_tree_callback+0x28>
    1d4d:	31 c0                	xor    %eax,%eax
    1d4f:	89 55 e4             	mov    %edx,-0x1c(%ebp)
    1d52:	8a 43 05             	mov    0x5(%ebx),%al
    1d55:	50                   	push   %eax
    1d56:	31 c0                	xor    %eax,%eax
    1d58:	8a 43 04             	mov    0x4(%ebx),%al
    1d5b:	50                   	push   %eax
    1d5c:	51                   	push   %ecx
    1d5d:	68 78 46 01 00       	push   $0x14678
    1d62:	e8 49 61 01 00       	call   17eb0 <printf@plt>
    1d67:	83 c4 10             	add    $0x10,%esp
    1d6a:	85 ff                	test   %edi,%edi
    1d6c:	74 27                	je     1d95 <dump_descriptor_tree_callback+0xa5>
    1d6e:	83 ec 0c             	sub    $0xc,%esp
    1d71:	83 c6 02             	add    $0x2,%esi
    1d74:	56                   	push   %esi
    1d75:	e8 56 f8 ff ff       	call   15d0 <get_indent>
    1d7a:	8b 55 e4             	mov    -0x1c(%ebp),%edx
    1d7d:	89 14 24             	mov    %edx,(%esp)
    1d80:	53                   	push   %ebx
    1d81:	68 e5 7a 01 00       	push   $0x17ae5
    1d86:	50                   	push   %eax
    1d87:	a1 a0 a6 01 00       	mov    0x1a6a0,%eax
    1d8c:	50                   	push   %eax
    1d8d:	e8 1e 92 00 00       	call   afb0 <usb_dump_standard_descriptor>
    1d92:	83 c4 20             	add    $0x20,%esp
    1d95:	8d 65 f4             	lea    -0xc(%ebp),%esp
    1d98:	5b                   	pop    %ebx
    1d99:	5e                   	pop    %esi
    1d9a:	5f                   	pop    %edi
    1d9b:	5d                   	pop    %ebp
    1d9c:	c3                   	ret    
    1d9d:	8d 76 00             	lea    0x0(%esi),%esi
    1da0:	83 fa 06             	cmp    $0x6,%edx
    1da3:	0f 86 6f ff ff ff    	jbe    1d18 <dump_descriptor_tree_callback+0x28>
    1da9:	89 55 e4             	mov    %edx,-0x1c(%ebp)
    1dac:	31 c0                	xor    %eax,%eax
    1dae:	52                   	push   %edx
    1daf:	8a 43 02             	mov    0x2(%ebx),%al
    1db2:	50                   	push   %eax
    1db3:	51                   	push   %ecx
    1db4:	68 44 45 01 00       	push   $0x14544
    1db9:	e8 f2 60 01 00       	call   17eb0 <printf@plt>
    1dbe:	83 c4 10             	add    $0x10,%esp
    1dc1:	85 ff                	test   %edi,%edi
    1dc3:	75 a9                	jne    1d6e <dump_descriptor_tree_callback+0x7e>
    1dc5:	eb ce                	jmp    1d95 <dump_descriptor_tree_callback+0xa5>
    1dc7:	90                   	nop
    1dc8:	83 fa 11             	cmp    $0x11,%edx
    1dcb:	0f 86 47 ff ff ff    	jbe    1d18 <dump_descriptor_tree_callback+0x28>
    1dd1:	31 c0                	xor    %eax,%eax
    1dd3:	83 ec 0c             	sub    $0xc,%esp
    1dd6:	8a 43 11             	mov    0x11(%ebx),%al
    1dd9:	89 55 dc             	mov    %edx,-0x24(%ebp)
    1ddc:	89 45 e4             	mov    %eax,-0x1c(%ebp)
    1ddf:	31 c0                	xor    %eax,%eax
    1de1:	8a 43 04             	mov    0x4(%ebx),%al
    1de4:	89 4d e0             	mov    %ecx,-0x20(%ebp)
    1de7:	50                   	push   %eax
    1de8:	e8 73 85 00 00       	call   a360 <usb_str_class>
    1ded:	59                   	pop    %ecx
    1dee:	8b 4d e4             	mov    -0x1c(%ebp),%ecx
    1df1:	5a                   	pop    %edx
    1df2:	51                   	push   %ecx
    1df3:	50                   	push   %eax
    1df4:	31 c0                	xor    %eax,%eax
    1df6:	66 8b 43 08          	mov    0x8(%ebx),%ax
    1dfa:	8b 4d e0             	mov    -0x20(%ebp),%ecx
    1dfd:	50                   	push   %eax
    1dfe:	31 c0                	xor    %eax,%eax
    1e00:	66 8b 43 0a          	mov    0xa(%ebx),%ax
    1e04:	50                   	push   %eax
    1e05:	51                   	push   %ecx
    1e06:	68 d8 45 01 00       	push   $0x145d8
    1e0b:	e8 a0 60 01 00       	call   17eb0 <printf@plt>
    1e10:	83 c4 20             	add    $0x20,%esp
    1e13:	85 ff                	test   %edi,%edi
    1e15:	0f 84 7a ff ff ff    	je     1d95 <dump_descriptor_tree_callback+0xa5>
    1e1b:	83 ec 0c             	sub    $0xc,%esp
    1e1e:	83 c6 02             	add    $0x2,%esi
    1e21:	56                   	push   %esi
    1e22:	e8 a9 f7 ff ff       	call   15d0 <get_indent>
    1e27:	8b 55 dc             	mov    -0x24(%ebp),%edx
    1e2a:	e9 4e ff ff ff       	jmp    1d7d <dump_descriptor_tree_callback+0x8d>
    1e2f:	90                   	nop
    1e30:	83 fa 08             	cmp    $0x8,%edx
    1e33:	0f 86 df fe ff ff    	jbe    1d18 <dump_descriptor_tree_callback+0x28>
    1e39:	83 ec 0c             	sub    $0xc,%esp
    1e3c:	31 c0                	xor    %eax,%eax
    1e3e:	66 8b 43 02          	mov    0x2(%ebx),%ax
    1e42:	89 55 e4             	mov    %edx,-0x1c(%ebp)
    1e45:	50                   	push   %eax
    1e46:	31 c0                	xor    %eax,%eax
    1e48:	8a 43 04             	mov    0x4(%ebx),%al
    1e4b:	50                   	push   %eax
    1e4c:	31 c0                	xor    %eax,%eax
    1e4e:	8a 43 05             	mov    0x5(%ebx),%al
    1e51:	50                   	push   %eax
    1e52:	51                   	push   %ecx
    1e53:	68 10 46 01 00       	push   $0x14610
    1e58:	e8 53 60 01 00       	call   17eb0 <printf@plt>
    1e5d:	83 c4 20             	add    $0x20,%esp
    1e60:	85 ff                	test   %edi,%edi
    1e62:	0f 85 06 ff ff ff    	jne    1d6e <dump_descriptor_tree_callback+0x7e>
    1e68:	e9 28 ff ff ff       	jmp    1d95 <dump_descriptor_tree_callback+0xa5>
    1e6d:	8d 76 00             	lea    0x0(%esi),%esi
    1e70:	83 fa 08             	cmp    $0x8,%edx
    1e73:	0f 86 9f fe ff ff    	jbe    1d18 <dump_descriptor_tree_callback+0x28>
    1e79:	31 c0                	xor    %eax,%eax
    1e7b:	83 ec 0c             	sub    $0xc,%esp
    1e7e:	8a 43 03             	mov    0x3(%ebx),%al
    1e81:	89 55 d4             	mov    %edx,-0x2c(%ebp)
    1e84:	89 4d d8             	mov    %ecx,-0x28(%ebp)
    1e87:	89 45 e4             	mov    %eax,-0x1c(%ebp)
    1e8a:	31 c9                	xor    %ecx,%ecx
    1e8c:	31 d2                	xor    %edx,%edx
    1e8e:	31 c0                	xor    %eax,%eax
    1e90:	8a 4b 07             	mov    0x7(%ebx),%cl
    1e93:	8a 53 06             	mov    0x6(%ebx),%dl
    1e96:	8a 43 05             	mov    0x5(%ebx),%al
    1e99:	89 4d e0             	mov    %ecx,-0x20(%ebp)
    1e9c:	89 55 dc             	mov    %edx,-0x24(%ebp)
    1e9f:	50                   	push   %eax
    1ea0:	e8 bb 84 00 00       	call   a360 <usb_str_class>
    1ea5:	83 c4 0c             	add    $0xc,%esp
    1ea8:	8b 55 e4             	mov    -0x1c(%ebp),%edx
    1eab:	8b 4d e0             	mov    -0x20(%ebp),%ecx
    1eae:	52                   	push   %edx
    1eaf:	8b 55 dc             	mov    -0x24(%ebp),%edx
    1eb2:	51                   	push   %ecx
    1eb3:	52                   	push   %edx
    1eb4:	50                   	push   %eax
    1eb5:	31 c0                	xor    %eax,%eax
    1eb7:	8a 43 02             	mov    0x2(%ebx),%al
    1eba:	8b 4d d8             	mov    -0x28(%ebp),%ecx
    1ebd:	50                   	push   %eax
    1ebe:	51                   	push   %ecx
    1ebf:	68 44 46 01 00       	push   $0x14644
    1ec4:	e8 e7 5f 01 00       	call   17eb0 <printf@plt>
    1ec9:	83 c4 20             	add    $0x20,%esp
    1ecc:	85 ff                	test   %edi,%edi
    1ece:	0f 84 c1 fe ff ff    	je     1d95 <dump_descriptor_tree_callback+0xa5>
    1ed4:	83 ec 0c             	sub    $0xc,%esp
    1ed7:	83 c6 02             	add    $0x2,%esi
    1eda:	56                   	push   %esi
    1edb:	e8 f0 f6 ff ff       	call   15d0 <get_indent>
    1ee0:	8b 55 d4             	mov    -0x2c(%ebp),%edx
    1ee3:	e9 95 fe ff ff       	jmp    1d7d <dump_descriptor_tree_callback+0x8d>
    1ee8:	83 fa 06             	cmp    $0x6,%edx
    1eeb:	0f 86 27 fe ff ff    	jbe    1d18 <dump_descriptor_tree_callback+0x28>
    1ef1:	8a 43 02             	mov    0x2(%ebx),%al
    1ef4:	83 e0 0f             	and    $0xf,%eax
    1ef7:	88 45 e4             	mov    %al,-0x1c(%ebp)
    1efa:	8a 43 03             	mov    0x3(%ebx),%al
    1efd:	83 e0 03             	and    $0x3,%eax
    1f00:	89 45 e0             	mov    %eax,-0x20(%ebp)
    1f03:	31 c0                	xor    %eax,%eax
    1f05:	66 8b 43 04          	mov    0x4(%ebx),%ax
    1f09:	89 45 dc             	mov    %eax,-0x24(%ebp)
    1f0c:	80 7b 02 00          	cmpb   $0x0,0x2(%ebx)
    1f10:	78 57                	js     1f69 <dump_descriptor_tree_callback+0x279>
    1f12:	c7 45 d4 23 45 01 00 	movl   $0x14523,-0x2c(%ebp)
    1f19:	83 ec 0c             	sub    $0xc,%esp
    1f1c:	89 4d d8             	mov    %ecx,-0x28(%ebp)
    1f1f:	8b 4d e0             	mov    -0x20(%ebp),%ecx
    1f22:	89 55 d0             	mov    %edx,-0x30(%ebp)
    1f25:	51                   	push   %ecx
    1f26:	e8 25 91 00 00       	call   b050 <usb_str_transfer_type>
    1f2b:	5a                   	pop    %edx
    1f2c:	8b 55 dc             	mov    -0x24(%ebp),%edx
    1f2f:	59                   	pop    %ecx
    1f30:	8b 4d d4             	mov    -0x2c(%ebp),%ecx
    1f33:	52                   	push   %edx
    1f34:	51                   	push   %ecx
    1f35:	50                   	push   %eax
    1f36:	31 c0                	xor    %eax,%eax
    1f38:	8a 45 e4             	mov    -0x1c(%ebp),%al
    1f3b:	8b 4d d8             	mov    -0x28(%ebp),%ecx
    1f3e:	50                   	push   %eax
    1f3f:	51                   	push   %ecx
    1f40:	68 27 45 01 00       	push   $0x14527
    1f45:	e8 66 5f 01 00       	call   17eb0 <printf@plt>
    1f4a:	83 c4 20             	add    $0x20,%esp
    1f4d:	85 ff                	test   %edi,%edi
    1f4f:	0f 84 40 fe ff ff    	je     1d95 <dump_descriptor_tree_callback+0xa5>
    1f55:	83 ec 0c             	sub    $0xc,%esp
    1f58:	83 c6 02             	add    $0x2,%esi
    1f5b:	56                   	push   %esi
    1f5c:	e8 6f f6 ff ff       	call   15d0 <get_indent>
    1f61:	8b 55 d0             	mov    -0x30(%ebp),%edx
    1f64:	e9 14 fe ff ff       	jmp    1d7d <dump_descriptor_tree_callback+0x8d>
    1f69:	c7 45 d4 20 45 01 00 	movl   $0x14520,-0x2c(%ebp)
    1f70:	eb a7                	jmp    1f19 <dump_descriptor_tree_callback+0x229>
    1f72:	8d b4 26 00 00 00 00 	lea    0x0(%esi,%eiz,1),%esi
    1f79:	8d bc 27 00 00 00 00 	lea    0x0(%edi,%eiz,1),%edi

00001f80 <dump_match_ids_from_interface>:
    1f80:	55                   	push   %ebp
    1f81:	89 e5                	mov    %esp,%ebp
    1f83:	57                   	push   %edi
    1f84:	56                   	push   %esi
    1f85:	53                   	push   %ebx
    1f86:	83 ec 2c             	sub    $0x2c,%esp
    1f89:	83 7d 0c 01          	cmpl   $0x1,0xc(%ebp)
    1f8d:	74 09                	je     1f98 <dump_match_ids_from_interface+0x18>
    1f8f:	8d 65 f4             	lea    -0xc(%ebp),%esp
    1f92:	5b                   	pop    %ebx
    1f93:	5e                   	pop    %esi
    1f94:	5f                   	pop    %edi
    1f95:	5d                   	pop    %ebp
    1f96:	c3                   	ret    
    1f97:	90                   	nop
    1f98:	8b 45 08             	mov    0x8(%ebp),%eax
    1f9b:	80 38 08             	cmpb   $0x8,(%eax)
    1f9e:	76 ef                	jbe    1f8f <dump_match_ids_from_interface+0xf>
    1fa0:	80 78 01 04          	cmpb   $0x4,0x1(%eax)
    1fa4:	75 e9                	jne    1f8f <dump_match_ids_from_interface+0xf>
    1fa6:	8b 75 10             	mov    0x10(%ebp),%esi
    1fa9:	85 f6                	test   %esi,%esi
    1fab:	0f 84 e3 00 00 00    	je     2094 <dump_match_ids_from_interface+0x114>
    1fb1:	89 c1                	mov    %eax,%ecx
    1fb3:	31 d2                	xor    %edx,%edx
    1fb5:	83 ec 0c             	sub    $0xc,%esp
    1fb8:	8a 50 07             	mov    0x7(%eax),%dl
    1fbb:	0f b6 78 06          	movzbl 0x6(%eax),%edi
    1fbf:	31 c0                	xor    %eax,%eax
    1fc1:	89 55 d4             	mov    %edx,-0x2c(%ebp)
    1fc4:	8a 41 05             	mov    0x5(%ecx),%al
    1fc7:	31 db                	xor    %ebx,%ebx
    1fc9:	50                   	push   %eax
    1fca:	e8 91 83 00 00       	call   a360 <usb_str_class>
    1fcf:	89 c6                	mov    %eax,%esi
    1fd1:	8b 45 08             	mov    0x8(%ebp),%eax
    1fd4:	81 e7 ff 00 00 00    	and    $0xff,%edi
    1fda:	8a 58 02             	mov    0x2(%eax),%bl
    1fdd:	c7 04 24 00 00 00 00 	movl   $0x0,(%esp)
    1fe4:	e8 e7 f5 ff ff       	call   15d0 <get_indent>
    1fe9:	5a                   	pop    %edx
    1fea:	8b 55 d4             	mov    -0x2c(%ebp),%edx
    1fed:	59                   	pop    %ecx
    1fee:	52                   	push   %edx
    1fef:	57                   	push   %edi
    1ff0:	56                   	push   %esi
    1ff1:	53                   	push   %ebx
    1ff2:	50                   	push   %eax
    1ff3:	68 9c 46 01 00       	push   $0x1469c
    1ff8:	e8 b3 5e 01 00       	call   17eb0 <printf@plt>
    1ffd:	83 c4 14             	add    $0x14,%esp
    2000:	8d 75 e0             	lea    -0x20(%ebp),%esi
    2003:	8b 5d 10             	mov    0x10(%ebp),%ebx
    2006:	53                   	push   %ebx
    2007:	89 75 e0             	mov    %esi,-0x20(%ebp)
    200a:	89 75 e4             	mov    %esi,-0x1c(%ebp)
    200d:	e8 ae 48 00 00       	call   68c0 <usb_device_descriptors>
    2012:	83 c4 0c             	add    $0xc,%esp
    2015:	8b 7d 08             	mov    0x8(%ebp),%edi
    2018:	56                   	push   %esi
    2019:	57                   	push   %edi
    201a:	50                   	push   %eax
    201b:	e8 f0 5f 00 00       	call   8010 <usb_device_create_match_ids_from_interface>
    2020:	c7 04 24 01 00 00 00 	movl   $0x1,(%esp)
    2027:	e8 a4 f5 ff ff       	call   15d0 <get_indent>
    202c:	5a                   	pop    %edx
    202d:	59                   	pop    %ecx
    202e:	50                   	push   %eax
    202f:	56                   	push   %esi
    2030:	e8 cb f7 ff ff       	call   1800 <dump_match_ids>
    2035:	8b 5d e4             	mov    -0x1c(%ebp),%ebx
    2038:	83 c4 10             	add    $0x10,%esp
    203b:	39 f3                	cmp    %esi,%ebx
    203d:	0f 84 4c ff ff ff    	je     1f8f <dump_match_ids_from_interface+0xf>
    2043:	90                   	nop
    2044:	8d 74 26 00          	lea    0x0(%esi,%eiz,1),%esi
    2048:	8b 13                	mov    (%ebx),%edx
    204a:	85 d2                	test   %edx,%edx
    204c:	74 0e                	je     205c <dump_match_ids_from_interface+0xdc>
    204e:	8b 43 04             	mov    0x4(%ebx),%eax
    2051:	85 c0                	test   %eax,%eax
    2053:	74 07                	je     205c <dump_match_ids_from_interface+0xdc>
    2055:	89 10                	mov    %edx,(%eax)
    2057:	8b 13                	mov    (%ebx),%edx
    2059:	89 42 04             	mov    %eax,0x4(%edx)
    205c:	8b 43 08             	mov    0x8(%ebx),%eax
    205f:	c7 03 00 00 00 00    	movl   $0x0,(%ebx)
    2065:	c7 43 04 00 00 00 00 	movl   $0x0,0x4(%ebx)
    206c:	85 c0                	test   %eax,%eax
    206e:	74 0c                	je     207c <dump_match_ids_from_interface+0xfc>
    2070:	83 ec 0c             	sub    $0xc,%esp
    2073:	50                   	push   %eax
    2074:	e8 f7 62 01 00       	call   18370 <free@plt>
    2079:	83 c4 10             	add    $0x10,%esp
    207c:	83 ec 0c             	sub    $0xc,%esp
    207f:	53                   	push   %ebx
    2080:	e8 eb 62 01 00       	call   18370 <free@plt>
    2085:	8b 5d e4             	mov    -0x1c(%ebp),%ebx
    2088:	83 c4 10             	add    $0x10,%esp
    208b:	39 f3                	cmp    %esi,%ebx
    208d:	75 b9                	jne    2048 <dump_match_ids_from_interface+0xc8>
    208f:	e9 fb fe ff ff       	jmp    1f8f <dump_match_ids_from_interface+0xf>
    2094:	53                   	push   %ebx
    2095:	6a 46                	push   $0x46
    2097:	68 6d 45 01 00       	push   $0x1456d
    209c:	68 74 45 01 00       	push   $0x14574
    20a1:	e8 ba 5f 01 00       	call   18060 <assert_abort@plt>
    20a6:	8d 76 00             	lea    0x0(%esi),%esi
    20a9:	8d bc 27 00 00 00 00 	lea    0x0(%edi,%eiz,1),%edi

000020b0 <dump_short_device_identification>:
    20b0:	55                   	push   %ebp
    20b1:	89 e5                	mov    %esp,%ebp
    20b3:	56                   	push   %esi
    20b4:	53                   	push   %ebx
    20b5:	31 f6                	xor    %esi,%esi
    20b7:	83 ec 0c             	sub    $0xc,%esp
    20ba:	8b 5d 08             	mov    0x8(%ebp),%ebx
    20bd:	53                   	push   %ebx
    20be:	e8 fd 47 00 00       	call   68c0 <usb_device_descriptors>
    20c3:	66 8b 70 08          	mov    0x8(%eax),%si
    20c7:	89 1c 24             	mov    %ebx,(%esp)
    20ca:	e8 f1 47 00 00       	call   68c0 <usb_device_descriptors>
    20cf:	31 db                	xor    %ebx,%ebx
    20d1:	66 8b 58 0a          	mov    0xa(%eax),%bx
    20d5:	c7 04 24 00 00 00 00 	movl   $0x0,(%esp)
    20dc:	e8 ef f4 ff ff       	call   15d0 <get_indent>
    20e1:	56                   	push   %esi
    20e2:	53                   	push   %ebx
    20e3:	50                   	push   %eax
    20e4:	68 cc 46 01 00       	push   $0x146cc
    20e9:	e8 c2 5d 01 00       	call   17eb0 <printf@plt>
    20ee:	83 c4 20             	add    $0x20,%esp
    20f1:	8d 65 f8             	lea    -0x8(%ebp),%esp
    20f4:	5b                   	pop    %ebx
    20f5:	5e                   	pop    %esi
    20f6:	5d                   	pop    %ebp
    20f7:	c3                   	ret    
    20f8:	90                   	nop
    20f9:	8d b4 26 00 00 00 00 	lea    0x0(%esi,%eiz,1),%esi

00002100 <dump_device_match_ids>:
    2100:	55                   	push   %ebp
    2101:	89 e5                	mov    %esp,%ebp
    2103:	57                   	push   %edi
    2104:	56                   	push   %esi
    2105:	53                   	push   %ebx
    2106:	83 ec 38             	sub    $0x38,%esp
    2109:	8d 75 e0             	lea    -0x20(%ebp),%esi
    210c:	8b 7d 08             	mov    0x8(%ebp),%edi
    210f:	89 75 e0             	mov    %esi,-0x20(%ebp)
    2112:	57                   	push   %edi
    2113:	89 75 e4             	mov    %esi,-0x1c(%ebp)
    2116:	e8 a5 47 00 00       	call   68c0 <usb_device_descriptors>
    211b:	5a                   	pop    %edx
    211c:	59                   	pop    %ecx
    211d:	56                   	push   %esi
    211e:	50                   	push   %eax
    211f:	e8 4c 68 00 00       	call   8970 <usb_device_create_match_ids_from_device_descriptor>
    2124:	89 3c 24             	mov    %edi,(%esp)
    2127:	e8 94 47 00 00       	call   68c0 <usb_device_descriptors>
    212c:	31 db                	xor    %ebx,%ebx
    212e:	8a 48 04             	mov    0x4(%eax),%cl
    2131:	81 e1 ff 00 00 00    	and    $0xff,%ecx
    2137:	89 0c 24             	mov    %ecx,(%esp)
    213a:	e8 21 82 00 00       	call   a360 <usb_str_class>
    213f:	89 3c 24             	mov    %edi,(%esp)
    2142:	89 45 d0             	mov    %eax,-0x30(%ebp)
    2145:	e8 76 47 00 00       	call   68c0 <usb_device_descriptors>
    214a:	31 d2                	xor    %edx,%edx
    214c:	66 8b 50 08          	mov    0x8(%eax),%dx
    2150:	89 3c 24             	mov    %edi,(%esp)
    2153:	89 55 d4             	mov    %edx,-0x2c(%ebp)
    2156:	e8 65 47 00 00       	call   68c0 <usb_device_descriptors>
    215b:	66 8b 58 0a          	mov    0xa(%eax),%bx
    215f:	c7 04 24 00 00 00 00 	movl   $0x0,(%esp)
    2166:	e8 65 f4 ff ff       	call   15d0 <get_indent>
    216b:	8b 4d d0             	mov    -0x30(%ebp),%ecx
    216e:	8b 55 d4             	mov    -0x2c(%ebp),%edx
    2171:	89 0c 24             	mov    %ecx,(%esp)
    2174:	52                   	push   %edx
    2175:	53                   	push   %ebx
    2176:	50                   	push   %eax
    2177:	68 f0 46 01 00       	push   $0x146f0
    217c:	e8 2f 5d 01 00       	call   17eb0 <printf@plt>
    2181:	83 c4 14             	add    $0x14,%esp
    2184:	6a 01                	push   $0x1
    2186:	e8 45 f4 ff ff       	call   15d0 <get_indent>
    218b:	5b                   	pop    %ebx
    218c:	5a                   	pop    %edx
    218d:	50                   	push   %eax
    218e:	56                   	push   %esi
    218f:	e8 6c f6 ff ff       	call   1800 <dump_match_ids>
    2194:	8b 5d e4             	mov    -0x1c(%ebp),%ebx
    2197:	83 c4 10             	add    $0x10,%esp
    219a:	39 f3                	cmp    %esi,%ebx
    219c:	74 49                	je     21e7 <dump_device_match_ids+0xe7>
    219e:	66 90                	xchg   %ax,%ax
    21a0:	8b 13                	mov    (%ebx),%edx
    21a2:	85 d2                	test   %edx,%edx
    21a4:	74 0e                	je     21b4 <dump_device_match_ids+0xb4>
    21a6:	8b 43 04             	mov    0x4(%ebx),%eax
    21a9:	85 c0                	test   %eax,%eax
    21ab:	74 07                	je     21b4 <dump_device_match_ids+0xb4>
    21ad:	89 10                	mov    %edx,(%eax)
    21af:	8b 13                	mov    (%ebx),%edx
    21b1:	89 42 04             	mov    %eax,0x4(%edx)
    21b4:	8b 43 08             	mov    0x8(%ebx),%eax
    21b7:	c7 03 00 00 00 00    	movl   $0x0,(%ebx)
    21bd:	c7 43 04 00 00 00 00 	movl   $0x0,0x4(%ebx)
    21c4:	85 c0                	test   %eax,%eax
    21c6:	74 0c                	je     21d4 <dump_device_match_ids+0xd4>
    21c8:	83 ec 0c             	sub    $0xc,%esp
    21cb:	50                   	push   %eax
    21cc:	e8 9f 61 01 00       	call   18370 <free@plt>
    21d1:	83 c4 10             	add    $0x10,%esp
    21d4:	83 ec 0c             	sub    $0xc,%esp
    21d7:	53                   	push   %ebx
    21d8:	e8 93 61 01 00       	call   18370 <free@plt>
    21dd:	8b 5d e4             	mov    -0x1c(%ebp),%ebx
    21e0:	83 c4 10             	add    $0x10,%esp
    21e3:	39 f3                	cmp    %esi,%ebx
    21e5:	75 b9                	jne    21a0 <dump_device_match_ids+0xa0>
    21e7:	83 ec 0c             	sub    $0xc,%esp
    21ea:	57                   	push   %edi
    21eb:	e8 d0 46 00 00       	call   68c0 <usb_device_descriptors>
    21f0:	8b 58 18             	mov    0x18(%eax),%ebx
    21f3:	89 3c 24             	mov    %edi,(%esp)
    21f6:	e8 c5 46 00 00       	call   68c0 <usb_device_descriptors>
    21fb:	89 3c 24             	mov    %edi,(%esp)
    21fe:	68 80 1f 00 00       	push   $0x1f80
    2203:	68 c0 55 01 00       	push   $0x155c0
    2208:	8b 40 14             	mov    0x14(%eax),%eax
    220b:	53                   	push   %ebx
    220c:	50                   	push   %eax
    220d:	e8 fe 54 00 00       	call   7710 <usb_dp_walk_simple>
    2212:	8d 65 f4             	lea    -0xc(%ebp),%esp
    2215:	5b                   	pop    %ebx
    2216:	5e                   	pop    %esi
    2217:	5f                   	pop    %edi
    2218:	5d                   	pop    %ebp
    2219:	c3                   	ret    
    221a:	8d b6 00 00 00 00    	lea    0x0(%esi),%esi

00002220 <dump_descriptor_tree_brief>:
    2220:	55                   	push   %ebp
    2221:	89 e5                	mov    %esp,%ebp
    2223:	57                   	push   %edi
    2224:	56                   	push   %esi
    2225:	53                   	push   %ebx
    2226:	83 ec 28             	sub    $0x28,%esp
    2229:	8b 5d 08             	mov    0x8(%ebp),%ebx
    222c:	53                   	push   %ebx
    222d:	e8 8e 46 00 00       	call   68c0 <usb_device_descriptors>
    2232:	c7 04 24 00 00 00 00 	movl   $0x0,(%esp)
    2239:	89 c6                	mov    %eax,%esi
    223b:	e8 90 f3 ff ff       	call   15d0 <get_indent>
    2240:	83 c4 10             	add    $0x10,%esp
    2243:	89 c7                	mov    %eax,%edi
    2245:	31 c0                	xor    %eax,%eax
    2247:	8a 06                	mov    (%esi),%al
    2249:	85 c0                	test   %eax,%eax
    224b:	75 4b                	jne    2298 <dump_descriptor_tree_brief+0x78>
    224d:	52                   	push   %edx
    224e:	52                   	push   %edx
    224f:	57                   	push   %edi
    2250:	68 56 45 01 00       	push   $0x14556
    2255:	e8 56 5c 01 00       	call   17eb0 <printf@plt>
    225a:	83 c4 10             	add    $0x10,%esp
    225d:	83 ec 0c             	sub    $0xc,%esp
    2260:	53                   	push   %ebx
    2261:	e8 5a 46 00 00       	call   68c0 <usb_device_descriptors>
    2266:	8b 70 18             	mov    0x18(%eax),%esi
    2269:	89 1c 24             	mov    %ebx,(%esp)
    226c:	e8 4f 46 00 00       	call   68c0 <usb_device_descriptors>
    2271:	c7 04 24 00 00 00 00 	movl   $0x0,(%esp)
    2278:	68 f0 1c 00 00       	push   $0x1cf0
    227d:	68 c0 55 01 00       	push   $0x155c0
    2282:	56                   	push   %esi
    2283:	8b 40 14             	mov    0x14(%eax),%eax
    2286:	50                   	push   %eax
    2287:	e8 84 54 00 00       	call   7710 <usb_dp_walk_simple>
    228c:	83 c4 20             	add    $0x20,%esp
    228f:	8d 65 f4             	lea    -0xc(%ebp),%esp
    2292:	5b                   	pop    %ebx
    2293:	5e                   	pop    %esi
    2294:	5f                   	pop    %edi
    2295:	5d                   	pop    %ebp
    2296:	c3                   	ret    
    2297:	90                   	nop
    2298:	80 7e 01 29          	cmpb   $0x29,0x1(%esi)
    229c:	77 bf                	ja     225d <dump_descriptor_tree_brief+0x3d>
    229e:	31 d2                	xor    %edx,%edx
    22a0:	8a 56 01             	mov    0x1(%esi),%dl
    22a3:	ff 24 95 20 49 01 00 	jmp    *0x14920(,%edx,4)
    22aa:	8d b6 00 00 00 00    	lea    0x0(%esi),%esi
    22b0:	83 f8 06             	cmp    $0x6,%eax
    22b3:	76 98                	jbe    224d <dump_descriptor_tree_brief+0x2d>
    22b5:	31 c0                	xor    %eax,%eax
    22b7:	51                   	push   %ecx
    22b8:	8a 46 02             	mov    0x2(%esi),%al
    22bb:	50                   	push   %eax
    22bc:	57                   	push   %edi
    22bd:	68 44 45 01 00       	push   $0x14544
    22c2:	e8 e9 5b 01 00       	call   17eb0 <printf@plt>
    22c7:	83 c4 10             	add    $0x10,%esp
    22ca:	eb 91                	jmp    225d <dump_descriptor_tree_brief+0x3d>
    22cc:	8d 74 26 00          	lea    0x0(%esi,%eiz,1),%esi
    22d0:	83 f8 11             	cmp    $0x11,%eax
    22d3:	0f 86 74 ff ff ff    	jbe    224d <dump_descriptor_tree_brief+0x2d>
    22d9:	83 ec 0c             	sub    $0xc,%esp
    22dc:	31 d2                	xor    %edx,%edx
    22de:	31 c0                	xor    %eax,%eax
    22e0:	8a 56 11             	mov    0x11(%esi),%dl
    22e3:	8a 46 04             	mov    0x4(%esi),%al
    22e6:	89 55 e4             	mov    %edx,-0x1c(%ebp)
    22e9:	50                   	push   %eax
    22ea:	e8 71 80 00 00       	call   a360 <usb_str_class>
    22ef:	59                   	pop    %ecx
    22f0:	5a                   	pop    %edx
    22f1:	8b 55 e4             	mov    -0x1c(%ebp),%edx
    22f4:	52                   	push   %edx
    22f5:	50                   	push   %eax
    22f6:	31 c0                	xor    %eax,%eax
    22f8:	66 8b 46 08          	mov    0x8(%esi),%ax
    22fc:	50                   	push   %eax
    22fd:	31 c0                	xor    %eax,%eax
    22ff:	66 8b 46 0a          	mov    0xa(%esi),%ax
    2303:	50                   	push   %eax
    2304:	57                   	push   %edi
    2305:	68 d8 45 01 00       	push   $0x145d8
    230a:	e8 a1 5b 01 00       	call   17eb0 <printf@plt>
    230f:	83 c4 20             	add    $0x20,%esp
    2312:	e9 46 ff ff ff       	jmp    225d <dump_descriptor_tree_brief+0x3d>
    2317:	90                   	nop
    2318:	83 f8 08             	cmp    $0x8,%eax
    231b:	0f 86 2c ff ff ff    	jbe    224d <dump_descriptor_tree_brief+0x2d>
    2321:	83 ec 0c             	sub    $0xc,%esp
    2324:	31 c0                	xor    %eax,%eax
    2326:	66 8b 46 02          	mov    0x2(%esi),%ax
    232a:	50                   	push   %eax
    232b:	31 c0                	xor    %eax,%eax
    232d:	8a 46 04             	mov    0x4(%esi),%al
    2330:	50                   	push   %eax
    2331:	31 c0                	xor    %eax,%eax
    2333:	8a 46 05             	mov    0x5(%esi),%al
    2336:	50                   	push   %eax
    2337:	57                   	push   %edi
    2338:	68 10 46 01 00       	push   $0x14610
    233d:	e8 6e 5b 01 00       	call   17eb0 <printf@plt>
    2342:	83 c4 20             	add    $0x20,%esp
    2345:	e9 13 ff ff ff       	jmp    225d <dump_descriptor_tree_brief+0x3d>
    234a:	8d b6 00 00 00 00    	lea    0x0(%esi),%esi
    2350:	83 f8 08             	cmp    $0x8,%eax
    2353:	0f 86 f4 fe ff ff    	jbe    224d <dump_descriptor_tree_brief+0x2d>
    2359:	31 c0                	xor    %eax,%eax
    235b:	83 ec 0c             	sub    $0xc,%esp
    235e:	8a 46 06             	mov    0x6(%esi),%al
    2361:	31 c9                	xor    %ecx,%ecx
    2363:	89 45 e4             	mov    %eax,-0x1c(%ebp)
    2366:	31 d2                	xor    %edx,%edx
    2368:	31 c0                	xor    %eax,%eax
    236a:	8a 4e 03             	mov    0x3(%esi),%cl
    236d:	8a 56 07             	mov    0x7(%esi),%dl
    2370:	8a 46 05             	mov    0x5(%esi),%al
    2373:	89 4d dc             	mov    %ecx,-0x24(%ebp)
    2376:	89 55 e0             	mov    %edx,-0x20(%ebp)
    2379:	50                   	push   %eax
    237a:	e8 e1 7f 00 00       	call   a360 <usb_str_class>
    237f:	83 c4 0c             	add    $0xc,%esp
    2382:	8b 55 e0             	mov    -0x20(%ebp),%edx
    2385:	8b 4d dc             	mov    -0x24(%ebp),%ecx
    2388:	51                   	push   %ecx
    2389:	52                   	push   %edx
    238a:	8b 55 e4             	mov    -0x1c(%ebp),%edx
    238d:	52                   	push   %edx
    238e:	50                   	push   %eax
    238f:	31 c0                	xor    %eax,%eax
    2391:	8a 46 02             	mov    0x2(%esi),%al
    2394:	50                   	push   %eax
    2395:	57                   	push   %edi
    2396:	68 44 46 01 00       	push   $0x14644
    239b:	e8 10 5b 01 00       	call   17eb0 <printf@plt>
    23a0:	83 c4 20             	add    $0x20,%esp
    23a3:	e9 b5 fe ff ff       	jmp    225d <dump_descriptor_tree_brief+0x3d>
    23a8:	83 f8 06             	cmp    $0x6,%eax
    23ab:	0f 86 9c fe ff ff    	jbe    224d <dump_descriptor_tree_brief+0x2d>
    23b1:	8a 4e 03             	mov    0x3(%esi),%cl
    23b4:	8a 46 02             	mov    0x2(%esi),%al
    23b7:	83 e1 03             	and    $0x3,%ecx
    23ba:	88 c2                	mov    %al,%dl
    23bc:	89 4d e4             	mov    %ecx,-0x1c(%ebp)
    23bf:	66 8b 4e 04          	mov    0x4(%esi),%cx
    23c3:	81 e1 ff ff 00 00    	and    $0xffff,%ecx
    23c9:	83 e2 0f             	and    $0xf,%edx
    23cc:	89 ce                	mov    %ecx,%esi
    23ce:	84 c0                	test   %al,%al
    23d0:	78 66                	js     2438 <dump_descriptor_tree_brief+0x218>
    23d2:	c7 45 dc 23 45 01 00 	movl   $0x14523,-0x24(%ebp)
    23d9:	83 ec 0c             	sub    $0xc,%esp
    23dc:	8b 45 e4             	mov    -0x1c(%ebp),%eax
    23df:	88 55 e0             	mov    %dl,-0x20(%ebp)
    23e2:	50                   	push   %eax
    23e3:	e8 68 8c 00 00       	call   b050 <usb_str_transfer_type>
    23e8:	5a                   	pop    %edx
    23e9:	8a 55 e0             	mov    -0x20(%ebp),%dl
    23ec:	59                   	pop    %ecx
    23ed:	81 e2 ff 00 00 00    	and    $0xff,%edx
    23f3:	56                   	push   %esi
    23f4:	8b 75 dc             	mov    -0x24(%ebp),%esi
    23f7:	56                   	push   %esi
    23f8:	50                   	push   %eax
    23f9:	52                   	push   %edx
    23fa:	57                   	push   %edi
    23fb:	68 27 45 01 00       	push   $0x14527
    2400:	e8 ab 5a 01 00       	call   17eb0 <printf@plt>
    2405:	83 c4 20             	add    $0x20,%esp
    2408:	e9 50 fe ff ff       	jmp    225d <dump_descriptor_tree_brief+0x3d>
    240d:	8d 76 00             	lea    0x0(%esi),%esi
    2410:	83 f8 08             	cmp    $0x8,%eax
    2413:	0f 86 34 fe ff ff    	jbe    224d <dump_descriptor_tree_brief+0x2d>
    2419:	31 c0                	xor    %eax,%eax
    241b:	8a 46 05             	mov    0x5(%esi),%al
    241e:	50                   	push   %eax
    241f:	31 c0                	xor    %eax,%eax
    2421:	8a 46 04             	mov    0x4(%esi),%al
    2424:	50                   	push   %eax
    2425:	57                   	push   %edi
    2426:	68 78 46 01 00       	push   $0x14678
    242b:	e8 80 5a 01 00       	call   17eb0 <printf@plt>
    2430:	83 c4 10             	add    $0x10,%esp
    2433:	e9 25 fe ff ff       	jmp    225d <dump_descriptor_tree_brief+0x3d>
    2438:	c7 45 dc 20 45 01 00 	movl   $0x14520,-0x24(%ebp)
    243f:	eb 98                	jmp    23d9 <dump_descriptor_tree_brief+0x1b9>
    2441:	eb 0d                	jmp    2450 <dump_descriptor_tree_full>
    2443:	90                   	nop
    2444:	90                   	nop
    2445:	90                   	nop
    2446:	90                   	nop
    2447:	90                   	nop
    2448:	90                   	nop
    2449:	90                   	nop
    244a:	90                   	nop
    244b:	90                   	nop
    244c:	90                   	nop
    244d:	90                   	nop
    244e:	90                   	nop
    244f:	90                   	nop

00002450 <dump_descriptor_tree_full>:
    2450:	55                   	push   %ebp
    2451:	89 e5                	mov    %esp,%ebp
    2453:	57                   	push   %edi
    2454:	56                   	push   %esi
    2455:	53                   	push   %ebx
    2456:	83 ec 28             	sub    $0x28,%esp
    2459:	8b 5d 08             	mov    0x8(%ebp),%ebx
    245c:	53                   	push   %ebx
    245d:	e8 5e 44 00 00       	call   68c0 <usb_device_descriptors>
    2462:	c7 04 24 00 00 00 00 	movl   $0x0,(%esp)
    2469:	89 c6                	mov    %eax,%esi
    246b:	e8 60 f1 ff ff       	call   15d0 <get_indent>
    2470:	83 c4 10             	add    $0x10,%esp
    2473:	0f b6 3e             	movzbl (%esi),%edi
    2476:	81 e7 ff 00 00 00    	and    $0xff,%edi
    247c:	89 c2                	mov    %eax,%edx
    247e:	85 ff                	test   %edi,%edi
    2480:	75 46                	jne    24c8 <dump_descriptor_tree_full+0x78>
    2482:	51                   	push   %ecx
    2483:	51                   	push   %ecx
    2484:	52                   	push   %edx
    2485:	68 56 45 01 00       	push   $0x14556
    248a:	e8 21 5a 01 00       	call   17eb0 <printf@plt>
    248f:	83 c4 10             	add    $0x10,%esp
    2492:	83 ec 0c             	sub    $0xc,%esp
    2495:	53                   	push   %ebx
    2496:	e8 25 44 00 00       	call   68c0 <usb_device_descriptors>
    249b:	8b 70 18             	mov    0x18(%eax),%esi
    249e:	89 1c 24             	mov    %ebx,(%esp)
    24a1:	e8 1a 44 00 00       	call   68c0 <usb_device_descriptors>
    24a6:	89 1c 24             	mov    %ebx,(%esp)
    24a9:	68 f0 1c 00 00       	push   $0x1cf0
    24ae:	68 c0 55 01 00       	push   $0x155c0
    24b3:	56                   	push   %esi
    24b4:	8b 40 14             	mov    0x14(%eax),%eax
    24b7:	50                   	push   %eax
    24b8:	e8 53 52 00 00       	call   7710 <usb_dp_walk_simple>
    24bd:	83 c4 20             	add    $0x20,%esp
    24c0:	8d 65 f4             	lea    -0xc(%ebp),%esp
    24c3:	5b                   	pop    %ebx
    24c4:	5e                   	pop    %esi
    24c5:	5f                   	pop    %edi
    24c6:	5d                   	pop    %ebp
    24c7:	c3                   	ret    
    24c8:	80 7e 01 29          	cmpb   $0x29,0x1(%esi)
    24cc:	77 c4                	ja     2492 <dump_descriptor_tree_full+0x42>
    24ce:	31 c0                	xor    %eax,%eax
    24d0:	8a 46 01             	mov    0x1(%esi),%al
    24d3:	ff 24 85 c8 49 01 00 	jmp    *0x149c8(,%eax,4)
    24da:	8d b6 00 00 00 00    	lea    0x0(%esi),%esi
    24e0:	83 ff 06             	cmp    $0x6,%edi
    24e3:	76 9d                	jbe    2482 <dump_descriptor_tree_full+0x32>
    24e5:	50                   	push   %eax
    24e6:	31 c0                	xor    %eax,%eax
    24e8:	8a 46 02             	mov    0x2(%esi),%al
    24eb:	50                   	push   %eax
    24ec:	52                   	push   %edx
    24ed:	68 44 45 01 00       	push   $0x14544
    24f2:	e8 b9 59 01 00       	call   17eb0 <printf@plt>
    24f7:	83 c4 10             	add    $0x10,%esp
    24fa:	85 db                	test   %ebx,%ebx
    24fc:	0f 85 a6 01 00 00    	jne    26a8 <dump_descriptor_tree_full+0x258>
    2502:	eb 8e                	jmp    2492 <dump_descriptor_tree_full+0x42>
    2504:	8d 74 26 00          	lea    0x0(%esi,%eiz,1),%esi
    2508:	83 ff 11             	cmp    $0x11,%edi
    250b:	0f 86 71 ff ff ff    	jbe    2482 <dump_descriptor_tree_full+0x32>
    2511:	83 ec 0c             	sub    $0xc,%esp
    2514:	31 c9                	xor    %ecx,%ecx
    2516:	31 c0                	xor    %eax,%eax
    2518:	8a 4e 11             	mov    0x11(%esi),%cl
    251b:	8a 46 04             	mov    0x4(%esi),%al
    251e:	89 55 e0             	mov    %edx,-0x20(%ebp)
    2521:	50                   	push   %eax
    2522:	89 4d e4             	mov    %ecx,-0x1c(%ebp)
    2525:	e8 36 7e 00 00       	call   a360 <usb_str_class>
    252a:	59                   	pop    %ecx
    252b:	8b 4d e4             	mov    -0x1c(%ebp),%ecx
    252e:	5a                   	pop    %edx
    252f:	51                   	push   %ecx
    2530:	50                   	push   %eax
    2531:	31 c0                	xor    %eax,%eax
    2533:	8b 55 e0             	mov    -0x20(%ebp),%edx
    2536:	66 8b 46 08          	mov    0x8(%esi),%ax
    253a:	50                   	push   %eax
    253b:	31 c0                	xor    %eax,%eax
    253d:	66 8b 46 0a          	mov    0xa(%esi),%ax
    2541:	50                   	push   %eax
    2542:	52                   	push   %edx
    2543:	68 d8 45 01 00       	push   $0x145d8
    2548:	e8 63 59 01 00       	call   17eb0 <printf@plt>
    254d:	83 c4 20             	add    $0x20,%esp
    2550:	85 db                	test   %ebx,%ebx
    2552:	0f 85 50 01 00 00    	jne    26a8 <dump_descriptor_tree_full+0x258>
    2558:	e9 35 ff ff ff       	jmp    2492 <dump_descriptor_tree_full+0x42>
    255d:	8d 76 00             	lea    0x0(%esi),%esi
    2560:	83 ff 08             	cmp    $0x8,%edi
    2563:	0f 86 19 ff ff ff    	jbe    2482 <dump_descriptor_tree_full+0x32>
    2569:	83 ec 0c             	sub    $0xc,%esp
    256c:	31 c0                	xor    %eax,%eax
    256e:	66 8b 46 02          	mov    0x2(%esi),%ax
    2572:	50                   	push   %eax
    2573:	31 c0                	xor    %eax,%eax
    2575:	8a 46 04             	mov    0x4(%esi),%al
    2578:	50                   	push   %eax
    2579:	31 c0                	xor    %eax,%eax
    257b:	8a 46 05             	mov    0x5(%esi),%al
    257e:	50                   	push   %eax
    257f:	52                   	push   %edx
    2580:	68 10 46 01 00       	push   $0x14610
    2585:	e8 26 59 01 00       	call   17eb0 <printf@plt>
    258a:	83 c4 20             	add    $0x20,%esp
    258d:	85 db                	test   %ebx,%ebx
    258f:	0f 85 13 01 00 00    	jne    26a8 <dump_descriptor_tree_full+0x258>
    2595:	e9 f8 fe ff ff       	jmp    2492 <dump_descriptor_tree_full+0x42>
    259a:	8d b6 00 00 00 00    	lea    0x0(%esi),%esi
    25a0:	83 ff 08             	cmp    $0x8,%edi
    25a3:	0f 86 d9 fe ff ff    	jbe    2482 <dump_descriptor_tree_full+0x32>
    25a9:	31 c9                	xor    %ecx,%ecx
    25ab:	31 c0                	xor    %eax,%eax
    25ad:	8a 4e 03             	mov    0x3(%esi),%cl
    25b0:	8a 46 07             	mov    0x7(%esi),%al
    25b3:	83 ec 0c             	sub    $0xc,%esp
    25b6:	89 4d dc             	mov    %ecx,-0x24(%ebp)
    25b9:	89 45 e4             	mov    %eax,-0x1c(%ebp)
    25bc:	31 c9                	xor    %ecx,%ecx
    25be:	31 c0                	xor    %eax,%eax
    25c0:	8a 4e 06             	mov    0x6(%esi),%cl
    25c3:	8a 46 05             	mov    0x5(%esi),%al
    25c6:	89 55 d8             	mov    %edx,-0x28(%ebp)
    25c9:	89 4d e0             	mov    %ecx,-0x20(%ebp)
    25cc:	50                   	push   %eax
    25cd:	e8 8e 7d 00 00       	call   a360 <usb_str_class>
    25d2:	83 c4 0c             	add    $0xc,%esp
    25d5:	8b 4d dc             	mov    -0x24(%ebp),%ecx
    25d8:	8b 55 e0             	mov    -0x20(%ebp),%edx
    25db:	51                   	push   %ecx
    25dc:	8b 4d e4             	mov    -0x1c(%ebp),%ecx
    25df:	51                   	push   %ecx
    25e0:	52                   	push   %edx
    25e1:	50                   	push   %eax
    25e2:	31 c0                	xor    %eax,%eax
    25e4:	8a 46 02             	mov    0x2(%esi),%al
    25e7:	8b 55 d8             	mov    -0x28(%ebp),%edx
    25ea:	50                   	push   %eax
    25eb:	52                   	push   %edx
    25ec:	68 44 46 01 00       	push   $0x14644
    25f1:	e8 ba 58 01 00       	call   17eb0 <printf@plt>
    25f6:	83 c4 20             	add    $0x20,%esp
    25f9:	85 db                	test   %ebx,%ebx
    25fb:	0f 85 a7 00 00 00    	jne    26a8 <dump_descriptor_tree_full+0x258>
    2601:	e9 8c fe ff ff       	jmp    2492 <dump_descriptor_tree_full+0x42>
    2606:	66 90                	xchg   %ax,%ax
    2608:	83 ff 06             	cmp    $0x6,%edi
    260b:	0f 86 71 fe ff ff    	jbe    2482 <dump_descriptor_tree_full+0x32>
    2611:	8a 46 02             	mov    0x2(%esi),%al
    2614:	31 c9                	xor    %ecx,%ecx
    2616:	83 e0 0f             	and    $0xf,%eax
    2619:	66 8b 4e 04          	mov    0x4(%esi),%cx
    261d:	88 45 e4             	mov    %al,-0x1c(%ebp)
    2620:	8a 46 03             	mov    0x3(%esi),%al
    2623:	83 e0 03             	and    $0x3,%eax
    2626:	80 7e 02 00          	cmpb   $0x0,0x2(%esi)
    262a:	0f 88 a0 00 00 00    	js     26d0 <dump_descriptor_tree_full+0x280>
    2630:	c7 45 d8 23 45 01 00 	movl   $0x14523,-0x28(%ebp)
    2637:	83 ec 0c             	sub    $0xc,%esp
    263a:	89 4d dc             	mov    %ecx,-0x24(%ebp)
    263d:	89 55 e0             	mov    %edx,-0x20(%ebp)
    2640:	50                   	push   %eax
    2641:	e8 0a 8a 00 00       	call   b050 <usb_str_transfer_type>
    2646:	5a                   	pop    %edx
    2647:	8b 55 d8             	mov    -0x28(%ebp),%edx
    264a:	59                   	pop    %ecx
    264b:	8b 4d dc             	mov    -0x24(%ebp),%ecx
    264e:	51                   	push   %ecx
    264f:	52                   	push   %edx
    2650:	50                   	push   %eax
    2651:	31 c0                	xor    %eax,%eax
    2653:	8a 45 e4             	mov    -0x1c(%ebp),%al
    2656:	8b 55 e0             	mov    -0x20(%ebp),%edx
    2659:	50                   	push   %eax
    265a:	52                   	push   %edx
    265b:	68 27 45 01 00       	push   $0x14527
    2660:	e8 4b 58 01 00       	call   17eb0 <printf@plt>
    2665:	83 c4 20             	add    $0x20,%esp
    2668:	85 db                	test   %ebx,%ebx
    266a:	75 3c                	jne    26a8 <dump_descriptor_tree_full+0x258>
    266c:	e9 21 fe ff ff       	jmp    2492 <dump_descriptor_tree_full+0x42>
    2671:	8d b4 26 00 00 00 00 	lea    0x0(%esi,%eiz,1),%esi
    2678:	83 ff 08             	cmp    $0x8,%edi
    267b:	0f 86 01 fe ff ff    	jbe    2482 <dump_descriptor_tree_full+0x32>
    2681:	31 c0                	xor    %eax,%eax
    2683:	8a 46 05             	mov    0x5(%esi),%al
    2686:	50                   	push   %eax
    2687:	31 c0                	xor    %eax,%eax
    2689:	8a 46 04             	mov    0x4(%esi),%al
    268c:	50                   	push   %eax
    268d:	52                   	push   %edx
    268e:	68 78 46 01 00       	push   $0x14678
    2693:	e8 18 58 01 00       	call   17eb0 <printf@plt>
    2698:	83 c4 10             	add    $0x10,%esp
    269b:	85 db                	test   %ebx,%ebx
    269d:	0f 84 ef fd ff ff    	je     2492 <dump_descriptor_tree_full+0x42>
    26a3:	90                   	nop
    26a4:	8d 74 26 00          	lea    0x0(%esi,%eiz,1),%esi
    26a8:	83 ec 0c             	sub    $0xc,%esp
    26ab:	6a 01                	push   $0x1
    26ad:	e8 1e ef ff ff       	call   15d0 <get_indent>
    26b2:	89 3c 24             	mov    %edi,(%esp)
    26b5:	56                   	push   %esi
    26b6:	8b 35 a0 a6 01 00    	mov    0x1a6a0,%esi
    26bc:	68 e5 7a 01 00       	push   $0x17ae5
    26c1:	50                   	push   %eax
    26c2:	56                   	push   %esi
    26c3:	e8 e8 88 00 00       	call   afb0 <usb_dump_standard_descriptor>
    26c8:	83 c4 20             	add    $0x20,%esp
    26cb:	e9 c2 fd ff ff       	jmp    2492 <dump_descriptor_tree_full+0x42>
    26d0:	c7 45 d8 20 45 01 00 	movl   $0x14520,-0x28(%ebp)
    26d7:	e9 5b ff ff ff       	jmp    2637 <dump_descriptor_tree_full+0x1e7>
    26dc:	8d 74 26 00          	lea    0x0(%esi,%eiz,1),%esi

000026e0 <dump_strings>:
    26e0:	55                   	push   %ebp
    26e1:	89 e5                	mov    %esp,%ebp
    26e3:	57                   	push   %edi
    26e4:	56                   	push   %esi
    26e5:	53                   	push   %ebx
    26e6:	83 ec 48             	sub    $0x48,%esp
    26e9:	c7 45 e0 00 00 00 00 	movl   $0x0,-0x20(%ebp)
    26f0:	8b 45 08             	mov    0x8(%ebp),%eax
    26f3:	c7 45 e4 00 00 00 00 	movl   $0x0,-0x1c(%ebp)
    26fa:	50                   	push   %eax
    26fb:	e8 c0 41 00 00       	call   68c0 <usb_device_descriptors>
    2700:	83 c4 0c             	add    $0xc,%esp
    2703:	8d 5d e0             	lea    -0x20(%ebp),%ebx
    2706:	53                   	push   %ebx
    2707:	6a 00                	push   $0x0
    2709:	50                   	push   %eax
    270a:	e8 e1 f4 ff ff       	call   1bf0 <find_string_indexes_callback>
    270f:	58                   	pop    %eax
    2710:	8b 45 08             	mov    0x8(%ebp),%eax
    2713:	50                   	push   %eax
    2714:	e8 a7 41 00 00       	call   68c0 <usb_device_descriptors>
    2719:	8b 4d 08             	mov    0x8(%ebp),%ecx
    271c:	5a                   	pop    %edx
    271d:	8b 70 18             	mov    0x18(%eax),%esi
    2720:	51                   	push   %ecx
    2721:	e8 9a 41 00 00       	call   68c0 <usb_device_descriptors>
    2726:	89 1c 24             	mov    %ebx,(%esp)
    2729:	68 f0 1b 00 00       	push   $0x1bf0
    272e:	68 c0 55 01 00       	push   $0x155c0
    2733:	8b 58 14             	mov    0x14(%eax),%ebx
    2736:	56                   	push   %esi
    2737:	53                   	push   %ebx
    2738:	e8 d3 4f 00 00       	call   7710 <usb_dp_walk_simple>
    273d:	8b 45 e4             	mov    -0x1c(%ebp),%eax
    2740:	83 c4 20             	add    $0x20,%esp
    2743:	0b 45 e0             	or     -0x20(%ebp),%eax
    2746:	75 18                	jne    2760 <dump_strings+0x80>
    2748:	83 ec 0c             	sub    $0xc,%esp
    274b:	68 1c 47 01 00       	push   $0x1471c
    2750:	e8 5b 57 01 00       	call   17eb0 <printf@plt>
    2755:	83 c4 10             	add    $0x10,%esp
    2758:	8d 65 f4             	lea    -0xc(%ebp),%esp
    275b:	5b                   	pop    %ebx
    275c:	5e                   	pop    %esi
    275d:	5f                   	pop    %edi
    275e:	5d                   	pop    %ebp
    275f:	c3                   	ret    
    2760:	83 ec 0c             	sub    $0xc,%esp
    2763:	8b 45 08             	mov    0x8(%ebp),%eax
    2766:	50                   	push   %eax
    2767:	e8 04 40 00 00       	call   6770 <usb_device_get_default_pipe>
    276c:	83 c4 0c             	add    $0xc,%esp
    276f:	8d 55 d8             	lea    -0x28(%ebp),%edx
    2772:	52                   	push   %edx
    2773:	8d 55 d4             	lea    -0x2c(%ebp),%edx
    2776:	52                   	push   %edx
    2777:	50                   	push   %eax
    2778:	e8 43 73 00 00       	call   9ac0 <usb_request_get_supported_languages>
    277d:	83 c4 10             	add    $0x10,%esp
    2780:	85 c0                	test   %eax,%eax
    2782:	0f 85 63 01 00 00    	jne    28eb <dump_strings+0x20b>
    2788:	83 ec 0c             	sub    $0xc,%esp
    278b:	8b 5d d8             	mov    -0x28(%ebp),%ebx
    278e:	6a 00                	push   $0x0
    2790:	e8 3b ee ff ff       	call   15d0 <get_indent>
    2795:	83 c4 0c             	add    $0xc,%esp
    2798:	53                   	push   %ebx
    2799:	50                   	push   %eax
    279a:	68 7c 45 01 00       	push   $0x1457c
    279f:	e8 0c 57 01 00       	call   17eb0 <printf@plt>
    27a4:	8b 45 d8             	mov    -0x28(%ebp),%eax
    27a7:	83 c4 10             	add    $0x10,%esp
    27aa:	31 db                	xor    %ebx,%ebx
    27ac:	85 c0                	test   %eax,%eax
    27ae:	74 1c                	je     27cc <dump_strings+0xec>
    27b0:	8b 45 d4             	mov    -0x2c(%ebp),%eax
    27b3:	51                   	push   %ecx
    27b4:	51                   	push   %ecx
    27b5:	8b 34 98             	mov    (%eax,%ebx,4),%esi
    27b8:	43                   	inc    %ebx
    27b9:	56                   	push   %esi
    27ba:	68 96 45 01 00       	push   $0x14596
    27bf:	e8 ec 56 01 00       	call   17eb0 <printf@plt>
    27c4:	83 c4 10             	add    $0x10,%esp
    27c7:	39 5d d8             	cmp    %ebx,-0x28(%ebp)
    27ca:	77 e4                	ja     27b0 <dump_strings+0xd0>
    27cc:	83 ec 0c             	sub    $0xc,%esp
    27cf:	68 6a 45 01 00       	push   $0x1456a
    27d4:	e8 d7 56 01 00       	call   17eb0 <printf@plt>
    27d9:	8b 7d d8             	mov    -0x28(%ebp),%edi
    27dc:	83 c4 10             	add    $0x10,%esp
    27df:	c7 45 c4 00 00 00 00 	movl   $0x0,-0x3c(%ebp)
    27e6:	85 ff                	test   %edi,%edi
    27e8:	0f 84 6a ff ff ff    	je     2758 <dump_strings+0x78>
    27ee:	66 90                	xchg   %ax,%ax
    27f0:	8b 45 d4             	mov    -0x2c(%ebp),%eax
    27f3:	8b 5d c4             	mov    -0x3c(%ebp),%ebx
    27f6:	83 ec 0c             	sub    $0xc,%esp
    27f9:	8b 1c 98             	mov    (%eax,%ebx,4),%ebx
    27fc:	53                   	push   %ebx
    27fd:	e8 1e 58 01 00       	call   18020 <str_l18_win_locale@plt>
    2802:	c7 04 24 00 00 00 00 	movl   $0x0,(%esp)
    2809:	89 c6                	mov    %eax,%esi
    280b:	e8 c0 ed ff ff       	call   15d0 <get_indent>
    2810:	83 c4 0c             	add    $0xc,%esp
    2813:	56                   	push   %esi
    2814:	50                   	push   %eax
    2815:	68 9e 45 01 00       	push   $0x1459e
    281a:	be 01 00 00 00       	mov    $0x1,%esi
    281f:	e8 8c 56 01 00       	call   17eb0 <printf@plt>
    2824:	83 c4 10             	add    $0x10,%esp
    2827:	eb 11                	jmp    283a <dump_strings+0x15a>
    2829:	8d b4 26 00 00 00 00 	lea    0x0(%esi,%eiz,1),%esi
    2830:	46                   	inc    %esi
    2831:	83 fe 40             	cmp    $0x40,%esi
    2834:	0f 84 96 00 00 00    	je     28d0 <dump_strings+0x1f0>
    283a:	89 f1                	mov    %esi,%ecx
    283c:	8b 55 e4             	mov    -0x1c(%ebp),%edx
    283f:	8b 45 e0             	mov    -0x20(%ebp),%eax
    2842:	0f ad d0             	shrd   %cl,%edx,%eax
    2845:	d3 ea                	shr    %cl,%edx
    2847:	f6 c1 20             	test   $0x20,%cl
    284a:	74 02                	je     284e <dump_strings+0x16e>
    284c:	89 d0                	mov    %edx,%eax
    284e:	83 e0 01             	and    $0x1,%eax
    2851:	85 c0                	test   %eax,%eax
    2853:	74 db                	je     2830 <dump_strings+0x150>
    2855:	83 ec 0c             	sub    $0xc,%esp
    2858:	8b 55 08             	mov    0x8(%ebp),%edx
    285b:	c7 45 dc 00 00 00 00 	movl   $0x0,-0x24(%ebp)
    2862:	52                   	push   %edx
    2863:	e8 08 3f 00 00       	call   6770 <usb_device_get_default_pipe>
    2868:	8d 55 dc             	lea    -0x24(%ebp),%edx
    286b:	52                   	push   %edx
    286c:	53                   	push   %ebx
    286d:	56                   	push   %esi
    286e:	50                   	push   %eax
    286f:	e8 6c 74 00 00       	call   9ce0 <usb_request_get_string>
    2874:	83 c4 20             	add    $0x20,%esp
    2877:	85 c0                	test   %eax,%eax
    2879:	74 0b                	je     2886 <dump_strings+0x1a6>
    287b:	3d d2 fe ff ff       	cmp    $0xfffffed2,%eax
    2880:	0f 85 92 00 00 00    	jne    2918 <dump_strings+0x238>
    2886:	bf e6 7a 01 00       	mov    $0x17ae6,%edi
    288b:	85 c0                	test   %eax,%eax
    288d:	75 03                	jne    2892 <dump_strings+0x1b2>
    288f:	8b 7d dc             	mov    -0x24(%ebp),%edi
    2892:	83 ec 0c             	sub    $0xc,%esp
    2895:	6a 01                	push   $0x1
    2897:	e8 34 ed ff ff       	call   15d0 <get_indent>
    289c:	57                   	push   %edi
    289d:	56                   	push   %esi
    289e:	50                   	push   %eax
    289f:	68 b0 45 01 00       	push   $0x145b0
    28a4:	e8 07 56 01 00       	call   17eb0 <printf@plt>
    28a9:	8b 45 dc             	mov    -0x24(%ebp),%eax
    28ac:	83 c4 20             	add    $0x20,%esp
    28af:	85 c0                	test   %eax,%eax
    28b1:	0f 84 79 ff ff ff    	je     2830 <dump_strings+0x150>
    28b7:	83 ec 0c             	sub    $0xc,%esp
    28ba:	46                   	inc    %esi
    28bb:	50                   	push   %eax
    28bc:	e8 af 5a 01 00       	call   18370 <free@plt>
    28c1:	83 c4 10             	add    $0x10,%esp
    28c4:	83 fe 40             	cmp    $0x40,%esi
    28c7:	0f 85 6d ff ff ff    	jne    283a <dump_strings+0x15a>
    28cd:	8d 76 00             	lea    0x0(%esi),%esi
    28d0:	8b 45 c4             	mov    -0x3c(%ebp),%eax
    28d3:	40                   	inc    %eax
    28d4:	89 45 c4             	mov    %eax,-0x3c(%ebp)
    28d7:	8b 45 c4             	mov    -0x3c(%ebp),%eax
    28da:	39 45 d8             	cmp    %eax,-0x28(%ebp)
    28dd:	0f 87 0d ff ff ff    	ja     27f0 <dump_strings+0x110>
    28e3:	8d 65 f4             	lea    -0xc(%ebp),%esp
    28e6:	5b                   	pop    %ebx
    28e7:	5e                   	pop    %esi
    28e8:	5f                   	pop    %edi
    28e9:	5d                   	pop    %ebp
    28ea:	c3                   	ret    
    28eb:	83 ec 0c             	sub    $0xc,%esp
    28ee:	50                   	push   %eax
    28ef:	e8 7c 59 01 00       	call   18270 <str_error@plt>
    28f4:	83 c4 0c             	add    $0xc,%esp
    28f7:	50                   	push   %eax
    28f8:	a1 b0 a6 01 00       	mov    0x1a6b0,%eax
    28fd:	68 4c 47 01 00       	push   $0x1474c
    2902:	50                   	push   %eax
    2903:	e8 b8 57 01 00       	call   180c0 <fprintf@plt>
    2908:	83 c4 10             	add    $0x10,%esp
    290b:	8d 65 f4             	lea    -0xc(%ebp),%esp
    290e:	5b                   	pop    %ebx
    290f:	5e                   	pop    %esi
    2910:	5f                   	pop    %edi
    2911:	5d                   	pop    %ebp
    2912:	c3                   	ret    
    2913:	90                   	nop
    2914:	8d 74 26 00          	lea    0x0(%esi,%eiz,1),%esi
    2918:	83 ec 0c             	sub    $0xc,%esp
    291b:	50                   	push   %eax
    291c:	e8 4f 59 01 00       	call   18270 <str_error@plt>
    2921:	c7 04 24 01 00 00 00 	movl   $0x1,(%esp)
    2928:	89 c7                	mov    %eax,%edi
    292a:	e8 a1 ec ff ff       	call   15d0 <get_indent>
    292f:	57                   	push   %edi
    2930:	56                   	push   %esi
    2931:	50                   	push   %eax
    2932:	68 88 47 01 00       	push   $0x14788
    2937:	e8 74 55 01 00       	call   17eb0 <printf@plt>
    293c:	83 c4 20             	add    $0x20,%esp
    293f:	e9 ec fe ff ff       	jmp    2830 <dump_strings+0x150>
    2944:	8d b6 00 00 00 00    	lea    0x0(%esi),%esi
    294a:	8d bf 00 00 00 00    	lea    0x0(%edi),%edi

00002950 <dump_status>:
    2950:	55                   	push   %ebp
    2951:	89 e5                	mov    %esp,%ebp
    2953:	57                   	push   %edi
    2954:	56                   	push   %esi
    2955:	53                   	push   %ebx
    2956:	83 ec 38             	sub    $0x38,%esp
    2959:	66 c7 45 e6 00 00    	movw   $0x0,-0x1a(%ebp)
    295f:	8b 55 08             	mov    0x8(%ebp),%edx
    2962:	8d 5d e6             	lea    -0x1a(%ebp),%ebx
    2965:	52                   	push   %edx
    2966:	e8 05 3e 00 00       	call   6770 <usb_device_get_default_pipe>
    296b:	53                   	push   %ebx
    296c:	6a 00                	push   $0x0
    296e:	6a 00                	push   $0x0
    2970:	50                   	push   %eax
    2971:	e8 5a 68 00 00       	call   91d0 <usb_request_get_status>
    2976:	83 c4 20             	add    $0x20,%esp
    2979:	85 c0                	test   %eax,%eax
    297b:	0f 85 d7 00 00 00    	jne    2a58 <dump_status+0x108>
    2981:	66 8b 45 e6          	mov    -0x1a(%ebp),%ax
    2985:	31 f6                	xor    %esi,%esi
    2987:	66 89 c6             	mov    %ax,%si
    298a:	ba c5 45 01 00       	mov    $0x145c5,%edx
    298f:	a8 02                	test   $0x2,%al
    2991:	0f 84 a9 00 00 00    	je     2a40 <dump_status+0xf0>
    2997:	bf cc 45 01 00       	mov    $0x145cc,%edi
    299c:	a8 01                	test   $0x1,%al
    299e:	0f 84 8c 00 00 00    	je     2a30 <dump_status+0xe0>
    29a4:	83 ec 0c             	sub    $0xc,%esp
    29a7:	89 55 d4             	mov    %edx,-0x2c(%ebp)
    29aa:	6a 00                	push   $0x0
    29ac:	e8 1f ec ff ff       	call   15d0 <get_indent>
    29b1:	8b 55 d4             	mov    -0x2c(%ebp),%edx
    29b4:	89 14 24             	mov    %edx,(%esp)
    29b7:	57                   	push   %edi
    29b8:	56                   	push   %esi
    29b9:	50                   	push   %eax
    29ba:	68 dc 47 01 00       	push   $0x147dc
    29bf:	e8 ec 54 01 00       	call   17eb0 <printf@plt>
    29c4:	83 c4 20             	add    $0x20,%esp
    29c7:	83 ec 0c             	sub    $0xc,%esp
    29ca:	8b 45 08             	mov    0x8(%ebp),%eax
    29cd:	66 c7 45 e6 00 00    	movw   $0x0,-0x1a(%ebp)
    29d3:	50                   	push   %eax
    29d4:	e8 97 3d 00 00       	call   6770 <usb_device_get_default_pipe>
    29d9:	53                   	push   %ebx
    29da:	6a 00                	push   $0x0
    29dc:	6a 02                	push   $0x2
    29de:	50                   	push   %eax
    29df:	e8 ec 67 00 00       	call   91d0 <usb_request_get_status>
    29e4:	83 c4 20             	add    $0x20,%esp
    29e7:	85 c0                	test   %eax,%eax
    29e9:	0f 85 99 00 00 00    	jne    2a88 <dump_status+0x138>
    29ef:	66 8b 45 e6          	mov    -0x1a(%ebp),%ax
    29f3:	31 f6                	xor    %esi,%esi
    29f5:	66 89 c6             	mov    %ax,%si
    29f8:	bb c5 45 01 00       	mov    $0x145c5,%ebx
    29fd:	a8 01                	test   $0x1,%al
    29ff:	74 27                	je     2a28 <dump_status+0xd8>
    2a01:	83 ec 0c             	sub    $0xc,%esp
    2a04:	6a 00                	push   $0x0
    2a06:	e8 c5 eb ff ff       	call   15d0 <get_indent>
    2a0b:	53                   	push   %ebx
    2a0c:	56                   	push   %esi
    2a0d:	50                   	push   %eax
    2a0e:	68 44 48 01 00       	push   $0x14844
    2a13:	e8 98 54 01 00       	call   17eb0 <printf@plt>
    2a18:	83 c4 20             	add    $0x20,%esp
    2a1b:	8d 65 f4             	lea    -0xc(%ebp),%esp
    2a1e:	5b                   	pop    %ebx
    2a1f:	5e                   	pop    %esi
    2a20:	5f                   	pop    %edi
    2a21:	5d                   	pop    %ebp
    2a22:	c3                   	ret    
    2a23:	90                   	nop
    2a24:	8d 74 26 00          	lea    0x0(%esi,%eiz,1),%esi
    2a28:	bb c9 45 01 00       	mov    $0x145c9,%ebx
    2a2d:	eb d2                	jmp    2a01 <dump_status+0xb1>
    2a2f:	90                   	nop
    2a30:	bf d1 45 01 00       	mov    $0x145d1,%edi
    2a35:	e9 6a ff ff ff       	jmp    29a4 <dump_status+0x54>
    2a3a:	8d b6 00 00 00 00    	lea    0x0(%esi),%esi
    2a40:	ba c9 45 01 00       	mov    $0x145c9,%edx
    2a45:	bf cc 45 01 00       	mov    $0x145cc,%edi
    2a4a:	a8 01                	test   $0x1,%al
    2a4c:	0f 85 52 ff ff ff    	jne    29a4 <dump_status+0x54>
    2a52:	eb dc                	jmp    2a30 <dump_status+0xe0>
    2a54:	8d 74 26 00          	lea    0x0(%esi,%eiz,1),%esi
    2a58:	83 ec 0c             	sub    $0xc,%esp
    2a5b:	50                   	push   %eax
    2a5c:	e8 0f 58 01 00       	call   18270 <str_error@plt>
    2a61:	c7 04 24 00 00 00 00 	movl   $0x0,(%esp)
    2a68:	89 c7                	mov    %eax,%edi
    2a6a:	e8 61 eb ff ff       	call   15d0 <get_indent>
    2a6f:	83 c4 0c             	add    $0xc,%esp
    2a72:	57                   	push   %edi
    2a73:	50                   	push   %eax
    2a74:	68 b8 47 01 00       	push   $0x147b8
    2a79:	e8 32 54 01 00       	call   17eb0 <printf@plt>
    2a7e:	83 c4 10             	add    $0x10,%esp
    2a81:	e9 41 ff ff ff       	jmp    29c7 <dump_status+0x77>
    2a86:	66 90                	xchg   %ax,%ax
    2a88:	83 ec 0c             	sub    $0xc,%esp
    2a8b:	50                   	push   %eax
    2a8c:	e8 df 57 01 00       	call   18270 <str_error@plt>
    2a91:	c7 04 24 00 00 00 00 	movl   $0x0,(%esp)
    2a98:	89 c3                	mov    %eax,%ebx
    2a9a:	e8 31 eb ff ff       	call   15d0 <get_indent>
    2a9f:	83 c4 0c             	add    $0xc,%esp
    2aa2:	53                   	push   %ebx
    2aa3:	50                   	push   %eax
    2aa4:	68 14 48 01 00       	push   $0x14814
    2aa9:	e8 02 54 01 00       	call   17eb0 <printf@plt>
    2aae:	83 c4 10             	add    $0x10,%esp
    2ab1:	8d 65 f4             	lea    -0xc(%ebp),%esp
    2ab4:	5b                   	pop    %ebx
    2ab5:	5e                   	pop    %esi
    2ab6:	5f                   	pop    %edi
    2ab7:	5d                   	pop    %ebp
    2ab8:	c3                   	ret    
    2ab9:	66 90                	xchg   %ax,%ax
    2abb:	66 90                	xchg   %ax,%ax
    2abd:	66 90                	xchg   %ax,%ax
    2abf:	90                   	nop

00002ac0 <print_usb_bus>:
    2ac0:	55                   	push   %ebp
    2ac1:	89 e5                	mov    %esp,%ebp
    2ac3:	57                   	push   %edi
    2ac4:	56                   	push   %esi
    2ac5:	53                   	push   %ebx
    2ac6:	81 ec 44 08 00 00    	sub    $0x844,%esp
    2acc:	89 c3                	mov    %eax,%ebx
    2ace:	8d 85 c8 f7 ff ff    	lea    -0x838(%ebp),%eax
    2ad4:	c7 85 c8 f7 ff ff 00 	movl   $0x0,-0x838(%ebp)
    2adb:	00 00 00 
    2ade:	50                   	push   %eax
    2adf:	53                   	push   %ebx
    2ae0:	e8 eb 53 01 00       	call   17ed0 <devman_fun_sid_to_handle@plt>
    2ae5:	83 c4 10             	add    $0x10,%esp
    2ae8:	85 c0                	test   %eax,%eax
    2aea:	74 1c                	je     2b08 <print_usb_bus+0x48>
    2aec:	50                   	push   %eax
    2aed:	50                   	push   %eax
    2aee:	53                   	push   %ebx
    2aef:	68 70 4a 01 00       	push   $0x14a70
    2af4:	e8 b7 53 01 00       	call   17eb0 <printf@plt>
    2af9:	83 c4 10             	add    $0x10,%esp
    2afc:	8d 65 f4             	lea    -0xc(%ebp),%esp
    2aff:	5b                   	pop    %ebx
    2b00:	5e                   	pop    %esi
    2b01:	5f                   	pop    %edi
    2b02:	5d                   	pop    %ebp
    2b03:	c3                   	ret    
    2b04:	8d 74 26 00          	lea    0x0(%esi,%eiz,1),%esi
    2b08:	8b bd c8 f7 ff ff    	mov    -0x838(%ebp),%edi
    2b0e:	56                   	push   %esi
    2b0f:	8d b5 e8 f7 ff ff    	lea    -0x818(%ebp),%esi
    2b15:	68 00 04 00 00       	push   $0x400
    2b1a:	56                   	push   %esi
    2b1b:	57                   	push   %edi
    2b1c:	e8 6f 57 01 00       	call   18290 <devman_fun_get_path@plt>
    2b21:	83 c4 10             	add    $0x10,%esp
    2b24:	85 c0                	test   %eax,%eax
    2b26:	74 18                	je     2b40 <print_usb_bus+0x80>
    2b28:	51                   	push   %ecx
    2b29:	51                   	push   %ecx
    2b2a:	53                   	push   %ebx
    2b2b:	68 b0 4a 01 00       	push   $0x14ab0
    2b30:	e8 7b 53 01 00       	call   17eb0 <printf@plt>
    2b35:	83 c4 10             	add    $0x10,%esp
    2b38:	8d 65 f4             	lea    -0xc(%ebp),%esp
    2b3b:	5b                   	pop    %ebx
    2b3c:	5e                   	pop    %esi
    2b3d:	5f                   	pop    %edi
    2b3e:	5d                   	pop    %ebp
    2b3f:	c3                   	ret    
    2b40:	50                   	push   %eax
    2b41:	56                   	push   %esi
    2b42:	53                   	push   %ebx
    2b43:	68 2e 4c 01 00       	push   $0x14c2e
    2b48:	e8 63 53 01 00       	call   17eb0 <printf@plt>
    2b4d:	83 c4 0c             	add    $0xc,%esp
    2b50:	8b 95 c8 f7 ff ff    	mov    -0x838(%ebp),%edx
    2b56:	8d bd de f7 ff ff    	lea    -0x822(%ebp),%edi
    2b5c:	6a 0a                	push   $0xa
    2b5e:	57                   	push   %edi
    2b5f:	52                   	push   %edx
    2b60:	e8 1b 58 01 00       	call   18380 <devman_fun_get_name@plt>
    2b65:	83 c4 10             	add    $0x10,%esp
    2b68:	85 c0                	test   %eax,%eax
    2b6a:	0f 85 18 01 00 00    	jne    2c88 <print_usb_bus+0x1c8>
    2b70:	83 ec 0c             	sub    $0xc,%esp
    2b73:	56                   	push   %esi
    2b74:	e8 b7 56 01 00       	call   18230 <str_size@plt>
    2b79:	89 3c 24             	mov    %edi,(%esp)
    2b7c:	89 85 c4 f7 ff ff    	mov    %eax,-0x83c(%ebp)
    2b82:	e8 a9 56 01 00       	call   18230 <str_size@plt>
    2b87:	8b 95 c4 f7 ff ff    	mov    -0x83c(%ebp),%edx
    2b8d:	4a                   	dec    %edx
    2b8e:	83 c4 0c             	add    $0xc,%esp
    2b91:	29 c2                	sub    %eax,%edx
    2b93:	8d 85 cc f7 ff ff    	lea    -0x834(%ebp),%eax
    2b99:	6a 01                	push   $0x1
    2b9b:	50                   	push   %eax
    2b9c:	c6 84 15 e8 f7 ff ff 	movb   $0x0,-0x818(%ebp,%edx,1)
    2ba3:	00 
    2ba4:	56                   	push   %esi
    2ba5:	e8 d6 56 01 00       	call   18280 <devman_fun_get_handle@plt>
    2baa:	83 c4 10             	add    $0x10,%esp
    2bad:	85 c0                	test   %eax,%eax
    2baf:	0f 85 eb 00 00 00    	jne    2ca0 <print_usb_bus+0x1e0>
    2bb5:	50                   	push   %eax
    2bb6:	50                   	push   %eax
    2bb7:	8d 85 d0 f7 ff ff    	lea    -0x830(%ebp),%eax
    2bbd:	50                   	push   %eax
    2bbe:	8b 85 cc f7 ff ff    	mov    -0x834(%ebp),%eax
    2bc4:	50                   	push   %eax
    2bc5:	e8 76 57 01 00       	call   18340 <devman_fun_get_child@plt>
    2bca:	83 c4 10             	add    $0x10,%esp
    2bcd:	85 c0                	test   %eax,%eax
    2bcf:	0f 85 cb 00 00 00    	jne    2ca0 <print_usb_bus+0x1e0>
    2bd5:	8d 85 d8 f7 ff ff    	lea    -0x828(%ebp),%eax
    2bdb:	57                   	push   %edi
    2bdc:	50                   	push   %eax
    2bdd:	8d 85 d4 f7 ff ff    	lea    -0x82c(%ebp),%eax
    2be3:	50                   	push   %eax
    2be4:	8b 85 d0 f7 ff ff    	mov    -0x830(%ebp),%eax
    2bea:	50                   	push   %eax
    2beb:	c7 85 d4 f7 ff ff 00 	movl   $0x0,-0x82c(%ebp)
    2bf2:	00 00 00 
    2bf5:	e8 76 52 01 00       	call   17e70 <devman_dev_get_functions@plt>
    2bfa:	83 c4 10             	add    $0x10,%esp
    2bfd:	85 c0                	test   %eax,%eax
    2bff:	0f 85 c4 00 00 00    	jne    2cc9 <print_usb_bus+0x209>
    2c05:	8b 95 d8 f7 ff ff    	mov    -0x828(%ebp),%edx
    2c0b:	31 db                	xor    %ebx,%ebx
    2c0d:	8b 85 d4 f7 ff ff    	mov    -0x82c(%ebp),%eax
    2c13:	8d bd e8 fb ff ff    	lea    -0x418(%ebp),%edi
    2c19:	85 d2                	test   %edx,%edx
    2c1b:	75 2c                	jne    2c49 <print_usb_bus+0x189>
    2c1d:	e9 96 00 00 00       	jmp    2cb8 <print_usb_bus+0x1f8>
    2c22:	8d b6 00 00 00 00    	lea    0x0(%esi),%esi
    2c28:	50                   	push   %eax
    2c29:	57                   	push   %edi
    2c2a:	56                   	push   %esi
    2c2b:	68 3a 4c 01 00       	push   $0x14c3a
    2c30:	e8 7b 52 01 00       	call   17eb0 <printf@plt>
    2c35:	8b 95 d8 f7 ff ff    	mov    -0x828(%ebp),%edx
    2c3b:	8b 85 d4 f7 ff ff    	mov    -0x82c(%ebp),%eax
    2c41:	83 c4 10             	add    $0x10,%esp
    2c44:	43                   	inc    %ebx
    2c45:	39 d3                	cmp    %edx,%ebx
    2c47:	73 6f                	jae    2cb8 <print_usb_bus+0x1f8>
    2c49:	8b 34 98             	mov    (%eax,%ebx,4),%esi
    2c4c:	3b b5 c8 f7 ff ff    	cmp    -0x838(%ebp),%esi
    2c52:	74 f0                	je     2c44 <print_usb_bus+0x184>
    2c54:	51                   	push   %ecx
    2c55:	68 00 04 00 00       	push   $0x400
    2c5a:	57                   	push   %edi
    2c5b:	56                   	push   %esi
    2c5c:	e8 2f 56 01 00       	call   18290 <devman_fun_get_path@plt>
    2c61:	83 c4 10             	add    $0x10,%esp
    2c64:	85 c0                	test   %eax,%eax
    2c66:	74 c0                	je     2c28 <print_usb_bus+0x168>
    2c68:	52                   	push   %edx
    2c69:	52                   	push   %edx
    2c6a:	56                   	push   %esi
    2c6b:	68 a8 4b 01 00       	push   $0x14ba8
    2c70:	e8 3b 52 01 00       	call   17eb0 <printf@plt>
    2c75:	8b 95 d8 f7 ff ff    	mov    -0x828(%ebp),%edx
    2c7b:	8b 85 d4 f7 ff ff    	mov    -0x82c(%ebp),%eax
    2c81:	83 c4 10             	add    $0x10,%esp
    2c84:	eb be                	jmp    2c44 <print_usb_bus+0x184>
    2c86:	66 90                	xchg   %ax,%ax
    2c88:	50                   	push   %eax
    2c89:	50                   	push   %eax
    2c8a:	53                   	push   %ebx
    2c8b:	68 ec 4a 01 00       	push   $0x14aec
    2c90:	e8 1b 52 01 00       	call   17eb0 <printf@plt>
    2c95:	83 c4 10             	add    $0x10,%esp
    2c98:	8d 65 f4             	lea    -0xc(%ebp),%esp
    2c9b:	5b                   	pop    %ebx
    2c9c:	5e                   	pop    %esi
    2c9d:	5f                   	pop    %edi
    2c9e:	5d                   	pop    %ebp
    2c9f:	c3                   	ret    
    2ca0:	50                   	push   %eax
    2ca1:	50                   	push   %eax
    2ca2:	53                   	push   %ebx
    2ca3:	68 28 4b 01 00       	push   $0x14b28
    2ca8:	e8 03 52 01 00       	call   17eb0 <printf@plt>
    2cad:	83 c4 10             	add    $0x10,%esp
    2cb0:	e9 47 fe ff ff       	jmp    2afc <print_usb_bus+0x3c>
    2cb5:	8d 76 00             	lea    0x0(%esi),%esi
    2cb8:	83 ec 0c             	sub    $0xc,%esp
    2cbb:	50                   	push   %eax
    2cbc:	e8 af 56 01 00       	call   18370 <free@plt>
    2cc1:	83 c4 10             	add    $0x10,%esp
    2cc4:	e9 33 fe ff ff       	jmp    2afc <print_usb_bus+0x3c>
    2cc9:	56                   	push   %esi
    2cca:	56                   	push   %esi
    2ccb:	53                   	push   %ebx
    2ccc:	68 70 4b 01 00       	push   $0x14b70
    2cd1:	e8 da 51 01 00       	call   17eb0 <printf@plt>
    2cd6:	83 c4 10             	add    $0x10,%esp
    2cd9:	e9 1e fe ff ff       	jmp    2afc <print_usb_bus+0x3c>
    2cde:	66 90                	xchg   %ax,%ax

00002ce0 <list>:
    2ce0:	55                   	push   %ebp
    2ce1:	89 e5                	mov    %esp,%ebp
    2ce3:	53                   	push   %ebx
    2ce4:	83 ec 18             	sub    $0x18,%esp
    2ce7:	8d 45 ec             	lea    -0x14(%ebp),%eax
    2cea:	6a 00                	push   $0x0
    2cec:	50                   	push   %eax
    2ced:	68 4a 4c 01 00       	push   $0x14c4a
    2cf2:	e8 59 51 01 00       	call   17e50 <loc_category_get_id@plt>
    2cf7:	83 c4 10             	add    $0x10,%esp
    2cfa:	85 c0                	test   %eax,%eax
    2cfc:	74 1a                	je     2d18 <list+0x38>
    2cfe:	50                   	push   %eax
    2cff:	50                   	push   %eax
    2d00:	68 4a 4c 01 00       	push   $0x14c4a
    2d05:	68 d4 4b 01 00       	push   $0x14bd4
    2d0a:	e8 a1 51 01 00       	call   17eb0 <printf@plt>
    2d0f:	83 c4 10             	add    $0x10,%esp
    2d12:	8b 5d fc             	mov    -0x4(%ebp),%ebx
    2d15:	c9                   	leave  
    2d16:	c3                   	ret    
    2d17:	90                   	nop
    2d18:	8d 45 f4             	lea    -0xc(%ebp),%eax
    2d1b:	8b 5d ec             	mov    -0x14(%ebp),%ebx
    2d1e:	51                   	push   %ecx
    2d1f:	50                   	push   %eax
    2d20:	8d 45 f0             	lea    -0x10(%ebp),%eax
    2d23:	50                   	push   %eax
    2d24:	53                   	push   %ebx
    2d25:	e8 e6 54 01 00       	call   18210 <loc_category_get_svcs@plt>
    2d2a:	83 c4 10             	add    $0x10,%esp
    2d2d:	85 c0                	test   %eax,%eax
    2d2f:	75 37                	jne    2d68 <list+0x88>
    2d31:	8b 55 f4             	mov    -0xc(%ebp),%edx
    2d34:	31 db                	xor    %ebx,%ebx
    2d36:	85 d2                	test   %edx,%edx
    2d38:	74 17                	je     2d51 <list+0x71>
    2d3a:	8d b6 00 00 00 00    	lea    0x0(%esi),%esi
    2d40:	8b 45 f0             	mov    -0x10(%ebp),%eax
    2d43:	8b 04 98             	mov    (%eax,%ebx,4),%eax
    2d46:	43                   	inc    %ebx
    2d47:	e8 74 fd ff ff       	call   2ac0 <print_usb_bus>
    2d4c:	39 5d f4             	cmp    %ebx,-0xc(%ebp)
    2d4f:	77 ef                	ja     2d40 <list+0x60>
    2d51:	83 ec 0c             	sub    $0xc,%esp
    2d54:	8b 45 f0             	mov    -0x10(%ebp),%eax
    2d57:	50                   	push   %eax
    2d58:	e8 13 56 01 00       	call   18370 <free@plt>
    2d5d:	83 c4 10             	add    $0x10,%esp
    2d60:	8b 5d fc             	mov    -0x4(%ebp),%ebx
    2d63:	c9                   	leave  
    2d64:	c3                   	ret    
    2d65:	8d 76 00             	lea    0x0(%esi),%esi
    2d68:	83 ec 0c             	sub    $0xc,%esp
    2d6b:	68 fc 4b 01 00       	push   $0x14bfc
    2d70:	e8 3b 51 01 00       	call   17eb0 <printf@plt>
    2d75:	83 c4 10             	add    $0x10,%esp
    2d78:	8b 5d fc             	mov    -0x4(%ebp),%ebx
    2d7b:	c9                   	leave  
    2d7c:	c3                   	ret    
    2d7d:	66 90                	xchg   %ax,%ax
    2d7f:	90                   	nop

00002d80 <print_usage>:
    2d80:	55                   	push   %ebp
    2d81:	89 e5                	mov    %esp,%ebp
    2d83:	53                   	push   %ebx
    2d84:	83 ec 10             	sub    $0x10,%esp
    2d87:	89 c3                	mov    %eax,%ebx
    2d89:	68 50 4c 01 00       	push   $0x14c50
    2d8e:	e8 1d 51 01 00       	call   17eb0 <printf@plt>
    2d93:	58                   	pop    %eax
    2d94:	5a                   	pop    %edx
    2d95:	53                   	push   %ebx
    2d96:	68 80 4c 01 00       	push   $0x14c80
    2d9b:	e8 10 51 01 00       	call   17eb0 <printf@plt>
    2da0:	c7 04 24 b8 4c 01 00 	movl   $0x14cb8,(%esp)
    2da7:	e8 04 51 01 00       	call   17eb0 <printf@plt>
    2dac:	c7 04 24 e8 4c 01 00 	movl   $0x14ce8,(%esp)
    2db3:	e8 f8 50 01 00       	call   17eb0 <printf@plt>
    2db8:	c7 04 24 28 4d 01 00 	movl   $0x14d28,(%esp)
    2dbf:	e8 ec 50 01 00       	call   17eb0 <printf@plt>
    2dc4:	c7 04 24 64 4d 01 00 	movl   $0x14d64,(%esp)
    2dcb:	e8 e0 50 01 00       	call   17eb0 <printf@plt>
    2dd0:	c7 04 24 9c 4d 01 00 	movl   $0x14d9c,(%esp)
    2dd7:	e8 d4 50 01 00       	call   17eb0 <printf@plt>
    2ddc:	c7 04 24 e8 4d 01 00 	movl   $0x14de8,(%esp)
    2de3:	e8 c8 50 01 00       	call   17eb0 <printf@plt>
    2de8:	c7 04 24 2c 4e 01 00 	movl   $0x14e2c,(%esp)
    2def:	e8 bc 50 01 00       	call   17eb0 <printf@plt>
    2df4:	c7 04 24 78 4e 01 00 	movl   $0x14e78,(%esp)
    2dfb:	e8 b0 50 01 00       	call   17eb0 <printf@plt>
    2e00:	c7 04 24 b8 4e 01 00 	movl   $0x14eb8,(%esp)
    2e07:	e8 a4 50 01 00       	call   17eb0 <printf@plt>
    2e0c:	c7 04 24 04 4f 01 00 	movl   $0x14f04,(%esp)
    2e13:	e8 98 50 01 00       	call   17eb0 <printf@plt>
    2e18:	c7 04 24 4c 4f 01 00 	movl   $0x14f4c,(%esp)
    2e1f:	e8 8c 50 01 00       	call   17eb0 <printf@plt>
    2e24:	c7 04 24 88 4f 01 00 	movl   $0x14f88,(%esp)
    2e2b:	e8 80 50 01 00       	call   17eb0 <printf@plt>
    2e30:	c7 04 24 c8 4f 01 00 	movl   $0x14fc8,(%esp)
    2e37:	e8 74 50 01 00       	call   17eb0 <printf@plt>
    2e3c:	c7 04 24 e5 7a 01 00 	movl   $0x17ae5,(%esp)
    2e43:	e8 68 50 01 00       	call   17eb0 <printf@plt>
    2e48:	c7 04 24 10 50 01 00 	movl   $0x15010,(%esp)
    2e4f:	e8 5c 50 01 00       	call   17eb0 <printf@plt>
    2e54:	c7 04 24 e5 7a 01 00 	movl   $0x17ae5,(%esp)
    2e5b:	e8 50 50 01 00       	call   17eb0 <printf@plt>
    2e60:	83 c4 10             	add    $0x10,%esp
    2e63:	8b 5d fc             	mov    -0x4(%ebp),%ebx
    2e66:	c9                   	leave  
    2e67:	c3                   	ret    
    2e68:	66 90                	xchg   %ax,%ax
    2e6a:	66 90                	xchg   %ax,%ax
    2e6c:	66 90                	xchg   %ax,%ax
    2e6e:	66 90                	xchg   %ax,%ax

00002e70 <main>:
    2e70:	8d 4c 24 04          	lea    0x4(%esp),%ecx
    2e74:	83 e4 f0             	and    $0xfffffff0,%esp
    2e77:	ff 71 fc             	pushl  -0x4(%ecx)
    2e7a:	55                   	push   %ebp
    2e7b:	89 e5                	mov    %esp,%ebp
    2e7d:	57                   	push   %edi
    2e7e:	56                   	push   %esi
    2e7f:	53                   	push   %ebx
    2e80:	51                   	push   %ecx
    2e81:	83 ec 28             	sub    $0x28,%esp
    2e84:	8b 19                	mov    (%ecx),%ebx
    2e86:	8b 71 04             	mov    0x4(%ecx),%esi
    2e89:	83 fb 01             	cmp    $0x1,%ebx
    2e8c:	0f 8e c5 03 00 00    	jle    3257 <main+0x3e7>
    2e92:	31 ff                	xor    %edi,%edi
    2e94:	83 ec 0c             	sub    $0xc,%esp
    2e97:	6a 00                	push   $0x0
    2e99:	68 00 a4 01 00       	push   $0x1a400
    2e9e:	68 86 50 01 00       	push   $0x15086
    2ea3:	56                   	push   %esi
    2ea4:	53                   	push   %ebx
    2ea5:	e8 66 50 01 00       	call   17f10 <getopt_long@plt>
    2eaa:	83 c4 20             	add    $0x20,%esp
    2ead:	83 f8 3f             	cmp    $0x3f,%eax
    2eb0:	0f 84 57 02 00 00    	je     310d <main+0x29d>
    2eb6:	7e 20                	jle    2ed8 <main+0x68>
    2eb8:	83 f8 68             	cmp    $0x68,%eax
    2ebb:	0f 84 37 02 00 00    	je     30f8 <main+0x288>
    2ec1:	83 f8 6c             	cmp    $0x6c,%eax
    2ec4:	0f 85 6c 01 00 00    	jne    3036 <main+0x1c6>
    2eca:	e8 11 fe ff ff       	call   2ce0 <list>
    2ecf:	eb c3                	jmp    2e94 <main+0x24>
    2ed1:	8d b4 26 00 00 00 00 	lea    0x0(%esi,%eiz,1),%esi
    2ed8:	83 f8 ff             	cmp    $0xffffffff,%eax
    2edb:	0f 85 55 01 00 00    	jne    3036 <main+0x1c6>
    2ee1:	89 f8                	mov    %edi,%eax
    2ee3:	84 c0                	test   %al,%al
    2ee5:	75 07                	jne    2eee <main+0x7e>
    2ee7:	c6 05 88 a3 01 00 01 	movb   $0x1,0x1a388
    2eee:	a1 a4 a6 01 00       	mov    0x1a6a4,%eax
    2ef3:	89 45 d4             	mov    %eax,-0x2c(%ebp)
    2ef6:	39 5d d4             	cmp    %ebx,-0x2c(%ebp)
    2ef9:	0f 8d 04 03 00 00    	jge    3203 <main+0x393>
    2eff:	8b 45 d4             	mov    -0x2c(%ebp),%eax
    2f02:	c7 45 e4 00 00 00 00 	movl   $0x0,-0x1c(%ebp)
    2f09:	8b 3c 86             	mov    (%esi,%eax,4),%edi
    2f0c:	8d 45 e4             	lea    -0x1c(%ebp),%eax
    2f0f:	51                   	push   %ecx
    2f10:	51                   	push   %ecx
    2f11:	50                   	push   %eax
    2f12:	57                   	push   %edi
    2f13:	e8 88 75 00 00       	call   a4a0 <usb_resolve_device_handle>
    2f18:	83 c4 10             	add    $0x10,%esp
    2f1b:	85 c0                	test   %eax,%eax
    2f1d:	0f 85 f8 01 00 00    	jne    311b <main+0x2ab>
    2f23:	83 ec 0c             	sub    $0xc,%esp
    2f26:	ff 75 e4             	pushl  -0x1c(%ebp)
    2f29:	e8 12 3f 00 00       	call   6e40 <usb_device_create>
    2f2e:	83 c4 10             	add    $0x10,%esp
    2f31:	85 c0                	test   %eax,%eax
    2f33:	0f 84 e2 01 00 00    	je     311b <main+0x2ab>
    2f39:	89 45 d0             	mov    %eax,-0x30(%ebp)
    2f3c:	50                   	push   %eax
    2f3d:	50                   	push   %eax
    2f3e:	57                   	push   %edi
    2f3f:	68 46 4c 01 00       	push   $0x14c46
    2f44:	e8 67 4f 01 00       	call   17eb0 <printf@plt>
    2f49:	83 c4 10             	add    $0x10,%esp
    2f4c:	8b 4d d0             	mov    -0x30(%ebp),%ecx
    2f4f:	83 3d 80 a3 01 00 00 	cmpl   $0x0,0x1a380
    2f56:	0f 84 dc 01 00 00    	je     3138 <main+0x2c8>
    2f5c:	80 3d 88 a3 01 00 00 	cmpb   $0x0,0x1a388
    2f63:	0f 85 f5 01 00 00    	jne    315e <main+0x2ee>
    2f69:	83 3d 8c a3 01 00 00 	cmpl   $0x0,0x1a38c
    2f70:	0f 84 c2 01 00 00    	je     3138 <main+0x2c8>
    2f76:	80 3d 94 a3 01 00 00 	cmpb   $0x0,0x1a394
    2f7d:	0f 85 08 02 00 00    	jne    318b <main+0x31b>
    2f83:	83 3d 98 a3 01 00 00 	cmpl   $0x0,0x1a398
    2f8a:	0f 84 a8 01 00 00    	je     3138 <main+0x2c8>
    2f90:	80 3d a0 a3 01 00 00 	cmpb   $0x0,0x1a3a0
    2f97:	0f 85 d6 01 00 00    	jne    3173 <main+0x303>
    2f9d:	83 3d a4 a3 01 00 00 	cmpl   $0x0,0x1a3a4
    2fa4:	0f 84 8e 01 00 00    	je     3138 <main+0x2c8>
    2faa:	80 3d ac a3 01 00 00 	cmpb   $0x0,0x1a3ac
    2fb1:	0f 85 34 02 00 00    	jne    31eb <main+0x37b>
    2fb7:	83 3d b0 a3 01 00 00 	cmpl   $0x0,0x1a3b0
    2fbe:	0f 84 74 01 00 00    	je     3138 <main+0x2c8>
    2fc4:	80 3d b8 a3 01 00 00 	cmpb   $0x0,0x1a3b8
    2fcb:	0f 85 02 02 00 00    	jne    31d3 <main+0x363>
    2fd1:	83 3d bc a3 01 00 00 	cmpl   $0x0,0x1a3bc
    2fd8:	0f 84 5a 01 00 00    	je     3138 <main+0x2c8>
    2fde:	80 3d c4 a3 01 00 00 	cmpb   $0x0,0x1a3c4
    2fe5:	0f 85 d0 01 00 00    	jne    31bb <main+0x34b>
    2feb:	83 3d c8 a3 01 00 00 	cmpl   $0x0,0x1a3c8
    2ff2:	0f 84 40 01 00 00    	je     3138 <main+0x2c8>
    2ff8:	80 3d d0 a3 01 00 00 	cmpb   $0x0,0x1a3d0
    2fff:	0f 85 9e 01 00 00    	jne    31a3 <main+0x333>
    3005:	83 3d d4 a3 01 00 00 	cmpl   $0x0,0x1a3d4
    300c:	0f 84 26 01 00 00    	je     3138 <main+0x2c8>
    3012:	80 3d dc a3 01 00 00 	cmpb   $0x0,0x1a3dc
    3019:	0f 85 27 01 00 00    	jne    3146 <main+0x2d6>
    301f:	83 3d e0 a3 01 00 00 	cmpl   $0x0,0x1a3e0
    3026:	0f 84 0c 01 00 00    	je     3138 <main+0x2c8>
    302c:	83 ec 0c             	sub    $0xc,%esp
    302f:	51                   	push   %ecx
    3030:	ff 15 e4 a3 01 00    	call   *0x1a3e4
    3036:	8b 15 80 a3 01 00    	mov    0x1a380,%edx
    303c:	85 d2                	test   %edx,%edx
    303e:	0f 84 a7 00 00 00    	je     30eb <main+0x27b>
    3044:	39 d0                	cmp    %edx,%eax
    3046:	0f 84 be 01 00 00    	je     320a <main+0x39a>
    304c:	8b 15 8c a3 01 00    	mov    0x1a38c,%edx
    3052:	85 d2                	test   %edx,%edx
    3054:	0f 84 91 00 00 00    	je     30eb <main+0x27b>
    305a:	39 d0                	cmp    %edx,%eax
    305c:	0f 84 af 01 00 00    	je     3211 <main+0x3a1>
    3062:	8b 15 98 a3 01 00    	mov    0x1a398,%edx
    3068:	85 d2                	test   %edx,%edx
    306a:	74 7f                	je     30eb <main+0x27b>
    306c:	39 d0                	cmp    %edx,%eax
    306e:	0f 84 a7 01 00 00    	je     321b <main+0x3ab>
    3074:	8b 15 a4 a3 01 00    	mov    0x1a3a4,%edx
    307a:	85 d2                	test   %edx,%edx
    307c:	74 6d                	je     30eb <main+0x27b>
    307e:	39 d0                	cmp    %edx,%eax
    3080:	0f 84 9f 01 00 00    	je     3225 <main+0x3b5>
    3086:	8b 15 b0 a3 01 00    	mov    0x1a3b0,%edx
    308c:	85 d2                	test   %edx,%edx
    308e:	74 5b                	je     30eb <main+0x27b>
    3090:	39 d0                	cmp    %edx,%eax
    3092:	0f 84 97 01 00 00    	je     322f <main+0x3bf>
    3098:	8b 15 bc a3 01 00    	mov    0x1a3bc,%edx
    309e:	85 d2                	test   %edx,%edx
    30a0:	74 49                	je     30eb <main+0x27b>
    30a2:	39 d0                	cmp    %edx,%eax
    30a4:	0f 84 8f 01 00 00    	je     3239 <main+0x3c9>
    30aa:	8b 15 c8 a3 01 00    	mov    0x1a3c8,%edx
    30b0:	85 d2                	test   %edx,%edx
    30b2:	74 37                	je     30eb <main+0x27b>
    30b4:	39 d0                	cmp    %edx,%eax
    30b6:	0f 84 87 01 00 00    	je     3243 <main+0x3d3>
    30bc:	8b 15 d4 a3 01 00    	mov    0x1a3d4,%edx
    30c2:	85 d2                	test   %edx,%edx
    30c4:	74 25                	je     30eb <main+0x27b>
    30c6:	39 d0                	cmp    %edx,%eax
    30c8:	0f 84 7f 01 00 00    	je     324d <main+0x3dd>
    30ce:	ba 08 00 00 00       	mov    $0x8,%edx
    30d3:	83 3d e0 a3 01 00 00 	cmpl   $0x0,0x1a3e0
    30da:	74 0f                	je     30eb <main+0x27b>
    30dc:	6b d2 0c             	imul   $0xc,%edx,%edx
    30df:	bf 01 00 00 00       	mov    $0x1,%edi
    30e4:	c6 82 88 a3 01 00 01 	movb   $0x1,0x1a388(%edx)
    30eb:	85 c0                	test   %eax,%eax
    30ed:	0f 8f a1 fd ff ff    	jg     2e94 <main+0x24>
    30f3:	e9 e9 fd ff ff       	jmp    2ee1 <main+0x71>
    30f8:	8b 06                	mov    (%esi),%eax
    30fa:	e8 81 fc ff ff       	call   2d80 <print_usage>
    30ff:	31 c0                	xor    %eax,%eax
    3101:	8d 65 f0             	lea    -0x10(%ebp),%esp
    3104:	59                   	pop    %ecx
    3105:	5b                   	pop    %ebx
    3106:	5e                   	pop    %esi
    3107:	5f                   	pop    %edi
    3108:	5d                   	pop    %ebp
    3109:	8d 61 fc             	lea    -0x4(%ecx),%esp
    310c:	c3                   	ret    
    310d:	8b 06                	mov    (%esi),%eax
    310f:	e8 6c fc ff ff       	call   2d80 <print_usage>
    3114:	b8 01 00 00 00       	mov    $0x1,%eax
    3119:	eb e6                	jmp    3101 <main+0x291>
    311b:	52                   	push   %edx
    311c:	57                   	push   %edi
    311d:	68 48 50 01 00       	push   $0x15048
    3122:	ff 35 b0 a6 01 00    	pushl  0x1a6b0
    3128:	e8 93 4f 01 00       	call   180c0 <fprintf@plt>
    312d:	83 c4 10             	add    $0x10,%esp
    3130:	ff 45 d4             	incl   -0x2c(%ebp)
    3133:	e9 be fd ff ff       	jmp    2ef6 <main+0x86>
    3138:	83 ec 0c             	sub    $0xc,%esp
    313b:	51                   	push   %ecx
    313c:	e8 ff 3e 00 00       	call   7040 <usb_device_destroy>
    3141:	83 c4 10             	add    $0x10,%esp
    3144:	eb ea                	jmp    3130 <main+0x2c0>
    3146:	83 ec 0c             	sub    $0xc,%esp
    3149:	89 4d d0             	mov    %ecx,-0x30(%ebp)
    314c:	51                   	push   %ecx
    314d:	ff 15 d8 a3 01 00    	call   *0x1a3d8
    3153:	83 c4 10             	add    $0x10,%esp
    3156:	8b 4d d0             	mov    -0x30(%ebp),%ecx
    3159:	e9 c1 fe ff ff       	jmp    301f <main+0x1af>
    315e:	83 ec 0c             	sub    $0xc,%esp
    3161:	51                   	push   %ecx
    3162:	ff 15 84 a3 01 00    	call   *0x1a384
    3168:	83 c4 10             	add    $0x10,%esp
    316b:	8b 4d d0             	mov    -0x30(%ebp),%ecx
    316e:	e9 f6 fd ff ff       	jmp    2f69 <main+0xf9>
    3173:	83 ec 0c             	sub    $0xc,%esp
    3176:	89 4d d0             	mov    %ecx,-0x30(%ebp)
    3179:	51                   	push   %ecx
    317a:	ff 15 9c a3 01 00    	call   *0x1a39c
    3180:	83 c4 10             	add    $0x10,%esp
    3183:	8b 4d d0             	mov    -0x30(%ebp),%ecx
    3186:	e9 12 fe ff ff       	jmp    2f9d <main+0x12d>
    318b:	83 ec 0c             	sub    $0xc,%esp
    318e:	89 4d d0             	mov    %ecx,-0x30(%ebp)
    3191:	51                   	push   %ecx
    3192:	ff 15 90 a3 01 00    	call   *0x1a390
    3198:	83 c4 10             	add    $0x10,%esp
    319b:	8b 4d d0             	mov    -0x30(%ebp),%ecx
    319e:	e9 e0 fd ff ff       	jmp    2f83 <main+0x113>
    31a3:	83 ec 0c             	sub    $0xc,%esp
    31a6:	89 4d d0             	mov    %ecx,-0x30(%ebp)
    31a9:	51                   	push   %ecx
    31aa:	ff 15 cc a3 01 00    	call   *0x1a3cc
    31b0:	83 c4 10             	add    $0x10,%esp
    31b3:	8b 4d d0             	mov    -0x30(%ebp),%ecx
    31b6:	e9 4a fe ff ff       	jmp    3005 <main+0x195>
    31bb:	83 ec 0c             	sub    $0xc,%esp
    31be:	89 4d d0             	mov    %ecx,-0x30(%ebp)
    31c1:	51                   	push   %ecx
    31c2:	ff 15 c0 a3 01 00    	call   *0x1a3c0
    31c8:	83 c4 10             	add    $0x10,%esp
    31cb:	8b 4d d0             	mov    -0x30(%ebp),%ecx
    31ce:	e9 18 fe ff ff       	jmp    2feb <main+0x17b>
    31d3:	83 ec 0c             	sub    $0xc,%esp
    31d6:	89 4d d0             	mov    %ecx,-0x30(%ebp)
    31d9:	51                   	push   %ecx
    31da:	ff 15 b4 a3 01 00    	call   *0x1a3b4
    31e0:	83 c4 10             	add    $0x10,%esp
    31e3:	8b 4d d0             	mov    -0x30(%ebp),%ecx
    31e6:	e9 e6 fd ff ff       	jmp    2fd1 <main+0x161>
    31eb:	83 ec 0c             	sub    $0xc,%esp
    31ee:	89 4d d0             	mov    %ecx,-0x30(%ebp)
    31f1:	51                   	push   %ecx
    31f2:	ff 15 a8 a3 01 00    	call   *0x1a3a8
    31f8:	83 c4 10             	add    $0x10,%esp
    31fb:	8b 4d d0             	mov    -0x30(%ebp),%ecx
    31fe:	e9 b4 fd ff ff       	jmp    2fb7 <main+0x147>
    3203:	31 c0                	xor    %eax,%eax
    3205:	e9 f7 fe ff ff       	jmp    3101 <main+0x291>
    320a:	31 d2                	xor    %edx,%edx
    320c:	e9 cb fe ff ff       	jmp    30dc <main+0x26c>
    3211:	ba 01 00 00 00       	mov    $0x1,%edx
    3216:	e9 c1 fe ff ff       	jmp    30dc <main+0x26c>
    321b:	ba 02 00 00 00       	mov    $0x2,%edx
    3220:	e9 b7 fe ff ff       	jmp    30dc <main+0x26c>
    3225:	ba 03 00 00 00       	mov    $0x3,%edx
    322a:	e9 ad fe ff ff       	jmp    30dc <main+0x26c>
    322f:	ba 04 00 00 00       	mov    $0x4,%edx
    3234:	e9 a3 fe ff ff       	jmp    30dc <main+0x26c>
    3239:	ba 05 00 00 00       	mov    $0x5,%edx
    323e:	e9 99 fe ff ff       	jmp    30dc <main+0x26c>
    3243:	ba 06 00 00 00       	mov    $0x6,%edx
    3248:	e9 8f fe ff ff       	jmp    30dc <main+0x26c>
    324d:	ba 07 00 00 00       	mov    $0x7,%edx
    3252:	e9 85 fe ff ff       	jmp    30dc <main+0x26c>
    3257:	8b 06                	mov    (%esi),%eax
    3259:	e8 22 fb ff ff       	call   2d80 <print_usage>
    325e:	83 c8 ff             	or     $0xffffffff,%eax
    3261:	e9 9b fe ff ff       	jmp    3101 <main+0x291>
    3266:	66 90                	xchg   %ax,%ax
    3268:	66 90                	xchg   %ax,%ax
    326a:	66 90                	xchg   %ax,%ax
    326c:	66 90                	xchg   %ax,%ax
    326e:	66 90                	xchg   %ax,%ax

00003270 <usb_hid_report_path_try_insert>:
    3270:	55                   	push   %ebp
    3271:	89 e5                	mov    %esp,%ebp
    3273:	57                   	push   %edi
    3274:	56                   	push   %esi
    3275:	53                   	push   %ebx
    3276:	83 ec 1c             	sub    $0x1c,%esp
    3279:	8b 45 08             	mov    0x8(%ebp),%eax
    327c:	8b 5d 0c             	mov    0xc(%ebp),%ebx
    327f:	85 db                	test   %ebx,%ebx
    3281:	8b 70 10             	mov    0x10(%eax),%esi
    3284:	74 72                	je     32f8 <usb_hid_report_path_try_insert+0x88>
    3286:	83 c0 0c             	add    $0xc,%eax
    3289:	89 45 e4             	mov    %eax,-0x1c(%ebp)
    328c:	39 c6                	cmp    %eax,%esi
    328e:	75 10                	jne    32a0 <usb_hid_report_path_try_insert+0x30>
    3290:	eb 2e                	jmp    32c0 <usb_hid_report_path_try_insert+0x50>
    3292:	8d b6 00 00 00 00    	lea    0x0(%esi),%esi
    3298:	8b 76 04             	mov    0x4(%esi),%esi
    329b:	3b 75 e4             	cmp    -0x1c(%ebp),%esi
    329e:	74 20                	je     32c0 <usb_hid_report_path_try_insert+0x50>
    32a0:	8d 7e f8             	lea    -0x8(%esi),%edi
    32a3:	51                   	push   %ecx
    32a4:	6a 00                	push   $0x0
    32a6:	53                   	push   %ebx
    32a7:	57                   	push   %edi
    32a8:	e8 43 2b 00 00       	call   5df0 <usb_hid_report_compare_usage_path>
    32ad:	83 c4 10             	add    $0x10,%esp
    32b0:	85 c0                	test   %eax,%eax
    32b2:	75 e4                	jne    3298 <usb_hid_report_path_try_insert+0x28>
    32b4:	8d 65 f4             	lea    -0xc(%ebp),%esp
    32b7:	89 f8                	mov    %edi,%eax
    32b9:	5b                   	pop    %ebx
    32ba:	5e                   	pop    %esi
    32bb:	5f                   	pop    %edi
    32bc:	5d                   	pop    %ebp
    32bd:	c3                   	ret    
    32be:	66 90                	xchg   %ax,%ax
    32c0:	83 ec 0c             	sub    $0xc,%esp
    32c3:	53                   	push   %ebx
    32c4:	e8 a7 2f 00 00       	call   6270 <usb_hid_report_path_clone>
    32c9:	83 c4 10             	add    $0x10,%esp
    32cc:	89 c7                	mov    %eax,%edi
    32ce:	85 c0                	test   %eax,%eax
    32d0:	74 e2                	je     32b4 <usb_hid_report_path_try_insert+0x44>
    32d2:	8b 4d e4             	mov    -0x1c(%ebp),%ecx
    32d5:	8d 47 08             	lea    0x8(%edi),%eax
    32d8:	89 4f 0c             	mov    %ecx,0xc(%edi)
    32db:	8b 4d 08             	mov    0x8(%ebp),%ecx
    32de:	8b 51 0c             	mov    0xc(%ecx),%edx
    32e1:	89 57 08             	mov    %edx,0x8(%edi)
    32e4:	8b 51 0c             	mov    0xc(%ecx),%edx
    32e7:	89 42 04             	mov    %eax,0x4(%edx)
    32ea:	8b 51 14             	mov    0x14(%ecx),%edx
    32ed:	42                   	inc    %edx
    32ee:	89 41 0c             	mov    %eax,0xc(%ecx)
    32f1:	89 51 14             	mov    %edx,0x14(%ecx)
    32f4:	eb be                	jmp    32b4 <usb_hid_report_path_try_insert+0x44>
    32f6:	66 90                	xchg   %ax,%ax
    32f8:	8d 65 f4             	lea    -0xc(%ebp),%esp
    32fb:	31 ff                	xor    %edi,%edi
    32fd:	89 f8                	mov    %edi,%eax
    32ff:	5b                   	pop    %ebx
    3300:	5e                   	pop    %esi
    3301:	5f                   	pop    %edi
    3302:	5d                   	pop    %ebp
    3303:	c3                   	ret    
    3304:	8d b6 00 00 00 00    	lea    0x0(%esi),%esi
    330a:	8d bf 00 00 00 00    	lea    0x0(%edi),%edi

00003310 <usb_hid_report_init>:
    3310:	55                   	push   %ebp
    3311:	89 e5                	mov    %esp,%ebp
    3313:	53                   	push   %ebx
    3314:	52                   	push   %edx
    3315:	8b 5d 08             	mov    0x8(%ebp),%ebx
    3318:	85 db                	test   %ebx,%ebx
    331a:	74 34                	je     3350 <usb_hid_report_init+0x40>
    331c:	50                   	push   %eax
    331d:	6a 20                	push   $0x20
    331f:	6a 00                	push   $0x0
    3321:	53                   	push   %ebx
    3322:	e8 79 4e 01 00       	call   181a0 <memset@plt>
    3327:	8d 43 04             	lea    0x4(%ebx),%eax
    332a:	89 43 04             	mov    %eax,0x4(%ebx)
    332d:	89 43 08             	mov    %eax,0x8(%ebx)
    3330:	8d 43 0c             	lea    0xc(%ebx),%eax
    3333:	c7 43 18 00 00 00 00 	movl   $0x0,0x18(%ebx)
    333a:	89 43 0c             	mov    %eax,0xc(%ebx)
    333d:	89 43 10             	mov    %eax,0x10(%ebx)
    3340:	83 c4 10             	add    $0x10,%esp
    3343:	31 c0                	xor    %eax,%eax
    3345:	8b 5d fc             	mov    -0x4(%ebp),%ebx
    3348:	c9                   	leave  
    3349:	c3                   	ret    
    334a:	8d b6 00 00 00 00    	lea    0x0(%esi),%esi
    3350:	b8 f2 ff ff ff       	mov    $0xfffffff2,%eax
    3355:	eb ee                	jmp    3345 <usb_hid_report_init+0x35>
    3357:	89 f6                	mov    %esi,%esi
    3359:	8d bc 27 00 00 00 00 	lea    0x0(%edi,%eiz,1),%edi

00003360 <usb_hid_report_append_fields>:
    3360:	55                   	push   %ebp
    3361:	89 e5                	mov    %esp,%ebp
    3363:	57                   	push   %edi
    3364:	56                   	push   %esi
    3365:	53                   	push   %ebx
    3366:	83 ec 3c             	sub    $0x3c,%esp
    3369:	8b 45 08             	mov    0x8(%ebp),%eax
    336c:	85 c0                	test   %eax,%eax
    336e:	0f 84 6c 04 00 00    	je     37e0 <usb_hid_report_append_fields+0x480>
    3374:	8b 45 0c             	mov    0xc(%ebp),%eax
    3377:	85 c0                	test   %eax,%eax
    3379:	0f 84 61 04 00 00    	je     37e0 <usb_hid_report_append_fields+0x480>
    337f:	8b 45 0c             	mov    0xc(%ebp),%eax
    3382:	8b 80 04 00 04 00    	mov    0x40004(%eax),%eax
    3388:	85 c0                	test   %eax,%eax
    338a:	0f 8e 24 04 00 00    	jle    37b4 <usb_hid_report_append_fields+0x454>
    3390:	c1 e0 02             	shl    $0x2,%eax
    3393:	83 ec 0c             	sub    $0xc,%esp
    3396:	50                   	push   %eax
    3397:	e8 f4 4b 01 00       	call   17f90 <malloc@plt>
    339c:	89 c1                	mov    %eax,%ecx
    339e:	89 45 c8             	mov    %eax,-0x38(%ebp)
    33a1:	8b 45 0c             	mov    0xc(%ebp),%eax
    33a4:	83 c4 0c             	add    $0xc,%esp
    33a7:	8b 80 04 00 04 00    	mov    0x40004(%eax),%eax
    33ad:	89 45 e4             	mov    %eax,-0x1c(%ebp)
    33b0:	c1 e0 02             	shl    $0x2,%eax
    33b3:	50                   	push   %eax
    33b4:	8b 45 0c             	mov    0xc(%ebp),%eax
    33b7:	83 c0 08             	add    $0x8,%eax
    33ba:	50                   	push   %eax
    33bb:	51                   	push   %ecx
    33bc:	e8 bf 4b 01 00       	call   17f80 <memcpy@plt>
    33c1:	8b 45 0c             	mov    0xc(%ebp),%eax
    33c4:	8b 80 58 00 04 00    	mov    0x40058(%eax),%eax
    33ca:	83 c4 10             	add    $0x10,%esp
    33cd:	89 45 cc             	mov    %eax,-0x34(%ebp)
    33d0:	8b 45 0c             	mov    0xc(%ebp),%eax
    33d3:	8b 80 20 00 04 00    	mov    0x40020(%eax),%eax
    33d9:	85 c0                	test   %eax,%eax
    33db:	0f 8e 1a 02 00 00    	jle    35fb <usb_hid_report_append_fields+0x29b>
    33e1:	8b 45 08             	mov    0x8(%ebp),%eax
    33e4:	c7 45 c4 00 00 00 00 	movl   $0x0,-0x3c(%ebp)
    33eb:	83 c0 0c             	add    $0xc,%eax
    33ee:	c7 45 e0 00 00 00 00 	movl   $0x0,-0x20(%ebp)
    33f5:	89 45 e4             	mov    %eax,-0x1c(%ebp)
    33f8:	8b 45 08             	mov    0x8(%ebp),%eax
    33fb:	83 c0 04             	add    $0x4,%eax
    33fe:	89 45 dc             	mov    %eax,-0x24(%ebp)
    3401:	8d b4 26 00 00 00 00 	lea    0x0(%esi,%eiz,1),%esi
    3408:	83 ec 0c             	sub    $0xc,%esp
    340b:	6a 48                	push   $0x48
    340d:	e8 7e 4b 01 00       	call   17f90 <malloc@plt>
    3412:	83 c4 10             	add    $0x10,%esp
    3415:	89 c6                	mov    %eax,%esi
    3417:	85 c0                	test   %eax,%eax
    3419:	0f 84 77 03 00 00    	je     3796 <usb_hid_report_append_fields+0x436>
    341f:	57                   	push   %edi
    3420:	6a 48                	push   $0x48
    3422:	6a 00                	push   $0x0
    3424:	50                   	push   %eax
    3425:	e8 76 4d 01 00       	call   181a0 <memset@plt>
    342a:	8d 46 40             	lea    0x40(%esi),%eax
    342d:	89 45 d0             	mov    %eax,-0x30(%ebp)
    3430:	8b 45 0c             	mov    0xc(%ebp),%eax
    3433:	83 c4 10             	add    $0x10,%esp
    3436:	c7 46 40 00 00 00 00 	movl   $0x0,0x40(%esi)
    343d:	8b 80 14 00 04 00    	mov    0x40014(%eax),%eax
    3443:	c7 46 44 00 00 00 00 	movl   $0x0,0x44(%esi)
    344a:	89 46 14             	mov    %eax,0x14(%esi)
    344d:	8b 45 0c             	mov    0xc(%ebp),%eax
    3450:	8b 80 18 00 04 00    	mov    0x40018(%eax),%eax
    3456:	89 46 18             	mov    %eax,0x18(%esi)
    3459:	8b 45 0c             	mov    0xc(%ebp),%eax
    345c:	8b 80 48 00 04 00    	mov    0x40048(%eax),%eax
    3462:	89 46 1c             	mov    %eax,0x1c(%esi)
    3465:	8b 45 0c             	mov    0xc(%ebp),%eax
    3468:	8b 80 4c 00 04 00    	mov    0x4004c(%eax),%eax
    346e:	89 46 20             	mov    %eax,0x20(%esi)
    3471:	8b 45 0c             	mov    0xc(%ebp),%eax
    3474:	f6 80 50 00 04 00 02 	testb  $0x2,0x40050(%eax)
    347b:	0f 85 2f 02 00 00    	jne    36b0 <usb_hid_report_append_fields+0x350>
    3481:	8b 80 04 00 04 00    	mov    0x40004(%eax),%eax
    3487:	c7 46 08 00 00 00 00 	movl   $0x0,0x8(%esi)
    348e:	89 46 38             	mov    %eax,0x38(%esi)
    3491:	8b 45 c8             	mov    -0x38(%ebp),%eax
    3494:	89 46 34             	mov    %eax,0x34(%esi)
    3497:	c7 45 c4 01 00 00 00 	movl   $0x1,-0x3c(%ebp)
    349e:	31 c0                	xor    %eax,%eax
    34a0:	8b 7d cc             	mov    -0x34(%ebp),%edi
    34a3:	53                   	push   %ebx
    34a4:	50                   	push   %eax
    34a5:	6a 01                	push   $0x1
    34a7:	57                   	push   %edi
    34a8:	e8 63 28 00 00       	call   5d10 <usb_hid_report_set_last_item>
    34ad:	83 c4 0c             	add    $0xc,%esp
    34b0:	31 c0                	xor    %eax,%eax
    34b2:	66 8b 46 0a          	mov    0xa(%esi),%ax
    34b6:	50                   	push   %eax
    34b7:	6a 02                	push   $0x2
    34b9:	57                   	push   %edi
    34ba:	e8 51 28 00 00       	call   5d10 <usb_hid_report_set_last_item>
    34bf:	8b 45 08             	mov    0x8(%ebp),%eax
    34c2:	83 c4 10             	add    $0x10,%esp
    34c5:	85 ff                	test   %edi,%edi
    34c7:	8b 58 10             	mov    0x10(%eax),%ebx
    34ca:	0f 84 bf 02 00 00    	je     378f <usb_hid_report_append_fields+0x42f>
    34d0:	3b 5d e4             	cmp    -0x1c(%ebp),%ebx
    34d3:	0f 84 12 02 00 00    	je     36eb <usb_hid_report_append_fields+0x38b>
    34d9:	89 75 d8             	mov    %esi,-0x28(%ebp)
    34dc:	89 de                	mov    %ebx,%esi
    34de:	eb 0c                	jmp    34ec <usb_hid_report_append_fields+0x18c>
    34e0:	8b 76 04             	mov    0x4(%esi),%esi
    34e3:	3b 75 e4             	cmp    -0x1c(%ebp),%esi
    34e6:	0f 84 fc 01 00 00    	je     36e8 <usb_hid_report_append_fields+0x388>
    34ec:	8d 5e f8             	lea    -0x8(%esi),%ebx
    34ef:	51                   	push   %ecx
    34f0:	6a 00                	push   $0x0
    34f2:	57                   	push   %edi
    34f3:	53                   	push   %ebx
    34f4:	e8 f7 28 00 00       	call   5df0 <usb_hid_report_compare_usage_path>
    34f9:	83 c4 10             	add    $0x10,%esp
    34fc:	85 c0                	test   %eax,%eax
    34fe:	75 e0                	jne    34e0 <usb_hid_report_append_fields+0x180>
    3500:	8b 75 d8             	mov    -0x28(%ebp),%esi
    3503:	89 df                	mov    %ebx,%edi
    3505:	8b 45 0c             	mov    0xc(%ebp),%eax
    3508:	89 7e 10             	mov    %edi,0x10(%esi)
    350b:	8b 80 1c 00 04 00    	mov    0x4001c(%eax),%eax
    3511:	89 45 d4             	mov    %eax,-0x2c(%ebp)
    3514:	89 46 04             	mov    %eax,0x4(%esi)
    3517:	8b 45 0c             	mov    0xc(%ebp),%eax
    351a:	8b b8 54 00 04 00    	mov    0x40054(%eax),%edi
    3520:	83 ff 01             	cmp    $0x1,%edi
    3523:	0f 84 07 02 00 00    	je     3730 <usb_hid_report_append_fields+0x3d0>
    3529:	89 c2                	mov    %eax,%edx
    352b:	8b 5d e0             	mov    -0x20(%ebp),%ebx
    352e:	8b 45 d4             	mov    -0x2c(%ebp),%eax
    3531:	0f af c3             	imul   %ebx,%eax
    3534:	8b 8a 24 00 04 00    	mov    0x40024(%edx),%ecx
    353a:	01 c8                	add    %ecx,%eax
    353c:	89 06                	mov    %eax,(%esi)
    353e:	8b 4d 08             	mov    0x8(%ebp),%ecx
    3541:	8b 51 18             	mov    0x18(%ecx),%edx
    3544:	85 d2                	test   %edx,%edx
    3546:	0f 84 4c 01 00 00    	je     3698 <usb_hid_report_append_fields+0x338>
    354c:	83 c0 08             	add    $0x8,%eax
    354f:	8b 4d 0c             	mov    0xc(%ebp),%ecx
    3552:	89 06                	mov    %eax,(%esi)
    3554:	8b 45 08             	mov    0x8(%ebp),%eax
    3557:	8a 09                	mov    (%ecx),%cl
    3559:	c7 40 18 01 00 00 00 	movl   $0x1,0x18(%eax)
    3560:	8b 45 0c             	mov    0xc(%ebp),%eax
    3563:	8a 80 50 00 04 00    	mov    0x40050(%eax),%al
    3569:	88 46 0c             	mov    %al,0xc(%esi)
    356c:	8b 45 08             	mov    0x8(%ebp),%eax
    356f:	8b 40 08             	mov    0x8(%eax),%eax
    3572:	39 45 dc             	cmp    %eax,-0x24(%ebp)
    3575:	8d 58 e8             	lea    -0x18(%eax),%ebx
    3578:	0f 84 9d 00 00 00    	je     361b <usb_hid_report_append_fields+0x2bb>
    357e:	84 c9                	test   %cl,%cl
    3580:	89 75 d8             	mov    %esi,-0x28(%ebp)
    3583:	0f 94 c2             	sete   %dl
    3586:	8b 75 dc             	mov    -0x24(%ebp),%esi
    3589:	eb 13                	jmp    359e <usb_hid_report_append_fields+0x23e>
    358b:	90                   	nop
    358c:	8d 74 26 00          	lea    0x0(%esi,%eiz,1),%esi
    3590:	84 d2                	test   %dl,%dl
    3592:	75 0e                	jne    35a2 <usb_hid_report_append_fields+0x242>
    3594:	8b 40 04             	mov    0x4(%eax),%eax
    3597:	39 c6                	cmp    %eax,%esi
    3599:	8d 58 e8             	lea    -0x18(%eax),%ebx
    359c:	74 7a                	je     3618 <usb_hid_report_append_fields+0x2b8>
    359e:	38 0b                	cmp    %cl,(%ebx)
    35a0:	75 ee                	jne    3590 <usb_hid_report_append_fields+0x230>
    35a2:	3b 7b 04             	cmp    0x4(%ebx),%edi
    35a5:	75 ed                	jne    3594 <usb_hid_report_append_fields+0x234>
    35a7:	8b 75 d8             	mov    -0x28(%ebp),%esi
    35aa:	8d 43 10             	lea    0x10(%ebx),%eax
    35ad:	8b 53 10             	mov    0x10(%ebx),%edx
    35b0:	8b 4b 08             	mov    0x8(%ebx),%ecx
    35b3:	89 56 40             	mov    %edx,0x40(%esi)
    35b6:	89 46 44             	mov    %eax,0x44(%esi)
    35b9:	8b 43 10             	mov    0x10(%ebx),%eax
    35bc:	8b 55 d0             	mov    -0x30(%ebp),%edx
    35bf:	89 50 04             	mov    %edx,0x4(%eax)
    35c2:	8b 45 d4             	mov    -0x2c(%ebp),%eax
    35c5:	01 c1                	add    %eax,%ecx
    35c7:	8b 43 0c             	mov    0xc(%ebx),%eax
    35ca:	40                   	inc    %eax
    35cb:	89 4b 08             	mov    %ecx,0x8(%ebx)
    35ce:	89 43 0c             	mov    %eax,0xc(%ebx)
    35d1:	8b 45 e0             	mov    -0x20(%ebp),%eax
    35d4:	40                   	inc    %eax
    35d5:	8b 4d 0c             	mov    0xc(%ebp),%ecx
    35d8:	89 45 e0             	mov    %eax,-0x20(%ebp)
    35db:	89 53 10             	mov    %edx,0x10(%ebx)
    35de:	8b 45 e0             	mov    -0x20(%ebp),%eax
    35e1:	39 81 20 00 04 00    	cmp    %eax,0x40020(%ecx)
    35e7:	0f 8f 1b fe ff ff    	jg     3408 <usb_hid_report_append_fields+0xa8>
    35ed:	8b 7d c8             	mov    -0x38(%ebp),%edi
    35f0:	85 ff                	test   %edi,%edi
    35f2:	74 16                	je     360a <usb_hid_report_append_fields+0x2aa>
    35f4:	8b 75 c4             	mov    -0x3c(%ebp),%esi
    35f7:	85 f6                	test   %esi,%esi
    35f9:	75 0f                	jne    360a <usb_hid_report_append_fields+0x2aa>
    35fb:	83 ec 0c             	sub    $0xc,%esp
    35fe:	8b 5d c8             	mov    -0x38(%ebp),%ebx
    3601:	53                   	push   %ebx
    3602:	e8 69 4d 01 00       	call   18370 <free@plt>
    3607:	83 c4 10             	add    $0x10,%esp
    360a:	31 c0                	xor    %eax,%eax
    360c:	8d 65 f4             	lea    -0xc(%ebp),%esp
    360f:	5b                   	pop    %ebx
    3610:	5e                   	pop    %esi
    3611:	5f                   	pop    %edi
    3612:	5d                   	pop    %ebp
    3613:	c3                   	ret    
    3614:	8d 74 26 00          	lea    0x0(%esi,%eiz,1),%esi
    3618:	8b 75 d8             	mov    -0x28(%ebp),%esi
    361b:	83 ec 0c             	sub    $0xc,%esp
    361e:	6a 20                	push   $0x20
    3620:	e8 6b 49 01 00       	call   17f90 <malloc@plt>
    3625:	83 c4 10             	add    $0x10,%esp
    3628:	89 c3                	mov    %eax,%ebx
    362a:	85 c0                	test   %eax,%eax
    362c:	0f 84 64 01 00 00    	je     3796 <usb_hid_report_append_fields+0x436>
    3632:	51                   	push   %ecx
    3633:	6a 20                	push   $0x20
    3635:	6a 00                	push   $0x0
    3637:	50                   	push   %eax
    3638:	e8 63 4b 01 00       	call   181a0 <memset@plt>
    363d:	8b 45 0c             	mov    0xc(%ebp),%eax
    3640:	8b 80 54 00 04 00    	mov    0x40054(%eax),%eax
    3646:	83 c4 10             	add    $0x10,%esp
    3649:	89 43 04             	mov    %eax,0x4(%ebx)
    364c:	8b 45 0c             	mov    0xc(%ebp),%eax
    364f:	8b 00                	mov    (%eax),%eax
    3651:	88 03                	mov    %al,(%ebx)
    3653:	84 c0                	test   %al,%al
    3655:	0f 85 48 01 00 00    	jne    37a3 <usb_hid_report_append_fields+0x443>
    365b:	8b 4b 08             	mov    0x8(%ebx),%ecx
    365e:	8b 55 dc             	mov    -0x24(%ebp),%edx
    3661:	8d 7b 18             	lea    0x18(%ebx),%edi
    3664:	89 53 1c             	mov    %edx,0x1c(%ebx)
    3667:	8b 55 08             	mov    0x8(%ebp),%edx
    366a:	8d 43 10             	lea    0x10(%ebx),%eax
    366d:	8b 52 04             	mov    0x4(%edx),%edx
    3670:	89 43 10             	mov    %eax,0x10(%ebx)
    3673:	89 53 18             	mov    %edx,0x18(%ebx)
    3676:	89 43 14             	mov    %eax,0x14(%ebx)
    3679:	89 7a 04             	mov    %edi,0x4(%edx)
    367c:	8b 55 08             	mov    0x8(%ebp),%edx
    367f:	89 7a 04             	mov    %edi,0x4(%edx)
    3682:	89 d7                	mov    %edx,%edi
    3684:	8b 12                	mov    (%edx),%edx
    3686:	42                   	inc    %edx
    3687:	89 17                	mov    %edx,(%edi)
    3689:	8b 7e 04             	mov    0x4(%esi),%edi
    368c:	89 7d d4             	mov    %edi,-0x2c(%ebp)
    368f:	89 c2                	mov    %eax,%edx
    3691:	e9 1d ff ff ff       	jmp    35b3 <usb_hid_report_append_fields+0x253>
    3696:	66 90                	xchg   %ax,%ax
    3698:	8b 45 0c             	mov    0xc(%ebp),%eax
    369b:	8b 4d 0c             	mov    0xc(%ebp),%ecx
    369e:	8a 80 50 00 04 00    	mov    0x40050(%eax),%al
    36a4:	8a 09                	mov    (%ecx),%cl
    36a6:	e9 be fe ff ff       	jmp    3569 <usb_hid_report_append_fields+0x209>
    36ab:	90                   	nop
    36ac:	8d 74 26 00          	lea    0x0(%esi,%eiz,1),%esi
    36b0:	8b 80 04 00 04 00    	mov    0x40004(%eax),%eax
    36b6:	8b 7d e0             	mov    -0x20(%ebp),%edi
    36b9:	39 f8                	cmp    %edi,%eax
    36bb:	0f 8e c2 00 00 00    	jle    3783 <usb_hid_report_append_fields+0x423>
    36c1:	8b 45 0c             	mov    0xc(%ebp),%eax
    36c4:	8b 44 b8 08          	mov    0x8(%eax,%edi,4),%eax
    36c8:	66 89 46 0a          	mov    %ax,0xa(%esi)
    36cc:	a9 00 00 ff ff       	test   $0xffff0000,%eax
    36d1:	0f 84 95 00 00 00    	je     376c <usb_hid_report_append_fields+0x40c>
    36d7:	c1 e8 10             	shr    $0x10,%eax
    36da:	66 89 46 08          	mov    %ax,0x8(%esi)
    36de:	e9 bd fd ff ff       	jmp    34a0 <usb_hid_report_append_fields+0x140>
    36e3:	90                   	nop
    36e4:	8d 74 26 00          	lea    0x0(%esi,%eiz,1),%esi
    36e8:	8b 75 d8             	mov    -0x28(%ebp),%esi
    36eb:	83 ec 0c             	sub    $0xc,%esp
    36ee:	8b 4d cc             	mov    -0x34(%ebp),%ecx
    36f1:	51                   	push   %ecx
    36f2:	e8 79 2b 00 00       	call   6270 <usb_hid_report_path_clone>
    36f7:	83 c4 10             	add    $0x10,%esp
    36fa:	89 c7                	mov    %eax,%edi
    36fc:	85 c0                	test   %eax,%eax
    36fe:	0f 84 01 fe ff ff    	je     3505 <usb_hid_report_append_fields+0x1a5>
    3704:	8b 55 e4             	mov    -0x1c(%ebp),%edx
    3707:	8b 4d 08             	mov    0x8(%ebp),%ecx
    370a:	89 57 0c             	mov    %edx,0xc(%edi)
    370d:	8b 55 08             	mov    0x8(%ebp),%edx
    3710:	8d 47 08             	lea    0x8(%edi),%eax
    3713:	8b 52 0c             	mov    0xc(%edx),%edx
    3716:	89 57 08             	mov    %edx,0x8(%edi)
    3719:	8b 51 0c             	mov    0xc(%ecx),%edx
    371c:	89 42 04             	mov    %eax,0x4(%edx)
    371f:	8b 51 14             	mov    0x14(%ecx),%edx
    3722:	42                   	inc    %edx
    3723:	89 41 0c             	mov    %eax,0xc(%ecx)
    3726:	89 51 14             	mov    %edx,0x14(%ecx)
    3729:	e9 d7 fd ff ff       	jmp    3505 <usb_hid_report_append_fields+0x1a5>
    372e:	66 90                	xchg   %ax,%ax
    3730:	8b 4d d4             	mov    -0x2c(%ebp),%ecx
    3733:	8b 55 e0             	mov    -0x20(%ebp),%edx
    3736:	0f af d1             	imul   %ecx,%edx
    3739:	8b 98 24 00 04 00    	mov    0x40024(%eax),%ebx
    373f:	01 da                	add    %ebx,%edx
    3741:	89 d0                	mov    %edx,%eax
    3743:	c1 f8 1f             	sar    $0x1f,%eax
    3746:	83 e0 07             	and    $0x7,%eax
    3749:	01 d0                	add    %edx,%eax
    374b:	c1 f8 03             	sar    $0x3,%eax
    374e:	8d 44 00 01          	lea    0x1(%eax,%eax,1),%eax
    3752:	c1 e0 03             	shl    $0x3,%eax
    3755:	29 d0                	sub    %edx,%eax
    3757:	29 c8                	sub    %ecx,%eax
    3759:	0f 89 dd fd ff ff    	jns    353c <usb_hid_report_append_fields+0x1dc>
    375f:	c7 06 00 00 00 00    	movl   $0x0,(%esi)
    3765:	31 c0                	xor    %eax,%eax
    3767:	e9 d2 fd ff ff       	jmp    353e <usb_hid_report_append_fields+0x1de>
    376c:	8b 45 0c             	mov    0xc(%ebp),%eax
    376f:	8b 80 08 00 04 00    	mov    0x40008(%eax),%eax
    3775:	66 89 46 08          	mov    %ax,0x8(%esi)
    3779:	25 ff ff 00 00       	and    $0xffff,%eax
    377e:	e9 1d fd ff ff       	jmp    34a0 <usb_hid_report_append_fields+0x140>
    3783:	8b 7d 0c             	mov    0xc(%ebp),%edi
    3786:	8b 44 87 04          	mov    0x4(%edi,%eax,4),%eax
    378a:	e9 39 ff ff ff       	jmp    36c8 <usb_hid_report_append_fields+0x368>
    378f:	31 ff                	xor    %edi,%edi
    3791:	e9 6f fd ff ff       	jmp    3505 <usb_hid_report_append_fields+0x1a5>
    3796:	8d 65 f4             	lea    -0xc(%ebp),%esp
    3799:	b8 fe ff ff ff       	mov    $0xfffffffe,%eax
    379e:	5b                   	pop    %ebx
    379f:	5e                   	pop    %esi
    37a0:	5f                   	pop    %edi
    37a1:	5d                   	pop    %ebp
    37a2:	c3                   	ret    
    37a3:	c7 43 08 08 00 00 00 	movl   $0x8,0x8(%ebx)
    37aa:	b9 08 00 00 00       	mov    $0x8,%ecx
    37af:	e9 aa fe ff ff       	jmp    365e <usb_hid_report_append_fields+0x2fe>
    37b4:	8b 45 0c             	mov    0xc(%ebp),%eax
    37b7:	c7 45 c8 00 00 00 00 	movl   $0x0,-0x38(%ebp)
    37be:	8b 80 58 00 04 00    	mov    0x40058(%eax),%eax
    37c4:	89 45 cc             	mov    %eax,-0x34(%ebp)
    37c7:	8b 45 0c             	mov    0xc(%ebp),%eax
    37ca:	8b 80 20 00 04 00    	mov    0x40020(%eax),%eax
    37d0:	85 c0                	test   %eax,%eax
    37d2:	0f 8f 09 fc ff ff    	jg     33e1 <usb_hid_report_append_fields+0x81>
    37d8:	e9 2d fe ff ff       	jmp    360a <usb_hid_report_append_fields+0x2aa>
    37dd:	8d 76 00             	lea    0x0(%esi),%esi
    37e0:	b8 f2 ff ff ff       	mov    $0xfffffff2,%eax
    37e5:	e9 22 fe ff ff       	jmp    360c <usb_hid_report_append_fields+0x2ac>
    37ea:	8d b6 00 00 00 00    	lea    0x0(%esi),%esi

000037f0 <usb_hid_report_find_description>:
    37f0:	55                   	push   %ebp
    37f1:	89 e5                	mov    %esp,%ebp
    37f3:	57                   	push   %edi
    37f4:	56                   	push   %esi
    37f5:	53                   	push   %ebx
    37f6:	8b 75 08             	mov    0x8(%ebp),%esi
    37f9:	8b 5d 0c             	mov    0xc(%ebp),%ebx
    37fc:	8b 7d 10             	mov    0x10(%ebp),%edi
    37ff:	85 f6                	test   %esi,%esi
    3801:	74 3d                	je     3840 <usb_hid_report_find_description+0x50>
    3803:	8b 56 08             	mov    0x8(%esi),%edx
    3806:	83 c6 04             	add    $0x4,%esi
    3809:	39 f2                	cmp    %esi,%edx
    380b:	8d 42 e8             	lea    -0x18(%edx),%eax
    380e:	74 30                	je     3840 <usb_hid_report_find_description+0x50>
    3810:	88 d9                	mov    %bl,%cl
    3812:	84 db                	test   %bl,%bl
    3814:	0f 94 c3             	sete   %bl
    3817:	eb 15                	jmp    382e <usb_hid_report_find_description+0x3e>
    3819:	8d b4 26 00 00 00 00 	lea    0x0(%esi,%eiz,1),%esi
    3820:	84 db                	test   %bl,%bl
    3822:	75 0e                	jne    3832 <usb_hid_report_find_description+0x42>
    3824:	8b 52 04             	mov    0x4(%edx),%edx
    3827:	39 f2                	cmp    %esi,%edx
    3829:	8d 42 e8             	lea    -0x18(%edx),%eax
    382c:	74 12                	je     3840 <usb_hid_report_find_description+0x50>
    382e:	38 08                	cmp    %cl,(%eax)
    3830:	75 ee                	jne    3820 <usb_hid_report_find_description+0x30>
    3832:	39 78 04             	cmp    %edi,0x4(%eax)
    3835:	75 ed                	jne    3824 <usb_hid_report_find_description+0x34>
    3837:	5b                   	pop    %ebx
    3838:	5e                   	pop    %esi
    3839:	5f                   	pop    %edi
    383a:	5d                   	pop    %ebp
    383b:	c3                   	ret    
    383c:	8d 74 26 00          	lea    0x0(%esi,%eiz,1),%esi
    3840:	5b                   	pop    %ebx
    3841:	31 c0                	xor    %eax,%eax
    3843:	5e                   	pop    %esi
    3844:	5f                   	pop    %edi
    3845:	5d                   	pop    %ebp
    3846:	c3                   	ret    
    3847:	89 f6                	mov    %esi,%esi
    3849:	8d bc 27 00 00 00 00 	lea    0x0(%edi,%eiz,1),%edi

00003850 <usb_hid_report_parse_main_tag>:
    3850:	55                   	push   %ebp
    3851:	89 e5                	mov    %esp,%ebp
    3853:	56                   	push   %esi
    3854:	53                   	push   %ebx
    3855:	8a 45 08             	mov    0x8(%ebp),%al
    3858:	8b 55 0c             	mov    0xc(%ebp),%edx
    385b:	8b 75 14             	mov    0x14(%ebp),%esi
    385e:	8b 5d 18             	mov    0x18(%ebp),%ebx
    3861:	8d 48 f8             	lea    -0x8(%eax),%ecx
    3864:	80 f9 04             	cmp    $0x4,%cl
    3867:	0f 87 c5 00 00 00    	ja     3932 <usb_hid_report_parse_main_tag+0xe2>
    386d:	31 c0                	xor    %eax,%eax
    386f:	88 c8                	mov    %cl,%al
    3871:	ff 24 85 08 51 01 00 	jmp    *0x15108(,%eax,4)
    3878:	8b 43 14             	mov    0x14(%ebx),%eax
    387b:	8d 4b 10             	lea    0x10(%ebx),%ecx
    387e:	39 c8                	cmp    %ecx,%eax
    3880:	0f 84 a2 00 00 00    	je     3928 <usb_hid_report_parse_main_tag+0xd8>
    3886:	83 e8 0c             	sub    $0xc,%eax
    3889:	8a 0a                	mov    (%edx),%cl
    388b:	88 48 08             	mov    %cl,0x8(%eax)
    388e:	50                   	push   %eax
    388f:	8b 86 04 00 04 00    	mov    0x40004(%esi),%eax
    3895:	66 8b 4c 86 06       	mov    0x6(%esi,%eax,4),%cx
    389a:	81 e1 ff ff 00 00    	and    $0xffff,%ecx
    38a0:	51                   	push   %ecx
    38a1:	6a 01                	push   $0x1
    38a3:	53                   	push   %ebx
    38a4:	e8 67 24 00 00       	call   5d10 <usb_hid_report_set_last_item>
    38a9:	8b 86 04 00 04 00    	mov    0x40004(%esi),%eax
    38af:	83 c4 0c             	add    $0xc,%esp
    38b2:	8b 54 86 04          	mov    0x4(%esi,%eax,4),%edx
    38b6:	81 e2 ff ff 00 00    	and    $0xffff,%edx
    38bc:	52                   	push   %edx
    38bd:	6a 02                	push   $0x2
    38bf:	53                   	push   %ebx
    38c0:	e8 4b 24 00 00       	call   5d10 <usb_hid_report_set_last_item>
    38c5:	8b 86 04 00 04 00    	mov    0x40004(%esi),%eax
    38cb:	83 c4 0c             	add    $0xc,%esp
    38ce:	8b 54 86 04          	mov    0x4(%esi,%eax,4),%edx
    38d2:	52                   	push   %edx
    38d3:	8b 8e 08 00 04 00    	mov    0x40008(%esi),%ecx
    38d9:	51                   	push   %ecx
    38da:	53                   	push   %ebx
    38db:	e8 40 23 00 00       	call   5c20 <usb_hid_report_path_append_item>
    38e0:	89 34 24             	mov    %esi,(%esp)
    38e3:	e8 a8 22 00 00       	call   5b90 <usb_hid_report_reset_local_items>
    38e8:	83 c4 10             	add    $0x10,%esp
    38eb:	b8 02 00 00 00       	mov    $0x2,%eax
    38f0:	8d 65 f8             	lea    -0x8(%ebp),%esp
    38f3:	5b                   	pop    %ebx
    38f4:	5e                   	pop    %esi
    38f5:	5d                   	pop    %ebp
    38f6:	c3                   	ret    
    38f7:	90                   	nop
    38f8:	8a 02                	mov    (%edx),%al
    38fa:	88 86 50 00 04 00    	mov    %al,0x40050(%esi)
    3900:	8d 65 f8             	lea    -0x8(%ebp),%esp
    3903:	31 c0                	xor    %eax,%eax
    3905:	5b                   	pop    %ebx
    3906:	5e                   	pop    %esi
    3907:	5d                   	pop    %ebp
    3908:	c3                   	ret    
    3909:	8d b4 26 00 00 00 00 	lea    0x0(%esi,%eiz,1),%esi
    3910:	83 ec 0c             	sub    $0xc,%esp
    3913:	53                   	push   %ebx
    3914:	e8 57 23 00 00       	call   5c70 <usb_hid_report_remove_last_item>
    3919:	83 c4 10             	add    $0x10,%esp
    391c:	8d 65 f8             	lea    -0x8(%ebp),%esp
    391f:	b8 02 00 00 00       	mov    $0x2,%eax
    3924:	5b                   	pop    %ebx
    3925:	5e                   	pop    %esi
    3926:	5d                   	pop    %ebp
    3927:	c3                   	ret    
    3928:	b8 f4 ff ff ff       	mov    $0xfffffff4,%eax
    392d:	e9 57 ff ff ff       	jmp    3889 <usb_hid_report_parse_main_tag+0x39>
    3932:	b8 02 00 00 00       	mov    $0x2,%eax
    3937:	eb b7                	jmp    38f0 <usb_hid_report_parse_main_tag+0xa0>
    3939:	8d b4 26 00 00 00 00 	lea    0x0(%esi,%eiz,1),%esi

00003940 <usb_hid_report_parse_global_tag>:
    3940:	55                   	push   %ebp
    3941:	89 e5                	mov    %esp,%ebp
    3943:	57                   	push   %edi
    3944:	56                   	push   %esi
    3945:	53                   	push   %ebx
    3946:	51                   	push   %ecx
    3947:	8b 45 08             	mov    0x8(%ebp),%eax
    394a:	8b 55 0c             	mov    0xc(%ebp),%edx
    394d:	8b 5d 10             	mov    0x10(%ebp),%ebx
    3950:	3c 0b                	cmp    $0xb,%al
    3952:	0f 87 3f 04 00 00    	ja     3d97 <usb_hid_report_parse_global_tag+0x457>
    3958:	31 c9                	xor    %ecx,%ecx
    395a:	88 c1                	mov    %al,%cl
    395c:	ff 24 8d 1c 51 01 00 	jmp    *0x1511c(,%ecx,4)
    3963:	90                   	nop
    3964:	8d 74 26 00          	lea    0x0(%esi,%eiz,1),%esi
    3968:	31 ff                	xor    %edi,%edi
    396a:	31 c0                	xor    %eax,%eax
    396c:	85 db                	test   %ebx,%ebx
    396e:	74 1a                	je     398a <usb_hid_report_parse_global_tag+0x4a>
    3970:	0f b6 34 02          	movzbl (%edx,%eax,1),%esi
    3974:	8d 0c c5 00 00 00 00 	lea    0x0(,%eax,8),%ecx
    397b:	81 e6 ff 00 00 00    	and    $0xff,%esi
    3981:	d3 e6                	shl    %cl,%esi
    3983:	40                   	inc    %eax
    3984:	09 f7                	or     %esi,%edi
    3986:	39 c3                	cmp    %eax,%ebx
    3988:	75 e6                	jne    3970 <usb_hid_report_parse_global_tag+0x30>
    398a:	8b 45 14             	mov    0x14(%ebp),%eax
    398d:	89 b8 20 00 04 00    	mov    %edi,0x40020(%eax)
    3993:	31 c0                	xor    %eax,%eax
    3995:	eb 06                	jmp    399d <usb_hid_report_parse_global_tag+0x5d>
    3997:	90                   	nop
    3998:	25 ff 00 00 00       	and    $0xff,%eax
    399d:	5a                   	pop    %edx
    399e:	5b                   	pop    %ebx
    399f:	5e                   	pop    %esi
    39a0:	5f                   	pop    %edi
    39a1:	5d                   	pop    %ebp
    39a2:	c3                   	ret    
    39a3:	90                   	nop
    39a4:	8d 74 26 00          	lea    0x0(%esi,%eiz,1),%esi
    39a8:	31 ff                	xor    %edi,%edi
    39aa:	85 db                	test   %ebx,%ebx
    39ac:	74 1c                	je     39ca <usb_hid_report_parse_global_tag+0x8a>
    39ae:	31 c0                	xor    %eax,%eax
    39b0:	0f b6 34 02          	movzbl (%edx,%eax,1),%esi
    39b4:	8d 0c c5 00 00 00 00 	lea    0x0(,%eax,8),%ecx
    39bb:	81 e6 ff 00 00 00    	and    $0xff,%esi
    39c1:	d3 e6                	shl    %cl,%esi
    39c3:	40                   	inc    %eax
    39c4:	09 f7                	or     %esi,%edi
    39c6:	39 c3                	cmp    %eax,%ebx
    39c8:	75 e6                	jne    39b0 <usb_hid_report_parse_global_tag+0x70>
    39ca:	8b 45 14             	mov    0x14(%ebp),%eax
    39cd:	89 b8 08 00 04 00    	mov    %edi,0x40008(%eax)
    39d3:	31 c0                	xor    %eax,%eax
    39d5:	eb c6                	jmp    399d <usb_hid_report_parse_global_tag+0x5d>
    39d7:	90                   	nop
    39d8:	31 c0                	xor    %eax,%eax
    39da:	31 f6                	xor    %esi,%esi
    39dc:	31 ff                	xor    %edi,%edi
    39de:	85 db                	test   %ebx,%ebx
    39e0:	74 71                	je     3a53 <usb_hid_report_parse_global_tag+0x113>
    39e2:	8d b6 00 00 00 00    	lea    0x0(%esi),%esi
    39e8:	0f b6 3c 02          	movzbl (%edx,%eax,1),%edi
    39ec:	8d 0c c5 00 00 00 00 	lea    0x0(,%eax,8),%ecx
    39f3:	81 e7 ff 00 00 00    	and    $0xff,%edi
    39f9:	d3 e7                	shl    %cl,%edi
    39fb:	40                   	inc    %eax
    39fc:	09 fe                	or     %edi,%esi
    39fe:	39 c3                	cmp    %eax,%ebx
    3a00:	75 e6                	jne    39e8 <usb_hid_report_parse_global_tag+0xa8>
    3a02:	8d 0c c5 00 00 00 00 	lea    0x0(,%eax,8),%ecx
    3a09:	bf 01 00 00 00       	mov    $0x1,%edi
    3a0e:	89 4d f0             	mov    %ecx,-0x10(%ebp)
    3a11:	49                   	dec    %ecx
    3a12:	d3 e7                	shl    %cl,%edi
    3a14:	85 f7                	test   %esi,%edi
    3a16:	bf 00 00 00 00       	mov    $0x0,%edi
    3a1b:	0f 84 4f 03 00 00    	je     3d70 <usb_hid_report_parse_global_tag+0x430>
    3a21:	31 db                	xor    %ebx,%ebx
    3a23:	90                   	nop
    3a24:	8d 74 26 00          	lea    0x0(%esi,%eiz,1),%esi
    3a28:	0f b6 34 1a          	movzbl (%edx,%ebx,1),%esi
    3a2c:	8d 0c dd 00 00 00 00 	lea    0x0(,%ebx,8),%ecx
    3a33:	81 e6 ff 00 00 00    	and    $0xff,%esi
    3a39:	d3 e6                	shl    %cl,%esi
    3a3b:	43                   	inc    %ebx
    3a3c:	09 f7                	or     %esi,%edi
    3a3e:	39 d8                	cmp    %ebx,%eax
    3a40:	75 e6                	jne    3a28 <usb_hid_report_parse_global_tag+0xe8>
    3a42:	b8 01 00 00 00       	mov    $0x1,%eax
    3a47:	8a 4d f0             	mov    -0x10(%ebp),%cl
    3a4a:	d3 e0                	shl    %cl,%eax
    3a4c:	48                   	dec    %eax
    3a4d:	f7 df                	neg    %edi
    3a4f:	21 c7                	and    %eax,%edi
    3a51:	f7 df                	neg    %edi
    3a53:	8b 45 14             	mov    0x14(%ebp),%eax
    3a56:	89 b8 14 00 04 00    	mov    %edi,0x40014(%eax)
    3a5c:	31 c0                	xor    %eax,%eax
    3a5e:	e9 3a ff ff ff       	jmp    399d <usb_hid_report_parse_global_tag+0x5d>
    3a63:	90                   	nop
    3a64:	8d 74 26 00          	lea    0x0(%esi,%eiz,1),%esi
    3a68:	31 ff                	xor    %edi,%edi
    3a6a:	31 c0                	xor    %eax,%eax
    3a6c:	85 db                	test   %ebx,%ebx
    3a6e:	74 1a                	je     3a8a <usb_hid_report_parse_global_tag+0x14a>
    3a70:	0f b6 34 02          	movzbl (%edx,%eax,1),%esi
    3a74:	8d 0c c5 00 00 00 00 	lea    0x0(,%eax,8),%ecx
    3a7b:	81 e6 ff 00 00 00    	and    $0xff,%esi
    3a81:	d3 e6                	shl    %cl,%esi
    3a83:	40                   	inc    %eax
    3a84:	09 f7                	or     %esi,%edi
    3a86:	39 c3                	cmp    %eax,%ebx
    3a88:	75 e6                	jne    3a70 <usb_hid_report_parse_global_tag+0x130>
    3a8a:	8b 45 14             	mov    0x14(%ebp),%eax
    3a8d:	89 b8 28 00 04 00    	mov    %edi,0x40028(%eax)
    3a93:	31 c0                	xor    %eax,%eax
    3a95:	e9 03 ff ff ff       	jmp    399d <usb_hid_report_parse_global_tag+0x5d>
    3a9a:	8d b6 00 00 00 00    	lea    0x0(%esi),%esi
    3aa0:	31 ff                	xor    %edi,%edi
    3aa2:	31 c0                	xor    %eax,%eax
    3aa4:	85 db                	test   %ebx,%ebx
    3aa6:	74 1a                	je     3ac2 <usb_hid_report_parse_global_tag+0x182>
    3aa8:	0f b6 34 02          	movzbl (%edx,%eax,1),%esi
    3aac:	8d 0c c5 00 00 00 00 	lea    0x0(,%eax,8),%ecx
    3ab3:	81 e6 ff 00 00 00    	and    $0xff,%esi
    3ab9:	d3 e6                	shl    %cl,%esi
    3abb:	40                   	inc    %eax
    3abc:	09 f7                	or     %esi,%edi
    3abe:	39 c3                	cmp    %eax,%ebx
    3ac0:	75 e6                	jne    3aa8 <usb_hid_report_parse_global_tag+0x168>
    3ac2:	8b 45 14             	mov    0x14(%ebp),%eax
    3ac5:	89 b8 2c 00 04 00    	mov    %edi,0x4002c(%eax)
    3acb:	31 c0                	xor    %eax,%eax
    3acd:	e9 cb fe ff ff       	jmp    399d <usb_hid_report_parse_global_tag+0x5d>
    3ad2:	8d b6 00 00 00 00    	lea    0x0(%esi),%esi
    3ad8:	31 f6                	xor    %esi,%esi
    3ada:	31 c0                	xor    %eax,%eax
    3adc:	31 ff                	xor    %edi,%edi
    3ade:	85 db                	test   %ebx,%ebx
    3ae0:	74 71                	je     3b53 <usb_hid_report_parse_global_tag+0x213>
    3ae2:	8d b6 00 00 00 00    	lea    0x0(%esi),%esi
    3ae8:	0f b6 3c 02          	movzbl (%edx,%eax,1),%edi
    3aec:	8d 0c c5 00 00 00 00 	lea    0x0(,%eax,8),%ecx
    3af3:	81 e7 ff 00 00 00    	and    $0xff,%edi
    3af9:	d3 e7                	shl    %cl,%edi
    3afb:	40                   	inc    %eax
    3afc:	09 fe                	or     %edi,%esi
    3afe:	39 c3                	cmp    %eax,%ebx
    3b00:	75 e6                	jne    3ae8 <usb_hid_report_parse_global_tag+0x1a8>
    3b02:	8d 0c c5 00 00 00 00 	lea    0x0(,%eax,8),%ecx
    3b09:	bf 01 00 00 00       	mov    $0x1,%edi
    3b0e:	89 4d f0             	mov    %ecx,-0x10(%ebp)
    3b11:	49                   	dec    %ecx
    3b12:	d3 e7                	shl    %cl,%edi
    3b14:	85 f7                	test   %esi,%edi
    3b16:	bf 00 00 00 00       	mov    $0x0,%edi
    3b1b:	0f 84 ff 01 00 00    	je     3d20 <usb_hid_report_parse_global_tag+0x3e0>
    3b21:	31 db                	xor    %ebx,%ebx
    3b23:	90                   	nop
    3b24:	8d 74 26 00          	lea    0x0(%esi,%eiz,1),%esi
    3b28:	0f b6 34 1a          	movzbl (%edx,%ebx,1),%esi
    3b2c:	8d 0c dd 00 00 00 00 	lea    0x0(,%ebx,8),%ecx
    3b33:	81 e6 ff 00 00 00    	and    $0xff,%esi
    3b39:	d3 e6                	shl    %cl,%esi
    3b3b:	43                   	inc    %ebx
    3b3c:	09 f7                	or     %esi,%edi
    3b3e:	39 d8                	cmp    %ebx,%eax
    3b40:	75 e6                	jne    3b28 <usb_hid_report_parse_global_tag+0x1e8>
    3b42:	b8 01 00 00 00       	mov    $0x1,%eax
    3b47:	8a 4d f0             	mov    -0x10(%ebp),%cl
    3b4a:	d3 e0                	shl    %cl,%eax
    3b4c:	48                   	dec    %eax
    3b4d:	f7 df                	neg    %edi
    3b4f:	21 c7                	and    %eax,%edi
    3b51:	f7 df                	neg    %edi
    3b53:	8b 45 14             	mov    0x14(%ebp),%eax
    3b56:	89 b8 48 00 04 00    	mov    %edi,0x40048(%eax)
    3b5c:	31 c0                	xor    %eax,%eax
    3b5e:	e9 3a fe ff ff       	jmp    399d <usb_hid_report_parse_global_tag+0x5d>
    3b63:	90                   	nop
    3b64:	8d 74 26 00          	lea    0x0(%esi,%eiz,1),%esi
    3b68:	31 ff                	xor    %edi,%edi
    3b6a:	31 c0                	xor    %eax,%eax
    3b6c:	85 db                	test   %ebx,%ebx
    3b6e:	74 1a                	je     3b8a <usb_hid_report_parse_global_tag+0x24a>
    3b70:	0f b6 34 02          	movzbl (%edx,%eax,1),%esi
    3b74:	8d 0c c5 00 00 00 00 	lea    0x0(,%eax,8),%ecx
    3b7b:	81 e6 ff 00 00 00    	and    $0xff,%esi
    3b81:	d3 e6                	shl    %cl,%esi
    3b83:	40                   	inc    %eax
    3b84:	09 f7                	or     %esi,%edi
    3b86:	39 c3                	cmp    %eax,%ebx
    3b88:	75 e6                	jne    3b70 <usb_hid_report_parse_global_tag+0x230>
    3b8a:	8b 45 14             	mov    0x14(%ebp),%eax
    3b8d:	89 b8 1c 00 04 00    	mov    %edi,0x4001c(%eax)
    3b93:	31 c0                	xor    %eax,%eax
    3b95:	e9 03 fe ff ff       	jmp    399d <usb_hid_report_parse_global_tag+0x5d>
    3b9a:	8d b6 00 00 00 00    	lea    0x0(%esi),%esi
    3ba0:	31 ff                	xor    %edi,%edi
    3ba2:	31 c0                	xor    %eax,%eax
    3ba4:	85 db                	test   %ebx,%ebx
    3ba6:	74 1a                	je     3bc2 <usb_hid_report_parse_global_tag+0x282>
    3ba8:	0f b6 34 02          	movzbl (%edx,%eax,1),%esi
    3bac:	8d 0c c5 00 00 00 00 	lea    0x0(,%eax,8),%ecx
    3bb3:	81 e6 ff 00 00 00    	and    $0xff,%esi
    3bb9:	d3 e6                	shl    %cl,%esi
    3bbb:	40                   	inc    %eax
    3bbc:	09 f7                	or     %esi,%edi
    3bbe:	39 c3                	cmp    %eax,%ebx
    3bc0:	75 e6                	jne    3ba8 <usb_hid_report_parse_global_tag+0x268>
    3bc2:	8b 45 14             	mov    0x14(%ebp),%eax
    3bc5:	89 38                	mov    %edi,(%eax)
    3bc7:	b8 03 00 00 00       	mov    $0x3,%eax
    3bcc:	e9 cc fd ff ff       	jmp    399d <usb_hid_report_parse_global_tag+0x5d>
    3bd1:	8d b4 26 00 00 00 00 	lea    0x0(%esi,%eiz,1),%esi
    3bd8:	31 f6                	xor    %esi,%esi
    3bda:	31 c0                	xor    %eax,%eax
    3bdc:	31 ff                	xor    %edi,%edi
    3bde:	85 db                	test   %ebx,%ebx
    3be0:	74 71                	je     3c53 <usb_hid_report_parse_global_tag+0x313>
    3be2:	8d b6 00 00 00 00    	lea    0x0(%esi),%esi
    3be8:	0f b6 3c 02          	movzbl (%edx,%eax,1),%edi
    3bec:	8d 0c c5 00 00 00 00 	lea    0x0(,%eax,8),%ecx
    3bf3:	81 e7 ff 00 00 00    	and    $0xff,%edi
    3bf9:	d3 e7                	shl    %cl,%edi
    3bfb:	40                   	inc    %eax
    3bfc:	09 fe                	or     %edi,%esi
    3bfe:	39 c3                	cmp    %eax,%ebx
    3c00:	75 e6                	jne    3be8 <usb_hid_report_parse_global_tag+0x2a8>
    3c02:	8d 0c c5 00 00 00 00 	lea    0x0(,%eax,8),%ecx
    3c09:	bf 01 00 00 00       	mov    $0x1,%edi
    3c0e:	89 4d f0             	mov    %ecx,-0x10(%ebp)
    3c11:	49                   	dec    %ecx
    3c12:	d3 e7                	shl    %cl,%edi
    3c14:	85 f7                	test   %esi,%edi
    3c16:	bf 00 00 00 00       	mov    $0x0,%edi
    3c1b:	0f 84 d7 00 00 00    	je     3cf8 <usb_hid_report_parse_global_tag+0x3b8>
    3c21:	31 db                	xor    %ebx,%ebx
    3c23:	90                   	nop
    3c24:	8d 74 26 00          	lea    0x0(%esi,%eiz,1),%esi
    3c28:	0f b6 34 1a          	movzbl (%edx,%ebx,1),%esi
    3c2c:	8d 0c dd 00 00 00 00 	lea    0x0(,%ebx,8),%ecx
    3c33:	81 e6 ff 00 00 00    	and    $0xff,%esi
    3c39:	d3 e6                	shl    %cl,%esi
    3c3b:	43                   	inc    %ebx
    3c3c:	09 f7                	or     %esi,%edi
    3c3e:	39 d8                	cmp    %ebx,%eax
    3c40:	75 e6                	jne    3c28 <usb_hid_report_parse_global_tag+0x2e8>
    3c42:	b8 01 00 00 00       	mov    $0x1,%eax
    3c47:	8a 4d f0             	mov    -0x10(%ebp),%cl
    3c4a:	d3 e0                	shl    %cl,%eax
    3c4c:	48                   	dec    %eax
    3c4d:	f7 df                	neg    %edi
    3c4f:	21 c7                	and    %eax,%edi
    3c51:	f7 df                	neg    %edi
    3c53:	8b 45 14             	mov    0x14(%ebp),%eax
    3c56:	89 b8 18 00 04 00    	mov    %edi,0x40018(%eax)
    3c5c:	31 c0                	xor    %eax,%eax
    3c5e:	e9 3a fd ff ff       	jmp    399d <usb_hid_report_parse_global_tag+0x5d>
    3c63:	90                   	nop
    3c64:	8d 74 26 00          	lea    0x0(%esi,%eiz,1),%esi
    3c68:	31 f6                	xor    %esi,%esi
    3c6a:	31 c0                	xor    %eax,%eax
    3c6c:	31 ff                	xor    %edi,%edi
    3c6e:	85 db                	test   %ebx,%ebx
    3c70:	74 71                	je     3ce3 <usb_hid_report_parse_global_tag+0x3a3>
    3c72:	8d b6 00 00 00 00    	lea    0x0(%esi),%esi
    3c78:	0f b6 3c 02          	movzbl (%edx,%eax,1),%edi
    3c7c:	8d 0c c5 00 00 00 00 	lea    0x0(,%eax,8),%ecx
    3c83:	81 e7 ff 00 00 00    	and    $0xff,%edi
    3c89:	d3 e7                	shl    %cl,%edi
    3c8b:	40                   	inc    %eax
    3c8c:	09 fe                	or     %edi,%esi
    3c8e:	39 c3                	cmp    %eax,%ebx
    3c90:	75 e6                	jne    3c78 <usb_hid_report_parse_global_tag+0x338>
    3c92:	8d 0c c5 00 00 00 00 	lea    0x0(,%eax,8),%ecx
    3c99:	bf 01 00 00 00       	mov    $0x1,%edi
    3c9e:	89 4d f0             	mov    %ecx,-0x10(%ebp)
    3ca1:	49                   	dec    %ecx
    3ca2:	d3 e7                	shl    %cl,%edi
    3ca4:	85 f7                	test   %esi,%edi
    3ca6:	bf 00 00 00 00       	mov    $0x0,%edi
    3cab:	0f 84 97 00 00 00    	je     3d48 <usb_hid_report_parse_global_tag+0x408>
    3cb1:	31 db                	xor    %ebx,%ebx
    3cb3:	90                   	nop
    3cb4:	8d 74 26 00          	lea    0x0(%esi,%eiz,1),%esi
    3cb8:	0f b6 34 1a          	movzbl (%edx,%ebx,1),%esi
    3cbc:	8d 0c dd 00 00 00 00 	lea    0x0(,%ebx,8),%ecx
    3cc3:	81 e6 ff 00 00 00    	and    $0xff,%esi
    3cc9:	d3 e6                	shl    %cl,%esi
    3ccb:	43                   	inc    %ebx
    3ccc:	09 f7                	or     %esi,%edi
    3cce:	39 d8                	cmp    %ebx,%eax
    3cd0:	75 e6                	jne    3cb8 <usb_hid_report_parse_global_tag+0x378>
    3cd2:	b8 01 00 00 00       	mov    $0x1,%eax
    3cd7:	8a 4d f0             	mov    -0x10(%ebp),%cl
    3cda:	d3 e0                	shl    %cl,%eax
    3cdc:	48                   	dec    %eax
    3cdd:	f7 df                	neg    %edi
    3cdf:	21 c7                	and    %eax,%edi
    3ce1:	f7 df                	neg    %edi
    3ce3:	8b 45 14             	mov    0x14(%ebp),%eax
    3ce6:	89 b8 4c 00 04 00    	mov    %edi,0x4004c(%eax)
    3cec:	31 c0                	xor    %eax,%eax
    3cee:	e9 aa fc ff ff       	jmp    399d <usb_hid_report_parse_global_tag+0x5d>
    3cf3:	90                   	nop
    3cf4:	8d 74 26 00          	lea    0x0(%esi,%eiz,1),%esi
    3cf8:	31 c0                	xor    %eax,%eax
    3cfa:	8d b6 00 00 00 00    	lea    0x0(%esi),%esi
    3d00:	0f b6 34 02          	movzbl (%edx,%eax,1),%esi
    3d04:	8d 0c c5 00 00 00 00 	lea    0x0(,%eax,8),%ecx
    3d0b:	81 e6 ff 00 00 00    	and    $0xff,%esi
    3d11:	d3 e6                	shl    %cl,%esi
    3d13:	40                   	inc    %eax
    3d14:	09 f7                	or     %esi,%edi
    3d16:	39 c3                	cmp    %eax,%ebx
    3d18:	75 e6                	jne    3d00 <usb_hid_report_parse_global_tag+0x3c0>
    3d1a:	e9 34 ff ff ff       	jmp    3c53 <usb_hid_report_parse_global_tag+0x313>
    3d1f:	90                   	nop
    3d20:	31 c0                	xor    %eax,%eax
    3d22:	8d b6 00 00 00 00    	lea    0x0(%esi),%esi
    3d28:	0f b6 34 02          	movzbl (%edx,%eax,1),%esi
    3d2c:	8d 0c c5 00 00 00 00 	lea    0x0(,%eax,8),%ecx
    3d33:	81 e6 ff 00 00 00    	and    $0xff,%esi
    3d39:	d3 e6                	shl    %cl,%esi
    3d3b:	40                   	inc    %eax
    3d3c:	09 f7                	or     %esi,%edi
    3d3e:	39 c3                	cmp    %eax,%ebx
    3d40:	75 e6                	jne    3d28 <usb_hid_report_parse_global_tag+0x3e8>
    3d42:	e9 0c fe ff ff       	jmp    3b53 <usb_hid_report_parse_global_tag+0x213>
    3d47:	90                   	nop
    3d48:	31 c0                	xor    %eax,%eax
    3d4a:	8d b6 00 00 00 00    	lea    0x0(%esi),%esi
    3d50:	0f b6 34 02          	movzbl (%edx,%eax,1),%esi
    3d54:	8d 0c c5 00 00 00 00 	lea    0x0(,%eax,8),%ecx
    3d5b:	81 e6 ff 00 00 00    	and    $0xff,%esi
    3d61:	d3 e6                	shl    %cl,%esi
    3d63:	40                   	inc    %eax
    3d64:	09 f7                	or     %esi,%edi
    3d66:	39 c3                	cmp    %eax,%ebx
    3d68:	75 e6                	jne    3d50 <usb_hid_report_parse_global_tag+0x410>
    3d6a:	e9 74 ff ff ff       	jmp    3ce3 <usb_hid_report_parse_global_tag+0x3a3>
    3d6f:	90                   	nop
    3d70:	31 c0                	xor    %eax,%eax
    3d72:	8d b6 00 00 00 00    	lea    0x0(%esi),%esi
    3d78:	0f b6 34 02          	movzbl (%edx,%eax,1),%esi
    3d7c:	8d 0c c5 00 00 00 00 	lea    0x0(,%eax,8),%ecx
    3d83:	81 e6 ff 00 00 00    	and    $0xff,%esi
    3d89:	d3 e6                	shl    %cl,%esi
    3d8b:	40                   	inc    %eax
    3d8c:	09 f7                	or     %esi,%edi
    3d8e:	39 c3                	cmp    %eax,%ebx
    3d90:	75 e6                	jne    3d78 <usb_hid_report_parse_global_tag+0x438>
    3d92:	e9 bc fc ff ff       	jmp    3a53 <usb_hid_report_parse_global_tag+0x113>
    3d97:	b8 02 00 00 00       	mov    $0x2,%eax
    3d9c:	e9 fc fb ff ff       	jmp    399d <usb_hid_report_parse_global_tag+0x5d>
    3da1:	eb 0d                	jmp    3db0 <usb_hid_report_parse_tag>
    3da3:	90                   	nop
    3da4:	90                   	nop
    3da5:	90                   	nop
    3da6:	90                   	nop
    3da7:	90                   	nop
    3da8:	90                   	nop
    3da9:	90                   	nop
    3daa:	90                   	nop
    3dab:	90                   	nop
    3dac:	90                   	nop
    3dad:	90                   	nop
    3dae:	90                   	nop
    3daf:	90                   	nop

00003db0 <usb_hid_report_parse_tag>:
    3db0:	55                   	push   %ebp
    3db1:	89 e5                	mov    %esp,%ebp
    3db3:	57                   	push   %edi
    3db4:	56                   	push   %esi
    3db5:	53                   	push   %ebx
    3db6:	83 ec 1c             	sub    $0x1c,%esp
    3db9:	8b 75 0c             	mov    0xc(%ebp),%esi
    3dbc:	8b 45 08             	mov    0x8(%ebp),%eax
    3dbf:	8b 7d 18             	mov    0x18(%ebp),%edi
    3dc2:	89 f1                	mov    %esi,%ecx
    3dc4:	89 45 e0             	mov    %eax,-0x20(%ebp)
    3dc7:	8b 55 10             	mov    0x10(%ebp),%edx
    3dca:	8b 45 14             	mov    0x14(%ebp),%eax
    3dcd:	89 7d e4             	mov    %edi,-0x1c(%ebp)
    3dd0:	8b 5d 1c             	mov    0x1c(%ebp),%ebx
    3dd3:	80 f9 01             	cmp    $0x1,%cl
    3dd6:	74 40                	je     3e18 <usb_hid_report_parse_tag+0x68>
    3dd8:	72 1e                	jb     3df8 <usb_hid_report_parse_tag+0x48>
    3dda:	80 f9 02             	cmp    $0x2,%cl
    3ddd:	75 29                	jne    3e08 <usb_hid_report_parse_tag+0x58>
    3ddf:	8b 7d e0             	mov    -0x20(%ebp),%edi
    3de2:	89 f9                	mov    %edi,%ecx
    3de4:	80 f9 0a             	cmp    $0xa,%cl
    3de7:	77 1f                	ja     3e08 <usb_hid_report_parse_tag+0x58>
    3de9:	81 e1 ff 00 00 00    	and    $0xff,%ecx
    3def:	ff 24 8d 4c 51 01 00 	jmp    *0x1514c(,%ecx,4)
    3df6:	66 90                	xchg   %ax,%ax
    3df8:	8a 45 e0             	mov    -0x20(%ebp),%al
    3dfb:	83 e8 08             	sub    $0x8,%eax
    3dfe:	3c 04                	cmp    $0x4,%al
    3e00:	76 36                	jbe    3e38 <usb_hid_report_parse_tag+0x88>
    3e02:	8d b6 00 00 00 00    	lea    0x0(%esi),%esi
    3e08:	b8 02 00 00 00       	mov    $0x2,%eax
    3e0d:	8d 65 f4             	lea    -0xc(%ebp),%esp
    3e10:	5b                   	pop    %ebx
    3e11:	5e                   	pop    %esi
    3e12:	5f                   	pop    %edi
    3e13:	5d                   	pop    %ebp
    3e14:	c3                   	ret    
    3e15:	8d 76 00             	lea    0x0(%esi),%esi
    3e18:	31 c9                	xor    %ecx,%ecx
    3e1a:	89 5d 18             	mov    %ebx,0x18(%ebp)
    3e1d:	8a 4d e0             	mov    -0x20(%ebp),%cl
    3e20:	89 7d 14             	mov    %edi,0x14(%ebp)
    3e23:	89 45 10             	mov    %eax,0x10(%ebp)
    3e26:	89 55 0c             	mov    %edx,0xc(%ebp)
    3e29:	89 4d 08             	mov    %ecx,0x8(%ebp)
    3e2c:	8d 65 f4             	lea    -0xc(%ebp),%esp
    3e2f:	5b                   	pop    %ebx
    3e30:	5e                   	pop    %esi
    3e31:	5f                   	pop    %edi
    3e32:	5d                   	pop    %ebp
    3e33:	e9 08 fb ff ff       	jmp    3940 <usb_hid_report_parse_global_tag>
    3e38:	31 c9                	xor    %ecx,%ecx
    3e3a:	88 c1                	mov    %al,%cl
    3e3c:	ff 24 8d 78 51 01 00 	jmp    *0x15178(,%ecx,4)
    3e43:	90                   	nop
    3e44:	8d 74 26 00          	lea    0x0(%esi,%eiz,1),%esi
    3e48:	8b 43 14             	mov    0x14(%ebx),%eax
    3e4b:	8d 4b 10             	lea    0x10(%ebx),%ecx
    3e4e:	39 c8                	cmp    %ecx,%eax
    3e50:	0f 84 3a 04 00 00    	je     4290 <usb_hid_report_parse_tag+0x4e0>
    3e56:	83 e8 0c             	sub    $0xc,%eax
    3e59:	8a 12                	mov    (%edx),%dl
    3e5b:	88 50 08             	mov    %dl,0x8(%eax)
    3e5e:	56                   	push   %esi
    3e5f:	8b 87 04 00 04 00    	mov    0x40004(%edi),%eax
    3e65:	66 8b 4c 87 06       	mov    0x6(%edi,%eax,4),%cx
    3e6a:	81 e1 ff ff 00 00    	and    $0xffff,%ecx
    3e70:	51                   	push   %ecx
    3e71:	6a 01                	push   $0x1
    3e73:	53                   	push   %ebx
    3e74:	e8 97 1e 00 00       	call   5d10 <usb_hid_report_set_last_item>
    3e79:	8b 87 04 00 04 00    	mov    0x40004(%edi),%eax
    3e7f:	83 c4 0c             	add    $0xc,%esp
    3e82:	8b 4c 87 04          	mov    0x4(%edi,%eax,4),%ecx
    3e86:	81 e1 ff ff 00 00    	and    $0xffff,%ecx
    3e8c:	51                   	push   %ecx
    3e8d:	6a 02                	push   $0x2
    3e8f:	53                   	push   %ebx
    3e90:	e8 7b 1e 00 00       	call   5d10 <usb_hid_report_set_last_item>
    3e95:	8b 87 04 00 04 00    	mov    0x40004(%edi),%eax
    3e9b:	83 c4 0c             	add    $0xc,%esp
    3e9e:	8b 44 87 04          	mov    0x4(%edi,%eax,4),%eax
    3ea2:	50                   	push   %eax
    3ea3:	8b 87 08 00 04 00    	mov    0x40008(%edi),%eax
    3ea9:	50                   	push   %eax
    3eaa:	53                   	push   %ebx
    3eab:	e8 70 1d 00 00       	call   5c20 <usb_hid_report_path_append_item>
    3eb0:	89 3c 24             	mov    %edi,(%esp)
    3eb3:	e8 d8 1c 00 00       	call   5b90 <usb_hid_report_reset_local_items>
    3eb8:	83 c4 10             	add    $0x10,%esp
    3ebb:	b8 02 00 00 00       	mov    $0x2,%eax
    3ec0:	e9 48 ff ff ff       	jmp    3e0d <usb_hid_report_parse_tag+0x5d>
    3ec5:	8d 76 00             	lea    0x0(%esi),%esi
    3ec8:	8a 02                	mov    (%edx),%al
    3eca:	8b 55 e4             	mov    -0x1c(%ebp),%edx
    3ecd:	88 45 e0             	mov    %al,-0x20(%ebp)
    3ed0:	88 82 50 00 04 00    	mov    %al,0x40050(%edx)
    3ed6:	b8 01 00 00 00       	mov    $0x1,%eax
    3edb:	e9 2d ff ff ff       	jmp    3e0d <usb_hid_report_parse_tag+0x5d>
    3ee0:	83 ec 0c             	sub    $0xc,%esp
    3ee3:	53                   	push   %ebx
    3ee4:	e8 87 1d 00 00       	call   5c70 <usb_hid_report_remove_last_item>
    3ee9:	83 c4 10             	add    $0x10,%esp
    3eec:	b8 02 00 00 00       	mov    $0x2,%eax
    3ef1:	e9 17 ff ff ff       	jmp    3e0d <usb_hid_report_parse_tag+0x5d>
    3ef6:	66 90                	xchg   %ax,%ax
    3ef8:	31 ff                	xor    %edi,%edi
    3efa:	31 db                	xor    %ebx,%ebx
    3efc:	85 c0                	test   %eax,%eax
    3efe:	74 1a                	je     3f1a <usb_hid_report_parse_tag+0x16a>
    3f00:	0f b6 34 1a          	movzbl (%edx,%ebx,1),%esi
    3f04:	8d 0c dd 00 00 00 00 	lea    0x0(,%ebx,8),%ecx
    3f0b:	81 e6 ff 00 00 00    	and    $0xff,%esi
    3f11:	d3 e6                	shl    %cl,%esi
    3f13:	43                   	inc    %ebx
    3f14:	09 f7                	or     %esi,%edi
    3f16:	39 d8                	cmp    %ebx,%eax
    3f18:	75 e6                	jne    3f00 <usb_hid_report_parse_tag+0x150>
    3f1a:	8b 45 e4             	mov    -0x1c(%ebp),%eax
    3f1d:	89 b8 64 00 04 00    	mov    %edi,0x40064(%eax)
    3f23:	31 c0                	xor    %eax,%eax
    3f25:	e9 e3 fe ff ff       	jmp    3e0d <usb_hid_report_parse_tag+0x5d>
    3f2a:	8d b6 00 00 00 00    	lea    0x0(%esi),%esi
    3f30:	8b 7d e4             	mov    -0x1c(%ebp),%edi
    3f33:	8b 8f 64 00 04 00    	mov    0x40064(%edi),%ecx
    3f39:	85 c9                	test   %ecx,%ecx
    3f3b:	74 11                	je     3f4e <usb_hid_report_parse_tag+0x19e>
    3f3d:	49                   	dec    %ecx
    3f3e:	0f 85 d8 02 00 00    	jne    421c <usb_hid_report_parse_tag+0x46c>
    3f44:	c7 87 64 00 04 00 02 	movl   $0x2,0x40064(%edi)
    3f4b:	00 00 00 
    3f4e:	8b bf 08 00 04 00    	mov    0x40008(%edi),%edi
    3f54:	c1 e7 10             	shl    $0x10,%edi
    3f57:	89 7d e0             	mov    %edi,-0x20(%ebp)
    3f5a:	31 ff                	xor    %edi,%edi
    3f5c:	85 c0                	test   %eax,%eax
    3f5e:	74 22                	je     3f82 <usb_hid_report_parse_tag+0x1d2>
    3f60:	31 db                	xor    %ebx,%ebx
    3f62:	8d b6 00 00 00 00    	lea    0x0(%esi),%esi
    3f68:	0f b6 34 1a          	movzbl (%edx,%ebx,1),%esi
    3f6c:	8d 0c dd 00 00 00 00 	lea    0x0(,%ebx,8),%ecx
    3f73:	81 e6 ff 00 00 00    	and    $0xff,%esi
    3f79:	d3 e6                	shl    %cl,%esi
    3f7b:	43                   	inc    %ebx
    3f7c:	09 f7                	or     %esi,%edi
    3f7e:	39 d8                	cmp    %ebx,%eax
    3f80:	75 e6                	jne    3f68 <usb_hid_report_parse_tag+0x1b8>
    3f82:	8b 55 e4             	mov    -0x1c(%ebp),%edx
    3f85:	8b 4d e0             	mov    -0x20(%ebp),%ecx
    3f88:	01 cf                	add    %ecx,%edi
    3f8a:	8b 82 04 00 04 00    	mov    0x40004(%edx),%eax
    3f90:	89 7c 82 08          	mov    %edi,0x8(%edx,%eax,4)
    3f94:	40                   	inc    %eax
    3f95:	89 82 04 00 04 00    	mov    %eax,0x40004(%edx)
    3f9b:	31 c0                	xor    %eax,%eax
    3f9d:	e9 6b fe ff ff       	jmp    3e0d <usb_hid_report_parse_tag+0x5d>
    3fa2:	8d b6 00 00 00 00    	lea    0x0(%esi),%esi
    3fa8:	83 f8 03             	cmp    $0x3,%eax
    3fab:	0f 84 b3 02 00 00    	je     4264 <usb_hid_report_parse_tag+0x4b4>
    3fb1:	31 ff                	xor    %edi,%edi
    3fb3:	31 db                	xor    %ebx,%ebx
    3fb5:	85 c0                	test   %eax,%eax
    3fb7:	74 21                	je     3fda <usb_hid_report_parse_tag+0x22a>
    3fb9:	8d b4 26 00 00 00 00 	lea    0x0(%esi,%eiz,1),%esi
    3fc0:	0f b6 34 1a          	movzbl (%edx,%ebx,1),%esi
    3fc4:	8d 0c dd 00 00 00 00 	lea    0x0(,%ebx,8),%ecx
    3fcb:	81 e6 ff 00 00 00    	and    $0xff,%esi
    3fd1:	d3 e6                	shl    %cl,%esi
    3fd3:	43                   	inc    %ebx
    3fd4:	09 f7                	or     %esi,%edi
    3fd6:	39 d8                	cmp    %ebx,%eax
    3fd8:	75 e6                	jne    3fc0 <usb_hid_report_parse_tag+0x210>
    3fda:	8b 45 e4             	mov    -0x1c(%ebp),%eax
    3fdd:	89 b8 0c 00 04 00    	mov    %edi,0x4000c(%eax)
    3fe3:	31 c0                	xor    %eax,%eax
    3fe5:	e9 23 fe ff ff       	jmp    3e0d <usb_hid_report_parse_tag+0x5d>
    3fea:	8d b6 00 00 00 00    	lea    0x0(%esi),%esi
    3ff0:	31 ff                	xor    %edi,%edi
    3ff2:	31 db                	xor    %ebx,%ebx
    3ff4:	85 c0                	test   %eax,%eax
    3ff6:	74 1a                	je     4012 <usb_hid_report_parse_tag+0x262>
    3ff8:	0f b6 34 1a          	movzbl (%edx,%ebx,1),%esi
    3ffc:	8d 0c dd 00 00 00 00 	lea    0x0(,%ebx,8),%ecx
    4003:	81 e6 ff 00 00 00    	and    $0xff,%esi
    4009:	d3 e6                	shl    %cl,%esi
    400b:	43                   	inc    %ebx
    400c:	09 f7                	or     %esi,%edi
    400e:	39 d8                	cmp    %ebx,%eax
    4010:	75 e6                	jne    3ff8 <usb_hid_report_parse_tag+0x248>
    4012:	8b 45 e4             	mov    -0x1c(%ebp),%eax
    4015:	89 b8 44 00 04 00    	mov    %edi,0x40044(%eax)
    401b:	31 c0                	xor    %eax,%eax
    401d:	e9 eb fd ff ff       	jmp    3e0d <usb_hid_report_parse_tag+0x5d>
    4022:	8d b6 00 00 00 00    	lea    0x0(%esi),%esi
    4028:	31 ff                	xor    %edi,%edi
    402a:	31 db                	xor    %ebx,%ebx
    402c:	85 c0                	test   %eax,%eax
    402e:	74 1a                	je     404a <usb_hid_report_parse_tag+0x29a>
    4030:	0f b6 34 1a          	movzbl (%edx,%ebx,1),%esi
    4034:	8d 0c dd 00 00 00 00 	lea    0x0(,%ebx,8),%ecx
    403b:	81 e6 ff 00 00 00    	and    $0xff,%esi
    4041:	d3 e6                	shl    %cl,%esi
    4043:	43                   	inc    %ebx
    4044:	09 f7                	or     %esi,%edi
    4046:	39 d8                	cmp    %ebx,%eax
    4048:	75 e6                	jne    4030 <usb_hid_report_parse_tag+0x280>
    404a:	8b 45 e4             	mov    -0x1c(%ebp),%eax
    404d:	89 b8 30 00 04 00    	mov    %edi,0x40030(%eax)
    4053:	31 c0                	xor    %eax,%eax
    4055:	e9 b3 fd ff ff       	jmp    3e0d <usb_hid_report_parse_tag+0x5d>
    405a:	8d b6 00 00 00 00    	lea    0x0(%esi),%esi
    4060:	31 ff                	xor    %edi,%edi
    4062:	31 db                	xor    %ebx,%ebx
    4064:	85 c0                	test   %eax,%eax
    4066:	74 1a                	je     4082 <usb_hid_report_parse_tag+0x2d2>
    4068:	0f b6 34 1a          	movzbl (%edx,%ebx,1),%esi
    406c:	8d 0c dd 00 00 00 00 	lea    0x0(,%ebx,8),%ecx
    4073:	81 e6 ff 00 00 00    	and    $0xff,%esi
    4079:	d3 e6                	shl    %cl,%esi
    407b:	43                   	inc    %ebx
    407c:	09 f7                	or     %esi,%edi
    407e:	39 d8                	cmp    %ebx,%eax
    4080:	75 e6                	jne    4068 <usb_hid_report_parse_tag+0x2b8>
    4082:	8b 45 e4             	mov    -0x1c(%ebp),%eax
    4085:	89 b8 3c 00 04 00    	mov    %edi,0x4003c(%eax)
    408b:	31 c0                	xor    %eax,%eax
    408d:	e9 7b fd ff ff       	jmp    3e0d <usb_hid_report_parse_tag+0x5d>
    4092:	8d b6 00 00 00 00    	lea    0x0(%esi),%esi
    4098:	31 ff                	xor    %edi,%edi
    409a:	31 db                	xor    %ebx,%ebx
    409c:	85 c0                	test   %eax,%eax
    409e:	74 1a                	je     40ba <usb_hid_report_parse_tag+0x30a>
    40a0:	0f b6 34 1a          	movzbl (%edx,%ebx,1),%esi
    40a4:	8d 0c dd 00 00 00 00 	lea    0x0(,%ebx,8),%ecx
    40ab:	81 e6 ff 00 00 00    	and    $0xff,%esi
    40b1:	d3 e6                	shl    %cl,%esi
    40b3:	43                   	inc    %ebx
    40b4:	09 f7                	or     %esi,%edi
    40b6:	39 d8                	cmp    %ebx,%eax
    40b8:	75 e6                	jne    40a0 <usb_hid_report_parse_tag+0x2f0>
    40ba:	8b 45 e4             	mov    -0x1c(%ebp),%eax
    40bd:	89 b8 34 00 04 00    	mov    %edi,0x40034(%eax)
    40c3:	31 c0                	xor    %eax,%eax
    40c5:	e9 43 fd ff ff       	jmp    3e0d <usb_hid_report_parse_tag+0x5d>
    40ca:	8d b6 00 00 00 00    	lea    0x0(%esi),%esi
    40d0:	83 f8 03             	cmp    $0x3,%eax
    40d3:	0f 84 4a 01 00 00    	je     4223 <usb_hid_report_parse_tag+0x473>
    40d9:	31 ff                	xor    %edi,%edi
    40db:	31 db                	xor    %ebx,%ebx
    40dd:	85 c0                	test   %eax,%eax
    40df:	74 21                	je     4102 <usb_hid_report_parse_tag+0x352>
    40e1:	8d b4 26 00 00 00 00 	lea    0x0(%esi,%eiz,1),%esi
    40e8:	0f b6 34 1a          	movzbl (%edx,%ebx,1),%esi
    40ec:	8d 0c dd 00 00 00 00 	lea    0x0(,%ebx,8),%ecx
    40f3:	81 e6 ff 00 00 00    	and    $0xff,%esi
    40f9:	d3 e6                	shl    %cl,%esi
    40fb:	43                   	inc    %ebx
    40fc:	09 f7                	or     %esi,%edi
    40fe:	39 d8                	cmp    %ebx,%eax
    4100:	75 e6                	jne    40e8 <usb_hid_report_parse_tag+0x338>
    4102:	8b 45 e4             	mov    -0x1c(%ebp),%eax
    4105:	89 b8 10 00 04 00    	mov    %edi,0x40010(%eax)
    410b:	8b 90 0c 00 04 00    	mov    0x4000c(%eax),%edx
    4111:	39 fa                	cmp    %edi,%edx
    4113:	7f 5e                	jg     4173 <usb_hid_report_parse_tag+0x3c3>
    4115:	89 c1                	mov    %eax,%ecx
    4117:	8b 40 04             	mov    0x4(%eax),%eax
    411a:	89 c3                	mov    %eax,%ebx
    411c:	c1 e3 10             	shl    $0x10,%ebx
    411f:	8b b1 04 00 04 00    	mov    0x40004(%ecx),%esi
    4125:	66 85 c0             	test   %ax,%ax
    4128:	0f 85 c2 00 00 00    	jne    41f0 <usb_hid_report_parse_tag+0x440>
    412e:	89 f0                	mov    %esi,%eax
    4130:	8b 4d e4             	mov    -0x1c(%ebp),%ecx
    4133:	29 d0                	sub    %edx,%eax
    4135:	8d 5f 01             	lea    0x1(%edi),%ebx
    4138:	89 7d dc             	mov    %edi,-0x24(%ebp)
    413b:	89 55 e0             	mov    %edx,-0x20(%ebp)
    413e:	8d 0c 81             	lea    (%ecx,%eax,4),%ecx
    4141:	8b 7d e4             	mov    -0x1c(%ebp),%edi
    4144:	8d 74 26 00          	lea    0x0(%esi,%eiz,1),%esi
    4148:	8b 87 08 00 04 00    	mov    0x40008(%edi),%eax
    414e:	c1 e0 10             	shl    $0x10,%eax
    4151:	01 d0                	add    %edx,%eax
    4153:	89 44 91 08          	mov    %eax,0x8(%ecx,%edx,4)
    4157:	42                   	inc    %edx
    4158:	39 d3                	cmp    %edx,%ebx
    415a:	75 ec                	jne    4148 <usb_hid_report_parse_tag+0x398>
    415c:	8b 45 e0             	mov    -0x20(%ebp),%eax
    415f:	8b 7d dc             	mov    -0x24(%ebp),%edi
    4162:	29 c7                	sub    %eax,%edi
    4164:	8d 44 37 01          	lea    0x1(%edi,%esi,1),%eax
    4168:	8b 55 e4             	mov    -0x1c(%ebp),%edx
    416b:	89 82 04 00 04 00    	mov    %eax,0x40004(%edx)
    4171:	89 d0                	mov    %edx,%eax
    4173:	66 c7 40 04 00 00    	movw   $0x0,0x4(%eax)
    4179:	31 c0                	xor    %eax,%eax
    417b:	e9 8d fc ff ff       	jmp    3e0d <usb_hid_report_parse_tag+0x5d>
    4180:	31 ff                	xor    %edi,%edi
    4182:	31 db                	xor    %ebx,%ebx
    4184:	85 c0                	test   %eax,%eax
    4186:	74 1a                	je     41a2 <usb_hid_report_parse_tag+0x3f2>
    4188:	0f b6 34 1a          	movzbl (%edx,%ebx,1),%esi
    418c:	8d 0c dd 00 00 00 00 	lea    0x0(,%ebx,8),%ecx
    4193:	81 e6 ff 00 00 00    	and    $0xff,%esi
    4199:	d3 e6                	shl    %cl,%esi
    419b:	43                   	inc    %ebx
    419c:	09 f7                	or     %esi,%edi
    419e:	39 d8                	cmp    %ebx,%eax
    41a0:	75 e6                	jne    4188 <usb_hid_report_parse_tag+0x3d8>
    41a2:	8b 45 e4             	mov    -0x1c(%ebp),%eax
    41a5:	89 b8 38 00 04 00    	mov    %edi,0x40038(%eax)
    41ab:	31 c0                	xor    %eax,%eax
    41ad:	e9 5b fc ff ff       	jmp    3e0d <usb_hid_report_parse_tag+0x5d>
    41b2:	8d b6 00 00 00 00    	lea    0x0(%esi),%esi
    41b8:	31 ff                	xor    %edi,%edi
    41ba:	31 db                	xor    %ebx,%ebx
    41bc:	85 c0                	test   %eax,%eax
    41be:	74 1a                	je     41da <usb_hid_report_parse_tag+0x42a>
    41c0:	0f b6 34 1a          	movzbl (%edx,%ebx,1),%esi
    41c4:	8d 0c dd 00 00 00 00 	lea    0x0(,%ebx,8),%ecx
    41cb:	81 e6 ff 00 00 00    	and    $0xff,%esi
    41d1:	d3 e6                	shl    %cl,%esi
    41d3:	43                   	inc    %ebx
    41d4:	09 f7                	or     %esi,%edi
    41d6:	39 d8                	cmp    %ebx,%eax
    41d8:	75 e6                	jne    41c0 <usb_hid_report_parse_tag+0x410>
    41da:	8b 45 e4             	mov    -0x1c(%ebp),%eax
    41dd:	89 b8 40 00 04 00    	mov    %edi,0x40040(%eax)
    41e3:	31 c0                	xor    %eax,%eax
    41e5:	e9 23 fc ff ff       	jmp    3e0d <usb_hid_report_parse_tag+0x5d>
    41ea:	8d b6 00 00 00 00    	lea    0x0(%esi),%esi
    41f0:	8d 4c 3b 01          	lea    0x1(%ebx,%edi,1),%ecx
    41f4:	8d 04 1a             	lea    (%edx,%ebx,1),%eax
    41f7:	89 4d e0             	mov    %ecx,-0x20(%ebp)
    41fa:	89 f1                	mov    %esi,%ecx
    41fc:	8b 5d e4             	mov    -0x1c(%ebp),%ebx
    41ff:	29 c1                	sub    %eax,%ecx
    4201:	8d 0c 8b             	lea    (%ebx,%ecx,4),%ecx
    4204:	8b 5d e0             	mov    -0x20(%ebp),%ebx
    4207:	90                   	nop
    4208:	89 44 81 08          	mov    %eax,0x8(%ecx,%eax,4)
    420c:	40                   	inc    %eax
    420d:	39 c3                	cmp    %eax,%ebx
    420f:	75 f7                	jne    4208 <usb_hid_report_parse_tag+0x458>
    4211:	29 d7                	sub    %edx,%edi
    4213:	8d 44 37 01          	lea    0x1(%edi,%esi,1),%eax
    4217:	e9 4c ff ff ff       	jmp    4168 <usb_hid_report_parse_tag+0x3b8>
    421c:	31 c0                	xor    %eax,%eax
    421e:	e9 ea fb ff ff       	jmp    3e0d <usb_hid_report_parse_tag+0x5d>
    4223:	31 c9                	xor    %ecx,%ecx
    4225:	8b 7d e4             	mov    -0x1c(%ebp),%edi
    4228:	8a 4a 02             	mov    0x2(%edx),%cl
    422b:	31 db                	xor    %ebx,%ebx
    422d:	66 8b 5f 04          	mov    0x4(%edi),%bx
    4231:	89 c8                	mov    %ecx,%eax
    4233:	c1 e0 10             	shl    $0x10,%eax
    4236:	39 d9                	cmp    %ebx,%ecx
    4238:	75 60                	jne    429a <usb_hid_report_parse_tag+0x4ea>
    423a:	c1 e8 10             	shr    $0x10,%eax
    423d:	89 f9                	mov    %edi,%ecx
    423f:	66 89 47 04          	mov    %ax,0x4(%edi)
    4243:	31 c0                	xor    %eax,%eax
    4245:	0f b6 7a 01          	movzbl 0x1(%edx),%edi
    4249:	81 e7 ff 00 00 00    	and    $0xff,%edi
    424f:	8a 02                	mov    (%edx),%al
    4251:	c1 e7 08             	shl    $0x8,%edi
    4254:	09 c7                	or     %eax,%edi
    4256:	8b 45 e4             	mov    -0x1c(%ebp),%eax
    4259:	89 b9 10 00 04 00    	mov    %edi,0x40010(%ecx)
    425f:	e9 a7 fe ff ff       	jmp    410b <usb_hid_report_parse_tag+0x35b>
    4264:	8b 4d e4             	mov    -0x1c(%ebp),%ecx
    4267:	31 c0                	xor    %eax,%eax
    4269:	8a 42 02             	mov    0x2(%edx),%al
    426c:	66 89 41 04          	mov    %ax,0x4(%ecx)
    4270:	31 c0                	xor    %eax,%eax
    4272:	0f b6 3a             	movzbl (%edx),%edi
    4275:	8a 42 01             	mov    0x1(%edx),%al
    4278:	81 e7 ff 00 00 00    	and    $0xff,%edi
    427e:	c1 e0 08             	shl    $0x8,%eax
    4281:	09 f8                	or     %edi,%eax
    4283:	89 81 0c 00 04 00    	mov    %eax,0x4000c(%ecx)
    4289:	31 c0                	xor    %eax,%eax
    428b:	e9 7d fb ff ff       	jmp    3e0d <usb_hid_report_parse_tag+0x5d>
    4290:	b8 f4 ff ff ff       	mov    $0xfffffff4,%eax
    4295:	e9 bf fb ff ff       	jmp    3e59 <usb_hid_report_parse_tag+0xa9>
    429a:	b8 f2 ff ff ff       	mov    $0xfffffff2,%eax
    429f:	e9 69 fb ff ff       	jmp    3e0d <usb_hid_report_parse_tag+0x5d>
    42a4:	8d b6 00 00 00 00    	lea    0x0(%esi),%esi
    42aa:	8d bf 00 00 00 00    	lea    0x0(%edi),%edi

000042b0 <usb_hid_report_parse_local_tag>:
    42b0:	55                   	push   %ebp
    42b1:	89 e5                	mov    %esp,%ebp
    42b3:	57                   	push   %edi
    42b4:	56                   	push   %esi
    42b5:	53                   	push   %ebx
    42b6:	83 ec 08             	sub    $0x8,%esp
    42b9:	8b 5d 08             	mov    0x8(%ebp),%ebx
    42bc:	8b 55 0c             	mov    0xc(%ebp),%edx
    42bf:	8b 45 10             	mov    0x10(%ebp),%eax
    42c2:	80 fb 0a             	cmp    $0xa,%bl
    42c5:	0f 87 f5 02 00 00    	ja     45c0 <usb_hid_report_parse_local_tag+0x310>
    42cb:	31 c9                	xor    %ecx,%ecx
    42cd:	88 d9                	mov    %bl,%cl
    42cf:	ff 24 8d 8c 51 01 00 	jmp    *0x1518c(,%ecx,4)
    42d6:	66 90                	xchg   %ax,%ax
    42d8:	31 ff                	xor    %edi,%edi
    42da:	31 db                	xor    %ebx,%ebx
    42dc:	85 c0                	test   %eax,%eax
    42de:	74 1a                	je     42fa <usb_hid_report_parse_local_tag+0x4a>
    42e0:	0f b6 34 1a          	movzbl (%edx,%ebx,1),%esi
    42e4:	8d 0c dd 00 00 00 00 	lea    0x0(,%ebx,8),%ecx
    42eb:	81 e6 ff 00 00 00    	and    $0xff,%esi
    42f1:	d3 e6                	shl    %cl,%esi
    42f3:	43                   	inc    %ebx
    42f4:	09 f7                	or     %esi,%edi
    42f6:	39 d8                	cmp    %ebx,%eax
    42f8:	75 e6                	jne    42e0 <usb_hid_report_parse_local_tag+0x30>
    42fa:	8b 45 14             	mov    0x14(%ebp),%eax
    42fd:	89 b8 64 00 04 00    	mov    %edi,0x40064(%eax)
    4303:	31 c0                	xor    %eax,%eax
    4305:	e9 ab 02 00 00       	jmp    45b5 <usb_hid_report_parse_local_tag+0x305>
    430a:	8d b6 00 00 00 00    	lea    0x0(%esi),%esi
    4310:	8b 7d 14             	mov    0x14(%ebp),%edi
    4313:	8b 8f 64 00 04 00    	mov    0x40064(%edi),%ecx
    4319:	85 c9                	test   %ecx,%ecx
    431b:	74 11                	je     432e <usb_hid_report_parse_local_tag+0x7e>
    431d:	49                   	dec    %ecx
    431e:	0f 85 d4 02 00 00    	jne    45f8 <usb_hid_report_parse_local_tag+0x348>
    4324:	c7 87 64 00 04 00 02 	movl   $0x2,0x40064(%edi)
    432b:	00 00 00 
    432e:	8b bf 08 00 04 00    	mov    0x40008(%edi),%edi
    4334:	c1 e7 10             	shl    $0x10,%edi
    4337:	85 c0                	test   %eax,%eax
    4339:	89 7d f0             	mov    %edi,-0x10(%ebp)
    433c:	0f 84 35 03 00 00    	je     4677 <usb_hid_report_parse_local_tag+0x3c7>
    4342:	31 db                	xor    %ebx,%ebx
    4344:	31 ff                	xor    %edi,%edi
    4346:	66 90                	xchg   %ax,%ax
    4348:	0f b6 34 1a          	movzbl (%edx,%ebx,1),%esi
    434c:	8d 0c dd 00 00 00 00 	lea    0x0(,%ebx,8),%ecx
    4353:	81 e6 ff 00 00 00    	and    $0xff,%esi
    4359:	d3 e6                	shl    %cl,%esi
    435b:	43                   	inc    %ebx
    435c:	09 f7                	or     %esi,%edi
    435e:	39 d8                	cmp    %ebx,%eax
    4360:	75 e6                	jne    4348 <usb_hid_report_parse_local_tag+0x98>
    4362:	8b 45 14             	mov    0x14(%ebp),%eax
    4365:	8b 55 14             	mov    0x14(%ebp),%edx
    4368:	8b 75 f0             	mov    -0x10(%ebp),%esi
    436b:	8b 80 04 00 04 00    	mov    0x40004(%eax),%eax
    4371:	01 f7                	add    %esi,%edi
    4373:	89 7c 82 08          	mov    %edi,0x8(%edx,%eax,4)
    4377:	40                   	inc    %eax
    4378:	89 82 04 00 04 00    	mov    %eax,0x40004(%edx)
    437e:	31 c0                	xor    %eax,%eax
    4380:	e9 30 02 00 00       	jmp    45b5 <usb_hid_report_parse_local_tag+0x305>
    4385:	8d 76 00             	lea    0x0(%esi),%esi
    4388:	83 f8 03             	cmp    $0x3,%eax
    438b:	0f 84 b7 02 00 00    	je     4648 <usb_hid_report_parse_local_tag+0x398>
    4391:	31 ff                	xor    %edi,%edi
    4393:	31 db                	xor    %ebx,%ebx
    4395:	85 c0                	test   %eax,%eax
    4397:	74 21                	je     43ba <usb_hid_report_parse_local_tag+0x10a>
    4399:	8d b4 26 00 00 00 00 	lea    0x0(%esi,%eiz,1),%esi
    43a0:	0f b6 34 1a          	movzbl (%edx,%ebx,1),%esi
    43a4:	8d 0c dd 00 00 00 00 	lea    0x0(,%ebx,8),%ecx
    43ab:	81 e6 ff 00 00 00    	and    $0xff,%esi
    43b1:	d3 e6                	shl    %cl,%esi
    43b3:	43                   	inc    %ebx
    43b4:	09 f7                	or     %esi,%edi
    43b6:	39 d8                	cmp    %ebx,%eax
    43b8:	75 e6                	jne    43a0 <usb_hid_report_parse_local_tag+0xf0>
    43ba:	8b 45 14             	mov    0x14(%ebp),%eax
    43bd:	89 b8 0c 00 04 00    	mov    %edi,0x4000c(%eax)
    43c3:	31 c0                	xor    %eax,%eax
    43c5:	e9 eb 01 00 00       	jmp    45b5 <usb_hid_report_parse_local_tag+0x305>
    43ca:	8d b6 00 00 00 00    	lea    0x0(%esi),%esi
    43d0:	31 ff                	xor    %edi,%edi
    43d2:	31 db                	xor    %ebx,%ebx
    43d4:	85 c0                	test   %eax,%eax
    43d6:	74 1a                	je     43f2 <usb_hid_report_parse_local_tag+0x142>
    43d8:	0f b6 34 1a          	movzbl (%edx,%ebx,1),%esi
    43dc:	8d 0c dd 00 00 00 00 	lea    0x0(,%ebx,8),%ecx
    43e3:	81 e6 ff 00 00 00    	and    $0xff,%esi
    43e9:	d3 e6                	shl    %cl,%esi
    43eb:	43                   	inc    %ebx
    43ec:	09 f7                	or     %esi,%edi
    43ee:	39 d8                	cmp    %ebx,%eax
    43f0:	75 e6                	jne    43d8 <usb_hid_report_parse_local_tag+0x128>
    43f2:	8b 45 14             	mov    0x14(%ebp),%eax
    43f5:	89 b8 44 00 04 00    	mov    %edi,0x40044(%eax)
    43fb:	31 c0                	xor    %eax,%eax
    43fd:	e9 b3 01 00 00       	jmp    45b5 <usb_hid_report_parse_local_tag+0x305>
    4402:	8d b6 00 00 00 00    	lea    0x0(%esi),%esi
    4408:	31 ff                	xor    %edi,%edi
    440a:	31 db                	xor    %ebx,%ebx
    440c:	85 c0                	test   %eax,%eax
    440e:	74 1a                	je     442a <usb_hid_report_parse_local_tag+0x17a>
    4410:	0f b6 34 1a          	movzbl (%edx,%ebx,1),%esi
    4414:	8d 0c dd 00 00 00 00 	lea    0x0(,%ebx,8),%ecx
    441b:	81 e6 ff 00 00 00    	and    $0xff,%esi
    4421:	d3 e6                	shl    %cl,%esi
    4423:	43                   	inc    %ebx
    4424:	09 f7                	or     %esi,%edi
    4426:	39 d8                	cmp    %ebx,%eax
    4428:	75 e6                	jne    4410 <usb_hid_report_parse_local_tag+0x160>
    442a:	8b 45 14             	mov    0x14(%ebp),%eax
    442d:	89 b8 3c 00 04 00    	mov    %edi,0x4003c(%eax)
    4433:	31 c0                	xor    %eax,%eax
    4435:	e9 7b 01 00 00       	jmp    45b5 <usb_hid_report_parse_local_tag+0x305>
    443a:	8d b6 00 00 00 00    	lea    0x0(%esi),%esi
    4440:	31 ff                	xor    %edi,%edi
    4442:	31 db                	xor    %ebx,%ebx
    4444:	85 c0                	test   %eax,%eax
    4446:	74 1a                	je     4462 <usb_hid_report_parse_local_tag+0x1b2>
    4448:	0f b6 34 1a          	movzbl (%edx,%ebx,1),%esi
    444c:	8d 0c dd 00 00 00 00 	lea    0x0(,%ebx,8),%ecx
    4453:	81 e6 ff 00 00 00    	and    $0xff,%esi
    4459:	d3 e6                	shl    %cl,%esi
    445b:	43                   	inc    %ebx
    445c:	09 f7                	or     %esi,%edi
    445e:	39 d8                	cmp    %ebx,%eax
    4460:	75 e6                	jne    4448 <usb_hid_report_parse_local_tag+0x198>
    4462:	8b 45 14             	mov    0x14(%ebp),%eax
    4465:	89 b8 34 00 04 00    	mov    %edi,0x40034(%eax)
    446b:	31 c0                	xor    %eax,%eax
    446d:	e9 43 01 00 00       	jmp    45b5 <usb_hid_report_parse_local_tag+0x305>
    4472:	8d b6 00 00 00 00    	lea    0x0(%esi),%esi
    4478:	83 f8 03             	cmp    $0x3,%eax
    447b:	0f 84 7f 01 00 00    	je     4600 <usb_hid_report_parse_local_tag+0x350>
    4481:	31 ff                	xor    %edi,%edi
    4483:	31 db                	xor    %ebx,%ebx
    4485:	85 c0                	test   %eax,%eax
    4487:	74 21                	je     44aa <usb_hid_report_parse_local_tag+0x1fa>
    4489:	8d b4 26 00 00 00 00 	lea    0x0(%esi,%eiz,1),%esi
    4490:	0f b6 34 1a          	movzbl (%edx,%ebx,1),%esi
    4494:	8d 0c dd 00 00 00 00 	lea    0x0(,%ebx,8),%ecx
    449b:	81 e6 ff 00 00 00    	and    $0xff,%esi
    44a1:	d3 e6                	shl    %cl,%esi
    44a3:	43                   	inc    %ebx
    44a4:	09 f7                	or     %esi,%edi
    44a6:	39 d8                	cmp    %ebx,%eax
    44a8:	75 e6                	jne    4490 <usb_hid_report_parse_local_tag+0x1e0>
    44aa:	8b 45 14             	mov    0x14(%ebp),%eax
    44ad:	89 b8 10 00 04 00    	mov    %edi,0x40010(%eax)
    44b3:	8b 90 0c 00 04 00    	mov    0x4000c(%eax),%edx
    44b9:	39 fa                	cmp    %edi,%edx
    44bb:	7f 5b                	jg     4518 <usb_hid_report_parse_local_tag+0x268>
    44bd:	89 c1                	mov    %eax,%ecx
    44bf:	8b 40 04             	mov    0x4(%eax),%eax
    44c2:	8b b1 04 00 04 00    	mov    0x40004(%ecx),%esi
    44c8:	89 c1                	mov    %eax,%ecx
    44ca:	c1 e1 10             	shl    $0x10,%ecx
    44cd:	66 85 c0             	test   %ax,%ax
    44d0:	0f 85 f2 00 00 00    	jne    45c8 <usb_hid_report_parse_local_tag+0x318>
    44d6:	89 f0                	mov    %esi,%eax
    44d8:	8b 4d 14             	mov    0x14(%ebp),%ecx
    44db:	29 d0                	sub    %edx,%eax
    44dd:	8d 5f 01             	lea    0x1(%edi),%ebx
    44e0:	89 7d ec             	mov    %edi,-0x14(%ebp)
    44e3:	89 55 f0             	mov    %edx,-0x10(%ebp)
    44e6:	8d 0c 81             	lea    (%ecx,%eax,4),%ecx
    44e9:	8b 7d 14             	mov    0x14(%ebp),%edi
    44ec:	8d 74 26 00          	lea    0x0(%esi,%eiz,1),%esi
    44f0:	8b 87 08 00 04 00    	mov    0x40008(%edi),%eax
    44f6:	c1 e0 10             	shl    $0x10,%eax
    44f9:	01 d0                	add    %edx,%eax
    44fb:	89 44 91 08          	mov    %eax,0x8(%ecx,%edx,4)
    44ff:	42                   	inc    %edx
    4500:	39 d3                	cmp    %edx,%ebx
    4502:	75 ec                	jne    44f0 <usb_hid_report_parse_local_tag+0x240>
    4504:	46                   	inc    %esi
    4505:	8b 5d f0             	mov    -0x10(%ebp),%ebx
    4508:	8b 7d ec             	mov    -0x14(%ebp),%edi
    450b:	29 de                	sub    %ebx,%esi
    450d:	01 f7                	add    %esi,%edi
    450f:	8b 45 14             	mov    0x14(%ebp),%eax
    4512:	89 b8 04 00 04 00    	mov    %edi,0x40004(%eax)
    4518:	66 c7 40 04 00 00    	movw   $0x0,0x4(%eax)
    451e:	31 c0                	xor    %eax,%eax
    4520:	e9 90 00 00 00       	jmp    45b5 <usb_hid_report_parse_local_tag+0x305>
    4525:	8d 76 00             	lea    0x0(%esi),%esi
    4528:	31 ff                	xor    %edi,%edi
    452a:	31 db                	xor    %ebx,%ebx
    452c:	85 c0                	test   %eax,%eax
    452e:	74 1a                	je     454a <usb_hid_report_parse_local_tag+0x29a>
    4530:	0f b6 34 1a          	movzbl (%edx,%ebx,1),%esi
    4534:	8d 0c dd 00 00 00 00 	lea    0x0(,%ebx,8),%ecx
    453b:	81 e6 ff 00 00 00    	and    $0xff,%esi
    4541:	d3 e6                	shl    %cl,%esi
    4543:	43                   	inc    %ebx
    4544:	09 f7                	or     %esi,%edi
    4546:	39 d8                	cmp    %ebx,%eax
    4548:	75 e6                	jne    4530 <usb_hid_report_parse_local_tag+0x280>
    454a:	8b 45 14             	mov    0x14(%ebp),%eax
    454d:	89 b8 30 00 04 00    	mov    %edi,0x40030(%eax)
    4553:	31 c0                	xor    %eax,%eax
    4555:	eb 5e                	jmp    45b5 <usb_hid_report_parse_local_tag+0x305>
    4557:	90                   	nop
    4558:	31 ff                	xor    %edi,%edi
    455a:	31 db                	xor    %ebx,%ebx
    455c:	85 c0                	test   %eax,%eax
    455e:	74 1a                	je     457a <usb_hid_report_parse_local_tag+0x2ca>
    4560:	0f b6 34 1a          	movzbl (%edx,%ebx,1),%esi
    4564:	8d 0c dd 00 00 00 00 	lea    0x0(,%ebx,8),%ecx
    456b:	81 e6 ff 00 00 00    	and    $0xff,%esi
    4571:	d3 e6                	shl    %cl,%esi
    4573:	43                   	inc    %ebx
    4574:	09 f7                	or     %esi,%edi
    4576:	39 d8                	cmp    %ebx,%eax
    4578:	75 e6                	jne    4560 <usb_hid_report_parse_local_tag+0x2b0>
    457a:	8b 45 14             	mov    0x14(%ebp),%eax
    457d:	89 b8 40 00 04 00    	mov    %edi,0x40040(%eax)
    4583:	31 c0                	xor    %eax,%eax
    4585:	eb 2e                	jmp    45b5 <usb_hid_report_parse_local_tag+0x305>
    4587:	90                   	nop
    4588:	31 ff                	xor    %edi,%edi
    458a:	31 db                	xor    %ebx,%ebx
    458c:	85 c0                	test   %eax,%eax
    458e:	74 1a                	je     45aa <usb_hid_report_parse_local_tag+0x2fa>
    4590:	0f b6 34 1a          	movzbl (%edx,%ebx,1),%esi
    4594:	8d 0c dd 00 00 00 00 	lea    0x0(,%ebx,8),%ecx
    459b:	81 e6 ff 00 00 00    	and    $0xff,%esi
    45a1:	d3 e6                	shl    %cl,%esi
    45a3:	43                   	inc    %ebx
    45a4:	09 f7                	or     %esi,%edi
    45a6:	39 d8                	cmp    %ebx,%eax
    45a8:	75 e6                	jne    4590 <usb_hid_report_parse_local_tag+0x2e0>
    45aa:	8b 45 14             	mov    0x14(%ebp),%eax
    45ad:	89 b8 38 00 04 00    	mov    %edi,0x40038(%eax)
    45b3:	31 c0                	xor    %eax,%eax
    45b5:	5a                   	pop    %edx
    45b6:	59                   	pop    %ecx
    45b7:	5b                   	pop    %ebx
    45b8:	5e                   	pop    %esi
    45b9:	5f                   	pop    %edi
    45ba:	5d                   	pop    %ebp
    45bb:	c3                   	ret    
    45bc:	8d 74 26 00          	lea    0x0(%esi,%eiz,1),%esi
    45c0:	b8 02 00 00 00       	mov    $0x2,%eax
    45c5:	eb ee                	jmp    45b5 <usb_hid_report_parse_local_tag+0x305>
    45c7:	90                   	nop
    45c8:	8d 04 0a             	lea    (%edx,%ecx,1),%eax
    45cb:	8d 4c 39 01          	lea    0x1(%ecx,%edi,1),%ecx
    45cf:	89 4d f0             	mov    %ecx,-0x10(%ebp)
    45d2:	89 f1                	mov    %esi,%ecx
    45d4:	8b 5d 14             	mov    0x14(%ebp),%ebx
    45d7:	29 c1                	sub    %eax,%ecx
    45d9:	8d 0c 8b             	lea    (%ebx,%ecx,4),%ecx
    45dc:	8b 5d f0             	mov    -0x10(%ebp),%ebx
    45df:	90                   	nop
    45e0:	89 44 81 08          	mov    %eax,0x8(%ecx,%eax,4)
    45e4:	40                   	inc    %eax
    45e5:	39 d8                	cmp    %ebx,%eax
    45e7:	75 f7                	jne    45e0 <usb_hid_report_parse_local_tag+0x330>
    45e9:	29 d7                	sub    %edx,%edi
    45eb:	8d 7c 37 01          	lea    0x1(%edi,%esi,1),%edi
    45ef:	e9 1b ff ff ff       	jmp    450f <usb_hid_report_parse_local_tag+0x25f>
    45f4:	8d 74 26 00          	lea    0x0(%esi,%eiz,1),%esi
    45f8:	31 c0                	xor    %eax,%eax
    45fa:	eb b9                	jmp    45b5 <usb_hid_report_parse_local_tag+0x305>
    45fc:	8d 74 26 00          	lea    0x0(%esi,%eiz,1),%esi
    4600:	31 c9                	xor    %ecx,%ecx
    4602:	8b 45 14             	mov    0x14(%ebp),%eax
    4605:	8a 4a 02             	mov    0x2(%edx),%cl
    4608:	31 db                	xor    %ebx,%ebx
    460a:	66 8b 58 04          	mov    0x4(%eax),%bx
    460e:	89 c8                	mov    %ecx,%eax
    4610:	c1 e0 10             	shl    $0x10,%eax
    4613:	39 d9                	cmp    %ebx,%ecx
    4615:	75 67                	jne    467e <usb_hid_report_parse_local_tag+0x3ce>
    4617:	c1 e8 10             	shr    $0x10,%eax
    461a:	8b 7d 14             	mov    0x14(%ebp),%edi
    461d:	66 89 47 04          	mov    %ax,0x4(%edi)
    4621:	31 c0                	xor    %eax,%eax
    4623:	0f b6 7a 01          	movzbl 0x1(%edx),%edi
    4627:	81 e7 ff 00 00 00    	and    $0xff,%edi
    462d:	8a 02                	mov    (%edx),%al
    462f:	c1 e7 08             	shl    $0x8,%edi
    4632:	09 c7                	or     %eax,%edi
    4634:	8b 45 14             	mov    0x14(%ebp),%eax
    4637:	89 b8 10 00 04 00    	mov    %edi,0x40010(%eax)
    463d:	e9 71 fe ff ff       	jmp    44b3 <usb_hid_report_parse_local_tag+0x203>
    4642:	8d b6 00 00 00 00    	lea    0x0(%esi),%esi
    4648:	8b 7d 14             	mov    0x14(%ebp),%edi
    464b:	31 c0                	xor    %eax,%eax
    464d:	8a 42 02             	mov    0x2(%edx),%al
    4650:	66 89 47 04          	mov    %ax,0x4(%edi)
    4654:	31 c0                	xor    %eax,%eax
    4656:	0f b6 3a             	movzbl (%edx),%edi
    4659:	8a 42 01             	mov    0x1(%edx),%al
    465c:	81 e7 ff 00 00 00    	and    $0xff,%edi
    4662:	c1 e0 08             	shl    $0x8,%eax
    4665:	8b 55 14             	mov    0x14(%ebp),%edx
    4668:	09 f8                	or     %edi,%eax
    466a:	89 82 0c 00 04 00    	mov    %eax,0x4000c(%edx)
    4670:	31 c0                	xor    %eax,%eax
    4672:	e9 3e ff ff ff       	jmp    45b5 <usb_hid_report_parse_local_tag+0x305>
    4677:	31 ff                	xor    %edi,%edi
    4679:	e9 e4 fc ff ff       	jmp    4362 <usb_hid_report_parse_local_tag+0xb2>
    467e:	b8 f2 ff ff ff       	mov    $0xfffffff2,%eax
    4683:	e9 2d ff ff ff       	jmp    45b5 <usb_hid_report_parse_local_tag+0x305>
    4688:	90                   	nop
    4689:	8d b4 26 00 00 00 00 	lea    0x0(%esi,%eiz,1),%esi

00004690 <usb_hid_parse_report_descriptor>:
    4690:	55                   	push   %ebp
    4691:	89 e5                	mov    %esp,%ebp
    4693:	57                   	push   %edi
    4694:	56                   	push   %esi
    4695:	53                   	push   %ebx
    4696:	83 ec 3c             	sub    $0x3c,%esp
    4699:	8d 45 e0             	lea    -0x20(%ebp),%eax
    469c:	89 45 e0             	mov    %eax,-0x20(%ebp)
    469f:	89 45 e4             	mov    %eax,-0x1c(%ebp)
    46a2:	8b 45 08             	mov    0x8(%ebp),%eax
    46a5:	85 c0                	test   %eax,%eax
    46a7:	0f 84 f3 03 00 00    	je     4aa0 <usb_hid_parse_report_descriptor+0x410>
    46ad:	8b 7d 08             	mov    0x8(%ebp),%edi
    46b0:	56                   	push   %esi
    46b1:	6a 20                	push   $0x20
    46b3:	6a 00                	push   $0x0
    46b5:	57                   	push   %edi
    46b6:	e8 e5 3a 01 00       	call   181a0 <memset@plt>
    46bb:	8b 7d 08             	mov    0x8(%ebp),%edi
    46be:	8b 45 08             	mov    0x8(%ebp),%eax
    46c1:	83 c0 04             	add    $0x4,%eax
    46c4:	89 47 04             	mov    %eax,0x4(%edi)
    46c7:	89 47 08             	mov    %eax,0x8(%edi)
    46ca:	89 f8                	mov    %edi,%eax
    46cc:	c7 47 18 00 00 00 00 	movl   $0x0,0x18(%edi)
    46d3:	83 c0 0c             	add    $0xc,%eax
    46d6:	89 47 0c             	mov    %eax,0xc(%edi)
    46d9:	89 47 10             	mov    %eax,0x10(%edi)
    46dc:	c7 04 24 68 00 04 00 	movl   $0x40068,(%esp)
    46e3:	e8 a8 38 01 00       	call   17f90 <malloc@plt>
    46e8:	83 c4 10             	add    $0x10,%esp
    46eb:	89 c6                	mov    %eax,%esi
    46ed:	85 c0                	test   %eax,%eax
    46ef:	0f 84 51 04 00 00    	je     4b46 <usb_hid_parse_report_descriptor+0x4b6>
    46f5:	53                   	push   %ebx
    46f6:	68 68 00 04 00       	push   $0x40068
    46fb:	6a 00                	push   $0x0
    46fd:	50                   	push   %eax
    46fe:	e8 9d 3a 01 00       	call   181a0 <memset@plt>
    4703:	c7 86 5c 00 04 00 00 	movl   $0x0,0x4005c(%esi)
    470a:	00 00 00 
    470d:	c7 86 60 00 04 00 00 	movl   $0x0,0x40060(%esi)
    4714:	00 00 00 
    4717:	e8 44 1a 00 00       	call   6160 <usb_hid_report_path>
    471c:	83 c4 10             	add    $0x10,%esp
    471f:	89 45 d0             	mov    %eax,-0x30(%ebp)
    4722:	85 c0                	test   %eax,%eax
    4724:	0f 84 1c 04 00 00    	je     4b46 <usb_hid_parse_report_descriptor+0x4b6>
    472a:	52                   	push   %edx
    472b:	6a 00                	push   $0x0
    472d:	6a 00                	push   $0x0
    472f:	50                   	push   %eax
    4730:	e8 eb 14 00 00       	call   5c20 <usb_hid_report_path_append_item>
    4735:	8b 4d 10             	mov    0x10(%ebp),%ecx
    4738:	83 c4 10             	add    $0x10,%esp
    473b:	85 c9                	test   %ecx,%ecx
    473d:	0f 84 6b 01 00 00    	je     48ae <usb_hid_parse_report_descriptor+0x21e>
    4743:	8b 45 d0             	mov    -0x30(%ebp),%eax
    4746:	31 db                	xor    %ebx,%ebx
    4748:	83 c0 10             	add    $0x10,%eax
    474b:	c7 45 bc 00 00 00 00 	movl   $0x0,-0x44(%ebp)
    4752:	c7 45 c0 00 00 00 00 	movl   $0x0,-0x40(%ebp)
    4759:	c7 45 c4 00 00 00 00 	movl   $0x0,-0x3c(%ebp)
    4760:	89 45 b8             	mov    %eax,-0x48(%ebp)
    4763:	89 d9                	mov    %ebx,%ecx
    4765:	89 f7                	mov    %esi,%edi
    4767:	e9 20 01 00 00       	jmp    488c <usb_hid_parse_report_descriptor+0x1fc>
    476c:	8d 74 26 00          	lea    0x0(%esi,%eiz,1),%esi
    4770:	89 c2                	mov    %eax,%edx
    4772:	83 e2 03             	and    $0x3,%edx
    4775:	8d 1c 0a             	lea    (%edx,%ecx,1),%ebx
    4778:	39 5d 10             	cmp    %ebx,0x10(%ebp)
    477b:	0f 86 1f 03 00 00    	jbe    4aa0 <usb_hid_parse_report_descriptor+0x410>
    4781:	41                   	inc    %ecx
    4782:	88 c3                	mov    %al,%bl
    4784:	c0 eb 04             	shr    $0x4,%bl
    4787:	89 4d d4             	mov    %ecx,-0x2c(%ebp)
    478a:	c1 e8 02             	shr    $0x2,%eax
    478d:	03 4d 0c             	add    0xc(%ebp),%ecx
    4790:	89 4d cc             	mov    %ecx,-0x34(%ebp)
    4793:	88 d9                	mov    %bl,%cl
    4795:	81 e1 ff 00 00 00    	and    $0xff,%ecx
    479b:	83 e0 03             	and    $0x3,%eax
    479e:	89 4d c8             	mov    %ecx,-0x38(%ebp)
    47a1:	3c 01                	cmp    $0x1,%al
    47a3:	0f 84 47 02 00 00    	je     49f0 <usb_hid_parse_report_descriptor+0x360>
    47a9:	0f 82 09 01 00 00    	jb     48b8 <usb_hid_parse_report_descriptor+0x228>
    47af:	3c 02                	cmp    $0x2,%al
    47b1:	0f 85 cb 00 00 00    	jne    4882 <usb_hid_parse_report_descriptor+0x1f2>
    47b7:	83 ec 0c             	sub    $0xc,%esp
    47ba:	8b 45 d0             	mov    -0x30(%ebp),%eax
    47bd:	50                   	push   %eax
    47be:	8b 45 cc             	mov    -0x34(%ebp),%eax
