Archive member included to satisfy reference by file (symbol)

../../lib/trackmod/libtrackmod.a(trackmod.o)
                              modplay.o (trackmod_module_destroy)
../../lib/trackmod/libtrackmod.a(xm.o)
                              ../../lib/trackmod/libtrackmod.a(trackmod.o) (trackmod_xm_load)
../../lib/trackmod/libtrackmod.a(protracker.o)
                              ../../lib/trackmod/libtrackmod.a(trackmod.o) (trackmod_protracker_load)
../../lib/hound/libhound.a(client.o)
                              modplay.o (hound_context_create_playback)
../../lib/hound/libhound.a(protocol.o)
                              ../../lib/hound/libhound.a(client.o) (hound_service_connect)

Discarded input sections

 .debug_line    0x0000000000000000       0x53 /home/ayyuce/Desktop/HlnOS/HelenOS/uspace/lib/c/arch/ia32/src/entry.o
 .debug_info    0x0000000000000000       0x6c /home/ayyuce/Desktop/HlnOS/HelenOS/uspace/lib/c/arch/ia32/src/entry.o
 .debug_abbrev  0x0000000000000000       0x14 /home/ayyuce/Desktop/HlnOS/HelenOS/uspace/lib/c/arch/ia32/src/entry.o
 .debug_aranges
                0x0000000000000000       0x20 /home/ayyuce/Desktop/HlnOS/HelenOS/uspace/lib/c/arch/ia32/src/entry.o
 .debug_info    0x0000000000000000     0x101c modplay.o
 .debug_abbrev  0x0000000000000000      0x1fd modplay.o
 .debug_loc     0x0000000000000000      0x224 modplay.o
 .debug_aranges
                0x0000000000000000       0x20 modplay.o
 .debug_ranges  0x0000000000000000       0x10 modplay.o
 .debug_line    0x0000000000000000      0x352 modplay.o
 .debug_str     0x0000000000000000     0x1201 modplay.o
 .comment       0x0000000000000000       0x12 modplay.o
 .note.GNU-stack
                0x0000000000000000        0x0 modplay.o
 .eh_frame      0x0000000000000000       0x5c modplay.o
 .debug_info    0x0000000000000000     0x19c6 ../../lib/trackmod/libtrackmod.a(trackmod.o)
 .debug_abbrev  0x0000000000000000      0x39c ../../lib/trackmod/libtrackmod.a(trackmod.o)
 .debug_loc     0x0000000000000000     0x1b89 ../../lib/trackmod/libtrackmod.a(trackmod.o)
 .debug_aranges
                0x0000000000000000       0x20 ../../lib/trackmod/libtrackmod.a(trackmod.o)
 .debug_ranges  0x0000000000000000      0x3e8 ../../lib/trackmod/libtrackmod.a(trackmod.o)
 .debug_line    0x0000000000000000      0x4da ../../lib/trackmod/libtrackmod.a(trackmod.o)
 .debug_str     0x0000000000000000      0x992 ../../lib/trackmod/libtrackmod.a(trackmod.o)
 .comment       0x0000000000000000       0x12 ../../lib/trackmod/libtrackmod.a(trackmod.o)
 .note.GNU-stack
                0x0000000000000000        0x0 ../../lib/trackmod/libtrackmod.a(trackmod.o)
 .eh_frame      0x0000000000000000      0x170 ../../lib/trackmod/libtrackmod.a(trackmod.o)
 .debug_info    0x0000000000000000      0xe46 ../../lib/trackmod/libtrackmod.a(xm.o)
 .debug_abbrev  0x0000000000000000      0x259 ../../lib/trackmod/libtrackmod.a(xm.o)
 .debug_loc     0x0000000000000000      0x9d0 ../../lib/trackmod/libtrackmod.a(xm.o)
 .debug_aranges
                0x0000000000000000       0x20 ../../lib/trackmod/libtrackmod.a(xm.o)
 .debug_ranges  0x0000000000000000       0xb0 ../../lib/trackmod/libtrackmod.a(xm.o)
 .debug_line    0x0000000000000000      0x22c ../../lib/trackmod/libtrackmod.a(xm.o)
 .debug_str     0x0000000000000000      0x7dd ../../lib/trackmod/libtrackmod.a(xm.o)
 .comment       0x0000000000000000       0x12 ../../lib/trackmod/libtrackmod.a(xm.o)
 .note.GNU-stack
                0x0000000000000000        0x0 ../../lib/trackmod/libtrackmod.a(xm.o)
 .eh_frame      0x0000000000000000       0x58 ../../lib/trackmod/libtrackmod.a(xm.o)
 .debug_info    0x0000000000000000      0xb29 ../../lib/trackmod/libtrackmod.a(protracker.o)
 .debug_abbrev  0x0000000000000000      0x24a ../../lib/trackmod/libtrackmod.a(protracker.o)
 .debug_loc     0x0000000000000000      0x5d5 ../../lib/trackmod/libtrackmod.a(protracker.o)
 .debug_aranges
                0x0000000000000000       0x20 ../../lib/trackmod/libtrackmod.a(protracker.o)
 .debug_ranges  0x0000000000000000       0x88 ../../lib/trackmod/libtrackmod.a(protracker.o)
 .debug_line    0x0000000000000000      0x240 ../../lib/trackmod/libtrackmod.a(protracker.o)
 .debug_str     0x0000000000000000      0x607 ../../lib/trackmod/libtrackmod.a(protracker.o)
 .comment       0x0000000000000000       0x12 ../../lib/trackmod/libtrackmod.a(protracker.o)
 .note.GNU-stack
                0x0000000000000000        0x0 ../../lib/trackmod/libtrackmod.a(protracker.o)
 .eh_frame      0x0000000000000000       0x58 ../../lib/trackmod/libtrackmod.a(protracker.o)
 .debug_info    0x0000000000000000     0x1644 ../../lib/hound/libhound.a(client.o)
 .debug_abbrev  0x0000000000000000      0x36c ../../lib/hound/libhound.a(client.o)
 .debug_loc     0x0000000000000000      0xd26 ../../lib/hound/libhound.a(client.o)
 .debug_aranges
                0x0000000000000000       0x20 ../../lib/hound/libhound.a(client.o)
 .debug_ranges  0x0000000000000000      0x2b0 ../../lib/hound/libhound.a(client.o)
 .debug_line    0x0000000000000000      0x520 ../../lib/hound/libhound.a(client.o)
 .debug_str     0x0000000000000000      0xecc ../../lib/hound/libhound.a(client.o)
 .comment       0x0000000000000000       0x12 ../../lib/hound/libhound.a(client.o)
 .note.GNU-stack
                0x0000000000000000        0x0 ../../lib/hound/libhound.a(client.o)
 .eh_frame      0x0000000000000000      0x340 ../../lib/hound/libhound.a(client.o)
 .debug_info    0x0000000000000000     0x1b52 ../../lib/hound/libhound.a(protocol.o)
 .debug_abbrev  0x0000000000000000      0x3aa ../../lib/hound/libhound.a(protocol.o)
 .debug_loc     0x0000000000000000      0xa27 ../../lib/hound/libhound.a(protocol.o)
 .debug_aranges
                0x0000000000000000       0x20 ../../lib/hound/libhound.a(protocol.o)
 .debug_ranges  0x0000000000000000      0x218 ../../lib/hound/libhound.a(protocol.o)
 .debug_line    0x0000000000000000      0x58e ../../lib/hound/libhound.a(protocol.o)
 .debug_str     0x0000000000000000     0x156a ../../lib/hound/libhound.a(protocol.o)
 .comment       0x0000000000000000       0x12 ../../lib/hound/libhound.a(protocol.o)
 .note.GNU-stack
                0x0000000000000000        0x0 ../../lib/hound/libhound.a(protocol.o)
 .eh_frame      0x0000000000000000      0x318 ../../lib/hound/libhound.a(protocol.o)

Memory Configuration

Name             Origin             Length             Attributes
*default*        0x0000000000000000 0xffffffffffffffff

Linker script and memory map

LOAD /home/ayyuce/Desktop/HlnOS/HelenOS/uspace/lib/c/arch/ia32/src/entry.o
                0x00000000000010f4                . = (0x1000 + SIZEOF_HEADERS)

.init           0x00000000000010f4       0x2e
 *(.init)
 .init          0x00000000000010f4       0x2e /home/ayyuce/Desktop/HlnOS/HelenOS/uspace/lib/c/arch/ia32/src/entry.o
                0x00000000000010f4                __entry

.text           0x0000000000001140     0x4098
 *(.text .text.*)
 .text          0x0000000000001140        0x0 /home/ayyuce/Desktop/HlnOS/HelenOS/uspace/lib/c/arch/ia32/src/entry.o
 .text          0x0000000000001140        0x0 modplay.o
 .text.startup  0x0000000000001140      0x262 modplay.o
                0x0000000000001140                main
 *fill*         0x00000000000013a2        0xe 
 .text          0x00000000000013b0      0xe6d ../../lib/trackmod/libtrackmod.a(trackmod.o)
                0x0000000000001aa0                trackmod_module_new
                0x0000000000001ac0                trackmod_module_destroy
                0x0000000000001ba0                trackmod_module_load
                0x0000000000001be0                trackmod_modplay_create
                0x0000000000001d00                trackmod_modplay_destroy
                0x0000000000001d30                trackmod_sample_get_frame
                0x0000000000001d70                trackmod_modplay_get_samples
 *fill*         0x000000000000221d        0x3 
 .text          0x0000000000002220      0x8c1 ../../lib/trackmod/libtrackmod.a(xm.o)
                0x0000000000002220                trackmod_xm_load
 *fill*         0x0000000000002ae1        0xf 
 .text          0x0000000000002af0      0x5b2 ../../lib/trackmod/libtrackmod.a(protracker.o)
                0x0000000000002af0                trackmod_protracker_load
 *fill*         0x00000000000030a2        0xe 
 .text          0x00000000000030b0      0xb4f ../../lib/hound/libhound.a(client.o)
                0x00000000000030b0                hound_context_create_playback
                0x00000000000031b0                hound_context_create_capture
                0x00000000000032b0                hound_context_destroy
                0x0000000000003390                hound_context_get_available_targets
                0x0000000000003410                hound_context_get_connected_targets
                0x0000000000003490                hound_context_connect_target
                0x00000000000035b0                hound_context_disconnect_target
                0x0000000000003620                hound_stream_create
                0x0000000000003700                hound_stream_destroy
                0x0000000000003780                hound_stream_write
                0x00000000000037d0                hound_stream_read
                0x0000000000003820                hound_stream_drain
                0x0000000000003850                hound_write_main_stream
                0x0000000000003900                hound_read_main_stream
                0x00000000000039b0                hound_write_replace_main_stream
                0x0000000000003a00                hound_context_set_main_stream_params
                0x0000000000003a30                hound_write_immediate
 *fill*         0x0000000000003bff        0x1 
 .text          0x0000000000003c00     0x10b8 ../../lib/hound/libhound.a(protocol.o)
                0x0000000000003c00                hound_service_connect
                0x0000000000003c50                hound_service_disconnect
                0x0000000000003c70                hound_service_register_context
                0x0000000000003d60                hound_service_unregister_context
                0x0000000000003dd0                hound_service_get_list
                0x00000000000040d0                hound_service_connect_source_sink
                0x00000000000041f0                hound_service_disconnect_source_sink
                0x00000000000042e0                hound_service_stream_enter
                0x0000000000004340                hound_service_stream_exit
                0x0000000000004370                hound_service_stream_drain
                0x00000000000043a0                hound_service_stream_write
                0x00000000000043b0                hound_service_stream_read
                0x00000000000043c0                hound_service_set_server_iface
                0x00000000000043d0                hound_connection_handler
                0x0000000000004b70                hound_server_register
                0x0000000000004bc0                hound_server_unregister
                0x0000000000004bd0                hound_server_set_device_change_callback
                0x0000000000004be0                hound_server_devices_iterate
 *(.rodata .rodata.*)
 .rodata.str1.4
                0x0000000000004cb8       0xbc modplay.o
                                         0xb9 (size before relaxing)
 .rodata.str1.1
                0x0000000000004d74       0x54 modplay.o
 .rodata.str1.1
                0x0000000000004dc8       0x2b ../../lib/trackmod/libtrackmod.a(trackmod.o)
                                         0x2d (size before relaxing)
 *fill*         0x0000000000004df3        0xd 
 .rodata        0x0000000000004e00      0x1c0 ../../lib/trackmod/libtrackmod.a(trackmod.o)
 .rodata.str1.1
                0x0000000000004fc0       0x39 ../../lib/trackmod/libtrackmod.a(xm.o)
 .rodata.str1.1
                0x0000000000004ff9       0xae ../../lib/trackmod/libtrackmod.a(protracker.o)
                                         0xe7 (size before relaxing)
 *fill*         0x00000000000050a7       0x19 
 .rodata        0x00000000000050c0       0x88 ../../lib/trackmod/libtrackmod.a(protracker.o)
 .rodata.str1.1
                0x0000000000005148       0x2f ../../lib/hound/libhound.a(client.o)
                                         0x3d (size before relaxing)
 .rodata.str1.1
                0x0000000000005177       0x3f ../../lib/hound/libhound.a(protocol.o)
                                         0x45 (size before relaxing)
 *fill*         0x00000000000051b6        0x2 
 .rodata        0x00000000000051b8       0x20 ../../lib/hound/libhound.a(protocol.o)

.rel.plt        0x00000000000051d8      0x180
 *(.rel.plt)
 .rel.plt       0x00000000000051d8      0x180 /home/ayyuce/Desktop/HlnOS/HelenOS/uspace/lib/c/arch/ia32/src/entry.o

.rel.dyn        0x0000000000005358       0x18
 *(.rel.*)
 .rel.got       0x0000000000005358        0x0 /home/ayyuce/Desktop/HlnOS/HelenOS/uspace/lib/c/arch/ia32/src/entry.o
 .rel.bss       0x0000000000005358       0x18 /home/ayyuce/Desktop/HlnOS/HelenOS/uspace/lib/c/arch/ia32/src/entry.o
 .rel.init      0x0000000000005370        0x0 /home/ayyuce/Desktop/HlnOS/HelenOS/uspace/lib/c/arch/ia32/src/entry.o
 .rel.text.startup
                0x0000000000005370        0x0 /home/ayyuce/Desktop/HlnOS/HelenOS/uspace/lib/c/arch/ia32/src/entry.o
 .rel.text      0x0000000000005370        0x0 /home/ayyuce/Desktop/HlnOS/HelenOS/uspace/lib/c/arch/ia32/src/entry.o

.plt            0x0000000000005370      0x310
 *(.plt)
 .plt           0x0000000000005370      0x310 /home/ayyuce/Desktop/HlnOS/HelenOS/uspace/lib/c/arch/ia32/src/entry.o
                0x0000000000005380                __main
                0x0000000000005390                loc_category_get_id
                0x00000000000053a0                loc_service_connect
                0x00000000000053b0                printf
                0x00000000000053c0                async_hangup
                0x00000000000053d0                async_wait_for
                0x00000000000053e0                async_data_write_start
                0x00000000000053f0                loc_service_register
                0x0000000000005400                async_data_read_finalize
                0x0000000000005410                memcpy
                0x0000000000005420                malloc
                0x0000000000005430                async_req_fast
                0x0000000000005440                loc_service_get_id
                0x0000000000005450                async_data_read_receive_call
                0x0000000000005460                async_answer_0
                0x0000000000005470                async_send_fast
                0x0000000000005480                console_init
                0x0000000000005490                async_exchange_end
                0x00000000000054a0                loc_service_get_name
                0x00000000000054b0                assert_abort
                0x00000000000054c0                calloc
                0x00000000000054d0                loc_register_cat_change_cb
                0x00000000000054e0                async_data_write_receive_call
                0x00000000000054f0                fseek
                0x0000000000005500                loc_service_unregister
                0x0000000000005510                memcmp
                0x0000000000005520                str_cmp
                0x0000000000005530                fread
                0x0000000000005540                task_get_id
                0x0000000000005550                fopen
                0x0000000000005560                memset
                0x0000000000005570                async_data_read_receive
                0x0000000000005580                ftell
                0x0000000000005590                async_data_read_start
                0x00000000000055a0                fclose
                0x00000000000055b0                asprintf
                0x00000000000055c0                loc_server_register
                0x00000000000055d0                loc_category_get_svcs
                0x00000000000055e0                async_get_call_timeout
                0x00000000000055f0                str_size
                0x0000000000005600                async_answer_1
                0x0000000000005610                async_exchange_begin
                0x0000000000005620                async_data_write_finalize
                0x0000000000005630                async_data_write_accept
                0x0000000000005640                async_forget
                0x0000000000005650                __syscall_fast
                0x0000000000005660                console_get_event_timeout
                0x0000000000005670                free

.dynsym         0x0000000000005680      0x360
 *(.dynsym)
 .dynsym        0x0000000000005680      0x360 /home/ayyuce/Desktop/HlnOS/HelenOS/uspace/lib/c/arch/ia32/src/entry.o

.dynstr         0x00000000000059e0      0x32c
 *(.dynstr)
 .dynstr        0x00000000000059e0      0x32c /home/ayyuce/Desktop/HlnOS/HelenOS/uspace/lib/c/arch/ia32/src/entry.o

.hash           0x0000000000005d0c      0x174
 *(.hash)
 .hash          0x0000000000005d0c      0x174 /home/ayyuce/Desktop/HlnOS/HelenOS/uspace/lib/c/arch/ia32/src/entry.o

.interp         0x0000000000005e80       0x13
 *(.interp)
 .interp        0x0000000000005e80       0x13 /home/ayyuce/Desktop/HlnOS/HelenOS/uspace/lib/c/arch/ia32/src/entry.o
                0x0000000000006e93                . = (. + 0x1000)

.dynamic        0x0000000000006e94       0xa8
 *(.dynamic)
 .dynamic       0x0000000000006e94       0xa8 /home/ayyuce/Desktop/HlnOS/HelenOS/uspace/lib/c/arch/ia32/src/entry.o
                0x0000000000006e94                _DYNAMIC

.data           0x0000000000006f3c       0x18
 *(.data)
 .data          0x0000000000006f3c        0x0 /home/ayyuce/Desktop/HlnOS/HelenOS/uspace/lib/c/arch/ia32/src/entry.o
 .data          0x0000000000006f3c        0x0 modplay.o
 .data          0x0000000000006f3c        0x0 ../../lib/trackmod/libtrackmod.a(trackmod.o)
 .data          0x0000000000006f3c       0x12 ../../lib/trackmod/libtrackmod.a(xm.o)
 .data          0x0000000000006f4e        0x0 ../../lib/trackmod/libtrackmod.a(protracker.o)
 .data          0x0000000000006f4e        0x0 ../../lib/hound/libhound.a(client.o)
 *fill*         0x0000000000006f4e        0x2 
 .data          0x0000000000006f50        0x4 ../../lib/hound/libhound.a(protocol.o)
                0x0000000000006f50                HOUND_SERVICE

.data.rel
 *(.data.rel .data.rel.*)

.got            0x0000000000006f54        0x0
 *(.got)
 .got           0x0000000000006f54        0x0 /home/ayyuce/Desktop/HlnOS/HelenOS/uspace/lib/c/arch/ia32/src/entry.o

.got.plt        0x0000000000006f54       0xcc
 *(.got.plt)
 .got.plt       0x0000000000006f54       0xcc /home/ayyuce/Desktop/HlnOS/HelenOS/uspace/lib/c/arch/ia32/src/entry.o
                0x0000000000006f54                _GLOBAL_OFFSET_TABLE_

.tdata
 *(.tdata)
 *(.gnu.linkonce.tb.*)

.tbss
 *(.tbss)

.bss            0x0000000000007020       0x2c
 *(.dynbss)
 .dynbss        0x0000000000007020       0x1c /home/ayyuce/Desktop/HlnOS/HelenOS/uspace/lib/c/arch/ia32/src/entry.o
                0x0000000000007020                stdout
                0x0000000000007030                stdin
                0x0000000000007038                __syscall_fast_func
 *(COMMON)
 *(.bss)
 .bss           0x000000000000703c        0x0 /home/ayyuce/Desktop/HlnOS/HelenOS/uspace/lib/c/arch/ia32/src/entry.o
 .bss           0x000000000000703c        0x1 modplay.o
 .bss           0x000000000000703d        0x0 ../../lib/trackmod/libtrackmod.a(trackmod.o)
 .bss           0x000000000000703d        0x0 ../../lib/trackmod/libtrackmod.a(xm.o)
 .bss           0x000000000000703d        0x0 ../../lib/trackmod/libtrackmod.a(protracker.o)
 .bss           0x000000000000703d        0x0 ../../lib/hound/libhound.a(client.o)
 *fill*         0x000000000000703d        0x3 
 .bss           0x0000000000007040        0xc ../../lib/hound/libhound.a(protocol.o)

/DISCARD/
 *(*)
LOAD modplay.o
LOAD ../../lib/trackmod/libtrackmod.a
LOAD ../../lib/hound/libhound.a
LOAD ../../lib/pcm/libpcm.a
LOAD ../../lib/c/libc.so.0
LOAD ../../lib/softint/libsoftint.so.0
OUTPUT(modplay elf32-i386)
