
ahci:     file format elf32-i386


Disassembly of section .init:

000010f4 <__entry>:
    10f4:	66 8c d0             	mov    %ss,%ax
    10f7:	8e d8                	mov    %eax,%ds
    10f9:	8e c0                	mov    %eax,%es
    10fb:	8e e0                	mov    %eax,%fs
    10fd:	b8 01 00 00 00       	mov    $0x1,%eax
    1102:	0f a2                	cpuid  
    1104:	0f ba e2 0b          	bt     $0xb,%edx
    1108:	73 0c                	jae    1116 <__entry+0x22>
    110a:	8d 05 60 10 01 00    	lea    0x11060,%eax
    1110:	c7 00 80 dc 00 00    	movl   $0xdc80,(%eax)
    1116:	6a 00                	push   $0x0
    1118:	6a 00                	push   $0x0
    111a:	89 e5                	mov    %esp,%ebp
    111c:	57                   	push   %edi
    111d:	e8 1e c6 00 00       	call   d740 <__main@plt>

Disassembly of section .text:

00001140 <ahci_interrupt>:
    1140:	55                   	push   %ebp
    1141:	89 e5                	mov    %esp,%ebp
    1143:	57                   	push   %edi
    1144:	56                   	push   %esi
    1145:	53                   	push   %ebx
    1146:	83 ec 18             	sub    $0x18,%esp
    1149:	8b 75 0c             	mov    0xc(%ebp),%esi
    114c:	8b 45 10             	mov    0x10(%ebp),%eax
    114f:	50                   	push   %eax
    1150:	e8 cb 1c 00 00       	call   2e20 <ddf_dev_data_get>
    1155:	8b 56 04             	mov    0x4(%esi),%edx
    1158:	83 c4 10             	add    $0x10,%esp
    115b:	83 fa 1f             	cmp    $0x1f,%edx
    115e:	77 40                	ja     11a0 <ahci_interrupt+0x60>
    1160:	8b 5c 90 08          	mov    0x8(%eax,%edx,4),%ebx
    1164:	85 db                	test   %ebx,%ebx
    1166:	74 38                	je     11a0 <ahci_interrupt+0x60>
    1168:	8b 76 08             	mov    0x8(%esi),%esi
    116b:	f7 c6 d9 00 c0 fd    	test   $0xfdc000d9,%esi
    1171:	74 2d                	je     11a0 <ahci_interrupt+0x60>
    1173:	83 ec 0c             	sub    $0xc,%esp
    1176:	8d 7b 28             	lea    0x28(%ebx),%edi
    1179:	83 c3 38             	add    $0x38,%ebx
    117c:	57                   	push   %edi
    117d:	e8 4e cb 00 00       	call   dcd0 <fibril_mutex_lock@plt>
    1182:	89 73 08             	mov    %esi,0x8(%ebx)
    1185:	89 1c 24             	mov    %ebx,(%esp)
    1188:	e8 43 c7 00 00       	call   d8d0 <fibril_condvar_signal@plt>
    118d:	89 7d 08             	mov    %edi,0x8(%ebp)
    1190:	83 c4 10             	add    $0x10,%esp
    1193:	8d 65 f4             	lea    -0xc(%ebp),%esp
    1196:	5b                   	pop    %ebx
    1197:	5e                   	pop    %esi
    1198:	5f                   	pop    %edi
    1199:	5d                   	pop    %ebp
    119a:	e9 71 c8 00 00       	jmp    da10 <fibril_mutex_unlock@plt>
    119f:	90                   	nop
    11a0:	8d 65 f4             	lea    -0xc(%ebp),%esp
    11a3:	5b                   	pop    %ebx
    11a4:	5e                   	pop    %esi
    11a5:	5f                   	pop    %edi
    11a6:	5d                   	pop    %ebp
    11a7:	c3                   	ret    
    11a8:	90                   	nop
    11a9:	8d b4 26 00 00 00 00 	lea    0x0(%esi,%eiz,1),%esi

000011b0 <get_block_size>:
    11b0:	55                   	push   %ebp
    11b1:	89 e5                	mov    %esp,%ebp
    11b3:	83 ec 14             	sub    $0x14,%esp
    11b6:	8b 45 08             	mov    0x8(%ebp),%eax
    11b9:	50                   	push   %eax
    11ba:	e8 c1 1e 00 00       	call   3080 <ddf_fun_data_get>
    11bf:	8b 50 50             	mov    0x50(%eax),%edx
    11c2:	8b 45 0c             	mov    0xc(%ebp),%eax
    11c5:	89 10                	mov    %edx,(%eax)
    11c7:	31 c0                	xor    %eax,%eax
    11c9:	c9                   	leave  
    11ca:	c3                   	ret    
    11cb:	90                   	nop
    11cc:	8d 74 26 00          	lea    0x0(%esi,%eiz,1),%esi

000011d0 <get_num_blocks>:
    11d0:	55                   	push   %ebp
    11d1:	89 e5                	mov    %esp,%ebp
    11d3:	53                   	push   %ebx
    11d4:	83 ec 10             	sub    $0x10,%esp
    11d7:	8b 45 08             	mov    0x8(%ebp),%eax
    11da:	50                   	push   %eax
    11db:	e8 a0 1e 00 00       	call   3080 <ddf_fun_data_get>
    11e0:	8b 58 4c             	mov    0x4c(%eax),%ebx
    11e3:	8b 48 48             	mov    0x48(%eax),%ecx
    11e6:	8b 45 0c             	mov    0xc(%ebp),%eax
    11e9:	89 58 04             	mov    %ebx,0x4(%eax)
    11ec:	89 08                	mov    %ecx,(%eax)
    11ee:	8b 5d fc             	mov    -0x4(%ebp),%ebx
    11f1:	31 c0                	xor    %eax,%eax
    11f3:	c9                   	leave  
    11f4:	c3                   	ret    
    11f5:	8d 74 26 00          	lea    0x0(%esi,%eiz,1),%esi
    11f9:	8d bc 27 00 00 00 00 	lea    0x0(%edi,%eiz,1),%edi

00001200 <get_sata_device_name>:
    1200:	55                   	push   %ebp
    1201:	89 e5                	mov    %esp,%ebp
    1203:	83 ec 14             	sub    $0x14,%esp
    1206:	8b 45 08             	mov    0x8(%ebp),%eax
    1209:	50                   	push   %eax
    120a:	e8 71 1e 00 00       	call   3080 <ddf_fun_data_get>
    120f:	83 c4 0c             	add    $0xc,%esp
    1212:	83 c0 54             	add    $0x54,%eax
    1215:	8b 55 0c             	mov    0xc(%ebp),%edx
    1218:	8b 4d 10             	mov    0x10(%ebp),%ecx
    121b:	50                   	push   %eax
    121c:	52                   	push   %edx
    121d:	51                   	push   %ecx
    121e:	e8 0d c9 00 00       	call   db30 <str_cpy@plt>
    1223:	31 c0                	xor    %eax,%eax
    1225:	c9                   	leave  
    1226:	c3                   	ret    
    1227:	89 f6                	mov    %esi,%esi
    1229:	8d bc 27 00 00 00 00 	lea    0x0(%edi,%eiz,1),%edi

00001230 <write_blocks>:
    1230:	55                   	push   %ebp
    1231:	89 e5                	mov    %esp,%ebp
    1233:	57                   	push   %edi
    1234:	56                   	push   %esi
    1235:	53                   	push   %ebx
    1236:	83 ec 48             	sub    $0x48,%esp
    1239:	8b 45 0c             	mov    0xc(%ebp),%eax
    123c:	8b 55 10             	mov    0x10(%ebp),%edx
    123f:	89 45 d0             	mov    %eax,-0x30(%ebp)
    1242:	8b 45 08             	mov    0x8(%ebp),%eax
    1245:	50                   	push   %eax
    1246:	89 55 d4             	mov    %edx,-0x2c(%ebp)
    1249:	e8 32 1e 00 00       	call   3080 <ddf_fun_data_get>
    124e:	c7 45 e4 ff ff ff ff 	movl   $0xffffffff,-0x1c(%ebp)
    1255:	89 c6                	mov    %eax,%esi
    1257:	58                   	pop    %eax
    1258:	8d 45 e4             	lea    -0x1c(%ebp),%eax
    125b:	5a                   	pop    %edx
    125c:	50                   	push   %eax
    125d:	8d 45 e0             	lea    -0x20(%ebp),%eax
    1260:	50                   	push   %eax
    1261:	6a 00                	push   $0x0
    1263:	6a 03                	push   $0x3
    1265:	6a 00                	push   $0x0
    1267:	8b 4e 50             	mov    0x50(%esi),%ecx
    126a:	51                   	push   %ecx
    126b:	e8 a0 c8 00 00       	call   db10 <dmamem_map_anonymous@plt>
    1270:	83 c4 20             	add    $0x20,%esp
    1273:	89 45 c4             	mov    %eax,-0x3c(%ebp)
    1276:	85 c0                	test   %eax,%eax
    1278:	0f 85 eb 01 00 00    	jne    1469 <write_blocks+0x239>
    127e:	83 ec 0c             	sub    $0xc,%esp
    1281:	8d 46 18             	lea    0x18(%esi),%eax
    1284:	89 45 c0             	mov    %eax,-0x40(%ebp)
    1287:	8d 7e 28             	lea    0x28(%esi),%edi
    128a:	50                   	push   %eax
    128b:	e8 40 ca 00 00       	call   dcd0 <fibril_mutex_lock@plt>
    1290:	8d 46 38             	lea    0x38(%esi),%eax
    1293:	83 c4 10             	add    $0x10,%esp
    1296:	89 45 c8             	mov    %eax,-0x38(%ebp)
    1299:	8b 45 14             	mov    0x14(%ebp),%eax
    129c:	c7 45 cc 00 00 00 00 	movl   $0x0,-0x34(%ebp)
    12a3:	85 c0                	test   %eax,%eax
    12a5:	0f 84 9a 01 00 00    	je     1445 <write_blocks+0x215>
    12ab:	90                   	nop
    12ac:	8d 74 26 00          	lea    0x0(%esi,%eiz,1),%esi
    12b0:	8b 46 50             	mov    0x50(%esi),%eax
    12b3:	8b 4d cc             	mov    -0x34(%ebp),%ecx
    12b6:	52                   	push   %edx
    12b7:	50                   	push   %eax
    12b8:	0f af c1             	imul   %ecx,%eax
    12bb:	8b 5d 18             	mov    0x18(%ebp),%ebx
    12be:	01 d8                	add    %ebx,%eax
    12c0:	50                   	push   %eax
    12c1:	8b 45 e4             	mov    -0x1c(%ebp),%eax
    12c4:	50                   	push   %eax
    12c5:	e8 c6 c5 00 00       	call   d890 <memcpy@plt>
    12ca:	83 c4 10             	add    $0x10,%esp
    12cd:	8b 55 e0             	mov    -0x20(%ebp),%edx
    12d0:	80 7e 09 00          	cmpb   $0x0,0x9(%esi)
    12d4:	0f 85 c8 01 00 00    	jne    14a2 <write_blocks+0x272>
    12da:	8b 46 14             	mov    0x14(%esi),%eax
    12dd:	8a 4d d0             	mov    -0x30(%ebp),%cl
    12e0:	8b 5d d4             	mov    -0x2c(%ebp),%ebx
    12e3:	83 ec 0c             	sub    $0xc,%esp
    12e6:	c6 00 27             	movb   $0x27,(%eax)
    12e9:	c6 40 01 80          	movb   $0x80,0x1(%eax)
    12ed:	c6 40 02 61          	movb   $0x61,0x2(%eax)
    12f1:	c6 40 0c 00          	movb   $0x0,0xc(%eax)
    12f5:	c6 40 0f 00          	movb   $0x0,0xf(%eax)
    12f9:	c6 40 0d 00          	movb   $0x0,0xd(%eax)
    12fd:	c6 40 0e 00          	movb   $0x0,0xe(%eax)
    1301:	c6 40 10 00          	movb   $0x0,0x10(%eax)
    1305:	c6 40 11 00          	movb   $0x0,0x11(%eax)
    1309:	c6 40 12 00          	movb   $0x0,0x12(%eax)
    130d:	c6 40 13 00          	movb   $0x0,0x13(%eax)
    1311:	c6 40 03 01          	movb   $0x1,0x3(%eax)
    1315:	c6 40 0b 00          	movb   $0x0,0xb(%eax)
    1319:	88 48 04             	mov    %cl,0x4(%eax)
    131c:	8b 4d d0             	mov    -0x30(%ebp),%ecx
    131f:	0f ac d9 08          	shrd   $0x8,%ebx,%ecx
    1323:	88 48 05             	mov    %cl,0x5(%eax)
    1326:	8b 5d d4             	mov    -0x2c(%ebp),%ebx
    1329:	8b 4d d0             	mov    -0x30(%ebp),%ecx
    132c:	0f ac d9 10          	shrd   $0x10,%ebx,%ecx
    1330:	88 48 06             	mov    %cl,0x6(%eax)
    1333:	8b 5d d4             	mov    -0x2c(%ebp),%ebx
    1336:	8b 4d d0             	mov    -0x30(%ebp),%ecx
    1339:	0f ac d9 18          	shrd   $0x18,%ebx,%ecx
    133d:	88 48 08             	mov    %cl,0x8(%eax)
    1340:	8b 4d d4             	mov    -0x2c(%ebp),%ecx
    1343:	88 48 09             	mov    %cl,0x9(%eax)
    1346:	c1 e9 08             	shr    $0x8,%ecx
    1349:	88 48 0a             	mov    %cl,0xa(%eax)
    134c:	89 90 80 00 00 00    	mov    %edx,0x80(%eax)
    1352:	8b 5e 50             	mov    0x50(%esi),%ebx
    1355:	c7 80 84 00 00 00 00 	movl   $0x0,0x84(%eax)
    135c:	00 00 00 
    135f:	c7 80 88 00 00 00 00 	movl   $0x0,0x88(%eax)
    1366:	00 00 00 
    1369:	8d 53 ff             	lea    -0x1(%ebx),%edx
    136c:	89 d1                	mov    %edx,%ecx
    136e:	8b 90 8c 00 00 00    	mov    0x8c(%eax),%edx
    1374:	81 e1 ff ff 3f 00    	and    $0x3fffff,%ecx
    137a:	81 e2 00 00 c0 ff    	and    $0xffc00000,%edx
    1380:	09 ca                	or     %ecx,%edx
    1382:	89 90 8c 00 00 00    	mov    %edx,0x8c(%eax)
    1388:	8b 90 8c 00 00 00    	mov    0x8c(%eax),%edx
    138e:	81 e2 ff ff 3f 80    	and    $0x803fffff,%edx
    1394:	89 90 8c 00 00 00    	mov    %edx,0x8c(%eax)
    139a:	8b 90 8c 00 00 00    	mov    0x8c(%eax),%edx
    13a0:	81 e2 ff ff ff 7f    	and    $0x7fffffff,%edx
    13a6:	89 90 8c 00 00 00    	mov    %edx,0x8c(%eax)
    13ac:	8b 46 10             	mov    0x10(%esi),%eax
    13af:	66 c7 40 02 01 00    	movw   $0x1,0x2(%eax)
    13b5:	66 c7 00 45 04       	movw   $0x445,(%eax)
    13ba:	c7 40 04 00 00 00 00 	movl   $0x0,0x4(%eax)
    13c1:	8b 46 0c             	mov    0xc(%esi),%eax
    13c4:	8b 50 34             	mov    0x34(%eax),%edx
    13c7:	83 ca 01             	or     $0x1,%edx
    13ca:	89 50 34             	mov    %edx,0x34(%eax)
    13cd:	8b 50 38             	mov    0x38(%eax),%edx
    13d0:	83 ca 01             	or     $0x1,%edx
    13d3:	89 50 38             	mov    %edx,0x38(%eax)
    13d6:	57                   	push   %edi
    13d7:	e8 f4 c8 00 00       	call   dcd0 <fibril_mutex_lock@plt>
    13dc:	c7 46 40 00 00 00 00 	movl   $0x0,0x40(%esi)
    13e3:	83 c4 10             	add    $0x10,%esp
    13e6:	8b 5d c8             	mov    -0x38(%ebp),%ebx
    13e9:	8d b4 26 00 00 00 00 	lea    0x0(%esi,%eiz,1),%esi
    13f0:	50                   	push   %eax
    13f1:	50                   	push   %eax
    13f2:	57                   	push   %edi
    13f3:	53                   	push   %ebx
    13f4:	e8 17 c5 00 00       	call   d910 <fibril_condvar_wait@plt>
    13f9:	8b 46 40             	mov    0x40(%esi),%eax
    13fc:	83 c4 10             	add    $0x10,%esp
    13ff:	85 c0                	test   %eax,%eax
    1401:	74 ed                	je     13f0 <write_blocks+0x1c0>
    1403:	89 c3                	mov    %eax,%ebx
    1405:	a9 c0 00 c0 80       	test   $0x80c000c0,%eax
    140a:	74 04                	je     1410 <write_blocks+0x1e0>
    140c:	c6 46 09 01          	movb   $0x1,0x9(%esi)
    1410:	83 ec 0c             	sub    $0xc,%esp
    1413:	57                   	push   %edi
    1414:	e8 f7 c5 00 00       	call   da10 <fibril_mutex_unlock@plt>
    1419:	83 c4 10             	add    $0x10,%esp
    141c:	80 7e 09 00          	cmpb   $0x0,0x9(%esi)
    1420:	75 63                	jne    1485 <write_blocks+0x255>
    1422:	81 e3 d0 00 c0 fd    	and    $0xfdc000d0,%ebx
    1428:	75 5b                	jne    1485 <write_blocks+0x255>
    142a:	8b 45 cc             	mov    -0x34(%ebp),%eax
    142d:	40                   	inc    %eax
    142e:	83 45 d0 01          	addl   $0x1,-0x30(%ebp)
    1432:	83 55 d4 00          	adcl   $0x0,-0x2c(%ebp)
    1436:	89 45 cc             	mov    %eax,-0x34(%ebp)
    1439:	8b 45 cc             	mov    -0x34(%ebp),%eax
    143c:	39 45 14             	cmp    %eax,0x14(%ebp)
    143f:	0f 85 6b fe ff ff    	jne    12b0 <write_blocks+0x80>
    1445:	83 ec 0c             	sub    $0xc,%esp
    1448:	8b 55 c0             	mov    -0x40(%ebp),%edx
    144b:	52                   	push   %edx
    144c:	e8 bf c5 00 00       	call   da10 <fibril_mutex_unlock@plt>
    1451:	8b 5d e4             	mov    -0x1c(%ebp),%ebx
    1454:	59                   	pop    %ecx
    1455:	53                   	push   %ebx
    1456:	e8 55 c5 00 00       	call   d9b0 <dmamem_unmap_anonymous@plt>
    145b:	8b 45 c4             	mov    -0x3c(%ebp),%eax
    145e:	83 c4 10             	add    $0x10,%esp
    1461:	8d 65 f4             	lea    -0xc(%ebp),%esp
    1464:	5b                   	pop    %ebx
    1465:	5e                   	pop    %esi
    1466:	5f                   	pop    %edi
    1467:	5d                   	pop    %ebp
    1468:	c3                   	ret    
    1469:	50                   	push   %eax
    146a:	50                   	push   %eax
    146b:	68 2f b6 00 00       	push   $0xb62f
    1470:	6a 01                	push   $0x1
    1472:	e8 a9 22 00 00       	call   3720 <ddf_msg>
    1477:	8b 45 c4             	mov    -0x3c(%ebp),%eax
    147a:	83 c4 10             	add    $0x10,%esp
    147d:	8d 65 f4             	lea    -0xc(%ebp),%esp
    1480:	5b                   	pop    %ebx
    1481:	5e                   	pop    %esi
    1482:	5f                   	pop    %edi
    1483:	5d                   	pop    %ebp
    1484:	c3                   	ret    
    1485:	83 c6 54             	add    $0x54,%esi
    1488:	57                   	push   %edi
    1489:	56                   	push   %esi
    148a:	68 3c b7 00 00       	push   $0xb73c
    148f:	6a 01                	push   $0x1
    1491:	e8 8a 22 00 00       	call   3720 <ddf_msg>
    1496:	83 c4 10             	add    $0x10,%esp
    1499:	c7 45 c4 ef ff ff ff 	movl   $0xffffffef,-0x3c(%ebp)
    14a0:	eb a3                	jmp    1445 <write_blocks+0x215>
    14a2:	83 c6 54             	add    $0x54,%esi
    14a5:	50                   	push   %eax
    14a6:	56                   	push   %esi
    14a7:	68 18 b7 00 00       	push   $0xb718
    14ac:	6a 01                	push   $0x1
    14ae:	e8 6d 22 00 00       	call   3720 <ddf_msg>
    14b3:	83 c4 10             	add    $0x10,%esp
    14b6:	c7 45 c4 ef ff ff ff 	movl   $0xffffffef,-0x3c(%ebp)
    14bd:	eb 86                	jmp    1445 <write_blocks+0x215>
    14bf:	90                   	nop

000014c0 <read_blocks>:
    14c0:	55                   	push   %ebp
    14c1:	89 e5                	mov    %esp,%ebp
    14c3:	57                   	push   %edi
    14c4:	56                   	push   %esi
    14c5:	53                   	push   %ebx
    14c6:	83 ec 48             	sub    $0x48,%esp
    14c9:	8b 45 0c             	mov    0xc(%ebp),%eax
    14cc:	8b 55 10             	mov    0x10(%ebp),%edx
    14cf:	89 45 d0             	mov    %eax,-0x30(%ebp)
    14d2:	8b 45 08             	mov    0x8(%ebp),%eax
    14d5:	50                   	push   %eax
    14d6:	89 55 d4             	mov    %edx,-0x2c(%ebp)
    14d9:	e8 a2 1b 00 00       	call   3080 <ddf_fun_data_get>
    14de:	c7 45 e4 ff ff ff ff 	movl   $0xffffffff,-0x1c(%ebp)
    14e5:	89 c3                	mov    %eax,%ebx
    14e7:	58                   	pop    %eax
    14e8:	8d 45 e4             	lea    -0x1c(%ebp),%eax
    14eb:	5a                   	pop    %edx
    14ec:	50                   	push   %eax
    14ed:	8d 45 e0             	lea    -0x20(%ebp),%eax
    14f0:	50                   	push   %eax
    14f1:	6a 00                	push   $0x0
    14f3:	6a 03                	push   $0x3
    14f5:	6a 00                	push   $0x0
    14f7:	8b 4b 50             	mov    0x50(%ebx),%ecx
    14fa:	51                   	push   %ecx
    14fb:	e8 10 c6 00 00       	call   db10 <dmamem_map_anonymous@plt>
    1500:	83 c4 20             	add    $0x20,%esp
    1503:	89 45 c4             	mov    %eax,-0x3c(%ebp)
    1506:	85 c0                	test   %eax,%eax
    1508:	0f 85 22 02 00 00    	jne    1730 <read_blocks+0x270>
    150e:	51                   	push   %ecx
    150f:	8b 7d 18             	mov    0x18(%ebp),%edi
    1512:	8b 73 50             	mov    0x50(%ebx),%esi
    1515:	56                   	push   %esi
    1516:	6a 00                	push   $0x0
    1518:	57                   	push   %edi
    1519:	e8 c2 c5 00 00       	call   dae0 <memset@plt>
    151e:	8d 43 18             	lea    0x18(%ebx),%eax
    1521:	89 04 24             	mov    %eax,(%esp)
    1524:	89 45 c0             	mov    %eax,-0x40(%ebp)
    1527:	e8 a4 c7 00 00       	call   dcd0 <fibril_mutex_lock@plt>
    152c:	8b 45 14             	mov    0x14(%ebp),%eax
    152f:	83 c4 10             	add    $0x10,%esp
    1532:	85 c0                	test   %eax,%eax
    1534:	0f 84 d2 01 00 00    	je     170c <read_blocks+0x24c>
    153a:	8b 45 e0             	mov    -0x20(%ebp),%eax
    153d:	89 45 c8             	mov    %eax,-0x38(%ebp)
    1540:	80 7b 09 00          	cmpb   $0x0,0x9(%ebx)
    1544:	0f 85 a7 01 00 00    	jne    16f1 <read_blocks+0x231>
    154a:	8d 73 28             	lea    0x28(%ebx),%esi
    154d:	8d 7b 38             	lea    0x38(%ebx),%edi
    1550:	c7 45 cc 00 00 00 00 	movl   $0x0,-0x34(%ebp)
    1557:	90                   	nop
    1558:	8b 43 14             	mov    0x14(%ebx),%eax
    155b:	8a 4d d0             	mov    -0x30(%ebp),%cl
    155e:	8b 55 d0             	mov    -0x30(%ebp),%edx
    1561:	83 ec 0c             	sub    $0xc,%esp
    1564:	c6 00 27             	movb   $0x27,(%eax)
    1567:	c6 40 01 80          	movb   $0x80,0x1(%eax)
    156b:	c6 40 02 60          	movb   $0x60,0x2(%eax)
    156f:	c6 40 0c 00          	movb   $0x0,0xc(%eax)
    1573:	c6 40 0f 00          	movb   $0x0,0xf(%eax)
    1577:	c6 40 0d 00          	movb   $0x0,0xd(%eax)
    157b:	c6 40 0e 00          	movb   $0x0,0xe(%eax)
    157f:	c6 40 10 00          	movb   $0x0,0x10(%eax)
    1583:	c6 40 11 00          	movb   $0x0,0x11(%eax)
    1587:	c6 40 12 00          	movb   $0x0,0x12(%eax)
    158b:	c6 40 13 00          	movb   $0x0,0x13(%eax)
    158f:	c6 40 03 01          	movb   $0x1,0x3(%eax)
    1593:	c6 40 0b 00          	movb   $0x0,0xb(%eax)
    1597:	88 48 04             	mov    %cl,0x4(%eax)
    159a:	8b 4d d4             	mov    -0x2c(%ebp),%ecx
    159d:	0f ac ca 08          	shrd   $0x8,%ecx,%edx
    15a1:	88 50 05             	mov    %dl,0x5(%eax)
    15a4:	8b 4d d4             	mov    -0x2c(%ebp),%ecx
    15a7:	8b 55 d0             	mov    -0x30(%ebp),%edx
    15aa:	0f ac ca 10          	shrd   $0x10,%ecx,%edx
    15ae:	88 50 06             	mov    %dl,0x6(%eax)
    15b1:	8b 4d d4             	mov    -0x2c(%ebp),%ecx
    15b4:	8b 55 d0             	mov    -0x30(%ebp),%edx
    15b7:	0f ac ca 18          	shrd   $0x18,%ecx,%edx
    15bb:	88 50 08             	mov    %dl,0x8(%eax)
    15be:	8b 55 d4             	mov    -0x2c(%ebp),%edx
    15c1:	88 50 09             	mov    %dl,0x9(%eax)
    15c4:	8b 4d c8             	mov    -0x38(%ebp),%ecx
    15c7:	c1 ea 08             	shr    $0x8,%edx
    15ca:	88 50 0a             	mov    %dl,0xa(%eax)
    15cd:	89 88 80 00 00 00    	mov    %ecx,0x80(%eax)
    15d3:	c7 80 84 00 00 00 00 	movl   $0x0,0x84(%eax)
    15da:	00 00 00 
    15dd:	c7 80 88 00 00 00 00 	movl   $0x0,0x88(%eax)
    15e4:	00 00 00 
    15e7:	8b 4b 50             	mov    0x50(%ebx),%ecx
    15ea:	8d 51 ff             	lea    -0x1(%ecx),%edx
    15ed:	89 d1                	mov    %edx,%ecx
    15ef:	8b 90 8c 00 00 00    	mov    0x8c(%eax),%edx
    15f5:	81 e1 ff ff 3f 00    	and    $0x3fffff,%ecx
    15fb:	81 e2 00 00 c0 ff    	and    $0xffc00000,%edx
    1601:	09 ca                	or     %ecx,%edx
    1603:	89 90 8c 00 00 00    	mov    %edx,0x8c(%eax)
    1609:	8b 90 8c 00 00 00    	mov    0x8c(%eax),%edx
    160f:	81 e2 ff ff 3f 80    	and    $0x803fffff,%edx
    1615:	89 90 8c 00 00 00    	mov    %edx,0x8c(%eax)
    161b:	8b 90 8c 00 00 00    	mov    0x8c(%eax),%edx
    1621:	81 e2 ff ff ff 7f    	and    $0x7fffffff,%edx
    1627:	89 90 8c 00 00 00    	mov    %edx,0x8c(%eax)
    162d:	8b 43 10             	mov    0x10(%ebx),%eax
    1630:	66 c7 40 02 01 00    	movw   $0x1,0x2(%eax)
    1636:	66 c7 00 05 04       	movw   $0x405,(%eax)
    163b:	c7 40 04 00 00 00 00 	movl   $0x0,0x4(%eax)
    1642:	8b 43 0c             	mov    0xc(%ebx),%eax
    1645:	8b 50 34             	mov    0x34(%eax),%edx
    1648:	83 ca 01             	or     $0x1,%edx
    164b:	89 50 34             	mov    %edx,0x34(%eax)
    164e:	8b 50 38             	mov    0x38(%eax),%edx
    1651:	83 ca 01             	or     $0x1,%edx
    1654:	89 50 38             	mov    %edx,0x38(%eax)
    1657:	56                   	push   %esi
    1658:	e8 73 c6 00 00       	call   dcd0 <fibril_mutex_lock@plt>
    165d:	c7 43 40 00 00 00 00 	movl   $0x0,0x40(%ebx)
    1664:	83 c4 10             	add    $0x10,%esp
    1667:	90                   	nop
    1668:	50                   	push   %eax
    1669:	50                   	push   %eax
    166a:	56                   	push   %esi
    166b:	57                   	push   %edi
    166c:	e8 9f c2 00 00       	call   d910 <fibril_condvar_wait@plt>
    1671:	8b 43 40             	mov    0x40(%ebx),%eax
    1674:	83 c4 10             	add    $0x10,%esp
    1677:	85 c0                	test   %eax,%eax
    1679:	74 ed                	je     1668 <read_blocks+0x1a8>
    167b:	a9 c0 00 c0 80       	test   $0x80c000c0,%eax
    1680:	74 04                	je     1686 <read_blocks+0x1c6>
    1682:	c6 43 09 01          	movb   $0x1,0x9(%ebx)
    1686:	83 ec 0c             	sub    $0xc,%esp
    1689:	89 45 c8             	mov    %eax,-0x38(%ebp)
    168c:	56                   	push   %esi
    168d:	e8 7e c3 00 00       	call   da10 <fibril_mutex_unlock@plt>
    1692:	83 c4 10             	add    $0x10,%esp
    1695:	80 7b 09 00          	cmpb   $0x0,0x9(%ebx)
    1699:	0f 85 ad 00 00 00    	jne    174c <read_blocks+0x28c>
    169f:	8b 45 c8             	mov    -0x38(%ebp),%eax
    16a2:	a9 d0 00 c0 fd       	test   $0xfdc000d0,%eax
    16a7:	0f 85 9f 00 00 00    	jne    174c <read_blocks+0x28c>
    16ad:	8b 43 50             	mov    0x50(%ebx),%eax
    16b0:	52                   	push   %edx
    16b1:	8b 55 cc             	mov    -0x34(%ebp),%edx
    16b4:	50                   	push   %eax
    16b5:	0f af c2             	imul   %edx,%eax
    16b8:	8b 4d e4             	mov    -0x1c(%ebp),%ecx
    16bb:	51                   	push   %ecx
    16bc:	8b 4d 18             	mov    0x18(%ebp),%ecx
    16bf:	01 c8                	add    %ecx,%eax
    16c1:	50                   	push   %eax
    16c2:	e8 c9 c1 00 00       	call   d890 <memcpy@plt>
    16c7:	8b 45 cc             	mov    -0x34(%ebp),%eax
    16ca:	83 c4 10             	add    $0x10,%esp
    16cd:	40                   	inc    %eax
    16ce:	89 45 cc             	mov    %eax,-0x34(%ebp)
    16d1:	8b 4d cc             	mov    -0x34(%ebp),%ecx
    16d4:	39 4d 14             	cmp    %ecx,0x14(%ebp)
    16d7:	74 33                	je     170c <read_blocks+0x24c>
    16d9:	83 45 d0 01          	addl   $0x1,-0x30(%ebp)
    16dd:	83 55 d4 00          	adcl   $0x0,-0x2c(%ebp)
    16e1:	8b 45 e0             	mov    -0x20(%ebp),%eax
    16e4:	89 45 c8             	mov    %eax,-0x38(%ebp)
    16e7:	80 7b 09 00          	cmpb   $0x0,0x9(%ebx)
    16eb:	0f 84 67 fe ff ff    	je     1558 <read_blocks+0x98>
    16f1:	83 c3 54             	add    $0x54,%ebx
    16f4:	52                   	push   %edx
    16f5:	53                   	push   %ebx
    16f6:	68 68 b7 00 00       	push   $0xb768
    16fb:	6a 01                	push   $0x1
    16fd:	e8 1e 20 00 00       	call   3720 <ddf_msg>
    1702:	83 c4 10             	add    $0x10,%esp
    1705:	c7 45 c4 ef ff ff ff 	movl   $0xffffffef,-0x3c(%ebp)
    170c:	83 ec 0c             	sub    $0xc,%esp
    170f:	8b 45 c0             	mov    -0x40(%ebp),%eax
    1712:	50                   	push   %eax
    1713:	e8 f8 c2 00 00       	call   da10 <fibril_mutex_unlock@plt>
    1718:	58                   	pop    %eax
    1719:	8b 45 e4             	mov    -0x1c(%ebp),%eax
    171c:	50                   	push   %eax
    171d:	e8 8e c2 00 00       	call   d9b0 <dmamem_unmap_anonymous@plt>
    1722:	8b 45 c4             	mov    -0x3c(%ebp),%eax
    1725:	83 c4 10             	add    $0x10,%esp
    1728:	8d 65 f4             	lea    -0xc(%ebp),%esp
    172b:	5b                   	pop    %ebx
    172c:	5e                   	pop    %esi
    172d:	5f                   	pop    %edi
    172e:	5d                   	pop    %ebp
    172f:	c3                   	ret    
    1730:	50                   	push   %eax
    1731:	50                   	push   %eax
    1732:	68 4d b6 00 00       	push   $0xb64d
    1737:	6a 01                	push   $0x1
    1739:	e8 e2 1f 00 00       	call   3720 <ddf_msg>
    173e:	8b 45 c4             	mov    -0x3c(%ebp),%eax
    1741:	83 c4 10             	add    $0x10,%esp
    1744:	8d 65 f4             	lea    -0xc(%ebp),%esp
    1747:	5b                   	pop    %ebx
    1748:	5e                   	pop    %esi
    1749:	5f                   	pop    %edi
    174a:	5d                   	pop    %ebp
    174b:	c3                   	ret    
    174c:	83 c3 54             	add    $0x54,%ebx
    174f:	50                   	push   %eax
    1750:	53                   	push   %ebx
    1751:	68 8c b7 00 00       	push   $0xb78c
    1756:	6a 01                	push   $0x1
    1758:	e8 c3 1f 00 00       	call   3720 <ddf_msg>
    175d:	83 c4 10             	add    $0x10,%esp
    1760:	c7 45 c4 ef ff ff ff 	movl   $0xffffffef,-0x3c(%ebp)
    1767:	eb a3                	jmp    170c <read_blocks+0x24c>
    1769:	8d b4 26 00 00 00 00 	lea    0x0(%esi,%eiz,1),%esi

00001770 <ahci_dev_add>:
    1770:	55                   	push   %ebp
    1771:	89 e5                	mov    %esp,%ebp
    1773:	57                   	push   %edi
    1774:	56                   	push   %esi
    1775:	53                   	push   %ebx
    1776:	81 ec 84 00 00 00    	sub    $0x84,%esp
    177c:	8b 5d 08             	mov    0x8(%ebp),%ebx
    177f:	68 8c 00 00 00       	push   $0x8c
    1784:	53                   	push   %ebx
    1785:	e8 56 16 00 00       	call   2de0 <ddf_dev_data_alloc>
    178a:	83 c4 10             	add    $0x10,%esp
    178d:	89 c7                	mov    %eax,%edi
    178f:	89 45 98             	mov    %eax,-0x68(%ebp)
    1792:	85 c0                	test   %eax,%eax
    1794:	0f 84 7a 0a 00 00    	je     2214 <ahci_dev_add+0xaa4>
    179a:	83 ec 0c             	sub    $0xc,%esp
    179d:	89 fe                	mov    %edi,%esi
    179f:	53                   	push   %ebx
    17a0:	e8 ab 16 00 00       	call   2e50 <ddf_dev_parent_sess_create>
    17a5:	83 c4 10             	add    $0x10,%esp
    17a8:	89 87 88 00 00 00    	mov    %eax,0x88(%edi)
    17ae:	85 c0                	test   %eax,%eax
    17b0:	0f 84 5e 0a 00 00    	je     2214 <ahci_dev_add+0xaa4>
    17b6:	89 1f                	mov    %ebx,(%edi)
    17b8:	8d 7d c0             	lea    -0x40(%ebp),%edi
    17bb:	50                   	push   %eax
    17bc:	6a 20                	push   $0x20
    17be:	6a 00                	push   $0x0
    17c0:	57                   	push   %edi
    17c1:	e8 1a c3 00 00       	call   dae0 <memset@plt>
    17c6:	83 c4 0c             	add    $0xc,%esp
    17c9:	8b 86 88 00 00 00    	mov    0x88(%esi),%eax
    17cf:	6a 00                	push   $0x0
    17d1:	57                   	push   %edi
    17d2:	50                   	push   %eax
    17d3:	e8 68 c4 00 00       	call   dc40 <hw_res_get_list_parsed@plt>
    17d8:	83 c4 10             	add    $0x10,%esp
    17db:	85 c0                	test   %eax,%eax
    17dd:	0f 85 22 0a 00 00    	jne    2205 <ahci_dev_add+0xa95>
    17e3:	89 f0                	mov    %esi,%eax
    17e5:	c7 46 04 ff ff ff ff 	movl   $0xffffffff,0x4(%esi)
    17ec:	83 c0 04             	add    $0x4,%eax
    17ef:	50                   	push   %eax
    17f0:	8b 45 d4             	mov    -0x2c(%ebp),%eax
    17f3:	6a 03                	push   $0x3
    17f5:	6a 08                	push   $0x8
    17f7:	8b 00                	mov    (%eax),%eax
    17f9:	50                   	push   %eax
    17fa:	e8 91 bf 00 00       	call   d790 <physmem_map@plt>
    17ff:	8b 46 04             	mov    0x4(%esi),%eax
    1802:	83 c4 10             	add    $0x10,%esp
    1805:	85 c0                	test   %eax,%eax
    1807:	0f 84 be 09 00 00    	je     21cb <ahci_dev_add+0xa5b>
    180d:	8b 45 d4             	mov    -0x2c(%ebp),%eax
    1810:	8b 10                	mov    (%eax),%edx
    1812:	c7 05 70 10 01 00 00 	movl   $0x1100,0x11070
    1819:	11 00 00 
    181c:	89 15 6c 10 01 00    	mov    %edx,0x1106c
    1822:	b8 c4 fc 00 00       	mov    $0xfcc4,%eax
    1827:	8d 4a 08             	lea    0x8(%edx),%ecx
    182a:	81 c2 10 01 00 00    	add    $0x110,%edx
    1830:	89 10                	mov    %edx,(%eax)
    1832:	89 50 28             	mov    %edx,0x28(%eax)
    1835:	89 48 3c             	mov    %ecx,0x3c(%eax)
    1838:	89 48 50             	mov    %ecx,0x50(%eax)
    183b:	05 8c 00 00 00       	add    $0x8c,%eax
    1840:	83 ea 80             	sub    $0xffffff80,%edx
    1843:	3d 44 0e 01 00       	cmp    $0x10e44,%eax
    1848:	75 e6                	jne    1830 <ahci_dev_add+0xc0>
    184a:	8d 45 b0             	lea    -0x50(%ebp),%eax
    184d:	c7 45 b8 e0 00 00 00 	movl   $0xe0,-0x48(%ebp)
    1854:	50                   	push   %eax
    1855:	8b 45 c4             	mov    -0x3c(%ebp),%eax
    1858:	c7 45 b0 01 00 00 00 	movl   $0x1,-0x50(%ebp)
    185f:	68 40 11 00 00       	push   $0x1140
    1864:	8b 00                	mov    (%eax),%eax
    1866:	c7 45 bc c0 fc 00 00 	movl   $0xfcc0,-0x44(%ebp)
    186d:	50                   	push   %eax
    186e:	c7 45 b4 6c 10 01 00 	movl   $0x1106c,-0x4c(%ebp)
    1875:	53                   	push   %ebx
    1876:	e8 55 1e 00 00       	call   36d0 <register_interrupt_handler>
    187b:	83 c4 10             	add    $0x10,%esp
    187e:	85 c0                	test   %eax,%eax
    1880:	0f 85 34 09 00 00    	jne    21ba <ahci_dev_add+0xa4a>
    1886:	8b 45 c4             	mov    -0x3c(%ebp),%eax
    1889:	83 ec 0c             	sub    $0xc,%esp
    188c:	8b 30                	mov    (%eax),%esi
    188e:	56                   	push   %esi
    188f:	e8 ac bf 00 00       	call   d840 <irc_enable_interrupt@plt>
    1894:	83 c4 10             	add    $0x10,%esp
    1897:	89 45 84             	mov    %eax,-0x7c(%ebp)
    189a:	85 c0                	test   %eax,%eax
    189c:	0f 85 b6 0a 00 00    	jne    2358 <ahci_dev_add+0xbe8>
    18a2:	83 ec 0c             	sub    $0xc,%esp
    18a5:	8b 75 c4             	mov    -0x3c(%ebp),%esi
    18a8:	56                   	push   %esi
    18a9:	e8 02 c4 00 00       	call   dcb0 <free@plt>
    18ae:	58                   	pop    %eax
    18af:	8b 45 dc             	mov    -0x24(%ebp),%eax
    18b2:	50                   	push   %eax
    18b3:	e8 f8 c3 00 00       	call   dcb0 <free@plt>
    18b8:	58                   	pop    %eax
    18b9:	8b 45 d4             	mov    -0x2c(%ebp),%eax
    18bc:	50                   	push   %eax
    18bd:	e8 ee c3 00 00       	call   dcb0 <free@plt>
    18c2:	58                   	pop    %eax
    18c3:	8b 45 cc             	mov    -0x34(%ebp),%eax
    18c6:	50                   	push   %eax
    18c7:	e8 e4 c3 00 00       	call   dcb0 <free@plt>
    18cc:	83 c4 0c             	add    $0xc,%esp
    18cf:	6a 20                	push   $0x20
    18d1:	6a 00                	push   $0x0
    18d3:	57                   	push   %edi
    18d4:	e8 07 c2 00 00       	call   dae0 <memset@plt>
    18d9:	8b 5d 98             	mov    -0x68(%ebp),%ebx
    18dc:	83 c4 0c             	add    $0xc,%esp
    18df:	8b 53 04             	mov    0x4(%ebx),%edx
    18e2:	8b 42 14             	mov    0x14(%edx),%eax
    18e5:	83 e0 fe             	and    $0xfffffffe,%eax
    18e8:	89 42 14             	mov    %eax,0x14(%edx)
    18eb:	8b 93 88 00 00 00    	mov    0x88(%ebx),%edx
    18f1:	6a 20                	push   $0x20
    18f3:	6a 0d                	push   $0xd
    18f5:	52                   	push   %edx
    18f6:	e8 55 86 00 00       	call   9f50 <pci_config_space_write_8>
    18fb:	83 c4 0c             	add    $0xc,%esp
    18fe:	8b 8b 88 00 00 00    	mov    0x88(%ebx),%ecx
    1904:	57                   	push   %edi
    1905:	6a 04                	push   $0x4
    1907:	51                   	push   %ecx
    1908:	e8 83 85 00 00       	call   9e90 <pci_config_space_read_16>
    190d:	80 65 c1 fb          	andb   $0xfb,-0x3f(%ebp)
    1911:	80 4d c0 04          	orb    $0x4,-0x40(%ebp)
    1915:	83 c4 0c             	add    $0xc,%esp
    1918:	31 c0                	xor    %eax,%eax
    191a:	66 8b 45 c0          	mov    -0x40(%ebp),%ax
    191e:	8b b3 88 00 00 00    	mov    0x88(%ebx),%esi
    1924:	50                   	push   %eax
    1925:	6a 04                	push   $0x4
    1927:	56                   	push   %esi
    1928:	e8 83 86 00 00       	call   9fb0 <pci_config_space_write_16>
    192d:	8b 53 04             	mov    0x4(%ebx),%edx
    1930:	83 c4 10             	add    $0x10,%esp
    1933:	c7 45 a4 00 00 00 00 	movl   $0x0,-0x5c(%ebp)
    193a:	c7 42 04 02 00 00 80 	movl   $0x80000002,0x4(%edx)
    1941:	eb 1e                	jmp    1961 <ahci_dev_add+0x1f1>
    1943:	90                   	nop
    1944:	8d 74 26 00          	lea    0x0(%esi,%eiz,1),%esi
    1948:	8b 45 a4             	mov    -0x5c(%ebp),%eax
    194b:	40                   	inc    %eax
    194c:	89 45 a4             	mov    %eax,-0x5c(%ebp)
    194f:	8b 45 a4             	mov    -0x5c(%ebp),%eax
    1952:	83 f8 20             	cmp    $0x20,%eax
    1955:	0f 84 c0 08 00 00    	je     221b <ahci_dev_add+0xaab>
    195b:	8b 45 98             	mov    -0x68(%ebp),%eax
    195e:	8b 50 04             	mov    0x4(%eax),%edx
    1961:	8b 75 a4             	mov    -0x5c(%ebp),%esi
    1964:	b8 01 00 00 00       	mov    $0x1,%eax
    1969:	89 f1                	mov    %esi,%ecx
    196b:	8b 5a 0c             	mov    0xc(%edx),%ebx
    196e:	d3 e0                	shl    %cl,%eax
    1970:	85 d8                	test   %ebx,%eax
    1972:	74 d4                	je     1948 <ahci_dev_add+0x1d8>
    1974:	89 f0                	mov    %esi,%eax
    1976:	c1 e0 07             	shl    $0x7,%eax
    1979:	8d 9c 02 00 01 00 00 	lea    0x100(%edx,%eax,1),%ebx
    1980:	8b 43 28             	mov    0x28(%ebx),%eax
    1983:	83 e0 0f             	and    $0xf,%eax
    1986:	3c 03                	cmp    $0x3,%al
    1988:	75 be                	jne    1948 <ahci_dev_add+0x1d8>
    198a:	8b 45 98             	mov    -0x68(%ebp),%eax
    198d:	8b 00                	mov    (%eax),%eax
    198f:	52                   	push   %edx
    1990:	c7 45 a8 00 00 00 00 	movl   $0x0,-0x58(%ebp)
    1997:	6a 00                	push   $0x0
    1999:	c7 45 ac ff ff ff ff 	movl   $0xffffffff,-0x54(%ebp)
    19a0:	6a 02                	push   $0x2
    19a2:	c7 45 b0 ff ff ff ff 	movl   $0xffffffff,-0x50(%ebp)
    19a9:	50                   	push   %eax
    19aa:	c7 45 c0 ff ff ff ff 	movl   $0xffffffff,-0x40(%ebp)
    19b1:	e8 5a 15 00 00       	call   2f10 <ddf_fun_create>
    19b6:	89 c6                	mov    %eax,%esi
    19b8:	59                   	pop    %ecx
    19b9:	58                   	pop    %eax
    19ba:	68 f8 00 00 00       	push   $0xf8
    19bf:	56                   	push   %esi
    19c0:	e8 5b 16 00 00       	call   3020 <ddf_fun_data_alloc>
    19c5:	83 c4 10             	add    $0x10,%esp
    19c8:	89 45 94             	mov    %eax,-0x6c(%ebp)
    19cb:	85 c0                	test   %eax,%eax
    19cd:	0f 84 75 ff ff ff    	je     1948 <ahci_dev_add+0x1d8>
    19d3:	89 58 0c             	mov    %ebx,0xc(%eax)
    19d6:	8d 5d ac             	lea    -0x54(%ebp),%ebx
    19d9:	89 70 04             	mov    %esi,0x4(%eax)
    19dc:	89 c6                	mov    %eax,%esi
    19de:	50                   	push   %eax
    19df:	50                   	push   %eax
    19e0:	53                   	push   %ebx
    19e1:	8d 5d a8             	lea    -0x58(%ebp),%ebx
    19e4:	53                   	push   %ebx
    19e5:	6a 00                	push   $0x0
    19e7:	6a 03                	push   $0x3
    19e9:	6a 00                	push   $0x0
    19eb:	68 00 10 00 00       	push   $0x1000
    19f0:	e8 1b c1 00 00       	call   db10 <dmamem_map_anonymous@plt>
    19f5:	83 c4 20             	add    $0x20,%esp
    19f8:	85 c0                	test   %eax,%eax
    19fa:	0f 85 ad 08 00 00    	jne    22ad <ahci_dev_add+0xb3d>
    1a00:	8b 5d ac             	mov    -0x54(%ebp),%ebx
    1a03:	51                   	push   %ecx
    1a04:	68 00 10 00 00       	push   $0x1000
    1a09:	6a 00                	push   $0x0
    1a0b:	53                   	push   %ebx
    1a0c:	e8 cf c0 00 00       	call   dae0 <memset@plt>
    1a11:	8b 46 0c             	mov    0xc(%esi),%eax
    1a14:	8b 55 a8             	mov    -0x58(%ebp),%edx
    1a17:	89 f3                	mov    %esi,%ebx
    1a19:	c7 40 0c 00 00 00 00 	movl   $0x0,0xc(%eax)
    1a20:	89 50 08             	mov    %edx,0x8(%eax)
    1a23:	5e                   	pop    %esi
    1a24:	8d 55 a8             	lea    -0x58(%ebp),%edx
    1a27:	8d 75 b0             	lea    -0x50(%ebp),%esi
    1a2a:	58                   	pop    %eax
    1a2b:	56                   	push   %esi
    1a2c:	52                   	push   %edx
    1a2d:	6a 00                	push   $0x0
    1a2f:	6a 03                	push   $0x3
    1a31:	6a 00                	push   $0x0
    1a33:	68 00 10 00 00       	push   $0x1000
    1a38:	e8 d3 c0 00 00       	call   db10 <dmamem_map_anonymous@plt>
    1a3d:	83 c4 20             	add    $0x20,%esp
    1a40:	85 c0                	test   %eax,%eax
    1a42:	0f 85 52 08 00 00    	jne    229a <ahci_dev_add+0xb2a>
    1a48:	50                   	push   %eax
    1a49:	8b 45 b0             	mov    -0x50(%ebp),%eax
    1a4c:	68 00 10 00 00       	push   $0x1000
    1a51:	6a 00                	push   $0x0
    1a53:	50                   	push   %eax
    1a54:	e8 87 c0 00 00       	call   dae0 <memset@plt>
    1a59:	8b 43 0c             	mov    0xc(%ebx),%eax
    1a5c:	8b 55 a8             	mov    -0x58(%ebp),%edx
    1a5f:	8d 75 a8             	lea    -0x58(%ebp),%esi
    1a62:	c7 40 04 00 00 00 00 	movl   $0x0,0x4(%eax)
    1a69:	89 10                	mov    %edx,(%eax)
    1a6b:	8b 45 b0             	mov    -0x50(%ebp),%eax
    1a6e:	89 43 10             	mov    %eax,0x10(%ebx)
    1a71:	58                   	pop    %eax
    1a72:	5a                   	pop    %edx
    1a73:	57                   	push   %edi
    1a74:	56                   	push   %esi
    1a75:	6a 00                	push   $0x0
    1a77:	6a 03                	push   $0x3
    1a79:	6a 00                	push   $0x0
    1a7b:	68 00 10 00 00       	push   $0x1000
    1a80:	e8 8b c0 00 00       	call   db10 <dmamem_map_anonymous@plt>
    1a85:	83 c4 20             	add    $0x20,%esp
    1a88:	85 c0                	test   %eax,%eax
    1a8a:	0f 85 f7 07 00 00    	jne    2287 <ahci_dev_add+0xb17>
    1a90:	50                   	push   %eax
    1a91:	8b 45 c0             	mov    -0x40(%ebp),%eax
    1a94:	68 00 10 00 00       	push   $0x1000
    1a99:	6a 00                	push   $0x0
    1a9b:	50                   	push   %eax
    1a9c:	e8 3f c0 00 00       	call   dae0 <memset@plt>
    1aa1:	8b 43 10             	mov    0x10(%ebx),%eax
    1aa4:	8b 55 a8             	mov    -0x58(%ebp),%edx
    1aa7:	8b 4d 98             	mov    -0x68(%ebp),%ecx
    1aaa:	c7 40 0c 00 00 00 00 	movl   $0x0,0xc(%eax)
    1ab1:	89 50 08             	mov    %edx,0x8(%eax)
    1ab4:	8b 45 c0             	mov    -0x40(%ebp),%eax
    1ab7:	8b 55 a4             	mov    -0x5c(%ebp),%edx
    1aba:	89 43 14             	mov    %eax,0x14(%ebx)
    1abd:	89 c8                	mov    %ecx,%eax
    1abf:	88 53 08             	mov    %dl,0x8(%ebx)
    1ac2:	89 0b                	mov    %ecx,(%ebx)
    1ac4:	89 5c 90 08          	mov    %ebx,0x8(%eax,%edx,4)
    1ac8:	8d 43 18             	lea    0x18(%ebx),%eax
    1acb:	89 04 24             	mov    %eax,(%esp)
    1ace:	89 45 90             	mov    %eax,-0x70(%ebp)
    1ad1:	e8 6a bf 00 00       	call   da40 <fibril_mutex_initialize@plt>
    1ad6:	8d 43 28             	lea    0x28(%ebx),%eax
    1ad9:	89 04 24             	mov    %eax,(%esp)
    1adc:	89 45 9c             	mov    %eax,-0x64(%ebp)
    1adf:	e8 5c bf 00 00       	call   da40 <fibril_mutex_initialize@plt>
    1ae4:	8d 43 38             	lea    0x38(%ebx),%eax
    1ae7:	89 04 24             	mov    %eax,(%esp)
    1aea:	89 45 8c             	mov    %eax,-0x74(%ebp)
    1aed:	e8 de be 00 00       	call   d9d0 <fibril_condvar_initialize@plt>
    1af2:	8b 43 0c             	mov    0xc(%ebx),%eax
    1af5:	8b 50 18             	mov    0x18(%eax),%edx
    1af8:	83 c4 10             	add    $0x10,%esp
    1afb:	83 e2 ee             	and    $0xffffffee,%edx
    1afe:	89 50 18             	mov    %edx,0x18(%eax)
    1b01:	83 ca 11             	or     $0x11,%edx
    1b04:	c7 40 10 ff ff ff ff 	movl   $0xffffffff,0x10(%eax)
    1b0b:	c7 40 30 ff ff ff ff 	movl   $0xffffffff,0x30(%eax)
    1b12:	80 7b 09 00          	cmpb   $0x0,0x9(%ebx)
    1b16:	c7 40 14 ff ff ff ff 	movl   $0xffffffff,0x14(%eax)
    1b1d:	89 50 18             	mov    %edx,0x18(%eax)
    1b20:	0f 85 03 08 00 00    	jne    2329 <ahci_dev_add+0xbb9>
    1b26:	50                   	push   %eax
    1b27:	50                   	push   %eax
    1b28:	8d 45 ac             	lea    -0x54(%ebp),%eax
    1b2b:	c7 45 ac ff ff ff ff 	movl   $0xffffffff,-0x54(%ebp)
    1b32:	50                   	push   %eax
    1b33:	8d 45 a8             	lea    -0x58(%ebp),%eax
    1b36:	50                   	push   %eax
    1b37:	6a 00                	push   $0x0
    1b39:	6a 03                	push   $0x3
    1b3b:	6a 00                	push   $0x0
    1b3d:	68 00 02 00 00       	push   $0x200
    1b42:	e8 c9 bf 00 00       	call   db10 <dmamem_map_anonymous@plt>
    1b47:	83 c4 20             	add    $0x20,%esp
    1b4a:	85 c0                	test   %eax,%eax
    1b4c:	0f 85 d6 06 00 00    	jne    2228 <ahci_dev_add+0xab8>
    1b52:	8b 5d ac             	mov    -0x54(%ebp),%ebx
    1b55:	51                   	push   %ecx
    1b56:	68 00 02 00 00       	push   $0x200
    1b5b:	6a 00                	push   $0x0
    1b5d:	53                   	push   %ebx
    1b5e:	e8 7d bf 00 00       	call   dae0 <memset@plt>
    1b63:	8b 45 90             	mov    -0x70(%ebp),%eax
    1b66:	5e                   	pop    %esi
    1b67:	50                   	push   %eax
    1b68:	e8 63 c1 00 00       	call   dcd0 <fibril_mutex_lock@plt>
    1b6d:	8b 5d 94             	mov    -0x6c(%ebp),%ebx
    1b70:	8b 4d a8             	mov    -0x58(%ebp),%ecx
    1b73:	8b 43 14             	mov    0x14(%ebx),%eax
    1b76:	c6 00 27             	movb   $0x27,(%eax)
    1b79:	c6 40 01 80          	movb   $0x80,0x1(%eax)
    1b7d:	c6 40 02 ec          	movb   $0xec,0x2(%eax)
    1b81:	c6 40 03 00          	movb   $0x0,0x3(%eax)
    1b85:	8b 50 04             	mov    0x4(%eax),%edx
    1b88:	81 e2 00 00 00 ff    	and    $0xff000000,%edx
    1b8e:	89 50 04             	mov    %edx,0x4(%eax)
    1b91:	c6 40 07 00          	movb   $0x0,0x7(%eax)
    1b95:	8b 50 08             	mov    0x8(%eax),%edx
    1b98:	81 e2 00 00 00 ff    	and    $0xff000000,%edx
    1b9e:	89 50 08             	mov    %edx,0x8(%eax)
    1ba1:	c6 40 0b 00          	movb   $0x0,0xb(%eax)
    1ba5:	66 c7 40 0c 00 00    	movw   $0x0,0xc(%eax)
    1bab:	c6 40 0e 00          	movb   $0x0,0xe(%eax)
    1baf:	c6 40 0f 00          	movb   $0x0,0xf(%eax)
    1bb3:	c7 40 10 00 00 00 00 	movl   $0x0,0x10(%eax)
    1bba:	89 88 80 00 00 00    	mov    %ecx,0x80(%eax)
    1bc0:	c7 80 84 00 00 00 00 	movl   $0x0,0x84(%eax)
    1bc7:	00 00 00 
    1bca:	c7 80 88 00 00 00 00 	movl   $0x0,0x88(%eax)
    1bd1:	00 00 00 
    1bd4:	8b 90 8c 00 00 00    	mov    0x8c(%eax),%edx
    1bda:	81 e2 00 00 c0 ff    	and    $0xffc00000,%edx
    1be0:	81 ca ff 01 00 00    	or     $0x1ff,%edx
    1be6:	89 90 8c 00 00 00    	mov    %edx,0x8c(%eax)
    1bec:	8b 90 8c 00 00 00    	mov    0x8c(%eax),%edx
    1bf2:	81 e2 ff ff 3f 80    	and    $0x803fffff,%edx
    1bf8:	89 90 8c 00 00 00    	mov    %edx,0x8c(%eax)
    1bfe:	8b 90 8c 00 00 00    	mov    0x8c(%eax),%edx
    1c04:	81 e2 ff ff ff 7f    	and    $0x7fffffff,%edx
    1c0a:	89 90 8c 00 00 00    	mov    %edx,0x8c(%eax)
    1c10:	8b 43 10             	mov    0x10(%ebx),%eax
    1c13:	66 c7 40 02 01 00    	movw   $0x1,0x2(%eax)
    1c19:	66 c7 00 02 04       	movw   $0x402,(%eax)
    1c1e:	c7 40 04 00 00 00 00 	movl   $0x0,0x4(%eax)
    1c25:	8b 43 0c             	mov    0xc(%ebx),%eax
    1c28:	8b 50 34             	mov    0x34(%eax),%edx
    1c2b:	83 ca 01             	or     $0x1,%edx
    1c2e:	89 50 34             	mov    %edx,0x34(%eax)
    1c31:	8b 50 38             	mov    0x38(%eax),%edx
    1c34:	83 ca 01             	or     $0x1,%edx
    1c37:	89 50 38             	mov    %edx,0x38(%eax)
    1c3a:	58                   	pop    %eax
    1c3b:	8b 45 9c             	mov    -0x64(%ebp),%eax
    1c3e:	50                   	push   %eax
    1c3f:	e8 8c c0 00 00       	call   dcd0 <fibril_mutex_lock@plt>
    1c44:	c7 43 40 00 00 00 00 	movl   $0x0,0x40(%ebx)
    1c4b:	83 c4 10             	add    $0x10,%esp
    1c4e:	8b 75 8c             	mov    -0x74(%ebp),%esi
    1c51:	8d b4 26 00 00 00 00 	lea    0x0(%esi,%eiz,1),%esi
    1c58:	8b 55 9c             	mov    -0x64(%ebp),%edx
    1c5b:	50                   	push   %eax
    1c5c:	50                   	push   %eax
    1c5d:	52                   	push   %edx
    1c5e:	56                   	push   %esi
    1c5f:	e8 ac bc 00 00       	call   d910 <fibril_condvar_wait@plt>
    1c64:	8b 43 40             	mov    0x40(%ebx),%eax
    1c67:	83 c4 10             	add    $0x10,%esp
    1c6a:	85 c0                	test   %eax,%eax
    1c6c:	74 ea                	je     1c58 <ahci_dev_add+0x4e8>
    1c6e:	89 c3                	mov    %eax,%ebx
    1c70:	a9 c0 00 c0 80       	test   $0x80c000c0,%eax
    1c75:	74 07                	je     1c7e <ahci_dev_add+0x50e>
    1c77:	8b 45 94             	mov    -0x6c(%ebp),%eax
    1c7a:	c6 40 09 01          	movb   $0x1,0x9(%eax)
    1c7e:	83 ec 0c             	sub    $0xc,%esp
    1c81:	8b 45 9c             	mov    -0x64(%ebp),%eax
    1c84:	50                   	push   %eax
    1c85:	e8 86 bd 00 00       	call   da10 <fibril_mutex_unlock@plt>
    1c8a:	8b 45 94             	mov    -0x6c(%ebp),%eax
    1c8d:	83 c4 10             	add    $0x10,%esp
    1c90:	80 78 09 00          	cmpb   $0x0,0x9(%eax)
    1c94:	0f 85 72 07 00 00    	jne    240c <ahci_dev_add+0xc9c>
    1c9a:	81 e3 00 00 00 40    	and    $0x40000000,%ebx
    1ca0:	0f 84 3f 01 00 00    	je     1de5 <ahci_dev_add+0x675>
    1ca6:	89 c3                	mov    %eax,%ebx
    1ca8:	8b 40 14             	mov    0x14(%eax),%eax
    1cab:	8b 4d a8             	mov    -0x58(%ebp),%ecx
    1cae:	83 ec 0c             	sub    $0xc,%esp
    1cb1:	c6 00 27             	movb   $0x27,(%eax)
    1cb4:	c6 40 01 80          	movb   $0x80,0x1(%eax)
    1cb8:	c6 40 02 a1          	movb   $0xa1,0x2(%eax)
    1cbc:	c6 40 03 00          	movb   $0x0,0x3(%eax)
    1cc0:	8b 50 04             	mov    0x4(%eax),%edx
    1cc3:	81 e2 00 00 00 ff    	and    $0xff000000,%edx
    1cc9:	89 50 04             	mov    %edx,0x4(%eax)
    1ccc:	c6 40 07 00          	movb   $0x0,0x7(%eax)
    1cd0:	8b 50 08             	mov    0x8(%eax),%edx
    1cd3:	81 e2 00 00 00 ff    	and    $0xff000000,%edx
    1cd9:	89 50 08             	mov    %edx,0x8(%eax)
    1cdc:	c6 40 0b 00          	movb   $0x0,0xb(%eax)
    1ce0:	66 c7 40 0c 00 00    	movw   $0x0,0xc(%eax)
    1ce6:	c6 40 0e 00          	movb   $0x0,0xe(%eax)
    1cea:	c6 40 0f 00          	movb   $0x0,0xf(%eax)
    1cee:	c7 40 10 00 00 00 00 	movl   $0x0,0x10(%eax)
    1cf5:	89 88 80 00 00 00    	mov    %ecx,0x80(%eax)
    1cfb:	c7 80 84 00 00 00 00 	movl   $0x0,0x84(%eax)
    1d02:	00 00 00 
    1d05:	c7 80 88 00 00 00 00 	movl   $0x0,0x88(%eax)
    1d0c:	00 00 00 
    1d0f:	8b 90 8c 00 00 00    	mov    0x8c(%eax),%edx
    1d15:	81 e2 00 00 c0 ff    	and    $0xffc00000,%edx
    1d1b:	81 ca ff 01 00 00    	or     $0x1ff,%edx
    1d21:	89 90 8c 00 00 00    	mov    %edx,0x8c(%eax)
    1d27:	8b 90 8c 00 00 00    	mov    0x8c(%eax),%edx
    1d2d:	81 e2 ff ff 3f 80    	and    $0x803fffff,%edx
    1d33:	89 90 8c 00 00 00    	mov    %edx,0x8c(%eax)
    1d39:	8b 90 8c 00 00 00    	mov    0x8c(%eax),%edx
    1d3f:	81 e2 ff ff ff 7f    	and    $0x7fffffff,%edx
    1d45:	89 90 8c 00 00 00    	mov    %edx,0x8c(%eax)
    1d4b:	8b 43 10             	mov    0x10(%ebx),%eax
    1d4e:	66 c7 40 02 01 00    	movw   $0x1,0x2(%eax)
    1d54:	66 c7 00 02 04       	movw   $0x402,(%eax)
    1d59:	c7 40 04 00 00 00 00 	movl   $0x0,0x4(%eax)
    1d60:	8b 43 0c             	mov    0xc(%ebx),%eax
    1d63:	8b 50 34             	mov    0x34(%eax),%edx
    1d66:	83 ca 01             	or     $0x1,%edx
    1d69:	89 50 34             	mov    %edx,0x34(%eax)
    1d6c:	8b 50 38             	mov    0x38(%eax),%edx
    1d6f:	83 ca 01             	or     $0x1,%edx
    1d72:	89 50 38             	mov    %edx,0x38(%eax)
    1d75:	8b 45 9c             	mov    -0x64(%ebp),%eax
    1d78:	50                   	push   %eax
    1d79:	e8 52 bf 00 00       	call   dcd0 <fibril_mutex_lock@plt>
    1d7e:	c7 43 40 00 00 00 00 	movl   $0x0,0x40(%ebx)
    1d85:	83 c4 10             	add    $0x10,%esp
    1d88:	8b 75 8c             	mov    -0x74(%ebp),%esi
    1d8b:	90                   	nop
    1d8c:	8d 74 26 00          	lea    0x0(%esi,%eiz,1),%esi
    1d90:	50                   	push   %eax
    1d91:	50                   	push   %eax
    1d92:	8b 45 9c             	mov    -0x64(%ebp),%eax
    1d95:	50                   	push   %eax
    1d96:	56                   	push   %esi
    1d97:	e8 74 bb 00 00       	call   d910 <fibril_condvar_wait@plt>
    1d9c:	8b 43 40             	mov    0x40(%ebx),%eax
    1d9f:	83 c4 10             	add    $0x10,%esp
    1da2:	85 c0                	test   %eax,%eax
    1da4:	74 ea                	je     1d90 <ahci_dev_add+0x620>
    1da6:	89 c3                	mov    %eax,%ebx
    1da8:	a9 c0 00 c0 80       	test   $0x80c000c0,%eax
    1dad:	74 07                	je     1db6 <ahci_dev_add+0x646>
    1daf:	8b 45 94             	mov    -0x6c(%ebp),%eax
    1db2:	c6 40 09 01          	movb   $0x1,0x9(%eax)
    1db6:	83 ec 0c             	sub    $0xc,%esp
    1db9:	8b 4d 9c             	mov    -0x64(%ebp),%ecx
    1dbc:	51                   	push   %ecx
    1dbd:	e8 4e bc 00 00       	call   da10 <fibril_mutex_unlock@plt>
    1dc2:	8b 45 94             	mov    -0x6c(%ebp),%eax
    1dc5:	83 c4 10             	add    $0x10,%esp
    1dc8:	80 78 09 00          	cmpb   $0x0,0x9(%eax)
    1dcc:	0f 85 f2 05 00 00    	jne    23c4 <ahci_dev_add+0xc54>
    1dd2:	81 e3 d0 00 c0 fd    	and    $0xfdc000d0,%ebx
    1dd8:	0f 85 e6 05 00 00    	jne    23c4 <ahci_dev_add+0xc54>
    1dde:	c6 80 f5 00 00 00 01 	movb   $0x1,0xf5(%eax)
    1de5:	83 c0 54             	add    $0x54,%eax
    1de8:	89 45 88             	mov    %eax,-0x78(%ebp)
    1deb:	8b 45 ac             	mov    -0x54(%ebp),%eax
    1dee:	8d 70 36             	lea    0x36(%eax),%esi
    1df1:	50                   	push   %eax
    1df2:	6a 28                	push   $0x28
    1df4:	6a 00                	push   $0x0
    1df6:	57                   	push   %edi
    1df7:	e8 e4 bc 00 00       	call   dae0 <memset@plt>
    1dfc:	83 c4 10             	add    $0x10,%esp
    1dff:	31 c0                	xor    %eax,%eax
    1e01:	8d b4 26 00 00 00 00 	lea    0x0(%esi,%eiz,1),%esi
    1e08:	66 8b 14 46          	mov    (%esi,%eax,2),%dx
    1e0c:	89 d1                	mov    %edx,%ecx
    1e0e:	88 54 47 01          	mov    %dl,0x1(%edi,%eax,2)
    1e12:	66 c1 e9 08          	shr    $0x8,%cx
    1e16:	88 0c 47             	mov    %cl,(%edi,%eax,2)
    1e19:	40                   	inc    %eax
    1e1a:	83 f8 14             	cmp    $0x14,%eax
    1e1d:	75 e9                	jne    1e08 <ahci_dev_add+0x698>
    1e1f:	be 28 00 00 00       	mov    $0x28,%esi
    1e24:	eb 0c                	jmp    1e32 <ahci_dev_add+0x6c2>
    1e26:	66 90                	xchg   %ax,%ax
    1e28:	89 c6                	mov    %eax,%esi
    1e2a:	85 c0                	test   %eax,%eax
    1e2c:	0f 84 a8 04 00 00    	je     22da <ahci_dev_add+0xb6a>
    1e32:	8d 46 ff             	lea    -0x1(%esi),%eax
    1e35:	80 3c 07 20          	cmpb   $0x20,(%edi,%eax,1)
    1e39:	74 ed                	je     1e28 <ahci_dev_add+0x6b8>
    1e3b:	01 fe                	add    %edi,%esi
    1e3d:	c7 45 b0 00 00 00 00 	movl   $0x0,-0x50(%ebp)
    1e44:	89 75 a0             	mov    %esi,-0x60(%ebp)
    1e47:	8b 5d 88             	mov    -0x78(%ebp),%ebx
    1e4a:	89 fe                	mov    %edi,%esi
    1e4c:	eb 1d                	jmp    1e6b <ahci_dev_add+0x6fb>
    1e4e:	66 90                	xchg   %ax,%ax
    1e50:	25 ff 00 00 00       	and    $0xff,%eax
    1e55:	8d 4d b0             	lea    -0x50(%ebp),%ecx
    1e58:	6a 28                	push   $0x28
    1e5a:	46                   	inc    %esi
    1e5b:	51                   	push   %ecx
    1e5c:	53                   	push   %ebx
    1e5d:	50                   	push   %eax
    1e5e:	e8 ed bd 00 00       	call   dc50 <chr_encode@plt>
    1e63:	83 c4 10             	add    $0x10,%esp
    1e66:	3b 75 a0             	cmp    -0x60(%ebp),%esi
    1e69:	74 0d                	je     1e78 <ahci_dev_add+0x708>
    1e6b:	8a 06                	mov    (%esi),%al
    1e6d:	84 c0                	test   %al,%al
    1e6f:	79 df                	jns    1e50 <ahci_dev_add+0x6e0>
    1e71:	b0 3f                	mov    $0x3f,%al
    1e73:	eb db                	jmp    1e50 <ahci_dev_add+0x6e0>
    1e75:	8d 76 00             	lea    0x0(%esi),%esi
    1e78:	8b 45 b0             	mov    -0x50(%ebp),%eax
    1e7b:	8b 4d 88             	mov    -0x78(%ebp),%ecx
    1e7e:	c6 04 01 00          	movb   $0x0,(%ecx,%eax,1)
    1e82:	8b 4d ac             	mov    -0x54(%ebp),%ecx
    1e85:	f6 81 99 00 00 00 01 	testb  $0x1,0x99(%ecx)
    1e8c:	0f 84 90 05 00 00    	je     2422 <ahci_dev_add+0xcb2>
    1e92:	66 8b 81 d4 00 00 00 	mov    0xd4(%ecx),%ax
    1e99:	89 c2                	mov    %eax,%edx
    1e9b:	81 e2 00 c0 ff ff    	and    $0xffffc000,%edx
    1ea1:	66 81 fa 00 40       	cmp    $0x4000,%dx
    1ea6:	0f 84 35 04 00 00    	je     22e1 <ahci_dev_add+0xb71>
    1eac:	8b 45 94             	mov    -0x6c(%ebp),%eax
    1eaf:	80 b8 f5 00 00 00 00 	cmpb   $0x0,0xf5(%eax)
    1eb6:	c7 40 50 00 02 00 00 	movl   $0x200,0x50(%eax)
    1ebd:	0f 84 9d 03 00 00    	je     2260 <ahci_dev_add+0xaf0>
    1ec3:	c7 40 48 00 00 00 00 	movl   $0x0,0x48(%eax)
    1eca:	c7 40 4c 00 00 00 00 	movl   $0x0,0x4c(%eax)
    1ed1:	89 c3                	mov    %eax,%ebx
    1ed3:	66 8b 81 b0 00 00 00 	mov    0xb0(%ecx),%ax
    1eda:	c6 83 f6 00 00 00 ff 	movb   $0xff,0xf6(%ebx)
    1ee1:	88 c2                	mov    %al,%dl
    1ee3:	83 e2 7f             	and    $0x7f,%edx
    1ee6:	0f 84 07 05 00 00    	je     23f3 <ahci_dev_add+0xc83>
    1eec:	81 e2 ff 00 00 00    	and    $0xff,%edx
    1ef2:	a8 01                	test   $0x1,%al
    1ef4:	74 07                	je     1efd <ahci_dev_add+0x78d>
    1ef6:	c6 83 f6 00 00 00 00 	movb   $0x0,0xf6(%ebx)
    1efd:	a8 02                	test   $0x2,%al
    1eff:	74 0a                	je     1f0b <ahci_dev_add+0x79b>
    1f01:	8b 5d 94             	mov    -0x6c(%ebp),%ebx
    1f04:	c6 83 f6 00 00 00 01 	movb   $0x1,0xf6(%ebx)
    1f0b:	a8 04                	test   $0x4,%al
    1f0d:	74 0a                	je     1f19 <ahci_dev_add+0x7a9>
    1f0f:	8b 5d 94             	mov    -0x6c(%ebp),%ebx
    1f12:	c6 83 f6 00 00 00 02 	movb   $0x2,0xf6(%ebx)
    1f19:	a8 08                	test   $0x8,%al
    1f1b:	74 0a                	je     1f27 <ahci_dev_add+0x7b7>
    1f1d:	8b 4d 94             	mov    -0x6c(%ebp),%ecx
    1f20:	c6 81 f6 00 00 00 03 	movb   $0x3,0xf6(%ecx)
    1f27:	a8 10                	test   $0x10,%al
    1f29:	74 0a                	je     1f35 <ahci_dev_add+0x7c5>
    1f2b:	8b 5d 94             	mov    -0x6c(%ebp),%ebx
    1f2e:	c6 83 f6 00 00 00 04 	movb   $0x4,0xf6(%ebx)
    1f35:	a8 20                	test   $0x20,%al
    1f37:	74 0a                	je     1f43 <ahci_dev_add+0x7d3>
    1f39:	8b 45 94             	mov    -0x6c(%ebp),%eax
    1f3c:	c6 80 f6 00 00 00 05 	movb   $0x5,0xf6(%eax)
    1f43:	c1 ea 06             	shr    $0x6,%edx
    1f46:	74 0a                	je     1f52 <ahci_dev_add+0x7e2>
    1f48:	8b 45 94             	mov    -0x6c(%ebp),%eax
    1f4b:	c6 80 f6 00 00 00 06 	movb   $0x6,0xf6(%eax)
    1f52:	83 ec 0c             	sub    $0xc,%esp
    1f55:	8b 55 90             	mov    -0x70(%ebp),%edx
    1f58:	52                   	push   %edx
    1f59:	e8 b2 ba 00 00       	call   da10 <fibril_mutex_unlock@plt>
    1f5e:	8b 5d ac             	mov    -0x54(%ebp),%ebx
    1f61:	59                   	pop    %ecx
    1f62:	53                   	push   %ebx
    1f63:	e8 48 ba 00 00       	call   d9b0 <dmamem_unmap_anonymous@plt>
    1f68:	8b 45 94             	mov    -0x6c(%ebp),%eax
    1f6b:	83 c4 10             	add    $0x10,%esp
    1f6e:	80 78 09 00          	cmpb   $0x0,0x9(%eax)
    1f72:	0f 85 62 04 00 00    	jne    23da <ahci_dev_add+0xc6a>
    1f78:	8a 80 f6 00 00 00    	mov    0xf6(%eax),%al
    1f7e:	3c ff                	cmp    $0xff,%al
    1f80:	0f 84 ce 04 00 00    	je     2454 <ahci_dev_add+0xce4>
    1f86:	3c 06                	cmp    $0x6,%al
    1f88:	0f 87 b1 03 00 00    	ja     233f <ahci_dev_add+0xbcf>
    1f8e:	50                   	push   %eax
    1f8f:	50                   	push   %eax
    1f90:	8d 45 b0             	lea    -0x50(%ebp),%eax
    1f93:	57                   	push   %edi
    1f94:	c7 45 c0 ff ff ff ff 	movl   $0xffffffff,-0x40(%ebp)
    1f9b:	50                   	push   %eax
    1f9c:	6a 00                	push   $0x0
    1f9e:	6a 03                	push   $0x3
    1fa0:	6a 00                	push   $0x0
    1fa2:	68 00 02 00 00       	push   $0x200
    1fa7:	e8 64 bb 00 00       	call   db10 <dmamem_map_anonymous@plt>
    1fac:	83 c4 20             	add    $0x20,%esp
    1faf:	85 c0                	test   %eax,%eax
    1fb1:	0f 85 91 02 00 00    	jne    2248 <ahci_dev_add+0xad8>
    1fb7:	8b 5d c0             	mov    -0x40(%ebp),%ebx
    1fba:	51                   	push   %ecx
    1fbb:	68 00 02 00 00       	push   $0x200
    1fc0:	6a 00                	push   $0x0
    1fc2:	53                   	push   %ebx
    1fc3:	e8 18 bb 00 00       	call   dae0 <memset@plt>
    1fc8:	8b 45 90             	mov    -0x70(%ebp),%eax
    1fcb:	5e                   	pop    %esi
    1fcc:	50                   	push   %eax
    1fcd:	e8 fe bc 00 00       	call   dcd0 <fibril_mutex_lock@plt>
    1fd2:	8b 5d 94             	mov    -0x6c(%ebp),%ebx
    1fd5:	8b 75 b0             	mov    -0x50(%ebp),%esi
    1fd8:	8b 43 14             	mov    0x14(%ebx),%eax
    1fdb:	8a 93 f6 00 00 00    	mov    0xf6(%ebx),%dl
    1fe1:	83 e2 07             	and    $0x7,%edx
    1fe4:	c6 00 27             	movb   $0x27,(%eax)
    1fe7:	c6 40 01 80          	movb   $0x80,0x1(%eax)
    1feb:	c6 40 02 ef          	movb   $0xef,0x2(%eax)
    1fef:	c6 40 03 03          	movb   $0x3,0x3(%eax)
    1ff3:	8b 48 04             	mov    0x4(%eax),%ecx
    1ff6:	83 ca 40             	or     $0x40,%edx
    1ff9:	81 e1 00 00 00 ff    	and    $0xff000000,%ecx
    1fff:	89 48 04             	mov    %ecx,0x4(%eax)
    2002:	c6 40 07 00          	movb   $0x0,0x7(%eax)
    2006:	8b 48 08             	mov    0x8(%eax),%ecx
    2009:	81 e1 00 00 00 ff    	and    $0xff000000,%ecx
    200f:	89 48 08             	mov    %ecx,0x8(%eax)
    2012:	c6 40 0b 00          	movb   $0x0,0xb(%eax)
    2016:	66 89 50 0c          	mov    %dx,0xc(%eax)
    201a:	c6 40 0e 00          	movb   $0x0,0xe(%eax)
    201e:	c6 40 0f 00          	movb   $0x0,0xf(%eax)
    2022:	c7 40 10 00 00 00 00 	movl   $0x0,0x10(%eax)
    2029:	89 b0 80 00 00 00    	mov    %esi,0x80(%eax)
    202f:	c7 80 84 00 00 00 00 	movl   $0x0,0x84(%eax)
    2036:	00 00 00 
    2039:	c7 80 88 00 00 00 00 	movl   $0x0,0x88(%eax)
    2040:	00 00 00 
    2043:	8b 90 8c 00 00 00    	mov    0x8c(%eax),%edx
    2049:	81 e2 00 00 c0 ff    	and    $0xffc00000,%edx
    204f:	81 ca ff 01 00 00    	or     $0x1ff,%edx
    2055:	89 90 8c 00 00 00    	mov    %edx,0x8c(%eax)
    205b:	8b 90 8c 00 00 00    	mov    0x8c(%eax),%edx
    2061:	81 e2 ff ff 3f 80    	and    $0x803fffff,%edx
    2067:	89 90 8c 00 00 00    	mov    %edx,0x8c(%eax)
    206d:	8b 90 8c 00 00 00    	mov    0x8c(%eax),%edx
    2073:	81 e2 ff ff ff 7f    	and    $0x7fffffff,%edx
    2079:	89 90 8c 00 00 00    	mov    %edx,0x8c(%eax)
    207f:	8b 43 10             	mov    0x10(%ebx),%eax
    2082:	66 c7 40 02 01 00    	movw   $0x1,0x2(%eax)
    2088:	66 c7 00 02 04       	movw   $0x402,(%eax)
    208d:	c7 40 04 00 00 00 00 	movl   $0x0,0x4(%eax)
    2094:	8b 43 0c             	mov    0xc(%ebx),%eax
    2097:	8b 50 34             	mov    0x34(%eax),%edx
    209a:	83 ca 01             	or     $0x1,%edx
    209d:	89 50 34             	mov    %edx,0x34(%eax)
    20a0:	8b 50 38             	mov    0x38(%eax),%edx
    20a3:	83 ca 01             	or     $0x1,%edx
    20a6:	89 50 38             	mov    %edx,0x38(%eax)
    20a9:	58                   	pop    %eax
    20aa:	8b 45 9c             	mov    -0x64(%ebp),%eax
    20ad:	50                   	push   %eax
    20ae:	e8 1d bc 00 00       	call   dcd0 <fibril_mutex_lock@plt>
    20b3:	89 d8                	mov    %ebx,%eax
    20b5:	c7 43 40 00 00 00 00 	movl   $0x0,0x40(%ebx)
    20bc:	83 c4 10             	add    $0x10,%esp
    20bf:	8b 5d 8c             	mov    -0x74(%ebp),%ebx
    20c2:	89 c6                	mov    %eax,%esi
    20c4:	8d 74 26 00          	lea    0x0(%esi,%eiz,1),%esi
    20c8:	8b 55 9c             	mov    -0x64(%ebp),%edx
    20cb:	50                   	push   %eax
    20cc:	50                   	push   %eax
    20cd:	52                   	push   %edx
    20ce:	53                   	push   %ebx
    20cf:	e8 3c b8 00 00       	call   d910 <fibril_condvar_wait@plt>
    20d4:	8b 46 40             	mov    0x40(%esi),%eax
    20d7:	83 c4 10             	add    $0x10,%esp
    20da:	85 c0                	test   %eax,%eax
    20dc:	74 ea                	je     20c8 <ahci_dev_add+0x958>
    20de:	89 c6                	mov    %eax,%esi
    20e0:	a9 c0 00 c0 80       	test   $0x80c000c0,%eax
    20e5:	74 07                	je     20ee <ahci_dev_add+0x97e>
    20e7:	8b 45 94             	mov    -0x6c(%ebp),%eax
    20ea:	c6 40 09 01          	movb   $0x1,0x9(%eax)
    20ee:	83 ec 0c             	sub    $0xc,%esp
    20f1:	8b 45 9c             	mov    -0x64(%ebp),%eax
    20f4:	50                   	push   %eax
    20f5:	e8 16 b9 00 00       	call   da10 <fibril_mutex_unlock@plt>
    20fa:	8b 45 94             	mov    -0x6c(%ebp),%eax
    20fd:	83 c4 10             	add    $0x10,%esp
    2100:	80 78 09 00          	cmpb   $0x0,0x9(%eax)
    2104:	0f 85 31 03 00 00    	jne    243b <ahci_dev_add+0xccb>
    210a:	81 e6 d0 00 c0 fd    	and    $0xfdc000d0,%esi
    2110:	0f 85 7c 02 00 00    	jne    2392 <ahci_dev_add+0xc22>
    2116:	83 ec 0c             	sub    $0xc,%esp
    2119:	8b 45 90             	mov    -0x70(%ebp),%eax
    211c:	50                   	push   %eax
    211d:	e8 ee b8 00 00       	call   da10 <fibril_mutex_unlock@plt>
    2122:	58                   	pop    %eax
    2123:	8b 45 c0             	mov    -0x40(%ebp),%eax
    2126:	50                   	push   %eax
    2127:	e8 84 b8 00 00       	call   d9b0 <dmamem_unmap_anonymous@plt>
    212c:	a1 74 10 01 00       	mov    0x11074,%eax
    2131:	50                   	push   %eax
    2132:	68 d2 b6 00 00       	push   $0xb6d2
    2137:	6a 10                	push   $0x10
    2139:	57                   	push   %edi
    213a:	e8 c1 b6 00 00       	call   d800 <snprintf@plt>
    213f:	83 c4 14             	add    $0x14,%esp
    2142:	68 78 10 01 00       	push   $0x11078
    2147:	e8 84 bb 00 00       	call   dcd0 <fibril_mutex_lock@plt>
    214c:	8b 15 74 10 01 00    	mov    0x11074,%edx
    2152:	c7 04 24 78 10 01 00 	movl   $0x11078,(%esp)
    2159:	42                   	inc    %edx
    215a:	89 15 74 10 01 00    	mov    %edx,0x11074
    2160:	e8 ab b8 00 00       	call   da10 <fibril_mutex_unlock@plt>
    2165:	8b 45 94             	mov    -0x6c(%ebp),%eax
    2168:	59                   	pop    %ecx
    2169:	5b                   	pop    %ebx
    216a:	57                   	push   %edi
    216b:	8b 70 04             	mov    0x4(%eax),%esi
    216e:	56                   	push   %esi
    216f:	e8 2c 0d 00 00       	call   2ea0 <ddf_fun_set_name>
    2174:	83 c4 10             	add    $0x10,%esp
    2177:	85 c0                	test   %eax,%eax
    2179:	0f 85 fd 01 00 00    	jne    237c <ahci_dev_add+0xc0c>
    217f:	51                   	push   %ecx
    2180:	51                   	push   %ecx
    2181:	68 60 0e 01 00       	push   $0x10e60
    2186:	6a 00                	push   $0x0
    2188:	e8 33 13 00 00       	call   34c0 <ddf_fun_set_ops>
    218d:	c7 04 24 00 00 00 00 	movl   $0x0,(%esp)
    2194:	e8 37 10 00 00       	call   31d0 <ddf_fun_bind>
    2199:	83 c4 10             	add    $0x10,%esp
    219c:	85 c0                	test   %eax,%eax
    219e:	0f 84 a4 f7 ff ff    	je     1948 <ahci_dev_add+0x1d8>
    21a4:	52                   	push   %edx
    21a5:	52                   	push   %edx
    21a6:	68 f8 b6 00 00       	push   $0xb6f8
    21ab:	6a 01                	push   $0x1
    21ad:	e8 6e 15 00 00       	call   3720 <ddf_msg>
    21b2:	83 c4 10             	add    $0x10,%esp
    21b5:	e9 7f 00 00 00       	jmp    2239 <ahci_dev_add+0xac9>
    21ba:	50                   	push   %eax
    21bb:	50                   	push   %eax
    21bc:	68 b8 b7 00 00       	push   $0xb7b8
    21c1:	6a 01                	push   $0x1
    21c3:	e8 58 15 00 00       	call   3720 <ddf_msg>
    21c8:	83 c4 10             	add    $0x10,%esp
    21cb:	83 ec 0c             	sub    $0xc,%esp
    21ce:	8b 45 c4             	mov    -0x3c(%ebp),%eax
    21d1:	50                   	push   %eax
    21d2:	e8 d9 ba 00 00       	call   dcb0 <free@plt>
    21d7:	58                   	pop    %eax
    21d8:	8b 45 dc             	mov    -0x24(%ebp),%eax
    21db:	50                   	push   %eax
    21dc:	e8 cf ba 00 00       	call   dcb0 <free@plt>
    21e1:	8b 55 d4             	mov    -0x2c(%ebp),%edx
    21e4:	58                   	pop    %eax
    21e5:	52                   	push   %edx
    21e6:	e8 c5 ba 00 00       	call   dcb0 <free@plt>
    21eb:	8b 5d cc             	mov    -0x34(%ebp),%ebx
    21ee:	59                   	pop    %ecx
    21ef:	53                   	push   %ebx
    21f0:	e8 bb ba 00 00       	call   dcb0 <free@plt>
    21f5:	83 c4 0c             	add    $0xc,%esp
    21f8:	6a 20                	push   $0x20
    21fa:	6a 00                	push   $0x0
    21fc:	57                   	push   %edi
    21fd:	e8 de b8 00 00       	call   dae0 <memset@plt>
    2202:	83 c4 10             	add    $0x10,%esp
    2205:	83 ec 0c             	sub    $0xc,%esp
    2208:	8b 45 98             	mov    -0x68(%ebp),%eax
    220b:	50                   	push   %eax
    220c:	e8 9f ba 00 00       	call   dcb0 <free@plt>
    2211:	83 c4 10             	add    $0x10,%esp
    2214:	c7 45 84 ef ff ff ff 	movl   $0xffffffef,-0x7c(%ebp)
    221b:	8b 45 84             	mov    -0x7c(%ebp),%eax
    221e:	8d 65 f4             	lea    -0xc(%ebp),%esp
    2221:	5b                   	pop    %ebx
    2222:	5e                   	pop    %esi
    2223:	5f                   	pop    %edi
    2224:	5d                   	pop    %ebp
    2225:	c3                   	ret    
    2226:	66 90                	xchg   %ax,%ax
    2228:	50                   	push   %eax
    2229:	50                   	push   %eax
    222a:	68 0c b8 00 00       	push   $0xb80c
    222f:	6a 01                	push   $0x1
    2231:	e8 ea 14 00 00       	call   3720 <ddf_msg>
    2236:	83 c4 10             	add    $0x10,%esp
    2239:	8b 45 94             	mov    -0x6c(%ebp),%eax
    223c:	c6 40 09 01          	movb   $0x1,0x9(%eax)
    2240:	e9 03 f7 ff ff       	jmp    1948 <ahci_dev_add+0x1d8>
    2245:	8d 76 00             	lea    0x0(%esi),%esi
    2248:	50                   	push   %eax
    2249:	50                   	push   %eax
    224a:	68 5c b9 00 00       	push   $0xb95c
    224f:	6a 01                	push   $0x1
    2251:	e8 ca 14 00 00       	call   3720 <ddf_msg>
    2256:	83 c4 10             	add    $0x10,%esp
    2259:	eb de                	jmp    2239 <ahci_dev_add+0xac9>
    225b:	90                   	nop
    225c:	8d 74 26 00          	lea    0x0(%esi,%eiz,1),%esi
    2260:	f6 41 63 02          	testb  $0x2,0x63(%ecx)
    2264:	0f 84 03 02 00 00    	je     246d <ahci_dev_add+0xcfd>
    226a:	f6 81 a7 00 00 00 04 	testb  $0x4,0xa7(%ecx)
    2271:	75 4e                	jne    22c1 <ahci_dev_add+0xb51>
    2273:	8b 59 78             	mov    0x78(%ecx),%ebx
    2276:	c7 40 4c 00 00 00 00 	movl   $0x0,0x4c(%eax)
    227d:	89 58 48             	mov    %ebx,0x48(%eax)
    2280:	89 c3                	mov    %eax,%ebx
    2282:	e9 4c fc ff ff       	jmp    1ed3 <ahci_dev_add+0x763>
    2287:	8b 45 b0             	mov    -0x50(%ebp),%eax
    228a:	56                   	push   %esi
    228b:	56                   	push   %esi
    228c:	68 00 10 00 00       	push   $0x1000
    2291:	50                   	push   %eax
    2292:	e8 09 b8 00 00       	call   daa0 <dmamem_unmap@plt>
    2297:	83 c4 10             	add    $0x10,%esp
    229a:	8b 5d ac             	mov    -0x54(%ebp),%ebx
    229d:	51                   	push   %ecx
    229e:	51                   	push   %ecx
    229f:	68 00 10 00 00       	push   $0x1000
    22a4:	53                   	push   %ebx
    22a5:	e8 f6 b7 00 00       	call   daa0 <dmamem_unmap@plt>
    22aa:	83 c4 10             	add    $0x10,%esp
    22ad:	83 ec 0c             	sub    $0xc,%esp
    22b0:	8b 55 94             	mov    -0x6c(%ebp),%edx
    22b3:	52                   	push   %edx
    22b4:	e8 f7 b9 00 00       	call   dcb0 <free@plt>
    22b9:	83 c4 10             	add    $0x10,%esp
    22bc:	e9 87 f6 ff ff       	jmp    1948 <ahci_dev_add+0x1d8>
    22c1:	89 c3                	mov    %eax,%ebx
    22c3:	8b 91 cc 00 00 00    	mov    0xcc(%ecx),%edx
    22c9:	8b 81 c8 00 00 00    	mov    0xc8(%ecx),%eax
    22cf:	89 43 48             	mov    %eax,0x48(%ebx)
    22d2:	89 53 4c             	mov    %edx,0x4c(%ebx)
    22d5:	e9 f9 fb ff ff       	jmp    1ed3 <ahci_dev_add+0x763>
    22da:	31 c0                	xor    %eax,%eax
    22dc:	e9 9a fb ff ff       	jmp    1e7b <ahci_dev_add+0x70b>
    22e1:	f6 c4 01             	test   $0x1,%ah
    22e4:	75 11                	jne    22f7 <ahci_dev_add+0xb87>
    22e6:	f6 c4 02             	test   $0x2,%ah
    22e9:	0f 84 bd fb ff ff    	je     1eac <ahci_dev_add+0x73c>
    22ef:	a8 0f                	test   $0xf,%al
    22f1:	0f 84 b5 fb ff ff    	je     1eac <ahci_dev_add+0x73c>
    22f7:	50                   	push   %eax
    22f8:	8b 45 88             	mov    -0x78(%ebp),%eax
    22fb:	50                   	push   %eax
    22fc:	68 a0 b8 00 00       	push   $0xb8a0
    2301:	6a 01                	push   $0x1
    2303:	e8 18 14 00 00       	call   3720 <ddf_msg>
    2308:	83 c4 10             	add    $0x10,%esp
    230b:	83 ec 0c             	sub    $0xc,%esp
    230e:	8b 45 90             	mov    -0x70(%ebp),%eax
    2311:	50                   	push   %eax
    2312:	e8 f9 b6 00 00       	call   da10 <fibril_mutex_unlock@plt>
    2317:	58                   	pop    %eax
    2318:	8b 45 ac             	mov    -0x54(%ebp),%eax
    231b:	50                   	push   %eax
    231c:	e8 8f b6 00 00       	call   d9b0 <dmamem_unmap_anonymous@plt>
    2321:	83 c4 10             	add    $0x10,%esp
    2324:	e9 10 ff ff ff       	jmp    2239 <ahci_dev_add+0xac9>
    2329:	50                   	push   %eax
    232a:	50                   	push   %eax
    232b:	68 e0 b7 00 00       	push   $0xb7e0
    2330:	6a 01                	push   $0x1
    2332:	e8 e9 13 00 00       	call   3720 <ddf_msg>
    2337:	83 c4 10             	add    $0x10,%esp
    233a:	e9 fa fe ff ff       	jmp    2239 <ahci_dev_add+0xac9>
    233f:	8b 55 88             	mov    -0x78(%ebp),%edx
    2342:	50                   	push   %eax
    2343:	52                   	push   %edx
    2344:	68 b6 b6 00 00       	push   $0xb6b6
    2349:	6a 01                	push   $0x1
    234b:	e8 d0 13 00 00       	call   3720 <ddf_msg>
    2350:	83 c4 10             	add    $0x10,%esp
    2353:	e9 e1 fe ff ff       	jmp    2239 <ahci_dev_add+0xac9>
    2358:	50                   	push   %eax
    2359:	50                   	push   %eax
    235a:	68 6a b6 00 00       	push   $0xb66a
    235f:	6a 01                	push   $0x1
    2361:	e8 ba 13 00 00       	call   3720 <ddf_msg>
    2366:	58                   	pop    %eax
    2367:	8b 45 c4             	mov    -0x3c(%ebp),%eax
    236a:	5a                   	pop    %edx
    236b:	8b 08                	mov    (%eax),%ecx
    236d:	51                   	push   %ecx
    236e:	53                   	push   %ebx
    236f:	e8 7c 13 00 00       	call   36f0 <unregister_interrupt_handler>
    2374:	83 c4 10             	add    $0x10,%esp
    2377:	e9 4f fe ff ff       	jmp    21cb <ahci_dev_add+0xa5b>
    237c:	53                   	push   %ebx
    237d:	53                   	push   %ebx
    237e:	68 da b6 00 00       	push   $0xb6da
    2383:	6a 01                	push   $0x1
    2385:	e8 96 13 00 00       	call   3720 <ddf_msg>
    238a:	83 c4 10             	add    $0x10,%esp
    238d:	e9 a7 fe ff ff       	jmp    2239 <ahci_dev_add+0xac9>
    2392:	50                   	push   %eax
    2393:	8b 45 88             	mov    -0x78(%ebp),%eax
    2396:	50                   	push   %eax
    2397:	68 c0 b9 00 00       	push   $0xb9c0
    239c:	6a 01                	push   $0x1
    239e:	e8 7d 13 00 00       	call   3720 <ddf_msg>
    23a3:	83 c4 10             	add    $0x10,%esp
    23a6:	83 ec 0c             	sub    $0xc,%esp
    23a9:	8b 75 90             	mov    -0x70(%ebp),%esi
    23ac:	56                   	push   %esi
    23ad:	e8 5e b6 00 00       	call   da10 <fibril_mutex_unlock@plt>
    23b2:	58                   	pop    %eax
    23b3:	8b 45 c0             	mov    -0x40(%ebp),%eax
    23b6:	50                   	push   %eax
    23b7:	e8 f4 b5 00 00       	call   d9b0 <dmamem_unmap_anonymous@plt>
    23bc:	83 c4 10             	add    $0x10,%esp
    23bf:	e9 75 fe ff ff       	jmp    2239 <ahci_dev_add+0xac9>
    23c4:	52                   	push   %edx
    23c5:	52                   	push   %edx
    23c6:	68 68 b8 00 00       	push   $0xb868
    23cb:	6a 01                	push   $0x1
    23cd:	e8 4e 13 00 00       	call   3720 <ddf_msg>
    23d2:	83 c4 10             	add    $0x10,%esp
    23d5:	e9 31 ff ff ff       	jmp    230b <ahci_dev_add+0xb9b>
    23da:	8b 45 88             	mov    -0x78(%ebp),%eax
    23dd:	56                   	push   %esi
    23de:	50                   	push   %eax
    23df:	68 2c b9 00 00       	push   $0xb92c
    23e4:	6a 01                	push   $0x1
    23e6:	e8 35 13 00 00       	call   3720 <ddf_msg>
    23eb:	83 c4 10             	add    $0x10,%esp
    23ee:	e9 46 fe ff ff       	jmp    2239 <ahci_dev_add+0xac9>
    23f3:	50                   	push   %eax
    23f4:	8b 45 88             	mov    -0x78(%ebp),%eax
    23f7:	50                   	push   %eax
    23f8:	68 f8 b8 00 00       	push   $0xb8f8
    23fd:	6a 01                	push   $0x1
    23ff:	e8 1c 13 00 00       	call   3720 <ddf_msg>
    2404:	83 c4 10             	add    $0x10,%esp
    2407:	e9 ff fe ff ff       	jmp    230b <ahci_dev_add+0xb9b>
    240c:	50                   	push   %eax
    240d:	50                   	push   %eax
    240e:	68 38 b8 00 00       	push   $0xb838
    2413:	6a 01                	push   $0x1
    2415:	e8 06 13 00 00       	call   3720 <ddf_msg>
    241a:	83 c4 10             	add    $0x10,%esp
    241d:	e9 e9 fe ff ff       	jmp    230b <ahci_dev_add+0xb9b>
    2422:	50                   	push   %eax
    2423:	8b 45 88             	mov    -0x78(%ebp),%eax
    2426:	50                   	push   %eax
    2427:	68 82 b6 00 00       	push   $0xb682
    242c:	6a 01                	push   $0x1
    242e:	e8 ed 12 00 00       	call   3720 <ddf_msg>
    2433:	83 c4 10             	add    $0x10,%esp
    2436:	e9 d0 fe ff ff       	jmp    230b <ahci_dev_add+0xb9b>
    243b:	50                   	push   %eax
    243c:	8b 45 88             	mov    -0x78(%ebp),%eax
    243f:	50                   	push   %eax
    2440:	68 88 b9 00 00       	push   $0xb988
    2445:	6a 01                	push   $0x1
    2447:	e8 d4 12 00 00       	call   3720 <ddf_msg>
    244c:	83 c4 10             	add    $0x10,%esp
    244f:	e9 52 ff ff ff       	jmp    23a6 <ahci_dev_add+0xc36>
    2454:	8b 5d 88             	mov    -0x78(%ebp),%ebx
    2457:	51                   	push   %ecx
    2458:	53                   	push   %ebx
    2459:	68 9c b6 00 00       	push   $0xb69c
    245e:	6a 01                	push   $0x1
    2460:	e8 bb 12 00 00       	call   3720 <ddf_msg>
    2465:	83 c4 10             	add    $0x10,%esp
    2468:	e9 cc fd ff ff       	jmp    2239 <ahci_dev_add+0xac9>
    246d:	8b 45 88             	mov    -0x78(%ebp),%eax
    2470:	56                   	push   %esi
    2471:	50                   	push   %eax
    2472:	68 d4 b8 00 00       	push   $0xb8d4
    2477:	6a 01                	push   $0x1
    2479:	e8 a2 12 00 00       	call   3720 <ddf_msg>
    247e:	83 c4 10             	add    $0x10,%esp
    2481:	e9 85 fe ff ff       	jmp    230b <ahci_dev_add+0xb9b>
    2486:	66 90                	xchg   %ax,%ax
    2488:	66 90                	xchg   %ax,%ax
    248a:	66 90                	xchg   %ax,%ax
    248c:	66 90                	xchg   %ax,%ax
    248e:	66 90                	xchg   %ax,%ax

00002490 <main>:
    2490:	8d 4c 24 04          	lea    0x4(%esp),%ecx
    2494:	83 e4 f0             	and    $0xfffffff0,%esp
    2497:	ff 71 fc             	pushl  -0x4(%ecx)
    249a:	55                   	push   %ebp
    249b:	89 e5                	mov    %esp,%ebp
    249d:	51                   	push   %ecx
    249e:	83 ec 0c             	sub    $0xc,%esp
    24a1:	68 11 b7 00 00       	push   $0xb711
    24a6:	68 e8 b9 00 00       	push   $0xb9e8
    24ab:	e8 00 b3 00 00       	call   d7b0 <printf@plt>
    24b0:	c7 04 24 11 b7 00 00 	movl   $0xb711,(%esp)
    24b7:	e8 54 12 00 00       	call   3710 <ddf_log_init>
    24bc:	c7 04 24 78 10 01 00 	movl   $0x11078,(%esp)
    24c3:	e8 78 b5 00 00       	call   da40 <fibril_mutex_initialize@plt>
    24c8:	c7 04 24 40 0e 01 00 	movl   $0x10e40,(%esp)
    24cf:	e8 9c 10 00 00       	call   3570 <ddf_driver_main>
    24d4:	8b 4d fc             	mov    -0x4(%ebp),%ecx
    24d7:	c9                   	leave  
    24d8:	8d 61 fc             	lea    -0x4(%ecx),%esp
    24db:	c3                   	ret    
    24dc:	66 90                	xchg   %ax,%ax
    24de:	66 90                	xchg   %ax,%ax

000024e0 <fun_del_ref>:
    24e0:	55                   	push   %ebp
    24e1:	83 ca ff             	or     $0xffffffff,%edx
    24e4:	89 e5                	mov    %esp,%ebp
    24e6:	57                   	push   %edi
    24e7:	56                   	push   %esi
    24e8:	53                   	push   %ebx
    24e9:	83 ec 1c             	sub    $0x1c,%esp
    24ec:	8b 70 0c             	mov    0xc(%eax),%esi
    24ef:	f0 0f c1 50 08       	lock xadd %edx,0x8(%eax)
    24f4:	4a                   	dec    %edx
    24f5:	74 69                	je     2560 <fun_del_ref+0x80>
    24f7:	83 c8 ff             	or     $0xffffffff,%eax
    24fa:	f0 0f c1 46 04       	lock xadd %eax,0x4(%esi)
    24ff:	48                   	dec    %eax
    2500:	74 0e                	je     2510 <fun_del_ref+0x30>
    2502:	8d 65 f4             	lea    -0xc(%ebp),%esp
    2505:	5b                   	pop    %ebx
    2506:	5e                   	pop    %esi
    2507:	5f                   	pop    %edi
    2508:	5d                   	pop    %ebp
    2509:	c3                   	ret    
    250a:	8d b6 00 00 00 00    	lea    0x0(%esi),%esi
    2510:	8b 46 08             	mov    0x8(%esi),%eax
    2513:	85 c0                	test   %eax,%eax
    2515:	74 0c                	je     2523 <fun_del_ref+0x43>
    2517:	83 ec 0c             	sub    $0xc,%esp
    251a:	50                   	push   %eax
    251b:	e8 a0 b2 00 00       	call   d7c0 <async_hangup@plt>
    2520:	83 c4 10             	add    $0x10,%esp
    2523:	8b 46 10             	mov    0x10(%esi),%eax
    2526:	85 c0                	test   %eax,%eax
    2528:	74 0c                	je     2536 <fun_del_ref+0x56>
    252a:	83 ec 0c             	sub    $0xc,%esp
    252d:	50                   	push   %eax
    252e:	e8 7d b7 00 00       	call   dcb0 <free@plt>
    2533:	83 c4 10             	add    $0x10,%esp
    2536:	8b 46 0c             	mov    0xc(%esi),%eax
    2539:	85 c0                	test   %eax,%eax
    253b:	74 0c                	je     2549 <fun_del_ref+0x69>
    253d:	83 ec 0c             	sub    $0xc,%esp
    2540:	50                   	push   %eax
    2541:	e8 6a b7 00 00       	call   dcb0 <free@plt>
    2546:	83 c4 10             	add    $0x10,%esp
    2549:	83 ec 0c             	sub    $0xc,%esp
    254c:	56                   	push   %esi
    254d:	e8 5e b7 00 00       	call   dcb0 <free@plt>
    2552:	83 c4 10             	add    $0x10,%esp
    2555:	8d 65 f4             	lea    -0xc(%ebp),%esp
    2558:	5b                   	pop    %ebx
    2559:	5e                   	pop    %esi
    255a:	5f                   	pop    %edi
    255b:	5d                   	pop    %ebp
    255c:	c3                   	ret    
    255d:	8d 76 00             	lea    0x0(%esi),%esi
    2560:	8b 58 1c             	mov    0x1c(%eax),%ebx
    2563:	89 c7                	mov    %eax,%edi
    2565:	8d 40 18             	lea    0x18(%eax),%eax
    2568:	89 45 e4             	mov    %eax,-0x1c(%ebp)
    256b:	39 d8                	cmp    %ebx,%eax
    256d:	74 49                	je     25b8 <fun_del_ref+0xd8>
    256f:	90                   	nop
    2570:	8b 0b                	mov    (%ebx),%ecx
    2572:	85 c9                	test   %ecx,%ecx
    2574:	74 0e                	je     2584 <fun_del_ref+0xa4>
    2576:	8b 53 04             	mov    0x4(%ebx),%edx
    2579:	85 d2                	test   %edx,%edx
    257b:	74 07                	je     2584 <fun_del_ref+0xa4>
    257d:	89 0a                	mov    %ecx,(%edx)
    257f:	8b 0b                	mov    (%ebx),%ecx
    2581:	89 51 04             	mov    %edx,0x4(%ecx)
    2584:	8b 53 08             	mov    0x8(%ebx),%edx
    2587:	c7 03 00 00 00 00    	movl   $0x0,(%ebx)
    258d:	c7 43 04 00 00 00 00 	movl   $0x0,0x4(%ebx)
    2594:	85 d2                	test   %edx,%edx
    2596:	74 0c                	je     25a4 <fun_del_ref+0xc4>
    2598:	83 ec 0c             	sub    $0xc,%esp
    259b:	52                   	push   %edx
    259c:	e8 0f b7 00 00       	call   dcb0 <free@plt>
    25a1:	83 c4 10             	add    $0x10,%esp
    25a4:	83 ec 0c             	sub    $0xc,%esp
    25a7:	53                   	push   %ebx
    25a8:	e8 03 b7 00 00       	call   dcb0 <free@plt>
    25ad:	8b 5f 1c             	mov    0x1c(%edi),%ebx
    25b0:	83 c4 10             	add    $0x10,%esp
    25b3:	3b 5d e4             	cmp    -0x1c(%ebp),%ebx
    25b6:	75 b8                	jne    2570 <fun_del_ref+0x90>
    25b8:	8b 57 20             	mov    0x20(%edi),%edx
    25bb:	85 d2                	test   %edx,%edx
    25bd:	74 0c                	je     25cb <fun_del_ref+0xeb>
    25bf:	83 ec 0c             	sub    $0xc,%esp
    25c2:	52                   	push   %edx
    25c3:	e8 e8 b6 00 00       	call   dcb0 <free@plt>
    25c8:	83 c4 10             	add    $0x10,%esp
    25cb:	8b 57 14             	mov    0x14(%edi),%edx
    25ce:	85 d2                	test   %edx,%edx
    25d0:	74 0c                	je     25de <fun_del_ref+0xfe>
    25d2:	83 ec 0c             	sub    $0xc,%esp
    25d5:	52                   	push   %edx
    25d6:	e8 d5 b6 00 00       	call   dcb0 <free@plt>
    25db:	83 c4 10             	add    $0x10,%esp
    25de:	83 ec 0c             	sub    $0xc,%esp
    25e1:	57                   	push   %edi
    25e2:	e8 c9 b6 00 00       	call   dcb0 <free@plt>
    25e7:	83 c4 10             	add    $0x10,%esp
    25ea:	e9 08 ff ff ff       	jmp    24f7 <fun_del_ref+0x17>
    25ef:	90                   	nop

000025f0 <driver_connection_gen.constprop.7>:
    25f0:	55                   	push   %ebp
    25f1:	89 e5                	mov    %esp,%ebp
    25f3:	57                   	push   %edi
    25f4:	56                   	push   %esi
    25f5:	53                   	push   %ebx
    25f6:	83 ec 58             	sub    $0x58,%esp
    25f9:	89 d3                	mov    %edx,%ebx
    25fb:	8b 72 08             	mov    0x8(%edx),%esi
    25fe:	89 45 b4             	mov    %eax,-0x4c(%ebp)
    2601:	68 bc 0e 01 00       	push   $0x10ebc
    2606:	e8 c5 b6 00 00       	call   dcd0 <fibril_mutex_lock@plt>
    260b:	c7 04 24 bc 0e 01 00 	movl   $0x10ebc,(%esp)
    2612:	e8 19 b2 00 00       	call   d830 <fibril_mutex_is_locked@plt>
    2617:	83 c4 10             	add    $0x10,%esp
    261a:	84 c0                	test   %al,%al
    261c:	0f 84 71 02 00 00    	je     2893 <driver_connection_gen.constprop.7+0x2a3>
    2622:	a1 d0 0e 01 00       	mov    0x10ed0,%eax
    2627:	3d cc 0e 01 00       	cmp    $0x10ecc,%eax
    262c:	8d 78 d4             	lea    -0x2c(%eax),%edi
    262f:	75 18                	jne    2649 <driver_connection_gen.constprop.7+0x59>
    2631:	e9 22 02 00 00       	jmp    2858 <driver_connection_gen.constprop.7+0x268>
    2636:	66 90                	xchg   %ax,%ax
    2638:	8b 40 04             	mov    0x4(%eax),%eax
    263b:	3d cc 0e 01 00       	cmp    $0x10ecc,%eax
    2640:	8d 78 d4             	lea    -0x2c(%eax),%edi
    2643:	0f 84 0f 02 00 00    	je     2858 <driver_connection_gen.constprop.7+0x268>
    2649:	3b 77 04             	cmp    0x4(%edi),%esi
    264c:	75 ea                	jne    2638 <driver_connection_gen.constprop.7+0x48>
    264e:	8b 47 0c             	mov    0xc(%edi),%eax
    2651:	f0 ff 40 04          	lock incl 0x4(%eax)
    2655:	f0 ff 47 08          	lock incl 0x8(%edi)
    2659:	83 ec 0c             	sub    $0xc,%esp
    265c:	68 bc 0e 01 00       	push   $0x10ebc
    2661:	e8 aa b3 00 00       	call   da10 <fibril_mutex_unlock@plt>
    2666:	8b 47 28             	mov    0x28(%edi),%eax
    2669:	83 c4 10             	add    $0x10,%esp
    266c:	85 c0                	test   %eax,%eax
    266e:	74 20                	je     2690 <driver_connection_gen.constprop.7+0xa0>
    2670:	8b 55 b4             	mov    -0x4c(%ebp),%edx
    2673:	56                   	push   %esi
    2674:	57                   	push   %edi
    2675:	53                   	push   %ebx
    2676:	52                   	push   %edx
    2677:	ff d0                	call   *%eax
    2679:	89 f8                	mov    %edi,%eax
    267b:	e8 60 fe ff ff       	call   24e0 <fun_del_ref>
    2680:	83 c4 10             	add    $0x10,%esp
    2683:	8d 65 f4             	lea    -0xc(%ebp),%esp
    2686:	5b                   	pop    %ebx
    2687:	5e                   	pop    %esi
    2688:	5f                   	pop    %edi
    2689:	5d                   	pop    %ebp
    268a:	c3                   	ret    
    268b:	90                   	nop
    268c:	8d 74 26 00          	lea    0x0(%esi,%eiz,1),%esi
    2690:	8b 47 24             	mov    0x24(%edi),%eax
    2693:	85 c0                	test   %eax,%eax
    2695:	0f 84 a5 01 00 00    	je     2840 <driver_connection_gen.constprop.7+0x250>
    269b:	8b 00                	mov    (%eax),%eax
    269d:	85 c0                	test   %eax,%eax
    269f:	0f 84 9b 01 00 00    	je     2840 <driver_connection_gen.constprop.7+0x250>
    26a5:	83 ec 0c             	sub    $0xc,%esp
    26a8:	57                   	push   %edi
    26a9:	ff d0                	call   *%eax
    26ab:	8b 4d b4             	mov    -0x4c(%ebp),%ecx
    26ae:	89 c3                	mov    %eax,%ebx
    26b0:	58                   	pop    %eax
    26b1:	5a                   	pop    %edx
    26b2:	53                   	push   %ebx
    26b3:	51                   	push   %ecx
    26b4:	e8 47 b2 00 00       	call   d900 <async_answer_0@plt>
    26b9:	83 c4 10             	add    $0x10,%esp
    26bc:	85 db                	test   %ebx,%ebx
    26be:	0f 85 70 01 00 00    	jne    2834 <driver_connection_gen.constprop.7+0x244>
    26c4:	8d 74 26 00          	lea    0x0(%esi,%eiz,1),%esi
    26c8:	50                   	push   %eax
    26c9:	50                   	push   %eax
    26ca:	8d 45 c4             	lea    -0x3c(%ebp),%eax
    26cd:	6a 00                	push   $0x0
    26cf:	50                   	push   %eax
    26d0:	e8 8b b4 00 00       	call   db60 <async_get_call_timeout@plt>
    26d5:	8b 5d c4             	mov    -0x3c(%ebp),%ebx
    26d8:	83 c4 10             	add    $0x10,%esp
    26db:	89 45 b4             	mov    %eax,-0x4c(%ebp)
    26de:	85 db                	test   %ebx,%ebx
    26e0:	0f 84 e2 00 00 00    	je     27c8 <driver_connection_gen.constprop.7+0x1d8>
    26e6:	83 ec 0c             	sub    $0xc,%esp
    26e9:	81 eb 00 04 00 00    	sub    $0x400,%ebx
    26ef:	53                   	push   %ebx
    26f0:	e8 cb 0f 00 00       	call   36c0 <is_valid_iface_idx>
    26f5:	83 c4 10             	add    $0x10,%esp
    26f8:	84 c0                	test   %al,%al
    26fa:	75 2c                	jne    2728 <driver_connection_gen.constprop.7+0x138>
    26fc:	8b 47 24             	mov    0x24(%edi),%eax
    26ff:	85 c0                	test   %eax,%eax
    2701:	0f 84 91 00 00 00    	je     2798 <driver_connection_gen.constprop.7+0x1a8>
    2707:	8b 40 44             	mov    0x44(%eax),%eax
    270a:	85 c0                	test   %eax,%eax
    270c:	0f 84 86 00 00 00    	je     2798 <driver_connection_gen.constprop.7+0x1a8>
    2712:	8d 4d c4             	lea    -0x3c(%ebp),%ecx
    2715:	52                   	push   %edx
    2716:	51                   	push   %ecx
    2717:	8b 4d b4             	mov    -0x4c(%ebp),%ecx
    271a:	51                   	push   %ecx
    271b:	57                   	push   %edi
    271c:	ff d0                	call   *%eax
    271e:	83 c4 10             	add    $0x10,%esp
    2721:	eb a5                	jmp    26c8 <driver_connection_gen.constprop.7+0xd8>
    2723:	90                   	nop
    2724:	8d 74 26 00          	lea    0x0(%esi,%eiz,1),%esi
    2728:	83 ec 0c             	sub    $0xc,%esp
    272b:	53                   	push   %ebx
    272c:	e8 8f 0f 00 00       	call   36c0 <is_valid_iface_idx>
    2731:	83 c4 10             	add    $0x10,%esp
    2734:	84 c0                	test   %al,%al
    2736:	0f 84 69 01 00 00    	je     28a5 <driver_connection_gen.constprop.7+0x2b5>
    273c:	8b 47 24             	mov    0x24(%edi),%eax
    273f:	85 c0                	test   %eax,%eax
    2741:	0f 84 b9 00 00 00    	je     2800 <driver_connection_gen.constprop.7+0x210>
    2747:	8b 44 98 08          	mov    0x8(%eax,%ebx,4),%eax
    274b:	89 45 b0             	mov    %eax,-0x50(%ebp)
    274e:	85 c0                	test   %eax,%eax
    2750:	0f 84 aa 00 00 00    	je     2800 <driver_connection_gen.constprop.7+0x210>
    2756:	83 ec 0c             	sub    $0xc,%esp
    2759:	53                   	push   %ebx
    275a:	e8 11 0f 00 00       	call   3670 <get_remote_iface>
    275f:	83 c4 10             	add    $0x10,%esp
    2762:	85 c0                	test   %eax,%eax
    2764:	0f 84 50 01 00 00    	je     28ba <driver_connection_gen.constprop.7+0x2ca>
    276a:	8b 4d c8             	mov    -0x38(%ebp),%ecx
    276d:	52                   	push   %edx
    276e:	52                   	push   %edx
    276f:	51                   	push   %ecx
    2770:	50                   	push   %eax
    2771:	e8 2a 0f 00 00       	call   36a0 <get_remote_method>
    2776:	83 c4 10             	add    $0x10,%esp
    2779:	85 c0                	test   %eax,%eax
    277b:	0f 84 9f 00 00 00    	je     2820 <driver_connection_gen.constprop.7+0x230>
    2781:	8d 55 c4             	lea    -0x3c(%ebp),%edx
    2784:	8b 4d b0             	mov    -0x50(%ebp),%ecx
    2787:	52                   	push   %edx
    2788:	8b 55 b4             	mov    -0x4c(%ebp),%edx
    278b:	52                   	push   %edx
    278c:	51                   	push   %ecx
    278d:	57                   	push   %edi
    278e:	ff d0                	call   *%eax
    2790:	83 c4 10             	add    $0x10,%esp
    2793:	e9 30 ff ff ff       	jmp    26c8 <driver_connection_gen.constprop.7+0xd8>
    2798:	50                   	push   %eax
    2799:	a1 88 10 01 00       	mov    0x11088,%eax
    279e:	53                   	push   %ebx
    279f:	8b 00                	mov    (%eax),%eax
    27a1:	50                   	push   %eax
    27a2:	68 8c bb 00 00       	push   $0xbb8c
    27a7:	e8 04 b0 00 00       	call   d7b0 <printf@plt>
    27ac:	5b                   	pop    %ebx
    27ad:	58                   	pop    %eax
    27ae:	8b 45 b4             	mov    -0x4c(%ebp),%eax
    27b1:	6a f5                	push   $0xfffffff5
    27b3:	50                   	push   %eax
    27b4:	e8 47 b1 00 00       	call   d900 <async_answer_0@plt>
    27b9:	83 c4 10             	add    $0x10,%esp
    27bc:	e9 07 ff ff ff       	jmp    26c8 <driver_connection_gen.constprop.7+0xd8>
    27c1:	8d b4 26 00 00 00 00 	lea    0x0(%esi,%eiz,1),%esi
    27c8:	8b 47 24             	mov    0x24(%edi),%eax
    27cb:	85 c0                	test   %eax,%eax
    27cd:	74 10                	je     27df <driver_connection_gen.constprop.7+0x1ef>
    27cf:	8b 40 04             	mov    0x4(%eax),%eax
    27d2:	85 c0                	test   %eax,%eax
    27d4:	74 09                	je     27df <driver_connection_gen.constprop.7+0x1ef>
    27d6:	83 ec 0c             	sub    $0xc,%esp
    27d9:	57                   	push   %edi
    27da:	ff d0                	call   *%eax
    27dc:	83 c4 10             	add    $0x10,%esp
    27df:	8b 75 b4             	mov    -0x4c(%ebp),%esi
    27e2:	53                   	push   %ebx
    27e3:	53                   	push   %ebx
    27e4:	6a 00                	push   $0x0
    27e6:	56                   	push   %esi
    27e7:	e8 14 b1 00 00       	call   d900 <async_answer_0@plt>
    27ec:	89 f8                	mov    %edi,%eax
    27ee:	e8 ed fc ff ff       	call   24e0 <fun_del_ref>
    27f3:	83 c4 10             	add    $0x10,%esp
    27f6:	8d 65 f4             	lea    -0xc(%ebp),%esp
    27f9:	5b                   	pop    %ebx
    27fa:	5e                   	pop    %esi
    27fb:	5f                   	pop    %edi
    27fc:	5d                   	pop    %ebp
    27fd:	c3                   	ret    
    27fe:	66 90                	xchg   %ax,%ax
    2800:	50                   	push   %eax
    2801:	50                   	push   %eax
    2802:	a1 88 10 01 00       	mov    0x11088,%eax
    2807:	8b 00                	mov    (%eax),%eax
    2809:	50                   	push   %eax
    280a:	68 c8 bb 00 00       	push   $0xbbc8
    280f:	e8 9c af 00 00       	call   d7b0 <printf@plt>
    2814:	83 c4 0c             	add    $0xc,%esp
    2817:	53                   	push   %ebx
    2818:	56                   	push   %esi
    2819:	68 ec bb 00 00       	push   $0xbbec
    281e:	eb 87                	jmp    27a7 <driver_connection_gen.constprop.7+0x1b7>
    2820:	50                   	push   %eax
    2821:	50                   	push   %eax
    2822:	a1 88 10 01 00       	mov    0x11088,%eax
    2827:	8b 00                	mov    (%eax),%eax
    2829:	50                   	push   %eax
    282a:	68 24 bc 00 00       	push   $0xbc24
    282f:	e9 73 ff ff ff       	jmp    27a7 <driver_connection_gen.constprop.7+0x1b7>
    2834:	89 f8                	mov    %edi,%eax
    2836:	e8 a5 fc ff ff       	call   24e0 <fun_del_ref>
    283b:	e9 43 fe ff ff       	jmp    2683 <driver_connection_gen.constprop.7+0x93>
    2840:	8b 55 b4             	mov    -0x4c(%ebp),%edx
    2843:	50                   	push   %eax
    2844:	50                   	push   %eax
    2845:	6a 00                	push   $0x0
    2847:	52                   	push   %edx
    2848:	e8 b3 b0 00 00       	call   d900 <async_answer_0@plt>
    284d:	83 c4 10             	add    $0x10,%esp
    2850:	e9 73 fe ff ff       	jmp    26c8 <driver_connection_gen.constprop.7+0xd8>
    2855:	8d 76 00             	lea    0x0(%esi),%esi
    2858:	83 ec 0c             	sub    $0xc,%esp
    285b:	68 bc 0e 01 00       	push   $0x10ebc
    2860:	e8 ab b1 00 00       	call   da10 <fibril_mutex_unlock@plt>
    2865:	a1 88 10 01 00       	mov    0x11088,%eax
    286a:	83 c4 0c             	add    $0xc,%esp
    286d:	8b 08                	mov    (%eax),%ecx
    286f:	56                   	push   %esi
    2870:	51                   	push   %ecx
    2871:	68 60 bc 00 00       	push   $0xbc60
    2876:	e8 35 af 00 00       	call   d7b0 <printf@plt>
    287b:	8b 7d b4             	mov    -0x4c(%ebp),%edi
    287e:	5b                   	pop    %ebx
    287f:	5e                   	pop    %esi
    2880:	6a ff                	push   $0xffffffff
    2882:	57                   	push   %edi
    2883:	e8 78 b0 00 00       	call   d900 <async_answer_0@plt>
    2888:	83 c4 10             	add    $0x10,%esp
    288b:	8d 65 f4             	lea    -0xc(%ebp),%esp
    288e:	5b                   	pop    %ebx
    288f:	5e                   	pop    %esi
    2890:	5f                   	pop    %edi
    2891:	5d                   	pop    %ebp
    2892:	c3                   	ret    
    2893:	51                   	push   %ecx
    2894:	6a 6b                	push   $0x6b
    2896:	68 08 ba 00 00       	push   $0xba08
    289b:	68 60 bb 00 00       	push   $0xbb60
    28a0:	e8 cb b0 00 00       	call   d970 <assert_abort@plt>
    28a5:	50                   	push   %eax
    28a6:	68 fb 02 00 00       	push   $0x2fb
    28ab:	68 08 ba 00 00       	push   $0xba08
    28b0:	68 19 ba 00 00       	push   $0xba19
    28b5:	e8 b6 b0 00 00       	call   d970 <assert_abort@plt>
    28ba:	53                   	push   %ebx
    28bb:	68 aa 01 00 00       	push   $0x1aa
    28c0:	68 08 ba 00 00       	push   $0xba08
    28c5:	68 31 ba 00 00       	push   $0xba31
    28ca:	e8 a1 b0 00 00       	call   d970 <assert_abort@plt>
    28cf:	90                   	nop

000028d0 <driver_connection_driver>:
    28d0:	55                   	push   %ebp
    28d1:	89 e5                	mov    %esp,%ebp
    28d3:	8b 55 0c             	mov    0xc(%ebp),%edx
    28d6:	8b 45 08             	mov    0x8(%ebp),%eax
    28d9:	5d                   	pop    %ebp
    28da:	e9 11 fd ff ff       	jmp    25f0 <driver_connection_gen.constprop.7>
    28df:	90                   	nop

000028e0 <driver_connection_client>:
    28e0:	55                   	push   %ebp
    28e1:	89 e5                	mov    %esp,%ebp
    28e3:	8b 55 0c             	mov    0xc(%ebp),%edx
    28e6:	8b 45 08             	mov    0x8(%ebp),%eax
    28e9:	5d                   	pop    %ebp
    28ea:	e9 01 fd ff ff       	jmp    25f0 <driver_connection_gen.constprop.7>
    28ef:	90                   	nop

000028f0 <driver_connection_devman>:
    28f0:	55                   	push   %ebp
    28f1:	89 e5                	mov    %esp,%ebp
    28f3:	57                   	push   %edi
    28f4:	56                   	push   %esi
    28f5:	53                   	push   %ebx
    28f6:	83 ec 54             	sub    $0x54,%esp
    28f9:	8d 75 c4             	lea    -0x3c(%ebp),%esi
    28fc:	8b 45 08             	mov    0x8(%ebp),%eax
    28ff:	6a 00                	push   $0x0
    2901:	50                   	push   %eax
    2902:	e8 f9 af 00 00       	call   d900 <async_answer_0@plt>
    2907:	83 c4 10             	add    $0x10,%esp
    290a:	8d b6 00 00 00 00    	lea    0x0(%esi),%esi
    2910:	50                   	push   %eax
    2911:	50                   	push   %eax
    2912:	6a 00                	push   $0x0
    2914:	56                   	push   %esi
    2915:	e8 46 b2 00 00       	call   db60 <async_get_call_timeout@plt>
    291a:	83 c4 10             	add    $0x10,%esp
    291d:	89 c3                	mov    %eax,%ebx
    291f:	8b 45 c4             	mov    -0x3c(%ebp),%eax
    2922:	85 c0                	test   %eax,%eax
    2924:	0f 84 de 03 00 00    	je     2d08 <driver_connection_devman+0x418>
    292a:	2d 00 04 00 00       	sub    $0x400,%eax
    292f:	83 f8 04             	cmp    $0x4,%eax
    2932:	0f 87 b8 03 00 00    	ja     2cf0 <driver_connection_devman+0x400>
    2938:	8b 7d c8             	mov    -0x38(%ebp),%edi
    293b:	ff 24 85 10 bd 00 00 	jmp    *0xbd10(,%eax,4)
    2942:	8d b6 00 00 00 00    	lea    0x0(%esi),%esi
    2948:	83 ec 0c             	sub    $0xc,%esp
    294b:	68 bc 0e 01 00       	push   $0x10ebc
    2950:	e8 7b b3 00 00       	call   dcd0 <fibril_mutex_lock@plt>
    2955:	c7 04 24 bc 0e 01 00 	movl   $0x10ebc,(%esp)
    295c:	e8 cf ae 00 00       	call   d830 <fibril_mutex_is_locked@plt>
    2961:	83 c4 10             	add    $0x10,%esp
    2964:	84 c0                	test   %al,%al
    2966:	0f 84 5a 04 00 00    	je     2dc6 <driver_connection_devman+0x4d6>
    296c:	a1 d0 0e 01 00       	mov    0x10ed0,%eax
    2971:	3d cc 0e 01 00       	cmp    $0x10ecc,%eax
    2976:	8d 50 d4             	lea    -0x2c(%eax),%edx
    2979:	75 16                	jne    2991 <driver_connection_devman+0xa1>
    297b:	e9 90 03 00 00       	jmp    2d10 <driver_connection_devman+0x420>
    2980:	8b 40 04             	mov    0x4(%eax),%eax
    2983:	3d cc 0e 01 00       	cmp    $0x10ecc,%eax
    2988:	8d 50 d4             	lea    -0x2c(%eax),%edx
    298b:	0f 84 7f 03 00 00    	je     2d10 <driver_connection_devman+0x420>
    2991:	3b 7a 04             	cmp    0x4(%edx),%edi
    2994:	75 ea                	jne    2980 <driver_connection_devman+0x90>
    2996:	8b 42 0c             	mov    0xc(%edx),%eax
    2999:	f0 ff 40 04          	lock incl 0x4(%eax)
    299d:	f0 ff 42 08          	lock incl 0x8(%edx)
    29a1:	83 ec 0c             	sub    $0xc,%esp
    29a4:	89 55 b4             	mov    %edx,-0x4c(%ebp)
    29a7:	68 bc 0e 01 00       	push   $0x10ebc
    29ac:	e8 5f b0 00 00       	call   da10 <fibril_mutex_unlock@plt>
    29b1:	a1 88 10 01 00       	mov    0x11088,%eax
    29b6:	83 c4 10             	add    $0x10,%esp
    29b9:	8b 55 b4             	mov    -0x4c(%ebp),%edx
    29bc:	8b 40 04             	mov    0x4(%eax),%eax
    29bf:	8b 40 0c             	mov    0xc(%eax),%eax
    29c2:	85 c0                	test   %eax,%eax
    29c4:	0f 84 76 03 00 00    	je     2d40 <driver_connection_devman+0x450>
    29ca:	83 ec 0c             	sub    $0xc,%esp
    29cd:	52                   	push   %edx
    29ce:	ff d0                	call   *%eax
    29d0:	83 c4 10             	add    $0x10,%esp
    29d3:	89 c7                	mov    %eax,%edi
    29d5:	8b 55 b4             	mov    -0x4c(%ebp),%edx
    29d8:	89 d0                	mov    %edx,%eax
    29da:	e8 01 fb ff ff       	call   24e0 <fun_del_ref>
    29df:	51                   	push   %ecx
    29e0:	51                   	push   %ecx
    29e1:	57                   	push   %edi
    29e2:	53                   	push   %ebx
    29e3:	e8 18 af 00 00       	call   d900 <async_answer_0@plt>
    29e8:	83 c4 10             	add    $0x10,%esp
    29eb:	e9 20 ff ff ff       	jmp    2910 <driver_connection_devman+0x20>
    29f0:	83 ec 0c             	sub    $0xc,%esp
    29f3:	68 d4 0e 01 00       	push   $0x10ed4
    29f8:	e8 d3 b2 00 00       	call   dcd0 <fibril_mutex_lock@plt>
    29fd:	c7 04 24 d4 0e 01 00 	movl   $0x10ed4,(%esp)
    2a04:	e8 27 ae 00 00       	call   d830 <fibril_mutex_is_locked@plt>
    2a09:	83 c4 10             	add    $0x10,%esp
    2a0c:	84 c0                	test   %al,%al
    2a0e:	0f 84 a0 03 00 00    	je     2db4 <driver_connection_devman+0x4c4>
    2a14:	a1 e8 0e 01 00       	mov    0x10ee8,%eax
    2a19:	3d e4 0e 01 00       	cmp    $0x10ee4,%eax
    2a1e:	8d 50 ec             	lea    -0x14(%eax),%edx
    2a21:	75 16                	jne    2a39 <driver_connection_devman+0x149>
    2a23:	e9 08 03 00 00       	jmp    2d30 <driver_connection_devman+0x440>
    2a28:	8b 40 04             	mov    0x4(%eax),%eax
    2a2b:	3d e4 0e 01 00       	cmp    $0x10ee4,%eax
    2a30:	8d 50 ec             	lea    -0x14(%eax),%edx
    2a33:	0f 84 f7 02 00 00    	je     2d30 <driver_connection_devman+0x440>
    2a39:	3b 78 ec             	cmp    -0x14(%eax),%edi
    2a3c:	75 ea                	jne    2a28 <driver_connection_devman+0x138>
    2a3e:	8d 7a 04             	lea    0x4(%edx),%edi
    2a41:	f0 ff 42 04          	lock incl 0x4(%edx)
    2a45:	83 ec 0c             	sub    $0xc,%esp
    2a48:	89 55 b4             	mov    %edx,-0x4c(%ebp)
    2a4b:	68 d4 0e 01 00       	push   $0x10ed4
    2a50:	e8 bb af 00 00       	call   da10 <fibril_mutex_unlock@plt>
    2a55:	a1 88 10 01 00       	mov    0x11088,%eax
    2a5a:	83 c4 10             	add    $0x10,%esp
    2a5d:	8b 40 04             	mov    0x4(%eax),%eax
    2a60:	8b 40 08             	mov    0x8(%eax),%eax
    2a63:	85 c0                	test   %eax,%eax
    2a65:	0f 85 88 00 00 00    	jne    2af3 <driver_connection_devman+0x203>
    2a6b:	b8 f5 ff ff ff       	mov    $0xfffffff5,%eax
    2a70:	e9 63 02 00 00       	jmp    2cd8 <driver_connection_devman+0x3e8>
    2a75:	8d 76 00             	lea    0x0(%esi),%esi
    2a78:	83 ec 0c             	sub    $0xc,%esp
    2a7b:	68 d4 0e 01 00       	push   $0x10ed4
    2a80:	e8 4b b2 00 00       	call   dcd0 <fibril_mutex_lock@plt>
    2a85:	c7 04 24 d4 0e 01 00 	movl   $0x10ed4,(%esp)
    2a8c:	e8 9f ad 00 00       	call   d830 <fibril_mutex_is_locked@plt>
    2a91:	83 c4 10             	add    $0x10,%esp
    2a94:	84 c0                	test   %al,%al
    2a96:	0f 84 18 03 00 00    	je     2db4 <driver_connection_devman+0x4c4>
    2a9c:	a1 e8 0e 01 00       	mov    0x10ee8,%eax
    2aa1:	3d e4 0e 01 00       	cmp    $0x10ee4,%eax
    2aa6:	8d 50 ec             	lea    -0x14(%eax),%edx
    2aa9:	75 16                	jne    2ac1 <driver_connection_devman+0x1d1>
    2aab:	e9 80 02 00 00       	jmp    2d30 <driver_connection_devman+0x440>
    2ab0:	8b 40 04             	mov    0x4(%eax),%eax
    2ab3:	3d e4 0e 01 00       	cmp    $0x10ee4,%eax
    2ab8:	8d 50 ec             	lea    -0x14(%eax),%edx
    2abb:	0f 84 6f 02 00 00    	je     2d30 <driver_connection_devman+0x440>
    2ac1:	3b 78 ec             	cmp    -0x14(%eax),%edi
    2ac4:	75 ea                	jne    2ab0 <driver_connection_devman+0x1c0>
    2ac6:	8d 7a 04             	lea    0x4(%edx),%edi
    2ac9:	f0 ff 42 04          	lock incl 0x4(%edx)
    2acd:	83 ec 0c             	sub    $0xc,%esp
    2ad0:	89 55 b4             	mov    %edx,-0x4c(%ebp)
    2ad3:	68 d4 0e 01 00       	push   $0x10ed4
    2ad8:	e8 33 af 00 00       	call   da10 <fibril_mutex_unlock@plt>
    2add:	a1 88 10 01 00       	mov    0x11088,%eax
    2ae2:	83 c4 10             	add    $0x10,%esp
    2ae5:	8b 40 04             	mov    0x4(%eax),%eax
    2ae8:	8b 40 04             	mov    0x4(%eax),%eax
    2aeb:	85 c0                	test   %eax,%eax
    2aed:	0f 84 78 ff ff ff    	je     2a6b <driver_connection_devman+0x17b>
    2af3:	83 ec 0c             	sub    $0xc,%esp
    2af6:	8b 55 b4             	mov    -0x4c(%ebp),%edx
    2af9:	52                   	push   %edx
    2afa:	ff d0                	call   *%eax
    2afc:	83 c4 10             	add    $0x10,%esp
    2aff:	8b 55 b4             	mov    -0x4c(%ebp),%edx
    2b02:	85 c0                	test   %eax,%eax
    2b04:	0f 85 ce 01 00 00    	jne    2cd8 <driver_connection_devman+0x3e8>
    2b0a:	83 c9 ff             	or     $0xffffffff,%ecx
    2b0d:	f0 0f c1 0f          	lock xadd %ecx,(%edi)
    2b11:	49                   	dec    %ecx
    2b12:	0f 85 c0 01 00 00    	jne    2cd8 <driver_connection_devman+0x3e8>
    2b18:	8b 42 08             	mov    0x8(%edx),%eax
    2b1b:	85 c0                	test   %eax,%eax
    2b1d:	74 0f                	je     2b2e <driver_connection_devman+0x23e>
    2b1f:	83 ec 0c             	sub    $0xc,%esp
    2b22:	50                   	push   %eax
    2b23:	e8 98 ac 00 00       	call   d7c0 <async_hangup@plt>
    2b28:	83 c4 10             	add    $0x10,%esp
    2b2b:	8b 55 b4             	mov    -0x4c(%ebp),%edx
    2b2e:	8b 42 10             	mov    0x10(%edx),%eax
    2b31:	85 c0                	test   %eax,%eax
    2b33:	74 12                	je     2b47 <driver_connection_devman+0x257>
    2b35:	83 ec 0c             	sub    $0xc,%esp
    2b38:	89 55 b4             	mov    %edx,-0x4c(%ebp)
    2b3b:	50                   	push   %eax
    2b3c:	e8 6f b1 00 00       	call   dcb0 <free@plt>
    2b41:	83 c4 10             	add    $0x10,%esp
    2b44:	8b 55 b4             	mov    -0x4c(%ebp),%edx
    2b47:	8b 42 0c             	mov    0xc(%edx),%eax
    2b4a:	85 c0                	test   %eax,%eax
    2b4c:	74 12                	je     2b60 <driver_connection_devman+0x270>
    2b4e:	83 ec 0c             	sub    $0xc,%esp
    2b51:	89 55 b4             	mov    %edx,-0x4c(%ebp)
    2b54:	50                   	push   %eax
    2b55:	e8 56 b1 00 00       	call   dcb0 <free@plt>
    2b5a:	83 c4 10             	add    $0x10,%esp
    2b5d:	8b 55 b4             	mov    -0x4c(%ebp),%edx
    2b60:	83 ec 0c             	sub    $0xc,%esp
    2b63:	52                   	push   %edx
    2b64:	e8 47 b1 00 00       	call   dcb0 <free@plt>
    2b69:	83 c4 10             	add    $0x10,%esp
    2b6c:	31 c0                	xor    %eax,%eax
    2b6e:	e9 65 01 00 00       	jmp    2cd8 <driver_connection_devman+0x3e8>
    2b73:	90                   	nop
    2b74:	8d 74 26 00          	lea    0x0(%esi,%eiz,1),%esi
    2b78:	50                   	push   %eax
    2b79:	50                   	push   %eax
    2b7a:	8d 45 c0             	lea    -0x40(%ebp),%eax
    2b7d:	6a 00                	push   $0x0
    2b7f:	c7 45 c0 00 00 00 00 	movl   $0x0,-0x40(%ebp)
    2b86:	6a 00                	push   $0x0
    2b88:	6a 00                	push   $0x0
    2b8a:	6a 00                	push   $0x0
    2b8c:	6a 01                	push   $0x1
    2b8e:	50                   	push   %eax
    2b8f:	e8 8c b0 00 00       	call   dc20 <async_data_write_accept@plt>
    2b94:	83 c4 20             	add    $0x20,%esp
    2b97:	85 c0                	test   %eax,%eax
    2b99:	0f 85 39 01 00 00    	jne    2cd8 <driver_connection_devman+0x3e8>
    2b9f:	50                   	push   %eax
    2ba0:	50                   	push   %eax
    2ba1:	6a 1c                	push   $0x1c
    2ba3:	6a 01                	push   $0x1
    2ba5:	e8 e6 ad 00 00       	call   d990 <calloc@plt>
    2baa:	83 c4 10             	add    $0x10,%esp
    2bad:	89 c2                	mov    %eax,%edx
    2baf:	85 c0                	test   %eax,%eax
    2bb1:	0f 84 df 01 00 00    	je     2d96 <driver_connection_devman+0x4a6>
    2bb7:	f0 ff 40 04          	lock incl 0x4(%eax)
    2bbb:	89 38                	mov    %edi,(%eax)
    2bbd:	8b 45 c0             	mov    -0x40(%ebp),%eax
    2bc0:	89 42 0c             	mov    %eax,0xc(%edx)
    2bc3:	a1 88 10 01 00       	mov    0x11088,%eax
    2bc8:	83 ec 0c             	sub    $0xc,%esp
    2bcb:	89 55 b4             	mov    %edx,-0x4c(%ebp)
    2bce:	8b 40 04             	mov    0x4(%eax),%eax
    2bd1:	52                   	push   %edx
    2bd2:	ff 10                	call   *(%eax)
    2bd4:	83 c4 10             	add    $0x10,%esp
    2bd7:	89 c7                	mov    %eax,%edi
    2bd9:	85 c0                	test   %eax,%eax
    2bdb:	8b 55 b4             	mov    -0x4c(%ebp),%edx
    2bde:	0f 84 66 01 00 00    	je     2d4a <driver_connection_devman+0x45a>
    2be4:	83 c8 ff             	or     $0xffffffff,%eax
    2be7:	f0 0f c1 42 04       	lock xadd %eax,0x4(%edx)
    2bec:	48                   	dec    %eax
    2bed:	0f 85 ec fd ff ff    	jne    29df <driver_connection_devman+0xef>
    2bf3:	8b 42 08             	mov    0x8(%edx),%eax
    2bf6:	85 c0                	test   %eax,%eax
    2bf8:	74 12                	je     2c0c <driver_connection_devman+0x31c>
    2bfa:	83 ec 0c             	sub    $0xc,%esp
    2bfd:	89 55 b4             	mov    %edx,-0x4c(%ebp)
    2c00:	50                   	push   %eax
    2c01:	e8 ba ab 00 00       	call   d7c0 <async_hangup@plt>
    2c06:	83 c4 10             	add    $0x10,%esp
    2c09:	8b 55 b4             	mov    -0x4c(%ebp),%edx
    2c0c:	8b 42 10             	mov    0x10(%edx),%eax
    2c0f:	85 c0                	test   %eax,%eax
    2c11:	74 12                	je     2c25 <driver_connection_devman+0x335>
    2c13:	83 ec 0c             	sub    $0xc,%esp
    2c16:	89 55 b4             	mov    %edx,-0x4c(%ebp)
    2c19:	50                   	push   %eax
    2c1a:	e8 91 b0 00 00       	call   dcb0 <free@plt>
    2c1f:	83 c4 10             	add    $0x10,%esp
    2c22:	8b 55 b4             	mov    -0x4c(%ebp),%edx
    2c25:	8b 42 0c             	mov    0xc(%edx),%eax
    2c28:	85 c0                	test   %eax,%eax
    2c2a:	74 12                	je     2c3e <driver_connection_devman+0x34e>
    2c2c:	83 ec 0c             	sub    $0xc,%esp
    2c2f:	89 55 b4             	mov    %edx,-0x4c(%ebp)
    2c32:	50                   	push   %eax
    2c33:	e8 78 b0 00 00       	call   dcb0 <free@plt>
    2c38:	83 c4 10             	add    $0x10,%esp
    2c3b:	8b 55 b4             	mov    -0x4c(%ebp),%edx
    2c3e:	83 ec 0c             	sub    $0xc,%esp
    2c41:	52                   	push   %edx
    2c42:	e8 69 b0 00 00       	call   dcb0 <free@plt>
    2c47:	83 c4 10             	add    $0x10,%esp
    2c4a:	e9 90 fd ff ff       	jmp    29df <driver_connection_devman+0xef>
    2c4f:	90                   	nop
    2c50:	83 ec 0c             	sub    $0xc,%esp
    2c53:	68 bc 0e 01 00       	push   $0x10ebc
    2c58:	e8 73 b0 00 00       	call   dcd0 <fibril_mutex_lock@plt>
    2c5d:	c7 04 24 bc 0e 01 00 	movl   $0x10ebc,(%esp)
    2c64:	e8 c7 ab 00 00       	call   d830 <fibril_mutex_is_locked@plt>
    2c69:	83 c4 10             	add    $0x10,%esp
    2c6c:	84 c0                	test   %al,%al
    2c6e:	0f 84 52 01 00 00    	je     2dc6 <driver_connection_devman+0x4d6>
    2c74:	a1 d0 0e 01 00       	mov    0x10ed0,%eax
    2c79:	3d cc 0e 01 00       	cmp    $0x10ecc,%eax
    2c7e:	8d 50 d4             	lea    -0x2c(%eax),%edx
    2c81:	75 12                	jne    2c95 <driver_connection_devman+0x3a5>
    2c83:	e9 88 00 00 00       	jmp    2d10 <driver_connection_devman+0x420>
    2c88:	8b 40 04             	mov    0x4(%eax),%eax
    2c8b:	3d cc 0e 01 00       	cmp    $0x10ecc,%eax
    2c90:	8d 50 d4             	lea    -0x2c(%eax),%edx
    2c93:	74 7b                	je     2d10 <driver_connection_devman+0x420>
    2c95:	3b 7a 04             	cmp    0x4(%edx),%edi
    2c98:	75 ee                	jne    2c88 <driver_connection_devman+0x398>
    2c9a:	8b 42 0c             	mov    0xc(%edx),%eax
    2c9d:	f0 ff 40 04          	lock incl 0x4(%eax)
    2ca1:	f0 ff 42 08          	lock incl 0x8(%edx)
    2ca5:	83 ec 0c             	sub    $0xc,%esp
    2ca8:	89 55 b4             	mov    %edx,-0x4c(%ebp)
    2cab:	68 bc 0e 01 00       	push   $0x10ebc
    2cb0:	e8 5b ad 00 00       	call   da10 <fibril_mutex_unlock@plt>
    2cb5:	a1 88 10 01 00       	mov    0x11088,%eax
    2cba:	83 c4 10             	add    $0x10,%esp
    2cbd:	8b 40 04             	mov    0x4(%eax),%eax
    2cc0:	8b 40 10             	mov    0x10(%eax),%eax
    2cc3:	85 c0                	test   %eax,%eax
    2cc5:	0f 84 a0 fd ff ff    	je     2a6b <driver_connection_devman+0x17b>
    2ccb:	83 ec 0c             	sub    $0xc,%esp
    2cce:	8b 55 b4             	mov    -0x4c(%ebp),%edx
    2cd1:	52                   	push   %edx
    2cd2:	ff d0                	call   *%eax
    2cd4:	83 c4 10             	add    $0x10,%esp
    2cd7:	90                   	nop
    2cd8:	52                   	push   %edx
    2cd9:	52                   	push   %edx
    2cda:	50                   	push   %eax
    2cdb:	53                   	push   %ebx
    2cdc:	e8 1f ac 00 00       	call   d900 <async_answer_0@plt>
    2ce1:	83 c4 10             	add    $0x10,%esp
    2ce4:	e9 27 fc ff ff       	jmp    2910 <driver_connection_devman+0x20>
    2ce9:	8d b4 26 00 00 00 00 	lea    0x0(%esi,%eiz,1),%esi
    2cf0:	50                   	push   %eax
    2cf1:	50                   	push   %eax
    2cf2:	6a f5                	push   $0xfffffff5
    2cf4:	53                   	push   %ebx
    2cf5:	e8 06 ac 00 00       	call   d900 <async_answer_0@plt>
    2cfa:	83 c4 10             	add    $0x10,%esp
    2cfd:	e9 0e fc ff ff       	jmp    2910 <driver_connection_devman+0x20>
    2d02:	8d b6 00 00 00 00    	lea    0x0(%esi),%esi
    2d08:	8d 65 f4             	lea    -0xc(%ebp),%esp
    2d0b:	5b                   	pop    %ebx
    2d0c:	5e                   	pop    %esi
    2d0d:	5f                   	pop    %edi
    2d0e:	5d                   	pop    %ebp
    2d0f:	c3                   	ret    
    2d10:	83 ec 0c             	sub    $0xc,%esp
    2d13:	68 bc 0e 01 00       	push   $0x10ebc
    2d18:	e8 f3 ac 00 00       	call   da10 <fibril_mutex_unlock@plt>
    2d1d:	58                   	pop    %eax
    2d1e:	5a                   	pop    %edx
    2d1f:	6a ff                	push   $0xffffffff
    2d21:	53                   	push   %ebx
    2d22:	e8 d9 ab 00 00       	call   d900 <async_answer_0@plt>
    2d27:	83 c4 10             	add    $0x10,%esp
    2d2a:	e9 e1 fb ff ff       	jmp    2910 <driver_connection_devman+0x20>
    2d2f:	90                   	nop
    2d30:	83 ec 0c             	sub    $0xc,%esp
    2d33:	68 d4 0e 01 00       	push   $0x10ed4
    2d38:	eb de                	jmp    2d18 <driver_connection_devman+0x428>
    2d3a:	8d b6 00 00 00 00    	lea    0x0(%esi),%esi
    2d40:	bf f5 ff ff ff       	mov    $0xfffffff5,%edi
    2d45:	e9 8e fc ff ff       	jmp    29d8 <driver_connection_devman+0xe8>
    2d4a:	83 ec 0c             	sub    $0xc,%esp
    2d4d:	89 55 b4             	mov    %edx,-0x4c(%ebp)
    2d50:	68 d4 0e 01 00       	push   $0x10ed4
    2d55:	e8 76 af 00 00       	call   dcd0 <fibril_mutex_lock@plt>
    2d5a:	8b 55 b4             	mov    -0x4c(%ebp),%edx
    2d5d:	8b 0d e4 0e 01 00    	mov    0x10ee4,%ecx
    2d63:	8d 42 14             	lea    0x14(%edx),%eax
    2d66:	c7 42 18 e4 0e 01 00 	movl   $0x10ee4,0x18(%edx)
    2d6d:	89 4a 14             	mov    %ecx,0x14(%edx)
    2d70:	89 41 04             	mov    %eax,0x4(%ecx)
    2d73:	a3 e4 0e 01 00       	mov    %eax,0x10ee4
    2d78:	c7 04 24 d4 0e 01 00 	movl   $0x10ed4,(%esp)
    2d7f:	e8 8c ac 00 00       	call   da10 <fibril_mutex_unlock@plt>
    2d84:	5f                   	pop    %edi
    2d85:	58                   	pop    %eax
    2d86:	6a 00                	push   $0x0
    2d88:	53                   	push   %ebx
    2d89:	e8 72 ab 00 00       	call   d900 <async_answer_0@plt>
    2d8e:	83 c4 10             	add    $0x10,%esp
    2d91:	e9 7a fb ff ff       	jmp    2910 <driver_connection_devman+0x20>
    2d96:	83 ec 0c             	sub    $0xc,%esp
    2d99:	8b 4d c0             	mov    -0x40(%ebp),%ecx
    2d9c:	51                   	push   %ecx
    2d9d:	e8 0e af 00 00       	call   dcb0 <free@plt>
    2da2:	5f                   	pop    %edi
    2da3:	58                   	pop    %eax
    2da4:	6a fe                	push   $0xfffffffe
    2da6:	53                   	push   %ebx
    2da7:	e8 54 ab 00 00       	call   d900 <async_answer_0@plt>
    2dac:	83 c4 10             	add    $0x10,%esp
    2daf:	e9 5c fb ff ff       	jmp    2910 <driver_connection_devman+0x20>
    2db4:	56                   	push   %esi
    2db5:	6a 5f                	push   $0x5f
    2db7:	68 08 ba 00 00       	push   $0xba08
    2dbc:	68 ac bc 00 00       	push   $0xbcac
    2dc1:	e8 aa ab 00 00       	call   d970 <assert_abort@plt>
    2dc6:	53                   	push   %ebx
    2dc7:	6a 6b                	push   $0x6b
    2dc9:	68 08 ba 00 00       	push   $0xba08
    2dce:	68 60 bb 00 00       	push   $0xbb60
    2dd3:	e8 98 ab 00 00       	call   d970 <assert_abort@plt>
    2dd8:	90                   	nop
    2dd9:	8d b4 26 00 00 00 00 	lea    0x0(%esi,%eiz,1),%esi

00002de0 <ddf_dev_data_alloc>:
    2de0:	55                   	push   %ebp
    2de1:	89 e5                	mov    %esp,%ebp
    2de3:	53                   	push   %ebx
    2de4:	53                   	push   %ebx
    2de5:	8b 5d 08             	mov    0x8(%ebp),%ebx
    2de8:	8b 43 10             	mov    0x10(%ebx),%eax
    2deb:	85 c0                	test   %eax,%eax
    2ded:	75 1c                	jne    2e0b <ddf_dev_data_alloc+0x2b>
    2def:	8b 55 0c             	mov    0xc(%ebp),%edx
    2df2:	50                   	push   %eax
    2df3:	50                   	push   %eax
    2df4:	52                   	push   %edx
    2df5:	6a 01                	push   $0x1
    2df7:	e8 94 ab 00 00       	call   d990 <calloc@plt>
    2dfc:	83 c4 10             	add    $0x10,%esp
    2dff:	85 c0                	test   %eax,%eax
    2e01:	74 03                	je     2e06 <ddf_dev_data_alloc+0x26>
    2e03:	89 43 10             	mov    %eax,0x10(%ebx)
    2e06:	8b 5d fc             	mov    -0x4(%ebp),%ebx
    2e09:	c9                   	leave  
    2e0a:	c3                   	ret    
    2e0b:	51                   	push   %ecx
    2e0c:	68 39 02 00 00       	push   $0x239
    2e11:	68 08 ba 00 00       	push   $0xba08
    2e16:	68 43 ba 00 00       	push   $0xba43
    2e1b:	e8 50 ab 00 00       	call   d970 <assert_abort@plt>

00002e20 <ddf_dev_data_get>:
    2e20:	55                   	push   %ebp
    2e21:	89 e5                	mov    %esp,%ebp
    2e23:	8b 45 08             	mov    0x8(%ebp),%eax
    2e26:	5d                   	pop    %ebp
    2e27:	8b 40 10             	mov    0x10(%eax),%eax
    2e2a:	c3                   	ret    
    2e2b:	90                   	nop
    2e2c:	8d 74 26 00          	lea    0x0(%esi,%eiz,1),%esi

00002e30 <ddf_dev_get_handle>:
    2e30:	55                   	push   %ebp
    2e31:	89 e5                	mov    %esp,%ebp
    2e33:	8b 45 08             	mov    0x8(%ebp),%eax
    2e36:	5d                   	pop    %ebp
    2e37:	8b 00                	mov    (%eax),%eax
    2e39:	c3                   	ret    
    2e3a:	8d b6 00 00 00 00    	lea    0x0(%esi),%esi

00002e40 <ddf_dev_get_name>:
    2e40:	55                   	push   %ebp
    2e41:	89 e5                	mov    %esp,%ebp
    2e43:	8b 45 08             	mov    0x8(%ebp),%eax
    2e46:	5d                   	pop    %ebp
    2e47:	8b 40 0c             	mov    0xc(%eax),%eax
    2e4a:	c3                   	ret    
    2e4b:	90                   	nop
    2e4c:	8d 74 26 00          	lea    0x0(%esi,%eiz,1),%esi

00002e50 <ddf_dev_parent_sess_create>:
    2e50:	55                   	push   %ebp
    2e51:	89 e5                	mov    %esp,%ebp
    2e53:	53                   	push   %ebx
    2e54:	53                   	push   %ebx
    2e55:	8b 5d 08             	mov    0x8(%ebp),%ebx
    2e58:	8b 43 08             	mov    0x8(%ebx),%eax
    2e5b:	85 c0                	test   %eax,%eax
    2e5d:	75 14                	jne    2e73 <ddf_dev_parent_sess_create+0x23>
    2e5f:	50                   	push   %eax
    2e60:	50                   	push   %eax
    2e61:	6a 01                	push   $0x1
    2e63:	8b 13                	mov    (%ebx),%edx
    2e65:	52                   	push   %edx
    2e66:	e8 85 a9 00 00       	call   d7f0 <devman_parent_device_connect@plt>
    2e6b:	89 43 08             	mov    %eax,0x8(%ebx)
    2e6e:	8b 5d fc             	mov    -0x4(%ebp),%ebx
    2e71:	c9                   	leave  
    2e72:	c3                   	ret    
    2e73:	51                   	push   %ecx
    2e74:	68 64 02 00 00       	push   $0x264
    2e79:	68 08 ba 00 00       	push   $0xba08
    2e7e:	68 5c ba 00 00       	push   $0xba5c
    2e83:	e8 e8 aa 00 00       	call   d970 <assert_abort@plt>
    2e88:	90                   	nop
    2e89:	8d b4 26 00 00 00 00 	lea    0x0(%esi,%eiz,1),%esi

00002e90 <ddf_dev_parent_sess_get>:
    2e90:	55                   	push   %ebp
    2e91:	89 e5                	mov    %esp,%ebp
    2e93:	8b 45 08             	mov    0x8(%ebp),%eax
    2e96:	5d                   	pop    %ebp
    2e97:	8b 40 08             	mov    0x8(%eax),%eax
    2e9a:	c3                   	ret    
    2e9b:	90                   	nop
    2e9c:	8d 74 26 00          	lea    0x0(%esi,%eiz,1),%esi

00002ea0 <ddf_fun_set_name>:
    2ea0:	55                   	push   %ebp
    2ea1:	89 e5                	mov    %esp,%ebp
    2ea3:	53                   	push   %ebx
    2ea4:	51                   	push   %ecx
    2ea5:	8b 5d 08             	mov    0x8(%ebp),%ebx
    2ea8:	8b 43 14             	mov    0x14(%ebx),%eax
    2eab:	85 c0                	test   %eax,%eax
    2ead:	75 23                	jne    2ed2 <ddf_fun_set_name+0x32>
    2eaf:	83 ec 0c             	sub    $0xc,%esp
    2eb2:	8b 45 0c             	mov    0xc(%ebp),%eax
    2eb5:	50                   	push   %eax
    2eb6:	e8 75 ab 00 00       	call   da30 <str_dup@plt>
    2ebb:	83 c4 10             	add    $0x10,%esp
    2ebe:	89 43 14             	mov    %eax,0x14(%ebx)
    2ec1:	85 c0                	test   %eax,%eax
    2ec3:	8b 5d fc             	mov    -0x4(%ebp),%ebx
    2ec6:	0f 94 c0             	sete   %al
    2ec9:	25 ff 00 00 00       	and    $0xff,%eax
    2ece:	c9                   	leave  
    2ecf:	f7 d8                	neg    %eax
    2ed1:	c3                   	ret    
    2ed2:	52                   	push   %edx
    2ed3:	68 7d 02 00 00       	push   $0x27d
    2ed8:	68 08 ba 00 00       	push   $0xba08
    2edd:	68 75 ba 00 00       	push   $0xba75
    2ee2:	e8 89 aa 00 00       	call   d970 <assert_abort@plt>
    2ee7:	89 f6                	mov    %esi,%esi
    2ee9:	8d bc 27 00 00 00 00 	lea    0x0(%edi,%eiz,1),%edi

00002ef0 <ddf_fun_get_dev>:
    2ef0:	55                   	push   %ebp
    2ef1:	89 e5                	mov    %esp,%ebp
    2ef3:	8b 45 08             	mov    0x8(%ebp),%eax
    2ef6:	5d                   	pop    %ebp
    2ef7:	8b 40 0c             	mov    0xc(%eax),%eax
    2efa:	c3                   	ret    
    2efb:	90                   	nop
    2efc:	8d 74 26 00          	lea    0x0(%esi,%eiz,1),%esi

00002f00 <ddf_fun_get_handle>:
    2f00:	55                   	push   %ebp
    2f01:	89 e5                	mov    %esp,%ebp
    2f03:	8b 45 08             	mov    0x8(%ebp),%eax
    2f06:	5d                   	pop    %ebp
    2f07:	8b 40 04             	mov    0x4(%eax),%eax
    2f0a:	c3                   	ret    
    2f0b:	90                   	nop
    2f0c:	8d 74 26 00          	lea    0x0(%esi,%eiz,1),%esi

00002f10 <ddf_fun_create>:
    2f10:	55                   	push   %ebp
    2f11:	89 e5                	mov    %esp,%ebp
    2f13:	57                   	push   %edi
    2f14:	56                   	push   %esi
    2f15:	53                   	push   %ebx
    2f16:	83 ec 14             	sub    $0x14,%esp
    2f19:	8b 75 08             	mov    0x8(%ebp),%esi
    2f1c:	6a 34                	push   $0x34
    2f1e:	6a 01                	push   $0x1
    2f20:	e8 6b aa 00 00       	call   d990 <calloc@plt>
    2f25:	83 c4 10             	add    $0x10,%esp
    2f28:	89 c3                	mov    %eax,%ebx
    2f2a:	85 c0                	test   %eax,%eax
    2f2c:	74 48                	je     2f76 <ddf_fun_create+0x66>
    2f2e:	8d 78 18             	lea    0x18(%eax),%edi
    2f31:	c7 40 2c 00 00 00 00 	movl   $0x0,0x2c(%eax)
    2f38:	89 78 18             	mov    %edi,0x18(%eax)
    2f3b:	89 78 1c             	mov    %edi,0x1c(%eax)
    2f3e:	c7 40 30 00 00 00 00 	movl   $0x0,0x30(%eax)
    2f45:	89 70 0c             	mov    %esi,0xc(%eax)
    2f48:	f0 ff 46 04          	lock incl 0x4(%esi)
    2f4c:	f0 ff 40 08          	lock incl 0x8(%eax)
    2f50:	c6 00 00             	movb   $0x0,(%eax)
    2f53:	8b 55 10             	mov    0x10(%ebp),%edx
    2f56:	8b 45 0c             	mov    0xc(%ebp),%eax
    2f59:	85 d2                	test   %edx,%edx
    2f5b:	89 43 10             	mov    %eax,0x10(%ebx)
    2f5e:	74 16                	je     2f76 <ddf_fun_create+0x66>
    2f60:	83 ec 0c             	sub    $0xc,%esp
    2f63:	8b 45 10             	mov    0x10(%ebp),%eax
    2f66:	50                   	push   %eax
    2f67:	e8 c4 aa 00 00       	call   da30 <str_dup@plt>
    2f6c:	83 c4 10             	add    $0x10,%esp
    2f6f:	89 43 14             	mov    %eax,0x14(%ebx)
    2f72:	85 c0                	test   %eax,%eax
    2f74:	74 0a                	je     2f80 <ddf_fun_create+0x70>
    2f76:	8d 65 f4             	lea    -0xc(%ebp),%esp
    2f79:	89 d8                	mov    %ebx,%eax
    2f7b:	5b                   	pop    %ebx
    2f7c:	5e                   	pop    %esi
    2f7d:	5f                   	pop    %edi
    2f7e:	5d                   	pop    %ebp
    2f7f:	c3                   	ret    
    2f80:	8b 73 1c             	mov    0x1c(%ebx),%esi
    2f83:	39 f7                	cmp    %esi,%edi
    2f85:	0f 84 85 00 00 00    	je     3010 <ddf_fun_create+0x100>
    2f8b:	90                   	nop
    2f8c:	8d 74 26 00          	lea    0x0(%esi,%eiz,1),%esi
    2f90:	8b 0e                	mov    (%esi),%ecx
    2f92:	85 c9                	test   %ecx,%ecx
    2f94:	74 0e                	je     2fa4 <ddf_fun_create+0x94>
    2f96:	8b 46 04             	mov    0x4(%esi),%eax
    2f99:	85 c0                	test   %eax,%eax
    2f9b:	74 07                	je     2fa4 <ddf_fun_create+0x94>
    2f9d:	89 08                	mov    %ecx,(%eax)
    2f9f:	8b 0e                	mov    (%esi),%ecx
    2fa1:	89 41 04             	mov    %eax,0x4(%ecx)
    2fa4:	8b 46 08             	mov    0x8(%esi),%eax
    2fa7:	c7 06 00 00 00 00    	movl   $0x0,(%esi)
    2fad:	c7 46 04 00 00 00 00 	movl   $0x0,0x4(%esi)
    2fb4:	85 c0                	test   %eax,%eax
    2fb6:	74 0c                	je     2fc4 <ddf_fun_create+0xb4>
    2fb8:	83 ec 0c             	sub    $0xc,%esp
    2fbb:	50                   	push   %eax
    2fbc:	e8 ef ac 00 00       	call   dcb0 <free@plt>
    2fc1:	83 c4 10             	add    $0x10,%esp
    2fc4:	83 ec 0c             	sub    $0xc,%esp
    2fc7:	56                   	push   %esi
    2fc8:	e8 e3 ac 00 00       	call   dcb0 <free@plt>
    2fcd:	8b 73 1c             	mov    0x1c(%ebx),%esi
    2fd0:	83 c4 10             	add    $0x10,%esp
    2fd3:	39 f7                	cmp    %esi,%edi
    2fd5:	75 b9                	jne    2f90 <ddf_fun_create+0x80>
    2fd7:	8b 43 20             	mov    0x20(%ebx),%eax
    2fda:	85 c0                	test   %eax,%eax
    2fdc:	74 0c                	je     2fea <ddf_fun_create+0xda>
    2fde:	83 ec 0c             	sub    $0xc,%esp
    2fe1:	50                   	push   %eax
    2fe2:	e8 c9 ac 00 00       	call   dcb0 <free@plt>
    2fe7:	83 c4 10             	add    $0x10,%esp
    2fea:	8b 43 14             	mov    0x14(%ebx),%eax
    2fed:	85 c0                	test   %eax,%eax
    2fef:	74 0c                	je     2ffd <ddf_fun_create+0xed>
    2ff1:	83 ec 0c             	sub    $0xc,%esp
    2ff4:	50                   	push   %eax
    2ff5:	e8 b6 ac 00 00       	call   dcb0 <free@plt>
    2ffa:	83 c4 10             	add    $0x10,%esp
    2ffd:	83 ec 0c             	sub    $0xc,%esp
    3000:	53                   	push   %ebx
    3001:	31 db                	xor    %ebx,%ebx
    3003:	e8 a8 ac 00 00       	call   dcb0 <free@plt>
    3008:	83 c4 10             	add    $0x10,%esp
    300b:	e9 66 ff ff ff       	jmp    2f76 <ddf_fun_create+0x66>
    3010:	8b 43 20             	mov    0x20(%ebx),%eax
    3013:	85 c0                	test   %eax,%eax
    3015:	75 c7                	jne    2fde <ddf_fun_create+0xce>
    3017:	eb e4                	jmp    2ffd <ddf_fun_create+0xed>
    3019:	8d b4 26 00 00 00 00 	lea    0x0(%esi,%eiz,1),%esi

00003020 <ddf_fun_data_alloc>:
    3020:	55                   	push   %ebp
    3021:	89 e5                	mov    %esp,%ebp
    3023:	53                   	push   %ebx
    3024:	50                   	push   %eax
    3025:	8b 5d 08             	mov    0x8(%ebp),%ebx
    3028:	80 3b 00             	cmpb   $0x0,(%ebx)
    302b:	75 23                	jne    3050 <ddf_fun_data_alloc+0x30>
    302d:	8b 43 20             	mov    0x20(%ebx),%eax
    3030:	85 c0                	test   %eax,%eax
    3032:	75 31                	jne    3065 <ddf_fun_data_alloc+0x45>
    3034:	8b 55 0c             	mov    0xc(%ebp),%edx
    3037:	50                   	push   %eax
    3038:	50                   	push   %eax
    3039:	52                   	push   %edx
    303a:	6a 01                	push   $0x1
    303c:	e8 4f a9 00 00       	call   d990 <calloc@plt>
    3041:	83 c4 10             	add    $0x10,%esp
    3044:	85 c0                	test   %eax,%eax
    3046:	74 03                	je     304b <ddf_fun_data_alloc+0x2b>
    3048:	89 43 20             	mov    %eax,0x20(%ebx)
    304b:	8b 5d fc             	mov    -0x4(%ebp),%ebx
    304e:	c9                   	leave  
    304f:	c3                   	ret    
    3050:	50                   	push   %eax
    3051:	68 c9 02 00 00       	push   $0x2c9
    3056:	68 08 ba 00 00       	push   $0xba08
    305b:	68 87 ba 00 00       	push   $0xba87
    3060:	e8 0b a9 00 00       	call   d970 <assert_abort@plt>
    3065:	51                   	push   %ecx
    3066:	68 ca 02 00 00       	push   $0x2ca
    306b:	68 08 ba 00 00       	push   $0xba08
    3070:	68 9b ba 00 00       	push   $0xba9b
    3075:	e8 f6 a8 00 00       	call   d970 <assert_abort@plt>
    307a:	8d b6 00 00 00 00    	lea    0x0(%esi),%esi

00003080 <ddf_fun_data_get>:
    3080:	55                   	push   %ebp
    3081:	89 e5                	mov    %esp,%ebp
    3083:	8b 45 08             	mov    0x8(%ebp),%eax
    3086:	5d                   	pop    %ebp
    3087:	8b 40 20             	mov    0x20(%eax),%eax
    308a:	c3                   	ret    
    308b:	90                   	nop
    308c:	8d 74 26 00          	lea    0x0(%esi,%eiz,1),%esi

00003090 <ddf_fun_get_name>:
    3090:	55                   	push   %ebp
    3091:	89 e5                	mov    %esp,%ebp
    3093:	8b 45 08             	mov    0x8(%ebp),%eax
    3096:	5d                   	pop    %ebp
    3097:	8b 40 14             	mov    0x14(%eax),%eax
    309a:	c3                   	ret    
    309b:	90                   	nop
    309c:	8d 74 26 00          	lea    0x0(%esi,%eiz,1),%esi

000030a0 <ddf_fun_destroy>:
    30a0:	55                   	push   %ebp
    30a1:	89 e5                	mov    %esp,%ebp
    30a3:	57                   	push   %edi
    30a4:	56                   	push   %esi
    30a5:	53                   	push   %ebx
    30a6:	83 ec 1c             	sub    $0x1c,%esp
    30a9:	8b 7d 08             	mov    0x8(%ebp),%edi
    30ac:	80 3f 00             	cmpb   $0x0,(%edi)
    30af:	0f 85 fa 00 00 00    	jne    31af <ddf_fun_destroy+0x10f>
    30b5:	8b 77 0c             	mov    0xc(%edi),%esi
    30b8:	83 ca ff             	or     $0xffffffff,%edx
    30bb:	f0 0f c1 57 08       	lock xadd %edx,0x8(%edi)
    30c0:	4a                   	dec    %edx
    30c1:	74 5d                	je     3120 <ddf_fun_destroy+0x80>
    30c3:	83 c8 ff             	or     $0xffffffff,%eax
    30c6:	f0 0f c1 46 04       	lock xadd %eax,0x4(%esi)
    30cb:	48                   	dec    %eax
    30cc:	74 0a                	je     30d8 <ddf_fun_destroy+0x38>
    30ce:	8d 65 f4             	lea    -0xc(%ebp),%esp
    30d1:	5b                   	pop    %ebx
    30d2:	5e                   	pop    %esi
    30d3:	5f                   	pop    %edi
    30d4:	5d                   	pop    %ebp
    30d5:	c3                   	ret    
    30d6:	66 90                	xchg   %ax,%ax
    30d8:	8b 46 08             	mov    0x8(%esi),%eax
    30db:	85 c0                	test   %eax,%eax
    30dd:	74 0c                	je     30eb <ddf_fun_destroy+0x4b>
    30df:	83 ec 0c             	sub    $0xc,%esp
    30e2:	50                   	push   %eax
    30e3:	e8 d8 a6 00 00       	call   d7c0 <async_hangup@plt>
    30e8:	83 c4 10             	add    $0x10,%esp
    30eb:	8b 46 10             	mov    0x10(%esi),%eax
    30ee:	85 c0                	test   %eax,%eax
    30f0:	74 0c                	je     30fe <ddf_fun_destroy+0x5e>
    30f2:	83 ec 0c             	sub    $0xc,%esp
    30f5:	50                   	push   %eax
    30f6:	e8 b5 ab 00 00       	call   dcb0 <free@plt>
    30fb:	83 c4 10             	add    $0x10,%esp
    30fe:	8b 46 0c             	mov    0xc(%esi),%eax
    3101:	85 c0                	test   %eax,%eax
    3103:	74 0c                	je     3111 <ddf_fun_destroy+0x71>
    3105:	83 ec 0c             	sub    $0xc,%esp
    3108:	50                   	push   %eax
    3109:	e8 a2 ab 00 00       	call   dcb0 <free@plt>
    310e:	83 c4 10             	add    $0x10,%esp
    3111:	89 75 08             	mov    %esi,0x8(%ebp)
    3114:	8d 65 f4             	lea    -0xc(%ebp),%esp
    3117:	5b                   	pop    %ebx
    3118:	5e                   	pop    %esi
    3119:	5f                   	pop    %edi
    311a:	5d                   	pop    %ebp
    311b:	e9 90 ab 00 00       	jmp    dcb0 <free@plt>
    3120:	8d 47 18             	lea    0x18(%edi),%eax
    3123:	8b 5f 1c             	mov    0x1c(%edi),%ebx
    3126:	89 45 e4             	mov    %eax,-0x1c(%ebp)
    3129:	39 d8                	cmp    %ebx,%eax
    312b:	74 4b                	je     3178 <ddf_fun_destroy+0xd8>
    312d:	8d 76 00             	lea    0x0(%esi),%esi
    3130:	8b 0b                	mov    (%ebx),%ecx
    3132:	85 c9                	test   %ecx,%ecx
    3134:	74 0e                	je     3144 <ddf_fun_destroy+0xa4>
    3136:	8b 53 04             	mov    0x4(%ebx),%edx
    3139:	85 d2                	test   %edx,%edx
    313b:	74 07                	je     3144 <ddf_fun_destroy+0xa4>
    313d:	89 0a                	mov    %ecx,(%edx)
    313f:	8b 0b                	mov    (%ebx),%ecx
    3141:	89 51 04             	mov    %edx,0x4(%ecx)
    3144:	8b 53 08             	mov    0x8(%ebx),%edx
    3147:	c7 03 00 00 00 00    	movl   $0x0,(%ebx)
    314d:	c7 43 04 00 00 00 00 	movl   $0x0,0x4(%ebx)
    3154:	85 d2                	test   %edx,%edx
    3156:	74 0c                	je     3164 <ddf_fun_destroy+0xc4>
    3158:	83 ec 0c             	sub    $0xc,%esp
    315b:	52                   	push   %edx
    315c:	e8 4f ab 00 00       	call   dcb0 <free@plt>
    3161:	83 c4 10             	add    $0x10,%esp
    3164:	83 ec 0c             	sub    $0xc,%esp
    3167:	53                   	push   %ebx
    3168:	e8 43 ab 00 00       	call   dcb0 <free@plt>
    316d:	8b 5f 1c             	mov    0x1c(%edi),%ebx
    3170:	83 c4 10             	add    $0x10,%esp
    3173:	3b 5d e4             	cmp    -0x1c(%ebp),%ebx
    3176:	75 b8                	jne    3130 <ddf_fun_destroy+0x90>
    3178:	8b 57 20             	mov    0x20(%edi),%edx
    317b:	85 d2                	test   %edx,%edx
    317d:	74 0c                	je     318b <ddf_fun_destroy+0xeb>
    317f:	83 ec 0c             	sub    $0xc,%esp
    3182:	52                   	push   %edx
    3183:	e8 28 ab 00 00       	call   dcb0 <free@plt>
    3188:	83 c4 10             	add    $0x10,%esp
    318b:	8b 57 14             	mov    0x14(%edi),%edx
    318e:	85 d2                	test   %edx,%edx
    3190:	74 0c                	je     319e <ddf_fun_destroy+0xfe>
    3192:	83 ec 0c             	sub    $0xc,%esp
    3195:	52                   	push   %edx
    3196:	e8 15 ab 00 00       	call   dcb0 <free@plt>
    319b:	83 c4 10             	add    $0x10,%esp
    319e:	83 ec 0c             	sub    $0xc,%esp
    31a1:	57                   	push   %edi
    31a2:	e8 09 ab 00 00       	call   dcb0 <free@plt>
    31a7:	83 c4 10             	add    $0x10,%esp
    31aa:	e9 14 ff ff ff       	jmp    30c3 <ddf_fun_destroy+0x23>
    31af:	50                   	push   %eax
    31b0:	68 ee 02 00 00       	push   $0x2ee
    31b5:	68 08 ba 00 00       	push   $0xba08
    31ba:	68 87 ba 00 00       	push   $0xba87
    31bf:	e8 ac a7 00 00       	call   d970 <assert_abort@plt>
    31c4:	8d b6 00 00 00 00    	lea    0x0(%esi),%esi
    31ca:	8d bf 00 00 00 00    	lea    0x0(%edi),%edi

000031d0 <ddf_fun_bind>:
    31d0:	55                   	push   %ebp
    31d1:	89 e5                	mov    %esp,%ebp
    31d3:	53                   	push   %ebx
    31d4:	83 ec 14             	sub    $0x14,%esp
    31d7:	8b 5d 08             	mov    0x8(%ebp),%ebx
    31da:	80 3b 00             	cmpb   $0x0,(%ebx)
    31dd:	0f 85 d2 00 00 00    	jne    32b5 <ddf_fun_bind+0xe5>
    31e3:	8b 43 14             	mov    0x14(%ebx),%eax
    31e6:	85 c0                	test   %eax,%eax
    31e8:	0f 84 f1 00 00 00    	je     32df <ddf_fun_bind+0x10f>
    31ee:	8b 43 0c             	mov    0xc(%ebx),%eax
    31f1:	85 c0                	test   %eax,%eax
    31f3:	0f 84 d1 00 00 00    	je     32ca <ddf_fun_bind+0xfa>
    31f9:	83 ec 0c             	sub    $0xc,%esp
    31fc:	68 bc 0e 01 00       	push   $0x10ebc
    3201:	e8 ca aa 00 00       	call   dcd0 <fibril_mutex_lock@plt>
    3206:	8b 15 cc 0e 01 00    	mov    0x10ecc,%edx
    320c:	8d 43 2c             	lea    0x2c(%ebx),%eax
    320f:	89 53 2c             	mov    %edx,0x2c(%ebx)
    3212:	c7 43 30 cc 0e 01 00 	movl   $0x10ecc,0x30(%ebx)
    3219:	89 42 04             	mov    %eax,0x4(%edx)
    321c:	a3 cc 0e 01 00       	mov    %eax,0x10ecc
    3221:	c7 04 24 bc 0e 01 00 	movl   $0x10ebc,(%esp)
    3228:	e8 e3 a7 00 00       	call   da10 <fibril_mutex_unlock@plt>
    322d:	8d 43 04             	lea    0x4(%ebx),%eax
    3230:	8b 53 10             	mov    0x10(%ebx),%edx
    3233:	89 04 24             	mov    %eax,(%esp)
    3236:	8b 43 0c             	mov    0xc(%ebx),%eax
    3239:	8b 4b 14             	mov    0x14(%ebx),%ecx
    323c:	8b 00                	mov    (%eax),%eax
    323e:	50                   	push   %eax
    323f:	8d 43 18             	lea    0x18(%ebx),%eax
    3242:	50                   	push   %eax
    3243:	52                   	push   %edx
    3244:	51                   	push   %ecx
    3245:	e8 06 a7 00 00       	call   d950 <devman_add_function@plt>
    324a:	83 c4 20             	add    $0x20,%esp
    324d:	85 c0                	test   %eax,%eax
    324f:	75 0f                	jne    3260 <ddf_fun_bind+0x90>
    3251:	c6 03 01             	movb   $0x1,(%ebx)
    3254:	8b 5d fc             	mov    -0x4(%ebp),%ebx
    3257:	c9                   	leave  
    3258:	c3                   	ret    
    3259:	8d b4 26 00 00 00 00 	lea    0x0(%esi,%eiz,1),%esi
    3260:	83 ec 0c             	sub    $0xc,%esp
    3263:	89 45 f4             	mov    %eax,-0xc(%ebp)
    3266:	68 bc 0e 01 00       	push   $0x10ebc
    326b:	e8 60 aa 00 00       	call   dcd0 <fibril_mutex_lock@plt>
    3270:	8b 4b 2c             	mov    0x2c(%ebx),%ecx
    3273:	83 c4 10             	add    $0x10,%esp
    3276:	8b 45 f4             	mov    -0xc(%ebp),%eax
    3279:	85 c9                	test   %ecx,%ecx
    327b:	74 0f                	je     328c <ddf_fun_bind+0xbc>
    327d:	8b 53 30             	mov    0x30(%ebx),%edx
    3280:	85 d2                	test   %edx,%edx
    3282:	74 08                	je     328c <ddf_fun_bind+0xbc>
    3284:	89 0a                	mov    %ecx,(%edx)
    3286:	8b 4b 2c             	mov    0x2c(%ebx),%ecx
    3289:	89 51 04             	mov    %edx,0x4(%ecx)
    328c:	83 ec 0c             	sub    $0xc,%esp
    328f:	c7 43 2c 00 00 00 00 	movl   $0x0,0x2c(%ebx)
    3296:	c7 43 30 00 00 00 00 	movl   $0x0,0x30(%ebx)
    329d:	89 45 f4             	mov    %eax,-0xc(%ebp)
    32a0:	68 bc 0e 01 00       	push   $0x10ebc
    32a5:	e8 66 a7 00 00       	call   da10 <fibril_mutex_unlock@plt>
    32aa:	8b 45 f4             	mov    -0xc(%ebp),%eax
    32ad:	83 c4 10             	add    $0x10,%esp
    32b0:	8b 5d fc             	mov    -0x4(%ebp),%ebx
    32b3:	c9                   	leave  
    32b4:	c3                   	ret    
    32b5:	50                   	push   %eax
    32b6:	68 12 03 00 00       	push   $0x312
    32bb:	68 08 ba 00 00       	push   $0xba08
    32c0:	68 87 ba 00 00       	push   $0xba87
    32c5:	e8 a6 a6 00 00       	call   d970 <assert_abort@plt>
    32ca:	53                   	push   %ebx
    32cb:	68 14 03 00 00       	push   $0x314
    32d0:	68 08 ba 00 00       	push   $0xba08
    32d5:	68 c6 ba 00 00       	push   $0xbac6
    32da:	e8 91 a6 00 00       	call   d970 <assert_abort@plt>
    32df:	50                   	push   %eax
    32e0:	68 13 03 00 00       	push   $0x313
    32e5:	68 08 ba 00 00       	push   $0xba08
    32ea:	68 b4 ba 00 00       	push   $0xbab4
    32ef:	e8 7c a6 00 00       	call   d970 <assert_abort@plt>
    32f4:	8d b6 00 00 00 00    	lea    0x0(%esi),%esi
    32fa:	8d bf 00 00 00 00    	lea    0x0(%edi),%edi

00003300 <ddf_fun_unbind>:
    3300:	55                   	push   %ebp
    3301:	89 e5                	mov    %esp,%ebp
    3303:	53                   	push   %ebx
    3304:	83 ec 14             	sub    $0x14,%esp
    3307:	8b 5d 08             	mov    0x8(%ebp),%ebx
    330a:	80 3b 00             	cmpb   $0x0,(%ebx)
    330d:	74 71                	je     3380 <ddf_fun_unbind+0x80>
    330f:	83 ec 0c             	sub    $0xc,%esp
    3312:	8b 43 04             	mov    0x4(%ebx),%eax
    3315:	50                   	push   %eax
    3316:	e8 a5 a6 00 00       	call   d9c0 <devman_remove_function@plt>
    331b:	83 c4 10             	add    $0x10,%esp
    331e:	85 c0                	test   %eax,%eax
    3320:	74 06                	je     3328 <ddf_fun_unbind+0x28>
    3322:	8b 5d fc             	mov    -0x4(%ebp),%ebx
    3325:	c9                   	leave  
    3326:	c3                   	ret    
    3327:	90                   	nop
    3328:	83 ec 0c             	sub    $0xc,%esp
    332b:	89 45 f4             	mov    %eax,-0xc(%ebp)
    332e:	68 bc 0e 01 00       	push   $0x10ebc
    3333:	e8 98 a9 00 00       	call   dcd0 <fibril_mutex_lock@plt>
    3338:	8b 4b 2c             	mov    0x2c(%ebx),%ecx
    333b:	83 c4 10             	add    $0x10,%esp
    333e:	8b 45 f4             	mov    -0xc(%ebp),%eax
    3341:	85 c9                	test   %ecx,%ecx
    3343:	74 0f                	je     3354 <ddf_fun_unbind+0x54>
    3345:	8b 53 30             	mov    0x30(%ebx),%edx
    3348:	85 d2                	test   %edx,%edx
    334a:	74 08                	je     3354 <ddf_fun_unbind+0x54>
    334c:	89 0a                	mov    %ecx,(%edx)
    334e:	8b 4b 2c             	mov    0x2c(%ebx),%ecx
    3351:	89 51 04             	mov    %edx,0x4(%ecx)
    3354:	83 ec 0c             	sub    $0xc,%esp
    3357:	c7 43 2c 00 00 00 00 	movl   $0x0,0x2c(%ebx)
    335e:	c7 43 30 00 00 00 00 	movl   $0x0,0x30(%ebx)
    3365:	89 45 f4             	mov    %eax,-0xc(%ebp)
    3368:	68 bc 0e 01 00       	push   $0x10ebc
    336d:	e8 9e a6 00 00       	call   da10 <fibril_mutex_unlock@plt>
    3372:	c6 03 00             	movb   $0x0,(%ebx)
    3375:	8b 45 f4             	mov    -0xc(%ebp),%eax
    3378:	83 c4 10             	add    $0x10,%esp
    337b:	8b 5d fc             	mov    -0x4(%ebp),%ebx
    337e:	c9                   	leave  
    337f:	c3                   	ret    
    3380:	52                   	push   %edx
    3381:	68 2e 03 00 00       	push   $0x32e
    3386:	68 08 ba 00 00       	push   $0xba08
    338b:	68 d7 ba 00 00       	push   $0xbad7
    3390:	e8 db a5 00 00       	call   d970 <assert_abort@plt>
    3395:	8d 74 26 00          	lea    0x0(%esi,%eiz,1),%esi
    3399:	8d bc 27 00 00 00 00 	lea    0x0(%edi,%eiz,1),%edi

000033a0 <ddf_fun_online>:
    33a0:	55                   	push   %ebp
    33a1:	89 e5                	mov    %esp,%ebp
    33a3:	83 ec 08             	sub    $0x8,%esp
    33a6:	8b 45 08             	mov    0x8(%ebp),%eax
    33a9:	80 38 00             	cmpb   $0x0,(%eax)
    33ac:	74 0c                	je     33ba <ddf_fun_online+0x1a>
    33ae:	8b 40 04             	mov    0x4(%eax),%eax
    33b1:	89 45 08             	mov    %eax,0x8(%ebp)
    33b4:	c9                   	leave  
    33b5:	e9 96 a4 00 00       	jmp    d850 <devman_drv_fun_online@plt>
    33ba:	50                   	push   %eax
    33bb:	68 43 03 00 00       	push   $0x343
    33c0:	68 08 ba 00 00       	push   $0xba08
    33c5:	68 d7 ba 00 00       	push   $0xbad7
    33ca:	e8 a1 a5 00 00       	call   d970 <assert_abort@plt>
    33cf:	90                   	nop

000033d0 <ddf_fun_offline>:
    33d0:	55                   	push   %ebp
    33d1:	89 e5                	mov    %esp,%ebp
    33d3:	83 ec 08             	sub    $0x8,%esp
    33d6:	8b 45 08             	mov    0x8(%ebp),%eax
    33d9:	80 38 00             	cmpb   $0x0,(%eax)
    33dc:	74 0c                	je     33ea <ddf_fun_offline+0x1a>
    33de:	8b 40 04             	mov    0x4(%eax),%eax
    33e1:	89 45 08             	mov    %eax,0x8(%ebp)
    33e4:	c9                   	leave  
    33e5:	e9 a6 a6 00 00       	jmp    da90 <devman_drv_fun_offline@plt>
    33ea:	50                   	push   %eax
    33eb:	68 55 03 00 00       	push   $0x355
    33f0:	68 08 ba 00 00       	push   $0xba08
    33f5:	68 d7 ba 00 00       	push   $0xbad7
    33fa:	e8 71 a5 00 00       	call   d970 <assert_abort@plt>
    33ff:	90                   	nop

00003400 <ddf_fun_add_match_id>:
    3400:	55                   	push   %ebp
    3401:	89 e5                	mov    %esp,%ebp
    3403:	57                   	push   %edi
    3404:	56                   	push   %esi
    3405:	53                   	push   %ebx
    3406:	83 ec 0c             	sub    $0xc,%esp
    3409:	8b 5d 08             	mov    0x8(%ebp),%ebx
    340c:	8b 75 10             	mov    0x10(%ebp),%esi
    340f:	80 3b 00             	cmpb   $0x0,(%ebx)
    3412:	0f 85 89 00 00 00    	jne    34a1 <ddf_fun_add_match_id+0xa1>
    3418:	83 7b 10 01          	cmpl   $0x1,0x10(%ebx)
    341c:	75 6e                	jne    348c <ddf_fun_add_match_id+0x8c>
    341e:	83 ec 0c             	sub    $0xc,%esp
    3421:	6a 10                	push   $0x10
    3423:	e8 78 a4 00 00       	call   d8a0 <malloc@plt>
    3428:	83 c4 0c             	add    $0xc,%esp
    342b:	89 c7                	mov    %eax,%edi
    342d:	6a 10                	push   $0x10
    342f:	6a 00                	push   $0x0
    3431:	50                   	push   %eax
    3432:	e8 a9 a6 00 00       	call   dae0 <memset@plt>
    3437:	8b 55 0c             	mov    0xc(%ebp),%edx
    343a:	58                   	pop    %eax
    343b:	52                   	push   %edx
    343c:	e8 ef a5 00 00       	call   da30 <str_dup@plt>
    3441:	8d 53 18             	lea    0x18(%ebx),%edx
    3444:	89 47 08             	mov    %eax,0x8(%edi)
    3447:	8b 43 1c             	mov    0x1c(%ebx),%eax
    344a:	83 c4 10             	add    $0x10,%esp
    344d:	89 77 0c             	mov    %esi,0xc(%edi)
    3450:	39 c2                	cmp    %eax,%edx
    3452:	74 18                	je     346c <ddf_fun_add_match_id+0x6c>
    3454:	39 70 0c             	cmp    %esi,0xc(%eax)
    3457:	73 0c                	jae    3465 <ddf_fun_add_match_id+0x65>
    3459:	eb 2d                	jmp    3488 <ddf_fun_add_match_id+0x88>
    345b:	90                   	nop
    345c:	8d 74 26 00          	lea    0x0(%esi,%eiz,1),%esi
    3460:	3b 70 0c             	cmp    0xc(%eax),%esi
    3463:	77 23                	ja     3488 <ddf_fun_add_match_id+0x88>
    3465:	8b 40 04             	mov    0x4(%eax),%eax
    3468:	39 c2                	cmp    %eax,%edx
    346a:	75 f4                	jne    3460 <ddf_fun_add_match_id+0x60>
    346c:	8b 02                	mov    (%edx),%eax
    346e:	89 57 04             	mov    %edx,0x4(%edi)
    3471:	89 07                	mov    %eax,(%edi)
    3473:	8b 02                	mov    (%edx),%eax
    3475:	89 78 04             	mov    %edi,0x4(%eax)
    3478:	89 3a                	mov    %edi,(%edx)
    347a:	8d 65 f4             	lea    -0xc(%ebp),%esp
    347d:	31 c0                	xor    %eax,%eax
    347f:	5b                   	pop    %ebx
    3480:	5e                   	pop    %esi
    3481:	5f                   	pop    %edi
    3482:	5d                   	pop    %ebp
    3483:	c3                   	ret    
    3484:	8d 74 26 00          	lea    0x0(%esi,%eiz,1),%esi
    3488:	89 c2                	mov    %eax,%edx
    348a:	eb e0                	jmp    346c <ddf_fun_add_match_id+0x6c>
    348c:	51                   	push   %ecx
    348d:	68 6f 03 00 00       	push   $0x36f
    3492:	68 08 ba 00 00       	push   $0xba08
    3497:	68 ea ba 00 00       	push   $0xbaea
    349c:	e8 cf a4 00 00       	call   d970 <assert_abort@plt>
    34a1:	53                   	push   %ebx
    34a2:	68 6e 03 00 00       	push   $0x36e
    34a7:	68 08 ba 00 00       	push   $0xba08
    34ac:	68 87 ba 00 00       	push   $0xba87
    34b1:	e8 ba a4 00 00       	call   d970 <assert_abort@plt>
    34b6:	8d 76 00             	lea    0x0(%esi),%esi
    34b9:	8d bc 27 00 00 00 00 	lea    0x0(%edi,%eiz,1),%edi

000034c0 <ddf_fun_set_ops>:
    34c0:	55                   	push   %ebp
    34c1:	89 e5                	mov    %esp,%ebp
    34c3:	83 ec 08             	sub    $0x8,%esp
    34c6:	8b 45 08             	mov    0x8(%ebp),%eax
    34c9:	8b 48 28             	mov    0x28(%eax),%ecx
    34cc:	85 c9                	test   %ecx,%ecx
    34ce:	75 08                	jne    34d8 <ddf_fun_set_ops+0x18>
    34d0:	8b 55 0c             	mov    0xc(%ebp),%edx
    34d3:	89 50 24             	mov    %edx,0x24(%eax)
    34d6:	c9                   	leave  
    34d7:	c3                   	ret    
    34d8:	50                   	push   %eax
    34d9:	68 7f 03 00 00       	push   $0x37f
    34de:	68 08 ba 00 00       	push   $0xba08
    34e3:	68 02 bb 00 00       	push   $0xbb02
    34e8:	e8 83 a4 00 00       	call   d970 <assert_abort@plt>
    34ed:	8d 76 00             	lea    0x0(%esi),%esi

000034f0 <ddf_fun_set_conn_handler>:
    34f0:	55                   	push   %ebp
    34f1:	89 e5                	mov    %esp,%ebp
    34f3:	83 ec 08             	sub    $0x8,%esp
    34f6:	8b 45 08             	mov    0x8(%ebp),%eax
    34f9:	8b 48 24             	mov    0x24(%eax),%ecx
    34fc:	85 c9                	test   %ecx,%ecx
    34fe:	75 08                	jne    3508 <ddf_fun_set_conn_handler+0x18>
    3500:	8b 55 0c             	mov    0xc(%ebp),%edx
    3503:	89 50 28             	mov    %edx,0x28(%eax)
    3506:	c9                   	leave  
    3507:	c3                   	ret    
    3508:	50                   	push   %eax
    3509:	68 89 03 00 00       	push   $0x389
    350e:	68 08 ba 00 00       	push   $0xba08
    3513:	68 1c bb 00 00       	push   $0xbb1c
    3518:	e8 53 a4 00 00       	call   d970 <assert_abort@plt>
    351d:	8d 76 00             	lea    0x0(%esi),%esi

00003520 <ddf_fun_add_to_category>:
    3520:	55                   	push   %ebp
    3521:	89 e5                	mov    %esp,%ebp
    3523:	83 ec 08             	sub    $0x8,%esp
    3526:	8b 45 08             	mov    0x8(%ebp),%eax
    3529:	8b 55 0c             	mov    0xc(%ebp),%edx
    352c:	80 38 00             	cmpb   $0x0,(%eax)
    352f:	74 15                	je     3546 <ddf_fun_add_to_category+0x26>
    3531:	83 78 10 02          	cmpl   $0x2,0x10(%eax)
    3535:	75 24                	jne    355b <ddf_fun_add_to_category+0x3b>
    3537:	89 55 0c             	mov    %edx,0xc(%ebp)
    353a:	8b 40 04             	mov    0x4(%eax),%eax
    353d:	89 45 08             	mov    %eax,0x8(%ebp)
    3540:	c9                   	leave  
    3541:	e9 6a a3 00 00       	jmp    d8b0 <devman_add_device_to_category@plt>
    3546:	52                   	push   %edx
    3547:	68 9c 03 00 00       	push   $0x39c
    354c:	68 08 ba 00 00       	push   $0xba08
    3551:	68 d7 ba 00 00       	push   $0xbad7
    3556:	e8 15 a4 00 00       	call   d970 <assert_abort@plt>
    355b:	50                   	push   %eax
    355c:	68 9d 03 00 00       	push   $0x39d
    3561:	68 08 ba 00 00       	push   $0xba08
    3566:	68 2d bb 00 00       	push   $0xbb2d
    356b:	e8 00 a4 00 00       	call   d970 <assert_abort@plt>

00003570 <ddf_driver_main>:
    3570:	55                   	push   %ebp
    3571:	89 e5                	mov    %esp,%ebp
    3573:	56                   	push   %esi
    3574:	53                   	push   %ebx
    3575:	83 ec 10             	sub    $0x10,%esp
    3578:	8d 75 f4             	lea    -0xc(%ebp),%esi
    357b:	8b 45 08             	mov    0x8(%ebp),%eax
    357e:	56                   	push   %esi
    357f:	a3 88 10 01 00       	mov    %eax,0x11088
    3584:	6a 00                	push   $0x0
    3586:	68 d0 28 00 00       	push   $0x28d0
    358b:	68 41 26 9b c9       	push   $0xc99b2641
    3590:	e8 6b a6 00 00       	call   dc00 <async_create_port@plt>
    3595:	83 c4 10             	add    $0x10,%esp
    3598:	89 c3                	mov    %eax,%ebx
    359a:	85 c0                	test   %eax,%eax
    359c:	74 0a                	je     35a8 <ddf_driver_main+0x38>
    359e:	8d 65 f8             	lea    -0x8(%ebp),%esp
    35a1:	89 d8                	mov    %ebx,%eax
    35a3:	5b                   	pop    %ebx
    35a4:	5e                   	pop    %esi
    35a5:	5d                   	pop    %ebp
    35a6:	c3                   	ret    
    35a7:	90                   	nop
    35a8:	56                   	push   %esi
    35a9:	6a 00                	push   $0x0
    35ab:	68 f0 28 00 00       	push   $0x28f0
    35b0:	68 41 26 9b db       	push   $0xdb9b2641
    35b5:	e8 46 a6 00 00       	call   dc00 <async_create_port@plt>
    35ba:	83 c4 10             	add    $0x10,%esp
    35bd:	89 c3                	mov    %eax,%ebx
    35bf:	85 c0                	test   %eax,%eax
    35c1:	75 db                	jne    359e <ddf_driver_main+0x2e>
    35c3:	51                   	push   %ecx
    35c4:	51                   	push   %ecx
    35c5:	6a 00                	push   $0x0
    35c7:	68 e0 28 00 00       	push   $0x28e0
    35cc:	e8 bf a6 00 00       	call   dc90 <async_set_fallback_port_handler@plt>
    35d1:	a1 88 10 01 00       	mov    0x11088,%eax
    35d6:	8b 30                	mov    (%eax),%esi
    35d8:	5b                   	pop    %ebx
    35d9:	56                   	push   %esi
    35da:	e8 f1 a4 00 00       	call   dad0 <devman_driver_register@plt>
    35df:	83 c4 10             	add    $0x10,%esp
    35e2:	89 c3                	mov    %eax,%ebx
    35e4:	85 c0                	test   %eax,%eax
    35e6:	74 30                	je     3618 <ddf_driver_main+0xa8>
    35e8:	b8 47 bb 00 00       	mov    $0xbb47,%eax
    35ed:	83 fb f7             	cmp    $0xfffffff7,%ebx
    35f0:	74 0c                	je     35fe <ddf_driver_main+0x8e>
    35f2:	83 ec 0c             	sub    $0xc,%esp
    35f5:	53                   	push   %ebx
    35f6:	e8 b5 a5 00 00       	call   dbb0 <str_error@plt>
    35fb:	83 c4 10             	add    $0x10,%esp
    35fe:	52                   	push   %edx
    35ff:	52                   	push   %edx
    3600:	50                   	push   %eax
    3601:	68 d4 bc 00 00       	push   $0xbcd4
    3606:	e8 a5 a1 00 00       	call   d7b0 <printf@plt>
    360b:	83 c4 10             	add    $0x10,%esp
    360e:	8d 65 f8             	lea    -0x8(%ebp),%esp
    3611:	89 d8                	mov    %ebx,%eax
    3613:	5b                   	pop    %ebx
    3614:	5e                   	pop    %esi
    3615:	5d                   	pop    %ebp
    3616:	c3                   	ret    
    3617:	90                   	nop
    3618:	83 ec 0c             	sub    $0xc,%esp
    361b:	6a 00                	push   $0x0
    361d:	e8 4e a1 00 00       	call   d770 <task_retval@plt>
    3622:	83 c4 10             	add    $0x10,%esp
    3625:	89 c3                	mov    %eax,%ebx
    3627:	85 c0                	test   %eax,%eax
    3629:	0f 85 6f ff ff ff    	jne    359e <ddf_driver_main+0x2e>
    362f:	83 c8 ff             	or     $0xffffffff,%eax
    3632:	f0 0f c1 05 64 10 01 	lock xadd %eax,0x11064
    3639:	00 
    363a:	48                   	dec    %eax
    363b:	78 12                	js     364f <ddf_driver_main+0xdf>
    363d:	83 ec 0c             	sub    $0xc,%esp
    3640:	6a 03                	push   $0x3
    3642:	e8 19 a6 00 00       	call   dc60 <fibril_switch@plt>
    3647:	83 c4 10             	add    $0x10,%esp
    364a:	e9 4f ff ff ff       	jmp    359e <ddf_driver_main+0x2e>
    364f:	50                   	push   %eax
    3650:	6a 0b                	push   $0xb
    3652:	6a 00                	push   $0x0
    3654:	6a 00                	push   $0x0
    3656:	6a 00                	push   $0x0
    3658:	6a 00                	push   $0x0
    365a:	6a 00                	push   $0x0
    365c:	68 64 10 01 00       	push   $0x11064
    3661:	ff 15 60 10 01 00    	call   *0x11060
    3667:	83 c4 20             	add    $0x20,%esp
    366a:	eb d1                	jmp    363d <ddf_driver_main+0xcd>
    366c:	66 90                	xchg   %ax,%ax
    366e:	66 90                	xchg   %ax,%ax

00003670 <get_remote_iface>:
    3670:	55                   	push   %ebp
    3671:	89 e5                	mov    %esp,%ebp
    3673:	83 ec 08             	sub    $0x8,%esp
    3676:	8b 45 08             	mov    0x8(%ebp),%eax
    3679:	83 f8 0e             	cmp    $0xe,%eax
    367c:	77 09                	ja     3687 <get_remote_iface+0x17>
    367e:	8b 04 85 40 bd 00 00 	mov    0xbd40(,%eax,4),%eax
    3685:	c9                   	leave  
    3686:	c3                   	ret    
    3687:	50                   	push   %eax
    3688:	6a 4f                	push   $0x4f
    368a:	68 24 bd 00 00       	push   $0xbd24
    368f:	68 19 ba 00 00       	push   $0xba19
    3694:	e8 d7 a2 00 00       	call   d970 <assert_abort@plt>
    3699:	8d b4 26 00 00 00 00 	lea    0x0(%esi,%eiz,1),%esi

000036a0 <get_remote_method>:
    36a0:	55                   	push   %ebp
    36a1:	89 e5                	mov    %esp,%ebp
    36a3:	8b 55 08             	mov    0x8(%ebp),%edx
    36a6:	8b 45 0c             	mov    0xc(%ebp),%eax
    36a9:	39 02                	cmp    %eax,(%edx)
    36ab:	76 0b                	jbe    36b8 <get_remote_method+0x18>
    36ad:	8b 52 04             	mov    0x4(%edx),%edx
    36b0:	5d                   	pop    %ebp
    36b1:	8b 04 82             	mov    (%edx,%eax,4),%eax
    36b4:	c3                   	ret    
    36b5:	8d 76 00             	lea    0x0(%esi),%esi
    36b8:	31 c0                	xor    %eax,%eax
    36ba:	5d                   	pop    %ebp
    36bb:	c3                   	ret    
    36bc:	8d 74 26 00          	lea    0x0(%esi,%eiz,1),%esi

000036c0 <is_valid_iface_idx>:
    36c0:	55                   	push   %ebp
    36c1:	89 e5                	mov    %esp,%ebp
    36c3:	83 7d 08 0e          	cmpl   $0xe,0x8(%ebp)
    36c7:	5d                   	pop    %ebp
    36c8:	0f 96 c0             	setbe  %al
    36cb:	c3                   	ret    
    36cc:	66 90                	xchg   %ax,%ax
    36ce:	66 90                	xchg   %ax,%ax

000036d0 <register_interrupt_handler>:
    36d0:	55                   	push   %ebp
    36d1:	89 e5                	mov    %esp,%ebp
    36d3:	83 ec 14             	sub    $0x14,%esp
    36d6:	8b 45 08             	mov    0x8(%ebp),%eax
    36d9:	8b 55 14             	mov    0x14(%ebp),%edx
    36dc:	8b 4d 10             	mov    0x10(%ebp),%ecx
    36df:	52                   	push   %edx
    36e0:	50                   	push   %eax
    36e1:	51                   	push   %ecx
    36e2:	8b 00                	mov    (%eax),%eax
    36e4:	50                   	push   %eax
    36e5:	8b 45 0c             	mov    0xc(%ebp),%eax
    36e8:	50                   	push   %eax
    36e9:	e8 f2 a1 00 00       	call   d8e0 <async_irq_subscribe@plt>
    36ee:	c9                   	leave  
    36ef:	c3                   	ret    

000036f0 <unregister_interrupt_handler>:
    36f0:	55                   	push   %ebp
    36f1:	89 e5                	mov    %esp,%ebp
    36f3:	8b 55 08             	mov    0x8(%ebp),%edx
    36f6:	8b 45 0c             	mov    0xc(%ebp),%eax
    36f9:	8b 12                	mov    (%edx),%edx
    36fb:	89 45 08             	mov    %eax,0x8(%ebp)
    36fe:	89 55 0c             	mov    %edx,0xc(%ebp)
    3701:	5d                   	pop    %ebp
    3702:	e9 79 a1 00 00       	jmp    d880 <async_irq_unsubscribe@plt>
    3707:	66 90                	xchg   %ax,%ax
    3709:	66 90                	xchg   %ax,%ax
    370b:	66 90                	xchg   %ax,%ax
    370d:	66 90                	xchg   %ax,%ax
    370f:	90                   	nop

00003710 <ddf_log_init>:
    3710:	55                   	push   %ebp
    3711:	89 e5                	mov    %esp,%ebp
    3713:	5d                   	pop    %ebp
    3714:	e9 f7 a0 00 00       	jmp    d810 <log_init@plt>
    3719:	8d b4 26 00 00 00 00 	lea    0x0(%esi,%eiz,1),%esi

00003720 <ddf_msg>:
    3720:	55                   	push   %ebp
    3721:	89 e5                	mov    %esp,%ebp
    3723:	83 ec 08             	sub    $0x8,%esp
    3726:	8d 45 10             	lea    0x10(%ebp),%eax
    3729:	8b 55 0c             	mov    0xc(%ebp),%edx
    372c:	8b 4d 08             	mov    0x8(%ebp),%ecx
    372f:	50                   	push   %eax
    3730:	52                   	push   %edx
    3731:	51                   	push   %ecx
    3732:	6a ff                	push   $0xffffffff
    3734:	e8 07 a2 00 00       	call   d940 <log_msgv@plt>
    3739:	83 c4 10             	add    $0x10,%esp
    373c:	c9                   	leave  
    373d:	c3                   	ret    
    373e:	66 90                	xchg   %ax,%ax

00003740 <remote_audio_mixer_set_item_level>:
    3740:	55                   	push   %ebp
    3741:	89 e5                	mov    %esp,%ebp
    3743:	53                   	push   %ebx
    3744:	51                   	push   %ecx
    3745:	8b 45 0c             	mov    0xc(%ebp),%eax
    3748:	8b 4d 08             	mov    0x8(%ebp),%ecx
    374b:	8b 5d 10             	mov    0x10(%ebp),%ebx
    374e:	8b 55 14             	mov    0x14(%ebp),%edx
    3751:	8b 40 0c             	mov    0xc(%eax),%eax
    3754:	85 c0                	test   %eax,%eax
    3756:	74 20                	je     3778 <remote_audio_mixer_set_item_level+0x38>
    3758:	83 ec 04             	sub    $0x4,%esp
    375b:	ff 72 0c             	pushl  0xc(%edx)
    375e:	8b 52 08             	mov    0x8(%edx),%edx
    3761:	52                   	push   %edx
    3762:	51                   	push   %ecx
    3763:	ff d0                	call   *%eax
    3765:	89 5d 08             	mov    %ebx,0x8(%ebp)
    3768:	83 c4 10             	add    $0x10,%esp
    376b:	8b 5d fc             	mov    -0x4(%ebp),%ebx
    376e:	89 45 0c             	mov    %eax,0xc(%ebp)
    3771:	c9                   	leave  
    3772:	e9 89 a1 00 00       	jmp    d900 <async_answer_0@plt>
    3777:	90                   	nop
    3778:	89 5d 08             	mov    %ebx,0x8(%ebp)
    377b:	8b 5d fc             	mov    -0x4(%ebp),%ebx
    377e:	c7 45 0c f5 ff ff ff 	movl   $0xfffffff5,0xc(%ebp)
    3785:	c9                   	leave  
    3786:	e9 75 a1 00 00       	jmp    d900 <async_answer_0@plt>
    378b:	90                   	nop
    378c:	8d 74 26 00          	lea    0x0(%esi,%eiz,1),%esi

00003790 <remote_audio_mixer_get_item_level>:
    3790:	55                   	push   %ebp
    3791:	89 e5                	mov    %esp,%ebp
    3793:	83 ec 18             	sub    $0x18,%esp
    3796:	8b 45 0c             	mov    0xc(%ebp),%eax
    3799:	8b 40 08             	mov    0x8(%eax),%eax
    379c:	85 c0                	test   %eax,%eax
    379e:	74 30                	je     37d0 <remote_audio_mixer_get_item_level+0x40>
    37a0:	8b 55 14             	mov    0x14(%ebp),%edx
    37a3:	c7 45 f4 00 00 00 00 	movl   $0x0,-0xc(%ebp)
    37aa:	8b 52 08             	mov    0x8(%edx),%edx
    37ad:	51                   	push   %ecx
    37ae:	8d 4d f4             	lea    -0xc(%ebp),%ecx
    37b1:	51                   	push   %ecx
    37b2:	52                   	push   %edx
    37b3:	8b 55 08             	mov    0x8(%ebp),%edx
    37b6:	52                   	push   %edx
    37b7:	ff d0                	call   *%eax
    37b9:	83 c4 0c             	add    $0xc,%esp
    37bc:	8b 4d f4             	mov    -0xc(%ebp),%ecx
    37bf:	51                   	push   %ecx
    37c0:	50                   	push   %eax
    37c1:	8b 45 10             	mov    0x10(%ebp),%eax
    37c4:	50                   	push   %eax
    37c5:	e8 c6 a3 00 00       	call   db90 <async_answer_1@plt>
    37ca:	83 c4 10             	add    $0x10,%esp
    37cd:	c9                   	leave  
    37ce:	c3                   	ret    
    37cf:	90                   	nop
    37d0:	50                   	push   %eax
    37d1:	50                   	push   %eax
    37d2:	8b 45 10             	mov    0x10(%ebp),%eax
    37d5:	6a f5                	push   $0xfffffff5
    37d7:	50                   	push   %eax
    37d8:	e8 23 a1 00 00       	call   d900 <async_answer_0@plt>
    37dd:	83 c4 10             	add    $0x10,%esp
    37e0:	c9                   	leave  
    37e1:	c3                   	ret    
    37e2:	8d b4 26 00 00 00 00 	lea    0x0(%esi,%eiz,1),%esi
    37e9:	8d bc 27 00 00 00 00 	lea    0x0(%edi,%eiz,1),%edi

000037f0 <remote_audio_mixer_get_item_info>:
    37f0:	55                   	push   %ebp
    37f1:	89 e5                	mov    %esp,%ebp
    37f3:	56                   	push   %esi
    37f4:	53                   	push   %ebx
    37f5:	83 ec 10             	sub    $0x10,%esp
    37f8:	8b 45 0c             	mov    0xc(%ebp),%eax
    37fb:	8b 40 04             	mov    0x4(%eax),%eax
    37fe:	85 c0                	test   %eax,%eax
    3800:	0f 84 c2 00 00 00    	je     38c8 <remote_audio_mixer_get_item_info+0xd8>
    3806:	8b 55 14             	mov    0x14(%ebp),%edx
    3809:	8d 4d ec             	lea    -0x14(%ebp),%ecx
    380c:	c7 45 e8 00 00 00 00 	movl   $0x0,-0x18(%ebp)
    3813:	c7 45 ec 00 00 00 00 	movl   $0x0,-0x14(%ebp)
    381a:	8b 52 08             	mov    0x8(%edx),%edx
    381d:	51                   	push   %ecx
    381e:	8d 4d e8             	lea    -0x18(%ebp),%ecx
    3821:	51                   	push   %ecx
    3822:	8b 4d 08             	mov    0x8(%ebp),%ecx
    3825:	52                   	push   %edx
    3826:	51                   	push   %ecx
    3827:	ff d0                	call   *%eax
    3829:	83 c4 10             	add    $0x10,%esp
    382c:	89 c6                	mov    %eax,%esi
    382e:	8b 45 e8             	mov    -0x18(%ebp),%eax
    3831:	85 c0                	test   %eax,%eax
    3833:	74 5b                	je     3890 <remote_audio_mixer_get_item_info+0xa0>
    3835:	83 ec 0c             	sub    $0xc,%esp
    3838:	50                   	push   %eax
    3839:	e8 32 a3 00 00       	call   db70 <str_size@plt>
    383e:	8b 55 10             	mov    0x10(%ebp),%edx
    3841:	8d 58 01             	lea    0x1(%eax),%ebx
    3844:	8b 45 ec             	mov    -0x14(%ebp),%eax
    3847:	50                   	push   %eax
    3848:	53                   	push   %ebx
    3849:	56                   	push   %esi
    384a:	52                   	push   %edx
    384b:	e8 b0 a1 00 00       	call   da00 <async_answer_2@plt>
    3850:	83 c4 20             	add    $0x20,%esp
    3853:	85 f6                	test   %esi,%esi
    3855:	75 2f                	jne    3886 <remote_audio_mixer_get_item_info+0x96>
    3857:	85 db                	test   %ebx,%ebx
    3859:	74 2b                	je     3886 <remote_audio_mixer_get_item_info+0x96>
    385b:	50                   	push   %eax
    385c:	50                   	push   %eax
    385d:	8d 45 f0             	lea    -0x10(%ebp),%eax
    3860:	50                   	push   %eax
    3861:	8d 45 f4             	lea    -0xc(%ebp),%eax
    3864:	50                   	push   %eax
    3865:	e8 86 a2 00 00       	call   daf0 <async_data_read_receive@plt>
    386a:	83 c4 10             	add    $0x10,%esp
    386d:	84 c0                	test   %al,%al
    386f:	74 6f                	je     38e0 <remote_audio_mixer_get_item_info+0xf0>
    3871:	3b 5d f0             	cmp    -0x10(%ebp),%ebx
    3874:	74 3a                	je     38b0 <remote_audio_mixer_get_item_info+0xc0>
    3876:	50                   	push   %eax
    3877:	50                   	push   %eax
    3878:	8b 45 f4             	mov    -0xc(%ebp),%eax
    387b:	6a fd                	push   $0xfffffffd
    387d:	50                   	push   %eax
    387e:	e8 7d a0 00 00       	call   d900 <async_answer_0@plt>
    3883:	83 c4 10             	add    $0x10,%esp
    3886:	8d 65 f8             	lea    -0x8(%ebp),%esp
    3889:	5b                   	pop    %ebx
    388a:	5e                   	pop    %esi
    388b:	5d                   	pop    %ebp
    388c:	c3                   	ret    
    388d:	8d 76 00             	lea    0x0(%esi),%esi
    3890:	8b 45 ec             	mov    -0x14(%ebp),%eax
    3893:	8b 55 10             	mov    0x10(%ebp),%edx
    3896:	50                   	push   %eax
    3897:	6a 00                	push   $0x0
    3899:	56                   	push   %esi
    389a:	52                   	push   %edx
    389b:	e8 60 a1 00 00       	call   da00 <async_answer_2@plt>
    38a0:	83 c4 10             	add    $0x10,%esp
    38a3:	8d 65 f8             	lea    -0x8(%ebp),%esp
    38a6:	5b                   	pop    %ebx
    38a7:	5e                   	pop    %esi
    38a8:	5d                   	pop    %ebp
    38a9:	c3                   	ret    
    38aa:	8d b6 00 00 00 00    	lea    0x0(%esi),%esi
    38b0:	8b 75 f4             	mov    -0xc(%ebp),%esi
    38b3:	51                   	push   %ecx
    38b4:	53                   	push   %ebx
    38b5:	8b 5d e8             	mov    -0x18(%ebp),%ebx
    38b8:	53                   	push   %ebx
    38b9:	56                   	push   %esi
    38ba:	e8 a1 9f 00 00       	call   d860 <async_data_read_finalize@plt>
    38bf:	83 c4 10             	add    $0x10,%esp
    38c2:	eb c2                	jmp    3886 <remote_audio_mixer_get_item_info+0x96>
    38c4:	8d 74 26 00          	lea    0x0(%esi,%eiz,1),%esi
    38c8:	8b 75 10             	mov    0x10(%ebp),%esi
    38cb:	53                   	push   %ebx
    38cc:	53                   	push   %ebx
    38cd:	6a f5                	push   $0xfffffff5
    38cf:	56                   	push   %esi
    38d0:	e8 2b a0 00 00       	call   d900 <async_answer_0@plt>
    38d5:	83 c4 10             	add    $0x10,%esp
    38d8:	8d 65 f8             	lea    -0x8(%ebp),%esp
    38db:	5b                   	pop    %ebx
    38dc:	5e                   	pop    %esi
    38dd:	5d                   	pop    %ebp
    38de:	c3                   	ret    
    38df:	90                   	nop
    38e0:	50                   	push   %eax
    38e1:	50                   	push   %eax
    38e2:	8b 45 f4             	mov    -0xc(%ebp),%eax
    38e5:	6a f8                	push   $0xfffffff8
    38e7:	50                   	push   %eax
    38e8:	e8 13 a0 00 00       	call   d900 <async_answer_0@plt>
    38ed:	83 c4 10             	add    $0x10,%esp
    38f0:	eb 94                	jmp    3886 <remote_audio_mixer_get_item_info+0x96>
    38f2:	8d b4 26 00 00 00 00 	lea    0x0(%esi,%eiz,1),%esi
    38f9:	8d bc 27 00 00 00 00 	lea    0x0(%edi,%eiz,1),%edi

00003900 <remote_audio_mixer_get_info>:
    3900:	55                   	push   %ebp
    3901:	89 e5                	mov    %esp,%ebp
    3903:	56                   	push   %esi
    3904:	53                   	push   %ebx
    3905:	83 ec 10             	sub    $0x10,%esp
    3908:	8b 45 0c             	mov    0xc(%ebp),%eax
    390b:	8b 00                	mov    (%eax),%eax
    390d:	85 c0                	test   %eax,%eax
    390f:	0f 84 bb 00 00 00    	je     39d0 <remote_audio_mixer_get_info+0xd0>
    3915:	8d 55 ec             	lea    -0x14(%ebp),%edx
    3918:	8b 5d 08             	mov    0x8(%ebp),%ebx
    391b:	c7 45 e8 00 00 00 00 	movl   $0x0,-0x18(%ebp)
    3922:	c7 45 ec 00 00 00 00 	movl   $0x0,-0x14(%ebp)
    3929:	51                   	push   %ecx
    392a:	52                   	push   %edx
    392b:	8d 55 e8             	lea    -0x18(%ebp),%edx
    392e:	52                   	push   %edx
    392f:	53                   	push   %ebx
    3930:	ff d0                	call   *%eax
    3932:	83 c4 10             	add    $0x10,%esp
    3935:	89 c6                	mov    %eax,%esi
    3937:	8b 45 e8             	mov    -0x18(%ebp),%eax
    393a:	85 c0                	test   %eax,%eax
    393c:	74 5a                	je     3998 <remote_audio_mixer_get_info+0x98>
    393e:	83 ec 0c             	sub    $0xc,%esp
    3941:	50                   	push   %eax
    3942:	e8 29 a2 00 00       	call   db70 <str_size@plt>
    3947:	8b 55 10             	mov    0x10(%ebp),%edx
    394a:	8d 58 01             	lea    0x1(%eax),%ebx
    394d:	8b 45 ec             	mov    -0x14(%ebp),%eax
    3950:	50                   	push   %eax
    3951:	53                   	push   %ebx
    3952:	56                   	push   %esi
    3953:	52                   	push   %edx
    3954:	e8 a7 a0 00 00       	call   da00 <async_answer_2@plt>
    3959:	83 c4 20             	add    $0x20,%esp
    395c:	85 f6                	test   %esi,%esi
    395e:	75 2f                	jne    398f <remote_audio_mixer_get_info+0x8f>
    3960:	85 db                	test   %ebx,%ebx
    3962:	74 2b                	je     398f <remote_audio_mixer_get_info+0x8f>
    3964:	50                   	push   %eax
    3965:	50                   	push   %eax
    3966:	8d 45 f0             	lea    -0x10(%ebp),%eax
    3969:	50                   	push   %eax
    396a:	8d 45 f4             	lea    -0xc(%ebp),%eax
    396d:	50                   	push   %eax
    396e:	e8 7d a1 00 00       	call   daf0 <async_data_read_receive@plt>
    3973:	83 c4 10             	add    $0x10,%esp
    3976:	84 c0                	test   %al,%al
    3978:	74 6e                	je     39e8 <remote_audio_mixer_get_info+0xe8>
    397a:	3b 5d f0             	cmp    -0x10(%ebp),%ebx
    397d:	74 39                	je     39b8 <remote_audio_mixer_get_info+0xb8>
    397f:	50                   	push   %eax
    3980:	50                   	push   %eax
    3981:	8b 45 f4             	mov    -0xc(%ebp),%eax
    3984:	6a fd                	push   $0xfffffffd
    3986:	50                   	push   %eax
    3987:	e8 74 9f 00 00       	call   d900 <async_answer_0@plt>
    398c:	83 c4 10             	add    $0x10,%esp
    398f:	8d 65 f8             	lea    -0x8(%ebp),%esp
    3992:	5b                   	pop    %ebx
    3993:	5e                   	pop    %esi
    3994:	5d                   	pop    %ebp
    3995:	c3                   	ret    
    3996:	66 90                	xchg   %ax,%ax
    3998:	8b 45 ec             	mov    -0x14(%ebp),%eax
    399b:	8b 55 10             	mov    0x10(%ebp),%edx
    399e:	50                   	push   %eax
    399f:	6a 00                	push   $0x0
    39a1:	56                   	push   %esi
    39a2:	52                   	push   %edx
    39a3:	e8 58 a0 00 00       	call   da00 <async_answer_2@plt>
    39a8:	83 c4 10             	add    $0x10,%esp
    39ab:	8d 65 f8             	lea    -0x8(%ebp),%esp
    39ae:	5b                   	pop    %ebx
    39af:	5e                   	pop    %esi
    39b0:	5d                   	pop    %ebp
    39b1:	c3                   	ret    
    39b2:	8d b6 00 00 00 00    	lea    0x0(%esi),%esi
    39b8:	8b 75 f4             	mov    -0xc(%ebp),%esi
    39bb:	51                   	push   %ecx
    39bc:	53                   	push   %ebx
    39bd:	8b 5d e8             	mov    -0x18(%ebp),%ebx
    39c0:	53                   	push   %ebx
    39c1:	56                   	push   %esi
    39c2:	e8 99 9e 00 00       	call   d860 <async_data_read_finalize@plt>
    39c7:	83 c4 10             	add    $0x10,%esp
    39ca:	eb c3                	jmp    398f <remote_audio_mixer_get_info+0x8f>
    39cc:	8d 74 26 00          	lea    0x0(%esi,%eiz,1),%esi
    39d0:	8b 45 10             	mov    0x10(%ebp),%eax
    39d3:	56                   	push   %esi
    39d4:	56                   	push   %esi
    39d5:	6a f5                	push   $0xfffffff5
    39d7:	50                   	push   %eax
    39d8:	e8 23 9f 00 00       	call   d900 <async_answer_0@plt>
    39dd:	83 c4 10             	add    $0x10,%esp
    39e0:	8d 65 f8             	lea    -0x8(%ebp),%esp
    39e3:	5b                   	pop    %ebx
    39e4:	5e                   	pop    %esi
    39e5:	5d                   	pop    %ebp
    39e6:	c3                   	ret    
    39e7:	90                   	nop
    39e8:	50                   	push   %eax
    39e9:	50                   	push   %eax
    39ea:	8b 45 f4             	mov    -0xc(%ebp),%eax
    39ed:	6a f8                	push   $0xfffffff8
    39ef:	50                   	push   %eax
    39f0:	e8 0b 9f 00 00       	call   d900 <async_answer_0@plt>
    39f5:	83 c4 10             	add    $0x10,%esp
    39f8:	eb 95                	jmp    398f <remote_audio_mixer_get_info+0x8f>
    39fa:	8d b6 00 00 00 00    	lea    0x0(%esi),%esi

00003a00 <audio_mixer_get_info>:
    3a00:	55                   	push   %ebp
    3a01:	89 e5                	mov    %esp,%ebp
    3a03:	57                   	push   %edi
    3a04:	56                   	push   %esi
    3a05:	53                   	push   %ebx
    3a06:	83 ec 2c             	sub    $0x2c,%esp
    3a09:	8b 75 08             	mov    0x8(%ebp),%esi
    3a0c:	85 f6                	test   %esi,%esi
    3a0e:	0f 84 bc 00 00 00    	je     3ad0 <audio_mixer_get_info+0xd0>
    3a14:	50                   	push   %eax
    3a15:	8d 45 e4             	lea    -0x1c(%ebp),%eax
    3a18:	6a 00                	push   $0x0
    3a1a:	6a 00                	push   $0x0
    3a1c:	6a 00                	push   $0x0
    3a1e:	50                   	push   %eax
    3a1f:	8d 45 e0             	lea    -0x20(%ebp),%eax
    3a22:	50                   	push   %eax
    3a23:	6a 00                	push   $0x0
    3a25:	6a 00                	push   $0x0
    3a27:	6a 00                	push   $0x0
    3a29:	6a 00                	push   $0x0
    3a2b:	68 03 04 00 00       	push   $0x403
    3a30:	56                   	push   %esi
    3a31:	e8 ba 9e 00 00       	call   d8f0 <async_req_fast@plt>
    3a36:	83 c4 30             	add    $0x30,%esp
    3a39:	89 c3                	mov    %eax,%ebx
    3a3b:	85 c0                	test   %eax,%eax
    3a3d:	8b 45 0c             	mov    0xc(%ebp),%eax
    3a40:	0f 94 c2             	sete   %dl
    3a43:	85 c0                	test   %eax,%eax
    3a45:	74 04                	je     3a4b <audio_mixer_get_info+0x4b>
    3a47:	84 d2                	test   %dl,%dl
    3a49:	75 1d                	jne    3a68 <audio_mixer_get_info+0x68>
    3a4b:	8b 45 10             	mov    0x10(%ebp),%eax
    3a4e:	85 c0                	test   %eax,%eax
    3a50:	74 57                	je     3aa9 <audio_mixer_get_info+0xa9>
    3a52:	84 d2                	test   %dl,%dl
    3a54:	74 53                	je     3aa9 <audio_mixer_get_info+0xa9>
    3a56:	8b 4d 10             	mov    0x10(%ebp),%ecx
    3a59:	8b 45 e4             	mov    -0x1c(%ebp),%eax
    3a5c:	89 01                	mov    %eax,(%ecx)
    3a5e:	89 d8                	mov    %ebx,%eax
    3a60:	8d 65 f4             	lea    -0xc(%ebp),%esp
    3a63:	5b                   	pop    %ebx
    3a64:	5e                   	pop    %esi
    3a65:	5f                   	pop    %edi
    3a66:	5d                   	pop    %ebp
    3a67:	c3                   	ret    
    3a68:	8b 45 e0             	mov    -0x20(%ebp),%eax
    3a6b:	88 55 d4             	mov    %dl,-0x2c(%ebp)
    3a6e:	57                   	push   %edi
    3a6f:	57                   	push   %edi
    3a70:	50                   	push   %eax
    3a71:	6a 01                	push   $0x1
    3a73:	e8 18 9f 00 00       	call   d990 <calloc@plt>
    3a78:	83 c4 10             	add    $0x10,%esp
    3a7b:	89 c7                	mov    %eax,%edi
    3a7d:	85 c0                	test   %eax,%eax
    3a7f:	8a 55 d4             	mov    -0x2c(%ebp),%dl
    3a82:	74 53                	je     3ad7 <audio_mixer_get_info+0xd7>
    3a84:	8b 4d e0             	mov    -0x20(%ebp),%ecx
    3a87:	88 55 d4             	mov    %dl,-0x2c(%ebp)
    3a8a:	52                   	push   %edx
    3a8b:	51                   	push   %ecx
    3a8c:	50                   	push   %eax
    3a8d:	56                   	push   %esi
    3a8e:	e8 6d a0 00 00       	call   db00 <async_data_read_start@plt>
    3a93:	83 c4 10             	add    $0x10,%esp
    3a96:	8a 55 d4             	mov    -0x2c(%ebp),%dl
    3a99:	85 c0                	test   %eax,%eax
    3a9b:	75 1b                	jne    3ab8 <audio_mixer_get_info+0xb8>
    3a9d:	8b 45 0c             	mov    0xc(%ebp),%eax
    3aa0:	89 38                	mov    %edi,(%eax)
    3aa2:	8b 45 10             	mov    0x10(%ebp),%eax
    3aa5:	85 c0                	test   %eax,%eax
    3aa7:	75 a9                	jne    3a52 <audio_mixer_get_info+0x52>
    3aa9:	8d 65 f4             	lea    -0xc(%ebp),%esp
    3aac:	89 d8                	mov    %ebx,%eax
    3aae:	5b                   	pop    %ebx
    3aaf:	5e                   	pop    %esi
    3ab0:	5f                   	pop    %edi
    3ab1:	5d                   	pop    %ebp
    3ab2:	c3                   	ret    
    3ab3:	90                   	nop
    3ab4:	8d 74 26 00          	lea    0x0(%esi,%eiz,1),%esi
    3ab8:	83 ec 0c             	sub    $0xc,%esp
    3abb:	89 45 d4             	mov    %eax,-0x2c(%ebp)
    3abe:	57                   	push   %edi
    3abf:	e8 ec a1 00 00       	call   dcb0 <free@plt>
    3ac4:	83 c4 10             	add    $0x10,%esp
    3ac7:	8b 45 d4             	mov    -0x2c(%ebp),%eax
    3aca:	eb 94                	jmp    3a60 <audio_mixer_get_info+0x60>
    3acc:	8d 74 26 00          	lea    0x0(%esi,%eiz,1),%esi
    3ad0:	b8 f2 ff ff ff       	mov    $0xfffffff2,%eax
    3ad5:	eb 89                	jmp    3a60 <audio_mixer_get_info+0x60>
    3ad7:	53                   	push   %ebx
    3ad8:	6a 00                	push   $0x0
    3ada:	6a ff                	push   $0xffffffff
    3adc:	56                   	push   %esi
    3add:	e8 1e a0 00 00       	call   db00 <async_data_read_start@plt>
    3ae2:	83 c4 10             	add    $0x10,%esp
    3ae5:	b8 fe ff ff ff       	mov    $0xfffffffe,%eax
    3aea:	e9 71 ff ff ff       	jmp    3a60 <audio_mixer_get_info+0x60>
    3aef:	90                   	nop

00003af0 <audio_mixer_get_item_info>:
    3af0:	55                   	push   %ebp
    3af1:	89 e5                	mov    %esp,%ebp
    3af3:	57                   	push   %edi
    3af4:	56                   	push   %esi
    3af5:	53                   	push   %ebx
    3af6:	83 ec 2c             	sub    $0x2c,%esp
    3af9:	8b 75 08             	mov    0x8(%ebp),%esi
    3afc:	85 f6                	test   %esi,%esi
    3afe:	0f 84 c4 00 00 00    	je     3bc8 <audio_mixer_get_item_info+0xd8>
    3b04:	50                   	push   %eax
    3b05:	8d 45 e4             	lea    -0x1c(%ebp),%eax
    3b08:	6a 00                	push   $0x0
    3b0a:	6a 00                	push   $0x0
    3b0c:	6a 00                	push   $0x0
    3b0e:	50                   	push   %eax
    3b0f:	8d 45 e0             	lea    -0x20(%ebp),%eax
    3b12:	50                   	push   %eax
    3b13:	8b 45 0c             	mov    0xc(%ebp),%eax
    3b16:	6a 00                	push   $0x0
    3b18:	6a 00                	push   $0x0
    3b1a:	50                   	push   %eax
    3b1b:	6a 01                	push   $0x1
    3b1d:	68 03 04 00 00       	push   $0x403
    3b22:	56                   	push   %esi
    3b23:	e8 c8 9d 00 00       	call   d8f0 <async_req_fast@plt>
    3b28:	83 c4 30             	add    $0x30,%esp
    3b2b:	89 c3                	mov    %eax,%ebx
    3b2d:	85 c0                	test   %eax,%eax
    3b2f:	8b 45 10             	mov    0x10(%ebp),%eax
    3b32:	0f 94 c2             	sete   %dl
    3b35:	85 c0                	test   %eax,%eax
    3b37:	74 04                	je     3b3d <audio_mixer_get_item_info+0x4d>
    3b39:	84 d2                	test   %dl,%dl
    3b3b:	75 23                	jne    3b60 <audio_mixer_get_item_info+0x70>
    3b3d:	8b 45 14             	mov    0x14(%ebp),%eax
    3b40:	85 c0                	test   %eax,%eax
    3b42:	74 5d                	je     3ba1 <audio_mixer_get_item_info+0xb1>
    3b44:	84 d2                	test   %dl,%dl
    3b46:	74 59                	je     3ba1 <audio_mixer_get_item_info+0xb1>
    3b48:	8b 4d 14             	mov    0x14(%ebp),%ecx
    3b4b:	8b 45 e4             	mov    -0x1c(%ebp),%eax
    3b4e:	89 01                	mov    %eax,(%ecx)
    3b50:	89 d8                	mov    %ebx,%eax
    3b52:	8d 65 f4             	lea    -0xc(%ebp),%esp
    3b55:	5b                   	pop    %ebx
    3b56:	5e                   	pop    %esi
    3b57:	5f                   	pop    %edi
    3b58:	5d                   	pop    %ebp
    3b59:	c3                   	ret    
    3b5a:	8d b6 00 00 00 00    	lea    0x0(%esi),%esi
    3b60:	8b 45 e0             	mov    -0x20(%ebp),%eax
    3b63:	88 55 d4             	mov    %dl,-0x2c(%ebp)
    3b66:	57                   	push   %edi
    3b67:	57                   	push   %edi
    3b68:	50                   	push   %eax
    3b69:	6a 01                	push   $0x1
    3b6b:	e8 20 9e 00 00       	call   d990 <calloc@plt>
    3b70:	83 c4 10             	add    $0x10,%esp
    3b73:	89 c7                	mov    %eax,%edi
    3b75:	85 c0                	test   %eax,%eax
    3b77:	8a 55 d4             	mov    -0x2c(%ebp),%dl
    3b7a:	74 53                	je     3bcf <audio_mixer_get_item_info+0xdf>
    3b7c:	8b 4d e0             	mov    -0x20(%ebp),%ecx
    3b7f:	88 55 d4             	mov    %dl,-0x2c(%ebp)
    3b82:	52                   	push   %edx
    3b83:	51                   	push   %ecx
    3b84:	50                   	push   %eax
    3b85:	56                   	push   %esi
    3b86:	e8 75 9f 00 00       	call   db00 <async_data_read_start@plt>
    3b8b:	83 c4 10             	add    $0x10,%esp
    3b8e:	8a 55 d4             	mov    -0x2c(%ebp),%dl
    3b91:	85 c0                	test   %eax,%eax
    3b93:	75 1b                	jne    3bb0 <audio_mixer_get_item_info+0xc0>
    3b95:	8b 45 10             	mov    0x10(%ebp),%eax
    3b98:	89 38                	mov    %edi,(%eax)
    3b9a:	8b 45 14             	mov    0x14(%ebp),%eax
    3b9d:	85 c0                	test   %eax,%eax
    3b9f:	75 a3                	jne    3b44 <audio_mixer_get_item_info+0x54>
    3ba1:	8d 65 f4             	lea    -0xc(%ebp),%esp
    3ba4:	89 d8                	mov    %ebx,%eax
    3ba6:	5b                   	pop    %ebx
    3ba7:	5e                   	pop    %esi
    3ba8:	5f                   	pop    %edi
    3ba9:	5d                   	pop    %ebp
    3baa:	c3                   	ret    
    3bab:	90                   	nop
    3bac:	8d 74 26 00          	lea    0x0(%esi,%eiz,1),%esi
    3bb0:	83 ec 0c             	sub    $0xc,%esp
    3bb3:	89 45 d4             	mov    %eax,-0x2c(%ebp)
    3bb6:	57                   	push   %edi
    3bb7:	e8 f4 a0 00 00       	call   dcb0 <free@plt>
    3bbc:	83 c4 10             	add    $0x10,%esp
    3bbf:	8b 45 d4             	mov    -0x2c(%ebp),%eax
    3bc2:	eb 8e                	jmp    3b52 <audio_mixer_get_item_info+0x62>
    3bc4:	8d 74 26 00          	lea    0x0(%esi,%eiz,1),%esi
    3bc8:	b8 f2 ff ff ff       	mov    $0xfffffff2,%eax
    3bcd:	eb 83                	jmp    3b52 <audio_mixer_get_item_info+0x62>
    3bcf:	53                   	push   %ebx
    3bd0:	6a 00                	push   $0x0
    3bd2:	6a ff                	push   $0xffffffff
    3bd4:	56                   	push   %esi
    3bd5:	e8 26 9f 00 00       	call   db00 <async_data_read_start@plt>
    3bda:	83 c4 10             	add    $0x10,%esp
    3bdd:	b8 fe ff ff ff       	mov    $0xfffffffe,%eax
    3be2:	e9 6b ff ff ff       	jmp    3b52 <audio_mixer_get_item_info+0x62>
    3be7:	89 f6                	mov    %esi,%esi
    3be9:	8d bc 27 00 00 00 00 	lea    0x0(%edi,%eiz,1),%edi

00003bf0 <audio_mixer_set_item_level>:
    3bf0:	55                   	push   %ebp
    3bf1:	89 e5                	mov    %esp,%ebp
    3bf3:	83 ec 08             	sub    $0x8,%esp
    3bf6:	8b 45 08             	mov    0x8(%ebp),%eax
    3bf9:	85 c0                	test   %eax,%eax
    3bfb:	74 2b                	je     3c28 <audio_mixer_set_item_level+0x38>
    3bfd:	8b 4d 10             	mov    0x10(%ebp),%ecx
    3c00:	52                   	push   %edx
    3c01:	8b 55 0c             	mov    0xc(%ebp),%edx
    3c04:	6a 00                	push   $0x0
    3c06:	6a 00                	push   $0x0
    3c08:	6a 00                	push   $0x0
    3c0a:	6a 00                	push   $0x0
    3c0c:	6a 00                	push   $0x0
    3c0e:	6a 00                	push   $0x0
    3c10:	51                   	push   %ecx
    3c11:	52                   	push   %edx
    3c12:	6a 02                	push   $0x2
    3c14:	68 03 04 00 00       	push   $0x403
    3c19:	50                   	push   %eax
    3c1a:	e8 d1 9c 00 00       	call   d8f0 <async_req_fast@plt>
    3c1f:	83 c4 30             	add    $0x30,%esp
    3c22:	c9                   	leave  
    3c23:	c3                   	ret    
    3c24:	8d 74 26 00          	lea    0x0(%esi,%eiz,1),%esi
    3c28:	b8 f2 ff ff ff       	mov    $0xfffffff2,%eax
    3c2d:	c9                   	leave  
    3c2e:	c3                   	ret    
    3c2f:	90                   	nop

00003c30 <audio_mixer_get_item_level>:
    3c30:	55                   	push   %ebp
    3c31:	89 e5                	mov    %esp,%ebp
    3c33:	53                   	push   %ebx
    3c34:	83 ec 14             	sub    $0x14,%esp
    3c37:	8b 45 08             	mov    0x8(%ebp),%eax
    3c3a:	8b 5d 10             	mov    0x10(%ebp),%ebx
    3c3d:	85 c0                	test   %eax,%eax
    3c3f:	74 37                	je     3c78 <audio_mixer_get_item_level+0x48>
    3c41:	8b 4d 0c             	mov    0xc(%ebp),%ecx
    3c44:	52                   	push   %edx
    3c45:	8d 55 f4             	lea    -0xc(%ebp),%edx
    3c48:	6a 00                	push   $0x0
    3c4a:	6a 00                	push   $0x0
    3c4c:	6a 00                	push   $0x0
    3c4e:	6a 00                	push   $0x0
    3c50:	52                   	push   %edx
    3c51:	6a 00                	push   $0x0
    3c53:	6a 00                	push   $0x0
    3c55:	51                   	push   %ecx
    3c56:	6a 03                	push   $0x3
    3c58:	68 03 04 00 00       	push   $0x403
    3c5d:	50                   	push   %eax
    3c5e:	e8 8d 9c 00 00       	call   d8f0 <async_req_fast@plt>
    3c63:	83 c4 30             	add    $0x30,%esp
    3c66:	85 c0                	test   %eax,%eax
    3c68:	75 09                	jne    3c73 <audio_mixer_get_item_level+0x43>
    3c6a:	85 db                	test   %ebx,%ebx
    3c6c:	74 05                	je     3c73 <audio_mixer_get_item_level+0x43>
    3c6e:	8b 55 f4             	mov    -0xc(%ebp),%edx
    3c71:	89 13                	mov    %edx,(%ebx)
    3c73:	8b 5d fc             	mov    -0x4(%ebp),%ebx
    3c76:	c9                   	leave  
    3c77:	c3                   	ret    
    3c78:	b8 f2 ff ff ff       	mov    $0xfffffff2,%eax
    3c7d:	eb f4                	jmp    3c73 <audio_mixer_get_item_level+0x43>
    3c7f:	90                   	nop

00003c80 <remote_audio_pcm_stop_capture>:
    3c80:	55                   	push   %ebp
    3c81:	89 e5                	mov    %esp,%ebp
    3c83:	53                   	push   %ebx
    3c84:	50                   	push   %eax
    3c85:	8b 45 14             	mov    0x14(%ebp),%eax
    3c88:	8b 4d 08             	mov    0x8(%ebp),%ecx
    3c8b:	8b 5d 10             	mov    0x10(%ebp),%ebx
    3c8e:	8b 50 08             	mov    0x8(%eax),%edx
    3c91:	85 d2                	test   %edx,%edx
    3c93:	8b 55 0c             	mov    0xc(%ebp),%edx
    3c96:	0f 95 c0             	setne  %al
    3c99:	8b 52 2c             	mov    0x2c(%edx),%edx
    3c9c:	85 d2                	test   %edx,%edx
    3c9e:	74 20                	je     3cc0 <remote_audio_pcm_stop_capture+0x40>
    3ca0:	83 ec 08             	sub    $0x8,%esp
    3ca3:	25 ff 00 00 00       	and    $0xff,%eax
    3ca8:	50                   	push   %eax
    3ca9:	51                   	push   %ecx
    3caa:	ff d2                	call   *%edx
    3cac:	89 5d 08             	mov    %ebx,0x8(%ebp)
    3caf:	83 c4 10             	add    $0x10,%esp
    3cb2:	8b 5d fc             	mov    -0x4(%ebp),%ebx
    3cb5:	89 45 0c             	mov    %eax,0xc(%ebp)
    3cb8:	c9                   	leave  
    3cb9:	e9 42 9c 00 00       	jmp    d900 <async_answer_0@plt>
    3cbe:	66 90                	xchg   %ax,%ax
    3cc0:	89 5d 08             	mov    %ebx,0x8(%ebp)
    3cc3:	b8 f5 ff ff ff       	mov    $0xfffffff5,%eax
    3cc8:	8b 5d fc             	mov    -0x4(%ebp),%ebx
    3ccb:	89 45 0c             	mov    %eax,0xc(%ebp)
    3cce:	c9                   	leave  
    3ccf:	e9 2c 9c 00 00       	jmp    d900 <async_answer_0@plt>
    3cd4:	8d b6 00 00 00 00    	lea    0x0(%esi),%esi
    3cda:	8d bf 00 00 00 00    	lea    0x0(%edi),%edi

00003ce0 <remote_audio_pcm_start_capture>:
    3ce0:	55                   	push   %ebp
    3ce1:	89 e5                	mov    %esp,%ebp
    3ce3:	57                   	push   %edi
    3ce4:	56                   	push   %esi
    3ce5:	53                   	push   %ebx
    3ce6:	83 ec 0c             	sub    $0xc,%esp
    3ce9:	8b 55 14             	mov    0x14(%ebp),%edx
    3cec:	8b 7d 0c             	mov    0xc(%ebp),%edi
    3cef:	8b 4d 08             	mov    0x8(%ebp),%ecx
    3cf2:	8b 5d 10             	mov    0x10(%ebp),%ebx
    3cf5:	8b 42 10             	mov    0x10(%edx),%eax
    3cf8:	8b 7f 28             	mov    0x28(%edi),%edi
    3cfb:	89 c6                	mov    %eax,%esi
    3cfd:	25 ff ff 00 00       	and    $0xffff,%eax
    3d02:	c1 ee 10             	shr    $0x10,%esi
    3d05:	85 ff                	test   %edi,%edi
    3d07:	74 27                	je     3d30 <remote_audio_pcm_start_capture+0x50>
    3d09:	83 ec 0c             	sub    $0xc,%esp
    3d0c:	50                   	push   %eax
    3d0d:	8b 42 0c             	mov    0xc(%edx),%eax
    3d10:	50                   	push   %eax
    3d11:	56                   	push   %esi
    3d12:	8b 52 08             	mov    0x8(%edx),%edx
    3d15:	52                   	push   %edx
    3d16:	51                   	push   %ecx
    3d17:	ff d7                	call   *%edi
    3d19:	83 c4 20             	add    $0x20,%esp
    3d1c:	89 5d 08             	mov    %ebx,0x8(%ebp)
    3d1f:	89 45 0c             	mov    %eax,0xc(%ebp)
    3d22:	8d 65 f4             	lea    -0xc(%ebp),%esp
    3d25:	5b                   	pop    %ebx
    3d26:	5e                   	pop    %esi
    3d27:	5f                   	pop    %edi
    3d28:	5d                   	pop    %ebp
    3d29:	e9 d2 9b 00 00       	jmp    d900 <async_answer_0@plt>
    3d2e:	66 90                	xchg   %ax,%ax
    3d30:	b8 f5 ff ff ff       	mov    $0xfffffff5,%eax
    3d35:	eb e5                	jmp    3d1c <remote_audio_pcm_start_capture+0x3c>
    3d37:	89 f6                	mov    %esi,%esi
    3d39:	8d bc 27 00 00 00 00 	lea    0x0(%edi,%eiz,1),%edi

00003d40 <remote_audio_pcm_stop_playback>:
    3d40:	55                   	push   %ebp
    3d41:	89 e5                	mov    %esp,%ebp
    3d43:	53                   	push   %ebx
    3d44:	50                   	push   %eax
    3d45:	8b 45 14             	mov    0x14(%ebp),%eax
    3d48:	8b 4d 08             	mov    0x8(%ebp),%ecx
    3d4b:	8b 5d 10             	mov    0x10(%ebp),%ebx
    3d4e:	8b 50 08             	mov    0x8(%eax),%edx
    3d51:	85 d2                	test   %edx,%edx
    3d53:	8b 55 0c             	mov    0xc(%ebp),%edx
    3d56:	0f 95 c0             	setne  %al
    3d59:	8b 52 24             	mov    0x24(%edx),%edx
    3d5c:	85 d2                	test   %edx,%edx
    3d5e:	74 20                	je     3d80 <remote_audio_pcm_stop_playback+0x40>
    3d60:	83 ec 08             	sub    $0x8,%esp
    3d63:	25 ff 00 00 00       	and    $0xff,%eax
    3d68:	50                   	push   %eax
    3d69:	51                   	push   %ecx
    3d6a:	ff d2                	call   *%edx
    3d6c:	89 5d 08             	mov    %ebx,0x8(%ebp)
    3d6f:	83 c4 10             	add    $0x10,%esp
    3d72:	8b 5d fc             	mov    -0x4(%ebp),%ebx
    3d75:	89 45 0c             	mov    %eax,0xc(%ebp)
    3d78:	c9                   	leave  
    3d79:	e9 82 9b 00 00       	jmp    d900 <async_answer_0@plt>
    3d7e:	66 90                	xchg   %ax,%ax
    3d80:	89 5d 08             	mov    %ebx,0x8(%ebp)
    3d83:	b8 f5 ff ff ff       	mov    $0xfffffff5,%eax
    3d88:	8b 5d fc             	mov    -0x4(%ebp),%ebx
    3d8b:	89 45 0c             	mov    %eax,0xc(%ebp)
    3d8e:	c9                   	leave  
    3d8f:	e9 6c 9b 00 00       	jmp    d900 <async_answer_0@plt>
    3d94:	8d b6 00 00 00 00    	lea    0x0(%esi),%esi
    3d9a:	8d bf 00 00 00 00    	lea    0x0(%edi),%edi

00003da0 <remote_audio_pcm_start_playback>:
    3da0:	55                   	push   %ebp
    3da1:	89 e5                	mov    %esp,%ebp
    3da3:	57                   	push   %edi
    3da4:	56                   	push   %esi
    3da5:	53                   	push   %ebx
    3da6:	83 ec 0c             	sub    $0xc,%esp
    3da9:	8b 4d 14             	mov    0x14(%ebp),%ecx
    3dac:	8b 7d 0c             	mov    0xc(%ebp),%edi
    3daf:	8b 75 08             	mov    0x8(%ebp),%esi
    3db2:	8b 5d 10             	mov    0x10(%ebp),%ebx
    3db5:	8b 41 10             	mov    0x10(%ecx),%eax
    3db8:	8b 7f 20             	mov    0x20(%edi),%edi
    3dbb:	89 c2                	mov    %eax,%edx
    3dbd:	25 ff ff 00 00       	and    $0xffff,%eax
    3dc2:	c1 ea 10             	shr    $0x10,%edx
    3dc5:	81 e2 ff 00 00 00    	and    $0xff,%edx
    3dcb:	85 ff                	test   %edi,%edi
    3dcd:	74 29                	je     3df8 <remote_audio_pcm_start_playback+0x58>
    3dcf:	83 ec 0c             	sub    $0xc,%esp
    3dd2:	50                   	push   %eax
    3dd3:	8b 41 0c             	mov    0xc(%ecx),%eax
    3dd6:	50                   	push   %eax
    3dd7:	52                   	push   %edx
    3dd8:	8b 51 08             	mov    0x8(%ecx),%edx
    3ddb:	52                   	push   %edx
    3ddc:	56                   	push   %esi
    3ddd:	ff d7                	call   *%edi
    3ddf:	83 c4 20             	add    $0x20,%esp
    3de2:	89 5d 08             	mov    %ebx,0x8(%ebp)
    3de5:	89 45 0c             	mov    %eax,0xc(%ebp)
    3de8:	8d 65 f4             	lea    -0xc(%ebp),%esp
    3deb:	5b                   	pop    %ebx
    3dec:	5e                   	pop    %esi
    3ded:	5f                   	pop    %edi
    3dee:	5d                   	pop    %ebp
    3def:	e9 0c 9b 00 00       	jmp    d900 <async_answer_0@plt>
    3df4:	8d 74 26 00          	lea    0x0(%esi,%eiz,1),%esi
    3df8:	b8 f5 ff ff ff       	mov    $0xfffffff5,%eax
    3dfd:	eb e3                	jmp    3de2 <remote_audio_pcm_start_playback+0x42>
    3dff:	90                   	nop

00003e00 <remote_audio_pcm_release_buffer>:
    3e00:	55                   	push   %ebp
    3e01:	89 e5                	mov    %esp,%ebp
    3e03:	53                   	push   %ebx
    3e04:	50                   	push   %eax
    3e05:	8b 45 0c             	mov    0xc(%ebp),%eax
    3e08:	8b 55 08             	mov    0x8(%ebp),%edx
    3e0b:	8b 5d 10             	mov    0x10(%ebp),%ebx
    3e0e:	8b 40 14             	mov    0x14(%eax),%eax
    3e11:	85 c0                	test   %eax,%eax
    3e13:	74 1b                	je     3e30 <remote_audio_pcm_release_buffer+0x30>
    3e15:	83 ec 0c             	sub    $0xc,%esp
    3e18:	52                   	push   %edx
    3e19:	ff d0                	call   *%eax
    3e1b:	89 5d 08             	mov    %ebx,0x8(%ebp)
    3e1e:	83 c4 10             	add    $0x10,%esp
    3e21:	8b 5d fc             	mov    -0x4(%ebp),%ebx
    3e24:	89 45 0c             	mov    %eax,0xc(%ebp)
    3e27:	c9                   	leave  
    3e28:	e9 d3 9a 00 00       	jmp    d900 <async_answer_0@plt>
    3e2d:	8d 76 00             	lea    0x0(%esi),%esi
    3e30:	89 5d 08             	mov    %ebx,0x8(%ebp)
    3e33:	b8 f5 ff ff ff       	mov    $0xfffffff5,%eax
    3e38:	8b 5d fc             	mov    -0x4(%ebp),%ebx
    3e3b:	89 45 0c             	mov    %eax,0xc(%ebp)
    3e3e:	c9                   	leave  
    3e3f:	e9 bc 9a 00 00       	jmp    d900 <async_answer_0@plt>
    3e44:	8d b6 00 00 00 00    	lea    0x0(%esi),%esi
    3e4a:	8d bf 00 00 00 00    	lea    0x0(%edi),%edi

00003e50 <remote_audio_pcm_events_unregister>:
    3e50:	55                   	push   %ebp
    3e51:	89 e5                	mov    %esp,%ebp
    3e53:	57                   	push   %edi
    3e54:	56                   	push   %esi
    3e55:	53                   	push   %ebx
    3e56:	83 ec 0c             	sub    $0xc,%esp
    3e59:	8b 5d 0c             	mov    0xc(%ebp),%ebx
    3e5c:	8b 75 08             	mov    0x8(%ebp),%esi
    3e5f:	8b 7d 10             	mov    0x10(%ebp),%edi
    3e62:	8b 43 1c             	mov    0x1c(%ebx),%eax
    3e65:	85 c0                	test   %eax,%eax
    3e67:	74 3f                	je     3ea8 <remote_audio_pcm_events_unregister+0x58>
    3e69:	8b 4b 18             	mov    0x18(%ebx),%ecx
    3e6c:	85 c9                	test   %ecx,%ecx
    3e6e:	74 38                	je     3ea8 <remote_audio_pcm_events_unregister+0x58>
    3e70:	83 ec 0c             	sub    $0xc,%esp
    3e73:	56                   	push   %esi
    3e74:	ff d0                	call   *%eax
    3e76:	83 c4 10             	add    $0x10,%esp
    3e79:	85 c0                	test   %eax,%eax
    3e7b:	74 14                	je     3e91 <remote_audio_pcm_events_unregister+0x41>
    3e7d:	83 ec 0c             	sub    $0xc,%esp
    3e80:	50                   	push   %eax
    3e81:	e8 3a 99 00 00       	call   d7c0 <async_hangup@plt>
    3e86:	58                   	pop    %eax
    3e87:	5a                   	pop    %edx
    3e88:	6a 00                	push   $0x0
    3e8a:	56                   	push   %esi
    3e8b:	ff 53 18             	call   *0x18(%ebx)
    3e8e:	83 c4 10             	add    $0x10,%esp
    3e91:	89 7d 08             	mov    %edi,0x8(%ebp)
    3e94:	c7 45 0c 00 00 00 00 	movl   $0x0,0xc(%ebp)
    3e9b:	8d 65 f4             	lea    -0xc(%ebp),%esp
    3e9e:	5b                   	pop    %ebx
    3e9f:	5e                   	pop    %esi
    3ea0:	5f                   	pop    %edi
    3ea1:	5d                   	pop    %ebp
    3ea2:	e9 59 9a 00 00       	jmp    d900 <async_answer_0@plt>
    3ea7:	90                   	nop
    3ea8:	89 7d 08             	mov    %edi,0x8(%ebp)
    3eab:	c7 45 0c f5 ff ff ff 	movl   $0xfffffff5,0xc(%ebp)
    3eb2:	8d 65 f4             	lea    -0xc(%ebp),%esp
    3eb5:	5b                   	pop    %ebx
    3eb6:	5e                   	pop    %esi
    3eb7:	5f                   	pop    %edi
    3eb8:	5d                   	pop    %ebp
    3eb9:	e9 42 9a 00 00       	jmp    d900 <async_answer_0@plt>
    3ebe:	66 90                	xchg   %ax,%ax

00003ec0 <remote_audio_pcm_get_buffer_pos>:
    3ec0:	55                   	push   %ebp
    3ec1:	89 e5                	mov    %esp,%ebp
    3ec3:	83 ec 18             	sub    $0x18,%esp
    3ec6:	8b 45 0c             	mov    0xc(%ebp),%eax
    3ec9:	c7 45 f4 00 00 00 00 	movl   $0x0,-0xc(%ebp)
    3ed0:	8b 40 0c             	mov    0xc(%eax),%eax
    3ed3:	85 c0                	test   %eax,%eax
    3ed5:	74 29                	je     3f00 <remote_audio_pcm_get_buffer_pos+0x40>
    3ed7:	8b 4d 08             	mov    0x8(%ebp),%ecx
    3eda:	52                   	push   %edx
    3edb:	52                   	push   %edx
    3edc:	8d 55 f4             	lea    -0xc(%ebp),%edx
    3edf:	52                   	push   %edx
    3ee0:	51                   	push   %ecx
    3ee1:	ff d0                	call   *%eax
    3ee3:	8b 55 f4             	mov    -0xc(%ebp),%edx
    3ee6:	83 c4 10             	add    $0x10,%esp
    3ee9:	51                   	push   %ecx
    3eea:	52                   	push   %edx
    3eeb:	50                   	push   %eax
    3eec:	8b 45 10             	mov    0x10(%ebp),%eax
    3eef:	50                   	push   %eax
    3ef0:	e8 9b 9c 00 00       	call   db90 <async_answer_1@plt>
    3ef5:	83 c4 10             	add    $0x10,%esp
    3ef8:	c9                   	leave  
    3ef9:	c3                   	ret    
    3efa:	8d b6 00 00 00 00    	lea    0x0(%esi),%esi
    3f00:	b8 f5 ff ff ff       	mov    $0xfffffff5,%eax
    3f05:	31 d2                	xor    %edx,%edx
    3f07:	eb e0                	jmp    3ee9 <remote_audio_pcm_get_buffer_pos+0x29>
    3f09:	8d b4 26 00 00 00 00 	lea    0x0(%esi,%eiz,1),%esi

00003f10 <remote_audio_pcm_query_caps>:
    3f10:	55                   	push   %ebp
    3f11:	89 e5                	mov    %esp,%ebp
    3f13:	53                   	push   %ebx
    3f14:	53                   	push   %ebx
    3f15:	8b 45 0c             	mov    0xc(%ebp),%eax
    3f18:	8b 55 08             	mov    0x8(%ebp),%edx
    3f1b:	8b 5d 10             	mov    0x10(%ebp),%ebx
    3f1e:	8b 4d 14             	mov    0x14(%ebp),%ecx
    3f21:	8b 40 08             	mov    0x8(%eax),%eax
    3f24:	85 c0                	test   %eax,%eax
    3f26:	74 28                	je     3f50 <remote_audio_pcm_query_caps+0x40>
    3f28:	83 ec 08             	sub    $0x8,%esp
    3f2b:	8b 49 08             	mov    0x8(%ecx),%ecx
    3f2e:	51                   	push   %ecx
    3f2f:	52                   	push   %edx
    3f30:	ff d0                	call   *%eax
    3f32:	89 5d 08             	mov    %ebx,0x8(%ebp)
    3f35:	83 c4 10             	add    $0x10,%esp
    3f38:	8b 5d fc             	mov    -0x4(%ebp),%ebx
    3f3b:	89 45 10             	mov    %eax,0x10(%ebp)
    3f3e:	c7 45 0c 00 00 00 00 	movl   $0x0,0xc(%ebp)
    3f45:	c9                   	leave  
    3f46:	e9 45 9c 00 00       	jmp    db90 <async_answer_1@plt>
    3f4b:	90                   	nop
    3f4c:	8d 74 26 00          	lea    0x0(%esi,%eiz,1),%esi
    3f50:	89 5d 08             	mov    %ebx,0x8(%ebp)
    3f53:	8b 5d fc             	mov    -0x4(%ebp),%ebx
    3f56:	c7 45 0c f5 ff ff ff 	movl   $0xfffffff5,0xc(%ebp)
    3f5d:	c9                   	leave  
    3f5e:	e9 9d 99 00 00       	jmp    d900 <async_answer_0@plt>
    3f63:	8d b6 00 00 00 00    	lea    0x0(%esi),%esi
    3f69:	8d bc 27 00 00 00 00 	lea    0x0(%edi,%eiz,1),%edi

00003f70 <remote_audio_pcm_get_buffer>:
    3f70:	55                   	push   %ebp
    3f71:	89 e5                	mov    %esp,%ebp
    3f73:	56                   	push   %esi
    3f74:	53                   	push   %ebx
    3f75:	83 ec 10             	sub    $0x10,%esp
    3f78:	8b 5d 0c             	mov    0xc(%ebp),%ebx
    3f7b:	8b 43 10             	mov    0x10(%ebx),%eax
    3f7e:	85 c0                	test   %eax,%eax
    3f80:	0f 84 d2 00 00 00    	je     4058 <remote_audio_pcm_get_buffer+0xe8>
    3f86:	8b 53 14             	mov    0x14(%ebx),%edx
    3f89:	85 d2                	test   %edx,%edx
    3f8b:	0f 84 c7 00 00 00    	je     4058 <remote_audio_pcm_get_buffer+0xe8>
    3f91:	8b 55 14             	mov    0x14(%ebp),%edx
    3f94:	c7 45 e8 00 00 00 00 	movl   $0x0,-0x18(%ebp)
    3f9b:	8b 52 08             	mov    0x8(%edx),%edx
    3f9e:	56                   	push   %esi
    3f9f:	89 55 ec             	mov    %edx,-0x14(%ebp)
    3fa2:	8d 55 ec             	lea    -0x14(%ebp),%edx
    3fa5:	52                   	push   %edx
    3fa6:	8d 55 e8             	lea    -0x18(%ebp),%edx
    3fa9:	52                   	push   %edx
    3faa:	8b 55 08             	mov    0x8(%ebp),%edx
    3fad:	52                   	push   %edx
    3fae:	ff d0                	call   *%eax
    3fb0:	83 c4 0c             	add    $0xc,%esp
    3fb3:	8b 4d ec             	mov    -0x14(%ebp),%ecx
    3fb6:	89 c6                	mov    %eax,%esi
    3fb8:	51                   	push   %ecx
    3fb9:	50                   	push   %eax
    3fba:	8b 45 10             	mov    0x10(%ebp),%eax
    3fbd:	50                   	push   %eax
    3fbe:	e8 cd 9b 00 00       	call   db90 <async_answer_1@plt>
    3fc3:	83 c4 10             	add    $0x10,%esp
    3fc6:	85 f6                	test   %esi,%esi
    3fc8:	74 0e                	je     3fd8 <remote_audio_pcm_get_buffer+0x68>
    3fca:	8d 65 f8             	lea    -0x8(%ebp),%esp
    3fcd:	5b                   	pop    %ebx
    3fce:	5e                   	pop    %esi
    3fcf:	5d                   	pop    %ebp
    3fd0:	c3                   	ret    
    3fd1:	8d b4 26 00 00 00 00 	lea    0x0(%esi,%eiz,1),%esi
    3fd8:	8b 4d ec             	mov    -0x14(%ebp),%ecx
    3fdb:	85 c9                	test   %ecx,%ecx
    3fdd:	74 eb                	je     3fca <remote_audio_pcm_get_buffer+0x5a>
    3fdf:	c7 45 f0 00 00 00 00 	movl   $0x0,-0x10(%ebp)
    3fe6:	56                   	push   %esi
    3fe7:	c7 45 f4 00 00 00 00 	movl   $0x0,-0xc(%ebp)
    3fee:	56                   	push   %esi
    3fef:	68 94 bd 00 00       	push   $0xbd94
    3ff4:	6a 05                	push   $0x5
    3ff6:	e8 25 f7 ff ff       	call   3720 <ddf_msg>
    3ffb:	58                   	pop    %eax
    3ffc:	8d 45 f0             	lea    -0x10(%ebp),%eax
    3fff:	5a                   	pop    %edx
    4000:	50                   	push   %eax
    4001:	8d 45 f4             	lea    -0xc(%ebp),%eax
    4004:	50                   	push   %eax
    4005:	e8 16 9b 00 00       	call   db20 <async_share_in_receive@plt>
    400a:	83 c4 10             	add    $0x10,%esp
    400d:	84 c0                	test   %al,%al
    400f:	74 5f                	je     4070 <remote_audio_pcm_get_buffer+0x100>
    4011:	50                   	push   %eax
    4012:	50                   	push   %eax
    4013:	68 58 bf 00 00       	push   $0xbf58
    4018:	6a 05                	push   $0x5
    401a:	e8 01 f7 ff ff       	call   3720 <ddf_msg>
    401f:	8b 45 ec             	mov    -0x14(%ebp),%eax
    4022:	83 c4 10             	add    $0x10,%esp
    4025:	39 45 f0             	cmp    %eax,-0x10(%ebp)
    4028:	74 76                	je     40a0 <remote_audio_pcm_get_buffer+0x130>
    402a:	50                   	push   %eax
    402b:	50                   	push   %eax
    402c:	68 78 bf 00 00       	push   $0xbf78
    4031:	6a 04                	push   $0x4
    4033:	e8 e8 f6 ff ff       	call   3720 <ddf_msg>
    4038:	8b 55 08             	mov    0x8(%ebp),%edx
    403b:	58                   	pop    %eax
    403c:	52                   	push   %edx
    403d:	ff 53 14             	call   *0x14(%ebx)
    4040:	8b 75 f4             	mov    -0xc(%ebp),%esi
    4043:	59                   	pop    %ecx
    4044:	5b                   	pop    %ebx
    4045:	6a fd                	push   $0xfffffffd
    4047:	56                   	push   %esi
    4048:	e8 b3 98 00 00       	call   d900 <async_answer_0@plt>
    404d:	83 c4 10             	add    $0x10,%esp
    4050:	e9 75 ff ff ff       	jmp    3fca <remote_audio_pcm_get_buffer+0x5a>
    4055:	8d 76 00             	lea    0x0(%esi),%esi
    4058:	50                   	push   %eax
    4059:	50                   	push   %eax
    405a:	8b 45 10             	mov    0x10(%ebp),%eax
    405d:	6a f5                	push   $0xfffffff5
    405f:	50                   	push   %eax
    4060:	e8 9b 98 00 00       	call   d900 <async_answer_0@plt>
    4065:	83 c4 10             	add    $0x10,%esp
    4068:	8d 65 f8             	lea    -0x8(%ebp),%esp
    406b:	5b                   	pop    %ebx
    406c:	5e                   	pop    %esi
    406d:	5d                   	pop    %ebp
    406e:	c3                   	ret    
    406f:	90                   	nop
    4070:	50                   	push   %eax
    4071:	50                   	push   %eax
    4072:	68 ad bd 00 00       	push   $0xbdad
    4077:	6a 04                	push   $0x4
    4079:	e8 a2 f6 ff ff       	call   3720 <ddf_msg>
    407e:	58                   	pop    %eax
    407f:	8b 45 08             	mov    0x8(%ebp),%eax
    4082:	50                   	push   %eax
    4083:	ff 53 14             	call   *0x14(%ebx)
    4086:	8b 4d f4             	mov    -0xc(%ebp),%ecx
    4089:	58                   	pop    %eax
    408a:	5a                   	pop    %edx
    408b:	6a f8                	push   $0xfffffff8
    408d:	51                   	push   %ecx
    408e:	e8 6d 98 00 00       	call   d900 <async_answer_0@plt>
    4093:	83 c4 10             	add    $0x10,%esp
    4096:	e9 2f ff ff ff       	jmp    3fca <remote_audio_pcm_get_buffer+0x5a>
    409b:	90                   	nop
    409c:	8d 74 26 00          	lea    0x0(%esi,%eiz,1),%esi
    40a0:	50                   	push   %eax
    40a1:	50                   	push   %eax
    40a2:	68 c9 bd 00 00       	push   $0xbdc9
    40a7:	6a 05                	push   $0x5
    40a9:	e8 72 f6 ff ff       	call   3720 <ddf_msg>
    40ae:	83 c4 0c             	add    $0xc,%esp
    40b1:	8b 45 e8             	mov    -0x18(%ebp),%eax
    40b4:	6a 03                	push   $0x3
    40b6:	50                   	push   %eax
    40b7:	8b 45 f4             	mov    -0xc(%ebp),%eax
    40ba:	50                   	push   %eax
    40bb:	e8 10 9b 00 00       	call   dbd0 <async_share_in_finalize@plt>
    40c0:	83 c4 10             	add    $0x10,%esp
    40c3:	85 c0                	test   %eax,%eax
    40c5:	74 1e                	je     40e5 <remote_audio_pcm_get_buffer+0x175>
    40c7:	51                   	push   %ecx
    40c8:	51                   	push   %ecx
    40c9:	68 e1 bd 00 00       	push   $0xbde1
    40ce:	6a 04                	push   $0x4
    40d0:	e8 4b f6 ff ff       	call   3720 <ddf_msg>
    40d5:	8b 45 08             	mov    0x8(%ebp),%eax
    40d8:	5e                   	pop    %esi
    40d9:	50                   	push   %eax
    40da:	ff 53 14             	call   *0x14(%ebx)
    40dd:	83 c4 10             	add    $0x10,%esp
    40e0:	e9 e5 fe ff ff       	jmp    3fca <remote_audio_pcm_get_buffer+0x5a>
    40e5:	8b 55 f0             	mov    -0x10(%ebp),%edx
    40e8:	50                   	push   %eax
    40e9:	52                   	push   %edx
    40ea:	68 f9 bd 00 00       	push   $0xbdf9
    40ef:	6a 05                	push   $0x5
    40f1:	e8 2a f6 ff ff       	call   3720 <ddf_msg>
    40f6:	83 c4 10             	add    $0x10,%esp
    40f9:	e9 cc fe ff ff       	jmp    3fca <remote_audio_pcm_get_buffer+0x5a>
    40fe:	66 90                	xchg   %ax,%ax

00004100 <remote_audio_pcm_test_format>:
    4100:	55                   	push   %ebp
    4101:	89 e5                	mov    %esp,%ebp
    4103:	53                   	push   %ebx
    4104:	83 ec 14             	sub    $0x14,%esp
    4107:	8b 45 14             	mov    0x14(%ebp),%eax
    410a:	8b 55 0c             	mov    0xc(%ebp),%edx
    410d:	8b 48 08             	mov    0x8(%eax),%ecx
    4110:	8b 58 0c             	mov    0xc(%eax),%ebx
    4113:	8b 52 04             	mov    0x4(%edx),%edx
    4116:	8b 40 10             	mov    0x10(%eax),%eax
    4119:	89 4d ec             	mov    %ecx,-0x14(%ebp)
    411c:	89 5d f0             	mov    %ebx,-0x10(%ebp)
    411f:	89 45 f4             	mov    %eax,-0xc(%ebp)
    4122:	85 d2                	test   %edx,%edx
    4124:	74 3a                	je     4160 <remote_audio_pcm_test_format+0x60>
    4126:	8d 45 f4             	lea    -0xc(%ebp),%eax
    4129:	8b 4d 08             	mov    0x8(%ebp),%ecx
    412c:	50                   	push   %eax
    412d:	8d 45 f0             	lea    -0x10(%ebp),%eax
    4130:	50                   	push   %eax
    4131:	8d 45 ec             	lea    -0x14(%ebp),%eax
    4134:	50                   	push   %eax
    4135:	51                   	push   %ecx
    4136:	ff d2                	call   *%edx
    4138:	8b 55 f4             	mov    -0xc(%ebp),%edx
    413b:	8b 5d f0             	mov    -0x10(%ebp),%ebx
    413e:	8b 4d ec             	mov    -0x14(%ebp),%ecx
    4141:	83 c4 10             	add    $0x10,%esp
    4144:	83 ec 0c             	sub    $0xc,%esp
    4147:	52                   	push   %edx
    4148:	53                   	push   %ebx
    4149:	51                   	push   %ecx
    414a:	50                   	push   %eax
    414b:	8b 45 10             	mov    0x10(%ebp),%eax
    414e:	50                   	push   %eax
    414f:	e8 8c 9a 00 00       	call   dbe0 <async_answer_3@plt>
    4154:	83 c4 20             	add    $0x20,%esp
    4157:	8b 5d fc             	mov    -0x4(%ebp),%ebx
    415a:	c9                   	leave  
    415b:	c3                   	ret    
    415c:	8d 74 26 00          	lea    0x0(%esi,%eiz,1),%esi
    4160:	89 c2                	mov    %eax,%edx
    4162:	b8 f5 ff ff ff       	mov    $0xfffffff5,%eax
    4167:	eb db                	jmp    4144 <remote_audio_pcm_test_format+0x44>
    4169:	8d b4 26 00 00 00 00 	lea    0x0(%esi,%eiz,1),%esi

00004170 <remote_audio_pcm_events_register>:
    4170:	55                   	push   %ebp
    4171:	89 e5                	mov    %esp,%ebp
    4173:	57                   	push   %edi
    4174:	56                   	push   %esi
    4175:	53                   	push   %ebx
    4176:	83 ec 3c             	sub    $0x3c,%esp
    4179:	8b 5d 0c             	mov    0xc(%ebp),%ebx
    417c:	8b 7b 1c             	mov    0x1c(%ebx),%edi
    417f:	85 ff                	test   %edi,%edi
    4181:	0f 84 91 00 00 00    	je     4218 <remote_audio_pcm_events_register+0xa8>
    4187:	8b 73 18             	mov    0x18(%ebx),%esi
    418a:	85 f6                	test   %esi,%esi
    418c:	0f 84 86 00 00 00    	je     4218 <remote_audio_pcm_events_register+0xa8>
    4192:	8b 75 10             	mov    0x10(%ebp),%esi
    4195:	51                   	push   %ecx
    4196:	51                   	push   %ecx
    4197:	6a 00                	push   $0x0
    4199:	56                   	push   %esi
    419a:	8d 75 c4             	lea    -0x3c(%ebp),%esi
    419d:	e8 5e 97 00 00       	call   d900 <async_answer_0@plt>
    41a2:	5f                   	pop    %edi
    41a3:	58                   	pop    %eax
    41a4:	6a 00                	push   $0x0
    41a6:	56                   	push   %esi
    41a7:	e8 b4 99 00 00       	call   db60 <async_get_call_timeout@plt>
    41ac:	89 c7                	mov    %eax,%edi
    41ae:	58                   	pop    %eax
    41af:	5a                   	pop    %edx
    41b0:	56                   	push   %esi
    41b1:	6a 00                	push   $0x0
    41b3:	e8 68 98 00 00       	call   da20 <async_callback_receive_start@plt>
    41b8:	83 c4 10             	add    $0x10,%esp
    41bb:	89 c6                	mov    %eax,%esi
    41bd:	85 c0                	test   %eax,%eax
    41bf:	74 6f                	je     4230 <remote_audio_pcm_events_register+0xc0>
    41c1:	50                   	push   %eax
    41c2:	50                   	push   %eax
    41c3:	8b 45 08             	mov    0x8(%ebp),%eax
    41c6:	56                   	push   %esi
    41c7:	50                   	push   %eax
    41c8:	ff 53 18             	call   *0x18(%ebx)
    41cb:	83 c4 10             	add    $0x10,%esp
    41ce:	89 c3                	mov    %eax,%ebx
    41d0:	85 c0                	test   %eax,%eax
    41d2:	74 2c                	je     4200 <remote_audio_pcm_events_register+0x90>
    41d4:	52                   	push   %edx
    41d5:	52                   	push   %edx
    41d6:	68 16 be 00 00       	push   $0xbe16
    41db:	6a 04                	push   $0x4
    41dd:	e8 3e f5 ff ff       	call   3720 <ddf_msg>
    41e2:	89 34 24             	mov    %esi,(%esp)
    41e5:	e8 d6 95 00 00       	call   d7c0 <async_hangup@plt>
    41ea:	59                   	pop    %ecx
    41eb:	5e                   	pop    %esi
    41ec:	53                   	push   %ebx
    41ed:	57                   	push   %edi
    41ee:	e8 0d 97 00 00       	call   d900 <async_answer_0@plt>
    41f3:	83 c4 10             	add    $0x10,%esp
    41f6:	8d 65 f4             	lea    -0xc(%ebp),%esp
    41f9:	5b                   	pop    %ebx
    41fa:	5e                   	pop    %esi
    41fb:	5f                   	pop    %edi
    41fc:	5d                   	pop    %ebp
    41fd:	c3                   	ret    
    41fe:	66 90                	xchg   %ax,%ax
    4200:	50                   	push   %eax
    4201:	50                   	push   %eax
    4202:	6a 00                	push   $0x0
    4204:	57                   	push   %edi
    4205:	e8 f6 96 00 00       	call   d900 <async_answer_0@plt>
    420a:	83 c4 10             	add    $0x10,%esp
    420d:	8d 65 f4             	lea    -0xc(%ebp),%esp
    4210:	5b                   	pop    %ebx
    4211:	5e                   	pop    %esi
    4212:	5f                   	pop    %edi
    4213:	5d                   	pop    %ebp
    4214:	c3                   	ret    
    4215:	8d 76 00             	lea    0x0(%esi),%esi
    4218:	8b 5d 10             	mov    0x10(%ebp),%ebx
    421b:	51                   	push   %ecx
    421c:	51                   	push   %ecx
    421d:	6a f5                	push   $0xfffffff5
    421f:	53                   	push   %ebx
    4220:	e8 db 96 00 00       	call   d900 <async_answer_0@plt>
    4225:	83 c4 10             	add    $0x10,%esp
    4228:	8d 65 f4             	lea    -0xc(%ebp),%esp
    422b:	5b                   	pop    %ebx
    422c:	5e                   	pop    %esi
    422d:	5f                   	pop    %edi
    422e:	5d                   	pop    %ebp
    422f:	c3                   	ret    
    4230:	50                   	push   %eax
    4231:	50                   	push   %eax
    4232:	68 a0 bf 00 00       	push   $0xbfa0
    4237:	6a 04                	push   $0x4
    4239:	e8 e2 f4 ff ff       	call   3720 <ddf_msg>
    423e:	58                   	pop    %eax
    423f:	5a                   	pop    %edx
    4240:	68 06 d5 ff ff       	push   $0xffffd506
    4245:	57                   	push   %edi
    4246:	e8 b5 96 00 00       	call   d900 <async_answer_0@plt>
    424b:	83 c4 10             	add    $0x10,%esp
    424e:	eb a6                	jmp    41f6 <remote_audio_pcm_events_register+0x86>

00004250 <remote_audio_pcm_get_info_str>:
    4250:	55                   	push   %ebp
    4251:	89 e5                	mov    %esp,%ebp
    4253:	56                   	push   %esi
    4254:	53                   	push   %ebx
    4255:	83 ec 10             	sub    $0x10,%esp
    4258:	8b 45 0c             	mov    0xc(%ebp),%eax
    425b:	8b 00                	mov    (%eax),%eax
    425d:	85 c0                	test   %eax,%eax
    425f:	0f 84 ab 00 00 00    	je     4310 <remote_audio_pcm_get_info_str+0xc0>
    4265:	8b 4d 08             	mov    0x8(%ebp),%ecx
    4268:	52                   	push   %edx
    4269:	c7 45 ec 00 00 00 00 	movl   $0x0,-0x14(%ebp)
    4270:	52                   	push   %edx
    4271:	8d 55 ec             	lea    -0x14(%ebp),%edx
    4274:	52                   	push   %edx
    4275:	51                   	push   %ecx
    4276:	ff d0                	call   *%eax
    4278:	83 c4 10             	add    $0x10,%esp
    427b:	89 c6                	mov    %eax,%esi
    427d:	8b 45 ec             	mov    -0x14(%ebp),%eax
    4280:	85 c0                	test   %eax,%eax
    4282:	74 5c                	je     42e0 <remote_audio_pcm_get_info_str+0x90>
    4284:	83 ec 0c             	sub    $0xc,%esp
    4287:	50                   	push   %eax
    4288:	e8 e3 98 00 00       	call   db70 <str_size@plt>
    428d:	83 c4 0c             	add    $0xc,%esp
    4290:	8d 58 01             	lea    0x1(%eax),%ebx
    4293:	8b 45 10             	mov    0x10(%ebp),%eax
    4296:	53                   	push   %ebx
    4297:	56                   	push   %esi
    4298:	50                   	push   %eax
    4299:	e8 f2 98 00 00       	call   db90 <async_answer_1@plt>
    429e:	83 c4 10             	add    $0x10,%esp
    42a1:	85 f6                	test   %esi,%esi
    42a3:	75 2f                	jne    42d4 <remote_audio_pcm_get_info_str+0x84>
    42a5:	85 db                	test   %ebx,%ebx
    42a7:	74 2b                	je     42d4 <remote_audio_pcm_get_info_str+0x84>
    42a9:	50                   	push   %eax
    42aa:	50                   	push   %eax
    42ab:	8d 45 f0             	lea    -0x10(%ebp),%eax
    42ae:	50                   	push   %eax
    42af:	8d 45 f4             	lea    -0xc(%ebp),%eax
    42b2:	50                   	push   %eax
    42b3:	e8 38 98 00 00       	call   daf0 <async_data_read_receive@plt>
    42b8:	83 c4 10             	add    $0x10,%esp
    42bb:	84 c0                	test   %al,%al
    42bd:	74 69                	je     4328 <remote_audio_pcm_get_info_str+0xd8>
    42bf:	3b 5d f0             	cmp    -0x10(%ebp),%ebx
    42c2:	74 34                	je     42f8 <remote_audio_pcm_get_info_str+0xa8>
    42c4:	50                   	push   %eax
    42c5:	50                   	push   %eax
    42c6:	8b 45 f4             	mov    -0xc(%ebp),%eax
    42c9:	6a fd                	push   $0xfffffffd
    42cb:	50                   	push   %eax
    42cc:	e8 2f 96 00 00       	call   d900 <async_answer_0@plt>
    42d1:	83 c4 10             	add    $0x10,%esp
    42d4:	8d 65 f8             	lea    -0x8(%ebp),%esp
    42d7:	5b                   	pop    %ebx
    42d8:	5e                   	pop    %esi
    42d9:	5d                   	pop    %ebp
    42da:	c3                   	ret    
    42db:	90                   	nop
    42dc:	8d 74 26 00          	lea    0x0(%esi,%eiz,1),%esi
    42e0:	8b 55 10             	mov    0x10(%ebp),%edx
    42e3:	50                   	push   %eax
    42e4:	6a 00                	push   $0x0
    42e6:	56                   	push   %esi
    42e7:	52                   	push   %edx
    42e8:	e8 a3 98 00 00       	call   db90 <async_answer_1@plt>
    42ed:	83 c4 10             	add    $0x10,%esp
    42f0:	8d 65 f8             	lea    -0x8(%ebp),%esp
    42f3:	5b                   	pop    %ebx
    42f4:	5e                   	pop    %esi
    42f5:	5d                   	pop    %ebp
    42f6:	c3                   	ret    
    42f7:	90                   	nop
    42f8:	8b 75 f4             	mov    -0xc(%ebp),%esi
    42fb:	51                   	push   %ecx
    42fc:	53                   	push   %ebx
    42fd:	8b 5d ec             	mov    -0x14(%ebp),%ebx
    4300:	53                   	push   %ebx
    4301:	56                   	push   %esi
    4302:	e8 59 95 00 00       	call   d860 <async_data_read_finalize@plt>
    4307:	83 c4 10             	add    $0x10,%esp
    430a:	eb c8                	jmp    42d4 <remote_audio_pcm_get_info_str+0x84>
    430c:	8d 74 26 00          	lea    0x0(%esi,%eiz,1),%esi
    4310:	8b 75 10             	mov    0x10(%ebp),%esi
    4313:	53                   	push   %ebx
    4314:	53                   	push   %ebx
    4315:	6a f5                	push   $0xfffffff5
    4317:	56                   	push   %esi
    4318:	e8 e3 95 00 00       	call   d900 <async_answer_0@plt>
    431d:	83 c4 10             	add    $0x10,%esp
    4320:	8d 65 f8             	lea    -0x8(%ebp),%esp
    4323:	5b                   	pop    %ebx
    4324:	5e                   	pop    %esi
    4325:	5d                   	pop    %ebp
    4326:	c3                   	ret    
    4327:	90                   	nop
    4328:	50                   	push   %eax
    4329:	50                   	push   %eax
    432a:	8b 45 f4             	mov    -0xc(%ebp),%eax
    432d:	6a f8                	push   $0xfffffff8
    432f:	50                   	push   %eax
    4330:	e8 cb 95 00 00       	call   d900 <async_answer_0@plt>
    4335:	83 c4 10             	add    $0x10,%esp
    4338:	eb 9a                	jmp    42d4 <remote_audio_pcm_get_info_str+0x84>
    433a:	8d b6 00 00 00 00    	lea    0x0(%esi),%esi

00004340 <audio_pcm_cap_str>:
    4340:	55                   	push   %ebp
    4341:	b8 34 be 00 00       	mov    $0xbe34,%eax
    4346:	89 e5                	mov    %esp,%ebp
    4348:	8b 55 08             	mov    0x8(%ebp),%edx
    434b:	83 fa 06             	cmp    $0x6,%edx
    434e:	77 07                	ja     4357 <audio_pcm_cap_str+0x17>
    4350:	8b 04 95 f8 cf 00 00 	mov    0xcff8(,%edx,4),%eax
    4357:	5d                   	pop    %ebp
    4358:	c3                   	ret    
    4359:	8d b4 26 00 00 00 00 	lea    0x0(%esi,%eiz,1),%esi

00004360 <audio_pcm_event_str>:
    4360:	55                   	push   %ebp
    4361:	b8 40 be 00 00       	mov    $0xbe40,%eax
    4366:	89 e5                	mov    %esp,%ebp
    4368:	8b 55 08             	mov    0x8(%ebp),%edx
    436b:	81 fa 05 04 00 00    	cmp    $0x405,%edx
    4371:	77 07                	ja     437a <audio_pcm_event_str+0x1a>
    4373:	8b 04 95 e0 bf 00 00 	mov    0xbfe0(,%edx,4),%eax
    437a:	5d                   	pop    %ebp
    437b:	c3                   	ret    
    437c:	8d 74 26 00          	lea    0x0(%esi,%eiz,1),%esi

00004380 <audio_pcm_open_default>:
    4380:	55                   	push   %ebp
    4381:	89 e5                	mov    %esp,%ebp
    4383:	83 ec 28             	sub    $0x28,%esp
    4386:	80 3d 90 10 01 00 00 	cmpb   $0x0,0x11090
    438d:	75 20                	jne    43af <audio_pcm_open_default+0x2f>
    438f:	50                   	push   %eax
    4390:	6a 01                	push   $0x1
    4392:	68 8c 10 01 00       	push   $0x1108c
    4397:	68 4e be 00 00       	push   $0xbe4e
    439c:	e8 af 93 00 00       	call   d750 <loc_category_get_id@plt>
    43a1:	83 c4 10             	add    $0x10,%esp
    43a4:	85 c0                	test   %eax,%eax
    43a6:	75 68                	jne    4410 <audio_pcm_open_default+0x90>
    43a8:	c6 05 90 10 01 00 01 	movb   $0x1,0x11090
    43af:	8d 45 f4             	lea    -0xc(%ebp),%eax
    43b2:	51                   	push   %ecx
    43b3:	50                   	push   %eax
    43b4:	8d 45 f0             	lea    -0x10(%ebp),%eax
    43b7:	50                   	push   %eax
    43b8:	a1 8c 10 01 00       	mov    0x1108c,%eax
    43bd:	50                   	push   %eax
    43be:	c7 45 f0 00 00 00 00 	movl   $0x0,-0x10(%ebp)
    43c5:	c7 45 f4 00 00 00 00 	movl   $0x0,-0xc(%ebp)
    43cc:	e8 7f 97 00 00       	call   db50 <loc_category_get_svcs@plt>
    43d1:	83 c4 10             	add    $0x10,%esp
    43d4:	85 c0                	test   %eax,%eax
    43d6:	75 38                	jne    4410 <audio_pcm_open_default+0x90>
    43d8:	8b 55 f4             	mov    -0xc(%ebp),%edx
    43db:	85 d2                	test   %edx,%edx
    43dd:	75 19                	jne    43f8 <audio_pcm_open_default+0x78>
    43df:	83 ec 0c             	sub    $0xc,%esp
    43e2:	89 45 e4             	mov    %eax,-0x1c(%ebp)
    43e5:	8b 45 f0             	mov    -0x10(%ebp),%eax
    43e8:	50                   	push   %eax
    43e9:	e8 c2 98 00 00       	call   dcb0 <free@plt>
    43ee:	8b 45 e4             	mov    -0x1c(%ebp),%eax
    43f1:	83 c4 10             	add    $0x10,%esp
    43f4:	c9                   	leave  
    43f5:	c3                   	ret    
    43f6:	66 90                	xchg   %ax,%ax
    43f8:	8b 45 f0             	mov    -0x10(%ebp),%eax
    43fb:	52                   	push   %edx
    43fc:	6a 01                	push   $0x1
    43fe:	68 41 26 9b 41       	push   $0x419b2641
    4403:	8b 08                	mov    (%eax),%ecx
    4405:	51                   	push   %ecx
    4406:	e8 75 93 00 00       	call   d780 <loc_service_connect@plt>
    440b:	83 c4 10             	add    $0x10,%esp
    440e:	eb cf                	jmp    43df <audio_pcm_open_default+0x5f>
    4410:	31 c0                	xor    %eax,%eax
    4412:	c9                   	leave  
    4413:	c3                   	ret    
    4414:	8d b6 00 00 00 00    	lea    0x0(%esi),%esi
    441a:	8d bf 00 00 00 00    	lea    0x0(%edi),%edi

00004420 <audio_pcm_open>:
    4420:	55                   	push   %ebp
    4421:	89 e5                	mov    %esp,%ebp
    4423:	83 ec 1c             	sub    $0x1c,%esp
    4426:	8d 45 f4             	lea    -0xc(%ebp),%eax
    4429:	8b 4d 08             	mov    0x8(%ebp),%ecx
    442c:	6a 00                	push   $0x0
    442e:	c7 45 f4 00 00 00 00 	movl   $0x0,-0xc(%ebp)
    4435:	50                   	push   %eax
    4436:	51                   	push   %ecx
    4437:	e8 84 97 00 00       	call   dbc0 <devman_fun_get_handle@plt>
    443c:	83 c4 10             	add    $0x10,%esp
    443f:	85 c0                	test   %eax,%eax
    4441:	75 15                	jne    4458 <audio_pcm_open+0x38>
    4443:	8b 55 f4             	mov    -0xc(%ebp),%edx
    4446:	50                   	push   %eax
    4447:	50                   	push   %eax
    4448:	6a 01                	push   $0x1
    444a:	52                   	push   %edx
    444b:	e8 10 93 00 00       	call   d760 <devman_device_connect@plt>
    4450:	83 c4 10             	add    $0x10,%esp
    4453:	c9                   	leave  
    4454:	c3                   	ret    
    4455:	8d 76 00             	lea    0x0(%esi),%esi
    4458:	31 c0                	xor    %eax,%eax
    445a:	c9                   	leave  
    445b:	c3                   	ret    
    445c:	8d 74 26 00          	lea    0x0(%esi,%eiz,1),%esi

00004460 <audio_pcm_open_service>:
    4460:	55                   	push   %ebp
    4461:	89 e5                	mov    %esp,%ebp
    4463:	83 ec 0c             	sub    $0xc,%esp
    4466:	8b 45 08             	mov    0x8(%ebp),%eax
    4469:	6a 01                	push   $0x1
    446b:	68 41 26 9b 41       	push   $0x419b2641
    4470:	50                   	push   %eax
    4471:	e8 0a 93 00 00       	call   d780 <loc_service_connect@plt>
    4476:	c9                   	leave  
    4477:	c3                   	ret    
    4478:	90                   	nop
    4479:	8d b4 26 00 00 00 00 	lea    0x0(%esi,%eiz,1),%esi

00004480 <audio_pcm_close>:
    4480:	55                   	push   %ebp
    4481:	89 e5                	mov    %esp,%ebp
    4483:	8b 45 08             	mov    0x8(%ebp),%eax
    4486:	85 c0                	test   %eax,%eax
    4488:	74 06                	je     4490 <audio_pcm_close+0x10>
    448a:	5d                   	pop    %ebp
    448b:	e9 30 93 00 00       	jmp    d7c0 <async_hangup@plt>
    4490:	5d                   	pop    %ebp
    4491:	c3                   	ret    
    4492:	8d b4 26 00 00 00 00 	lea    0x0(%esi,%eiz,1),%esi
    4499:	8d bc 27 00 00 00 00 	lea    0x0(%edi,%eiz,1),%edi

000044a0 <audio_pcm_get_info_str>:
    44a0:	55                   	push   %ebp
    44a1:	89 e5                	mov    %esp,%ebp
    44a3:	57                   	push   %edi
    44a4:	56                   	push   %esi
    44a5:	53                   	push   %ebx
    44a6:	83 ec 2c             	sub    $0x2c,%esp
    44a9:	8b 45 0c             	mov    0xc(%ebp),%eax
    44ac:	85 c0                	test   %eax,%eax
    44ae:	0f 84 ac 00 00 00    	je     4560 <audio_pcm_get_info_str+0xc0>
    44b4:	83 ec 0c             	sub    $0xc,%esp
    44b7:	8b 45 08             	mov    0x8(%ebp),%eax
    44ba:	50                   	push   %eax
    44bb:	e8 e0 96 00 00       	call   dba0 <async_exchange_begin@plt>
    44c0:	83 c4 0c             	add    $0xc,%esp
    44c3:	89 c6                	mov    %eax,%esi
    44c5:	8d 45 e4             	lea    -0x1c(%ebp),%eax
    44c8:	6a 00                	push   $0x0
    44ca:	6a 00                	push   $0x0
    44cc:	6a 00                	push   $0x0
    44ce:	6a 00                	push   $0x0
    44d0:	50                   	push   %eax
    44d1:	6a 00                	push   $0x0
    44d3:	6a 00                	push   $0x0
    44d5:	6a 00                	push   $0x0
    44d7:	6a 00                	push   $0x0
    44d9:	68 04 04 00 00       	push   $0x404
    44de:	56                   	push   %esi
    44df:	e8 0c 94 00 00       	call   d8f0 <async_req_fast@plt>
    44e4:	83 c4 30             	add    $0x30,%esp
    44e7:	89 c3                	mov    %eax,%ebx
    44e9:	85 c0                	test   %eax,%eax
    44eb:	75 2e                	jne    451b <audio_pcm_get_info_str+0x7b>
    44ed:	8b 45 e4             	mov    -0x1c(%ebp),%eax
    44f0:	57                   	push   %edi
    44f1:	57                   	push   %edi
    44f2:	50                   	push   %eax
    44f3:	6a 01                	push   $0x1
    44f5:	e8 96 94 00 00       	call   d990 <calloc@plt>
    44fa:	83 c4 10             	add    $0x10,%esp
    44fd:	89 c7                	mov    %eax,%edi
    44ff:	85 c0                	test   %eax,%eax
    4501:	74 64                	je     4567 <audio_pcm_get_info_str+0xc7>
    4503:	8b 55 e4             	mov    -0x1c(%ebp),%edx
    4506:	50                   	push   %eax
    4507:	52                   	push   %edx
    4508:	57                   	push   %edi
    4509:	56                   	push   %esi
    450a:	e8 f1 95 00 00       	call   db00 <async_data_read_start@plt>
    450f:	83 c4 10             	add    $0x10,%esp
    4512:	85 c0                	test   %eax,%eax
    4514:	75 22                	jne    4538 <audio_pcm_get_info_str+0x98>
    4516:	8b 45 0c             	mov    0xc(%ebp),%eax
    4519:	89 38                	mov    %edi,(%eax)
    451b:	83 ec 0c             	sub    $0xc,%esp
    451e:	56                   	push   %esi
    451f:	e8 3c 94 00 00       	call   d960 <async_exchange_end@plt>
    4524:	83 c4 10             	add    $0x10,%esp
    4527:	89 d8                	mov    %ebx,%eax
    4529:	8d 65 f4             	lea    -0xc(%ebp),%esp
    452c:	5b                   	pop    %ebx
    452d:	5e                   	pop    %esi
    452e:	5f                   	pop    %edi
    452f:	5d                   	pop    %ebp
    4530:	c3                   	ret    
    4531:	8d b4 26 00 00 00 00 	lea    0x0(%esi,%eiz,1),%esi
    4538:	83 ec 0c             	sub    $0xc,%esp
    453b:	89 45 d4             	mov    %eax,-0x2c(%ebp)
    453e:	57                   	push   %edi
    453f:	e8 6c 97 00 00       	call   dcb0 <free@plt>
    4544:	89 34 24             	mov    %esi,(%esp)
    4547:	e8 14 94 00 00       	call   d960 <async_exchange_end@plt>
    454c:	8b 45 d4             	mov    -0x2c(%ebp),%eax
    454f:	83 c4 10             	add    $0x10,%esp
    4552:	8d 65 f4             	lea    -0xc(%ebp),%esp
    4555:	5b                   	pop    %ebx
    4556:	5e                   	pop    %esi
    4557:	5f                   	pop    %edi
    4558:	5d                   	pop    %ebp
    4559:	c3                   	ret    
    455a:	8d b6 00 00 00 00    	lea    0x0(%esi),%esi
    4560:	b8 f2 ff ff ff       	mov    $0xfffffff2,%eax
    4565:	eb c2                	jmp    4529 <audio_pcm_get_info_str+0x89>
    4567:	51                   	push   %ecx
    4568:	6a 00                	push   $0x0
    456a:	6a ff                	push   $0xffffffff
    456c:	56                   	push   %esi
    456d:	e8 8e 95 00 00       	call   db00 <async_data_read_start@plt>
    4572:	89 34 24             	mov    %esi,(%esp)
    4575:	e8 e6 93 00 00       	call   d960 <async_exchange_end@plt>
    457a:	83 c4 10             	add    $0x10,%esp
    457d:	b8 fe ff ff ff       	mov    $0xfffffffe,%eax
    4582:	eb a5                	jmp    4529 <audio_pcm_get_info_str+0x89>
    4584:	8d b6 00 00 00 00    	lea    0x0(%esi),%esi
    458a:	8d bf 00 00 00 00    	lea    0x0(%edi),%edi

00004590 <audio_pcm_query_cap>:
    4590:	55                   	push   %ebp
    4591:	89 e5                	mov    %esp,%ebp
    4593:	53                   	push   %ebx
    4594:	83 ec 30             	sub    $0x30,%esp
    4597:	8b 45 08             	mov    0x8(%ebp),%eax
    459a:	50                   	push   %eax
    459b:	e8 00 96 00 00       	call   dba0 <async_exchange_begin@plt>
    45a0:	83 c4 0c             	add    $0xc,%esp
    45a3:	89 c3                	mov    %eax,%ebx
    45a5:	8b 55 0c             	mov    0xc(%ebp),%edx
    45a8:	8d 45 f4             	lea    -0xc(%ebp),%eax
    45ab:	6a 00                	push   $0x0
    45ad:	c7 45 f4 00 00 00 00 	movl   $0x0,-0xc(%ebp)
    45b4:	6a 00                	push   $0x0
    45b6:	6a 00                	push   $0x0
    45b8:	6a 00                	push   $0x0
    45ba:	50                   	push   %eax
    45bb:	6a 00                	push   $0x0
    45bd:	6a 00                	push   $0x0
    45bf:	52                   	push   %edx
    45c0:	6a 01                	push   $0x1
    45c2:	68 04 04 00 00       	push   $0x404
    45c7:	53                   	push   %ebx
    45c8:	e8 23 93 00 00       	call   d8f0 <async_req_fast@plt>
    45cd:	83 c4 24             	add    $0x24,%esp
    45d0:	89 45 e4             	mov    %eax,-0x1c(%ebp)
    45d3:	53                   	push   %ebx
    45d4:	e8 87 93 00 00       	call   d960 <async_exchange_end@plt>
    45d9:	8b 45 e4             	mov    -0x1c(%ebp),%eax
    45dc:	83 c4 10             	add    $0x10,%esp
    45df:	85 c0                	test   %eax,%eax
    45e1:	75 03                	jne    45e6 <audio_pcm_query_cap+0x56>
    45e3:	8b 45 f4             	mov    -0xc(%ebp),%eax
    45e6:	8b 5d fc             	mov    -0x4(%ebp),%ebx
    45e9:	c9                   	leave  
    45ea:	c3                   	ret    
    45eb:	90                   	nop
    45ec:	8d 74 26 00          	lea    0x0(%esi,%eiz,1),%esi

000045f0 <audio_pcm_get_buffer_pos>:
    45f0:	55                   	push   %ebp
    45f1:	89 e5                	mov    %esp,%ebp
    45f3:	56                   	push   %esi
    45f4:	53                   	push   %ebx
    45f5:	83 ec 20             	sub    $0x20,%esp
    45f8:	8b 75 0c             	mov    0xc(%ebp),%esi
    45fb:	85 f6                	test   %esi,%esi
    45fd:	74 61                	je     4660 <audio_pcm_get_buffer_pos+0x70>
    45ff:	83 ec 0c             	sub    $0xc,%esp
    4602:	8b 45 08             	mov    0x8(%ebp),%eax
    4605:	50                   	push   %eax
    4606:	e8 95 95 00 00       	call   dba0 <async_exchange_begin@plt>
    460b:	83 c4 0c             	add    $0xc,%esp
    460e:	89 c3                	mov    %eax,%ebx
    4610:	8d 45 f4             	lea    -0xc(%ebp),%eax
    4613:	c7 45 f4 00 00 00 00 	movl   $0x0,-0xc(%ebp)
    461a:	6a 00                	push   $0x0
    461c:	6a 00                	push   $0x0
    461e:	6a 00                	push   $0x0
    4620:	6a 00                	push   $0x0
    4622:	50                   	push   %eax
    4623:	6a 00                	push   $0x0
    4625:	6a 00                	push   $0x0
    4627:	6a 00                	push   $0x0
    4629:	6a 07                	push   $0x7
    462b:	68 04 04 00 00       	push   $0x404
    4630:	53                   	push   %ebx
    4631:	e8 ba 92 00 00       	call   d8f0 <async_req_fast@plt>
    4636:	83 c4 30             	add    $0x30,%esp
    4639:	85 c0                	test   %eax,%eax
    463b:	74 1b                	je     4658 <audio_pcm_get_buffer_pos+0x68>
    463d:	83 ec 0c             	sub    $0xc,%esp
    4640:	89 45 e4             	mov    %eax,-0x1c(%ebp)
    4643:	53                   	push   %ebx
    4644:	e8 17 93 00 00       	call   d960 <async_exchange_end@plt>
    4649:	83 c4 10             	add    $0x10,%esp
    464c:	8b 45 e4             	mov    -0x1c(%ebp),%eax
    464f:	8d 65 f8             	lea    -0x8(%ebp),%esp
    4652:	5b                   	pop    %ebx
    4653:	5e                   	pop    %esi
    4654:	5d                   	pop    %ebp
